; ModuleID = 'mcsema/test.proposed.inline.ll'
source_filename = "llvm-link"
target datalayout = "e-m:e-i64:64-f80:128-n8:16:32:64-S128"
target triple = "x86_64-pc-linux-gnu-elf"

%__bss_start_type = type <{ [8 x i8] }>
%struct.State = type { %struct.ArchState, [32 x %union.VectorReg], %struct.ArithFlags, %union.anon, %struct.Segments, %struct.AddressSpace, %struct.GPR, %struct.X87Stack, %struct.MMX, %struct.FPUStatusFlags, %union.anon, %union.FPU, %struct.SegmentCaches }
%struct.ArchState = type { i32, i32, %union.anon }
%union.VectorReg = type { %union.vec512_t }
%union.vec512_t = type { %struct.uint64v8_t }
%struct.uint64v8_t = type { [8 x i64] }
%struct.ArithFlags = type { i8, i8, i8, i8, i8, i8, i8, i8, i8, i8, i8, i8, i8, i8, i8, i8 }
%struct.Segments = type { i16, %union.SegmentSelector, i16, %union.SegmentSelector, i16, %union.SegmentSelector, i16, %union.SegmentSelector, i16, %union.SegmentSelector, i16, %union.SegmentSelector }
%union.SegmentSelector = type { i16 }
%struct.AddressSpace = type { i64, %struct.Reg, i64, %struct.Reg, i64, %struct.Reg, i64, %struct.Reg, i64, %struct.Reg, i64, %struct.Reg }
%struct.Reg = type { %union.anon }
%struct.GPR = type { i64, %struct.Reg, i64, %struct.Reg, i64, %struct.Reg, i64, %struct.Reg, i64, %struct.Reg, i64, %struct.Reg, i64, %struct.Reg, i64, %struct.Reg, i64, %struct.Reg, i64, %struct.Reg, i64, %struct.Reg, i64, %struct.Reg, i64, %struct.Reg, i64, %struct.Reg, i64, %struct.Reg, i64, %struct.Reg, i64, %struct.Reg }
%struct.X87Stack = type { [8 x %struct.anon.3] }
%struct.anon.3 = type { i64, double }
%struct.MMX = type { [8 x %struct.anon.4] }
%struct.anon.4 = type { i64, %union.vec64_t }
%union.vec64_t = type { %struct.uint64v1_t }
%struct.uint64v1_t = type { [1 x i64] }
%struct.FPUStatusFlags = type { i8, i8, i8, i8, i8, i8, i8, i8, i8, i8, i8, i8, i8, i8, i8, i8, i8, i8, i8, i8, [4 x i8] }
%union.anon = type { i64 }
%union.FPU = type { %struct.anon.13 }
%struct.anon.13 = type { %struct.FpuFXSAVE, [96 x i8] }
%struct.FpuFXSAVE = type { %union.SegmentSelector, %union.SegmentSelector, %union.FPUAbridgedTagWord, i8, i16, i32, %union.SegmentSelector, i16, i32, %union.SegmentSelector, i16, %union.FPUControlStatus, %union.FPUControlStatus, [8 x %struct.FPUStackElem], [16 x %union.vec128_t] }
%union.FPUAbridgedTagWord = type { i8 }
%union.FPUControlStatus = type { i32 }
%struct.FPUStackElem = type { %union.anon.11, [6 x i8] }
%union.anon.11 = type { %struct.float80_t }
%struct.float80_t = type { [10 x i8] }
%union.vec128_t = type { %struct.uint128v1_t }
%struct.uint128v1_t = type { [1 x i128] }
%struct.SegmentCaches = type { %struct.SegmentShadow, %struct.SegmentShadow, %struct.SegmentShadow, %struct.SegmentShadow, %struct.SegmentShadow, %struct.SegmentShadow }
%struct.SegmentShadow = type { %union.anon, i32, i32 }
%struct.Memory = type opaque

@__bss_start = local_unnamed_addr global %__bss_start_type zeroinitializer

; Function Attrs: nounwind readnone
declare i32 @llvm.ctpop.i32(i32) #0

declare %struct.Memory* @__remill_error(%struct.State* dereferenceable(3376), i64, %struct.Memory*) local_unnamed_addr

; Function Attrs: alwaysinline
define %struct.Memory* @_ZN32custom_divide_multiple_variable2IiE8do_shiftEiiiii(%struct.State* noalias, i64, %struct.Memory* noalias) local_unnamed_addr #1 {
entry:
  %3 = getelementptr inbounds %struct.State, %struct.State* %0, i64 0, i32 6, i32 33, i32 0, i32 0
  %RBP.i = getelementptr inbounds %struct.State, %struct.State* %0, i64 0, i32 6, i32 15, i32 0, i32 0
  %4 = load i64, i64* %RBP.i, align 8
  %5 = add i64 %1, 1
  store i64 %5, i64* %3, align 8
  %6 = getelementptr inbounds %struct.State, %struct.State* %0, i64 0, i32 6, i32 13, i32 0, i32 0
  %7 = load i64, i64* %6, align 8
  %8 = add i64 %7, -8
  %9 = inttoptr i64 %8 to i64*
  store i64 %4, i64* %9, align 8
  store i64 %8, i64* %6, align 8
  %10 = load i64, i64* %3, align 8
  store i64 %8, i64* %RBP.i, align 8
  %11 = getelementptr inbounds %struct.State, %struct.State* %0, i64 0, i32 6, i32 11, i32 0
  %EDI.i = bitcast %union.anon* %11 to i32*
  %12 = add i64 %7, -12
  %13 = load i32, i32* %EDI.i, align 4
  %14 = add i64 %10, 6
  store i64 %14, i64* %3, align 8
  %15 = inttoptr i64 %12 to i32*
  store i32 %13, i32* %15, align 4
  %16 = getelementptr inbounds %struct.State, %struct.State* %0, i64 0, i32 6, i32 9, i32 0
  %ESI.i = bitcast %union.anon* %16 to i32*
  %17 = load i64, i64* %RBP.i, align 8
  %18 = add i64 %17, -8
  %19 = load i32, i32* %ESI.i, align 4
  %20 = load i64, i64* %3, align 8
  %21 = add i64 %20, 3
  store i64 %21, i64* %3, align 8
  %22 = inttoptr i64 %18 to i32*
  store i32 %19, i32* %22, align 4
  %23 = getelementptr inbounds %struct.State, %struct.State* %0, i64 0, i32 6, i32 7, i32 0
  %EDX.i = bitcast %union.anon* %23 to i32*
  %24 = load i64, i64* %RBP.i, align 8
  %25 = add i64 %24, -12
  %26 = load i32, i32* %EDX.i, align 4
  %27 = load i64, i64* %3, align 8
  %28 = add i64 %27, 3
  store i64 %28, i64* %3, align 8
  %29 = inttoptr i64 %25 to i32*
  store i32 %26, i32* %29, align 4
  %30 = getelementptr inbounds %struct.State, %struct.State* %0, i64 0, i32 6, i32 5, i32 0
  %ECX.i30 = bitcast %union.anon* %30 to i32*
  %31 = load i64, i64* %RBP.i, align 8
  %32 = add i64 %31, -16
  %33 = load i32, i32* %ECX.i30, align 4
  %34 = load i64, i64* %3, align 8
  %35 = add i64 %34, 3
  store i64 %35, i64* %3, align 8
  %36 = inttoptr i64 %32 to i32*
  store i32 %33, i32* %36, align 4
  %37 = getelementptr inbounds %struct.State, %struct.State* %0, i64 0, i32 6, i32 17, i32 0
  %R8D.i = bitcast %union.anon* %37 to i32*
  %38 = load i64, i64* %RBP.i, align 8
  %39 = add i64 %38, -20
  %40 = load i32, i32* %R8D.i, align 4
  %41 = load i64, i64* %3, align 8
  %42 = add i64 %41, 4
  store i64 %42, i64* %3, align 8
  %43 = inttoptr i64 %39 to i32*
  store i32 %40, i32* %43, align 4
  %RCX.i25 = getelementptr inbounds %union.anon, %union.anon* %30, i64 0, i32 0
  %44 = load i64, i64* %RBP.i, align 8
  %45 = add i64 %44, -4
  %46 = load i64, i64* %3, align 8
  %47 = add i64 %46, 3
  store i64 %47, i64* %3, align 8
  %48 = inttoptr i64 %45 to i32*
  %49 = load i32, i32* %48, align 4
  %50 = zext i32 %49 to i64
  store i64 %50, i64* %RCX.i25, align 8
  %51 = getelementptr inbounds %struct.State, %struct.State* %0, i64 0, i32 6, i32 1, i32 0
  %RAX.i22 = getelementptr inbounds %union.anon, %union.anon* %51, i64 0, i32 0
  %52 = add i64 %44, -8
  %53 = add i64 %46, 6
  store i64 %53, i64* %3, align 8
  %54 = inttoptr i64 %52 to i32*
  %55 = load i32, i32* %54, align 4
  %56 = zext i32 %55 to i64
  store i64 %56, i64* %RAX.i22, align 8
  %57 = getelementptr inbounds %struct.State, %struct.State* %0, i64 0, i32 6, i32 7, i32 0, i32 0
  %58 = bitcast %union.anon* %51 to i32*
  %59 = sext i32 %55 to i64
  %60 = lshr i64 %59, 32
  store i64 %60, i64* %57, align 8
  %61 = add i64 %44, -12
  %62 = add i64 %46, 10
  store i64 %62, i64* %3, align 8
  %63 = inttoptr i64 %61 to i32*
  %64 = load i32, i32* %63, align 4
  %65 = sext i32 %64 to i64
  %66 = shl nuw i64 %60, 32
  %67 = or i64 %66, %56
  %68 = sdiv i64 %67, %65
  %69 = shl i64 %68, 32
  %70 = ashr exact i64 %69, 32
  %71 = icmp eq i64 %68, %70
  br i1 %71, label %74, label %72

; <label>:72:                                     ; preds = %entry
  %73 = tail call %struct.Memory* @__remill_error(%struct.State* nonnull dereferenceable(3376) %0, i64 %62, %struct.Memory* %2)
  %.pre = load i64, i64* %3, align 8
  %.pre1 = load i32, i32* %58, align 8
  %.pre2 = load i64, i64* %RBP.i, align 8
  br label %routine_idivl_MINUS0xc__rbp_.exit

; <label>:74:                                     ; preds = %entry
  %75 = srem i64 %67, %65
  %76 = and i64 %68, 4294967295
  store i64 %76, i64* %RAX.i22, align 8
  %77 = getelementptr inbounds %union.anon, %union.anon* %23, i64 0, i32 0
  %78 = and i64 %75, 4294967295
  store i64 %78, i64* %77, align 8
  %79 = getelementptr inbounds %struct.State, %struct.State* %0, i64 0, i32 2, i32 1
  store i8 0, i8* %79, align 1
  %80 = getelementptr inbounds %struct.State, %struct.State* %0, i64 0, i32 2, i32 3
  store i8 0, i8* %80, align 1
  %81 = getelementptr inbounds %struct.State, %struct.State* %0, i64 0, i32 2, i32 5
  store i8 0, i8* %81, align 1
  %82 = getelementptr inbounds %struct.State, %struct.State* %0, i64 0, i32 2, i32 7
  store i8 0, i8* %82, align 1
  %83 = getelementptr inbounds %struct.State, %struct.State* %0, i64 0, i32 2, i32 9
  store i8 0, i8* %83, align 1
  %84 = getelementptr inbounds %struct.State, %struct.State* %0, i64 0, i32 2, i32 13
  store i8 0, i8* %84, align 1
  %85 = trunc i64 %68 to i32
  br label %routine_idivl_MINUS0xc__rbp_.exit

routine_idivl_MINUS0xc__rbp_.exit:                ; preds = %74, %72
  %86 = phi i32 [ %.pre1, %72 ], [ %85, %74 ]
  %87 = phi i64 [ %.pre2, %72 ], [ %44, %74 ]
  %88 = phi i64 [ %.pre, %72 ], [ %62, %74 ]
  %89 = phi %struct.Memory* [ %73, %72 ], [ %2, %74 ]
  %90 = sext i32 %86 to i64
  %91 = lshr i64 %90, 32
  store i64 %91, i64* %57, align 8
  %92 = add i64 %87, -16
  %93 = add i64 %88, 4
  store i64 %93, i64* %3, align 8
  %94 = zext i32 %86 to i64
  %95 = inttoptr i64 %92 to i32*
  %96 = load i32, i32* %95, align 4
  %97 = sext i32 %96 to i64
  %98 = shl nuw i64 %91, 32
  %99 = or i64 %98, %94
  %100 = sdiv i64 %99, %97
  %101 = shl i64 %100, 32
  %102 = ashr exact i64 %101, 32
  %103 = icmp eq i64 %100, %102
  br i1 %103, label %106, label %104

; <label>:104:                                    ; preds = %routine_idivl_MINUS0xc__rbp_.exit
  %105 = tail call %struct.Memory* @__remill_error(%struct.State* nonnull dereferenceable(3376) %0, i64 %93, %struct.Memory* %89)
  %.pre3 = load i64, i64* %3, align 8
  %.pre4 = load i32, i32* %58, align 8
  %.pre5 = load i64, i64* %RBP.i, align 8
  br label %routine_idivl_MINUS0x10__rbp_.exit

; <label>:106:                                    ; preds = %routine_idivl_MINUS0xc__rbp_.exit
  %107 = srem i64 %99, %97
  %108 = and i64 %100, 4294967295
  store i64 %108, i64* %RAX.i22, align 8
  %109 = getelementptr inbounds %union.anon, %union.anon* %23, i64 0, i32 0
  %110 = and i64 %107, 4294967295
  store i64 %110, i64* %109, align 8
  %111 = getelementptr inbounds %struct.State, %struct.State* %0, i64 0, i32 2, i32 1
  store i8 0, i8* %111, align 1
  %112 = getelementptr inbounds %struct.State, %struct.State* %0, i64 0, i32 2, i32 3
  store i8 0, i8* %112, align 1
  %113 = getelementptr inbounds %struct.State, %struct.State* %0, i64 0, i32 2, i32 5
  store i8 0, i8* %113, align 1
  %114 = getelementptr inbounds %struct.State, %struct.State* %0, i64 0, i32 2, i32 7
  store i8 0, i8* %114, align 1
  %115 = getelementptr inbounds %struct.State, %struct.State* %0, i64 0, i32 2, i32 9
  store i8 0, i8* %115, align 1
  %116 = getelementptr inbounds %struct.State, %struct.State* %0, i64 0, i32 2, i32 13
  store i8 0, i8* %116, align 1
  %117 = trunc i64 %100 to i32
  br label %routine_idivl_MINUS0x10__rbp_.exit

routine_idivl_MINUS0x10__rbp_.exit:               ; preds = %106, %104
  %118 = phi i32 [ %.pre4, %104 ], [ %117, %106 ]
  %119 = phi i64 [ %.pre5, %104 ], [ %87, %106 ]
  %120 = phi i64 [ %.pre3, %104 ], [ %93, %106 ]
  %121 = phi %struct.Memory* [ %105, %104 ], [ %89, %106 ]
  %122 = sext i32 %118 to i64
  %123 = lshr i64 %122, 32
  store i64 %123, i64* %57, align 8
  %124 = add i64 %119, -20
  %125 = add i64 %120, 4
  store i64 %125, i64* %3, align 8
  %126 = zext i32 %118 to i64
  %127 = inttoptr i64 %124 to i32*
  %128 = load i32, i32* %127, align 4
  %129 = sext i32 %128 to i64
  %130 = shl nuw i64 %123, 32
  %131 = or i64 %130, %126
  %132 = sdiv i64 %131, %129
  %133 = shl i64 %132, 32
  %134 = ashr exact i64 %133, 32
  %135 = icmp eq i64 %132, %134
  br i1 %135, label %138, label %136

; <label>:136:                                    ; preds = %routine_idivl_MINUS0x10__rbp_.exit
  %137 = tail call %struct.Memory* @__remill_error(%struct.State* nonnull dereferenceable(3376) %0, i64 %125, %struct.Memory* %121)
  %.pre6 = load i32, i32* %58, align 4
  %.pre7 = load i64, i64* %3, align 8
  %.pre8 = getelementptr inbounds %struct.State, %struct.State* %0, i64 0, i32 2, i32 1
  %.pre9 = getelementptr inbounds %struct.State, %struct.State* %0, i64 0, i32 2, i32 3
  %.pre11 = getelementptr inbounds %struct.State, %struct.State* %0, i64 0, i32 2, i32 5
  %.pre13 = getelementptr inbounds %struct.State, %struct.State* %0, i64 0, i32 2, i32 7
  %.pre15 = getelementptr inbounds %struct.State, %struct.State* %0, i64 0, i32 2, i32 9
  %.pre17 = getelementptr inbounds %struct.State, %struct.State* %0, i64 0, i32 2, i32 13
  br label %routine_idivl_MINUS0x14__rbp_.exit

; <label>:138:                                    ; preds = %routine_idivl_MINUS0x10__rbp_.exit
  %139 = srem i64 %131, %129
  %140 = and i64 %132, 4294967295
  store i64 %140, i64* %RAX.i22, align 8
  %141 = getelementptr inbounds %union.anon, %union.anon* %23, i64 0, i32 0
  %142 = and i64 %139, 4294967295
  store i64 %142, i64* %141, align 8
  %143 = getelementptr inbounds %struct.State, %struct.State* %0, i64 0, i32 2, i32 1
  store i8 0, i8* %143, align 1
  %144 = getelementptr inbounds %struct.State, %struct.State* %0, i64 0, i32 2, i32 3
  store i8 0, i8* %144, align 1
  %145 = getelementptr inbounds %struct.State, %struct.State* %0, i64 0, i32 2, i32 5
  store i8 0, i8* %145, align 1
  %146 = getelementptr inbounds %struct.State, %struct.State* %0, i64 0, i32 2, i32 7
  store i8 0, i8* %146, align 1
  %147 = getelementptr inbounds %struct.State, %struct.State* %0, i64 0, i32 2, i32 9
  store i8 0, i8* %147, align 1
  %148 = getelementptr inbounds %struct.State, %struct.State* %0, i64 0, i32 2, i32 13
  store i8 0, i8* %148, align 1
  %149 = trunc i64 %132 to i32
  br label %routine_idivl_MINUS0x14__rbp_.exit

routine_idivl_MINUS0x14__rbp_.exit:               ; preds = %138, %136
  %.pre-phi18 = phi i8* [ %148, %138 ], [ %.pre17, %136 ]
  %.pre-phi16 = phi i8* [ %147, %138 ], [ %.pre15, %136 ]
  %.pre-phi14 = phi i8* [ %146, %138 ], [ %.pre13, %136 ]
  %.pre-phi12 = phi i8* [ %145, %138 ], [ %.pre11, %136 ]
  %.pre-phi10 = phi i8* [ %144, %138 ], [ %.pre9, %136 ]
  %.pre-phi = phi i8* [ %143, %138 ], [ %.pre8, %136 ]
  %150 = phi i64 [ %125, %138 ], [ %.pre7, %136 ]
  %151 = phi i32 [ %149, %138 ], [ %.pre6, %136 ]
  %152 = phi %struct.Memory* [ %121, %138 ], [ %137, %136 ]
  %153 = load i64, i64* %RCX.i25, align 8
  %154 = zext i32 %151 to i64
  %155 = trunc i64 %153 to i32
  %156 = add i32 %151, %155
  %157 = zext i32 %156 to i64
  store i64 %157, i64* %RCX.i25, align 8
  %158 = icmp ult i32 %156, %155
  %159 = icmp ult i32 %156, %151
  %160 = or i1 %158, %159
  %161 = zext i1 %160 to i8
  store i8 %161, i8* %.pre-phi, align 1
  %162 = and i32 %156, 255
  %163 = tail call i32 @llvm.ctpop.i32(i32 %162)
  %164 = trunc i32 %163 to i8
  %165 = and i8 %164, 1
  %166 = xor i8 %165, 1
  store i8 %166, i8* %.pre-phi10, align 1
  %167 = xor i64 %154, %153
  %168 = trunc i64 %167 to i32
  %169 = xor i32 %168, %156
  %170 = lshr i32 %169, 4
  %171 = trunc i32 %170 to i8
  %172 = and i8 %171, 1
  store i8 %172, i8* %.pre-phi12, align 1
  %173 = icmp eq i32 %156, 0
  %174 = zext i1 %173 to i8
  store i8 %174, i8* %.pre-phi14, align 1
  %175 = lshr i32 %156, 31
  %176 = trunc i32 %175 to i8
  store i8 %176, i8* %.pre-phi16, align 1
  %177 = lshr i32 %155, 31
  %178 = lshr i32 %151, 31
  %179 = xor i32 %175, %177
  %180 = xor i32 %175, %178
  %181 = add nuw nsw i32 %179, %180
  %182 = icmp eq i32 %181, 2
  %183 = zext i1 %182 to i8
  store i8 %183, i8* %.pre-phi18, align 1
  store i64 %157, i64* %RAX.i22, align 8
  %184 = add i64 %150, 5
  store i64 %184, i64* %3, align 8
  %185 = load i64, i64* %6, align 8
  %186 = add i64 %185, 8
  %187 = inttoptr i64 %185 to i64*
  %188 = load i64, i64* %187, align 8
  store i64 %188, i64* %RBP.i, align 8
  store i64 %186, i64* %6, align 8
  %189 = add i64 %150, 6
  store i64 %189, i64* %3, align 8
  %190 = inttoptr i64 %186 to i64*
  %191 = load i64, i64* %190, align 8
  store i64 %191, i64* %3, align 8
  %192 = add i64 %185, 16
  store i64 %192, i64* %6, align 8
  ret %struct.Memory* %152
}

; Function Attrs: norecurse nounwind
define %struct.Memory* @routine_pushq__rbp(%struct.State* nocapture dereferenceable(3376), i64, %struct.Memory* readnone returned) local_unnamed_addr #2 {
block_400488:
  %PC = getelementptr inbounds %struct.State, %struct.State* %0, i64 0, i32 6, i32 33, i32 0, i32 0
  %RBP = getelementptr inbounds %struct.State, %struct.State* %0, i64 0, i32 6, i32 15, i32 0, i32 0
  %3 = load i64, i64* %RBP, align 8
  %4 = load i64, i64* %PC, align 8
  %5 = add i64 %4, 1
  store i64 %5, i64* %PC, align 8
  %6 = getelementptr inbounds %struct.State, %struct.State* %0, i64 0, i32 6, i32 13, i32 0, i32 0
  %7 = load i64, i64* %6, align 8
  %8 = add i64 %7, -8
  %9 = inttoptr i64 %8 to i64*
  store i64 %3, i64* %9, align 8
  store i64 %8, i64* %6, align 8
  ret %struct.Memory* %2
}

; Function Attrs: norecurse nounwind
define %struct.Memory* @routine_movq__rsp___rbp(%struct.State* nocapture dereferenceable(3376), i64, %struct.Memory* readnone returned) local_unnamed_addr #2 {
block_400488:
  %PC = getelementptr inbounds %struct.State, %struct.State* %0, i64 0, i32 6, i32 33, i32 0, i32 0
  %RSP = getelementptr inbounds %struct.State, %struct.State* %0, i64 0, i32 6, i32 13, i32 0, i32 0
  %RBP = getelementptr inbounds %struct.State, %struct.State* %0, i64 0, i32 6, i32 15, i32 0, i32 0
  %3 = load i64, i64* %RSP, align 8
  %4 = load i64, i64* %PC, align 8
  %5 = add i64 %4, 3
  store i64 %5, i64* %PC, align 8
  store i64 %3, i64* %RBP, align 8
  ret %struct.Memory* %2
}

; Function Attrs: norecurse nounwind
define %struct.Memory* @routine_movl__edi__MINUS0x4__rbp_(%struct.State* nocapture dereferenceable(3376), i64, %struct.Memory* readnone returned) local_unnamed_addr #2 {
block_400488:
  %PC = getelementptr inbounds %struct.State, %struct.State* %0, i64 0, i32 6, i32 33, i32 0, i32 0
  %3 = getelementptr inbounds %struct.State, %struct.State* %0, i64 0, i32 6, i32 11, i32 0
  %EDI = bitcast %union.anon* %3 to i32*
  %RBP = getelementptr inbounds %struct.State, %struct.State* %0, i64 0, i32 6, i32 15, i32 0, i32 0
  %4 = load i64, i64* %RBP, align 8
  %5 = add i64 %4, -4
  %6 = load i32, i32* %EDI, align 4
  %7 = load i64, i64* %PC, align 8
  %8 = add i64 %7, 3
  store i64 %8, i64* %PC, align 8
  %9 = inttoptr i64 %5 to i32*
  store i32 %6, i32* %9, align 4
  ret %struct.Memory* %2
}

; Function Attrs: norecurse nounwind
define %struct.Memory* @routine_movl__esi__MINUS0x8__rbp_(%struct.State* nocapture dereferenceable(3376), i64, %struct.Memory* readnone returned) local_unnamed_addr #2 {
block_400488:
  %PC = getelementptr inbounds %struct.State, %struct.State* %0, i64 0, i32 6, i32 33, i32 0, i32 0
  %3 = getelementptr inbounds %struct.State, %struct.State* %0, i64 0, i32 6, i32 9, i32 0
  %ESI = bitcast %union.anon* %3 to i32*
  %RBP = getelementptr inbounds %struct.State, %struct.State* %0, i64 0, i32 6, i32 15, i32 0, i32 0
  %4 = load i64, i64* %RBP, align 8
  %5 = add i64 %4, -8
  %6 = load i32, i32* %ESI, align 4
  %7 = load i64, i64* %PC, align 8
  %8 = add i64 %7, 3
  store i64 %8, i64* %PC, align 8
  %9 = inttoptr i64 %5 to i32*
  store i32 %6, i32* %9, align 4
  ret %struct.Memory* %2
}

; Function Attrs: norecurse nounwind
define %struct.Memory* @routine_movl__edx__MINUS0xc__rbp_(%struct.State* nocapture dereferenceable(3376), i64, %struct.Memory* readnone returned) local_unnamed_addr #2 {
block_400488:
  %PC = getelementptr inbounds %struct.State, %struct.State* %0, i64 0, i32 6, i32 33, i32 0, i32 0
  %3 = getelementptr inbounds %struct.State, %struct.State* %0, i64 0, i32 6, i32 7, i32 0
  %EDX = bitcast %union.anon* %3 to i32*
  %RBP = getelementptr inbounds %struct.State, %struct.State* %0, i64 0, i32 6, i32 15, i32 0, i32 0
  %4 = load i64, i64* %RBP, align 8
  %5 = add i64 %4, -12
  %6 = load i32, i32* %EDX, align 4
  %7 = load i64, i64* %PC, align 8
  %8 = add i64 %7, 3
  store i64 %8, i64* %PC, align 8
  %9 = inttoptr i64 %5 to i32*
  store i32 %6, i32* %9, align 4
  ret %struct.Memory* %2
}

; Function Attrs: norecurse nounwind
define %struct.Memory* @routine_movl__ecx__MINUS0x10__rbp_(%struct.State* nocapture dereferenceable(3376), i64, %struct.Memory* readnone returned) local_unnamed_addr #2 {
block_400488:
  %PC = getelementptr inbounds %struct.State, %struct.State* %0, i64 0, i32 6, i32 33, i32 0, i32 0
  %3 = getelementptr inbounds %struct.State, %struct.State* %0, i64 0, i32 6, i32 5, i32 0
  %ECX = bitcast %union.anon* %3 to i32*
  %RBP = getelementptr inbounds %struct.State, %struct.State* %0, i64 0, i32 6, i32 15, i32 0, i32 0
  %4 = load i64, i64* %RBP, align 8
  %5 = add i64 %4, -16
  %6 = load i32, i32* %ECX, align 4
  %7 = load i64, i64* %PC, align 8
  %8 = add i64 %7, 3
  store i64 %8, i64* %PC, align 8
  %9 = inttoptr i64 %5 to i32*
  store i32 %6, i32* %9, align 4
  ret %struct.Memory* %2
}

; Function Attrs: norecurse nounwind
define %struct.Memory* @routine_movl__r8d__MINUS0x14__rbp_(%struct.State* nocapture dereferenceable(3376), i64, %struct.Memory* readnone returned) local_unnamed_addr #2 {
block_400488:
  %PC = getelementptr inbounds %struct.State, %struct.State* %0, i64 0, i32 6, i32 33, i32 0, i32 0
  %3 = getelementptr inbounds %struct.State, %struct.State* %0, i64 0, i32 6, i32 17, i32 0
  %R8D = bitcast %union.anon* %3 to i32*
  %RBP = getelementptr inbounds %struct.State, %struct.State* %0, i64 0, i32 6, i32 15, i32 0, i32 0
  %4 = load i64, i64* %RBP, align 8
  %5 = add i64 %4, -20
  %6 = load i32, i32* %R8D, align 4
  %7 = load i64, i64* %PC, align 8
  %8 = add i64 %7, 4
  store i64 %8, i64* %PC, align 8
  %9 = inttoptr i64 %5 to i32*
  store i32 %6, i32* %9, align 4
  ret %struct.Memory* %2
}

; Function Attrs: norecurse nounwind
define %struct.Memory* @routine_movl_MINUS0x4__rbp____ecx(%struct.State* nocapture dereferenceable(3376), i64, %struct.Memory* readnone returned) local_unnamed_addr #2 {
block_400488:
  %PC = getelementptr inbounds %struct.State, %struct.State* %0, i64 0, i32 6, i32 33, i32 0, i32 0
  %RCX = getelementptr inbounds %struct.State, %struct.State* %0, i64 0, i32 6, i32 5, i32 0, i32 0
  %RBP = getelementptr inbounds %struct.State, %struct.State* %0, i64 0, i32 6, i32 15, i32 0, i32 0
  %3 = load i64, i64* %RBP, align 8
  %4 = add i64 %3, -4
  %5 = load i64, i64* %PC, align 8
  %6 = add i64 %5, 3
  store i64 %6, i64* %PC, align 8
  %7 = inttoptr i64 %4 to i32*
  %8 = load i32, i32* %7, align 4
  %9 = zext i32 %8 to i64
  store i64 %9, i64* %RCX, align 8
  ret %struct.Memory* %2
}

; Function Attrs: norecurse nounwind
define %struct.Memory* @routine_movl_MINUS0x8__rbp____eax(%struct.State* nocapture dereferenceable(3376), i64, %struct.Memory* readnone returned) local_unnamed_addr #2 {
block_400488:
  %PC = getelementptr inbounds %struct.State, %struct.State* %0, i64 0, i32 6, i32 33, i32 0, i32 0
  %RAX = getelementptr inbounds %struct.State, %struct.State* %0, i64 0, i32 6, i32 1, i32 0, i32 0
  %RBP = getelementptr inbounds %struct.State, %struct.State* %0, i64 0, i32 6, i32 15, i32 0, i32 0
  %3 = load i64, i64* %RBP, align 8
  %4 = add i64 %3, -8
  %5 = load i64, i64* %PC, align 8
  %6 = add i64 %5, 3
  store i64 %6, i64* %PC, align 8
  %7 = inttoptr i64 %4 to i32*
  %8 = load i32, i32* %7, align 4
  %9 = zext i32 %8 to i64
  store i64 %9, i64* %RAX, align 8
  ret %struct.Memory* %2
}

; Function Attrs: norecurse nounwind
define %struct.Memory* @routine_cltd(%struct.State* nocapture dereferenceable(3376), i64, %struct.Memory* readnone returned) local_unnamed_addr #2 {
block_400488:
  %PC = getelementptr inbounds %struct.State, %struct.State* %0, i64 0, i32 6, i32 33, i32 0, i32 0
  %3 = load i64, i64* %PC, align 8
  %4 = add i64 %3, 1
  store i64 %4, i64* %PC, align 8
  %5 = getelementptr inbounds %struct.State, %struct.State* %0, i64 0, i32 6, i32 7, i32 0, i32 0
  %6 = getelementptr inbounds %struct.State, %struct.State* %0, i64 0, i32 6, i32 1, i32 0
  %7 = bitcast %union.anon* %6 to i32*
  %8 = load i32, i32* %7, align 8
  %9 = sext i32 %8 to i64
  %10 = lshr i64 %9, 32
  store i64 %10, i64* %5, align 8
  ret %struct.Memory* %2
}

define %struct.Memory* @routine_idivl_MINUS0xc__rbp_(%struct.State* dereferenceable(3376), i64, %struct.Memory*) local_unnamed_addr {
block_400488:
  %PC = getelementptr inbounds %struct.State, %struct.State* %0, i64 0, i32 6, i32 33, i32 0, i32 0
  %RBP = getelementptr inbounds %struct.State, %struct.State* %0, i64 0, i32 6, i32 15, i32 0, i32 0
  %3 = load i64, i64* %RBP, align 8
  %4 = add i64 %3, -12
  %5 = load i64, i64* %PC, align 8
  %6 = add i64 %5, 3
  store i64 %6, i64* %PC, align 8
  %7 = getelementptr inbounds %struct.State, %struct.State* %0, i64 0, i32 6, i32 1, i32 0
  %8 = bitcast %union.anon* %7 to i32*
  %9 = load i32, i32* %8, align 8
  %10 = zext i32 %9 to i64
  %11 = getelementptr inbounds %struct.State, %struct.State* %0, i64 0, i32 6, i32 7, i32 0
  %12 = bitcast %union.anon* %11 to i32*
  %13 = load i32, i32* %12, align 8
  %14 = zext i32 %13 to i64
  %15 = inttoptr i64 %4 to i32*
  %16 = load i32, i32* %15, align 4
  %17 = sext i32 %16 to i64
  %18 = shl nuw i64 %14, 32
  %19 = or i64 %18, %10
  %20 = sdiv i64 %19, %17
  %21 = shl i64 %20, 32
  %22 = ashr exact i64 %21, 32
  %23 = icmp eq i64 %20, %22
  br i1 %23, label %26, label %24

; <label>:24:                                     ; preds = %block_400488
  %25 = tail call %struct.Memory* @__remill_error(%struct.State* nonnull dereferenceable(3376) %0, i64 %6, %struct.Memory* %2)
  br label %_ZN12_GLOBAL__N_1L10IDIVedxeaxI2MnIjEEEP6MemoryS4_R5StateT_.exit

; <label>:26:                                     ; preds = %block_400488
  %27 = srem i64 %19, %17
  %28 = getelementptr inbounds %union.anon, %union.anon* %7, i64 0, i32 0
  %29 = and i64 %20, 4294967295
  store i64 %29, i64* %28, align 8
  %30 = getelementptr inbounds %union.anon, %union.anon* %11, i64 0, i32 0
  %31 = and i64 %27, 4294967295
  store i64 %31, i64* %30, align 8
  %32 = getelementptr inbounds %struct.State, %struct.State* %0, i64 0, i32 2, i32 1
  store i8 0, i8* %32, align 1
  %33 = getelementptr inbounds %struct.State, %struct.State* %0, i64 0, i32 2, i32 3
  store i8 0, i8* %33, align 1
  %34 = getelementptr inbounds %struct.State, %struct.State* %0, i64 0, i32 2, i32 5
  store i8 0, i8* %34, align 1
  %35 = getelementptr inbounds %struct.State, %struct.State* %0, i64 0, i32 2, i32 7
  store i8 0, i8* %35, align 1
  %36 = getelementptr inbounds %struct.State, %struct.State* %0, i64 0, i32 2, i32 9
  store i8 0, i8* %36, align 1
  %37 = getelementptr inbounds %struct.State, %struct.State* %0, i64 0, i32 2, i32 13
  store i8 0, i8* %37, align 1
  br label %_ZN12_GLOBAL__N_1L10IDIVedxeaxI2MnIjEEEP6MemoryS4_R5StateT_.exit

_ZN12_GLOBAL__N_1L10IDIVedxeaxI2MnIjEEEP6MemoryS4_R5StateT_.exit: ; preds = %26, %24
  %38 = phi %struct.Memory* [ %25, %24 ], [ %2, %26 ]
  ret %struct.Memory* %38
}

define %struct.Memory* @routine_idivl_MINUS0x10__rbp_(%struct.State* dereferenceable(3376), i64, %struct.Memory*) local_unnamed_addr {
block_400488:
  %PC = getelementptr inbounds %struct.State, %struct.State* %0, i64 0, i32 6, i32 33, i32 0, i32 0
  %RBP = getelementptr inbounds %struct.State, %struct.State* %0, i64 0, i32 6, i32 15, i32 0, i32 0
  %3 = load i64, i64* %RBP, align 8
  %4 = add i64 %3, -16
  %5 = load i64, i64* %PC, align 8
  %6 = add i64 %5, 3
  store i64 %6, i64* %PC, align 8
  %7 = getelementptr inbounds %struct.State, %struct.State* %0, i64 0, i32 6, i32 1, i32 0
  %8 = bitcast %union.anon* %7 to i32*
  %9 = load i32, i32* %8, align 8
  %10 = zext i32 %9 to i64
  %11 = getelementptr inbounds %struct.State, %struct.State* %0, i64 0, i32 6, i32 7, i32 0
  %12 = bitcast %union.anon* %11 to i32*
  %13 = load i32, i32* %12, align 8
  %14 = zext i32 %13 to i64
  %15 = inttoptr i64 %4 to i32*
  %16 = load i32, i32* %15, align 4
  %17 = sext i32 %16 to i64
  %18 = shl nuw i64 %14, 32
  %19 = or i64 %18, %10
  %20 = sdiv i64 %19, %17
  %21 = shl i64 %20, 32
  %22 = ashr exact i64 %21, 32
  %23 = icmp eq i64 %20, %22
  br i1 %23, label %26, label %24

; <label>:24:                                     ; preds = %block_400488
  %25 = tail call %struct.Memory* @__remill_error(%struct.State* nonnull dereferenceable(3376) %0, i64 %6, %struct.Memory* %2)
  br label %_ZN12_GLOBAL__N_1L10IDIVedxeaxI2MnIjEEEP6MemoryS4_R5StateT_.exit

; <label>:26:                                     ; preds = %block_400488
  %27 = srem i64 %19, %17
  %28 = getelementptr inbounds %union.anon, %union.anon* %7, i64 0, i32 0
  %29 = and i64 %20, 4294967295
  store i64 %29, i64* %28, align 8
  %30 = getelementptr inbounds %union.anon, %union.anon* %11, i64 0, i32 0
  %31 = and i64 %27, 4294967295
  store i64 %31, i64* %30, align 8
  %32 = getelementptr inbounds %struct.State, %struct.State* %0, i64 0, i32 2, i32 1
  store i8 0, i8* %32, align 1
  %33 = getelementptr inbounds %struct.State, %struct.State* %0, i64 0, i32 2, i32 3
  store i8 0, i8* %33, align 1
  %34 = getelementptr inbounds %struct.State, %struct.State* %0, i64 0, i32 2, i32 5
  store i8 0, i8* %34, align 1
  %35 = getelementptr inbounds %struct.State, %struct.State* %0, i64 0, i32 2, i32 7
  store i8 0, i8* %35, align 1
  %36 = getelementptr inbounds %struct.State, %struct.State* %0, i64 0, i32 2, i32 9
  store i8 0, i8* %36, align 1
  %37 = getelementptr inbounds %struct.State, %struct.State* %0, i64 0, i32 2, i32 13
  store i8 0, i8* %37, align 1
  br label %_ZN12_GLOBAL__N_1L10IDIVedxeaxI2MnIjEEEP6MemoryS4_R5StateT_.exit

_ZN12_GLOBAL__N_1L10IDIVedxeaxI2MnIjEEEP6MemoryS4_R5StateT_.exit: ; preds = %26, %24
  %38 = phi %struct.Memory* [ %25, %24 ], [ %2, %26 ]
  ret %struct.Memory* %38
}

define %struct.Memory* @routine_idivl_MINUS0x14__rbp_(%struct.State* dereferenceable(3376), i64, %struct.Memory*) local_unnamed_addr {
block_400488:
  %PC = getelementptr inbounds %struct.State, %struct.State* %0, i64 0, i32 6, i32 33, i32 0, i32 0
  %RBP = getelementptr inbounds %struct.State, %struct.State* %0, i64 0, i32 6, i32 15, i32 0, i32 0
  %3 = load i64, i64* %RBP, align 8
  %4 = add i64 %3, -20
  %5 = load i64, i64* %PC, align 8
  %6 = add i64 %5, 3
  store i64 %6, i64* %PC, align 8
  %7 = getelementptr inbounds %struct.State, %struct.State* %0, i64 0, i32 6, i32 1, i32 0
  %8 = bitcast %union.anon* %7 to i32*
  %9 = load i32, i32* %8, align 8
  %10 = zext i32 %9 to i64
  %11 = getelementptr inbounds %struct.State, %struct.State* %0, i64 0, i32 6, i32 7, i32 0
  %12 = bitcast %union.anon* %11 to i32*
  %13 = load i32, i32* %12, align 8
  %14 = zext i32 %13 to i64
  %15 = inttoptr i64 %4 to i32*
  %16 = load i32, i32* %15, align 4
  %17 = sext i32 %16 to i64
  %18 = shl nuw i64 %14, 32
  %19 = or i64 %18, %10
  %20 = sdiv i64 %19, %17
  %21 = shl i64 %20, 32
  %22 = ashr exact i64 %21, 32
  %23 = icmp eq i64 %20, %22
  br i1 %23, label %26, label %24

; <label>:24:                                     ; preds = %block_400488
  %25 = tail call %struct.Memory* @__remill_error(%struct.State* nonnull dereferenceable(3376) %0, i64 %6, %struct.Memory* %2)
  br label %_ZN12_GLOBAL__N_1L10IDIVedxeaxI2MnIjEEEP6MemoryS4_R5StateT_.exit

; <label>:26:                                     ; preds = %block_400488
  %27 = srem i64 %19, %17
  %28 = getelementptr inbounds %union.anon, %union.anon* %7, i64 0, i32 0
  %29 = and i64 %20, 4294967295
  store i64 %29, i64* %28, align 8
  %30 = getelementptr inbounds %union.anon, %union.anon* %11, i64 0, i32 0
  %31 = and i64 %27, 4294967295
  store i64 %31, i64* %30, align 8
  %32 = getelementptr inbounds %struct.State, %struct.State* %0, i64 0, i32 2, i32 1
  store i8 0, i8* %32, align 1
  %33 = getelementptr inbounds %struct.State, %struct.State* %0, i64 0, i32 2, i32 3
  store i8 0, i8* %33, align 1
  %34 = getelementptr inbounds %struct.State, %struct.State* %0, i64 0, i32 2, i32 5
  store i8 0, i8* %34, align 1
  %35 = getelementptr inbounds %struct.State, %struct.State* %0, i64 0, i32 2, i32 7
  store i8 0, i8* %35, align 1
  %36 = getelementptr inbounds %struct.State, %struct.State* %0, i64 0, i32 2, i32 9
  store i8 0, i8* %36, align 1
  %37 = getelementptr inbounds %struct.State, %struct.State* %0, i64 0, i32 2, i32 13
  store i8 0, i8* %37, align 1
  br label %_ZN12_GLOBAL__N_1L10IDIVedxeaxI2MnIjEEEP6MemoryS4_R5StateT_.exit

_ZN12_GLOBAL__N_1L10IDIVedxeaxI2MnIjEEEP6MemoryS4_R5StateT_.exit: ; preds = %26, %24
  %38 = phi %struct.Memory* [ %25, %24 ], [ %2, %26 ]
  ret %struct.Memory* %38
}

; Function Attrs: nounwind
define %struct.Memory* @routine_addl__eax___ecx(%struct.State* nocapture dereferenceable(3376), i64, %struct.Memory* readnone returned) local_unnamed_addr #3 {
block_400488:
  %PC = getelementptr inbounds %struct.State, %struct.State* %0, i64 0, i32 6, i32 33, i32 0, i32 0
  %3 = getelementptr inbounds %struct.State, %struct.State* %0, i64 0, i32 6, i32 1, i32 0
  %EAX = bitcast %union.anon* %3 to i32*
  %RCX = getelementptr inbounds %struct.State, %struct.State* %0, i64 0, i32 6, i32 5, i32 0, i32 0
  %4 = load i64, i64* %RCX, align 8
  %5 = load i32, i32* %EAX, align 4
  %6 = zext i32 %5 to i64
  %7 = load i64, i64* %PC, align 8
  %8 = add i64 %7, 2
  store i64 %8, i64* %PC, align 8
  %9 = trunc i64 %4 to i32
  %10 = add i32 %5, %9
  %11 = zext i32 %10 to i64
  store i64 %11, i64* %RCX, align 8
  %12 = icmp ult i32 %10, %9
  %13 = icmp ult i32 %10, %5
  %14 = or i1 %12, %13
  %15 = zext i1 %14 to i8
  %16 = getelementptr inbounds %struct.State, %struct.State* %0, i64 0, i32 2, i32 1
  store i8 %15, i8* %16, align 1
  %17 = and i32 %10, 255
  %18 = tail call i32 @llvm.ctpop.i32(i32 %17)
  %19 = trunc i32 %18 to i8
  %20 = and i8 %19, 1
  %21 = xor i8 %20, 1
  %22 = getelementptr inbounds %struct.State, %struct.State* %0, i64 0, i32 2, i32 3
  store i8 %21, i8* %22, align 1
  %23 = xor i64 %6, %4
  %24 = trunc i64 %23 to i32
  %25 = xor i32 %24, %10
  %26 = lshr i32 %25, 4
  %27 = trunc i32 %26 to i8
  %28 = and i8 %27, 1
  %29 = getelementptr inbounds %struct.State, %struct.State* %0, i64 0, i32 2, i32 5
  store i8 %28, i8* %29, align 1
  %30 = icmp eq i32 %10, 0
  %31 = zext i1 %30 to i8
  %32 = getelementptr inbounds %struct.State, %struct.State* %0, i64 0, i32 2, i32 7
  store i8 %31, i8* %32, align 1
  %33 = lshr i32 %10, 31
  %34 = trunc i32 %33 to i8
  %35 = getelementptr inbounds %struct.State, %struct.State* %0, i64 0, i32 2, i32 9
  store i8 %34, i8* %35, align 1
  %36 = lshr i32 %9, 31
  %37 = lshr i32 %5, 31
  %38 = xor i32 %33, %36
  %39 = xor i32 %33, %37
  %40 = add nuw nsw i32 %38, %39
  %41 = icmp eq i32 %40, 2
  %42 = zext i1 %41 to i8
  %43 = getelementptr inbounds %struct.State, %struct.State* %0, i64 0, i32 2, i32 13
  store i8 %42, i8* %43, align 1
  ret %struct.Memory* %2
}

; Function Attrs: norecurse nounwind
define %struct.Memory* @routine_movl__ecx___eax(%struct.State* nocapture dereferenceable(3376), i64, %struct.Memory* readnone returned) local_unnamed_addr #2 {
block_400488:
  %PC = getelementptr inbounds %struct.State, %struct.State* %0, i64 0, i32 6, i32 33, i32 0, i32 0
  %3 = getelementptr inbounds %struct.State, %struct.State* %0, i64 0, i32 6, i32 5, i32 0
  %ECX = bitcast %union.anon* %3 to i32*
  %RAX = getelementptr inbounds %struct.State, %struct.State* %0, i64 0, i32 6, i32 1, i32 0, i32 0
  %4 = load i32, i32* %ECX, align 4
  %5 = zext i32 %4 to i64
  %6 = load i64, i64* %PC, align 8
  %7 = add i64 %6, 2
  store i64 %7, i64* %PC, align 8
  store i64 %5, i64* %RAX, align 8
  ret %struct.Memory* %2
}

; Function Attrs: norecurse nounwind
define %struct.Memory* @routine_popq__rbp(%struct.State* nocapture dereferenceable(3376), i64, %struct.Memory* readnone returned) local_unnamed_addr #2 {
block_400488:
  %PC = getelementptr inbounds %struct.State, %struct.State* %0, i64 0, i32 6, i32 33, i32 0, i32 0
  %RBP = getelementptr inbounds %struct.State, %struct.State* %0, i64 0, i32 6, i32 15, i32 0, i32 0
  %3 = load i64, i64* %PC, align 8
  %4 = add i64 %3, 1
  store i64 %4, i64* %PC, align 8
  %5 = getelementptr inbounds %struct.State, %struct.State* %0, i64 0, i32 6, i32 13, i32 0, i32 0
  %6 = load i64, i64* %5, align 8
  %7 = add i64 %6, 8
  %8 = inttoptr i64 %6 to i64*
  %9 = load i64, i64* %8, align 8
  store i64 %9, i64* %RBP, align 8
  store i64 %7, i64* %5, align 8
  ret %struct.Memory* %2
}

; Function Attrs: norecurse nounwind
define %struct.Memory* @routine_retq(%struct.State* nocapture dereferenceable(3376), i64, %struct.Memory* readnone returned) local_unnamed_addr #2 {
block_400488:
  %PC = getelementptr inbounds %struct.State, %struct.State* %0, i64 0, i32 6, i32 33, i32 0, i32 0
  %3 = load i64, i64* %PC, align 8
  %4 = add i64 %3, 1
  store i64 %4, i64* %PC, align 8
  %5 = getelementptr inbounds %struct.State, %struct.State* %0, i64 0, i32 6, i32 13, i32 0, i32 0
  %6 = load i64, i64* %5, align 8
  %7 = inttoptr i64 %6 to i64*
  %8 = load i64, i64* %7, align 8
  store i64 %8, i64* %PC, align 8
  %9 = add i64 %6, 8
  store i64 %9, i64* %5, align 8
  ret %struct.Memory* %2
}

attributes #0 = { nounwind readnone }
attributes #1 = { alwaysinline }
attributes #2 = { norecurse nounwind }
attributes #3 = { nounwind }
