; ModuleID = 'test.bc'
source_filename = "llvm-link"
target datalayout = "e-m:e-i64:64-f80:128-n8:16:32:64-S128"
target triple = "x86_64-pc-linux-gnu-elf"
%union.anon = type { i64 }
%seg_400388__init_type = type <{ [23 x i8] }>
%seg_4003a0__text_type = type <{ [354 x i8] }>
%seg_400504__fini_type = type <{ [9 x i8] }>
%seg_400510__rodata_type = type <{ [4 x i8] }>
%seg_400514__eh_frame_hdr_type = type <{ [52 x i8] }>
%seg_400548__eh_frame_type = type <{ [208 x i8] }>
%seg_600e40__init_array_type = type <{ i64, i64 }>
%seg_601018__data_type = type <{ [16 x i8] }>
%__bss_start_type = type <{ [8 x i8] }>
%struct.State = type { %struct.ArchState, [32 x %union.VectorReg], %struct.ArithFlags, %union.anon, %struct.Segments, %struct.AddressSpace, %struct.GPR, %struct.X87Stack, %struct.MMX, %struct.FPUStatusFlags, %union.anon, %union.FPU, %struct.SegmentCaches }
%struct.ArchState = type { i32, i32, %union.anon }
%union.VectorReg = type { %union.vec512_t }
%union.vec512_t = type { %struct.uint64v8_t }
%struct.uint64v8_t = type { [8 x i64] }
%struct.ArithFlags = type { i8, i8, i8, i8, i8, i8, i8, i8, i8, i8, i8, i8, i8, i8, i8, i8 }
%struct.Segments = type { i16, %union.SegmentSelector, i16, %union.SegmentSelector, i16, %union.SegmentSelector, i16, %union.SegmentSelector, i16, %union.SegmentSelector, i16, %union.SegmentSelector }
%union.SegmentSelector = type { i16 }
%struct.AddressSpace = type { i64, %struct.Reg, i64, %struct.Reg, i64, %struct.Reg, i64, %struct.Reg, i64, %struct.Reg, i64, %struct.Reg }
%struct.Reg = type { %union.anon }
%struct.GPR = type { i64, %struct.Reg, i64, %struct.Reg, i64, %struct.Reg, i64, %struct.Reg, i64, %struct.Reg, i64, %struct.Reg, i64, %struct.Reg, i64, %struct.Reg, i64, %struct.Reg, i64, %struct.Reg, i64, %struct.Reg, i64, %struct.Reg, i64, %struct.Reg, i64, %struct.Reg, i64, %struct.Reg, i64, %struct.Reg, i64, %struct.Reg }
%struct.X87Stack = type { [8 x %struct.anon.3] }
%struct.anon.3 = type { i64, double }
%struct.MMX = type { [8 x %struct.anon.4] }
%struct.anon.4 = type { i64, %union.vec64_t }
%union.vec64_t = type { %struct.uint64v1_t }
%struct.uint64v1_t = type { [1 x i64] }
%struct.FPUStatusFlags = type { i8, i8, i8, i8, i8, i8, i8, i8, i8, i8, i8, i8, i8, i8, i8, i8, i8, i8, i8, i8, [4 x i8] }
%union.FPU = type { %struct.anon.13 }
%struct.anon.13 = type { %struct.FpuFXSAVE, [96 x i8] }
%struct.FpuFXSAVE = type { %union.SegmentSelector, %union.SegmentSelector, %union.FPUAbridgedTagWord, i8, i16, i32, %union.SegmentSelector, i16, i32, %union.SegmentSelector, i16, %union.FPUControlStatus, %union.FPUControlStatus, [8 x %struct.FPUStackElem], [16 x %union.vec128_t] }
%union.FPUAbridgedTagWord = type { i8 }
%union.FPUControlStatus = type { i32 }
%struct.FPUStackElem = type { %union.anon.11, [6 x i8] }
%union.anon.11 = type { %struct.float80_t }
%struct.float80_t = type { [10 x i8] }
%union.vec128_t = type { %struct.uint128v1_t }
%struct.uint128v1_t = type { [1 x i128] }
%struct.SegmentCaches = type { %struct.SegmentShadow, %struct.SegmentShadow, %struct.SegmentShadow, %struct.SegmentShadow, %struct.SegmentShadow, %struct.SegmentShadow }
%struct.SegmentShadow = type { %union.anon, i32, i32 }
%struct.Memory = type opaque
%struct.uint8v32_t = type { [32 x i8] }
%struct.anon.2 = type { i8, i8 }
%struct.int32v8_t = type { [8 x i32] }
%struct.float32v8_t = type { [8 x float] }
%struct.uint8v8_t = type { [8 x i8] }
%struct.uint8v16_t = type { [16 x i8] }
%struct.uint16v8_t = type { [8 x i16] }
%struct.uint8v4_t = type { [4 x i8] }
%struct.int16v4_t = type { [4 x i16] }
%struct.int32v4_t = type { [4 x i32] }
%struct.uint64v2_t = type { [2 x i64] }
%struct.uint64v4_t = type { [4 x i64] }
%struct.uint128v2_t = type { [2 x i128] }
%struct.uint16v16_t = type { [16 x i16] }
%struct.float64v4_t = type { [4 x double] }
%"class.(anonymous namespace)::BitMatrix" = type { %"class.std::bitset", [16 x [16 x i8]] }
%"class.std::bitset" = type { %struct.uint64v4_t }
%struct.bcd80_t = type { [9 x %union.FPUAbridgedTagWord], %union.FPUAbridgedTagWord }
%struct.FpuFSAVE = type { %union.SegmentSelector, i16, %union.SegmentSelector, i16, %union.SegmentSelector, i16, i32, %union.SegmentSelector, i16, i32, %union.SegmentSelector, i16, [8 x %struct.FPUStackElem] }
%struct.anon.5 = type { i32, i32 }
@switch.table = private unnamed_addr constant [4 x i32] [i32 2048, i32 3072, i32 0, i32 1024]
@DR0 = external global i64, align 8
@DR1 = external global i64, align 8
@DR2 = external global i64, align 8
@DR3 = external global i64, align 8
@DR4 = external global i64, align 8
@DR5 = external global i64, align 8
@DR6 = external global i64, align 8
@DR7 = external global i64, align 8
@gCR0 = external global %union.anon, align 1
@gCR1 = external global %union.anon, align 1
@gCR2 = external global %union.anon, align 1
@gCR3 = external global %union.anon, align 1
@gCR4 = external global %union.anon, align 1
@gCR8 = external global %union.anon, align 1
@seg_400388__init = internal constant %seg_400388__init_type <{ [23 x i8] c"H\83\EC\08H\8B\05e\0C \00H\85\C0t\02\FF\D0H\83\C4\08\C3" }>
@seg_4003a0__text = internal constant %seg_4003a0__text_type <{ [354 x i8] c"1\EDI\89\D1^H\89\E2H\83\E4\F0PTI\C7\C0\00\05@\00H\C7\C1\90\04@\00H\C7\C7\88\04@\00\FF\15&\0C \00\F4\0F\1FD\00\00\F3\C3f.\0F\1F\84\00\00\00\00\00\0F\1F@\00U\B8(\10`\00H=(\10`\00H\89\E5t\17\B8\00\00\00\00H\85\C0t\0D]\BF(\10`\00\FF\E0\0F\1FD\00\00]\C3f\0F\1FD\00\00\BE(\10`\00UH\81\EE(\10`\00H\89\E5H\C1\FE\03H\89\F0H\C1\E8?H\01\C6H\D1\FEt\15\B8\00\00\00\00H\85\C0t\0B]\BF(\10`\00\FF\E0\0F\1F\00]\C3f\0F\1FD\00\00\80=\D1\0B \00\00u\17UH\89\E5\E8~\FF\FF\FF\C6\05\BF\0B \00\01]\C3\0F\1FD\00\00\F3\C3\0F\1F@\00f.\0F\1F\84\00\00\00\00\00UH\89\E5]\EB\89\90U\C3f\0F\1FD\00\00AWAVI\89\D7AUATL\8D%\9E\09 \00UH\8D-\9E\09 \00SA\89\FDI\89\F6L)\E5H\83\EC\08H\C1\FD\03\E8\C7\FE\FF\FFH\85\EDt 1\DB\0F\1F\84\00\00\00\00\00L\89\FAL\89\F6D\89\EFA\FF\14\DCH\83\C3\01H9\DDu\EAH\83\C4\08[]A\5CA]A^A_\C3\90f.\0F\1F\84\00\00\00\00\00\F3\C3" }>
@seg_400504__fini = internal constant %seg_400504__fini_type <{ [9 x i8] c"H\83\EC\08H\83\C4\08\C3" }>
@seg_400510__rodata = internal constant %seg_400510__rodata_type <{ [4 x i8] c"\01\00\02\00" }>
@seg_400514__eh_frame_hdr = internal constant %seg_400514__eh_frame_hdr_type <{ [52 x i8] c"\01\1B\03;0\00\00\00\05\00\00\00\8C\FE\FF\FFL\00\00\00\BC\FE\FF\FFx\00\00\00t\FF\FF\FF\8C\00\00\00|\FF\FF\FF\A4\00\00\00\EC\FF\FF\FF\EC\00\00\00" }>
@seg_400548__eh_frame = internal constant %seg_400548__eh_frame_type <{ [208 x i8] c"\14\00\00\00\00\00\00\00\01zR\00\01x\10\01\1B\0C\07\08\90\01\07\10\10\00\00\00\1C\00\00\008\FE\FF\FF+\00\00\00\00\00\00\00\14\00\00\00\00\00\00\00\01zR\00\01x\10\01\1B\0C\07\08\90\01\00\00\10\00\00\00\1C\00\00\00<\FE\FF\FF\02\00\00\00\00\00\00\00\14\00\00\000\00\00\00\E0\FE\FF\FF\02\00\00\00\00\00\00\00\00\00\00\00D\00\00\00H\00\00\00\D0\FE\FF\FFe\00\00\00\00B\0E\10\8F\02B\0E\18\8E\03E\0E \8D\04B\0E(\8C\05H\0E0\86\06H\0E8\83\07M\0E@r\0E8A\0E0A\0E(B\0E B\0E\18B\0E\10B\0E\08\00\10\00\00\00\90\00\00\00\F8\FE\FF\FF\02\00\00\00\00\00\00\00\00\00\00\00" }>
@seg_601018__data = internal global %seg_601018__data_type zeroinitializer
@__bss_start = global %__bss_start_type zeroinitializer
@0 = internal global i1 false
%seg_400514__fini_type = type <{ [9 x i8] }>
%seg_400520__rodata_type = type <{ [4 x i8] }>
%seg_400524__eh_frame_hdr_type = type <{ [52 x i8] }>
%seg_400558__eh_frame_type = type <{ [208 x i8] }>
@seg_400514__fini = internal constant %seg_400514__fini_type <{ [9 x i8] c"H\83\EC\08H\83\C4\08\C3" }>
@seg_400520__rodata = internal constant %seg_400520__rodata_type <{ [4 x i8] c"\01\00\02\00" }>
@seg_400524__eh_frame_hdr = internal constant %seg_400524__eh_frame_hdr_type <{ [52 x i8] c"\01\1B\03;0\00\00\00\05\00\00\00|\FE\FF\FFL\00\00\00\AC\FE\FF\FFx\00\00\00d\FF\FF\FF\8C\00\00\00|\FF\FF\FF\A4\00\00\00\EC\FF\FF\FF\EC\00\00\00" }>
@seg_400558__eh_frame = internal constant %seg_400558__eh_frame_type <{ [208 x i8] c"\14\00\00\00\00\00\00\00\01zR\00\01x\10\01\1B\0C\07\08\90\01\07\10\10\00\00\00\1C\00\00\00(\FE\FF\FF+\00\00\00\00\00\00\00\14\00\00\00\00\00\00\00\01zR\00\01x\10\01\1B\0C\07\08\90\01\00\00\10\00\00\00\1C\00\00\00,\FE\FF\FF\02\00\00\00\00\00\00\00\14\00\00\000\00\00\00\D0\FE\FF\FF\0B\00\00\00\00\00\00\00\00\00\00\00D\00\00\00H\00\00\00\D0\FE\FF\FFe\00\00\00\00B\0E\10\8F\02B\0E\18\8E\03E\0E \8D\04B\0E(\8C\05H\0E0\86\06H\0E8\83\07M\0E@r\0E8A\0E0A\0E(B\0E B\0E\18B\0E\10B\0E\08\00\10\00\00\00\90\00\00\00\F8\FE\FF\FF\02\00\00\00\00\00\00\00\00\00\00\00" }>

; Function Declaraions
declare i32 @llvm.ctpop.i32(i32) #2
declare %struct.Memory* @__remill_error(%struct.State* dereferenceable(3376), i64, %struct.Memory*)

declare %struct.Memory* @sub_400440.printf_plt(%struct.State* dereferenceable(3376), i64, %struct.Memory*)
declare %struct.Memory* @sub_400550.createtask(%struct.State* dereferenceable(3376), i64, %struct.Memory*)
declare %struct.Memory* @sub_400610.pkt(%struct.State* dereferenceable(3376), i64, %struct.Memory*)
declare %struct.Memory* @sub_400710.schedule(%struct.State* dereferenceable(3376), i64, %struct.Memory*)

; Data Access Globals


define %struct.Memory* @main(%struct.State* noalias , i64, %struct.Memory* noalias) alwaysinline  {
entry:
  %3 = getelementptr inbounds %struct.State, %struct.State* %0, i64 0, i32 6, i32 33, i32 0, i32 0
  store i64 %1, i64* %3, align 8
  %BRANCH_TAKEN = alloca i8, align 1
  store i8 0, i8* %BRANCH_TAKEN, align 1
  %MEMORY = alloca %struct.Memory*, align 8
  store %struct.Memory* %2, %struct.Memory** %MEMORY, align 8

  ; Code: .main:	 RIP: 400e90	 Bytes: 0
  ; Code: pushq %rbp	 RIP: 400e90	 Bytes: 1
  %loadMem_400e90 = load %struct.Memory*, %struct.Memory** %MEMORY
  %call_400e90 = call %struct.Memory* @routine_pushq__rbp(%struct.State* %0, i64  0, %struct.Memory* %loadMem_400e90)
  store %struct.Memory* %call_400e90, %struct.Memory** %MEMORY

  ; Code: movq %rsp, %rbp	 RIP: 400e91	 Bytes: 3
  %loadMem_400e91 = load %struct.Memory*, %struct.Memory** %MEMORY
  %call_400e91 = call %struct.Memory* @routine_movq__rsp___rbp(%struct.State* %0, i64  0, %struct.Memory* %loadMem_400e91)
  store %struct.Memory* %call_400e91, %struct.Memory** %MEMORY

  ; Code: subq $0x60, %rsp	 RIP: 400e94	 Bytes: 4
  %loadMem_400e94 = load %struct.Memory*, %struct.Memory** %MEMORY
  %call_400e94 = call %struct.Memory* @routine_subq__0x60___rsp(%struct.State* %0, i64  0, %struct.Memory* %loadMem_400e94)
  store %struct.Memory* %call_400e94, %struct.Memory** %MEMORY

  ; Code: movq $0x401258, %rdi	 RIP: 400e98	 Bytes: 10
  %loadMem_400e98 = load %struct.Memory*, %struct.Memory** %MEMORY
  %call_400e98 = call %struct.Memory* @routine_movq__0x401258___rdi(%struct.State* %0, i64  0, %struct.Memory* %loadMem_400e98)
  store %struct.Memory* %call_400e98, %struct.Memory** %MEMORY

  ; Code: movl $0x0, -0x4(%rbp)	 RIP: 400ea2	 Bytes: 7
  %loadMem_400ea2 = load %struct.Memory*, %struct.Memory** %MEMORY
  %call_400ea2 = call %struct.Memory* @routine_movl__0x0__MINUS0x4__rbp_(%struct.State* %0, i64  0, %struct.Memory* %loadMem_400ea2)
  store %struct.Memory* %call_400ea2, %struct.Memory** %MEMORY

  ; Code: movq $0x0, -0x10(%rbp)	 RIP: 400ea9	 Bytes: 8
  %loadMem_400ea9 = load %struct.Memory*, %struct.Memory** %MEMORY
  %call_400ea9 = call %struct.Memory* @routine_movq__0x0__MINUS0x10__rbp_(%struct.State* %0, i64  0, %struct.Memory* %loadMem_400ea9)
  store %struct.Memory* %call_400ea9, %struct.Memory** %MEMORY

  ; Code: movb $0x0, %al	 RIP: 400eb1	 Bytes: 2
  %loadMem_400eb1 = load %struct.Memory*, %struct.Memory** %MEMORY
  %call_400eb1 = call %struct.Memory* @routine_movb__0x0___al(%struct.State* %0, i64  0, %struct.Memory* %loadMem_400eb1)
  store %struct.Memory* %call_400eb1, %struct.Memory** %MEMORY

  ; Code: callq .printf_plt	 RIP: 400eb3	 Bytes: 5
  %loadMem1_400eb3 = load %struct.Memory*, %struct.Memory** %MEMORY
  %call1_400eb3 = call %struct.Memory* @routine_callq_.printf_plt(%struct.State* %0, i64  0, %struct.Memory* %loadMem1_400eb3, i64 -2675, i64 5, i64 5)
  store %struct.Memory* %call1_400eb3, %struct.Memory** %MEMORY

  %loadMem2_400eb3 = load %struct.Memory*, %struct.Memory** %MEMORY
  %loadPC_400eb3 = load i64, i64* %3
  %call2_400eb3 = call %struct.Memory* @sub_400440.printf_plt(%struct.State* %0, i64  %loadPC_400eb3, %struct.Memory* %loadMem2_400eb3)
  store %struct.Memory* %call2_400eb3, %struct.Memory** %MEMORY

  ; Code: movl $0x1, %edi	 RIP: 400eb8	 Bytes: 5
  %loadMem_400eb8 = load %struct.Memory*, %struct.Memory** %MEMORY
  %call_400eb8 = call %struct.Memory* @routine_movl__0x1___edi(%struct.State* %0, i64  0, %struct.Memory* %loadMem_400eb8)
  store %struct.Memory* %call_400eb8, %struct.Memory** %MEMORY

  ; Code: xorl %ecx, %ecx	 RIP: 400ebd	 Bytes: 2
  %loadMem_400ebd = load %struct.Memory*, %struct.Memory** %MEMORY
  %call_400ebd = call %struct.Memory* @routine_xorl__ecx___ecx(%struct.State* %0, i64  0, %struct.Memory* %loadMem_400ebd)
  store %struct.Memory* %call_400ebd, %struct.Memory** %MEMORY

  ; Code: movq $0x400b30, %r8	 RIP: 400ebf	 Bytes: 10
  %loadMem_400ebf = load %struct.Memory*, %struct.Memory** %MEMORY
  %call_400ebf = call %struct.Memory* @routine_movq__0x400b30___r8(%struct.State* %0, i64  0, %struct.Memory* %loadMem_400ebf)
  store %struct.Memory* %call_400ebf, %struct.Memory** %MEMORY

  ; Code: movl $0x1, %edx	 RIP: 400ec9	 Bytes: 5
  %loadMem_400ec9 = load %struct.Memory*, %struct.Memory** %MEMORY
  %call_400ec9 = call %struct.Memory* @routine_movl__0x1___edx(%struct.State* %0, i64  0, %struct.Memory* %loadMem_400ec9)
  store %struct.Memory* %call_400ec9, %struct.Memory** %MEMORY

  ; Code: movl %edx, %r9d	 RIP: 400ece	 Bytes: 3
  %loadMem_400ece = load %struct.Memory*, %struct.Memory** %MEMORY
  %call_400ece = call %struct.Memory* @routine_movl__edx___r9d(%struct.State* %0, i64  0, %struct.Memory* %loadMem_400ece)
  store %struct.Memory* %call_400ece, %struct.Memory** %MEMORY

  ; Code: movl $0x989680, %edx	 RIP: 400ed1	 Bytes: 5
  %loadMem_400ed1 = load %struct.Memory*, %struct.Memory** %MEMORY
  %call_400ed1 = call %struct.Memory* @routine_movl__0x989680___edx(%struct.State* %0, i64  0, %struct.Memory* %loadMem_400ed1)
  store %struct.Memory* %call_400ed1, %struct.Memory** %MEMORY

  ; Code: movl %edx, %esi	 RIP: 400ed6	 Bytes: 2
  %loadMem_400ed6 = load %struct.Memory*, %struct.Memory** %MEMORY
  %call_400ed6 = call %struct.Memory* @routine_movl__edx___esi(%struct.State* %0, i64  0, %struct.Memory* %loadMem_400ed6)
  store %struct.Memory* %call_400ed6, %struct.Memory** %MEMORY

  ; Code: movq -0x10(%rbp), %rdx	 RIP: 400ed8	 Bytes: 4
  %loadMem_400ed8 = load %struct.Memory*, %struct.Memory** %MEMORY
  %call_400ed8 = call %struct.Memory* @routine_movq_MINUS0x10__rbp____rdx(%struct.State* %0, i64  0, %struct.Memory* %loadMem_400ed8)
  store %struct.Memory* %call_400ed8, %struct.Memory** %MEMORY

  ; Code: movq %rsi, -0x20(%rbp)	 RIP: 400edc	 Bytes: 4
  %loadMem_400edc = load %struct.Memory*, %struct.Memory** %MEMORY
  %call_400edc = call %struct.Memory* @routine_movq__rsi__MINUS0x20__rbp_(%struct.State* %0, i64  0, %struct.Memory* %loadMem_400edc)
  store %struct.Memory* %call_400edc, %struct.Memory** %MEMORY

  ; Code: movl %ecx, %esi	 RIP: 400ee0	 Bytes: 2
  %loadMem_400ee0 = load %struct.Memory*, %struct.Memory** %MEMORY
  %call_400ee0 = call %struct.Memory* @routine_movl__ecx___esi(%struct.State* %0, i64  0, %struct.Memory* %loadMem_400ee0)
  store %struct.Memory* %call_400ee0, %struct.Memory** %MEMORY

  ; Code: movq $0x989680, (%rsp)	 RIP: 400ee2	 Bytes: 8
  %loadMem_400ee2 = load %struct.Memory*, %struct.Memory** %MEMORY
  %call_400ee2 = call %struct.Memory* @routine_movq__0x989680____rsp_(%struct.State* %0, i64  0, %struct.Memory* %loadMem_400ee2)
  store %struct.Memory* %call_400ee2, %struct.Memory** %MEMORY

  ; Code: movl %eax, -0x24(%rbp)	 RIP: 400eea	 Bytes: 3
  %loadMem_400eea = load %struct.Memory*, %struct.Memory** %MEMORY
  %call_400eea = call %struct.Memory* @routine_movl__eax__MINUS0x24__rbp_(%struct.State* %0, i64  0, %struct.Memory* %loadMem_400eea)
  store %struct.Memory* %call_400eea, %struct.Memory** %MEMORY

  ; Code: callq .createtask	 RIP: 400eed	 Bytes: 5
  %loadMem1_400eed = load %struct.Memory*, %struct.Memory** %MEMORY
  %call1_400eed = call %struct.Memory* @routine_callq_.createtask(%struct.State* %0, i64  0, %struct.Memory* %loadMem1_400eed, i64 -2461, i64 5, i64 5)
  store %struct.Memory* %call1_400eed, %struct.Memory** %MEMORY

  %loadMem2_400eed = load %struct.Memory*, %struct.Memory** %MEMORY
  %loadPC_400eed = load i64, i64* %3
  %call2_400eed = call %struct.Memory* @sub_400550.createtask(%struct.State* %0, i64  %loadPC_400eed, %struct.Memory* %loadMem2_400eed)
  store %struct.Memory* %call2_400eed, %struct.Memory** %MEMORY

  ; Code: xorl %eax, %eax	 RIP: 400ef2	 Bytes: 2
  %loadMem_400ef2 = load %struct.Memory*, %struct.Memory** %MEMORY
  %call_400ef2 = call %struct.Memory* @routine_xorl__eax___eax(%struct.State* %0, i64  0, %struct.Memory* %loadMem_400ef2)
  store %struct.Memory* %call_400ef2, %struct.Memory** %MEMORY

  ; Code: movl %eax, %edi	 RIP: 400ef4	 Bytes: 2
  %loadMem_400ef4 = load %struct.Memory*, %struct.Memory** %MEMORY
  %call_400ef4 = call %struct.Memory* @routine_movl__eax___edi(%struct.State* %0, i64  0, %struct.Memory* %loadMem_400ef4)
  store %struct.Memory* %call_400ef4, %struct.Memory** %MEMORY

  ; Code: xorl %esi, %esi	 RIP: 400ef6	 Bytes: 2
  %loadMem_400ef6 = load %struct.Memory*, %struct.Memory** %MEMORY
  %call_400ef6 = call %struct.Memory* @routine_xorl__esi___esi(%struct.State* %0, i64  0, %struct.Memory* %loadMem_400ef6)
  store %struct.Memory* %call_400ef6, %struct.Memory** %MEMORY

  ; Code: movl $0x3e9, %edx	 RIP: 400ef8	 Bytes: 5
  %loadMem_400ef8 = load %struct.Memory*, %struct.Memory** %MEMORY
  %call_400ef8 = call %struct.Memory* @routine_movl__0x3e9___edx(%struct.State* %0, i64  0, %struct.Memory* %loadMem_400ef8)
  store %struct.Memory* %call_400ef8, %struct.Memory** %MEMORY

  ; Code: callq .pkt	 RIP: 400efd	 Bytes: 5
  %loadMem1_400efd = load %struct.Memory*, %struct.Memory** %MEMORY
  %call1_400efd = call %struct.Memory* @routine_callq_.pkt(%struct.State* %0, i64  0, %struct.Memory* %loadMem1_400efd, i64 -2285, i64 5, i64 5)
  store %struct.Memory* %call1_400efd, %struct.Memory** %MEMORY

  %loadMem2_400efd = load %struct.Memory*, %struct.Memory** %MEMORY
  %loadPC_400efd = load i64, i64* %3
  %call2_400efd = call %struct.Memory* @sub_400610.pkt(%struct.State* %0, i64  %loadPC_400efd, %struct.Memory* %loadMem2_400efd)
  store %struct.Memory* %call2_400efd, %struct.Memory** %MEMORY

  ; Code: xorl %esi, %esi	 RIP: 400f02	 Bytes: 2
  %loadMem_400f02 = load %struct.Memory*, %struct.Memory** %MEMORY
  %call_400f02 = call %struct.Memory* @routine_xorl__esi___esi(%struct.State* %0, i64  0, %struct.Memory* %loadMem_400f02)
  store %struct.Memory* %call_400f02, %struct.Memory** %MEMORY

  ; Code: movl $0x3e9, %edx	 RIP: 400f04	 Bytes: 5
  %loadMem_400f04 = load %struct.Memory*, %struct.Memory** %MEMORY
  %call_400f04 = call %struct.Memory* @routine_movl__0x3e9___edx(%struct.State* %0, i64  0, %struct.Memory* %loadMem_400f04)
  store %struct.Memory* %call_400f04, %struct.Memory** %MEMORY

  ; Code: movq %rax, -0x10(%rbp)	 RIP: 400f09	 Bytes: 4
  %loadMem_400f09 = load %struct.Memory*, %struct.Memory** %MEMORY
  %call_400f09 = call %struct.Memory* @routine_movq__rax__MINUS0x10__rbp_(%struct.State* %0, i64  0, %struct.Memory* %loadMem_400f09)
  store %struct.Memory* %call_400f09, %struct.Memory** %MEMORY

  ; Code: movq -0x10(%rbp), %rdi	 RIP: 400f0d	 Bytes: 4
  %loadMem_400f0d = load %struct.Memory*, %struct.Memory** %MEMORY
  %call_400f0d = call %struct.Memory* @routine_movq_MINUS0x10__rbp____rdi(%struct.State* %0, i64  0, %struct.Memory* %loadMem_400f0d)
  store %struct.Memory* %call_400f0d, %struct.Memory** %MEMORY

  ; Code: callq .pkt	 RIP: 400f11	 Bytes: 5
  %loadMem1_400f11 = load %struct.Memory*, %struct.Memory** %MEMORY
  %call1_400f11 = call %struct.Memory* @routine_callq_.pkt(%struct.State* %0, i64  0, %struct.Memory* %loadMem1_400f11, i64 -2305, i64 5, i64 5)
  store %struct.Memory* %call1_400f11, %struct.Memory** %MEMORY

  %loadMem2_400f11 = load %struct.Memory*, %struct.Memory** %MEMORY
  %loadPC_400f11 = load i64, i64* %3
  %call2_400f11 = call %struct.Memory* @sub_400610.pkt(%struct.State* %0, i64  %loadPC_400f11, %struct.Memory* %loadMem2_400f11)
  store %struct.Memory* %call2_400f11, %struct.Memory** %MEMORY

  ; Code: movl $0x2, %edi	 RIP: 400f16	 Bytes: 5
  %loadMem_400f16 = load %struct.Memory*, %struct.Memory** %MEMORY
  %call_400f16 = call %struct.Memory* @routine_movl__0x2___edi(%struct.State* %0, i64  0, %struct.Memory* %loadMem_400f16)
  store %struct.Memory* %call_400f16, %struct.Memory** %MEMORY

  ; Code: movl $0x3e8, %esi	 RIP: 400f1b	 Bytes: 5
  %loadMem_400f1b = load %struct.Memory*, %struct.Memory** %MEMORY
  %call_400f1b = call %struct.Memory* @routine_movl__0x3e8___esi(%struct.State* %0, i64  0, %struct.Memory* %loadMem_400f1b)
  store %struct.Memory* %call_400f1b, %struct.Memory** %MEMORY

  ; Code: movl $0x3, %ecx	 RIP: 400f20	 Bytes: 5
  %loadMem_400f20 = load %struct.Memory*, %struct.Memory** %MEMORY
  %call_400f20 = call %struct.Memory* @routine_movl__0x3___ecx(%struct.State* %0, i64  0, %struct.Memory* %loadMem_400f20)
  store %struct.Memory* %call_400f20, %struct.Memory** %MEMORY

  ; Code: movq $0x400bf0, %r8	 RIP: 400f25	 Bytes: 10
  %loadMem_400f25 = load %struct.Memory*, %struct.Memory** %MEMORY
  %call_400f25 = call %struct.Memory* @routine_movq__0x400bf0___r8(%struct.State* %0, i64  0, %struct.Memory* %loadMem_400f25)
  store %struct.Memory* %call_400f25, %struct.Memory** %MEMORY

  ; Code: movl $0x3, %edx	 RIP: 400f2f	 Bytes: 5
  %loadMem_400f2f = load %struct.Memory*, %struct.Memory** %MEMORY
  %call_400f2f = call %struct.Memory* @routine_movl__0x3___edx(%struct.State* %0, i64  0, %struct.Memory* %loadMem_400f2f)
  store %struct.Memory* %call_400f2f, %struct.Memory** %MEMORY

  ; Code: movl %edx, %r9d	 RIP: 400f34	 Bytes: 3
  %loadMem_400f34 = load %struct.Memory*, %struct.Memory** %MEMORY
  %call_400f34 = call %struct.Memory* @routine_movl__edx___r9d(%struct.State* %0, i64  0, %struct.Memory* %loadMem_400f34)
  store %struct.Memory* %call_400f34, %struct.Memory** %MEMORY

  ; Code: xorl %edx, %edx	 RIP: 400f37	 Bytes: 2
  %loadMem_400f37 = load %struct.Memory*, %struct.Memory** %MEMORY
  %call_400f37 = call %struct.Memory* @routine_xorl__edx___edx(%struct.State* %0, i64  0, %struct.Memory* %loadMem_400f37)
  store %struct.Memory* %call_400f37, %struct.Memory** %MEMORY

  ; Code: movl %edx, %r10d	 RIP: 400f39	 Bytes: 3
  %loadMem_400f39 = load %struct.Memory*, %struct.Memory** %MEMORY
  %call_400f39 = call %struct.Memory* @routine_movl__edx___r10d(%struct.State* %0, i64  0, %struct.Memory* %loadMem_400f39)
  store %struct.Memory* %call_400f39, %struct.Memory** %MEMORY

  ; Code: movq %rax, -0x10(%rbp)	 RIP: 400f3c	 Bytes: 4
  %loadMem_400f3c = load %struct.Memory*, %struct.Memory** %MEMORY
  %call_400f3c = call %struct.Memory* @routine_movq__rax__MINUS0x10__rbp_(%struct.State* %0, i64  0, %struct.Memory* %loadMem_400f3c)
  store %struct.Memory* %call_400f3c, %struct.Memory** %MEMORY

  ; Code: movq -0x10(%rbp), %rdx	 RIP: 400f40	 Bytes: 4
  %loadMem_400f40 = load %struct.Memory*, %struct.Memory** %MEMORY
  %call_400f40 = call %struct.Memory* @routine_movq_MINUS0x10__rbp____rdx(%struct.State* %0, i64  0, %struct.Memory* %loadMem_400f40)
  store %struct.Memory* %call_400f40, %struct.Memory** %MEMORY

  ; Code: movq $0x0, (%rsp)	 RIP: 400f44	 Bytes: 8
  %loadMem_400f44 = load %struct.Memory*, %struct.Memory** %MEMORY
  %call_400f44 = call %struct.Memory* @routine_movq__0x0____rsp_(%struct.State* %0, i64  0, %struct.Memory* %loadMem_400f44)
  store %struct.Memory* %call_400f44, %struct.Memory** %MEMORY

  ; Code: movq %r10, -0x30(%rbp)	 RIP: 400f4c	 Bytes: 4
  %loadMem_400f4c = load %struct.Memory*, %struct.Memory** %MEMORY
  %call_400f4c = call %struct.Memory* @routine_movq__r10__MINUS0x30__rbp_(%struct.State* %0, i64  0, %struct.Memory* %loadMem_400f4c)
  store %struct.Memory* %call_400f4c, %struct.Memory** %MEMORY

  ; Code: callq .createtask	 RIP: 400f50	 Bytes: 5
  %loadMem1_400f50 = load %struct.Memory*, %struct.Memory** %MEMORY
  %call1_400f50 = call %struct.Memory* @routine_callq_.createtask(%struct.State* %0, i64  0, %struct.Memory* %loadMem1_400f50, i64 -2560, i64 5, i64 5)
  store %struct.Memory* %call1_400f50, %struct.Memory** %MEMORY

  %loadMem2_400f50 = load %struct.Memory*, %struct.Memory** %MEMORY
  %loadPC_400f50 = load i64, i64* %3
  %call2_400f50 = call %struct.Memory* @sub_400550.createtask(%struct.State* %0, i64  %loadPC_400f50, %struct.Memory* %loadMem2_400f50)
  store %struct.Memory* %call2_400f50, %struct.Memory** %MEMORY

  ; Code: xorl %ecx, %ecx	 RIP: 400f55	 Bytes: 2
  %loadMem_400f55 = load %struct.Memory*, %struct.Memory** %MEMORY
  %call_400f55 = call %struct.Memory* @routine_xorl__ecx___ecx(%struct.State* %0, i64  0, %struct.Memory* %loadMem_400f55)
  store %struct.Memory* %call_400f55, %struct.Memory** %MEMORY

  ; Code: movl %ecx, %edi	 RIP: 400f57	 Bytes: 2
  %loadMem_400f57 = load %struct.Memory*, %struct.Memory** %MEMORY
  %call_400f57 = call %struct.Memory* @routine_movl__ecx___edi(%struct.State* %0, i64  0, %struct.Memory* %loadMem_400f57)
  store %struct.Memory* %call_400f57, %struct.Memory** %MEMORY

  ; Code: movl $0x5, %esi	 RIP: 400f59	 Bytes: 5
  %loadMem_400f59 = load %struct.Memory*, %struct.Memory** %MEMORY
  %call_400f59 = call %struct.Memory* @routine_movl__0x5___esi(%struct.State* %0, i64  0, %struct.Memory* %loadMem_400f59)
  store %struct.Memory* %call_400f59, %struct.Memory** %MEMORY

  ; Code: movl $0x3e8, %edx	 RIP: 400f5e	 Bytes: 5
  %loadMem_400f5e = load %struct.Memory*, %struct.Memory** %MEMORY
  %call_400f5e = call %struct.Memory* @routine_movl__0x3e8___edx(%struct.State* %0, i64  0, %struct.Memory* %loadMem_400f5e)
  store %struct.Memory* %call_400f5e, %struct.Memory** %MEMORY

  ; Code: callq .pkt	 RIP: 400f63	 Bytes: 5
  %loadMem1_400f63 = load %struct.Memory*, %struct.Memory** %MEMORY
  %call1_400f63 = call %struct.Memory* @routine_callq_.pkt(%struct.State* %0, i64  0, %struct.Memory* %loadMem1_400f63, i64 -2387, i64 5, i64 5)
  store %struct.Memory* %call1_400f63, %struct.Memory** %MEMORY

  %loadMem2_400f63 = load %struct.Memory*, %struct.Memory** %MEMORY
  %loadPC_400f63 = load i64, i64* %3
  %call2_400f63 = call %struct.Memory* @sub_400610.pkt(%struct.State* %0, i64  %loadPC_400f63, %struct.Memory* %loadMem2_400f63)
  store %struct.Memory* %call2_400f63, %struct.Memory** %MEMORY

  ; Code: movl $0x5, %esi	 RIP: 400f68	 Bytes: 5
  %loadMem_400f68 = load %struct.Memory*, %struct.Memory** %MEMORY
  %call_400f68 = call %struct.Memory* @routine_movl__0x5___esi(%struct.State* %0, i64  0, %struct.Memory* %loadMem_400f68)
  store %struct.Memory* %call_400f68, %struct.Memory** %MEMORY

  ; Code: movl $0x3e8, %edx	 RIP: 400f6d	 Bytes: 5
  %loadMem_400f6d = load %struct.Memory*, %struct.Memory** %MEMORY
  %call_400f6d = call %struct.Memory* @routine_movl__0x3e8___edx(%struct.State* %0, i64  0, %struct.Memory* %loadMem_400f6d)
  store %struct.Memory* %call_400f6d, %struct.Memory** %MEMORY

  ; Code: movq %rax, -0x10(%rbp)	 RIP: 400f72	 Bytes: 4
  %loadMem_400f72 = load %struct.Memory*, %struct.Memory** %MEMORY
  %call_400f72 = call %struct.Memory* @routine_movq__rax__MINUS0x10__rbp_(%struct.State* %0, i64  0, %struct.Memory* %loadMem_400f72)
  store %struct.Memory* %call_400f72, %struct.Memory** %MEMORY

  ; Code: movq -0x10(%rbp), %rdi	 RIP: 400f76	 Bytes: 4
  %loadMem_400f76 = load %struct.Memory*, %struct.Memory** %MEMORY
  %call_400f76 = call %struct.Memory* @routine_movq_MINUS0x10__rbp____rdi(%struct.State* %0, i64  0, %struct.Memory* %loadMem_400f76)
  store %struct.Memory* %call_400f76, %struct.Memory** %MEMORY

  ; Code: callq .pkt	 RIP: 400f7a	 Bytes: 5
  %loadMem1_400f7a = load %struct.Memory*, %struct.Memory** %MEMORY
  %call1_400f7a = call %struct.Memory* @routine_callq_.pkt(%struct.State* %0, i64  0, %struct.Memory* %loadMem1_400f7a, i64 -2410, i64 5, i64 5)
  store %struct.Memory* %call1_400f7a, %struct.Memory** %MEMORY

  %loadMem2_400f7a = load %struct.Memory*, %struct.Memory** %MEMORY
  %loadPC_400f7a = load i64, i64* %3
  %call2_400f7a = call %struct.Memory* @sub_400610.pkt(%struct.State* %0, i64  %loadPC_400f7a, %struct.Memory* %loadMem2_400f7a)
  store %struct.Memory* %call2_400f7a, %struct.Memory** %MEMORY

  ; Code: movl $0x5, %esi	 RIP: 400f7f	 Bytes: 5
  %loadMem_400f7f = load %struct.Memory*, %struct.Memory** %MEMORY
  %call_400f7f = call %struct.Memory* @routine_movl__0x5___esi(%struct.State* %0, i64  0, %struct.Memory* %loadMem_400f7f)
  store %struct.Memory* %call_400f7f, %struct.Memory** %MEMORY

  ; Code: movl $0x3e8, %edx	 RIP: 400f84	 Bytes: 5
  %loadMem_400f84 = load %struct.Memory*, %struct.Memory** %MEMORY
  %call_400f84 = call %struct.Memory* @routine_movl__0x3e8___edx(%struct.State* %0, i64  0, %struct.Memory* %loadMem_400f84)
  store %struct.Memory* %call_400f84, %struct.Memory** %MEMORY

  ; Code: movq %rax, -0x10(%rbp)	 RIP: 400f89	 Bytes: 4
  %loadMem_400f89 = load %struct.Memory*, %struct.Memory** %MEMORY
  %call_400f89 = call %struct.Memory* @routine_movq__rax__MINUS0x10__rbp_(%struct.State* %0, i64  0, %struct.Memory* %loadMem_400f89)
  store %struct.Memory* %call_400f89, %struct.Memory** %MEMORY

  ; Code: movq -0x10(%rbp), %rdi	 RIP: 400f8d	 Bytes: 4
  %loadMem_400f8d = load %struct.Memory*, %struct.Memory** %MEMORY
  %call_400f8d = call %struct.Memory* @routine_movq_MINUS0x10__rbp____rdi(%struct.State* %0, i64  0, %struct.Memory* %loadMem_400f8d)
  store %struct.Memory* %call_400f8d, %struct.Memory** %MEMORY

  ; Code: callq .pkt	 RIP: 400f91	 Bytes: 5
  %loadMem1_400f91 = load %struct.Memory*, %struct.Memory** %MEMORY
  %call1_400f91 = call %struct.Memory* @routine_callq_.pkt(%struct.State* %0, i64  0, %struct.Memory* %loadMem1_400f91, i64 -2433, i64 5, i64 5)
  store %struct.Memory* %call1_400f91, %struct.Memory** %MEMORY

  %loadMem2_400f91 = load %struct.Memory*, %struct.Memory** %MEMORY
  %loadPC_400f91 = load i64, i64* %3
  %call2_400f91 = call %struct.Memory* @sub_400610.pkt(%struct.State* %0, i64  %loadPC_400f91, %struct.Memory* %loadMem2_400f91)
  store %struct.Memory* %call2_400f91, %struct.Memory** %MEMORY

  ; Code: movl $0x3, %ecx	 RIP: 400f96	 Bytes: 5
  %loadMem_400f96 = load %struct.Memory*, %struct.Memory** %MEMORY
  %call_400f96 = call %struct.Memory* @routine_movl__0x3___ecx(%struct.State* %0, i64  0, %struct.Memory* %loadMem_400f96)
  store %struct.Memory* %call_400f96, %struct.Memory** %MEMORY

  ; Code: movl $0x7d0, %esi	 RIP: 400f9b	 Bytes: 5
  %loadMem_400f9b = load %struct.Memory*, %struct.Memory** %MEMORY
  %call_400f9b = call %struct.Memory* @routine_movl__0x7d0___esi(%struct.State* %0, i64  0, %struct.Memory* %loadMem_400f9b)
  store %struct.Memory* %call_400f9b, %struct.Memory** %MEMORY

  ; Code: movq $0x400cd0, %r8	 RIP: 400fa0	 Bytes: 10
  %loadMem_400fa0 = load %struct.Memory*, %struct.Memory** %MEMORY
  %call_400fa0 = call %struct.Memory* @routine_movq__0x400cd0___r8(%struct.State* %0, i64  0, %struct.Memory* %loadMem_400fa0)
  store %struct.Memory* %call_400fa0, %struct.Memory** %MEMORY

  ; Code: xorl %edx, %edx	 RIP: 400faa	 Bytes: 2
  %loadMem_400faa = load %struct.Memory*, %struct.Memory** %MEMORY
  %call_400faa = call %struct.Memory* @routine_xorl__edx___edx(%struct.State* %0, i64  0, %struct.Memory* %loadMem_400faa)
  store %struct.Memory* %call_400faa, %struct.Memory** %MEMORY

  ; Code: movl %edx, %r9d	 RIP: 400fac	 Bytes: 3
  %loadMem_400fac = load %struct.Memory*, %struct.Memory** %MEMORY
  %call_400fac = call %struct.Memory* @routine_movl__edx___r9d(%struct.State* %0, i64  0, %struct.Memory* %loadMem_400fac)
  store %struct.Memory* %call_400fac, %struct.Memory** %MEMORY

  ; Code: movq %rax, -0x10(%rbp)	 RIP: 400faf	 Bytes: 4
  %loadMem_400faf = load %struct.Memory*, %struct.Memory** %MEMORY
  %call_400faf = call %struct.Memory* @routine_movq__rax__MINUS0x10__rbp_(%struct.State* %0, i64  0, %struct.Memory* %loadMem_400faf)
  store %struct.Memory* %call_400faf, %struct.Memory** %MEMORY

  ; Code: movq -0x10(%rbp), %rdx	 RIP: 400fb3	 Bytes: 4
  %loadMem_400fb3 = load %struct.Memory*, %struct.Memory** %MEMORY
  %call_400fb3 = call %struct.Memory* @routine_movq_MINUS0x10__rbp____rdx(%struct.State* %0, i64  0, %struct.Memory* %loadMem_400fb3)
  store %struct.Memory* %call_400fb3, %struct.Memory** %MEMORY

  ; Code: movl %ecx, %edi	 RIP: 400fb7	 Bytes: 2
  %loadMem_400fb7 = load %struct.Memory*, %struct.Memory** %MEMORY
  %call_400fb7 = call %struct.Memory* @routine_movl__ecx___edi(%struct.State* %0, i64  0, %struct.Memory* %loadMem_400fb7)
  store %struct.Memory* %call_400fb7, %struct.Memory** %MEMORY

  ; Code: movq $0x0, (%rsp)	 RIP: 400fb9	 Bytes: 8
  %loadMem_400fb9 = load %struct.Memory*, %struct.Memory** %MEMORY
  %call_400fb9 = call %struct.Memory* @routine_movq__0x0____rsp_(%struct.State* %0, i64  0, %struct.Memory* %loadMem_400fb9)
  store %struct.Memory* %call_400fb9, %struct.Memory** %MEMORY

  ; Code: callq .createtask	 RIP: 400fc1	 Bytes: 5
  %loadMem1_400fc1 = load %struct.Memory*, %struct.Memory** %MEMORY
  %call1_400fc1 = call %struct.Memory* @routine_callq_.createtask(%struct.State* %0, i64  0, %struct.Memory* %loadMem1_400fc1, i64 -2673, i64 5, i64 5)
  store %struct.Memory* %call1_400fc1, %struct.Memory** %MEMORY

  %loadMem2_400fc1 = load %struct.Memory*, %struct.Memory** %MEMORY
  %loadPC_400fc1 = load i64, i64* %3
  %call2_400fc1 = call %struct.Memory* @sub_400550.createtask(%struct.State* %0, i64  %loadPC_400fc1, %struct.Memory* %loadMem2_400fc1)
  store %struct.Memory* %call2_400fc1, %struct.Memory** %MEMORY

  ; Code: xorl %ecx, %ecx	 RIP: 400fc6	 Bytes: 2
  %loadMem_400fc6 = load %struct.Memory*, %struct.Memory** %MEMORY
  %call_400fc6 = call %struct.Memory* @routine_xorl__ecx___ecx(%struct.State* %0, i64  0, %struct.Memory* %loadMem_400fc6)
  store %struct.Memory* %call_400fc6, %struct.Memory** %MEMORY

  ; Code: movl %ecx, %edi	 RIP: 400fc8	 Bytes: 2
  %loadMem_400fc8 = load %struct.Memory*, %struct.Memory** %MEMORY
  %call_400fc8 = call %struct.Memory* @routine_movl__ecx___edi(%struct.State* %0, i64  0, %struct.Memory* %loadMem_400fc8)
  store %struct.Memory* %call_400fc8, %struct.Memory** %MEMORY

  ; Code: movl $0x6, %esi	 RIP: 400fca	 Bytes: 5
  %loadMem_400fca = load %struct.Memory*, %struct.Memory** %MEMORY
  %call_400fca = call %struct.Memory* @routine_movl__0x6___esi(%struct.State* %0, i64  0, %struct.Memory* %loadMem_400fca)
  store %struct.Memory* %call_400fca, %struct.Memory** %MEMORY

  ; Code: movl $0x3e8, %edx	 RIP: 400fcf	 Bytes: 5
  %loadMem_400fcf = load %struct.Memory*, %struct.Memory** %MEMORY
  %call_400fcf = call %struct.Memory* @routine_movl__0x3e8___edx(%struct.State* %0, i64  0, %struct.Memory* %loadMem_400fcf)
  store %struct.Memory* %call_400fcf, %struct.Memory** %MEMORY

  ; Code: callq .pkt	 RIP: 400fd4	 Bytes: 5
  %loadMem1_400fd4 = load %struct.Memory*, %struct.Memory** %MEMORY
  %call1_400fd4 = call %struct.Memory* @routine_callq_.pkt(%struct.State* %0, i64  0, %struct.Memory* %loadMem1_400fd4, i64 -2500, i64 5, i64 5)
  store %struct.Memory* %call1_400fd4, %struct.Memory** %MEMORY

  %loadMem2_400fd4 = load %struct.Memory*, %struct.Memory** %MEMORY
  %loadPC_400fd4 = load i64, i64* %3
  %call2_400fd4 = call %struct.Memory* @sub_400610.pkt(%struct.State* %0, i64  %loadPC_400fd4, %struct.Memory* %loadMem2_400fd4)
  store %struct.Memory* %call2_400fd4, %struct.Memory** %MEMORY

  ; Code: movl $0x6, %esi	 RIP: 400fd9	 Bytes: 5
  %loadMem_400fd9 = load %struct.Memory*, %struct.Memory** %MEMORY
  %call_400fd9 = call %struct.Memory* @routine_movl__0x6___esi(%struct.State* %0, i64  0, %struct.Memory* %loadMem_400fd9)
  store %struct.Memory* %call_400fd9, %struct.Memory** %MEMORY

  ; Code: movl $0x3e8, %edx	 RIP: 400fde	 Bytes: 5
  %loadMem_400fde = load %struct.Memory*, %struct.Memory** %MEMORY
  %call_400fde = call %struct.Memory* @routine_movl__0x3e8___edx(%struct.State* %0, i64  0, %struct.Memory* %loadMem_400fde)
  store %struct.Memory* %call_400fde, %struct.Memory** %MEMORY

  ; Code: movq %rax, -0x10(%rbp)	 RIP: 400fe3	 Bytes: 4
  %loadMem_400fe3 = load %struct.Memory*, %struct.Memory** %MEMORY
  %call_400fe3 = call %struct.Memory* @routine_movq__rax__MINUS0x10__rbp_(%struct.State* %0, i64  0, %struct.Memory* %loadMem_400fe3)
  store %struct.Memory* %call_400fe3, %struct.Memory** %MEMORY

  ; Code: movq -0x10(%rbp), %rdi	 RIP: 400fe7	 Bytes: 4
  %loadMem_400fe7 = load %struct.Memory*, %struct.Memory** %MEMORY
  %call_400fe7 = call %struct.Memory* @routine_movq_MINUS0x10__rbp____rdi(%struct.State* %0, i64  0, %struct.Memory* %loadMem_400fe7)
  store %struct.Memory* %call_400fe7, %struct.Memory** %MEMORY

  ; Code: callq .pkt	 RIP: 400feb	 Bytes: 5
  %loadMem1_400feb = load %struct.Memory*, %struct.Memory** %MEMORY
  %call1_400feb = call %struct.Memory* @routine_callq_.pkt(%struct.State* %0, i64  0, %struct.Memory* %loadMem1_400feb, i64 -2523, i64 5, i64 5)
  store %struct.Memory* %call1_400feb, %struct.Memory** %MEMORY

  %loadMem2_400feb = load %struct.Memory*, %struct.Memory** %MEMORY
  %loadPC_400feb = load i64, i64* %3
  %call2_400feb = call %struct.Memory* @sub_400610.pkt(%struct.State* %0, i64  %loadPC_400feb, %struct.Memory* %loadMem2_400feb)
  store %struct.Memory* %call2_400feb, %struct.Memory** %MEMORY

  ; Code: movl $0x6, %esi	 RIP: 400ff0	 Bytes: 5
  %loadMem_400ff0 = load %struct.Memory*, %struct.Memory** %MEMORY
  %call_400ff0 = call %struct.Memory* @routine_movl__0x6___esi(%struct.State* %0, i64  0, %struct.Memory* %loadMem_400ff0)
  store %struct.Memory* %call_400ff0, %struct.Memory** %MEMORY

  ; Code: movl $0x3e8, %edx	 RIP: 400ff5	 Bytes: 5
  %loadMem_400ff5 = load %struct.Memory*, %struct.Memory** %MEMORY
  %call_400ff5 = call %struct.Memory* @routine_movl__0x3e8___edx(%struct.State* %0, i64  0, %struct.Memory* %loadMem_400ff5)
  store %struct.Memory* %call_400ff5, %struct.Memory** %MEMORY

  ; Code: movq %rax, -0x10(%rbp)	 RIP: 400ffa	 Bytes: 4
  %loadMem_400ffa = load %struct.Memory*, %struct.Memory** %MEMORY
  %call_400ffa = call %struct.Memory* @routine_movq__rax__MINUS0x10__rbp_(%struct.State* %0, i64  0, %struct.Memory* %loadMem_400ffa)
  store %struct.Memory* %call_400ffa, %struct.Memory** %MEMORY

  ; Code: movq -0x10(%rbp), %rdi	 RIP: 400ffe	 Bytes: 4
  %loadMem_400ffe = load %struct.Memory*, %struct.Memory** %MEMORY
  %call_400ffe = call %struct.Memory* @routine_movq_MINUS0x10__rbp____rdi(%struct.State* %0, i64  0, %struct.Memory* %loadMem_400ffe)
  store %struct.Memory* %call_400ffe, %struct.Memory** %MEMORY

  ; Code: callq .pkt	 RIP: 401002	 Bytes: 5
  %loadMem1_401002 = load %struct.Memory*, %struct.Memory** %MEMORY
  %call1_401002 = call %struct.Memory* @routine_callq_.pkt(%struct.State* %0, i64  0, %struct.Memory* %loadMem1_401002, i64 -2546, i64 5, i64 5)
  store %struct.Memory* %call1_401002, %struct.Memory** %MEMORY

  %loadMem2_401002 = load %struct.Memory*, %struct.Memory** %MEMORY
  %loadPC_401002 = load i64, i64* %3
  %call2_401002 = call %struct.Memory* @sub_400610.pkt(%struct.State* %0, i64  %loadPC_401002, %struct.Memory* %loadMem2_401002)
  store %struct.Memory* %call2_401002, %struct.Memory** %MEMORY

  ; Code: movl $0x4, %edi	 RIP: 401007	 Bytes: 5
  %loadMem_401007 = load %struct.Memory*, %struct.Memory** %MEMORY
  %call_401007 = call %struct.Memory* @routine_movl__0x4___edi(%struct.State* %0, i64  0, %struct.Memory* %loadMem_401007)
  store %struct.Memory* %call_401007, %struct.Memory** %MEMORY

  ; Code: movl $0xbb8, %esi	 RIP: 40100c	 Bytes: 5
  %loadMem_40100c = load %struct.Memory*, %struct.Memory** %MEMORY
  %call_40100c = call %struct.Memory* @routine_movl__0xbb8___esi(%struct.State* %0, i64  0, %struct.Memory* %loadMem_40100c)
  store %struct.Memory* %call_40100c, %struct.Memory** %MEMORY

  ; Code: movl $0x3, %ecx	 RIP: 401011	 Bytes: 5
  %loadMem_401011 = load %struct.Memory*, %struct.Memory** %MEMORY
  %call_401011 = call %struct.Memory* @routine_movl__0x3___ecx(%struct.State* %0, i64  0, %struct.Memory* %loadMem_401011)
  store %struct.Memory* %call_401011, %struct.Memory** %MEMORY

  ; Code: movq $0x400cd0, %r8	 RIP: 401016	 Bytes: 10
  %loadMem_401016 = load %struct.Memory*, %struct.Memory** %MEMORY
  %call_401016 = call %struct.Memory* @routine_movq__0x400cd0___r8(%struct.State* %0, i64  0, %struct.Memory* %loadMem_401016)
  store %struct.Memory* %call_401016, %struct.Memory** %MEMORY

  ; Code: xorl %edx, %edx	 RIP: 401020	 Bytes: 2
  %loadMem_401020 = load %struct.Memory*, %struct.Memory** %MEMORY
  %call_401020 = call %struct.Memory* @routine_xorl__edx___edx(%struct.State* %0, i64  0, %struct.Memory* %loadMem_401020)
  store %struct.Memory* %call_401020, %struct.Memory** %MEMORY

  ; Code: movl %edx, %r9d	 RIP: 401022	 Bytes: 3
  %loadMem_401022 = load %struct.Memory*, %struct.Memory** %MEMORY
  %call_401022 = call %struct.Memory* @routine_movl__edx___r9d(%struct.State* %0, i64  0, %struct.Memory* %loadMem_401022)
  store %struct.Memory* %call_401022, %struct.Memory** %MEMORY

  ; Code: movq %rax, -0x10(%rbp)	 RIP: 401025	 Bytes: 4
  %loadMem_401025 = load %struct.Memory*, %struct.Memory** %MEMORY
  %call_401025 = call %struct.Memory* @routine_movq__rax__MINUS0x10__rbp_(%struct.State* %0, i64  0, %struct.Memory* %loadMem_401025)
  store %struct.Memory* %call_401025, %struct.Memory** %MEMORY

  ; Code: movq -0x10(%rbp), %rdx	 RIP: 401029	 Bytes: 4
  %loadMem_401029 = load %struct.Memory*, %struct.Memory** %MEMORY
  %call_401029 = call %struct.Memory* @routine_movq_MINUS0x10__rbp____rdx(%struct.State* %0, i64  0, %struct.Memory* %loadMem_401029)
  store %struct.Memory* %call_401029, %struct.Memory** %MEMORY

  ; Code: movq $0x0, (%rsp)	 RIP: 40102d	 Bytes: 8
  %loadMem_40102d = load %struct.Memory*, %struct.Memory** %MEMORY
  %call_40102d = call %struct.Memory* @routine_movq__0x0____rsp_(%struct.State* %0, i64  0, %struct.Memory* %loadMem_40102d)
  store %struct.Memory* %call_40102d, %struct.Memory** %MEMORY

  ; Code: callq .createtask	 RIP: 401035	 Bytes: 5
  %loadMem1_401035 = load %struct.Memory*, %struct.Memory** %MEMORY
  %call1_401035 = call %struct.Memory* @routine_callq_.createtask(%struct.State* %0, i64  0, %struct.Memory* %loadMem1_401035, i64 -2789, i64 5, i64 5)
  store %struct.Memory* %call1_401035, %struct.Memory** %MEMORY

  %loadMem2_401035 = load %struct.Memory*, %struct.Memory** %MEMORY
  %loadPC_401035 = load i64, i64* %3
  %call2_401035 = call %struct.Memory* @sub_400550.createtask(%struct.State* %0, i64  %loadPC_401035, %struct.Memory* %loadMem2_401035)
  store %struct.Memory* %call2_401035, %struct.Memory** %MEMORY

  ; Code: movl $0x5, %edi	 RIP: 40103a	 Bytes: 5
  %loadMem_40103a = load %struct.Memory*, %struct.Memory** %MEMORY
  %call_40103a = call %struct.Memory* @routine_movl__0x5___edi(%struct.State* %0, i64  0, %struct.Memory* %loadMem_40103a)
  store %struct.Memory* %call_40103a, %struct.Memory** %MEMORY

  ; Code: movl $0xfa0, %esi	 RIP: 40103f	 Bytes: 5
  %loadMem_40103f = load %struct.Memory*, %struct.Memory** %MEMORY
  %call_40103f = call %struct.Memory* @routine_movl__0xfa0___esi(%struct.State* %0, i64  0, %struct.Memory* %loadMem_40103f)
  store %struct.Memory* %call_40103f, %struct.Memory** %MEMORY

  ; Code: movl $0x2, %ecx	 RIP: 401044	 Bytes: 5
  %loadMem_401044 = load %struct.Memory*, %struct.Memory** %MEMORY
  %call_401044 = call %struct.Memory* @routine_movl__0x2___ecx(%struct.State* %0, i64  0, %struct.Memory* %loadMem_401044)
  store %struct.Memory* %call_401044, %struct.Memory** %MEMORY

  ; Code: movq $0x400df0, %r8	 RIP: 401049	 Bytes: 10
  %loadMem_401049 = load %struct.Memory*, %struct.Memory** %MEMORY
  %call_401049 = call %struct.Memory* @routine_movq__0x400df0___r8(%struct.State* %0, i64  0, %struct.Memory* %loadMem_401049)
  store %struct.Memory* %call_401049, %struct.Memory** %MEMORY

  ; Code: xorl %r11d, %r11d	 RIP: 401053	 Bytes: 3
  %loadMem_401053 = load %struct.Memory*, %struct.Memory** %MEMORY
  %call_401053 = call %struct.Memory* @routine_xorl__r11d___r11d(%struct.State* %0, i64  0, %struct.Memory* %loadMem_401053)
  store %struct.Memory* %call_401053, %struct.Memory** %MEMORY

  ; Code: movl %r11d, %r9d	 RIP: 401056	 Bytes: 3
  %loadMem_401056 = load %struct.Memory*, %struct.Memory** %MEMORY
  %call_401056 = call %struct.Memory* @routine_movl__r11d___r9d(%struct.State* %0, i64  0, %struct.Memory* %loadMem_401056)
  store %struct.Memory* %call_401056, %struct.Memory** %MEMORY

  ; Code: movq $0x0, -0x10(%rbp)	 RIP: 401059	 Bytes: 8
  %loadMem_401059 = load %struct.Memory*, %struct.Memory** %MEMORY
  %call_401059 = call %struct.Memory* @routine_movq__0x0__MINUS0x10__rbp_(%struct.State* %0, i64  0, %struct.Memory* %loadMem_401059)
  store %struct.Memory* %call_401059, %struct.Memory** %MEMORY

  ; Code: movq -0x10(%rbp), %rdx	 RIP: 401061	 Bytes: 4
  %loadMem_401061 = load %struct.Memory*, %struct.Memory** %MEMORY
  %call_401061 = call %struct.Memory* @routine_movq_MINUS0x10__rbp____rdx(%struct.State* %0, i64  0, %struct.Memory* %loadMem_401061)
  store %struct.Memory* %call_401061, %struct.Memory** %MEMORY

  ; Code: movq $0x0, (%rsp)	 RIP: 401065	 Bytes: 8
  %loadMem_401065 = load %struct.Memory*, %struct.Memory** %MEMORY
  %call_401065 = call %struct.Memory* @routine_movq__0x0____rsp_(%struct.State* %0, i64  0, %struct.Memory* %loadMem_401065)
  store %struct.Memory* %call_401065, %struct.Memory** %MEMORY

  ; Code: callq .createtask	 RIP: 40106d	 Bytes: 5
  %loadMem1_40106d = load %struct.Memory*, %struct.Memory** %MEMORY
  %call1_40106d = call %struct.Memory* @routine_callq_.createtask(%struct.State* %0, i64  0, %struct.Memory* %loadMem1_40106d, i64 -2845, i64 5, i64 5)
  store %struct.Memory* %call1_40106d, %struct.Memory** %MEMORY

  %loadMem2_40106d = load %struct.Memory*, %struct.Memory** %MEMORY
  %loadPC_40106d = load i64, i64* %3
  %call2_40106d = call %struct.Memory* @sub_400550.createtask(%struct.State* %0, i64  %loadPC_40106d, %struct.Memory* %loadMem2_40106d)
  store %struct.Memory* %call2_40106d, %struct.Memory** %MEMORY

  ; Code: movl $0x6, %edi	 RIP: 401072	 Bytes: 5
  %loadMem_401072 = load %struct.Memory*, %struct.Memory** %MEMORY
  %call_401072 = call %struct.Memory* @routine_movl__0x6___edi(%struct.State* %0, i64  0, %struct.Memory* %loadMem_401072)
  store %struct.Memory* %call_401072, %struct.Memory** %MEMORY

  ; Code: movl $0x1388, %esi	 RIP: 401077	 Bytes: 5
  %loadMem_401077 = load %struct.Memory*, %struct.Memory** %MEMORY
  %call_401077 = call %struct.Memory* @routine_movl__0x1388___esi(%struct.State* %0, i64  0, %struct.Memory* %loadMem_401077)
  store %struct.Memory* %call_401077, %struct.Memory** %MEMORY

  ; Code: movl $0x2, %ecx	 RIP: 40107c	 Bytes: 5
  %loadMem_40107c = load %struct.Memory*, %struct.Memory** %MEMORY
  %call_40107c = call %struct.Memory* @routine_movl__0x2___ecx(%struct.State* %0, i64  0, %struct.Memory* %loadMem_40107c)
  store %struct.Memory* %call_40107c, %struct.Memory** %MEMORY

  ; Code: movq $0x400df0, %r8	 RIP: 401081	 Bytes: 10
  %loadMem_401081 = load %struct.Memory*, %struct.Memory** %MEMORY
  %call_401081 = call %struct.Memory* @routine_movq__0x400df0___r8(%struct.State* %0, i64  0, %struct.Memory* %loadMem_401081)
  store %struct.Memory* %call_401081, %struct.Memory** %MEMORY

  ; Code: xorl %r11d, %r11d	 RIP: 40108b	 Bytes: 3
  %loadMem_40108b = load %struct.Memory*, %struct.Memory** %MEMORY
  %call_40108b = call %struct.Memory* @routine_xorl__r11d___r11d(%struct.State* %0, i64  0, %struct.Memory* %loadMem_40108b)
  store %struct.Memory* %call_40108b, %struct.Memory** %MEMORY

  ; Code: movl %r11d, %r9d	 RIP: 40108e	 Bytes: 3
  %loadMem_40108e = load %struct.Memory*, %struct.Memory** %MEMORY
  %call_40108e = call %struct.Memory* @routine_movl__r11d___r9d(%struct.State* %0, i64  0, %struct.Memory* %loadMem_40108e)
  store %struct.Memory* %call_40108e, %struct.Memory** %MEMORY

  ; Code: movq -0x10(%rbp), %rdx	 RIP: 401091	 Bytes: 4
  %loadMem_401091 = load %struct.Memory*, %struct.Memory** %MEMORY
  %call_401091 = call %struct.Memory* @routine_movq_MINUS0x10__rbp____rdx(%struct.State* %0, i64  0, %struct.Memory* %loadMem_401091)
  store %struct.Memory* %call_401091, %struct.Memory** %MEMORY

  ; Code: movq $0x0, (%rsp)	 RIP: 401095	 Bytes: 8
  %loadMem_401095 = load %struct.Memory*, %struct.Memory** %MEMORY
  %call_401095 = call %struct.Memory* @routine_movq__0x0____rsp_(%struct.State* %0, i64  0, %struct.Memory* %loadMem_401095)
  store %struct.Memory* %call_401095, %struct.Memory** %MEMORY

  ; Code: callq .createtask	 RIP: 40109d	 Bytes: 5
  %loadMem1_40109d = load %struct.Memory*, %struct.Memory** %MEMORY
  %call1_40109d = call %struct.Memory* @routine_callq_.createtask(%struct.State* %0, i64  0, %struct.Memory* %loadMem1_40109d, i64 -2893, i64 5, i64 5)
  store %struct.Memory* %call1_40109d, %struct.Memory** %MEMORY

  %loadMem2_40109d = load %struct.Memory*, %struct.Memory** %MEMORY
  %loadPC_40109d = load i64, i64* %3
  %call2_40109d = call %struct.Memory* @sub_400550.createtask(%struct.State* %0, i64  %loadPC_40109d, %struct.Memory* %loadMem2_40109d)
  store %struct.Memory* %call2_40109d, %struct.Memory** %MEMORY

  ; Code: movq $0x40126d, %rdi	 RIP: 4010a2	 Bytes: 10
  %loadMem_4010a2 = load %struct.Memory*, %struct.Memory** %MEMORY
  %call_4010a2 = call %struct.Memory* @routine_movq__0x40126d___rdi(%struct.State* %0, i64  0, %struct.Memory* %loadMem_4010a2)
  store %struct.Memory* %call_4010a2, %struct.Memory** %MEMORY

  ; Code: movq 0x6020c8, %rax	 RIP: 4010ac	 Bytes: 8
  %loadMem_4010ac = load %struct.Memory*, %struct.Memory** %MEMORY
  %call_4010ac = call %struct.Memory* @routine_movq_0x6020c8___rax(%struct.State* %0, i64  0, %struct.Memory* %loadMem_4010ac)
  store %struct.Memory* %call_4010ac, %struct.Memory** %MEMORY

  ; Code: movq %rax, 0x6020e0	 RIP: 4010b4	 Bytes: 8
  %loadMem_4010b4 = load %struct.Memory*, %struct.Memory** %MEMORY
  %call_4010b4 = call %struct.Memory* @routine_movq__rax__0x6020e0(%struct.State* %0, i64  0, %struct.Memory* %loadMem_4010b4)
  store %struct.Memory* %call_4010b4, %struct.Memory** %MEMORY

  ; Code: movl $0x0, 0x6020d4	 RIP: 4010bc	 Bytes: 11
  %loadMem_4010bc = load %struct.Memory*, %struct.Memory** %MEMORY
  %call_4010bc = call %struct.Memory* @routine_movl__0x0__0x6020d4(%struct.State* %0, i64  0, %struct.Memory* %loadMem_4010bc)
  store %struct.Memory* %call_4010bc, %struct.Memory** %MEMORY

  ; Code: movl $0x0, 0x6020d0	 RIP: 4010c7	 Bytes: 11
  %loadMem_4010c7 = load %struct.Memory*, %struct.Memory** %MEMORY
  %call_4010c7 = call %struct.Memory* @routine_movl__0x0__0x6020d0(%struct.State* %0, i64  0, %struct.Memory* %loadMem_4010c7)
  store %struct.Memory* %call_4010c7, %struct.Memory** %MEMORY

  ; Code: movb $0x0, %al	 RIP: 4010d2	 Bytes: 2
  %loadMem_4010d2 = load %struct.Memory*, %struct.Memory** %MEMORY
  %call_4010d2 = call %struct.Memory* @routine_movb__0x0___al(%struct.State* %0, i64  0, %struct.Memory* %loadMem_4010d2)
  store %struct.Memory* %call_4010d2, %struct.Memory** %MEMORY

  ; Code: callq .printf_plt	 RIP: 4010d4	 Bytes: 5
  %loadMem1_4010d4 = load %struct.Memory*, %struct.Memory** %MEMORY
  %call1_4010d4 = call %struct.Memory* @routine_callq_.printf_plt(%struct.State* %0, i64  0, %struct.Memory* %loadMem1_4010d4, i64 -3220, i64 5, i64 5)
  store %struct.Memory* %call1_4010d4, %struct.Memory** %MEMORY

  %loadMem2_4010d4 = load %struct.Memory*, %struct.Memory** %MEMORY
  %loadPC_4010d4 = load i64, i64* %3
  %call2_4010d4 = call %struct.Memory* @sub_400440.printf_plt(%struct.State* %0, i64  %loadPC_4010d4, %struct.Memory* %loadMem2_4010d4)
  store %struct.Memory* %call2_4010d4, %struct.Memory** %MEMORY

  ; Code: movl $0x0, 0x60205c	 RIP: 4010d9	 Bytes: 11
  %loadMem_4010d9 = load %struct.Memory*, %struct.Memory** %MEMORY
  %call_4010d9 = call %struct.Memory* @routine_movl__0x0__0x60205c(%struct.State* %0, i64  0, %struct.Memory* %loadMem_4010d9)
  store %struct.Memory* %call_4010d9, %struct.Memory** %MEMORY

  ; Code: movl $0x0, 0x6020d8	 RIP: 4010e4	 Bytes: 11
  %loadMem_4010e4 = load %struct.Memory*, %struct.Memory** %MEMORY
  %call_4010e4 = call %struct.Memory* @routine_movl__0x0__0x6020d8(%struct.State* %0, i64  0, %struct.Memory* %loadMem_4010e4)
  store %struct.Memory* %call_4010e4, %struct.Memory** %MEMORY

  ; Code: movl %eax, -0x34(%rbp)	 RIP: 4010ef	 Bytes: 3
  %loadMem_4010ef = load %struct.Memory*, %struct.Memory** %MEMORY
  %call_4010ef = call %struct.Memory* @routine_movl__eax__MINUS0x34__rbp_(%struct.State* %0, i64  0, %struct.Memory* %loadMem_4010ef)
  store %struct.Memory* %call_4010ef, %struct.Memory** %MEMORY

  ; Code: callq .schedule	 RIP: 4010f2	 Bytes: 5
  %loadMem1_4010f2 = load %struct.Memory*, %struct.Memory** %MEMORY
  %call1_4010f2 = call %struct.Memory* @routine_callq_.schedule(%struct.State* %0, i64  0, %struct.Memory* %loadMem1_4010f2, i64 -2530, i64 5, i64 5)
  store %struct.Memory* %call1_4010f2, %struct.Memory** %MEMORY

  %loadMem2_4010f2 = load %struct.Memory*, %struct.Memory** %MEMORY
  %loadPC_4010f2 = load i64, i64* %3
  %call2_4010f2 = call %struct.Memory* @sub_400710.schedule(%struct.State* %0, i64  %loadPC_4010f2, %struct.Memory* %loadMem2_4010f2)
  store %struct.Memory* %call2_4010f2, %struct.Memory** %MEMORY

  ; Code: movq $0x401277, %rdi	 RIP: 4010f7	 Bytes: 10
  %loadMem_4010f7 = load %struct.Memory*, %struct.Memory** %MEMORY
  %call_4010f7 = call %struct.Memory* @routine_movq__0x401277___rdi(%struct.State* %0, i64  0, %struct.Memory* %loadMem_4010f7)
  store %struct.Memory* %call_4010f7, %struct.Memory** %MEMORY

  ; Code: movb $0x0, %al	 RIP: 401101	 Bytes: 2
  %loadMem_401101 = load %struct.Memory*, %struct.Memory** %MEMORY
  %call_401101 = call %struct.Memory* @routine_movb__0x0___al(%struct.State* %0, i64  0, %struct.Memory* %loadMem_401101)
  store %struct.Memory* %call_401101, %struct.Memory** %MEMORY

  ; Code: callq .printf_plt	 RIP: 401103	 Bytes: 5
  %loadMem1_401103 = load %struct.Memory*, %struct.Memory** %MEMORY
  %call1_401103 = call %struct.Memory* @routine_callq_.printf_plt(%struct.State* %0, i64  0, %struct.Memory* %loadMem1_401103, i64 -3267, i64 5, i64 5)
  store %struct.Memory* %call1_401103, %struct.Memory** %MEMORY

  %loadMem2_401103 = load %struct.Memory*, %struct.Memory** %MEMORY
  %loadPC_401103 = load i64, i64* %3
  %call2_401103 = call %struct.Memory* @sub_400440.printf_plt(%struct.State* %0, i64  %loadPC_401103, %struct.Memory* %loadMem2_401103)
  store %struct.Memory* %call2_401103, %struct.Memory** %MEMORY

  ; Code: movq $0x401281, %rdi	 RIP: 401108	 Bytes: 10
  %loadMem_401108 = load %struct.Memory*, %struct.Memory** %MEMORY
  %call_401108 = call %struct.Memory* @routine_movq__0x401281___rdi(%struct.State* %0, i64  0, %struct.Memory* %loadMem_401108)
  store %struct.Memory* %call_401108, %struct.Memory** %MEMORY

  ; Code: movl 0x6020d0, %esi	 RIP: 401112	 Bytes: 7
  %loadMem_401112 = load %struct.Memory*, %struct.Memory** %MEMORY
  %call_401112 = call %struct.Memory* @routine_movl_0x6020d0___esi(%struct.State* %0, i64  0, %struct.Memory* %loadMem_401112)
  store %struct.Memory* %call_401112, %struct.Memory** %MEMORY

  ; Code: movl 0x6020d4, %edx	 RIP: 401119	 Bytes: 7
  %loadMem_401119 = load %struct.Memory*, %struct.Memory** %MEMORY
  %call_401119 = call %struct.Memory* @routine_movl_0x6020d4___edx(%struct.State* %0, i64  0, %struct.Memory* %loadMem_401119)
  store %struct.Memory* %call_401119, %struct.Memory** %MEMORY

  ; Code: movl %eax, -0x38(%rbp)	 RIP: 401120	 Bytes: 3
  %loadMem_401120 = load %struct.Memory*, %struct.Memory** %MEMORY
  %call_401120 = call %struct.Memory* @routine_movl__eax__MINUS0x38__rbp_(%struct.State* %0, i64  0, %struct.Memory* %loadMem_401120)
  store %struct.Memory* %call_401120, %struct.Memory** %MEMORY

  ; Code: movb $0x0, %al	 RIP: 401123	 Bytes: 2
  %loadMem_401123 = load %struct.Memory*, %struct.Memory** %MEMORY
  %call_401123 = call %struct.Memory* @routine_movb__0x0___al(%struct.State* %0, i64  0, %struct.Memory* %loadMem_401123)
  store %struct.Memory* %call_401123, %struct.Memory** %MEMORY

  ; Code: callq .printf_plt	 RIP: 401125	 Bytes: 5
  %loadMem1_401125 = load %struct.Memory*, %struct.Memory** %MEMORY
  %call1_401125 = call %struct.Memory* @routine_callq_.printf_plt(%struct.State* %0, i64  0, %struct.Memory* %loadMem1_401125, i64 -3301, i64 5, i64 5)
  store %struct.Memory* %call1_401125, %struct.Memory** %MEMORY

  %loadMem2_401125 = load %struct.Memory*, %struct.Memory** %MEMORY
  %loadPC_401125 = load i64, i64* %3
  %call2_401125 = call %struct.Memory* @sub_400440.printf_plt(%struct.State* %0, i64  %loadPC_401125, %struct.Memory* %loadMem2_401125)
  store %struct.Memory* %call2_401125, %struct.Memory** %MEMORY

  ; Code: movq $0x4012a2, %rdi	 RIP: 40112a	 Bytes: 10
  %loadMem_40112a = load %struct.Memory*, %struct.Memory** %MEMORY
  %call_40112a = call %struct.Memory* @routine_movq__0x4012a2___rdi(%struct.State* %0, i64  0, %struct.Memory* %loadMem_40112a)
  store %struct.Memory* %call_40112a, %struct.Memory** %MEMORY

  ; Code: movl %eax, -0x3c(%rbp)	 RIP: 401134	 Bytes: 3
  %loadMem_401134 = load %struct.Memory*, %struct.Memory** %MEMORY
  %call_401134 = call %struct.Memory* @routine_movl__eax__MINUS0x3c__rbp_(%struct.State* %0, i64  0, %struct.Memory* %loadMem_401134)
  store %struct.Memory* %call_401134, %struct.Memory** %MEMORY

  ; Code: movb $0x0, %al	 RIP: 401137	 Bytes: 2
  %loadMem_401137 = load %struct.Memory*, %struct.Memory** %MEMORY
  %call_401137 = call %struct.Memory* @routine_movb__0x0___al(%struct.State* %0, i64  0, %struct.Memory* %loadMem_401137)
  store %struct.Memory* %call_401137, %struct.Memory** %MEMORY

  ; Code: callq .printf_plt	 RIP: 401139	 Bytes: 5
  %loadMem1_401139 = load %struct.Memory*, %struct.Memory** %MEMORY
  %call1_401139 = call %struct.Memory* @routine_callq_.printf_plt(%struct.State* %0, i64  0, %struct.Memory* %loadMem1_401139, i64 -3321, i64 5, i64 5)
  store %struct.Memory* %call1_401139, %struct.Memory** %MEMORY

  %loadMem2_401139 = load %struct.Memory*, %struct.Memory** %MEMORY
  %loadPC_401139 = load i64, i64* %3
  %call2_401139 = call %struct.Memory* @sub_400440.printf_plt(%struct.State* %0, i64  %loadPC_401139, %struct.Memory* %loadMem2_401139)
  store %struct.Memory* %call2_401139, %struct.Memory** %MEMORY

  ; Code: cmpl $0x162fa96, 0x6020d0	 RIP: 40113e	 Bytes: 11
  %loadMem_40113e = load %struct.Memory*, %struct.Memory** %MEMORY
  %call_40113e = call %struct.Memory* @routine_cmpl__0x162fa96__0x6020d0(%struct.State* %0, i64  0, %struct.Memory* %loadMem_40113e)
  store %struct.Memory* %call_40113e, %struct.Memory** %MEMORY

  ; Code: movl %eax, -0x40(%rbp)	 RIP: 401149	 Bytes: 3
  %loadMem_401149 = load %struct.Memory*, %struct.Memory** %MEMORY
  %call_401149 = call %struct.Memory* @routine_movl__eax__MINUS0x40__rbp_(%struct.State* %0, i64  0, %struct.Memory* %loadMem_401149)
  store %struct.Memory* %call_401149, %struct.Memory** %MEMORY

  ; Code: jne .L_401183	 RIP: 40114c	 Bytes: 6
  %loadMem_40114c = load %struct.Memory*, %struct.Memory** %MEMORY
  %call_40114c = call %struct.Memory* @routine_jne_.L_401183(%struct.State* %0, i64  0, %struct.Memory* %loadMem_40114c, i8* %BRANCH_TAKEN, i64 55, i64 6, i64 6)
  store %struct.Memory* %call_40114c, %struct.Memory** %MEMORY

  %loadBr_40114c = load i8, i8* %BRANCH_TAKEN
  %cmpBr_40114c = icmp eq i8 %loadBr_40114c, 1
  br i1 %cmpBr_40114c, label %block_.L_401183, label %block_401152

block_401152:
  ; Code: cmpl $0x8dfdd5, 0x6020d4	 RIP: 401152	 Bytes: 11
  %loadMem_401152 = load %struct.Memory*, %struct.Memory** %MEMORY
  %call_401152 = call %struct.Memory* @routine_cmpl__0x8dfdd5__0x6020d4(%struct.State* %0, i64  0, %struct.Memory* %loadMem_401152)
  store %struct.Memory* %call_401152, %struct.Memory** %MEMORY

  ; Code: jne .L_401183	 RIP: 40115d	 Bytes: 6
  %loadMem_40115d = load %struct.Memory*, %struct.Memory** %MEMORY
  %call_40115d = call %struct.Memory* @routine_jne_.L_401183(%struct.State* %0, i64  0, %struct.Memory* %loadMem_40115d, i8* %BRANCH_TAKEN, i64 38, i64 6, i64 6)
  store %struct.Memory* %call_40115d, %struct.Memory** %MEMORY

  %loadBr_40115d = load i8, i8* %BRANCH_TAKEN
  %cmpBr_40115d = icmp eq i8 %loadBr_40115d, 1
  br i1 %cmpBr_40115d, label %block_.L_401183, label %block_401163

block_401163:
  ; Code: movq $0x4012b7, %rdi	 RIP: 401163	 Bytes: 10
  %loadMem_401163 = load %struct.Memory*, %struct.Memory** %MEMORY
  %call_401163 = call %struct.Memory* @routine_movq__0x4012b7___rdi(%struct.State* %0, i64  0, %struct.Memory* %loadMem_401163)
  store %struct.Memory* %call_401163, %struct.Memory** %MEMORY

  ; Code: movb $0x0, %al	 RIP: 40116d	 Bytes: 2
  %loadMem_40116d = load %struct.Memory*, %struct.Memory** %MEMORY
  %call_40116d = call %struct.Memory* @routine_movb__0x0___al(%struct.State* %0, i64  0, %struct.Memory* %loadMem_40116d)
  store %struct.Memory* %call_40116d, %struct.Memory** %MEMORY

  ; Code: callq .printf_plt	 RIP: 40116f	 Bytes: 5
  %loadMem1_40116f = load %struct.Memory*, %struct.Memory** %MEMORY
  %call1_40116f = call %struct.Memory* @routine_callq_.printf_plt(%struct.State* %0, i64  0, %struct.Memory* %loadMem1_40116f, i64 -3375, i64 5, i64 5)
  store %struct.Memory* %call1_40116f, %struct.Memory** %MEMORY

  %loadMem2_40116f = load %struct.Memory*, %struct.Memory** %MEMORY
  %loadPC_40116f = load i64, i64* %3
  %call2_40116f = call %struct.Memory* @sub_400440.printf_plt(%struct.State* %0, i64  %loadPC_40116f, %struct.Memory* %loadMem2_40116f)
  store %struct.Memory* %call2_40116f, %struct.Memory** %MEMORY

  ; Code: movl $0x0, -0x14(%rbp)	 RIP: 401174	 Bytes: 7
  %loadMem_401174 = load %struct.Memory*, %struct.Memory** %MEMORY
  %call_401174 = call %struct.Memory* @routine_movl__0x0__MINUS0x14__rbp_(%struct.State* %0, i64  0, %struct.Memory* %loadMem_401174)
  store %struct.Memory* %call_401174, %struct.Memory** %MEMORY

  ; Code: movl %eax, -0x44(%rbp)	 RIP: 40117b	 Bytes: 3
  %loadMem_40117b = load %struct.Memory*, %struct.Memory** %MEMORY
  %call_40117b = call %struct.Memory* @routine_movl__eax__MINUS0x44__rbp_(%struct.State* %0, i64  0, %struct.Memory* %loadMem_40117b)
  store %struct.Memory* %call_40117b, %struct.Memory** %MEMORY

  ; Code: jmpq .L_40119e	 RIP: 40117e	 Bytes: 5
  %loadMem_40117e = load %struct.Memory*, %struct.Memory** %MEMORY
  %call_40117e = call %struct.Memory* @routine_jmpq_.L_40119e(%struct.State* %0, i64  0, %struct.Memory* %loadMem_40117e, i64 32, i64 5)
  store %struct.Memory* %call_40117e, %struct.Memory** %MEMORY

  br label %block_.L_40119e

  ; Code: .L_401183:	 RIP: 401183	 Bytes: 0
block_.L_401183:

  ; Code: movq $0x4012b5, %rdi	 RIP: 401183	 Bytes: 10
  %loadMem_401183 = load %struct.Memory*, %struct.Memory** %MEMORY
  %call_401183 = call %struct.Memory* @routine_movq__0x4012b5___rdi(%struct.State* %0, i64  0, %struct.Memory* %loadMem_401183)
  store %struct.Memory* %call_401183, %struct.Memory** %MEMORY

  ; Code: movb $0x0, %al	 RIP: 40118d	 Bytes: 2
  %loadMem_40118d = load %struct.Memory*, %struct.Memory** %MEMORY
  %call_40118d = call %struct.Memory* @routine_movb__0x0___al(%struct.State* %0, i64  0, %struct.Memory* %loadMem_40118d)
  store %struct.Memory* %call_40118d, %struct.Memory** %MEMORY

  ; Code: callq .printf_plt	 RIP: 40118f	 Bytes: 5
  %loadMem1_40118f = load %struct.Memory*, %struct.Memory** %MEMORY
  %call1_40118f = call %struct.Memory* @routine_callq_.printf_plt(%struct.State* %0, i64  0, %struct.Memory* %loadMem1_40118f, i64 -3407, i64 5, i64 5)
  store %struct.Memory* %call1_40118f, %struct.Memory** %MEMORY

  %loadMem2_40118f = load %struct.Memory*, %struct.Memory** %MEMORY
  %loadPC_40118f = load i64, i64* %3
  %call2_40118f = call %struct.Memory* @sub_400440.printf_plt(%struct.State* %0, i64  %loadPC_40118f, %struct.Memory* %loadMem2_40118f)
  store %struct.Memory* %call2_40118f, %struct.Memory** %MEMORY

  ; Code: movl $0x1, -0x14(%rbp)	 RIP: 401194	 Bytes: 7
  %loadMem_401194 = load %struct.Memory*, %struct.Memory** %MEMORY
  %call_401194 = call %struct.Memory* @routine_movl__0x1__MINUS0x14__rbp_(%struct.State* %0, i64  0, %struct.Memory* %loadMem_401194)
  store %struct.Memory* %call_401194, %struct.Memory** %MEMORY

  ; Code: movl %eax, -0x48(%rbp)	 RIP: 40119b	 Bytes: 3
  %loadMem_40119b = load %struct.Memory*, %struct.Memory** %MEMORY
  %call_40119b = call %struct.Memory* @routine_movl__eax__MINUS0x48__rbp_(%struct.State* %0, i64  0, %struct.Memory* %loadMem_40119b)
  store %struct.Memory* %call_40119b, %struct.Memory** %MEMORY

  ; Code: .L_40119e:	 RIP: 40119e	 Bytes: 0
  br label %block_.L_40119e
block_.L_40119e:

  ; Code: movq $0x4012bf, %rdi	 RIP: 40119e	 Bytes: 10
  %loadMem_40119e = load %struct.Memory*, %struct.Memory** %MEMORY
  %call_40119e = call %struct.Memory* @routine_movq__0x4012bf___rdi(%struct.State* %0, i64  0, %struct.Memory* %loadMem_40119e)
  store %struct.Memory* %call_40119e, %struct.Memory** %MEMORY

  ; Code: movb $0x0, %al	 RIP: 4011a8	 Bytes: 2
  %loadMem_4011a8 = load %struct.Memory*, %struct.Memory** %MEMORY
  %call_4011a8 = call %struct.Memory* @routine_movb__0x0___al(%struct.State* %0, i64  0, %struct.Memory* %loadMem_4011a8)
  store %struct.Memory* %call_4011a8, %struct.Memory** %MEMORY

  ; Code: callq .printf_plt	 RIP: 4011aa	 Bytes: 5
  %loadMem1_4011aa = load %struct.Memory*, %struct.Memory** %MEMORY
  %call1_4011aa = call %struct.Memory* @routine_callq_.printf_plt(%struct.State* %0, i64  0, %struct.Memory* %loadMem1_4011aa, i64 -3434, i64 5, i64 5)
  store %struct.Memory* %call1_4011aa, %struct.Memory** %MEMORY

  %loadMem2_4011aa = load %struct.Memory*, %struct.Memory** %MEMORY
  %loadPC_4011aa = load i64, i64* %3
  %call2_4011aa = call %struct.Memory* @sub_400440.printf_plt(%struct.State* %0, i64  %loadPC_4011aa, %struct.Memory* %loadMem2_4011aa)
  store %struct.Memory* %call2_4011aa, %struct.Memory** %MEMORY

  ; Code: movl -0x14(%rbp), %ecx	 RIP: 4011af	 Bytes: 3
  %loadMem_4011af = load %struct.Memory*, %struct.Memory** %MEMORY
  %call_4011af = call %struct.Memory* @routine_movl_MINUS0x14__rbp____ecx(%struct.State* %0, i64  0, %struct.Memory* %loadMem_4011af)
  store %struct.Memory* %call_4011af, %struct.Memory** %MEMORY

  ; Code: movl %eax, -0x4c(%rbp)	 RIP: 4011b2	 Bytes: 3
  %loadMem_4011b2 = load %struct.Memory*, %struct.Memory** %MEMORY
  %call_4011b2 = call %struct.Memory* @routine_movl__eax__MINUS0x4c__rbp_(%struct.State* %0, i64  0, %struct.Memory* %loadMem_4011b2)
  store %struct.Memory* %call_4011b2, %struct.Memory** %MEMORY

  ; Code: movl %ecx, %eax	 RIP: 4011b5	 Bytes: 2
  %loadMem_4011b5 = load %struct.Memory*, %struct.Memory** %MEMORY
  %call_4011b5 = call %struct.Memory* @routine_movl__ecx___eax(%struct.State* %0, i64  0, %struct.Memory* %loadMem_4011b5)
  store %struct.Memory* %call_4011b5, %struct.Memory** %MEMORY

  ; Code: addq $0x60, %rsp	 RIP: 4011b7	 Bytes: 4
  %loadMem_4011b7 = load %struct.Memory*, %struct.Memory** %MEMORY
  %call_4011b7 = call %struct.Memory* @routine_addq__0x60___rsp(%struct.State* %0, i64  0, %struct.Memory* %loadMem_4011b7)
  store %struct.Memory* %call_4011b7, %struct.Memory** %MEMORY

  ; Code: popq %rbp	 RIP: 4011bb	 Bytes: 1
  %loadMem_4011bb = load %struct.Memory*, %struct.Memory** %MEMORY
  %call_4011bb = call %struct.Memory* @routine_popq__rbp(%struct.State* %0, i64  0, %struct.Memory* %loadMem_4011bb)
  store %struct.Memory* %call_4011bb, %struct.Memory** %MEMORY

  ; Code: retq	 RIP: 4011bc	 Bytes: 1
  %loadMem_4011bc = load %struct.Memory*, %struct.Memory** %MEMORY
  %call_4011bc = call %struct.Memory* @routine_retq(%struct.State* %0, i64  0, %struct.Memory* %loadMem_4011bc)
  store %struct.Memory* %call_4011bc, %struct.Memory** %MEMORY

  ret %struct.Memory* %call_4011bc
}

define internal %struct.Memory* @_ZN12_GLOBAL__N_1L4PUSHI2InImEEEP6MemoryS4_R5StateT_(%struct.Memory*, %struct.State* nocapture dereferenceable(3376), i64) #0 {
  %4 = getelementptr inbounds %struct.State, %struct.State* %1, i64 0, i32 6, i32 13, i32 0, i32 0
  %5 = load i64, i64* %4, align 8
  %6 = add i64 %5, -8
  %7 = inttoptr i64 %6 to i64*
  store i64 %2, i64* %7
  store i64 %6, i64* %4, align 8
  ret %struct.Memory* %0
}

define %struct.Memory* @routine_pushq__rbp(%struct.State*  dereferenceable(3376), i64, %struct.Memory* ) #19 {
block_400488:
  %3 = getelementptr inbounds %struct.State, %struct.State* %0, i32 0, i32 6
  %4 = getelementptr inbounds %struct.GPR, %struct.GPR* %3, i32 0, i32 33
  %5 = getelementptr inbounds %struct.Reg, %struct.Reg* %4, i32 0, i32 0
  %PC = bitcast %union.anon* %5 to i64*
  %6 = getelementptr inbounds %struct.State, %struct.State* %0, i32 0, i32 6
  %7 = getelementptr inbounds %struct.GPR, %struct.GPR* %6, i32 0, i32 15
  %8 = getelementptr inbounds %struct.Reg, %struct.Reg* %7, i32 0, i32 0
  %RBP = bitcast %union.anon* %8 to i64*
  %9 = load i64, i64* %RBP
  %10 = load i64, i64* %PC
  %11 = add i64 %10, 1
  store i64 %11, i64* %PC
  %12 = call %struct.Memory* @_ZN12_GLOBAL__N_1L4PUSHI2InImEEEP6MemoryS4_R5StateT_(%struct.Memory* %2, %struct.State* %0, i64 %9)
  ret %struct.Memory* %12
}

define internal %struct.Memory* @_ZN12_GLOBAL__N_1L3MOVI3RnWImE2RnImEEEP6MemoryS6_R5StateT_T0_(%struct.Memory* readnone returned, %struct.State* nocapture readnone dereferenceable(3376), i64* nocapture, i64) #2 {
  store i64 %3, i64* %2, align 8
  ret %struct.Memory* %0
}

define %struct.Memory* @routine_movq__rsp___rbp(%struct.State*  dereferenceable(3376), i64, %struct.Memory* ) #19 {
block_400488:
  %3 = getelementptr inbounds %struct.State, %struct.State* %0, i32 0, i32 6
  %4 = getelementptr inbounds %struct.GPR, %struct.GPR* %3, i32 0, i32 33
  %5 = getelementptr inbounds %struct.Reg, %struct.Reg* %4, i32 0, i32 0
  %PC = bitcast %union.anon* %5 to i64*
  %6 = getelementptr inbounds %struct.State, %struct.State* %0, i32 0, i32 6
  %7 = getelementptr inbounds %struct.GPR, %struct.GPR* %6, i32 0, i32 13
  %8 = getelementptr inbounds %struct.Reg, %struct.Reg* %7, i32 0, i32 0
  %RSP = bitcast %union.anon* %8 to i64*
  %9 = getelementptr inbounds %struct.State, %struct.State* %0, i32 0, i32 6
  %10 = getelementptr inbounds %struct.GPR, %struct.GPR* %9, i32 0, i32 15
  %11 = getelementptr inbounds %struct.Reg, %struct.Reg* %10, i32 0, i32 0
  %RBP = bitcast %union.anon* %11 to i64*
  %12 = load i64, i64* %RSP
  %13 = load i64, i64* %PC
  %14 = add i64 %13, 3
  store i64 %14, i64* %PC
  %15 = call %struct.Memory* @_ZN12_GLOBAL__N_1L3MOVI3RnWImE2RnImEEEP6MemoryS6_R5StateT_T0_(%struct.Memory* %2, %struct.State* %0, i64* %RBP, i64 %12)
  ret %struct.Memory* %15
}

define internal %struct.Memory* @_ZN12_GLOBAL__N_1L3SUBI3RnWImE2RnImE2InImEEEP6MemoryS8_R5StateT_T0_T1_(%struct.Memory* readnone returned, %struct.State* nocapture dereferenceable(3376), i64* nocapture, i64, i64) #0 {
  %6 = sub i64 %3, %4
  store i64 %6, i64* %2, align 8
  %7 = icmp ult i64 %3, %4
  %8 = zext i1 %7 to i8
  %9 = getelementptr inbounds %struct.State, %struct.State* %1, i64 0, i32 2, i32 1
  store i8 %8, i8* %9, align 1
  %10 = trunc i64 %6 to i32
  %11 = and i32 %10, 255
  %12 = tail call i32 @llvm.ctpop.i32(i32 %11) #22
  %13 = trunc i32 %12 to i8
  %14 = and i8 %13, 1
  %15 = xor i8 %14, 1
  %16 = getelementptr inbounds %struct.State, %struct.State* %1, i64 0, i32 2, i32 3
  store i8 %15, i8* %16, align 1
  %17 = xor i64 %4, %3
  %18 = xor i64 %17, %6
  %19 = lshr i64 %18, 4
  %20 = trunc i64 %19 to i8
  %21 = and i8 %20, 1
  %22 = getelementptr inbounds %struct.State, %struct.State* %1, i64 0, i32 2, i32 5
  store i8 %21, i8* %22, align 1
  %23 = icmp eq i64 %6, 0
  %24 = zext i1 %23 to i8
  %25 = getelementptr inbounds %struct.State, %struct.State* %1, i64 0, i32 2, i32 7
  store i8 %24, i8* %25, align 1
  %26 = lshr i64 %6, 63
  %27 = trunc i64 %26 to i8
  %28 = getelementptr inbounds %struct.State, %struct.State* %1, i64 0, i32 2, i32 9
  store i8 %27, i8* %28, align 1
  %29 = lshr i64 %3, 63
  %30 = lshr i64 %4, 63
  %31 = xor i64 %30, %29
  %32 = xor i64 %26, %29
  %33 = add   i64 %32, %31
  %34 = icmp eq i64 %33, 2
  %35 = zext i1 %34 to i8
  %36 = getelementptr inbounds %struct.State, %struct.State* %1, i64 0, i32 2, i32 13
  store i8 %35, i8* %36, align 1
  ret %struct.Memory* %0
}

define %struct.Memory* @routine_subq__0x60___rsp(%struct.State*  dereferenceable(3376), i64, %struct.Memory* ) #19 {
block_400488:
  %3 = getelementptr inbounds %struct.State, %struct.State* %0, i32 0, i32 6
  %4 = getelementptr inbounds %struct.GPR, %struct.GPR* %3, i32 0, i32 33
  %5 = getelementptr inbounds %struct.Reg, %struct.Reg* %4, i32 0, i32 0
  %PC = bitcast %union.anon* %5 to i64*
  %6 = getelementptr inbounds %struct.State, %struct.State* %0, i32 0, i32 6
  %7 = getelementptr inbounds %struct.GPR, %struct.GPR* %6, i32 0, i32 13
  %8 = getelementptr inbounds %struct.Reg, %struct.Reg* %7, i32 0, i32 0
  %RSP = bitcast %union.anon* %8 to i64*
  %9 = load i64, i64* %RSP
  %10 = load i64, i64* %PC
  %11 = add i64 %10, 4
  store i64 %11, i64* %PC
  %12 = call %struct.Memory* @_ZN12_GLOBAL__N_1L3SUBI3RnWImE2RnImE2InImEEEP6MemoryS8_R5StateT_T0_T1_(%struct.Memory* %2, %struct.State* %0, i64* %RSP, i64 %9, i64 96)
  ret %struct.Memory* %12
}

define internal %struct.Memory* @_ZN12_GLOBAL__N_1L3MOVI3RnWImE2InImEEEP6MemoryS6_R5StateT_T0_(%struct.Memory* readnone returned, %struct.State* nocapture readnone dereferenceable(3376), i64* nocapture, i64) #2 {
  store i64 %3, i64* %2, align 8
  ret %struct.Memory* %0
}

define %struct.Memory* @routine_movq__0x401258___rdi(%struct.State*  dereferenceable(3376), i64, %struct.Memory* ) #19 {
block_400488:
  %3 = getelementptr inbounds %struct.State, %struct.State* %0, i32 0, i32 6
  %4 = getelementptr inbounds %struct.GPR, %struct.GPR* %3, i32 0, i32 33
  %5 = getelementptr inbounds %struct.Reg, %struct.Reg* %4, i32 0, i32 0
  %PC = bitcast %union.anon* %5 to i64*
  %6 = getelementptr inbounds %struct.State, %struct.State* %0, i32 0, i32 6
  %7 = getelementptr inbounds %struct.GPR, %struct.GPR* %6, i32 0, i32 11
  %8 = getelementptr inbounds %struct.Reg, %struct.Reg* %7, i32 0, i32 0
  %RDI = bitcast %union.anon* %8 to i64*
  %9 = load i64, i64* %PC
  %10 = add i64 %9, 10
  store i64 %10, i64* %PC
  %11 = call %struct.Memory* @_ZN12_GLOBAL__N_1L3MOVI3RnWImE2InImEEEP6MemoryS6_R5StateT_T0_(%struct.Memory* %2, %struct.State* %0, i64* %RDI, i64 4199000)
  ret %struct.Memory* %11
}

define internal %struct.Memory* @_ZN12_GLOBAL__N_1L3MOVI3MnWIjE2InIjEEEP6MemoryS6_R5StateT_T0_(%struct.Memory* readnone, %struct.State* nocapture readnone dereferenceable(3376), i64, i64) #8 {
  %5 = trunc i64 %3 to i32
  %6 = inttoptr i64 %2 to i32*
  store i32 %5, i32* %6
  ret %struct.Memory* %0
}

define %struct.Memory* @routine_movl__0x0__MINUS0x4__rbp_(%struct.State*  dereferenceable(3376), i64, %struct.Memory* ) #19 {
block_400488:
  %3 = getelementptr inbounds %struct.State, %struct.State* %0, i32 0, i32 6
  %4 = getelementptr inbounds %struct.GPR, %struct.GPR* %3, i32 0, i32 33
  %5 = getelementptr inbounds %struct.Reg, %struct.Reg* %4, i32 0, i32 0
  %PC = bitcast %union.anon* %5 to i64*
  %6 = getelementptr inbounds %struct.State, %struct.State* %0, i32 0, i32 6
  %7 = getelementptr inbounds %struct.GPR, %struct.GPR* %6, i32 0, i32 15
  %8 = getelementptr inbounds %struct.Reg, %struct.Reg* %7, i32 0, i32 0
  %RBP = bitcast %union.anon* %8 to i64*
  %9 = load i64, i64* %RBP
  %10 = sub i64 %9, 4
  %11 = load i64, i64* %PC
  %12 = add i64 %11, 7
  store i64 %12, i64* %PC
  %13 = call %struct.Memory* @_ZN12_GLOBAL__N_1L3MOVI3MnWIjE2InIjEEEP6MemoryS6_R5StateT_T0_(%struct.Memory* %2, %struct.State* %0, i64 %10, i64 0)
  ret %struct.Memory* %13
}

define internal %struct.Memory* @_ZN12_GLOBAL__N_1L3MOVI3MnWImE2InImEEEP6MemoryS6_R5StateT_T0_(%struct.Memory* readnone, %struct.State* nocapture readnone dereferenceable(3376), i64, i64) #8 {
  %5 = inttoptr i64 %2 to i64*
  store i64 %3, i64* %5
  ret %struct.Memory* %0
}

define %struct.Memory* @routine_movq__0x0__MINUS0x10__rbp_(%struct.State*  dereferenceable(3376), i64, %struct.Memory* ) #19 {
block_400488:
  %3 = getelementptr inbounds %struct.State, %struct.State* %0, i32 0, i32 6
  %4 = getelementptr inbounds %struct.GPR, %struct.GPR* %3, i32 0, i32 33
  %5 = getelementptr inbounds %struct.Reg, %struct.Reg* %4, i32 0, i32 0
  %PC = bitcast %union.anon* %5 to i64*
  %6 = getelementptr inbounds %struct.State, %struct.State* %0, i32 0, i32 6
  %7 = getelementptr inbounds %struct.GPR, %struct.GPR* %6, i32 0, i32 15
  %8 = getelementptr inbounds %struct.Reg, %struct.Reg* %7, i32 0, i32 0
  %RBP = bitcast %union.anon* %8 to i64*
  %9 = load i64, i64* %RBP
  %10 = sub i64 %9, 16
  %11 = load i64, i64* %PC
  %12 = add i64 %11, 8
  store i64 %12, i64* %PC
  %13 = call %struct.Memory* @_ZN12_GLOBAL__N_1L3MOVI3MnWImE2InImEEEP6MemoryS6_R5StateT_T0_(%struct.Memory* %2, %struct.State* %0, i64 %10, i64 0)
  ret %struct.Memory* %13
}

define internal %struct.Memory* @_ZN12_GLOBAL__N_1L3MOVI3RnWIhE2InIhEEEP6MemoryS6_R5StateT_T0_(%struct.Memory* readnone returned, %struct.State* nocapture readnone dereferenceable(3376), i8* nocapture, i64) #2 {
  %5 = trunc i64 %3 to i8
  store i8 %5, i8* %2, align 1
  ret %struct.Memory* %0
}

define %struct.Memory* @routine_movb__0x0___al(%struct.State*  dereferenceable(3376), i64, %struct.Memory* ) #19 {
block_400488:
  %3 = getelementptr inbounds %struct.State, %struct.State* %0, i32 0, i32 6
  %4 = getelementptr inbounds %struct.GPR, %struct.GPR* %3, i32 0, i32 33
  %5 = getelementptr inbounds %struct.Reg, %struct.Reg* %4, i32 0, i32 0
  %PC = bitcast %union.anon* %5 to i64*
  %6 = getelementptr inbounds %struct.State, %struct.State* %0, i32 0, i32 6
  %7 = getelementptr inbounds %struct.GPR, %struct.GPR* %6, i32 0, i32 1
  %8 = getelementptr inbounds %struct.Reg, %struct.Reg* %7, i32 0, i32 0
  %9 = bitcast %union.anon* %8 to %struct.anon.2*
  %AL = getelementptr inbounds %struct.anon.2, %struct.anon.2* %9, i32 0, i32 0
  %10 = load i64, i64* %PC
  %11 = add i64 %10, 2
  store i64 %11, i64* %PC
  %12 = call %struct.Memory* @_ZN12_GLOBAL__N_1L3MOVI3RnWIhE2InIhEEEP6MemoryS6_R5StateT_T0_(%struct.Memory* %2, %struct.State* %0, i8* %AL, i64 0)
  ret %struct.Memory* %12
}

define internal %struct.Memory* @_ZN12_GLOBAL__N_1L4CALLI2InImEEEP6MemoryS4_R5StateT_S2_(%struct.Memory* readnone, %struct.State* nocapture dereferenceable(3376), i64, i64) #0 {
  %5 = getelementptr inbounds %struct.State, %struct.State* %1, i64 0, i32 6, i32 13, i32 0, i32 0
  %6 = load i64, i64* %5, align 8
  %7 = add i64 %6, -8
  %8 = inttoptr i64 %7 to i64*
  store i64 %3, i64* %8
  store i64 %7, i64* %5, align 8
  %9 = getelementptr inbounds %struct.State, %struct.State* %1, i64 0, i32 6, i32 33, i32 0, i32 0
  store i64 %2, i64* %9, align 8
  ret %struct.Memory* %0
}

define %struct.Memory* @routine_callq_.printf_plt(%struct.State*  dereferenceable(3376), i64, %struct.Memory*, i64 %rel_off1, i64 %rel_off2, i64 %rel_off3) {
block_400488:
  %3 = getelementptr inbounds %struct.State, %struct.State* %0, i32 0, i32 6
  %4 = getelementptr inbounds %struct.GPR, %struct.GPR* %3, i32 0, i32 33
  %5 = getelementptr inbounds %struct.Reg, %struct.Reg* %4, i32 0, i32 0
  %PC = bitcast %union.anon* %5 to i64*
  %6 = load i64, i64* %PC
  %7 = add i64 %6, %rel_off1
  %8 = load i64, i64* %PC
  %9 = add i64 %8, %rel_off2
  %10 = load i64, i64* %PC
  %11 = add i64 %10, %rel_off3
  store i64 %11, i64* %PC
  %12 = call %struct.Memory* @_ZN12_GLOBAL__N_1L4CALLI2InImEEEP6MemoryS4_R5StateT_S2_(%struct.Memory* %2, %struct.State* %0, i64 %7, i64 %9)
  ret %struct.Memory* %12
}

define internal %struct.Memory* @_ZN12_GLOBAL__N_1L3MOVI3RnWImE2InIjEEEP6MemoryS6_R5StateT_T0_(%struct.Memory* readnone returned, %struct.State* nocapture readnone dereferenceable(3376), i64* nocapture, i64) #2 {
  %5 = and i64 %3, 4294967295
  store i64 %5, i64* %2, align 8
  ret %struct.Memory* %0
}

define %struct.Memory* @routine_movl__0x1___edi(%struct.State*  dereferenceable(3376), i64, %struct.Memory* ) #19 {
block_400488:
  %3 = getelementptr inbounds %struct.State, %struct.State* %0, i32 0, i32 6
  %4 = getelementptr inbounds %struct.GPR, %struct.GPR* %3, i32 0, i32 33
  %5 = getelementptr inbounds %struct.Reg, %struct.Reg* %4, i32 0, i32 0
  %PC = bitcast %union.anon* %5 to i64*
  %6 = getelementptr inbounds %struct.State, %struct.State* %0, i32 0, i32 6
  %7 = getelementptr inbounds %struct.GPR, %struct.GPR* %6, i32 0, i32 11
  %8 = getelementptr inbounds %struct.Reg, %struct.Reg* %7, i32 0, i32 0
  %RDI = bitcast %union.anon* %8 to i64*
  %9 = load i64, i64* %PC
  %10 = add i64 %9, 5
  store i64 %10, i64* %PC
  %11 = call %struct.Memory* @_ZN12_GLOBAL__N_1L3MOVI3RnWImE2InIjEEEP6MemoryS6_R5StateT_T0_(%struct.Memory* %2, %struct.State* %0, i64* %RDI, i64 1)
  ret %struct.Memory* %11
}

define internal %struct.Memory* @_ZN12_GLOBAL__N_1L3XORI3RnWImE2RnIjES4_EEP6MemoryS6_R5StateT_T0_T1_(%struct.Memory* readnone returned, %struct.State* nocapture dereferenceable(3376), i64* nocapture, i64, i64) #0 {
  %6 = xor i64 %4, %3
  %7 = trunc i64 %6 to i32
  %8 = and i64 %6, 4294967295
  store i64 %8, i64* %2, align 8
  %9 = getelementptr inbounds %struct.State, %struct.State* %1, i64 0, i32 2, i32 1
  store i8 0, i8* %9, align 1
  %10 = and i32 %7, 255
  %11 = tail call i32 @llvm.ctpop.i32(i32 %10) #22
  %12 = trunc i32 %11 to i8
  %13 = and i8 %12, 1
  %14 = xor i8 %13, 1
  %15 = getelementptr inbounds %struct.State, %struct.State* %1, i64 0, i32 2, i32 3
  store i8 %14, i8* %15, align 1
  %16 = icmp eq i32 %7, 0
  %17 = zext i1 %16 to i8
  %18 = getelementptr inbounds %struct.State, %struct.State* %1, i64 0, i32 2, i32 7
  store i8 %17, i8* %18, align 1
  %19 = lshr i32 %7, 31
  %20 = trunc i32 %19 to i8
  %21 = getelementptr inbounds %struct.State, %struct.State* %1, i64 0, i32 2, i32 9
  store i8 %20, i8* %21, align 1
  %22 = getelementptr inbounds %struct.State, %struct.State* %1, i64 0, i32 2, i32 13
  store i8 0, i8* %22, align 1
  %23 = getelementptr inbounds %struct.State, %struct.State* %1, i64 0, i32 2, i32 5
  store i8 0, i8* %23, align 1
  ret %struct.Memory* %0
}

define %struct.Memory* @routine_xorl__ecx___ecx(%struct.State*  dereferenceable(3376), i64, %struct.Memory* ) #19 {
block_400488:
  %3 = getelementptr inbounds %struct.State, %struct.State* %0, i32 0, i32 6
  %4 = getelementptr inbounds %struct.GPR, %struct.GPR* %3, i32 0, i32 33
  %5 = getelementptr inbounds %struct.Reg, %struct.Reg* %4, i32 0, i32 0
  %PC = bitcast %union.anon* %5 to i64*
  %6 = getelementptr inbounds %struct.State, %struct.State* %0, i32 0, i32 6
  %7 = getelementptr inbounds %struct.GPR, %struct.GPR* %6, i32 0, i32 5
  %8 = getelementptr inbounds %struct.Reg, %struct.Reg* %7, i32 0, i32 0
  %ECX = bitcast %union.anon* %8 to i32*
  %9 = getelementptr inbounds %struct.State, %struct.State* %0, i32 0, i32 6
  %10 = getelementptr inbounds %struct.GPR, %struct.GPR* %9, i32 0, i32 5
  %11 = getelementptr inbounds %struct.Reg, %struct.Reg* %10, i32 0, i32 0
  %RCX = bitcast %union.anon* %11 to i64*
  %12 = load i64, i64* %RCX
  %13 = load i32, i32* %ECX
  %14 = zext i32 %13 to i64
  %15 = load i64, i64* %PC
  %16 = add i64 %15, 2
  store i64 %16, i64* %PC
  %17 = call %struct.Memory* @_ZN12_GLOBAL__N_1L3XORI3RnWImE2RnIjES4_EEP6MemoryS6_R5StateT_T0_T1_(%struct.Memory* %2, %struct.State* %0, i64* %RCX, i64 %12, i64 %14)
  ret %struct.Memory* %17
}


define %struct.Memory* @routine_movq__0x400b30___r8(%struct.State*  dereferenceable(3376), i64, %struct.Memory* ) #19 {
block_400488:
  %3 = getelementptr inbounds %struct.State, %struct.State* %0, i32 0, i32 6
  %4 = getelementptr inbounds %struct.GPR, %struct.GPR* %3, i32 0, i32 33
  %5 = getelementptr inbounds %struct.Reg, %struct.Reg* %4, i32 0, i32 0
  %PC = bitcast %union.anon* %5 to i64*
  %6 = getelementptr inbounds %struct.State, %struct.State* %0, i32 0, i32 6
  %7 = getelementptr inbounds %struct.GPR, %struct.GPR* %6, i32 0, i32 17
  %8 = getelementptr inbounds %struct.Reg, %struct.Reg* %7, i32 0, i32 0
  %R8 = bitcast %union.anon* %8 to i64*
  %9 = load i64, i64* %PC
  %10 = add i64 %9, 10
  store i64 %10, i64* %PC
  %11 = call %struct.Memory* @_ZN12_GLOBAL__N_1L3MOVI3RnWImE2InImEEEP6MemoryS6_R5StateT_T0_(%struct.Memory* %2, %struct.State* %0, i64* %R8, i64 4197168)
  ret %struct.Memory* %11
}


define %struct.Memory* @routine_movl__0x1___edx(%struct.State*  dereferenceable(3376), i64, %struct.Memory* ) #19 {
block_400488:
  %3 = getelementptr inbounds %struct.State, %struct.State* %0, i32 0, i32 6
  %4 = getelementptr inbounds %struct.GPR, %struct.GPR* %3, i32 0, i32 33
  %5 = getelementptr inbounds %struct.Reg, %struct.Reg* %4, i32 0, i32 0
  %PC = bitcast %union.anon* %5 to i64*
  %6 = getelementptr inbounds %struct.State, %struct.State* %0, i32 0, i32 6
  %7 = getelementptr inbounds %struct.GPR, %struct.GPR* %6, i32 0, i32 7
  %8 = getelementptr inbounds %struct.Reg, %struct.Reg* %7, i32 0, i32 0
  %RDX = bitcast %union.anon* %8 to i64*
  %9 = load i64, i64* %PC
  %10 = add i64 %9, 5
  store i64 %10, i64* %PC
  %11 = call %struct.Memory* @_ZN12_GLOBAL__N_1L3MOVI3RnWImE2InIjEEEP6MemoryS6_R5StateT_T0_(%struct.Memory* %2, %struct.State* %0, i64* %RDX, i64 1)
  ret %struct.Memory* %11
}

define internal %struct.Memory* @_ZN12_GLOBAL__N_1L3MOVI3RnWImE2RnIjEEEP6MemoryS6_R5StateT_T0_(%struct.Memory* readnone returned, %struct.State* nocapture readnone dereferenceable(3376), i64* nocapture, i64) #2 {
  %5 = and i64 %3, 4294967295
  store i64 %5, i64* %2, align 8
  ret %struct.Memory* %0
}

define %struct.Memory* @routine_movl__edx___r9d(%struct.State*  dereferenceable(3376), i64, %struct.Memory* ) #19 {
block_400488:
  %3 = getelementptr inbounds %struct.State, %struct.State* %0, i32 0, i32 6
  %4 = getelementptr inbounds %struct.GPR, %struct.GPR* %3, i32 0, i32 33
  %5 = getelementptr inbounds %struct.Reg, %struct.Reg* %4, i32 0, i32 0
  %PC = bitcast %union.anon* %5 to i64*
  %6 = getelementptr inbounds %struct.State, %struct.State* %0, i32 0, i32 6
  %7 = getelementptr inbounds %struct.GPR, %struct.GPR* %6, i32 0, i32 7
  %8 = getelementptr inbounds %struct.Reg, %struct.Reg* %7, i32 0, i32 0
  %EDX = bitcast %union.anon* %8 to i32*
  %9 = getelementptr inbounds %struct.State, %struct.State* %0, i32 0, i32 6
  %10 = getelementptr inbounds %struct.GPR, %struct.GPR* %9, i32 0, i32 19
  %11 = getelementptr inbounds %struct.Reg, %struct.Reg* %10, i32 0, i32 0
  %R9D = bitcast %union.anon* %11 to i32*
  %12 = bitcast i32* %R9D to i64*
  %13 = load i32, i32* %EDX
  %14 = zext i32 %13 to i64
  %15 = load i64, i64* %PC
  %16 = add i64 %15, 3
  store i64 %16, i64* %PC
  %17 = call %struct.Memory* @_ZN12_GLOBAL__N_1L3MOVI3RnWImE2RnIjEEEP6MemoryS6_R5StateT_T0_(%struct.Memory* %2, %struct.State* %0, i64* %12, i64 %14)
  ret %struct.Memory* %17
}


define %struct.Memory* @routine_movl__0x989680___edx(%struct.State*  dereferenceable(3376), i64, %struct.Memory* ) #19 {
block_400488:
  %3 = getelementptr inbounds %struct.State, %struct.State* %0, i32 0, i32 6
  %4 = getelementptr inbounds %struct.GPR, %struct.GPR* %3, i32 0, i32 33
  %5 = getelementptr inbounds %struct.Reg, %struct.Reg* %4, i32 0, i32 0
  %PC = bitcast %union.anon* %5 to i64*
  %6 = getelementptr inbounds %struct.State, %struct.State* %0, i32 0, i32 6
  %7 = getelementptr inbounds %struct.GPR, %struct.GPR* %6, i32 0, i32 7
  %8 = getelementptr inbounds %struct.Reg, %struct.Reg* %7, i32 0, i32 0
  %RDX = bitcast %union.anon* %8 to i64*
  %9 = load i64, i64* %PC
  %10 = add i64 %9, 5
  store i64 %10, i64* %PC
  %11 = call %struct.Memory* @_ZN12_GLOBAL__N_1L3MOVI3RnWImE2InIjEEEP6MemoryS6_R5StateT_T0_(%struct.Memory* %2, %struct.State* %0, i64* %RDX, i64 10000000)
  ret %struct.Memory* %11
}


define %struct.Memory* @routine_movl__edx___esi(%struct.State*  dereferenceable(3376), i64, %struct.Memory* ) #19 {
block_400488:
  %3 = getelementptr inbounds %struct.State, %struct.State* %0, i32 0, i32 6
  %4 = getelementptr inbounds %struct.GPR, %struct.GPR* %3, i32 0, i32 33
  %5 = getelementptr inbounds %struct.Reg, %struct.Reg* %4, i32 0, i32 0
  %PC = bitcast %union.anon* %5 to i64*
  %6 = getelementptr inbounds %struct.State, %struct.State* %0, i32 0, i32 6
  %7 = getelementptr inbounds %struct.GPR, %struct.GPR* %6, i32 0, i32 7
  %8 = getelementptr inbounds %struct.Reg, %struct.Reg* %7, i32 0, i32 0
  %EDX = bitcast %union.anon* %8 to i32*
  %9 = getelementptr inbounds %struct.State, %struct.State* %0, i32 0, i32 6
  %10 = getelementptr inbounds %struct.GPR, %struct.GPR* %9, i32 0, i32 9
  %11 = getelementptr inbounds %struct.Reg, %struct.Reg* %10, i32 0, i32 0
  %RSI = bitcast %union.anon* %11 to i64*
  %12 = load i32, i32* %EDX
  %13 = zext i32 %12 to i64
  %14 = load i64, i64* %PC
  %15 = add i64 %14, 2
  store i64 %15, i64* %PC
  %16 = call %struct.Memory* @_ZN12_GLOBAL__N_1L3MOVI3RnWImE2RnIjEEEP6MemoryS6_R5StateT_T0_(%struct.Memory* %2, %struct.State* %0, i64* %RSI, i64 %13)
  ret %struct.Memory* %16
}

define internal %struct.Memory* @_ZN12_GLOBAL__N_1L3MOVI3RnWImE2MnImEEEP6MemoryS6_R5StateT_T0_(%struct.Memory* returned, %struct.State* nocapture readnone dereferenceable(3376), i64* nocapture, i64) #0 {
  %5 = inttoptr i64 %3 to i64*
  %6 = load i64, i64* %5
  store i64 %6, i64* %2, align 8
  ret %struct.Memory* %0
}

define %struct.Memory* @routine_movq_MINUS0x10__rbp____rdx(%struct.State*  dereferenceable(3376), i64, %struct.Memory* ) #19 {
block_400488:
  %3 = getelementptr inbounds %struct.State, %struct.State* %0, i32 0, i32 6
  %4 = getelementptr inbounds %struct.GPR, %struct.GPR* %3, i32 0, i32 33
  %5 = getelementptr inbounds %struct.Reg, %struct.Reg* %4, i32 0, i32 0
  %PC = bitcast %union.anon* %5 to i64*
  %6 = getelementptr inbounds %struct.State, %struct.State* %0, i32 0, i32 6
  %7 = getelementptr inbounds %struct.GPR, %struct.GPR* %6, i32 0, i32 7
  %8 = getelementptr inbounds %struct.Reg, %struct.Reg* %7, i32 0, i32 0
  %RDX = bitcast %union.anon* %8 to i64*
  %9 = getelementptr inbounds %struct.State, %struct.State* %0, i32 0, i32 6
  %10 = getelementptr inbounds %struct.GPR, %struct.GPR* %9, i32 0, i32 15
  %11 = getelementptr inbounds %struct.Reg, %struct.Reg* %10, i32 0, i32 0
  %RBP = bitcast %union.anon* %11 to i64*
  %12 = load i64, i64* %RBP
  %13 = sub i64 %12, 16
  %14 = load i64, i64* %PC
  %15 = add i64 %14, 4
  store i64 %15, i64* %PC
  %16 = call %struct.Memory* @_ZN12_GLOBAL__N_1L3MOVI3RnWImE2MnImEEEP6MemoryS6_R5StateT_T0_(%struct.Memory* %2, %struct.State* %0, i64* %RDX, i64 %13)
  ret %struct.Memory* %16
}

define internal %struct.Memory* @_ZN12_GLOBAL__N_1L3MOVI3MnWImE2RnImEEEP6MemoryS6_R5StateT_T0_(%struct.Memory* readnone, %struct.State* nocapture readnone dereferenceable(3376), i64, i64) #8 {
  %5 = inttoptr i64 %2 to i64*
  store i64 %3, i64* %5
  ret %struct.Memory* %0
}

define %struct.Memory* @routine_movq__rsi__MINUS0x20__rbp_(%struct.State*  dereferenceable(3376), i64, %struct.Memory* ) #19 {
block_400488:
  %3 = getelementptr inbounds %struct.State, %struct.State* %0, i32 0, i32 6
  %4 = getelementptr inbounds %struct.GPR, %struct.GPR* %3, i32 0, i32 33
  %5 = getelementptr inbounds %struct.Reg, %struct.Reg* %4, i32 0, i32 0
  %PC = bitcast %union.anon* %5 to i64*
  %6 = getelementptr inbounds %struct.State, %struct.State* %0, i32 0, i32 6
  %7 = getelementptr inbounds %struct.GPR, %struct.GPR* %6, i32 0, i32 9
  %8 = getelementptr inbounds %struct.Reg, %struct.Reg* %7, i32 0, i32 0
  %RSI = bitcast %union.anon* %8 to i64*
  %9 = getelementptr inbounds %struct.State, %struct.State* %0, i32 0, i32 6
  %10 = getelementptr inbounds %struct.GPR, %struct.GPR* %9, i32 0, i32 15
  %11 = getelementptr inbounds %struct.Reg, %struct.Reg* %10, i32 0, i32 0
  %RBP = bitcast %union.anon* %11 to i64*
  %12 = load i64, i64* %RBP
  %13 = sub i64 %12, 32
  %14 = load i64, i64* %RSI
  %15 = load i64, i64* %PC
  %16 = add i64 %15, 4
  store i64 %16, i64* %PC
  %17 = call %struct.Memory* @_ZN12_GLOBAL__N_1L3MOVI3MnWImE2RnImEEEP6MemoryS6_R5StateT_T0_(%struct.Memory* %2, %struct.State* %0, i64 %13, i64 %14)
  ret %struct.Memory* %17
}


define %struct.Memory* @routine_movl__ecx___esi(%struct.State*  dereferenceable(3376), i64, %struct.Memory* ) #19 {
block_400488:
  %3 = getelementptr inbounds %struct.State, %struct.State* %0, i32 0, i32 6
  %4 = getelementptr inbounds %struct.GPR, %struct.GPR* %3, i32 0, i32 33
  %5 = getelementptr inbounds %struct.Reg, %struct.Reg* %4, i32 0, i32 0
  %PC = bitcast %union.anon* %5 to i64*
  %6 = getelementptr inbounds %struct.State, %struct.State* %0, i32 0, i32 6
  %7 = getelementptr inbounds %struct.GPR, %struct.GPR* %6, i32 0, i32 5
  %8 = getelementptr inbounds %struct.Reg, %struct.Reg* %7, i32 0, i32 0
  %ECX = bitcast %union.anon* %8 to i32*
  %9 = getelementptr inbounds %struct.State, %struct.State* %0, i32 0, i32 6
  %10 = getelementptr inbounds %struct.GPR, %struct.GPR* %9, i32 0, i32 9
  %11 = getelementptr inbounds %struct.Reg, %struct.Reg* %10, i32 0, i32 0
  %RSI = bitcast %union.anon* %11 to i64*
  %12 = load i32, i32* %ECX
  %13 = zext i32 %12 to i64
  %14 = load i64, i64* %PC
  %15 = add i64 %14, 2
  store i64 %15, i64* %PC
  %16 = call %struct.Memory* @_ZN12_GLOBAL__N_1L3MOVI3RnWImE2RnIjEEEP6MemoryS6_R5StateT_T0_(%struct.Memory* %2, %struct.State* %0, i64* %RSI, i64 %13)
  ret %struct.Memory* %16
}


define %struct.Memory* @routine_movq__0x989680____rsp_(%struct.State*  dereferenceable(3376), i64, %struct.Memory* ) #19 {
block_400488:
  %3 = getelementptr inbounds %struct.State, %struct.State* %0, i32 0, i32 6
  %4 = getelementptr inbounds %struct.GPR, %struct.GPR* %3, i32 0, i32 33
  %5 = getelementptr inbounds %struct.Reg, %struct.Reg* %4, i32 0, i32 0
  %PC = bitcast %union.anon* %5 to i64*
  %6 = getelementptr inbounds %struct.State, %struct.State* %0, i32 0, i32 6
  %7 = getelementptr inbounds %struct.GPR, %struct.GPR* %6, i32 0, i32 13
  %8 = getelementptr inbounds %struct.Reg, %struct.Reg* %7, i32 0, i32 0
  %RSP = bitcast %union.anon* %8 to i64*
  %9 = load i64, i64* %RSP
  %10 = load i64, i64* %PC
  %11 = add i64 %10, 8
  store i64 %11, i64* %PC
  %12 = call %struct.Memory* @_ZN12_GLOBAL__N_1L3MOVI3MnWImE2InImEEEP6MemoryS6_R5StateT_T0_(%struct.Memory* %2, %struct.State* %0, i64 %9, i64 10000000)
  ret %struct.Memory* %12
}

define internal %struct.Memory* @_ZN12_GLOBAL__N_1L3MOVI3MnWIjE2RnIjEEEP6MemoryS6_R5StateT_T0_(%struct.Memory* readnone, %struct.State* nocapture readnone dereferenceable(3376), i64, i64) #8 {
  %5 = trunc i64 %3 to i32
  %6 = inttoptr i64 %2 to i32*
  store i32 %5, i32* %6
  ret %struct.Memory* %0
}

define %struct.Memory* @routine_movl__eax__MINUS0x24__rbp_(%struct.State*  dereferenceable(3376), i64, %struct.Memory* ) #19 {
block_400488:
  %3 = getelementptr inbounds %struct.State, %struct.State* %0, i32 0, i32 6
  %4 = getelementptr inbounds %struct.GPR, %struct.GPR* %3, i32 0, i32 33
  %5 = getelementptr inbounds %struct.Reg, %struct.Reg* %4, i32 0, i32 0
  %PC = bitcast %union.anon* %5 to i64*
  %6 = getelementptr inbounds %struct.State, %struct.State* %0, i32 0, i32 6
  %7 = getelementptr inbounds %struct.GPR, %struct.GPR* %6, i32 0, i32 1
  %8 = getelementptr inbounds %struct.Reg, %struct.Reg* %7, i32 0, i32 0
  %EAX = bitcast %union.anon* %8 to i32*
  %9 = getelementptr inbounds %struct.State, %struct.State* %0, i32 0, i32 6
  %10 = getelementptr inbounds %struct.GPR, %struct.GPR* %9, i32 0, i32 15
  %11 = getelementptr inbounds %struct.Reg, %struct.Reg* %10, i32 0, i32 0
  %RBP = bitcast %union.anon* %11 to i64*
  %12 = load i64, i64* %RBP
  %13 = sub i64 %12, 36
  %14 = load i32, i32* %EAX
  %15 = zext i32 %14 to i64
  %16 = load i64, i64* %PC
  %17 = add i64 %16, 3
  store i64 %17, i64* %PC
  %18 = call %struct.Memory* @_ZN12_GLOBAL__N_1L3MOVI3MnWIjE2RnIjEEEP6MemoryS6_R5StateT_T0_(%struct.Memory* %2, %struct.State* %0, i64 %13, i64 %15)
  ret %struct.Memory* %18
}


define %struct.Memory* @routine_callq_.createtask(%struct.State*  dereferenceable(3376), i64, %struct.Memory*, i64 %rel_off1, i64 %rel_off2, i64 %rel_off3) {
block_400488:
  %3 = getelementptr inbounds %struct.State, %struct.State* %0, i32 0, i32 6
  %4 = getelementptr inbounds %struct.GPR, %struct.GPR* %3, i32 0, i32 33
  %5 = getelementptr inbounds %struct.Reg, %struct.Reg* %4, i32 0, i32 0
  %PC = bitcast %union.anon* %5 to i64*
  %6 = load i64, i64* %PC
  %7 = add i64 %6, %rel_off1
  %8 = load i64, i64* %PC
  %9 = add i64 %8, %rel_off2
  %10 = load i64, i64* %PC
  %11 = add i64 %10, %rel_off3
  store i64 %11, i64* %PC
  %12 = call %struct.Memory* @_ZN12_GLOBAL__N_1L4CALLI2InImEEEP6MemoryS4_R5StateT_S2_(%struct.Memory* %2, %struct.State* %0, i64 %7, i64 %9)
  ret %struct.Memory* %12
}


define %struct.Memory* @routine_xorl__eax___eax(%struct.State*  dereferenceable(3376), i64, %struct.Memory* ) #19 {
block_400488:
  %3 = getelementptr inbounds %struct.State, %struct.State* %0, i32 0, i32 6
  %4 = getelementptr inbounds %struct.GPR, %struct.GPR* %3, i32 0, i32 33
  %5 = getelementptr inbounds %struct.Reg, %struct.Reg* %4, i32 0, i32 0
  %PC = bitcast %union.anon* %5 to i64*
  %6 = getelementptr inbounds %struct.State, %struct.State* %0, i32 0, i32 6
  %7 = getelementptr inbounds %struct.GPR, %struct.GPR* %6, i32 0, i32 1
  %8 = getelementptr inbounds %struct.Reg, %struct.Reg* %7, i32 0, i32 0
  %EAX = bitcast %union.anon* %8 to i32*
  %9 = getelementptr inbounds %struct.State, %struct.State* %0, i32 0, i32 6
  %10 = getelementptr inbounds %struct.GPR, %struct.GPR* %9, i32 0, i32 1
  %11 = getelementptr inbounds %struct.Reg, %struct.Reg* %10, i32 0, i32 0
  %RAX = bitcast %union.anon* %11 to i64*
  %12 = load i64, i64* %RAX
  %13 = load i32, i32* %EAX
  %14 = zext i32 %13 to i64
  %15 = load i64, i64* %PC
  %16 = add i64 %15, 2
  store i64 %16, i64* %PC
  %17 = call %struct.Memory* @_ZN12_GLOBAL__N_1L3XORI3RnWImE2RnIjES4_EEP6MemoryS6_R5StateT_T0_T1_(%struct.Memory* %2, %struct.State* %0, i64* %RAX, i64 %12, i64 %14)
  ret %struct.Memory* %17
}


define %struct.Memory* @routine_movl__eax___edi(%struct.State*  dereferenceable(3376), i64, %struct.Memory* ) #19 {
block_400488:
  %3 = getelementptr inbounds %struct.State, %struct.State* %0, i32 0, i32 6
  %4 = getelementptr inbounds %struct.GPR, %struct.GPR* %3, i32 0, i32 33
  %5 = getelementptr inbounds %struct.Reg, %struct.Reg* %4, i32 0, i32 0
  %PC = bitcast %union.anon* %5 to i64*
  %6 = getelementptr inbounds %struct.State, %struct.State* %0, i32 0, i32 6
  %7 = getelementptr inbounds %struct.GPR, %struct.GPR* %6, i32 0, i32 1
  %8 = getelementptr inbounds %struct.Reg, %struct.Reg* %7, i32 0, i32 0
  %EAX = bitcast %union.anon* %8 to i32*
  %9 = getelementptr inbounds %struct.State, %struct.State* %0, i32 0, i32 6
  %10 = getelementptr inbounds %struct.GPR, %struct.GPR* %9, i32 0, i32 11
  %11 = getelementptr inbounds %struct.Reg, %struct.Reg* %10, i32 0, i32 0
  %RDI = bitcast %union.anon* %11 to i64*
  %12 = load i32, i32* %EAX
  %13 = zext i32 %12 to i64
  %14 = load i64, i64* %PC
  %15 = add i64 %14, 2
  store i64 %15, i64* %PC
  %16 = call %struct.Memory* @_ZN12_GLOBAL__N_1L3MOVI3RnWImE2RnIjEEEP6MemoryS6_R5StateT_T0_(%struct.Memory* %2, %struct.State* %0, i64* %RDI, i64 %13)
  ret %struct.Memory* %16
}


define %struct.Memory* @routine_xorl__esi___esi(%struct.State*  dereferenceable(3376), i64, %struct.Memory* ) #19 {
block_400488:
  %3 = getelementptr inbounds %struct.State, %struct.State* %0, i32 0, i32 6
  %4 = getelementptr inbounds %struct.GPR, %struct.GPR* %3, i32 0, i32 33
  %5 = getelementptr inbounds %struct.Reg, %struct.Reg* %4, i32 0, i32 0
  %PC = bitcast %union.anon* %5 to i64*
  %6 = getelementptr inbounds %struct.State, %struct.State* %0, i32 0, i32 6
  %7 = getelementptr inbounds %struct.GPR, %struct.GPR* %6, i32 0, i32 9
  %8 = getelementptr inbounds %struct.Reg, %struct.Reg* %7, i32 0, i32 0
  %ESI = bitcast %union.anon* %8 to i32*
  %9 = getelementptr inbounds %struct.State, %struct.State* %0, i32 0, i32 6
  %10 = getelementptr inbounds %struct.GPR, %struct.GPR* %9, i32 0, i32 9
  %11 = getelementptr inbounds %struct.Reg, %struct.Reg* %10, i32 0, i32 0
  %RSI = bitcast %union.anon* %11 to i64*
  %12 = load i64, i64* %RSI
  %13 = load i32, i32* %ESI
  %14 = zext i32 %13 to i64
  %15 = load i64, i64* %PC
  %16 = add i64 %15, 2
  store i64 %16, i64* %PC
  %17 = call %struct.Memory* @_ZN12_GLOBAL__N_1L3XORI3RnWImE2RnIjES4_EEP6MemoryS6_R5StateT_T0_T1_(%struct.Memory* %2, %struct.State* %0, i64* %RSI, i64 %12, i64 %14)
  ret %struct.Memory* %17
}


define %struct.Memory* @routine_movl__0x3e9___edx(%struct.State*  dereferenceable(3376), i64, %struct.Memory* ) #19 {
block_400488:
  %3 = getelementptr inbounds %struct.State, %struct.State* %0, i32 0, i32 6
  %4 = getelementptr inbounds %struct.GPR, %struct.GPR* %3, i32 0, i32 33
  %5 = getelementptr inbounds %struct.Reg, %struct.Reg* %4, i32 0, i32 0
  %PC = bitcast %union.anon* %5 to i64*
  %6 = getelementptr inbounds %struct.State, %struct.State* %0, i32 0, i32 6
  %7 = getelementptr inbounds %struct.GPR, %struct.GPR* %6, i32 0, i32 7
  %8 = getelementptr inbounds %struct.Reg, %struct.Reg* %7, i32 0, i32 0
  %RDX = bitcast %union.anon* %8 to i64*
  %9 = load i64, i64* %PC
  %10 = add i64 %9, 5
  store i64 %10, i64* %PC
  %11 = call %struct.Memory* @_ZN12_GLOBAL__N_1L3MOVI3RnWImE2InIjEEEP6MemoryS6_R5StateT_T0_(%struct.Memory* %2, %struct.State* %0, i64* %RDX, i64 1001)
  ret %struct.Memory* %11
}


define %struct.Memory* @routine_callq_.pkt(%struct.State*  dereferenceable(3376), i64, %struct.Memory*, i64 %rel_off1, i64 %rel_off2, i64 %rel_off3) {
block_400488:
  %3 = getelementptr inbounds %struct.State, %struct.State* %0, i32 0, i32 6
  %4 = getelementptr inbounds %struct.GPR, %struct.GPR* %3, i32 0, i32 33
  %5 = getelementptr inbounds %struct.Reg, %struct.Reg* %4, i32 0, i32 0
  %PC = bitcast %union.anon* %5 to i64*
  %6 = load i64, i64* %PC
  %7 = add i64 %6, %rel_off1
  %8 = load i64, i64* %PC
  %9 = add i64 %8, %rel_off2
  %10 = load i64, i64* %PC
  %11 = add i64 %10, %rel_off3
  store i64 %11, i64* %PC
  %12 = call %struct.Memory* @_ZN12_GLOBAL__N_1L4CALLI2InImEEEP6MemoryS4_R5StateT_S2_(%struct.Memory* %2, %struct.State* %0, i64 %7, i64 %9)
  ret %struct.Memory* %12
}






define %struct.Memory* @routine_movq__rax__MINUS0x10__rbp_(%struct.State*  dereferenceable(3376), i64, %struct.Memory* ) #19 {
block_400488:
  %3 = getelementptr inbounds %struct.State, %struct.State* %0, i32 0, i32 6
  %4 = getelementptr inbounds %struct.GPR, %struct.GPR* %3, i32 0, i32 33
  %5 = getelementptr inbounds %struct.Reg, %struct.Reg* %4, i32 0, i32 0
  %PC = bitcast %union.anon* %5 to i64*
  %6 = getelementptr inbounds %struct.State, %struct.State* %0, i32 0, i32 6
  %7 = getelementptr inbounds %struct.GPR, %struct.GPR* %6, i32 0, i32 1
  %8 = getelementptr inbounds %struct.Reg, %struct.Reg* %7, i32 0, i32 0
  %RAX = bitcast %union.anon* %8 to i64*
  %9 = getelementptr inbounds %struct.State, %struct.State* %0, i32 0, i32 6
  %10 = getelementptr inbounds %struct.GPR, %struct.GPR* %9, i32 0, i32 15
  %11 = getelementptr inbounds %struct.Reg, %struct.Reg* %10, i32 0, i32 0
  %RBP = bitcast %union.anon* %11 to i64*
  %12 = load i64, i64* %RBP
  %13 = sub i64 %12, 16
  %14 = load i64, i64* %RAX
  %15 = load i64, i64* %PC
  %16 = add i64 %15, 4
  store i64 %16, i64* %PC
  %17 = call %struct.Memory* @_ZN12_GLOBAL__N_1L3MOVI3MnWImE2RnImEEEP6MemoryS6_R5StateT_T0_(%struct.Memory* %2, %struct.State* %0, i64 %13, i64 %14)
  ret %struct.Memory* %17
}


define %struct.Memory* @routine_movq_MINUS0x10__rbp____rdi(%struct.State*  dereferenceable(3376), i64, %struct.Memory* ) #19 {
block_400488:
  %3 = getelementptr inbounds %struct.State, %struct.State* %0, i32 0, i32 6
  %4 = getelementptr inbounds %struct.GPR, %struct.GPR* %3, i32 0, i32 33
  %5 = getelementptr inbounds %struct.Reg, %struct.Reg* %4, i32 0, i32 0
  %PC = bitcast %union.anon* %5 to i64*
  %6 = getelementptr inbounds %struct.State, %struct.State* %0, i32 0, i32 6
  %7 = getelementptr inbounds %struct.GPR, %struct.GPR* %6, i32 0, i32 11
  %8 = getelementptr inbounds %struct.Reg, %struct.Reg* %7, i32 0, i32 0
  %RDI = bitcast %union.anon* %8 to i64*
  %9 = getelementptr inbounds %struct.State, %struct.State* %0, i32 0, i32 6
  %10 = getelementptr inbounds %struct.GPR, %struct.GPR* %9, i32 0, i32 15
  %11 = getelementptr inbounds %struct.Reg, %struct.Reg* %10, i32 0, i32 0
  %RBP = bitcast %union.anon* %11 to i64*
  %12 = load i64, i64* %RBP
  %13 = sub i64 %12, 16
  %14 = load i64, i64* %PC
  %15 = add i64 %14, 4
  store i64 %15, i64* %PC
  %16 = call %struct.Memory* @_ZN12_GLOBAL__N_1L3MOVI3RnWImE2MnImEEEP6MemoryS6_R5StateT_T0_(%struct.Memory* %2, %struct.State* %0, i64* %RDI, i64 %13)
  ret %struct.Memory* %16
}




define %struct.Memory* @routine_movl__0x2___edi(%struct.State*  dereferenceable(3376), i64, %struct.Memory* ) #19 {
block_400488:
  %3 = getelementptr inbounds %struct.State, %struct.State* %0, i32 0, i32 6
  %4 = getelementptr inbounds %struct.GPR, %struct.GPR* %3, i32 0, i32 33
  %5 = getelementptr inbounds %struct.Reg, %struct.Reg* %4, i32 0, i32 0
  %PC = bitcast %union.anon* %5 to i64*
  %6 = getelementptr inbounds %struct.State, %struct.State* %0, i32 0, i32 6
  %7 = getelementptr inbounds %struct.GPR, %struct.GPR* %6, i32 0, i32 11
  %8 = getelementptr inbounds %struct.Reg, %struct.Reg* %7, i32 0, i32 0
  %RDI = bitcast %union.anon* %8 to i64*
  %9 = load i64, i64* %PC
  %10 = add i64 %9, 5
  store i64 %10, i64* %PC
  %11 = call %struct.Memory* @_ZN12_GLOBAL__N_1L3MOVI3RnWImE2InIjEEEP6MemoryS6_R5StateT_T0_(%struct.Memory* %2, %struct.State* %0, i64* %RDI, i64 2)
  ret %struct.Memory* %11
}


define %struct.Memory* @routine_movl__0x3e8___esi(%struct.State*  dereferenceable(3376), i64, %struct.Memory* ) #19 {
block_400488:
  %3 = getelementptr inbounds %struct.State, %struct.State* %0, i32 0, i32 6
  %4 = getelementptr inbounds %struct.GPR, %struct.GPR* %3, i32 0, i32 33
  %5 = getelementptr inbounds %struct.Reg, %struct.Reg* %4, i32 0, i32 0
  %PC = bitcast %union.anon* %5 to i64*
  %6 = getelementptr inbounds %struct.State, %struct.State* %0, i32 0, i32 6
  %7 = getelementptr inbounds %struct.GPR, %struct.GPR* %6, i32 0, i32 9
  %8 = getelementptr inbounds %struct.Reg, %struct.Reg* %7, i32 0, i32 0
  %RSI = bitcast %union.anon* %8 to i64*
  %9 = load i64, i64* %PC
  %10 = add i64 %9, 5
  store i64 %10, i64* %PC
  %11 = call %struct.Memory* @_ZN12_GLOBAL__N_1L3MOVI3RnWImE2InIjEEEP6MemoryS6_R5StateT_T0_(%struct.Memory* %2, %struct.State* %0, i64* %RSI, i64 1000)
  ret %struct.Memory* %11
}


define %struct.Memory* @routine_movl__0x3___ecx(%struct.State*  dereferenceable(3376), i64, %struct.Memory* ) #19 {
block_400488:
  %3 = getelementptr inbounds %struct.State, %struct.State* %0, i32 0, i32 6
  %4 = getelementptr inbounds %struct.GPR, %struct.GPR* %3, i32 0, i32 33
  %5 = getelementptr inbounds %struct.Reg, %struct.Reg* %4, i32 0, i32 0
  %PC = bitcast %union.anon* %5 to i64*
  %6 = getelementptr inbounds %struct.State, %struct.State* %0, i32 0, i32 6
  %7 = getelementptr inbounds %struct.GPR, %struct.GPR* %6, i32 0, i32 5
  %8 = getelementptr inbounds %struct.Reg, %struct.Reg* %7, i32 0, i32 0
  %RCX = bitcast %union.anon* %8 to i64*
  %9 = load i64, i64* %PC
  %10 = add i64 %9, 5
  store i64 %10, i64* %PC
  %11 = call %struct.Memory* @_ZN12_GLOBAL__N_1L3MOVI3RnWImE2InIjEEEP6MemoryS6_R5StateT_T0_(%struct.Memory* %2, %struct.State* %0, i64* %RCX, i64 3)
  ret %struct.Memory* %11
}


define %struct.Memory* @routine_movq__0x400bf0___r8(%struct.State*  dereferenceable(3376), i64, %struct.Memory* ) #19 {
block_400488:
  %3 = getelementptr inbounds %struct.State, %struct.State* %0, i32 0, i32 6
  %4 = getelementptr inbounds %struct.GPR, %struct.GPR* %3, i32 0, i32 33
  %5 = getelementptr inbounds %struct.Reg, %struct.Reg* %4, i32 0, i32 0
  %PC = bitcast %union.anon* %5 to i64*
  %6 = getelementptr inbounds %struct.State, %struct.State* %0, i32 0, i32 6
  %7 = getelementptr inbounds %struct.GPR, %struct.GPR* %6, i32 0, i32 17
  %8 = getelementptr inbounds %struct.Reg, %struct.Reg* %7, i32 0, i32 0
  %R8 = bitcast %union.anon* %8 to i64*
  %9 = load i64, i64* %PC
  %10 = add i64 %9, 10
  store i64 %10, i64* %PC
  %11 = call %struct.Memory* @_ZN12_GLOBAL__N_1L3MOVI3RnWImE2InImEEEP6MemoryS6_R5StateT_T0_(%struct.Memory* %2, %struct.State* %0, i64* %R8, i64 4197360)
  ret %struct.Memory* %11
}


define %struct.Memory* @routine_movl__0x3___edx(%struct.State*  dereferenceable(3376), i64, %struct.Memory* ) #19 {
block_400488:
  %3 = getelementptr inbounds %struct.State, %struct.State* %0, i32 0, i32 6
  %4 = getelementptr inbounds %struct.GPR, %struct.GPR* %3, i32 0, i32 33
  %5 = getelementptr inbounds %struct.Reg, %struct.Reg* %4, i32 0, i32 0
  %PC = bitcast %union.anon* %5 to i64*
  %6 = getelementptr inbounds %struct.State, %struct.State* %0, i32 0, i32 6
  %7 = getelementptr inbounds %struct.GPR, %struct.GPR* %6, i32 0, i32 7
  %8 = getelementptr inbounds %struct.Reg, %struct.Reg* %7, i32 0, i32 0
  %RDX = bitcast %union.anon* %8 to i64*
  %9 = load i64, i64* %PC
  %10 = add i64 %9, 5
  store i64 %10, i64* %PC
  %11 = call %struct.Memory* @_ZN12_GLOBAL__N_1L3MOVI3RnWImE2InIjEEEP6MemoryS6_R5StateT_T0_(%struct.Memory* %2, %struct.State* %0, i64* %RDX, i64 3)
  ret %struct.Memory* %11
}




define %struct.Memory* @routine_xorl__edx___edx(%struct.State*  dereferenceable(3376), i64, %struct.Memory* ) #19 {
block_400488:
  %3 = getelementptr inbounds %struct.State, %struct.State* %0, i32 0, i32 6
  %4 = getelementptr inbounds %struct.GPR, %struct.GPR* %3, i32 0, i32 33
  %5 = getelementptr inbounds %struct.Reg, %struct.Reg* %4, i32 0, i32 0
  %PC = bitcast %union.anon* %5 to i64*
  %6 = getelementptr inbounds %struct.State, %struct.State* %0, i32 0, i32 6
  %7 = getelementptr inbounds %struct.GPR, %struct.GPR* %6, i32 0, i32 7
  %8 = getelementptr inbounds %struct.Reg, %struct.Reg* %7, i32 0, i32 0
  %EDX = bitcast %union.anon* %8 to i32*
  %9 = getelementptr inbounds %struct.State, %struct.State* %0, i32 0, i32 6
  %10 = getelementptr inbounds %struct.GPR, %struct.GPR* %9, i32 0, i32 7
  %11 = getelementptr inbounds %struct.Reg, %struct.Reg* %10, i32 0, i32 0
  %RDX = bitcast %union.anon* %11 to i64*
  %12 = load i64, i64* %RDX
  %13 = load i32, i32* %EDX
  %14 = zext i32 %13 to i64
  %15 = load i64, i64* %PC
  %16 = add i64 %15, 2
  store i64 %16, i64* %PC
  %17 = call %struct.Memory* @_ZN12_GLOBAL__N_1L3XORI3RnWImE2RnIjES4_EEP6MemoryS6_R5StateT_T0_T1_(%struct.Memory* %2, %struct.State* %0, i64* %RDX, i64 %12, i64 %14)
  ret %struct.Memory* %17
}


define %struct.Memory* @routine_movl__edx___r10d(%struct.State*  dereferenceable(3376), i64, %struct.Memory* ) #19 {
block_400488:
  %3 = getelementptr inbounds %struct.State, %struct.State* %0, i32 0, i32 6
  %4 = getelementptr inbounds %struct.GPR, %struct.GPR* %3, i32 0, i32 33
  %5 = getelementptr inbounds %struct.Reg, %struct.Reg* %4, i32 0, i32 0
  %PC = bitcast %union.anon* %5 to i64*
  %6 = getelementptr inbounds %struct.State, %struct.State* %0, i32 0, i32 6
  %7 = getelementptr inbounds %struct.GPR, %struct.GPR* %6, i32 0, i32 7
  %8 = getelementptr inbounds %struct.Reg, %struct.Reg* %7, i32 0, i32 0
  %EDX = bitcast %union.anon* %8 to i32*
  %9 = getelementptr inbounds %struct.State, %struct.State* %0, i32 0, i32 6
  %10 = getelementptr inbounds %struct.GPR, %struct.GPR* %9, i32 0, i32 21
  %11 = getelementptr inbounds %struct.Reg, %struct.Reg* %10, i32 0, i32 0
  %R10D = bitcast %union.anon* %11 to i32*
  %12 = bitcast i32* %R10D to i64*
  %13 = load i32, i32* %EDX
  %14 = zext i32 %13 to i64
  %15 = load i64, i64* %PC
  %16 = add i64 %15, 3
  store i64 %16, i64* %PC
  %17 = call %struct.Memory* @_ZN12_GLOBAL__N_1L3MOVI3RnWImE2RnIjEEEP6MemoryS6_R5StateT_T0_(%struct.Memory* %2, %struct.State* %0, i64* %12, i64 %14)
  ret %struct.Memory* %17
}






define %struct.Memory* @routine_movq__0x0____rsp_(%struct.State*  dereferenceable(3376), i64, %struct.Memory* ) #19 {
block_400488:
  %3 = getelementptr inbounds %struct.State, %struct.State* %0, i32 0, i32 6
  %4 = getelementptr inbounds %struct.GPR, %struct.GPR* %3, i32 0, i32 33
  %5 = getelementptr inbounds %struct.Reg, %struct.Reg* %4, i32 0, i32 0
  %PC = bitcast %union.anon* %5 to i64*
  %6 = getelementptr inbounds %struct.State, %struct.State* %0, i32 0, i32 6
  %7 = getelementptr inbounds %struct.GPR, %struct.GPR* %6, i32 0, i32 13
  %8 = getelementptr inbounds %struct.Reg, %struct.Reg* %7, i32 0, i32 0
  %RSP = bitcast %union.anon* %8 to i64*
  %9 = load i64, i64* %RSP
  %10 = load i64, i64* %PC
  %11 = add i64 %10, 8
  store i64 %11, i64* %PC
  %12 = call %struct.Memory* @_ZN12_GLOBAL__N_1L3MOVI3MnWImE2InImEEEP6MemoryS6_R5StateT_T0_(%struct.Memory* %2, %struct.State* %0, i64 %9, i64 0)
  ret %struct.Memory* %12
}


define %struct.Memory* @routine_movq__r10__MINUS0x30__rbp_(%struct.State*  dereferenceable(3376), i64, %struct.Memory* ) #19 {
block_400488:
  %3 = getelementptr inbounds %struct.State, %struct.State* %0, i32 0, i32 6
  %4 = getelementptr inbounds %struct.GPR, %struct.GPR* %3, i32 0, i32 33
  %5 = getelementptr inbounds %struct.Reg, %struct.Reg* %4, i32 0, i32 0
  %PC = bitcast %union.anon* %5 to i64*
  %6 = getelementptr inbounds %struct.State, %struct.State* %0, i32 0, i32 6
  %7 = getelementptr inbounds %struct.GPR, %struct.GPR* %6, i32 0, i32 15
  %8 = getelementptr inbounds %struct.Reg, %struct.Reg* %7, i32 0, i32 0
  %RBP = bitcast %union.anon* %8 to i64*
  %9 = getelementptr inbounds %struct.State, %struct.State* %0, i32 0, i32 6
  %10 = getelementptr inbounds %struct.GPR, %struct.GPR* %9, i32 0, i32 21
  %11 = getelementptr inbounds %struct.Reg, %struct.Reg* %10, i32 0, i32 0
  %R10 = bitcast %union.anon* %11 to i64*
  %12 = load i64, i64* %RBP
  %13 = sub i64 %12, 48
  %14 = load i64, i64* %R10
  %15 = load i64, i64* %PC
  %16 = add i64 %15, 4
  store i64 %16, i64* %PC
  %17 = call %struct.Memory* @_ZN12_GLOBAL__N_1L3MOVI3MnWImE2RnImEEEP6MemoryS6_R5StateT_T0_(%struct.Memory* %2, %struct.State* %0, i64 %13, i64 %14)
  ret %struct.Memory* %17
}






define %struct.Memory* @routine_movl__ecx___edi(%struct.State*  dereferenceable(3376), i64, %struct.Memory* ) #19 {
block_400488:
  %3 = getelementptr inbounds %struct.State, %struct.State* %0, i32 0, i32 6
  %4 = getelementptr inbounds %struct.GPR, %struct.GPR* %3, i32 0, i32 33
  %5 = getelementptr inbounds %struct.Reg, %struct.Reg* %4, i32 0, i32 0
  %PC = bitcast %union.anon* %5 to i64*
  %6 = getelementptr inbounds %struct.State, %struct.State* %0, i32 0, i32 6
  %7 = getelementptr inbounds %struct.GPR, %struct.GPR* %6, i32 0, i32 5
  %8 = getelementptr inbounds %struct.Reg, %struct.Reg* %7, i32 0, i32 0
  %ECX = bitcast %union.anon* %8 to i32*
  %9 = getelementptr inbounds %struct.State, %struct.State* %0, i32 0, i32 6
  %10 = getelementptr inbounds %struct.GPR, %struct.GPR* %9, i32 0, i32 11
  %11 = getelementptr inbounds %struct.Reg, %struct.Reg* %10, i32 0, i32 0
  %RDI = bitcast %union.anon* %11 to i64*
  %12 = load i32, i32* %ECX
  %13 = zext i32 %12 to i64
  %14 = load i64, i64* %PC
  %15 = add i64 %14, 2
  store i64 %15, i64* %PC
  %16 = call %struct.Memory* @_ZN12_GLOBAL__N_1L3MOVI3RnWImE2RnIjEEEP6MemoryS6_R5StateT_T0_(%struct.Memory* %2, %struct.State* %0, i64* %RDI, i64 %13)
  ret %struct.Memory* %16
}


define %struct.Memory* @routine_movl__0x5___esi(%struct.State*  dereferenceable(3376), i64, %struct.Memory* ) #19 {
block_400488:
  %3 = getelementptr inbounds %struct.State, %struct.State* %0, i32 0, i32 6
  %4 = getelementptr inbounds %struct.GPR, %struct.GPR* %3, i32 0, i32 33
  %5 = getelementptr inbounds %struct.Reg, %struct.Reg* %4, i32 0, i32 0
  %PC = bitcast %union.anon* %5 to i64*
  %6 = getelementptr inbounds %struct.State, %struct.State* %0, i32 0, i32 6
  %7 = getelementptr inbounds %struct.GPR, %struct.GPR* %6, i32 0, i32 9
  %8 = getelementptr inbounds %struct.Reg, %struct.Reg* %7, i32 0, i32 0
  %RSI = bitcast %union.anon* %8 to i64*
  %9 = load i64, i64* %PC
  %10 = add i64 %9, 5
  store i64 %10, i64* %PC
  %11 = call %struct.Memory* @_ZN12_GLOBAL__N_1L3MOVI3RnWImE2InIjEEEP6MemoryS6_R5StateT_T0_(%struct.Memory* %2, %struct.State* %0, i64* %RSI, i64 5)
  ret %struct.Memory* %11
}


define %struct.Memory* @routine_movl__0x3e8___edx(%struct.State*  dereferenceable(3376), i64, %struct.Memory* ) #19 {
block_400488:
  %3 = getelementptr inbounds %struct.State, %struct.State* %0, i32 0, i32 6
  %4 = getelementptr inbounds %struct.GPR, %struct.GPR* %3, i32 0, i32 33
  %5 = getelementptr inbounds %struct.Reg, %struct.Reg* %4, i32 0, i32 0
  %PC = bitcast %union.anon* %5 to i64*
  %6 = getelementptr inbounds %struct.State, %struct.State* %0, i32 0, i32 6
  %7 = getelementptr inbounds %struct.GPR, %struct.GPR* %6, i32 0, i32 7
  %8 = getelementptr inbounds %struct.Reg, %struct.Reg* %7, i32 0, i32 0
  %RDX = bitcast %union.anon* %8 to i64*
  %9 = load i64, i64* %PC
  %10 = add i64 %9, 5
  store i64 %10, i64* %PC
  %11 = call %struct.Memory* @_ZN12_GLOBAL__N_1L3MOVI3RnWImE2InIjEEEP6MemoryS6_R5StateT_T0_(%struct.Memory* %2, %struct.State* %0, i64* %RDX, i64 1000)
  ret %struct.Memory* %11
}


























define %struct.Memory* @routine_movl__0x7d0___esi(%struct.State*  dereferenceable(3376), i64, %struct.Memory* ) #19 {
block_400488:
  %3 = getelementptr inbounds %struct.State, %struct.State* %0, i32 0, i32 6
  %4 = getelementptr inbounds %struct.GPR, %struct.GPR* %3, i32 0, i32 33
  %5 = getelementptr inbounds %struct.Reg, %struct.Reg* %4, i32 0, i32 0
  %PC = bitcast %union.anon* %5 to i64*
  %6 = getelementptr inbounds %struct.State, %struct.State* %0, i32 0, i32 6
  %7 = getelementptr inbounds %struct.GPR, %struct.GPR* %6, i32 0, i32 9
  %8 = getelementptr inbounds %struct.Reg, %struct.Reg* %7, i32 0, i32 0
  %RSI = bitcast %union.anon* %8 to i64*
  %9 = load i64, i64* %PC
  %10 = add i64 %9, 5
  store i64 %10, i64* %PC
  %11 = call %struct.Memory* @_ZN12_GLOBAL__N_1L3MOVI3RnWImE2InIjEEEP6MemoryS6_R5StateT_T0_(%struct.Memory* %2, %struct.State* %0, i64* %RSI, i64 2000)
  ret %struct.Memory* %11
}


define %struct.Memory* @routine_movq__0x400cd0___r8(%struct.State*  dereferenceable(3376), i64, %struct.Memory* ) #19 {
block_400488:
  %3 = getelementptr inbounds %struct.State, %struct.State* %0, i32 0, i32 6
  %4 = getelementptr inbounds %struct.GPR, %struct.GPR* %3, i32 0, i32 33
  %5 = getelementptr inbounds %struct.Reg, %struct.Reg* %4, i32 0, i32 0
  %PC = bitcast %union.anon* %5 to i64*
  %6 = getelementptr inbounds %struct.State, %struct.State* %0, i32 0, i32 6
  %7 = getelementptr inbounds %struct.GPR, %struct.GPR* %6, i32 0, i32 17
  %8 = getelementptr inbounds %struct.Reg, %struct.Reg* %7, i32 0, i32 0
  %R8 = bitcast %union.anon* %8 to i64*
  %9 = load i64, i64* %PC
  %10 = add i64 %9, 10
  store i64 %10, i64* %PC
  %11 = call %struct.Memory* @_ZN12_GLOBAL__N_1L3MOVI3RnWImE2InImEEEP6MemoryS6_R5StateT_T0_(%struct.Memory* %2, %struct.State* %0, i64* %R8, i64 4197584)
  ret %struct.Memory* %11
}




















define %struct.Memory* @routine_movl__0x6___esi(%struct.State*  dereferenceable(3376), i64, %struct.Memory* ) #19 {
block_400488:
  %3 = getelementptr inbounds %struct.State, %struct.State* %0, i32 0, i32 6
  %4 = getelementptr inbounds %struct.GPR, %struct.GPR* %3, i32 0, i32 33
  %5 = getelementptr inbounds %struct.Reg, %struct.Reg* %4, i32 0, i32 0
  %PC = bitcast %union.anon* %5 to i64*
  %6 = getelementptr inbounds %struct.State, %struct.State* %0, i32 0, i32 6
  %7 = getelementptr inbounds %struct.GPR, %struct.GPR* %6, i32 0, i32 9
  %8 = getelementptr inbounds %struct.Reg, %struct.Reg* %7, i32 0, i32 0
  %RSI = bitcast %union.anon* %8 to i64*
  %9 = load i64, i64* %PC
  %10 = add i64 %9, 5
  store i64 %10, i64* %PC
  %11 = call %struct.Memory* @_ZN12_GLOBAL__N_1L3MOVI3RnWImE2InIjEEEP6MemoryS6_R5StateT_T0_(%struct.Memory* %2, %struct.State* %0, i64* %RSI, i64 6)
  ret %struct.Memory* %11
}


























define %struct.Memory* @routine_movl__0x4___edi(%struct.State*  dereferenceable(3376), i64, %struct.Memory* ) #19 {
block_400488:
  %3 = getelementptr inbounds %struct.State, %struct.State* %0, i32 0, i32 6
  %4 = getelementptr inbounds %struct.GPR, %struct.GPR* %3, i32 0, i32 33
  %5 = getelementptr inbounds %struct.Reg, %struct.Reg* %4, i32 0, i32 0
  %PC = bitcast %union.anon* %5 to i64*
  %6 = getelementptr inbounds %struct.State, %struct.State* %0, i32 0, i32 6
  %7 = getelementptr inbounds %struct.GPR, %struct.GPR* %6, i32 0, i32 11
  %8 = getelementptr inbounds %struct.Reg, %struct.Reg* %7, i32 0, i32 0
  %RDI = bitcast %union.anon* %8 to i64*
  %9 = load i64, i64* %PC
  %10 = add i64 %9, 5
  store i64 %10, i64* %PC
  %11 = call %struct.Memory* @_ZN12_GLOBAL__N_1L3MOVI3RnWImE2InIjEEEP6MemoryS6_R5StateT_T0_(%struct.Memory* %2, %struct.State* %0, i64* %RDI, i64 4)
  ret %struct.Memory* %11
}


define %struct.Memory* @routine_movl__0xbb8___esi(%struct.State*  dereferenceable(3376), i64, %struct.Memory* ) #19 {
block_400488:
  %3 = getelementptr inbounds %struct.State, %struct.State* %0, i32 0, i32 6
  %4 = getelementptr inbounds %struct.GPR, %struct.GPR* %3, i32 0, i32 33
  %5 = getelementptr inbounds %struct.Reg, %struct.Reg* %4, i32 0, i32 0
  %PC = bitcast %union.anon* %5 to i64*
  %6 = getelementptr inbounds %struct.State, %struct.State* %0, i32 0, i32 6
  %7 = getelementptr inbounds %struct.GPR, %struct.GPR* %6, i32 0, i32 9
  %8 = getelementptr inbounds %struct.Reg, %struct.Reg* %7, i32 0, i32 0
  %RSI = bitcast %union.anon* %8 to i64*
  %9 = load i64, i64* %PC
  %10 = add i64 %9, 5
  store i64 %10, i64* %PC
  %11 = call %struct.Memory* @_ZN12_GLOBAL__N_1L3MOVI3RnWImE2InIjEEEP6MemoryS6_R5StateT_T0_(%struct.Memory* %2, %struct.State* %0, i64* %RSI, i64 3000)
  ret %struct.Memory* %11
}


















define %struct.Memory* @routine_movl__0x5___edi(%struct.State*  dereferenceable(3376), i64, %struct.Memory* ) #19 {
block_400488:
  %3 = getelementptr inbounds %struct.State, %struct.State* %0, i32 0, i32 6
  %4 = getelementptr inbounds %struct.GPR, %struct.GPR* %3, i32 0, i32 33
  %5 = getelementptr inbounds %struct.Reg, %struct.Reg* %4, i32 0, i32 0
  %PC = bitcast %union.anon* %5 to i64*
  %6 = getelementptr inbounds %struct.State, %struct.State* %0, i32 0, i32 6
  %7 = getelementptr inbounds %struct.GPR, %struct.GPR* %6, i32 0, i32 11
  %8 = getelementptr inbounds %struct.Reg, %struct.Reg* %7, i32 0, i32 0
  %RDI = bitcast %union.anon* %8 to i64*
  %9 = load i64, i64* %PC
  %10 = add i64 %9, 5
  store i64 %10, i64* %PC
  %11 = call %struct.Memory* @_ZN12_GLOBAL__N_1L3MOVI3RnWImE2InIjEEEP6MemoryS6_R5StateT_T0_(%struct.Memory* %2, %struct.State* %0, i64* %RDI, i64 5)
  ret %struct.Memory* %11
}


define %struct.Memory* @routine_movl__0xfa0___esi(%struct.State*  dereferenceable(3376), i64, %struct.Memory* ) #19 {
block_400488:
  %3 = getelementptr inbounds %struct.State, %struct.State* %0, i32 0, i32 6
  %4 = getelementptr inbounds %struct.GPR, %struct.GPR* %3, i32 0, i32 33
  %5 = getelementptr inbounds %struct.Reg, %struct.Reg* %4, i32 0, i32 0
  %PC = bitcast %union.anon* %5 to i64*
  %6 = getelementptr inbounds %struct.State, %struct.State* %0, i32 0, i32 6
  %7 = getelementptr inbounds %struct.GPR, %struct.GPR* %6, i32 0, i32 9
  %8 = getelementptr inbounds %struct.Reg, %struct.Reg* %7, i32 0, i32 0
  %RSI = bitcast %union.anon* %8 to i64*
  %9 = load i64, i64* %PC
  %10 = add i64 %9, 5
  store i64 %10, i64* %PC
  %11 = call %struct.Memory* @_ZN12_GLOBAL__N_1L3MOVI3RnWImE2InIjEEEP6MemoryS6_R5StateT_T0_(%struct.Memory* %2, %struct.State* %0, i64* %RSI, i64 4000)
  ret %struct.Memory* %11
}


define %struct.Memory* @routine_movl__0x2___ecx(%struct.State*  dereferenceable(3376), i64, %struct.Memory* ) #19 {
block_400488:
  %3 = getelementptr inbounds %struct.State, %struct.State* %0, i32 0, i32 6
  %4 = getelementptr inbounds %struct.GPR, %struct.GPR* %3, i32 0, i32 33
  %5 = getelementptr inbounds %struct.Reg, %struct.Reg* %4, i32 0, i32 0
  %PC = bitcast %union.anon* %5 to i64*
  %6 = getelementptr inbounds %struct.State, %struct.State* %0, i32 0, i32 6
  %7 = getelementptr inbounds %struct.GPR, %struct.GPR* %6, i32 0, i32 5
  %8 = getelementptr inbounds %struct.Reg, %struct.Reg* %7, i32 0, i32 0
  %RCX = bitcast %union.anon* %8 to i64*
  %9 = load i64, i64* %PC
  %10 = add i64 %9, 5
  store i64 %10, i64* %PC
  %11 = call %struct.Memory* @_ZN12_GLOBAL__N_1L3MOVI3RnWImE2InIjEEEP6MemoryS6_R5StateT_T0_(%struct.Memory* %2, %struct.State* %0, i64* %RCX, i64 2)
  ret %struct.Memory* %11
}


define %struct.Memory* @routine_movq__0x400df0___r8(%struct.State*  dereferenceable(3376), i64, %struct.Memory* ) #19 {
block_400488:
  %3 = getelementptr inbounds %struct.State, %struct.State* %0, i32 0, i32 6
  %4 = getelementptr inbounds %struct.GPR, %struct.GPR* %3, i32 0, i32 33
  %5 = getelementptr inbounds %struct.Reg, %struct.Reg* %4, i32 0, i32 0
  %PC = bitcast %union.anon* %5 to i64*
  %6 = getelementptr inbounds %struct.State, %struct.State* %0, i32 0, i32 6
  %7 = getelementptr inbounds %struct.GPR, %struct.GPR* %6, i32 0, i32 17
  %8 = getelementptr inbounds %struct.Reg, %struct.Reg* %7, i32 0, i32 0
  %R8 = bitcast %union.anon* %8 to i64*
  %9 = load i64, i64* %PC
  %10 = add i64 %9, 10
  store i64 %10, i64* %PC
  %11 = call %struct.Memory* @_ZN12_GLOBAL__N_1L3MOVI3RnWImE2InImEEEP6MemoryS6_R5StateT_T0_(%struct.Memory* %2, %struct.State* %0, i64* %R8, i64 4197872)
  ret %struct.Memory* %11
}


define %struct.Memory* @routine_xorl__r11d___r11d(%struct.State*  dereferenceable(3376), i64, %struct.Memory* ) #19 {
block_400488:
  %3 = getelementptr inbounds %struct.State, %struct.State* %0, i32 0, i32 6
  %4 = getelementptr inbounds %struct.GPR, %struct.GPR* %3, i32 0, i32 33
  %5 = getelementptr inbounds %struct.Reg, %struct.Reg* %4, i32 0, i32 0
  %PC = bitcast %union.anon* %5 to i64*
  %6 = getelementptr inbounds %struct.State, %struct.State* %0, i32 0, i32 6
  %7 = getelementptr inbounds %struct.GPR, %struct.GPR* %6, i32 0, i32 23
  %8 = getelementptr inbounds %struct.Reg, %struct.Reg* %7, i32 0, i32 0
  %R11D = bitcast %union.anon* %8 to i32*
  %9 = bitcast i32* %R11D to i64*
  %10 = load i32, i32* %R11D
  %11 = zext i32 %10 to i64
  %12 = load i32, i32* %R11D
  %13 = zext i32 %12 to i64
  %14 = load i64, i64* %PC
  %15 = add i64 %14, 3
  store i64 %15, i64* %PC
  %16 = call %struct.Memory* @_ZN12_GLOBAL__N_1L3XORI3RnWImE2RnIjES4_EEP6MemoryS6_R5StateT_T0_T1_(%struct.Memory* %2, %struct.State* %0, i64* %9, i64 %11, i64 %13)
  ret %struct.Memory* %16
}


define %struct.Memory* @routine_movl__r11d___r9d(%struct.State*  dereferenceable(3376), i64, %struct.Memory* ) #19 {
block_400488:
  %3 = getelementptr inbounds %struct.State, %struct.State* %0, i32 0, i32 6
  %4 = getelementptr inbounds %struct.GPR, %struct.GPR* %3, i32 0, i32 33
  %5 = getelementptr inbounds %struct.Reg, %struct.Reg* %4, i32 0, i32 0
  %PC = bitcast %union.anon* %5 to i64*
  %6 = getelementptr inbounds %struct.State, %struct.State* %0, i32 0, i32 6
  %7 = getelementptr inbounds %struct.GPR, %struct.GPR* %6, i32 0, i32 19
  %8 = getelementptr inbounds %struct.Reg, %struct.Reg* %7, i32 0, i32 0
  %R9D = bitcast %union.anon* %8 to i32*
  %9 = getelementptr inbounds %struct.State, %struct.State* %0, i32 0, i32 6
  %10 = getelementptr inbounds %struct.GPR, %struct.GPR* %9, i32 0, i32 23
  %11 = getelementptr inbounds %struct.Reg, %struct.Reg* %10, i32 0, i32 0
  %R11D = bitcast %union.anon* %11 to i32*
  %12 = bitcast i32* %R9D to i64*
  %13 = load i32, i32* %R11D
  %14 = zext i32 %13 to i64
  %15 = load i64, i64* %PC
  %16 = add i64 %15, 3
  store i64 %16, i64* %PC
  %17 = call %struct.Memory* @_ZN12_GLOBAL__N_1L3MOVI3RnWImE2RnIjEEEP6MemoryS6_R5StateT_T0_(%struct.Memory* %2, %struct.State* %0, i64* %12, i64 %14)
  ret %struct.Memory* %17
}










define %struct.Memory* @routine_movl__0x6___edi(%struct.State*  dereferenceable(3376), i64, %struct.Memory* ) #19 {
block_400488:
  %3 = getelementptr inbounds %struct.State, %struct.State* %0, i32 0, i32 6
  %4 = getelementptr inbounds %struct.GPR, %struct.GPR* %3, i32 0, i32 33
  %5 = getelementptr inbounds %struct.Reg, %struct.Reg* %4, i32 0, i32 0
  %PC = bitcast %union.anon* %5 to i64*
  %6 = getelementptr inbounds %struct.State, %struct.State* %0, i32 0, i32 6
  %7 = getelementptr inbounds %struct.GPR, %struct.GPR* %6, i32 0, i32 11
  %8 = getelementptr inbounds %struct.Reg, %struct.Reg* %7, i32 0, i32 0
  %RDI = bitcast %union.anon* %8 to i64*
  %9 = load i64, i64* %PC
  %10 = add i64 %9, 5
  store i64 %10, i64* %PC
  %11 = call %struct.Memory* @_ZN12_GLOBAL__N_1L3MOVI3RnWImE2InIjEEEP6MemoryS6_R5StateT_T0_(%struct.Memory* %2, %struct.State* %0, i64* %RDI, i64 6)
  ret %struct.Memory* %11
}


define %struct.Memory* @routine_movl__0x1388___esi(%struct.State*  dereferenceable(3376), i64, %struct.Memory* ) #19 {
block_400488:
  %3 = getelementptr inbounds %struct.State, %struct.State* %0, i32 0, i32 6
  %4 = getelementptr inbounds %struct.GPR, %struct.GPR* %3, i32 0, i32 33
  %5 = getelementptr inbounds %struct.Reg, %struct.Reg* %4, i32 0, i32 0
  %PC = bitcast %union.anon* %5 to i64*
  %6 = getelementptr inbounds %struct.State, %struct.State* %0, i32 0, i32 6
  %7 = getelementptr inbounds %struct.GPR, %struct.GPR* %6, i32 0, i32 9
  %8 = getelementptr inbounds %struct.Reg, %struct.Reg* %7, i32 0, i32 0
  %RSI = bitcast %union.anon* %8 to i64*
  %9 = load i64, i64* %PC
  %10 = add i64 %9, 5
  store i64 %10, i64* %PC
  %11 = call %struct.Memory* @_ZN12_GLOBAL__N_1L3MOVI3RnWImE2InIjEEEP6MemoryS6_R5StateT_T0_(%struct.Memory* %2, %struct.State* %0, i64* %RSI, i64 5000)
  ret %struct.Memory* %11
}
















define %struct.Memory* @routine_movq__0x40126d___rdi(%struct.State*  dereferenceable(3376), i64, %struct.Memory* ) #19 {
block_400488:
  %3 = getelementptr inbounds %struct.State, %struct.State* %0, i32 0, i32 6
  %4 = getelementptr inbounds %struct.GPR, %struct.GPR* %3, i32 0, i32 33
  %5 = getelementptr inbounds %struct.Reg, %struct.Reg* %4, i32 0, i32 0
  %PC = bitcast %union.anon* %5 to i64*
  %6 = getelementptr inbounds %struct.State, %struct.State* %0, i32 0, i32 6
  %7 = getelementptr inbounds %struct.GPR, %struct.GPR* %6, i32 0, i32 11
  %8 = getelementptr inbounds %struct.Reg, %struct.Reg* %7, i32 0, i32 0
  %RDI = bitcast %union.anon* %8 to i64*
  %9 = load i64, i64* %PC
  %10 = add i64 %9, 10
  store i64 %10, i64* %PC
  %11 = call %struct.Memory* @_ZN12_GLOBAL__N_1L3MOVI3RnWImE2InImEEEP6MemoryS6_R5StateT_T0_(%struct.Memory* %2, %struct.State* %0, i64* %RDI, i64 4199021)
  ret %struct.Memory* %11
}


define %struct.Memory* @routine_movq_0x6020c8___rax(%struct.State*  dereferenceable(3376), i64, %struct.Memory* ) #19 {
block_400488:
  %3 = getelementptr inbounds %struct.State, %struct.State* %0, i32 0, i32 6
  %4 = getelementptr inbounds %struct.GPR, %struct.GPR* %3, i32 0, i32 33
  %5 = getelementptr inbounds %struct.Reg, %struct.Reg* %4, i32 0, i32 0
  %PC = bitcast %union.anon* %5 to i64*
  %6 = getelementptr inbounds %struct.State, %struct.State* %0, i32 0, i32 6
  %7 = getelementptr inbounds %struct.GPR, %struct.GPR* %6, i32 0, i32 1
  %8 = getelementptr inbounds %struct.Reg, %struct.Reg* %7, i32 0, i32 0
  %RAX = bitcast %union.anon* %8 to i64*
  %9 = load i64, i64* %PC
  %10 = add i64 %9, 8
  store i64 %10, i64* %PC
  %11 = call %struct.Memory* @_ZN12_GLOBAL__N_1L3MOVI3RnWImE2MnImEEEP6MemoryS6_R5StateT_T0_(%struct.Memory* %2, %struct.State* %0, i64* %RAX, i64 6299848)
  ret %struct.Memory* %11
}


define %struct.Memory* @routine_movq__rax__0x6020e0(%struct.State*  dereferenceable(3376), i64, %struct.Memory* ) #19 {
block_400488:
  %3 = getelementptr inbounds %struct.State, %struct.State* %0, i32 0, i32 6
  %4 = getelementptr inbounds %struct.GPR, %struct.GPR* %3, i32 0, i32 33
  %5 = getelementptr inbounds %struct.Reg, %struct.Reg* %4, i32 0, i32 0
  %PC = bitcast %union.anon* %5 to i64*
  %6 = getelementptr inbounds %struct.State, %struct.State* %0, i32 0, i32 6
  %7 = getelementptr inbounds %struct.GPR, %struct.GPR* %6, i32 0, i32 1
  %8 = getelementptr inbounds %struct.Reg, %struct.Reg* %7, i32 0, i32 0
  %RAX = bitcast %union.anon* %8 to i64*
  %9 = load i64, i64* %RAX
  %10 = load i64, i64* %PC
  %11 = add i64 %10, 8
  store i64 %11, i64* %PC
  %12 = call %struct.Memory* @_ZN12_GLOBAL__N_1L3MOVI3MnWImE2RnImEEEP6MemoryS6_R5StateT_T0_(%struct.Memory* %2, %struct.State* %0, i64 6299872, i64 %9)
  ret %struct.Memory* %12
}


define %struct.Memory* @routine_movl__0x0__0x6020d4(%struct.State*  dereferenceable(3376), i64, %struct.Memory* ) #19 {
block_400488:
  %3 = getelementptr inbounds %struct.State, %struct.State* %0, i32 0, i32 6
  %4 = getelementptr inbounds %struct.GPR, %struct.GPR* %3, i32 0, i32 33
  %5 = getelementptr inbounds %struct.Reg, %struct.Reg* %4, i32 0, i32 0
  %PC = bitcast %union.anon* %5 to i64*
  %6 = load i64, i64* %PC
  %7 = add i64 %6, 11
  store i64 %7, i64* %PC
  %8 = call %struct.Memory* @_ZN12_GLOBAL__N_1L3MOVI3MnWIjE2InIjEEEP6MemoryS6_R5StateT_T0_(%struct.Memory* %2, %struct.State* %0, i64 6299860, i64 0)
  ret %struct.Memory* %8
}


define %struct.Memory* @routine_movl__0x0__0x6020d0(%struct.State*  dereferenceable(3376), i64, %struct.Memory* ) #19 {
block_400488:
  %3 = getelementptr inbounds %struct.State, %struct.State* %0, i32 0, i32 6
  %4 = getelementptr inbounds %struct.GPR, %struct.GPR* %3, i32 0, i32 33
  %5 = getelementptr inbounds %struct.Reg, %struct.Reg* %4, i32 0, i32 0
  %PC = bitcast %union.anon* %5 to i64*
  %6 = load i64, i64* %PC
  %7 = add i64 %6, 11
  store i64 %7, i64* %PC
  %8 = call %struct.Memory* @_ZN12_GLOBAL__N_1L3MOVI3MnWIjE2InIjEEEP6MemoryS6_R5StateT_T0_(%struct.Memory* %2, %struct.State* %0, i64 6299856, i64 0)
  ret %struct.Memory* %8
}






define %struct.Memory* @routine_movl__0x0__0x60205c(%struct.State*  dereferenceable(3376), i64, %struct.Memory* ) #19 {
block_400488:
  %3 = getelementptr inbounds %struct.State, %struct.State* %0, i32 0, i32 6
  %4 = getelementptr inbounds %struct.GPR, %struct.GPR* %3, i32 0, i32 33
  %5 = getelementptr inbounds %struct.Reg, %struct.Reg* %4, i32 0, i32 0
  %PC = bitcast %union.anon* %5 to i64*
  %6 = load i64, i64* %PC
  %7 = add i64 %6, 11
  store i64 %7, i64* %PC
  %8 = call %struct.Memory* @_ZN12_GLOBAL__N_1L3MOVI3MnWIjE2InIjEEEP6MemoryS6_R5StateT_T0_(%struct.Memory* %2, %struct.State* %0, i64 6299740, i64 0)
  ret %struct.Memory* %8
}


define %struct.Memory* @routine_movl__0x0__0x6020d8(%struct.State*  dereferenceable(3376), i64, %struct.Memory* ) #19 {
block_400488:
  %3 = getelementptr inbounds %struct.State, %struct.State* %0, i32 0, i32 6
  %4 = getelementptr inbounds %struct.GPR, %struct.GPR* %3, i32 0, i32 33
  %5 = getelementptr inbounds %struct.Reg, %struct.Reg* %4, i32 0, i32 0
  %PC = bitcast %union.anon* %5 to i64*
  %6 = load i64, i64* %PC
  %7 = add i64 %6, 11
  store i64 %7, i64* %PC
  %8 = call %struct.Memory* @_ZN12_GLOBAL__N_1L3MOVI3MnWIjE2InIjEEEP6MemoryS6_R5StateT_T0_(%struct.Memory* %2, %struct.State* %0, i64 6299864, i64 0)
  ret %struct.Memory* %8
}


define %struct.Memory* @routine_movl__eax__MINUS0x34__rbp_(%struct.State*  dereferenceable(3376), i64, %struct.Memory* ) #19 {
block_400488:
  %3 = getelementptr inbounds %struct.State, %struct.State* %0, i32 0, i32 6
  %4 = getelementptr inbounds %struct.GPR, %struct.GPR* %3, i32 0, i32 33
  %5 = getelementptr inbounds %struct.Reg, %struct.Reg* %4, i32 0, i32 0
  %PC = bitcast %union.anon* %5 to i64*
  %6 = getelementptr inbounds %struct.State, %struct.State* %0, i32 0, i32 6
  %7 = getelementptr inbounds %struct.GPR, %struct.GPR* %6, i32 0, i32 1
  %8 = getelementptr inbounds %struct.Reg, %struct.Reg* %7, i32 0, i32 0
  %EAX = bitcast %union.anon* %8 to i32*
  %9 = getelementptr inbounds %struct.State, %struct.State* %0, i32 0, i32 6
  %10 = getelementptr inbounds %struct.GPR, %struct.GPR* %9, i32 0, i32 15
  %11 = getelementptr inbounds %struct.Reg, %struct.Reg* %10, i32 0, i32 0
  %RBP = bitcast %union.anon* %11 to i64*
  %12 = load i64, i64* %RBP
  %13 = sub i64 %12, 52
  %14 = load i32, i32* %EAX
  %15 = zext i32 %14 to i64
  %16 = load i64, i64* %PC
  %17 = add i64 %16, 3
  store i64 %17, i64* %PC
  %18 = call %struct.Memory* @_ZN12_GLOBAL__N_1L3MOVI3MnWIjE2RnIjEEEP6MemoryS6_R5StateT_T0_(%struct.Memory* %2, %struct.State* %0, i64 %13, i64 %15)
  ret %struct.Memory* %18
}


define %struct.Memory* @routine_callq_.schedule(%struct.State*  dereferenceable(3376), i64, %struct.Memory*, i64 %rel_off1, i64 %rel_off2, i64 %rel_off3) {
block_400488:
  %3 = getelementptr inbounds %struct.State, %struct.State* %0, i32 0, i32 6
  %4 = getelementptr inbounds %struct.GPR, %struct.GPR* %3, i32 0, i32 33
  %5 = getelementptr inbounds %struct.Reg, %struct.Reg* %4, i32 0, i32 0
  %PC = bitcast %union.anon* %5 to i64*
  %6 = load i64, i64* %PC
  %7 = add i64 %6, %rel_off1
  %8 = load i64, i64* %PC
  %9 = add i64 %8, %rel_off2
  %10 = load i64, i64* %PC
  %11 = add i64 %10, %rel_off3
  store i64 %11, i64* %PC
  %12 = call %struct.Memory* @_ZN12_GLOBAL__N_1L4CALLI2InImEEEP6MemoryS4_R5StateT_S2_(%struct.Memory* %2, %struct.State* %0, i64 %7, i64 %9)
  ret %struct.Memory* %12
}


define %struct.Memory* @routine_movq__0x401277___rdi(%struct.State*  dereferenceable(3376), i64, %struct.Memory* ) #19 {
block_400488:
  %3 = getelementptr inbounds %struct.State, %struct.State* %0, i32 0, i32 6
  %4 = getelementptr inbounds %struct.GPR, %struct.GPR* %3, i32 0, i32 33
  %5 = getelementptr inbounds %struct.Reg, %struct.Reg* %4, i32 0, i32 0
  %PC = bitcast %union.anon* %5 to i64*
  %6 = getelementptr inbounds %struct.State, %struct.State* %0, i32 0, i32 6
  %7 = getelementptr inbounds %struct.GPR, %struct.GPR* %6, i32 0, i32 11
  %8 = getelementptr inbounds %struct.Reg, %struct.Reg* %7, i32 0, i32 0
  %RDI = bitcast %union.anon* %8 to i64*
  %9 = load i64, i64* %PC
  %10 = add i64 %9, 10
  store i64 %10, i64* %PC
  %11 = call %struct.Memory* @_ZN12_GLOBAL__N_1L3MOVI3RnWImE2InImEEEP6MemoryS6_R5StateT_T0_(%struct.Memory* %2, %struct.State* %0, i64* %RDI, i64 4199031)
  ret %struct.Memory* %11
}






define %struct.Memory* @routine_movq__0x401281___rdi(%struct.State*  dereferenceable(3376), i64, %struct.Memory* ) #19 {
block_400488:
  %3 = getelementptr inbounds %struct.State, %struct.State* %0, i32 0, i32 6
  %4 = getelementptr inbounds %struct.GPR, %struct.GPR* %3, i32 0, i32 33
  %5 = getelementptr inbounds %struct.Reg, %struct.Reg* %4, i32 0, i32 0
  %PC = bitcast %union.anon* %5 to i64*
  %6 = getelementptr inbounds %struct.State, %struct.State* %0, i32 0, i32 6
  %7 = getelementptr inbounds %struct.GPR, %struct.GPR* %6, i32 0, i32 11
  %8 = getelementptr inbounds %struct.Reg, %struct.Reg* %7, i32 0, i32 0
  %RDI = bitcast %union.anon* %8 to i64*
  %9 = load i64, i64* %PC
  %10 = add i64 %9, 10
  store i64 %10, i64* %PC
  %11 = call %struct.Memory* @_ZN12_GLOBAL__N_1L3MOVI3RnWImE2InImEEEP6MemoryS6_R5StateT_T0_(%struct.Memory* %2, %struct.State* %0, i64* %RDI, i64 4199041)
  ret %struct.Memory* %11
}

define internal %struct.Memory* @_ZN12_GLOBAL__N_1L3MOVI3RnWImE2MnIjEEEP6MemoryS6_R5StateT_T0_(%struct.Memory* returned, %struct.State* nocapture readnone dereferenceable(3376), i64* nocapture, i64) #0 {
  %5 = inttoptr i64 %3 to i32*
  %6 = load i32, i32* %5
  %7 = zext i32 %6 to i64
  store i64 %7, i64* %2, align 8
  ret %struct.Memory* %0
}

define %struct.Memory* @routine_movl_0x6020d0___esi(%struct.State*  dereferenceable(3376), i64, %struct.Memory* ) #19 {
block_400488:
  %3 = getelementptr inbounds %struct.State, %struct.State* %0, i32 0, i32 6
  %4 = getelementptr inbounds %struct.GPR, %struct.GPR* %3, i32 0, i32 33
  %5 = getelementptr inbounds %struct.Reg, %struct.Reg* %4, i32 0, i32 0
  %PC = bitcast %union.anon* %5 to i64*
  %6 = getelementptr inbounds %struct.State, %struct.State* %0, i32 0, i32 6
  %7 = getelementptr inbounds %struct.GPR, %struct.GPR* %6, i32 0, i32 9
  %8 = getelementptr inbounds %struct.Reg, %struct.Reg* %7, i32 0, i32 0
  %RSI = bitcast %union.anon* %8 to i64*
  %9 = load i64, i64* %PC
  %10 = add i64 %9, 7
  store i64 %10, i64* %PC
  %11 = call %struct.Memory* @_ZN12_GLOBAL__N_1L3MOVI3RnWImE2MnIjEEEP6MemoryS6_R5StateT_T0_(%struct.Memory* %2, %struct.State* %0, i64* %RSI, i64 6299856)
  ret %struct.Memory* %11
}


define %struct.Memory* @routine_movl_0x6020d4___edx(%struct.State*  dereferenceable(3376), i64, %struct.Memory* ) #19 {
block_400488:
  %3 = getelementptr inbounds %struct.State, %struct.State* %0, i32 0, i32 6
  %4 = getelementptr inbounds %struct.GPR, %struct.GPR* %3, i32 0, i32 33
  %5 = getelementptr inbounds %struct.Reg, %struct.Reg* %4, i32 0, i32 0
  %PC = bitcast %union.anon* %5 to i64*
  %6 = getelementptr inbounds %struct.State, %struct.State* %0, i32 0, i32 6
  %7 = getelementptr inbounds %struct.GPR, %struct.GPR* %6, i32 0, i32 7
  %8 = getelementptr inbounds %struct.Reg, %struct.Reg* %7, i32 0, i32 0
  %RDX = bitcast %union.anon* %8 to i64*
  %9 = load i64, i64* %PC
  %10 = add i64 %9, 7
  store i64 %10, i64* %PC
  %11 = call %struct.Memory* @_ZN12_GLOBAL__N_1L3MOVI3RnWImE2MnIjEEEP6MemoryS6_R5StateT_T0_(%struct.Memory* %2, %struct.State* %0, i64* %RDX, i64 6299860)
  ret %struct.Memory* %11
}


define %struct.Memory* @routine_movl__eax__MINUS0x38__rbp_(%struct.State*  dereferenceable(3376), i64, %struct.Memory* ) #19 {
block_400488:
  %3 = getelementptr inbounds %struct.State, %struct.State* %0, i32 0, i32 6
  %4 = getelementptr inbounds %struct.GPR, %struct.GPR* %3, i32 0, i32 33
  %5 = getelementptr inbounds %struct.Reg, %struct.Reg* %4, i32 0, i32 0
  %PC = bitcast %union.anon* %5 to i64*
  %6 = getelementptr inbounds %struct.State, %struct.State* %0, i32 0, i32 6
  %7 = getelementptr inbounds %struct.GPR, %struct.GPR* %6, i32 0, i32 1
  %8 = getelementptr inbounds %struct.Reg, %struct.Reg* %7, i32 0, i32 0
  %EAX = bitcast %union.anon* %8 to i32*
  %9 = getelementptr inbounds %struct.State, %struct.State* %0, i32 0, i32 6
  %10 = getelementptr inbounds %struct.GPR, %struct.GPR* %9, i32 0, i32 15
  %11 = getelementptr inbounds %struct.Reg, %struct.Reg* %10, i32 0, i32 0
  %RBP = bitcast %union.anon* %11 to i64*
  %12 = load i64, i64* %RBP
  %13 = sub i64 %12, 56
  %14 = load i32, i32* %EAX
  %15 = zext i32 %14 to i64
  %16 = load i64, i64* %PC
  %17 = add i64 %16, 3
  store i64 %17, i64* %PC
  %18 = call %struct.Memory* @_ZN12_GLOBAL__N_1L3MOVI3MnWIjE2RnIjEEEP6MemoryS6_R5StateT_T0_(%struct.Memory* %2, %struct.State* %0, i64 %13, i64 %15)
  ret %struct.Memory* %18
}






define %struct.Memory* @routine_movq__0x4012a2___rdi(%struct.State*  dereferenceable(3376), i64, %struct.Memory* ) #19 {
block_400488:
  %3 = getelementptr inbounds %struct.State, %struct.State* %0, i32 0, i32 6
  %4 = getelementptr inbounds %struct.GPR, %struct.GPR* %3, i32 0, i32 33
  %5 = getelementptr inbounds %struct.Reg, %struct.Reg* %4, i32 0, i32 0
  %PC = bitcast %union.anon* %5 to i64*
  %6 = getelementptr inbounds %struct.State, %struct.State* %0, i32 0, i32 6
  %7 = getelementptr inbounds %struct.GPR, %struct.GPR* %6, i32 0, i32 11
  %8 = getelementptr inbounds %struct.Reg, %struct.Reg* %7, i32 0, i32 0
  %RDI = bitcast %union.anon* %8 to i64*
  %9 = load i64, i64* %PC
  %10 = add i64 %9, 10
  store i64 %10, i64* %PC
  %11 = call %struct.Memory* @_ZN12_GLOBAL__N_1L3MOVI3RnWImE2InImEEEP6MemoryS6_R5StateT_T0_(%struct.Memory* %2, %struct.State* %0, i64* %RDI, i64 4199074)
  ret %struct.Memory* %11
}


define %struct.Memory* @routine_movl__eax__MINUS0x3c__rbp_(%struct.State*  dereferenceable(3376), i64, %struct.Memory* ) #19 {
block_400488:
  %3 = getelementptr inbounds %struct.State, %struct.State* %0, i32 0, i32 6
  %4 = getelementptr inbounds %struct.GPR, %struct.GPR* %3, i32 0, i32 33
  %5 = getelementptr inbounds %struct.Reg, %struct.Reg* %4, i32 0, i32 0
  %PC = bitcast %union.anon* %5 to i64*
  %6 = getelementptr inbounds %struct.State, %struct.State* %0, i32 0, i32 6
  %7 = getelementptr inbounds %struct.GPR, %struct.GPR* %6, i32 0, i32 1
  %8 = getelementptr inbounds %struct.Reg, %struct.Reg* %7, i32 0, i32 0
  %EAX = bitcast %union.anon* %8 to i32*
  %9 = getelementptr inbounds %struct.State, %struct.State* %0, i32 0, i32 6
  %10 = getelementptr inbounds %struct.GPR, %struct.GPR* %9, i32 0, i32 15
  %11 = getelementptr inbounds %struct.Reg, %struct.Reg* %10, i32 0, i32 0
  %RBP = bitcast %union.anon* %11 to i64*
  %12 = load i64, i64* %RBP
  %13 = sub i64 %12, 60
  %14 = load i32, i32* %EAX
  %15 = zext i32 %14 to i64
  %16 = load i64, i64* %PC
  %17 = add i64 %16, 3
  store i64 %17, i64* %PC
  %18 = call %struct.Memory* @_ZN12_GLOBAL__N_1L3MOVI3MnWIjE2RnIjEEEP6MemoryS6_R5StateT_T0_(%struct.Memory* %2, %struct.State* %0, i64 %13, i64 %15)
  ret %struct.Memory* %18
}





define internal %struct.Memory* @_ZN12_GLOBAL__N_1L3CMPI2MnIjE2InIjEEEP6MemoryS6_R5StateT_T0_(%struct.Memory*, %struct.State* nocapture dereferenceable(3376), i64, i64) #0 {
  %5 = inttoptr i64 %2 to i32*
  %6 = load i32, i32* %5
  %7 = trunc i64 %3 to i32
  %8 = sub i32 %6, %7
  %9 = icmp ult i32 %6, %7
  %10 = zext i1 %9 to i8
  %11 = getelementptr inbounds %struct.State, %struct.State* %1, i64 0, i32 2, i32 1
  store i8 %10, i8* %11, align 1
  %12 = and i32 %8, 255
  %13 = tail call i32 @llvm.ctpop.i32(i32 %12) #22
  %14 = trunc i32 %13 to i8
  %15 = and i8 %14, 1
  %16 = xor i8 %15, 1
  %17 = getelementptr inbounds %struct.State, %struct.State* %1, i64 0, i32 2, i32 3
  store i8 %16, i8* %17, align 1
  %18 = xor i32 %6, %7
  %19 = xor i32 %18, %8
  %20 = lshr i32 %19, 4
  %21 = trunc i32 %20 to i8
  %22 = and i8 %21, 1
  %23 = getelementptr inbounds %struct.State, %struct.State* %1, i64 0, i32 2, i32 5
  store i8 %22, i8* %23, align 1
  %24 = icmp eq i32 %8, 0
  %25 = zext i1 %24 to i8
  %26 = getelementptr inbounds %struct.State, %struct.State* %1, i64 0, i32 2, i32 7
  store i8 %25, i8* %26, align 1
  %27 = lshr i32 %8, 31
  %28 = trunc i32 %27 to i8
  %29 = getelementptr inbounds %struct.State, %struct.State* %1, i64 0, i32 2, i32 9
  store i8 %28, i8* %29, align 1
  %30 = lshr i32 %6, 31
  %31 = lshr i32 %7, 31
  %32 = xor i32 %30, %31
  %33 = xor i32 %27, %30
  %34 = add   i32 %33, %32
  %35 = icmp eq i32 %34, 2
  %36 = zext i1 %35 to i8
  %37 = getelementptr inbounds %struct.State, %struct.State* %1, i64 0, i32 2, i32 13
  store i8 %36, i8* %37, align 1
  ret %struct.Memory* %0
}

define %struct.Memory* @routine_cmpl__0x162fa96__0x6020d0(%struct.State*  dereferenceable(3376), i64, %struct.Memory* ) #19 {
block_400488:
  %3 = getelementptr inbounds %struct.State, %struct.State* %0, i32 0, i32 6
  %4 = getelementptr inbounds %struct.GPR, %struct.GPR* %3, i32 0, i32 33
  %5 = getelementptr inbounds %struct.Reg, %struct.Reg* %4, i32 0, i32 0
  %PC = bitcast %union.anon* %5 to i64*
  %6 = load i64, i64* %PC
  %7 = add i64 %6, 11
  store i64 %7, i64* %PC
  %8 = call %struct.Memory* @_ZN12_GLOBAL__N_1L3CMPI2MnIjE2InIjEEEP6MemoryS6_R5StateT_T0_(%struct.Memory* %2, %struct.State* %0, i64 6299856, i64 23263894)
  ret %struct.Memory* %8
}


define %struct.Memory* @routine_movl__eax__MINUS0x40__rbp_(%struct.State*  dereferenceable(3376), i64, %struct.Memory* ) #19 {
block_400488:
  %3 = getelementptr inbounds %struct.State, %struct.State* %0, i32 0, i32 6
  %4 = getelementptr inbounds %struct.GPR, %struct.GPR* %3, i32 0, i32 33
  %5 = getelementptr inbounds %struct.Reg, %struct.Reg* %4, i32 0, i32 0
  %PC = bitcast %union.anon* %5 to i64*
  %6 = getelementptr inbounds %struct.State, %struct.State* %0, i32 0, i32 6
  %7 = getelementptr inbounds %struct.GPR, %struct.GPR* %6, i32 0, i32 1
  %8 = getelementptr inbounds %struct.Reg, %struct.Reg* %7, i32 0, i32 0
  %EAX = bitcast %union.anon* %8 to i32*
  %9 = getelementptr inbounds %struct.State, %struct.State* %0, i32 0, i32 6
  %10 = getelementptr inbounds %struct.GPR, %struct.GPR* %9, i32 0, i32 15
  %11 = getelementptr inbounds %struct.Reg, %struct.Reg* %10, i32 0, i32 0
  %RBP = bitcast %union.anon* %11 to i64*
  %12 = load i64, i64* %RBP
  %13 = sub i64 %12, 64
  %14 = load i32, i32* %EAX
  %15 = zext i32 %14 to i64
  %16 = load i64, i64* %PC
  %17 = add i64 %16, 3
  store i64 %17, i64* %PC
  %18 = call %struct.Memory* @_ZN12_GLOBAL__N_1L3MOVI3MnWIjE2RnIjEEEP6MemoryS6_R5StateT_T0_(%struct.Memory* %2, %struct.State* %0, i64 %13, i64 %15)
  ret %struct.Memory* %18
}

define internal %struct.Memory* @_ZN12_GLOBAL__N_1L3JNZEP6MemoryR5State3RnWIhE2InImES7_(%struct.Memory* readnone returned, %struct.State* nocapture dereferenceable(3376), i8* nocapture, i64, i64) #2 {
  %6 = getelementptr inbounds %struct.State, %struct.State* %1, i64 0, i32 2, i32 7
  %7 = load i8, i8* %6, align 1
  %8 = icmp eq i8 %7, 0
  %9 = zext i1 %8 to i8
  store i8 %9, i8* %2, align 1
  %10 = getelementptr inbounds %struct.State, %struct.State* %1, i64 0, i32 6, i32 33, i32 0, i32 0
  %11 = select i1 %8, i64 %3, i64 %4
  store i64 %11, i64* %10, align 8
  ret %struct.Memory* %0
}

define %struct.Memory* @routine_jne_.L_401183(%struct.State*  dereferenceable(3376), i64, %struct.Memory*, i8* %BRANCH_TAKEN, i64 %rel_off1, i64 %rel_off2, i64 %rel_off3) {
block_400488:
  %3 = getelementptr inbounds %struct.State, %struct.State* %0, i32 0, i32 6
  %4 = getelementptr inbounds %struct.GPR, %struct.GPR* %3, i32 0, i32 33
  %5 = getelementptr inbounds %struct.Reg, %struct.Reg* %4, i32 0, i32 0
  %PC = bitcast %union.anon* %5 to i64*
  %6 = load i64, i64* %PC
  %7 = add i64 %6, %rel_off1
  %8 = load i64, i64* %PC
  %9 = add i64 %8, %rel_off2
  %10 = load i64, i64* %PC
  %11 = add i64 %10, %rel_off3
  store i64 %11, i64* %PC
  %12 = call %struct.Memory* @_ZN12_GLOBAL__N_1L3JNZEP6MemoryR5State3RnWIhE2InImES7_(%struct.Memory* %2, %struct.State* %0, i8* %BRANCH_TAKEN, i64 %7, i64 %9)
  ret %struct.Memory* %12
}


define %struct.Memory* @routine_cmpl__0x8dfdd5__0x6020d4(%struct.State*  dereferenceable(3376), i64, %struct.Memory* ) #19 {
block_400488:
  %3 = getelementptr inbounds %struct.State, %struct.State* %0, i32 0, i32 6
  %4 = getelementptr inbounds %struct.GPR, %struct.GPR* %3, i32 0, i32 33
  %5 = getelementptr inbounds %struct.Reg, %struct.Reg* %4, i32 0, i32 0
  %PC = bitcast %union.anon* %5 to i64*
  %6 = load i64, i64* %PC
  %7 = add i64 %6, 11
  store i64 %7, i64* %PC
  %8 = call %struct.Memory* @_ZN12_GLOBAL__N_1L3CMPI2MnIjE2InIjEEEP6MemoryS6_R5StateT_T0_(%struct.Memory* %2, %struct.State* %0, i64 6299860, i64 9305557)
  ret %struct.Memory* %8
}




define %struct.Memory* @routine_movq__0x4012b7___rdi(%struct.State*  dereferenceable(3376), i64, %struct.Memory* ) #19 {
block_400488:
  %3 = getelementptr inbounds %struct.State, %struct.State* %0, i32 0, i32 6
  %4 = getelementptr inbounds %struct.GPR, %struct.GPR* %3, i32 0, i32 33
  %5 = getelementptr inbounds %struct.Reg, %struct.Reg* %4, i32 0, i32 0
  %PC = bitcast %union.anon* %5 to i64*
  %6 = getelementptr inbounds %struct.State, %struct.State* %0, i32 0, i32 6
  %7 = getelementptr inbounds %struct.GPR, %struct.GPR* %6, i32 0, i32 11
  %8 = getelementptr inbounds %struct.Reg, %struct.Reg* %7, i32 0, i32 0
  %RDI = bitcast %union.anon* %8 to i64*
  %9 = load i64, i64* %PC
  %10 = add i64 %9, 10
  store i64 %10, i64* %PC
  %11 = call %struct.Memory* @_ZN12_GLOBAL__N_1L3MOVI3RnWImE2InImEEEP6MemoryS6_R5StateT_T0_(%struct.Memory* %2, %struct.State* %0, i64* %RDI, i64 4199095)
  ret %struct.Memory* %11
}






define %struct.Memory* @routine_movl__0x0__MINUS0x14__rbp_(%struct.State*  dereferenceable(3376), i64, %struct.Memory* ) #19 {
block_400488:
  %3 = getelementptr inbounds %struct.State, %struct.State* %0, i32 0, i32 6
  %4 = getelementptr inbounds %struct.GPR, %struct.GPR* %3, i32 0, i32 33
  %5 = getelementptr inbounds %struct.Reg, %struct.Reg* %4, i32 0, i32 0
  %PC = bitcast %union.anon* %5 to i64*
  %6 = getelementptr inbounds %struct.State, %struct.State* %0, i32 0, i32 6
  %7 = getelementptr inbounds %struct.GPR, %struct.GPR* %6, i32 0, i32 15
  %8 = getelementptr inbounds %struct.Reg, %struct.Reg* %7, i32 0, i32 0
  %RBP = bitcast %union.anon* %8 to i64*
  %9 = load i64, i64* %RBP
  %10 = sub i64 %9, 20
  %11 = load i64, i64* %PC
  %12 = add i64 %11, 7
  store i64 %12, i64* %PC
  %13 = call %struct.Memory* @_ZN12_GLOBAL__N_1L3MOVI3MnWIjE2InIjEEEP6MemoryS6_R5StateT_T0_(%struct.Memory* %2, %struct.State* %0, i64 %10, i64 0)
  ret %struct.Memory* %13
}


define %struct.Memory* @routine_movl__eax__MINUS0x44__rbp_(%struct.State*  dereferenceable(3376), i64, %struct.Memory* ) #19 {
block_400488:
  %3 = getelementptr inbounds %struct.State, %struct.State* %0, i32 0, i32 6
  %4 = getelementptr inbounds %struct.GPR, %struct.GPR* %3, i32 0, i32 33
  %5 = getelementptr inbounds %struct.Reg, %struct.Reg* %4, i32 0, i32 0
  %PC = bitcast %union.anon* %5 to i64*
  %6 = getelementptr inbounds %struct.State, %struct.State* %0, i32 0, i32 6
  %7 = getelementptr inbounds %struct.GPR, %struct.GPR* %6, i32 0, i32 1
  %8 = getelementptr inbounds %struct.Reg, %struct.Reg* %7, i32 0, i32 0
  %EAX = bitcast %union.anon* %8 to i32*
  %9 = getelementptr inbounds %struct.State, %struct.State* %0, i32 0, i32 6
  %10 = getelementptr inbounds %struct.GPR, %struct.GPR* %9, i32 0, i32 15
  %11 = getelementptr inbounds %struct.Reg, %struct.Reg* %10, i32 0, i32 0
  %RBP = bitcast %union.anon* %11 to i64*
  %12 = load i64, i64* %RBP
  %13 = sub i64 %12, 68
  %14 = load i32, i32* %EAX
  %15 = zext i32 %14 to i64
  %16 = load i64, i64* %PC
  %17 = add i64 %16, 3
  store i64 %17, i64* %PC
  %18 = call %struct.Memory* @_ZN12_GLOBAL__N_1L3MOVI3MnWIjE2RnIjEEEP6MemoryS6_R5StateT_T0_(%struct.Memory* %2, %struct.State* %0, i64 %13, i64 %15)
  ret %struct.Memory* %18
}

define internal %struct.Memory* @_ZN12_GLOBAL__N_1L3JMPI2InImEEEP6MemoryS4_R5StateT_(%struct.Memory* readnone returned, %struct.State* nocapture dereferenceable(3376), i64) #2 {
  %4 = getelementptr inbounds %struct.State, %struct.State* %1, i64 0, i32 6, i32 33, i32 0, i32 0
  store i64 %2, i64* %4, align 8
  ret %struct.Memory* %0
}

define %struct.Memory* @routine_jmpq_.L_40119e(%struct.State*  dereferenceable(3376), i64, %struct.Memory*, i64 %rel_off1, i64 %rel_off2) {
block_400488:
  %3 = getelementptr inbounds %struct.State, %struct.State* %0, i32 0, i32 6
  %4 = getelementptr inbounds %struct.GPR, %struct.GPR* %3, i32 0, i32 33
  %5 = getelementptr inbounds %struct.Reg, %struct.Reg* %4, i32 0, i32 0
  %PC = bitcast %union.anon* %5 to i64*
  %6 = load i64, i64* %PC
  %7 = add i64 %6, %rel_off1
  %8 = load i64, i64* %PC
  %9 = add i64 %8, %rel_off2
  store i64 %9, i64* %PC
  %10 = call %struct.Memory* @_ZN12_GLOBAL__N_1L3JMPI2InImEEEP6MemoryS4_R5StateT_(%struct.Memory* %2, %struct.State* %0, i64 %7)
  ret %struct.Memory* %10
}


define %struct.Memory* @routine_movq__0x4012b5___rdi(%struct.State*  dereferenceable(3376), i64, %struct.Memory* ) #19 {
block_400488:
  %3 = getelementptr inbounds %struct.State, %struct.State* %0, i32 0, i32 6
  %4 = getelementptr inbounds %struct.GPR, %struct.GPR* %3, i32 0, i32 33
  %5 = getelementptr inbounds %struct.Reg, %struct.Reg* %4, i32 0, i32 0
  %PC = bitcast %union.anon* %5 to i64*
  %6 = getelementptr inbounds %struct.State, %struct.State* %0, i32 0, i32 6
  %7 = getelementptr inbounds %struct.GPR, %struct.GPR* %6, i32 0, i32 11
  %8 = getelementptr inbounds %struct.Reg, %struct.Reg* %7, i32 0, i32 0
  %RDI = bitcast %union.anon* %8 to i64*
  %9 = load i64, i64* %PC
  %10 = add i64 %9, 10
  store i64 %10, i64* %PC
  %11 = call %struct.Memory* @_ZN12_GLOBAL__N_1L3MOVI3RnWImE2InImEEEP6MemoryS6_R5StateT_T0_(%struct.Memory* %2, %struct.State* %0, i64* %RDI, i64 4199093)
  ret %struct.Memory* %11
}






define %struct.Memory* @routine_movl__0x1__MINUS0x14__rbp_(%struct.State*  dereferenceable(3376), i64, %struct.Memory* ) #19 {
block_400488:
  %3 = getelementptr inbounds %struct.State, %struct.State* %0, i32 0, i32 6
  %4 = getelementptr inbounds %struct.GPR, %struct.GPR* %3, i32 0, i32 33
  %5 = getelementptr inbounds %struct.Reg, %struct.Reg* %4, i32 0, i32 0
  %PC = bitcast %union.anon* %5 to i64*
  %6 = getelementptr inbounds %struct.State, %struct.State* %0, i32 0, i32 6
  %7 = getelementptr inbounds %struct.GPR, %struct.GPR* %6, i32 0, i32 15
  %8 = getelementptr inbounds %struct.Reg, %struct.Reg* %7, i32 0, i32 0
  %RBP = bitcast %union.anon* %8 to i64*
  %9 = load i64, i64* %RBP
  %10 = sub i64 %9, 20
  %11 = load i64, i64* %PC
  %12 = add i64 %11, 7
  store i64 %12, i64* %PC
  %13 = call %struct.Memory* @_ZN12_GLOBAL__N_1L3MOVI3MnWIjE2InIjEEEP6MemoryS6_R5StateT_T0_(%struct.Memory* %2, %struct.State* %0, i64 %10, i64 1)
  ret %struct.Memory* %13
}


define %struct.Memory* @routine_movl__eax__MINUS0x48__rbp_(%struct.State*  dereferenceable(3376), i64, %struct.Memory* ) #19 {
block_400488:
  %3 = getelementptr inbounds %struct.State, %struct.State* %0, i32 0, i32 6
  %4 = getelementptr inbounds %struct.GPR, %struct.GPR* %3, i32 0, i32 33
  %5 = getelementptr inbounds %struct.Reg, %struct.Reg* %4, i32 0, i32 0
  %PC = bitcast %union.anon* %5 to i64*
  %6 = getelementptr inbounds %struct.State, %struct.State* %0, i32 0, i32 6
  %7 = getelementptr inbounds %struct.GPR, %struct.GPR* %6, i32 0, i32 1
  %8 = getelementptr inbounds %struct.Reg, %struct.Reg* %7, i32 0, i32 0
  %EAX = bitcast %union.anon* %8 to i32*
  %9 = getelementptr inbounds %struct.State, %struct.State* %0, i32 0, i32 6
  %10 = getelementptr inbounds %struct.GPR, %struct.GPR* %9, i32 0, i32 15
  %11 = getelementptr inbounds %struct.Reg, %struct.Reg* %10, i32 0, i32 0
  %RBP = bitcast %union.anon* %11 to i64*
  %12 = load i64, i64* %RBP
  %13 = sub i64 %12, 72
  %14 = load i32, i32* %EAX
  %15 = zext i32 %14 to i64
  %16 = load i64, i64* %PC
  %17 = add i64 %16, 3
  store i64 %17, i64* %PC
  %18 = call %struct.Memory* @_ZN12_GLOBAL__N_1L3MOVI3MnWIjE2RnIjEEEP6MemoryS6_R5StateT_T0_(%struct.Memory* %2, %struct.State* %0, i64 %13, i64 %15)
  ret %struct.Memory* %18
}


define %struct.Memory* @routine_movq__0x4012bf___rdi(%struct.State*  dereferenceable(3376), i64, %struct.Memory* ) #19 {
block_400488:
  %3 = getelementptr inbounds %struct.State, %struct.State* %0, i32 0, i32 6
  %4 = getelementptr inbounds %struct.GPR, %struct.GPR* %3, i32 0, i32 33
  %5 = getelementptr inbounds %struct.Reg, %struct.Reg* %4, i32 0, i32 0
  %PC = bitcast %union.anon* %5 to i64*
  %6 = getelementptr inbounds %struct.State, %struct.State* %0, i32 0, i32 6
  %7 = getelementptr inbounds %struct.GPR, %struct.GPR* %6, i32 0, i32 11
  %8 = getelementptr inbounds %struct.Reg, %struct.Reg* %7, i32 0, i32 0
  %RDI = bitcast %union.anon* %8 to i64*
  %9 = load i64, i64* %PC
  %10 = add i64 %9, 10
  store i64 %10, i64* %PC
  %11 = call %struct.Memory* @_ZN12_GLOBAL__N_1L3MOVI3RnWImE2InImEEEP6MemoryS6_R5StateT_T0_(%struct.Memory* %2, %struct.State* %0, i64* %RDI, i64 4199103)
  ret %struct.Memory* %11
}






define %struct.Memory* @routine_movl_MINUS0x14__rbp____ecx(%struct.State*  dereferenceable(3376), i64, %struct.Memory* ) #19 {
block_400488:
  %3 = getelementptr inbounds %struct.State, %struct.State* %0, i32 0, i32 6
  %4 = getelementptr inbounds %struct.GPR, %struct.GPR* %3, i32 0, i32 33
  %5 = getelementptr inbounds %struct.Reg, %struct.Reg* %4, i32 0, i32 0
  %PC = bitcast %union.anon* %5 to i64*
  %6 = getelementptr inbounds %struct.State, %struct.State* %0, i32 0, i32 6
  %7 = getelementptr inbounds %struct.GPR, %struct.GPR* %6, i32 0, i32 5
  %8 = getelementptr inbounds %struct.Reg, %struct.Reg* %7, i32 0, i32 0
  %RCX = bitcast %union.anon* %8 to i64*
  %9 = getelementptr inbounds %struct.State, %struct.State* %0, i32 0, i32 6
  %10 = getelementptr inbounds %struct.GPR, %struct.GPR* %9, i32 0, i32 15
  %11 = getelementptr inbounds %struct.Reg, %struct.Reg* %10, i32 0, i32 0
  %RBP = bitcast %union.anon* %11 to i64*
  %12 = load i64, i64* %RBP
  %13 = sub i64 %12, 20
  %14 = load i64, i64* %PC
  %15 = add i64 %14, 3
  store i64 %15, i64* %PC
  %16 = call %struct.Memory* @_ZN12_GLOBAL__N_1L3MOVI3RnWImE2MnIjEEEP6MemoryS6_R5StateT_T0_(%struct.Memory* %2, %struct.State* %0, i64* %RCX, i64 %13)
  ret %struct.Memory* %16
}


define %struct.Memory* @routine_movl__eax__MINUS0x4c__rbp_(%struct.State*  dereferenceable(3376), i64, %struct.Memory* ) #19 {
block_400488:
  %3 = getelementptr inbounds %struct.State, %struct.State* %0, i32 0, i32 6
  %4 = getelementptr inbounds %struct.GPR, %struct.GPR* %3, i32 0, i32 33
  %5 = getelementptr inbounds %struct.Reg, %struct.Reg* %4, i32 0, i32 0
  %PC = bitcast %union.anon* %5 to i64*
  %6 = getelementptr inbounds %struct.State, %struct.State* %0, i32 0, i32 6
  %7 = getelementptr inbounds %struct.GPR, %struct.GPR* %6, i32 0, i32 1
  %8 = getelementptr inbounds %struct.Reg, %struct.Reg* %7, i32 0, i32 0
  %EAX = bitcast %union.anon* %8 to i32*
  %9 = getelementptr inbounds %struct.State, %struct.State* %0, i32 0, i32 6
  %10 = getelementptr inbounds %struct.GPR, %struct.GPR* %9, i32 0, i32 15
  %11 = getelementptr inbounds %struct.Reg, %struct.Reg* %10, i32 0, i32 0
  %RBP = bitcast %union.anon* %11 to i64*
  %12 = load i64, i64* %RBP
  %13 = sub i64 %12, 76
  %14 = load i32, i32* %EAX
  %15 = zext i32 %14 to i64
  %16 = load i64, i64* %PC
  %17 = add i64 %16, 3
  store i64 %17, i64* %PC
  %18 = call %struct.Memory* @_ZN12_GLOBAL__N_1L3MOVI3MnWIjE2RnIjEEEP6MemoryS6_R5StateT_T0_(%struct.Memory* %2, %struct.State* %0, i64 %13, i64 %15)
  ret %struct.Memory* %18
}


define %struct.Memory* @routine_movl__ecx___eax(%struct.State*  dereferenceable(3376), i64, %struct.Memory* ) #19 {
block_400488:
  %3 = getelementptr inbounds %struct.State, %struct.State* %0, i32 0, i32 6
  %4 = getelementptr inbounds %struct.GPR, %struct.GPR* %3, i32 0, i32 33
  %5 = getelementptr inbounds %struct.Reg, %struct.Reg* %4, i32 0, i32 0
  %PC = bitcast %union.anon* %5 to i64*
  %6 = getelementptr inbounds %struct.State, %struct.State* %0, i32 0, i32 6
  %7 = getelementptr inbounds %struct.GPR, %struct.GPR* %6, i32 0, i32 5
  %8 = getelementptr inbounds %struct.Reg, %struct.Reg* %7, i32 0, i32 0
  %ECX = bitcast %union.anon* %8 to i32*
  %9 = getelementptr inbounds %struct.State, %struct.State* %0, i32 0, i32 6
  %10 = getelementptr inbounds %struct.GPR, %struct.GPR* %9, i32 0, i32 1
  %11 = getelementptr inbounds %struct.Reg, %struct.Reg* %10, i32 0, i32 0
  %RAX = bitcast %union.anon* %11 to i64*
  %12 = load i32, i32* %ECX
  %13 = zext i32 %12 to i64
  %14 = load i64, i64* %PC
  %15 = add i64 %14, 2
  store i64 %15, i64* %PC
  %16 = call %struct.Memory* @_ZN12_GLOBAL__N_1L3MOVI3RnWImE2RnIjEEEP6MemoryS6_R5StateT_T0_(%struct.Memory* %2, %struct.State* %0, i64* %RAX, i64 %13)
  ret %struct.Memory* %16
}

define internal %struct.Memory* @_ZN12_GLOBAL__N_1L3ADDI3RnWImE2RnImE2InImEEEP6MemoryS8_R5StateT_T0_T1_(%struct.Memory* readnone returned, %struct.State* nocapture dereferenceable(3376), i64* nocapture, i64, i64) #0 {
  %6 = add i64 %4, %3
  store i64 %6, i64* %2, align 8
  %7 = icmp ult i64 %6, %3
  %8 = icmp ult i64 %6, %4
  %9 = or i1 %7, %8
  %10 = zext i1 %9 to i8
  %11 = getelementptr inbounds %struct.State, %struct.State* %1, i64 0, i32 2, i32 1
  store i8 %10, i8* %11, align 1
  %12 = trunc i64 %6 to i32
  %13 = and i32 %12, 255
  %14 = tail call i32 @llvm.ctpop.i32(i32 %13) #22
  %15 = trunc i32 %14 to i8
  %16 = and i8 %15, 1
  %17 = xor i8 %16, 1
  %18 = getelementptr inbounds %struct.State, %struct.State* %1, i64 0, i32 2, i32 3
  store i8 %17, i8* %18, align 1
  %19 = xor i64 %4, %3
  %20 = xor i64 %19, %6
  %21 = lshr i64 %20, 4
  %22 = trunc i64 %21 to i8
  %23 = and i8 %22, 1
  %24 = getelementptr inbounds %struct.State, %struct.State* %1, i64 0, i32 2, i32 5
  store i8 %23, i8* %24, align 1
  %25 = icmp eq i64 %6, 0
  %26 = zext i1 %25 to i8
  %27 = getelementptr inbounds %struct.State, %struct.State* %1, i64 0, i32 2, i32 7
  store i8 %26, i8* %27, align 1
  %28 = lshr i64 %6, 63
  %29 = trunc i64 %28 to i8
  %30 = getelementptr inbounds %struct.State, %struct.State* %1, i64 0, i32 2, i32 9
  store i8 %29, i8* %30, align 1
  %31 = lshr i64 %3, 63
  %32 = lshr i64 %4, 63
  %33 = xor i64 %28, %31
  %34 = xor i64 %28, %32
  %35 = add   i64 %33, %34
  %36 = icmp eq i64 %35, 2
  %37 = zext i1 %36 to i8
  %38 = getelementptr inbounds %struct.State, %struct.State* %1, i64 0, i32 2, i32 13
  store i8 %37, i8* %38, align 1
  ret %struct.Memory* %0
}

define %struct.Memory* @routine_addq__0x60___rsp(%struct.State*  dereferenceable(3376), i64, %struct.Memory* ) #19 {
block_400488:
  %3 = getelementptr inbounds %struct.State, %struct.State* %0, i32 0, i32 6
  %4 = getelementptr inbounds %struct.GPR, %struct.GPR* %3, i32 0, i32 33
  %5 = getelementptr inbounds %struct.Reg, %struct.Reg* %4, i32 0, i32 0
  %PC = bitcast %union.anon* %5 to i64*
  %6 = getelementptr inbounds %struct.State, %struct.State* %0, i32 0, i32 6
  %7 = getelementptr inbounds %struct.GPR, %struct.GPR* %6, i32 0, i32 13
  %8 = getelementptr inbounds %struct.Reg, %struct.Reg* %7, i32 0, i32 0
  %RSP = bitcast %union.anon* %8 to i64*
  %9 = load i64, i64* %RSP
  %10 = load i64, i64* %PC
  %11 = add i64 %10, 4
  store i64 %11, i64* %PC
  %12 = call %struct.Memory* @_ZN12_GLOBAL__N_1L3ADDI3RnWImE2RnImE2InImEEEP6MemoryS8_R5StateT_T0_T1_(%struct.Memory* %2, %struct.State* %0, i64* %RSP, i64 %9, i64 96)
  ret %struct.Memory* %12
}

define internal %struct.Memory* @_ZN12_GLOBAL__N_1L3POPI3RnWImEEEP6MemoryS4_R5StateT_(%struct.Memory*, %struct.State* nocapture dereferenceable(3376), i64* nocapture) #0 {
  %4 = getelementptr inbounds %struct.State, %struct.State* %1, i64 0, i32 6, i32 13, i32 0, i32 0
  %5 = load i64, i64* %4, align 8
  %6 = add i64 %5, 8
  %7 = inttoptr i64 %5 to i64*
  %8 = load i64, i64* %7
  store i64 %8, i64* %2, align 8
  store i64 %6, i64* %4, align 8
  ret %struct.Memory* %0
}

define %struct.Memory* @routine_popq__rbp(%struct.State*  dereferenceable(3376), i64, %struct.Memory* ) #19 {
block_400488:
  %3 = getelementptr inbounds %struct.State, %struct.State* %0, i32 0, i32 6
  %4 = getelementptr inbounds %struct.GPR, %struct.GPR* %3, i32 0, i32 33
  %5 = getelementptr inbounds %struct.Reg, %struct.Reg* %4, i32 0, i32 0
  %PC = bitcast %union.anon* %5 to i64*
  %6 = getelementptr inbounds %struct.State, %struct.State* %0, i32 0, i32 6
  %7 = getelementptr inbounds %struct.GPR, %struct.GPR* %6, i32 0, i32 15
  %8 = getelementptr inbounds %struct.Reg, %struct.Reg* %7, i32 0, i32 0
  %RBP = bitcast %union.anon* %8 to i64*
  %9 = load i64, i64* %PC
  %10 = add i64 %9, 1
  store i64 %10, i64* %PC
  %11 = call %struct.Memory* @_ZN12_GLOBAL__N_1L3POPI3RnWImEEEP6MemoryS4_R5StateT_(%struct.Memory* %2, %struct.State* %0, i64* %RBP)
  ret %struct.Memory* %11
}

define internal %struct.Memory* @_ZN12_GLOBAL__N_1L3RETEP6MemoryR5State(%struct.Memory* returned, %struct.State* nocapture dereferenceable(3376)) #0 {
  %3 = getelementptr inbounds %struct.State, %struct.State* %1, i64 0, i32 6, i32 33, i32 0, i32 0
  %4 = getelementptr inbounds %struct.State, %struct.State* %1, i64 0, i32 6, i32 13, i32 0, i32 0
  %5 = load i64, i64* %4, align 8
  %6 = inttoptr i64 %5 to i64*
  %7 = load i64, i64* %6
  store i64 %7, i64* %3, align 8
  %8 = add i64 %5, 8
  store i64 %8, i64* %4, align 8
  ret %struct.Memory* %0
}

define %struct.Memory* @routine_retq(%struct.State*  dereferenceable(3376), i64, %struct.Memory* ) #19 {
block_400488:
  %3 = getelementptr inbounds %struct.State, %struct.State* %0, i32 0, i32 6
  %4 = getelementptr inbounds %struct.GPR, %struct.GPR* %3, i32 0, i32 33
  %5 = getelementptr inbounds %struct.Reg, %struct.Reg* %4, i32 0, i32 0
  %PC = bitcast %union.anon* %5 to i64*
  %6 = load i64, i64* %PC
  %7 = add i64 %6, 1
  store i64 %7, i64* %PC
  %8 = call %struct.Memory* @_ZN12_GLOBAL__N_1L3RETEP6MemoryR5State(%struct.Memory* %2, %struct.State* %0)
  ret %struct.Memory* %8
}

