; ModuleID = 'mcsema/test.proposed.inline.ll'
source_filename = "llvm-link"
target datalayout = "e-m:e-i64:64-f80:128-n8:16:32:64-S128"
target triple = "x86_64-pc-linux-gnu-elf"

%__bss_start_type = type <{ [8 x i8] }>
%struct.State = type { %struct.ArchState, [32 x %union.VectorReg], %struct.ArithFlags, %union.anon, %struct.Segments, %struct.AddressSpace, %struct.GPR, %struct.X87Stack, %struct.MMX, %struct.FPUStatusFlags, %union.anon, %union.FPU, %struct.SegmentCaches }
%struct.ArchState = type { i32, i32, %union.anon }
%union.VectorReg = type { %union.vec512_t }
%union.vec512_t = type { %struct.uint64v8_t }
%struct.uint64v8_t = type { [8 x i64] }
%struct.ArithFlags = type { i8, i8, i8, i8, i8, i8, i8, i8, i8, i8, i8, i8, i8, i8, i8, i8 }
%struct.Segments = type { i16, %union.SegmentSelector, i16, %union.SegmentSelector, i16, %union.SegmentSelector, i16, %union.SegmentSelector, i16, %union.SegmentSelector, i16, %union.SegmentSelector }
%union.SegmentSelector = type { i16 }
%struct.AddressSpace = type { i64, %struct.Reg, i64, %struct.Reg, i64, %struct.Reg, i64, %struct.Reg, i64, %struct.Reg, i64, %struct.Reg }
%struct.Reg = type { %union.anon }
%struct.GPR = type { i64, %struct.Reg, i64, %struct.Reg, i64, %struct.Reg, i64, %struct.Reg, i64, %struct.Reg, i64, %struct.Reg, i64, %struct.Reg, i64, %struct.Reg, i64, %struct.Reg, i64, %struct.Reg, i64, %struct.Reg, i64, %struct.Reg, i64, %struct.Reg, i64, %struct.Reg, i64, %struct.Reg, i64, %struct.Reg, i64, %struct.Reg }
%struct.X87Stack = type { [8 x %struct.anon.3] }
%struct.anon.3 = type { i64, double }
%struct.MMX = type { [8 x %struct.anon.4] }
%struct.anon.4 = type { i64, %union.vec64_t }
%union.vec64_t = type { %struct.uint64v1_t }
%struct.uint64v1_t = type { [1 x i64] }
%struct.FPUStatusFlags = type { i8, i8, i8, i8, i8, i8, i8, i8, i8, i8, i8, i8, i8, i8, i8, i8, i8, i8, i8, i8, [4 x i8] }
%union.anon = type { i64 }
%union.FPU = type { %struct.anon.13 }
%struct.anon.13 = type { %struct.FpuFXSAVE, [96 x i8] }
%struct.FpuFXSAVE = type { %union.SegmentSelector, %union.SegmentSelector, %union.FPUAbridgedTagWord, i8, i16, i32, %union.SegmentSelector, i16, i32, %union.SegmentSelector, i16, %union.FPUControlStatus, %union.FPUControlStatus, [8 x %struct.FPUStackElem], [16 x %union.vec128_t] }
%union.FPUAbridgedTagWord = type { i8 }
%union.FPUControlStatus = type { i32 }
%struct.FPUStackElem = type { %union.anon.11, [6 x i8] }
%union.anon.11 = type { %struct.float80_t }
%struct.float80_t = type { [10 x i8] }
%union.vec128_t = type { %struct.uint128v1_t }
%struct.uint128v1_t = type { [1 x i128] }
%struct.SegmentCaches = type { %struct.SegmentShadow, %struct.SegmentShadow, %struct.SegmentShadow, %struct.SegmentShadow, %struct.SegmentShadow, %struct.SegmentShadow }
%struct.SegmentShadow = type { %union.anon, i32, i32 }
%struct.Memory = type opaque

@__bss_start = local_unnamed_addr global %__bss_start_type zeroinitializer

declare %struct.Memory* @__remill_error(%struct.State* dereferenceable(3376), i64, %struct.Memory*) local_unnamed_addr

; Function Attrs: nounwind readnone
declare i32 @llvm.ctpop.i32(i32) #0

declare %struct.Memory* @sub_404730._ZmiIdElR14PointerWrapperIT_ES3_(%struct.State* noalias dereferenceable(3376), i64, %struct.Memory* noalias readnone returned) local_unnamed_addr

declare %struct.Memory* @sub_4046f0._ZNK14PointerWrapperIdEdeEv(%struct.State* noalias dereferenceable(3376), i64, %struct.Memory* noalias readnone returned) local_unnamed_addr

declare %struct.Memory* @sub_405590._ZmmIdER14PointerWrapperIT_ES3_(%struct.State* noalias dereferenceable(3376), i64, %struct.Memory* noalias readnone returned) local_unnamed_addr

declare %struct.Memory* @sub_4055b0._ZltIdEbRK14PointerWrapperIT_ES4_(%struct.State* noalias dereferenceable(3376), i64, %struct.Memory* noalias readnone returned) local_unnamed_addr

declare %struct.Memory* @sub_404710._ZppIdER14PointerWrapperIT_ES3_(%struct.State* noalias dereferenceable(3376), i64, %struct.Memory* noalias readnone returned) local_unnamed_addr

declare %struct.Memory* @sub_404760._ZplIdE14PointerWrapperIT_ERS2_l(%struct.State* noalias dereferenceable(3376), i64, %struct.Memory* noalias readnone returned) local_unnamed_addr

declare %struct.Memory* @sub_4053f0._ZN9benchmark9quicksortI14PointerWrapperIdEdEEvT_S3_(%struct.State* noalias dereferenceable(3376), i64, %struct.Memory* noalias readnone returned) local_unnamed_addr

; Function Attrs: alwaysinline
define %struct.Memory* @_ZN9benchmark9quicksortI14PointerWrapperIdEdEEvT_S3_(%struct.State* noalias, i64, %struct.Memory* noalias) local_unnamed_addr #1 {
entry:
  %3 = getelementptr inbounds %struct.State, %struct.State* %0, i64 0, i32 6, i32 33, i32 0, i32 0
  %RBP.i = getelementptr inbounds %struct.State, %struct.State* %0, i64 0, i32 6, i32 15, i32 0, i32 0
  %4 = load i64, i64* %RBP.i, align 8
  %5 = add i64 %1, 1
  store i64 %5, i64* %3, align 8
  %6 = getelementptr inbounds %struct.State, %struct.State* %0, i64 0, i32 6, i32 13, i32 0, i32 0
  %7 = load i64, i64* %6, align 8
  %8 = add i64 %7, -8
  %9 = inttoptr i64 %8 to i64*
  store i64 %4, i64* %9, align 8
  %10 = load i64, i64* %3, align 8
  store i64 %8, i64* %RBP.i, align 8
  %11 = add i64 %7, -120
  store i64 %11, i64* %6, align 8
  %12 = icmp ult i64 %8, 112
  %13 = zext i1 %12 to i8
  %14 = getelementptr inbounds %struct.State, %struct.State* %0, i64 0, i32 2, i32 1
  store i8 %13, i8* %14, align 1
  %15 = trunc i64 %11 to i32
  %16 = and i32 %15, 255
  %17 = tail call i32 @llvm.ctpop.i32(i32 %16)
  %18 = trunc i32 %17 to i8
  %19 = and i8 %18, 1
  %20 = xor i8 %19, 1
  %21 = getelementptr inbounds %struct.State, %struct.State* %0, i64 0, i32 2, i32 3
  store i8 %20, i8* %21, align 1
  %22 = xor i64 %8, 16
  %23 = xor i64 %22, %11
  %24 = lshr i64 %23, 4
  %25 = trunc i64 %24 to i8
  %26 = and i8 %25, 1
  %27 = getelementptr inbounds %struct.State, %struct.State* %0, i64 0, i32 2, i32 5
  store i8 %26, i8* %27, align 1
  %28 = icmp eq i64 %11, 0
  %29 = zext i1 %28 to i8
  %30 = getelementptr inbounds %struct.State, %struct.State* %0, i64 0, i32 2, i32 7
  store i8 %29, i8* %30, align 1
  %31 = lshr i64 %11, 63
  %32 = trunc i64 %31 to i8
  %33 = getelementptr inbounds %struct.State, %struct.State* %0, i64 0, i32 2, i32 9
  store i8 %32, i8* %33, align 1
  %34 = lshr i64 %8, 63
  %35 = xor i64 %31, %34
  %36 = add nuw nsw i64 %35, %34
  %37 = icmp eq i64 %36, 2
  %38 = zext i1 %37 to i8
  %39 = getelementptr inbounds %struct.State, %struct.State* %0, i64 0, i32 2, i32 13
  store i8 %38, i8* %39, align 1
  %40 = getelementptr inbounds %struct.State, %struct.State* %0, i64 0, i32 6, i32 1, i32 0
  %RAX.i208 = getelementptr inbounds %union.anon, %union.anon* %40, i64 0, i32 0
  %41 = add i64 %7, -24
  store i64 %41, i64* %RAX.i208, align 8
  %RCX.i205 = getelementptr inbounds %struct.State, %struct.State* %0, i64 0, i32 6, i32 5, i32 0, i32 0
  %42 = add i64 %7, -16
  store i64 %42, i64* %RCX.i205, align 8
  %RDI.i202 = getelementptr inbounds %struct.State, %struct.State* %0, i64 0, i32 6, i32 11, i32 0, i32 0
  %43 = load i64, i64* %RDI.i202, align 8
  %44 = add i64 %10, 19
  store i64 %44, i64* %3, align 8
  %45 = inttoptr i64 %42 to i64*
  store i64 %43, i64* %45, align 8
  %RSI.i199 = getelementptr inbounds %struct.State, %struct.State* %0, i64 0, i32 6, i32 9, i32 0, i32 0
  %46 = load i64, i64* %RBP.i, align 8
  %47 = add i64 %46, -16
  %48 = load i64, i64* %RSI.i199, align 8
  %49 = load i64, i64* %3, align 8
  %50 = add i64 %49, 4
  store i64 %50, i64* %3, align 8
  %51 = inttoptr i64 %47 to i64*
  store i64 %48, i64* %51, align 8
  %52 = load i64, i64* %RAX.i208, align 8
  %53 = load i64, i64* %3, align 8
  store i64 %52, i64* %RDI.i202, align 8
  %54 = load i64, i64* %RCX.i205, align 8
  store i64 %54, i64* %RSI.i199, align 8
  %55 = add i64 %53, -3288
  %56 = add i64 %53, 11
  %57 = load i64, i64* %6, align 8
  %58 = add i64 %57, -8
  %59 = inttoptr i64 %58 to i64*
  store i64 %56, i64* %59, align 8
  store i64 %58, i64* %6, align 8
  store i64 %55, i64* %3, align 8
  %call2_40540e = tail call %struct.Memory* @sub_404730._ZmiIdElR14PointerWrapperIT_ES3_(%struct.State* %0, i64 %55, %struct.Memory* %2)
  %60 = load i64, i64* %RAX.i208, align 8
  %61 = load i64, i64* %3, align 8
  %62 = add i64 %60, -1
  %63 = icmp eq i64 %60, 0
  %64 = zext i1 %63 to i8
  store i8 %64, i8* %14, align 1
  %65 = trunc i64 %62 to i32
  %66 = and i32 %65, 255
  %67 = tail call i32 @llvm.ctpop.i32(i32 %66)
  %68 = trunc i32 %67 to i8
  %69 = and i8 %68, 1
  %70 = xor i8 %69, 1
  store i8 %70, i8* %21, align 1
  %71 = xor i64 %60, %62
  %72 = lshr i64 %71, 4
  %73 = trunc i64 %72 to i8
  %74 = and i8 %73, 1
  store i8 %74, i8* %27, align 1
  %75 = icmp eq i64 %62, 0
  %76 = zext i1 %75 to i8
  store i8 %76, i8* %30, align 1
  %77 = lshr i64 %62, 63
  %78 = trunc i64 %77 to i8
  store i8 %78, i8* %33, align 1
  %79 = lshr i64 %60, 63
  %80 = xor i64 %77, %79
  %81 = add nuw nsw i64 %80, %79
  %82 = icmp eq i64 %81, 2
  %83 = zext i1 %82 to i8
  store i8 %83, i8* %39, align 1
  %84 = icmp ne i8 %78, 0
  %85 = xor i1 %84, %82
  %86 = or i1 %75, %85
  %.v = select i1 %86, i64 372, i64 10
  %87 = add i64 %61, %.v
  store i64 %87, i64* %3, align 8
  br i1 %86, label %block_.L_405587, label %block_40541d

block_40541d:                                     ; preds = %entry
  %88 = load i64, i64* %RBP.i, align 8
  %89 = add i64 %88, -8
  store i64 %89, i64* %RDI.i202, align 8
  %90 = add i64 %87, -3373
  %91 = add i64 %87, 9
  %92 = load i64, i64* %6, align 8
  %93 = add i64 %92, -8
  %94 = inttoptr i64 %93 to i64*
  store i64 %91, i64* %94, align 8
  store i64 %93, i64* %6, align 8
  store i64 %90, i64* %3, align 8
  %call2_405421 = tail call %struct.Memory* @sub_4046f0._ZNK14PointerWrapperIdEdeEv(%struct.State* %0, i64 %90, %struct.Memory* %call2_40540e)
  %95 = getelementptr inbounds %struct.State, %struct.State* %0, i64 0, i32 1
  %96 = bitcast %union.anon* %40 to i64**
  %97 = load i64*, i64** %96, align 8
  %98 = load i64, i64* %3, align 8
  %99 = add i64 %98, 4
  store i64 %99, i64* %3, align 8
  %100 = load i64, i64* %97, align 8
  %101 = bitcast [32 x %union.VectorReg]* %95 to double*
  %102 = getelementptr inbounds [32 x %union.VectorReg], [32 x %union.VectorReg]* %95, i64 0, i64 0, i32 0, i32 0, i32 0, i64 0
  store i64 %100, i64* %102, align 1
  %103 = getelementptr inbounds %struct.State, %struct.State* %0, i64 0, i32 1, i64 0, i32 0, i32 0, i32 0, i64 1
  %104 = bitcast i64* %103 to double*
  store double 0.000000e+00, double* %104, align 1
  %105 = load i64, i64* %RBP.i, align 8
  %106 = add i64 %105, -24
  %107 = add i64 %98, 9
  store i64 %107, i64* %3, align 8
  %108 = inttoptr i64 %106 to i64*
  store i64 %100, i64* %108, align 8
  %109 = load i64, i64* %RBP.i, align 8
  %110 = add i64 %109, -8
  %111 = load i64, i64* %3, align 8
  %112 = add i64 %111, 4
  store i64 %112, i64* %3, align 8
  %113 = inttoptr i64 %110 to i64*
  %114 = load i64, i64* %113, align 8
  store i64 %114, i64* %RAX.i208, align 8
  %115 = add i64 %109, -32
  %116 = add i64 %111, 8
  store i64 %116, i64* %3, align 8
  %117 = inttoptr i64 %115 to i64*
  store i64 %114, i64* %117, align 8
  %118 = load i64, i64* %RBP.i, align 8
  %119 = add i64 %118, -16
  %120 = load i64, i64* %3, align 8
  %121 = add i64 %120, 4
  store i64 %121, i64* %3, align 8
  %122 = inttoptr i64 %119 to i64*
  %123 = load i64, i64* %122, align 8
  store i64 %123, i64* %RAX.i208, align 8
  %124 = add i64 %118, -40
  %125 = add i64 %120, 8
  store i64 %125, i64* %3, align 8
  %126 = inttoptr i64 %124 to i64*
  store i64 %123, i64* %126, align 8
  %127 = getelementptr inbounds %struct.State, %struct.State* %0, i64 0, i32 1, i64 1
  %128 = bitcast %union.VectorReg* %127 to double*
  %129 = getelementptr inbounds %struct.State, %struct.State* %0, i64 0, i32 1, i64 1, i32 0, i32 0, i32 0, i64 1
  %130 = bitcast i64* %129 to double*
  %AL.i130 = bitcast %union.anon* %40 to i8*
  %.pre = load i64, i64* %3, align 8
  br label %block_.L_40543f

block_.L_40543f:                                  ; preds = %block_.L_4054de, %block_40541d
  %131 = phi i64 [ %.pre, %block_40541d ], [ %367, %block_.L_4054de ]
  %MEMORY.0 = phi %struct.Memory* [ %call2_405421, %block_40541d ], [ %call2_405522, %block_.L_4054de ]
  %132 = add i64 %131, 5
  br label %block_.L_405444

block_.L_405444:                                  ; preds = %block_405472, %block_.L_40543f
  %133 = phi i64 [ %132, %block_.L_40543f ], [ %196, %block_405472 ]
  %MEMORY.1 = phi %struct.Memory* [ %MEMORY.0, %block_.L_40543f ], [ %190, %block_405472 ]
  %134 = load i64, i64* %RBP.i, align 8
  %135 = add i64 %134, -40
  store i64 %135, i64* %RDI.i202, align 8
  %136 = add i64 %134, -24
  %137 = add i64 %133, 9
  store i64 %137, i64* %3, align 8
  %138 = inttoptr i64 %136 to i64*
  %139 = load i64, i64* %138, align 8
  store i64 %139, i64* %102, align 1
  store double 0.000000e+00, double* %104, align 1
  %140 = add i64 %134, -88
  %141 = add i64 %133, 14
  store i64 %141, i64* %3, align 8
  %142 = inttoptr i64 %140 to i64*
  store i64 %139, i64* %142, align 8
  %143 = load i64, i64* %3, align 8
  %144 = add i64 %143, 318
  %145 = add i64 %143, 5
  %146 = load i64, i64* %6, align 8
  %147 = add i64 %146, -8
  %148 = inttoptr i64 %147 to i64*
  store i64 %145, i64* %148, align 8
  store i64 %147, i64* %6, align 8
  store i64 %144, i64* %3, align 8
  %call2_405452 = tail call %struct.Memory* @sub_405590._ZmmIdER14PointerWrapperIT_ES3_(%struct.State* %0, i64 %144, %struct.Memory* %MEMORY.1)
  %149 = load i64, i64* %RAX.i208, align 8
  %150 = load i64, i64* %3, align 8
  store i64 %149, i64* %RDI.i202, align 8
  %151 = add i64 %150, -3431
  %152 = add i64 %150, 8
  %153 = load i64, i64* %6, align 8
  %154 = add i64 %153, -8
  %155 = inttoptr i64 %154 to i64*
  store i64 %152, i64* %155, align 8
  store i64 %154, i64* %6, align 8
  store i64 %151, i64* %3, align 8
  %call2_40545a = tail call %struct.Memory* @sub_4046f0._ZNK14PointerWrapperIdEdeEv(%struct.State* %0, i64 %151, %struct.Memory* %call2_405452)
  %156 = bitcast %union.anon* %40 to double**
  %157 = load double*, double** %156, align 8
  %158 = load i64, i64* %3, align 8
  %159 = add i64 %158, 4
  store i64 %159, i64* %3, align 8
  %160 = load double, double* %157, align 8
  store double %160, double* %101, align 1
  store double 0.000000e+00, double* %104, align 1
  %161 = load i64, i64* %RBP.i, align 8
  %162 = add i64 %161, -88
  %163 = add i64 %158, 9
  store i64 %163, i64* %3, align 8
  %164 = inttoptr i64 %162 to double*
  %165 = load double, double* %164, align 8
  store double %165, double* %128, align 1
  store double 0.000000e+00, double* %130, align 1
  %166 = add i64 %158, 13
  store i64 %166, i64* %3, align 8
  %167 = fcmp uno double %160, %165
  br i1 %167, label %168, label %178

; <label>:168:                                    ; preds = %block_.L_405444
  %169 = fadd double %160, %165
  %170 = bitcast double %169 to i64
  %171 = and i64 %170, 9221120237041090560
  %172 = icmp eq i64 %171, 9218868437227405312
  %173 = and i64 %170, 2251799813685247
  %174 = icmp ne i64 %173, 0
  %175 = and i1 %172, %174
  br i1 %175, label %176, label %184

; <label>:176:                                    ; preds = %168
  %177 = tail call %struct.Memory* @__remill_error(%struct.State* nonnull dereferenceable(3376) %0, i64 %166, %struct.Memory* %call2_40545a)
  %.pre3 = load i64, i64* %3, align 8
  br label %routine_ucomisd__xmm1___xmm0.exit

; <label>:178:                                    ; preds = %block_.L_405444
  %179 = fcmp ogt double %160, %165
  br i1 %179, label %184, label %180

; <label>:180:                                    ; preds = %178
  %181 = fcmp olt double %160, %165
  br i1 %181, label %184, label %182

; <label>:182:                                    ; preds = %180
  %183 = fcmp oeq double %160, %165
  br i1 %183, label %184, label %188

; <label>:184:                                    ; preds = %182, %180, %178, %168
  %185 = phi i8 [ 0, %178 ], [ 0, %180 ], [ 1, %182 ], [ 1, %168 ]
  %186 = phi i8 [ 0, %178 ], [ 0, %180 ], [ 0, %182 ], [ 1, %168 ]
  %187 = phi i8 [ 0, %178 ], [ 1, %180 ], [ 0, %182 ], [ 1, %168 ]
  store i8 %185, i8* %30, align 1
  store i8 %186, i8* %21, align 1
  store i8 %187, i8* %14, align 1
  br label %188

; <label>:188:                                    ; preds = %184, %182
  store i8 0, i8* %39, align 1
  store i8 0, i8* %33, align 1
  store i8 0, i8* %27, align 1
  br label %routine_ucomisd__xmm1___xmm0.exit

routine_ucomisd__xmm1___xmm0.exit:                ; preds = %188, %176
  %189 = phi i64 [ %.pre3, %176 ], [ %166, %188 ]
  %190 = phi %struct.Memory* [ %177, %176 ], [ %call2_40545a, %188 ]
  %191 = load i8, i8* %14, align 1
  %192 = load i8, i8* %30, align 1
  %193 = or i8 %192, %191
  %194 = icmp ne i8 %193, 0
  %.v12 = select i1 %194, i64 11, i64 6
  %195 = add i64 %189, %.v12
  store i64 %195, i64* %3, align 8
  br i1 %194, label %block_.L_405477, label %block_405472

block_405472:                                     ; preds = %routine_ucomisd__xmm1___xmm0.exit
  %196 = add i64 %195, -46
  br label %block_.L_405444

block_.L_405477:                                  ; preds = %routine_ucomisd__xmm1___xmm0.exit
  %197 = load i64, i64* %RBP.i, align 8
  %198 = add i64 %197, -32
  store i64 %198, i64* %RDI.i202, align 8
  %199 = add i64 %197, -40
  store i64 %199, i64* %RSI.i199, align 8
  %200 = add i64 %195, 313
  %201 = add i64 %195, 13
  %202 = load i64, i64* %6, align 8
  %203 = add i64 %202, -8
  %204 = inttoptr i64 %203 to i64*
  store i64 %201, i64* %204, align 8
  store i64 %203, i64* %6, align 8
  store i64 %200, i64* %3, align 8
  %call2_40547f = tail call %struct.Memory* @sub_4055b0._ZltIdEbRK14PointerWrapperIT_ES4_(%struct.State* %0, i64 %200, %struct.Memory* %190)
  %205 = load i8, i8* %AL.i130, align 1
  %206 = load i64, i64* %3, align 8
  %207 = and i8 %205, 1
  store i8 0, i8* %14, align 1
  %208 = zext i8 %207 to i32
  %209 = tail call i32 @llvm.ctpop.i32(i32 %208)
  %210 = trunc i32 %209 to i8
  %211 = xor i8 %210, 1
  store i8 %211, i8* %21, align 1
  %212 = xor i8 %207, 1
  store i8 %212, i8* %30, align 1
  store i8 0, i8* %33, align 1
  store i8 0, i8* %39, align 1
  store i8 0, i8* %27, align 1
  %213 = icmp eq i8 %212, 0
  %.v13 = select i1 %213, i64 13, i64 8
  %214 = add i64 %206, %.v13
  store i64 %214, i64* %3, align 8
  br i1 %213, label %block_.L_405491, label %block_40548c

block_40548c:                                     ; preds = %block_.L_405477
  %215 = add i64 %214, 169
  br label %block_.L_405535

block_.L_405491:                                  ; preds = %block_.L_405477
  %216 = add i64 %214, 5
  br label %block_.L_405496

block_.L_405496:                                  ; preds = %block_4054b2, %block_.L_405491
  %217 = phi i64 [ %216, %block_.L_405491 ], [ %279, %block_4054b2 ]
  %MEMORY.2 = phi %struct.Memory* [ %call2_40547f, %block_.L_405491 ], [ %call2_4054b6, %block_4054b2 ]
  %218 = load i64, i64* %RBP.i, align 8
  %219 = add i64 %218, -32
  store i64 %219, i64* %RDI.i202, align 8
  %220 = add i64 %217, -3494
  %221 = add i64 %217, 9
  %222 = load i64, i64* %6, align 8
  %223 = add i64 %222, -8
  %224 = inttoptr i64 %223 to i64*
  store i64 %221, i64* %224, align 8
  store i64 %223, i64* %6, align 8
  store i64 %220, i64* %3, align 8
  %call2_40549a = tail call %struct.Memory* @sub_4046f0._ZNK14PointerWrapperIdEdeEv(%struct.State* %0, i64 %220, %struct.Memory* %MEMORY.2)
  %225 = load double*, double** %156, align 8
  %226 = load i64, i64* %3, align 8
  %227 = add i64 %226, 4
  store i64 %227, i64* %3, align 8
  %228 = load double, double* %225, align 8
  store double %228, double* %101, align 1
  store double 0.000000e+00, double* %104, align 1
  %229 = load i64, i64* %RBP.i, align 8
  %230 = add i64 %229, -24
  %231 = add i64 %226, 9
  store i64 %231, i64* %3, align 8
  %232 = inttoptr i64 %230 to double*
  %233 = load double, double* %232, align 8
  store double %233, double* %128, align 1
  store double 0.000000e+00, double* %130, align 1
  %234 = add i64 %226, 13
  store i64 %234, i64* %3, align 8
  %235 = fcmp uno double %233, %228
  br i1 %235, label %236, label %246

; <label>:236:                                    ; preds = %block_.L_405496
  %237 = fadd double %233, %228
  %238 = bitcast double %237 to i64
  %239 = and i64 %238, 9221120237041090560
  %240 = icmp eq i64 %239, 9218868437227405312
  %241 = and i64 %238, 2251799813685247
  %242 = icmp ne i64 %241, 0
  %243 = and i1 %240, %242
  br i1 %243, label %244, label %252

; <label>:244:                                    ; preds = %236
  %245 = tail call %struct.Memory* @__remill_error(%struct.State* nonnull dereferenceable(3376) %0, i64 %234, %struct.Memory* %call2_40549a)
  %.pre4 = load i64, i64* %3, align 8
  br label %routine_ucomisd__xmm0___xmm1.exit

; <label>:246:                                    ; preds = %block_.L_405496
  %247 = fcmp ogt double %233, %228
  br i1 %247, label %252, label %248

; <label>:248:                                    ; preds = %246
  %249 = fcmp olt double %233, %228
  br i1 %249, label %252, label %250

; <label>:250:                                    ; preds = %248
  %251 = fcmp oeq double %233, %228
  br i1 %251, label %252, label %256

; <label>:252:                                    ; preds = %250, %248, %246, %236
  %253 = phi i8 [ 0, %246 ], [ 0, %248 ], [ 1, %250 ], [ 1, %236 ]
  %254 = phi i8 [ 0, %246 ], [ 0, %248 ], [ 0, %250 ], [ 1, %236 ]
  %255 = phi i8 [ 0, %246 ], [ 1, %248 ], [ 0, %250 ], [ 1, %236 ]
  store i8 %253, i8* %30, align 1
  store i8 %254, i8* %21, align 1
  store i8 %255, i8* %14, align 1
  br label %256

; <label>:256:                                    ; preds = %252, %250
  store i8 0, i8* %39, align 1
  store i8 0, i8* %33, align 1
  store i8 0, i8* %27, align 1
  br label %routine_ucomisd__xmm0___xmm1.exit

routine_ucomisd__xmm0___xmm1.exit:                ; preds = %256, %244
  %257 = phi i64 [ %.pre4, %244 ], [ %234, %256 ]
  %258 = phi %struct.Memory* [ %245, %244 ], [ %call2_40549a, %256 ]
  %259 = load i8, i8* %14, align 1
  %260 = load i8, i8* %30, align 1
  %261 = or i8 %260, %259
  %262 = icmp ne i8 %261, 0
  %.v14 = select i1 %262, i64 24, i64 6
  %263 = add i64 %257, %.v14
  %264 = load i64, i64* %RBP.i, align 8
  %265 = add i64 %264, -32
  %266 = add i64 %263, 4
  store i64 %266, i64* %3, align 8
  store i64 %265, i64* %RDI.i202, align 8
  br i1 %262, label %block_.L_4054c4, label %block_4054b2

block_4054b2:                                     ; preds = %routine_ucomisd__xmm0___xmm1.exit
  %267 = add i64 %263, -3490
  %268 = add i64 %263, 9
  %269 = load i64, i64* %6, align 8
  %270 = add i64 %269, -8
  %271 = inttoptr i64 %270 to i64*
  store i64 %268, i64* %271, align 8
  store i64 %270, i64* %6, align 8
  store i64 %267, i64* %3, align 8
  %call2_4054b6 = tail call %struct.Memory* @sub_404710._ZppIdER14PointerWrapperIT_ES3_(%struct.State* %0, i64 %267, %struct.Memory* %258)
  %272 = load i64, i64* %RBP.i, align 8
  %273 = add i64 %272, -96
  %274 = load i64, i64* %RAX.i208, align 8
  %275 = load i64, i64* %3, align 8
  %276 = add i64 %275, 4
  store i64 %276, i64* %3, align 8
  %277 = inttoptr i64 %273 to i64*
  store i64 %274, i64* %277, align 8
  %278 = load i64, i64* %3, align 8
  %279 = add i64 %278, -41
  br label %block_.L_405496

block_.L_4054c4:                                  ; preds = %routine_ucomisd__xmm0___xmm1.exit
  %280 = add i64 %264, -40
  store i64 %280, i64* %RSI.i199, align 8
  %281 = add i64 %263, 236
  %282 = add i64 %263, 13
  %283 = load i64, i64* %6, align 8
  %284 = add i64 %283, -8
  %285 = inttoptr i64 %284 to i64*
  store i64 %282, i64* %285, align 8
  store i64 %284, i64* %6, align 8
  store i64 %281, i64* %3, align 8
  %call2_4054cc = tail call %struct.Memory* @sub_4055b0._ZltIdEbRK14PointerWrapperIT_ES4_(%struct.State* %0, i64 %281, %struct.Memory* %258)
  %286 = load i8, i8* %AL.i130, align 1
  %287 = load i64, i64* %3, align 8
  %288 = and i8 %286, 1
  store i8 0, i8* %14, align 1
  %289 = zext i8 %288 to i32
  %290 = tail call i32 @llvm.ctpop.i32(i32 %289)
  %291 = trunc i32 %290 to i8
  %292 = xor i8 %291, 1
  store i8 %292, i8* %21, align 1
  %293 = xor i8 %288, 1
  store i8 %293, i8* %30, align 1
  store i8 0, i8* %33, align 1
  store i8 0, i8* %39, align 1
  store i8 0, i8* %27, align 1
  %294 = icmp eq i8 %293, 0
  %.v15 = select i1 %294, i64 13, i64 8
  %295 = add i64 %287, %.v15
  store i64 %295, i64* %3, align 8
  br i1 %294, label %block_.L_4054de, label %block_4054d9

block_4054d9:                                     ; preds = %block_.L_4054c4
  %296 = add i64 %295, 92
  br label %block_.L_405535

block_.L_4054de:                                  ; preds = %block_.L_4054c4
  %297 = load i64, i64* %RBP.i, align 8
  %298 = add i64 %297, -40
  store i64 %298, i64* %RDI.i202, align 8
  %299 = add i64 %295, -3566
  %300 = add i64 %295, 9
  %301 = load i64, i64* %6, align 8
  %302 = add i64 %301, -8
  %303 = inttoptr i64 %302 to i64*
  store i64 %300, i64* %303, align 8
  store i64 %302, i64* %6, align 8
  store i64 %299, i64* %3, align 8
  %call2_4054e2 = tail call %struct.Memory* @sub_4046f0._ZNK14PointerWrapperIdEdeEv(%struct.State* %0, i64 %299, %struct.Memory* %call2_4054cc)
  %304 = load i64, i64* %RBP.i, align 8
  %305 = add i64 %304, -32
  %306 = load i64, i64* %3, align 8
  store i64 %305, i64* %RDI.i202, align 8
  %307 = load i64*, i64** %96, align 8
  %308 = add i64 %306, 8
  store i64 %308, i64* %3, align 8
  %309 = load i64, i64* %307, align 8
  store i64 %309, i64* %102, align 1
  store double 0.000000e+00, double* %104, align 1
  %310 = add i64 %304, -48
  %311 = add i64 %306, 13
  store i64 %311, i64* %3, align 8
  %312 = inttoptr i64 %310 to i64*
  store i64 %309, i64* %312, align 8
  %313 = load i64, i64* %3, align 8
  %314 = add i64 %313, -3588
  %315 = add i64 %313, 5
  %316 = load i64, i64* %6, align 8
  %317 = add i64 %316, -8
  %318 = inttoptr i64 %317 to i64*
  store i64 %315, i64* %318, align 8
  store i64 %317, i64* %6, align 8
  store i64 %314, i64* %3, align 8
  %call2_4054f4 = tail call %struct.Memory* @sub_4046f0._ZNK14PointerWrapperIdEdeEv(%struct.State* %0, i64 %314, %struct.Memory* %call2_4054e2)
  %319 = load i64, i64* %RBP.i, align 8
  %320 = add i64 %319, -40
  %321 = load i64, i64* %3, align 8
  store i64 %320, i64* %RDI.i202, align 8
  %322 = load i64*, i64** %96, align 8
  %323 = add i64 %321, 8
  store i64 %323, i64* %3, align 8
  %324 = load i64, i64* %322, align 8
  store i64 %324, i64* %102, align 1
  store double 0.000000e+00, double* %104, align 1
  %325 = add i64 %319, -104
  %326 = add i64 %321, 13
  store i64 %326, i64* %3, align 8
  %327 = inttoptr i64 %325 to i64*
  store i64 %324, i64* %327, align 8
  %328 = load i64, i64* %3, align 8
  %329 = add i64 %328, -3606
  %330 = add i64 %328, 5
  %331 = load i64, i64* %6, align 8
  %332 = add i64 %331, -8
  %333 = inttoptr i64 %332 to i64*
  store i64 %330, i64* %333, align 8
  store i64 %332, i64* %6, align 8
  store i64 %329, i64* %3, align 8
  %call2_405506 = tail call %struct.Memory* @sub_4046f0._ZNK14PointerWrapperIdEdeEv(%struct.State* %0, i64 %329, %struct.Memory* %call2_4054f4)
  %334 = load i64, i64* %RBP.i, align 8
  %335 = add i64 %334, -32
  %336 = load i64, i64* %3, align 8
  store i64 %335, i64* %RDI.i202, align 8
  %337 = add i64 %334, -104
  %338 = add i64 %336, 9
  store i64 %338, i64* %3, align 8
  %339 = inttoptr i64 %337 to i64*
  %340 = load i64, i64* %339, align 8
  store i64 %340, i64* %102, align 1
  store double 0.000000e+00, double* %104, align 1
  %341 = load i64*, i64** %96, align 8
  %342 = add i64 %336, 13
  store i64 %342, i64* %3, align 8
  store i64 %340, i64* %341, align 8
  %343 = load i64, i64* %RBP.i, align 8
  %344 = add i64 %343, -48
  %345 = load i64, i64* %3, align 8
  %346 = add i64 %345, 5
  store i64 %346, i64* %3, align 8
  %347 = inttoptr i64 %344 to i64*
  %348 = load i64, i64* %347, align 8
  store i64 %348, i64* %102, align 1
  store double 0.000000e+00, double* %104, align 1
  %349 = add i64 %343, -112
  %350 = add i64 %345, 10
  store i64 %350, i64* %3, align 8
  %351 = inttoptr i64 %349 to i64*
  store i64 %348, i64* %351, align 8
  %352 = load i64, i64* %3, align 8
  %353 = add i64 %352, -3634
  %354 = add i64 %352, 5
  %355 = load i64, i64* %6, align 8
  %356 = add i64 %355, -8
  %357 = inttoptr i64 %356 to i64*
  store i64 %354, i64* %357, align 8
  store i64 %356, i64* %6, align 8
  store i64 %353, i64* %3, align 8
  %call2_405522 = tail call %struct.Memory* @sub_4046f0._ZNK14PointerWrapperIdEdeEv(%struct.State* %0, i64 %353, %struct.Memory* %call2_405506)
  %358 = load i64, i64* %RBP.i, align 8
  %359 = add i64 %358, -112
  %360 = load i64, i64* %3, align 8
  %361 = add i64 %360, 5
  store i64 %361, i64* %3, align 8
  %362 = inttoptr i64 %359 to i64*
  %363 = load i64, i64* %362, align 8
  store i64 %363, i64* %102, align 1
  store double 0.000000e+00, double* %104, align 1
  %364 = load i64*, i64** %96, align 8
  %365 = add i64 %360, 9
  store i64 %365, i64* %3, align 8
  store i64 %363, i64* %364, align 8
  %366 = load i64, i64* %3, align 8
  %367 = add i64 %366, -241
  store i64 %367, i64* %3, align 8
  br label %block_.L_40543f

block_.L_405535:                                  ; preds = %block_4054d9, %block_40548c
  %.sink7 = phi i64 [ %296, %block_4054d9 ], [ %215, %block_40548c ]
  %MEMORY.3 = phi %struct.Memory* [ %call2_4054cc, %block_4054d9 ], [ %call2_40547f, %block_40548c ]
  %368 = load i64, i64* %RBP.i, align 8
  %369 = add i64 %368, -40
  store i64 %369, i64* %RDI.i202, align 8
  store i64 1, i64* %RAX.i208, align 8
  store i64 1, i64* %RSI.i199, align 8
  %370 = add i64 %368, -8
  %371 = add i64 %.sink7, 15
  store i64 %371, i64* %3, align 8
  %372 = inttoptr i64 %370 to i64*
  %373 = load i64, i64* %372, align 8
  store i64 %373, i64* %RCX.i205, align 8
  %374 = add i64 %368, -56
  %375 = add i64 %.sink7, 19
  store i64 %375, i64* %3, align 8
  %376 = inttoptr i64 %374 to i64*
  store i64 %373, i64* %376, align 8
  %377 = load i64, i64* %3, align 8
  %378 = add i64 %377, -3560
  %379 = add i64 %377, 5
  %380 = load i64, i64* %6, align 8
  %381 = add i64 %380, -8
  %382 = inttoptr i64 %381 to i64*
  store i64 %379, i64* %382, align 8
  store i64 %381, i64* %6, align 8
  store i64 %378, i64* %3, align 8
  %call2_405548 = tail call %struct.Memory* @sub_404760._ZplIdE14PointerWrapperIT_ERS2_l(%struct.State* %0, i64 %378, %struct.Memory* %MEMORY.3)
  %383 = load i64, i64* %RBP.i, align 8
  %384 = add i64 %383, -64
  %385 = load i64, i64* %RAX.i208, align 8
  %386 = load i64, i64* %3, align 8
  %387 = add i64 %386, 4
  store i64 %387, i64* %3, align 8
  %388 = inttoptr i64 %384 to i64*
  store i64 %385, i64* %388, align 8
  %389 = load i64, i64* %RBP.i, align 8
  %390 = add i64 %389, -56
  %391 = load i64, i64* %3, align 8
  %392 = add i64 %391, 4
  store i64 %392, i64* %3, align 8
  %393 = inttoptr i64 %390 to i64*
  %394 = load i64, i64* %393, align 8
  store i64 %394, i64* %RDI.i202, align 8
  %395 = add i64 %389, -64
  %396 = add i64 %391, 8
  store i64 %396, i64* %3, align 8
  %397 = inttoptr i64 %395 to i64*
  %398 = load i64, i64* %397, align 8
  store i64 %398, i64* %RSI.i199, align 8
  %399 = add i64 %391, -353
  %400 = add i64 %391, 13
  %401 = load i64, i64* %6, align 8
  %402 = add i64 %401, -8
  %403 = inttoptr i64 %402 to i64*
  store i64 %400, i64* %403, align 8
  store i64 %402, i64* %6, align 8
  store i64 %399, i64* %3, align 8
  %call2_405559 = tail call %struct.Memory* @sub_4053f0._ZN9benchmark9quicksortI14PointerWrapperIdEdEEvT_S3_(%struct.State* %0, i64 %399, %struct.Memory* %call2_405548)
  %404 = load i64, i64* %RBP.i, align 8
  %405 = add i64 %404, -40
  %406 = load i64, i64* %3, align 8
  store i64 %405, i64* %RDI.i202, align 8
  %RDX.i = getelementptr inbounds %struct.State, %struct.State* %0, i64 0, i32 6, i32 7, i32 0, i32 0
  store i64 1, i64* %RDX.i, align 8
  store i64 1, i64* %RSI.i199, align 8
  %407 = add i64 %406, -3582
  %408 = add i64 %406, 16
  %409 = load i64, i64* %6, align 8
  %410 = add i64 %409, -8
  %411 = inttoptr i64 %410 to i64*
  store i64 %408, i64* %411, align 8
  store i64 %410, i64* %6, align 8
  store i64 %407, i64* %3, align 8
  %call2_405569 = tail call %struct.Memory* @sub_404760._ZplIdE14PointerWrapperIT_ERS2_l(%struct.State* %0, i64 %407, %struct.Memory* %call2_405559)
  %412 = load i64, i64* %RBP.i, align 8
  %413 = add i64 %412, -72
  %414 = load i64, i64* %RAX.i208, align 8
  %415 = load i64, i64* %3, align 8
  %416 = add i64 %415, 4
  store i64 %416, i64* %3, align 8
  %417 = inttoptr i64 %413 to i64*
  store i64 %414, i64* %417, align 8
  %418 = load i64, i64* %RBP.i, align 8
  %419 = add i64 %418, -16
  %420 = load i64, i64* %3, align 8
  %421 = add i64 %420, 4
  store i64 %421, i64* %3, align 8
  %422 = inttoptr i64 %419 to i64*
  %423 = load i64, i64* %422, align 8
  store i64 %423, i64* %RAX.i208, align 8
  %424 = add i64 %418, -80
  %425 = add i64 %420, 8
  store i64 %425, i64* %3, align 8
  %426 = inttoptr i64 %424 to i64*
  store i64 %423, i64* %426, align 8
  %427 = load i64, i64* %RBP.i, align 8
  %428 = add i64 %427, -72
  %429 = load i64, i64* %3, align 8
  %430 = add i64 %429, 4
  store i64 %430, i64* %3, align 8
  %431 = inttoptr i64 %428 to i64*
  %432 = load i64, i64* %431, align 8
  store i64 %432, i64* %RDI.i202, align 8
  %433 = add i64 %427, -80
  %434 = add i64 %429, 8
  store i64 %434, i64* %3, align 8
  %435 = inttoptr i64 %433 to i64*
  %436 = load i64, i64* %435, align 8
  store i64 %436, i64* %RSI.i199, align 8
  %437 = add i64 %429, -394
  %438 = add i64 %429, 13
  %439 = load i64, i64* %6, align 8
  %440 = add i64 %439, -8
  %441 = inttoptr i64 %440 to i64*
  store i64 %438, i64* %441, align 8
  store i64 %440, i64* %6, align 8
  store i64 %437, i64* %3, align 8
  %call2_405582 = tail call %struct.Memory* @sub_4053f0._ZN9benchmark9quicksortI14PointerWrapperIdEdEEvT_S3_(%struct.State* %0, i64 %437, %struct.Memory* %call2_405569)
  %.pre5 = load i64, i64* %3, align 8
  br label %block_.L_405587

block_.L_405587:                                  ; preds = %block_.L_405535, %entry
  %442 = phi i64 [ %87, %entry ], [ %.pre5, %block_.L_405535 ]
  %MEMORY.4 = phi %struct.Memory* [ %call2_40540e, %entry ], [ %call2_405582, %block_.L_405535 ]
  %443 = load i64, i64* %6, align 8
  %444 = add i64 %443, 112
  store i64 %444, i64* %6, align 8
  %445 = icmp ugt i64 %443, -113
  %446 = zext i1 %445 to i8
  store i8 %446, i8* %14, align 1
  %447 = trunc i64 %444 to i32
  %448 = and i32 %447, 255
  %449 = tail call i32 @llvm.ctpop.i32(i32 %448)
  %450 = trunc i32 %449 to i8
  %451 = and i8 %450, 1
  %452 = xor i8 %451, 1
  store i8 %452, i8* %21, align 1
  %453 = xor i64 %443, 16
  %454 = xor i64 %453, %444
  %455 = lshr i64 %454, 4
  %456 = trunc i64 %455 to i8
  %457 = and i8 %456, 1
  store i8 %457, i8* %27, align 1
  %458 = icmp eq i64 %444, 0
  %459 = zext i1 %458 to i8
  store i8 %459, i8* %30, align 1
  %460 = lshr i64 %444, 63
  %461 = trunc i64 %460 to i8
  store i8 %461, i8* %33, align 1
  %462 = lshr i64 %443, 63
  %463 = xor i64 %460, %462
  %464 = add nuw nsw i64 %463, %460
  %465 = icmp eq i64 %464, 2
  %466 = zext i1 %465 to i8
  store i8 %466, i8* %39, align 1
  %467 = add i64 %442, 5
  store i64 %467, i64* %3, align 8
  %468 = add i64 %443, 120
  %469 = inttoptr i64 %444 to i64*
  %470 = load i64, i64* %469, align 8
  store i64 %470, i64* %RBP.i, align 8
  store i64 %468, i64* %6, align 8
  %471 = add i64 %442, 6
  store i64 %471, i64* %3, align 8
  %472 = inttoptr i64 %468 to i64*
  %473 = load i64, i64* %472, align 8
  store i64 %473, i64* %3, align 8
  %474 = add i64 %443, 128
  store i64 %474, i64* %6, align 8
  ret %struct.Memory* %MEMORY.4
}

define %struct.Memory* @routine_pushq__rbp(%struct.State* dereferenceable(3376), i64, %struct.Memory*) local_unnamed_addr {
block_400478:
  %PC = getelementptr inbounds %struct.State, %struct.State* %0, i64 0, i32 6, i32 33, i32 0, i32 0
  %RBP = getelementptr inbounds %struct.State, %struct.State* %0, i64 0, i32 6, i32 15, i32 0, i32 0
  %3 = load i64, i64* %RBP, align 8
  %4 = load i64, i64* %PC, align 8
  %5 = add i64 %4, 1
  store i64 %5, i64* %PC, align 8
  %6 = getelementptr inbounds %struct.State, %struct.State* %0, i64 0, i32 6, i32 13, i32 0, i32 0
  %7 = load i64, i64* %6, align 8
  %8 = add i64 %7, -8
  %9 = inttoptr i64 %8 to i64*
  store i64 %3, i64* %9, align 8
  store i64 %8, i64* %6, align 8
  ret %struct.Memory* %2
}

define %struct.Memory* @routine_movq__rsp___rbp(%struct.State* dereferenceable(3376), i64, %struct.Memory*) local_unnamed_addr {
block_400478:
  %PC = getelementptr inbounds %struct.State, %struct.State* %0, i64 0, i32 6, i32 33, i32 0, i32 0
  %RSP = getelementptr inbounds %struct.State, %struct.State* %0, i64 0, i32 6, i32 13, i32 0, i32 0
  %RBP = getelementptr inbounds %struct.State, %struct.State* %0, i64 0, i32 6, i32 15, i32 0, i32 0
  %3 = load i64, i64* %RSP, align 8
  %4 = load i64, i64* %PC, align 8
  %5 = add i64 %4, 3
  store i64 %5, i64* %PC, align 8
  store i64 %3, i64* %RBP, align 8
  ret %struct.Memory* %2
}

define %struct.Memory* @routine_subq__0x70___rsp(%struct.State* dereferenceable(3376), i64, %struct.Memory*) local_unnamed_addr {
block_400478:
  %PC = getelementptr inbounds %struct.State, %struct.State* %0, i64 0, i32 6, i32 33, i32 0, i32 0
  %RSP = getelementptr inbounds %struct.State, %struct.State* %0, i64 0, i32 6, i32 13, i32 0, i32 0
  %3 = load i64, i64* %RSP, align 8
  %4 = load i64, i64* %PC, align 8
  %5 = add i64 %4, 4
  store i64 %5, i64* %PC, align 8
  %6 = add i64 %3, -112
  store i64 %6, i64* %RSP, align 8
  %7 = icmp ult i64 %3, 112
  %8 = zext i1 %7 to i8
  %9 = getelementptr inbounds %struct.State, %struct.State* %0, i64 0, i32 2, i32 1
  store i8 %8, i8* %9, align 1
  %10 = trunc i64 %6 to i32
  %11 = and i32 %10, 255
  %12 = tail call i32 @llvm.ctpop.i32(i32 %11)
  %13 = trunc i32 %12 to i8
  %14 = and i8 %13, 1
  %15 = xor i8 %14, 1
  %16 = getelementptr inbounds %struct.State, %struct.State* %0, i64 0, i32 2, i32 3
  store i8 %15, i8* %16, align 1
  %17 = xor i64 %3, 16
  %18 = xor i64 %17, %6
  %19 = lshr i64 %18, 4
  %20 = trunc i64 %19 to i8
  %21 = and i8 %20, 1
  %22 = getelementptr inbounds %struct.State, %struct.State* %0, i64 0, i32 2, i32 5
  store i8 %21, i8* %22, align 1
  %23 = icmp eq i64 %6, 0
  %24 = zext i1 %23 to i8
  %25 = getelementptr inbounds %struct.State, %struct.State* %0, i64 0, i32 2, i32 7
  store i8 %24, i8* %25, align 1
  %26 = lshr i64 %6, 63
  %27 = trunc i64 %26 to i8
  %28 = getelementptr inbounds %struct.State, %struct.State* %0, i64 0, i32 2, i32 9
  store i8 %27, i8* %28, align 1
  %29 = lshr i64 %3, 63
  %30 = xor i64 %26, %29
  %31 = add nuw nsw i64 %30, %29
  %32 = icmp eq i64 %31, 2
  %33 = zext i1 %32 to i8
  %34 = getelementptr inbounds %struct.State, %struct.State* %0, i64 0, i32 2, i32 13
  store i8 %33, i8* %34, align 1
  ret %struct.Memory* %2
}

define %struct.Memory* @routine_leaq_MINUS0x10__rbp____rax(%struct.State* dereferenceable(3376), i64, %struct.Memory*) local_unnamed_addr {
block_400478:
  %PC = getelementptr inbounds %struct.State, %struct.State* %0, i64 0, i32 6, i32 33, i32 0, i32 0
  %RAX = getelementptr inbounds %struct.State, %struct.State* %0, i64 0, i32 6, i32 1, i32 0, i32 0
  %RBP = getelementptr inbounds %struct.State, %struct.State* %0, i64 0, i32 6, i32 15, i32 0, i32 0
  %3 = load i64, i64* %RBP, align 8
  %4 = add i64 %3, -16
  %5 = load i64, i64* %PC, align 8
  %6 = add i64 %5, 4
  store i64 %6, i64* %PC, align 8
  store i64 %4, i64* %RAX, align 8
  ret %struct.Memory* %2
}

define %struct.Memory* @routine_leaq_MINUS0x8__rbp____rcx(%struct.State* dereferenceable(3376), i64, %struct.Memory*) local_unnamed_addr {
block_400478:
  %PC = getelementptr inbounds %struct.State, %struct.State* %0, i64 0, i32 6, i32 33, i32 0, i32 0
  %RCX = getelementptr inbounds %struct.State, %struct.State* %0, i64 0, i32 6, i32 5, i32 0, i32 0
  %RBP = getelementptr inbounds %struct.State, %struct.State* %0, i64 0, i32 6, i32 15, i32 0, i32 0
  %3 = load i64, i64* %RBP, align 8
  %4 = add i64 %3, -8
  %5 = load i64, i64* %PC, align 8
  %6 = add i64 %5, 4
  store i64 %6, i64* %PC, align 8
  store i64 %4, i64* %RCX, align 8
  ret %struct.Memory* %2
}

define %struct.Memory* @routine_movq__rdi__MINUS0x8__rbp_(%struct.State* dereferenceable(3376), i64, %struct.Memory*) local_unnamed_addr {
block_400478:
  %PC = getelementptr inbounds %struct.State, %struct.State* %0, i64 0, i32 6, i32 33, i32 0, i32 0
  %RDI = getelementptr inbounds %struct.State, %struct.State* %0, i64 0, i32 6, i32 11, i32 0, i32 0
  %RBP = getelementptr inbounds %struct.State, %struct.State* %0, i64 0, i32 6, i32 15, i32 0, i32 0
  %3 = load i64, i64* %RBP, align 8
  %4 = add i64 %3, -8
  %5 = load i64, i64* %RDI, align 8
  %6 = load i64, i64* %PC, align 8
  %7 = add i64 %6, 4
  store i64 %7, i64* %PC, align 8
  %8 = inttoptr i64 %4 to i64*
  store i64 %5, i64* %8, align 8
  ret %struct.Memory* %2
}

define %struct.Memory* @routine_movq__rsi__MINUS0x10__rbp_(%struct.State* dereferenceable(3376), i64, %struct.Memory*) local_unnamed_addr {
block_400478:
  %PC = getelementptr inbounds %struct.State, %struct.State* %0, i64 0, i32 6, i32 33, i32 0, i32 0
  %RSI = getelementptr inbounds %struct.State, %struct.State* %0, i64 0, i32 6, i32 9, i32 0, i32 0
  %RBP = getelementptr inbounds %struct.State, %struct.State* %0, i64 0, i32 6, i32 15, i32 0, i32 0
  %3 = load i64, i64* %RBP, align 8
  %4 = add i64 %3, -16
  %5 = load i64, i64* %RSI, align 8
  %6 = load i64, i64* %PC, align 8
  %7 = add i64 %6, 4
  store i64 %7, i64* %PC, align 8
  %8 = inttoptr i64 %4 to i64*
  store i64 %5, i64* %8, align 8
  ret %struct.Memory* %2
}

define %struct.Memory* @routine_movq__rax___rdi(%struct.State* dereferenceable(3376), i64, %struct.Memory*) local_unnamed_addr {
block_400478:
  %PC = getelementptr inbounds %struct.State, %struct.State* %0, i64 0, i32 6, i32 33, i32 0, i32 0
  %RAX = getelementptr inbounds %struct.State, %struct.State* %0, i64 0, i32 6, i32 1, i32 0, i32 0
  %RDI = getelementptr inbounds %struct.State, %struct.State* %0, i64 0, i32 6, i32 11, i32 0, i32 0
  %3 = load i64, i64* %RAX, align 8
  %4 = load i64, i64* %PC, align 8
  %5 = add i64 %4, 3
  store i64 %5, i64* %PC, align 8
  store i64 %3, i64* %RDI, align 8
  ret %struct.Memory* %2
}

define %struct.Memory* @routine_movq__rcx___rsi(%struct.State* dereferenceable(3376), i64, %struct.Memory*) local_unnamed_addr {
block_400478:
  %PC = getelementptr inbounds %struct.State, %struct.State* %0, i64 0, i32 6, i32 33, i32 0, i32 0
  %RCX = getelementptr inbounds %struct.State, %struct.State* %0, i64 0, i32 6, i32 5, i32 0, i32 0
  %RSI = getelementptr inbounds %struct.State, %struct.State* %0, i64 0, i32 6, i32 9, i32 0, i32 0
  %3 = load i64, i64* %RCX, align 8
  %4 = load i64, i64* %PC, align 8
  %5 = add i64 %4, 3
  store i64 %5, i64* %PC, align 8
  store i64 %3, i64* %RSI, align 8
  ret %struct.Memory* %2
}

define %struct.Memory* @routine_callq_._ZmiIdElR14PointerWrapperIT_ES3_(%struct.State* dereferenceable(3376), i64, %struct.Memory*, i64 %rel_off1, i64 %rel_off2, i64 %rel_off3) local_unnamed_addr {
block_400478:
  %PC = getelementptr inbounds %struct.State, %struct.State* %0, i64 0, i32 6, i32 33, i32 0, i32 0
  %3 = load i64, i64* %PC, align 8
  %4 = add i64 %3, %rel_off1
  %5 = add i64 %3, %rel_off2
  %6 = getelementptr inbounds %struct.State, %struct.State* %0, i64 0, i32 6, i32 13, i32 0, i32 0
  %7 = load i64, i64* %6, align 8
  %8 = add i64 %7, -8
  %9 = inttoptr i64 %8 to i64*
  store i64 %5, i64* %9, align 8
  store i64 %8, i64* %6, align 8
  store i64 %4, i64* %PC, align 8
  ret %struct.Memory* %2
}

define %struct.Memory* @routine_cmpq__0x1___rax(%struct.State* dereferenceable(3376), i64, %struct.Memory*) local_unnamed_addr {
block_400478:
  %PC = getelementptr inbounds %struct.State, %struct.State* %0, i64 0, i32 6, i32 33, i32 0, i32 0
  %RAX = getelementptr inbounds %struct.State, %struct.State* %0, i64 0, i32 6, i32 1, i32 0, i32 0
  %3 = load i64, i64* %RAX, align 8
  %4 = load i64, i64* %PC, align 8
  %5 = add i64 %4, 4
  store i64 %5, i64* %PC, align 8
  %6 = add i64 %3, -1
  %7 = icmp eq i64 %3, 0
  %8 = zext i1 %7 to i8
  %9 = getelementptr inbounds %struct.State, %struct.State* %0, i64 0, i32 2, i32 1
  store i8 %8, i8* %9, align 1
  %10 = trunc i64 %6 to i32
  %11 = and i32 %10, 255
  %12 = tail call i32 @llvm.ctpop.i32(i32 %11)
  %13 = trunc i32 %12 to i8
  %14 = and i8 %13, 1
  %15 = xor i8 %14, 1
  %16 = getelementptr inbounds %struct.State, %struct.State* %0, i64 0, i32 2, i32 3
  store i8 %15, i8* %16, align 1
  %17 = xor i64 %3, %6
  %18 = lshr i64 %17, 4
  %19 = trunc i64 %18 to i8
  %20 = and i8 %19, 1
  %21 = getelementptr inbounds %struct.State, %struct.State* %0, i64 0, i32 2, i32 5
  store i8 %20, i8* %21, align 1
  %22 = icmp eq i64 %6, 0
  %23 = zext i1 %22 to i8
  %24 = getelementptr inbounds %struct.State, %struct.State* %0, i64 0, i32 2, i32 7
  store i8 %23, i8* %24, align 1
  %25 = lshr i64 %6, 63
  %26 = trunc i64 %25 to i8
  %27 = getelementptr inbounds %struct.State, %struct.State* %0, i64 0, i32 2, i32 9
  store i8 %26, i8* %27, align 1
  %28 = lshr i64 %3, 63
  %29 = xor i64 %25, %28
  %30 = add nuw nsw i64 %29, %28
  %31 = icmp eq i64 %30, 2
  %32 = zext i1 %31 to i8
  %33 = getelementptr inbounds %struct.State, %struct.State* %0, i64 0, i32 2, i32 13
  store i8 %32, i8* %33, align 1
  ret %struct.Memory* %2
}

define %struct.Memory* @routine_jle_.L_405587(%struct.State* dereferenceable(3376), i64, %struct.Memory*, i8* %BRANCH_TAKEN, i64 %rel_off1, i64 %rel_off2, i64 %rel_off3) local_unnamed_addr {
block_400478:
  %PC = getelementptr inbounds %struct.State, %struct.State* %0, i64 0, i32 6, i32 33, i32 0, i32 0
  %3 = load i64, i64* %PC, align 8
  %4 = getelementptr inbounds %struct.State, %struct.State* %0, i64 0, i32 2, i32 7
  %5 = load i8, i8* %4, align 1
  %6 = icmp ne i8 %5, 0
  %7 = getelementptr inbounds %struct.State, %struct.State* %0, i64 0, i32 2, i32 9
  %8 = load i8, i8* %7, align 1
  %9 = icmp ne i8 %8, 0
  %10 = getelementptr inbounds %struct.State, %struct.State* %0, i64 0, i32 2, i32 13
  %11 = load i8, i8* %10, align 1
  %12 = icmp ne i8 %11, 0
  %13 = xor i1 %9, %12
  %14 = or i1 %6, %13
  %15 = zext i1 %14 to i8
  store i8 %15, i8* %BRANCH_TAKEN, align 1
  %.v = select i1 %14, i64 %rel_off1, i64 %rel_off2
  %16 = add i64 %3, %.v
  store i64 %16, i64* %PC, align 8
  ret %struct.Memory* %2
}

define %struct.Memory* @routine_leaq_MINUS0x8__rbp____rdi(%struct.State* dereferenceable(3376), i64, %struct.Memory*) local_unnamed_addr {
block_400478:
  %PC = getelementptr inbounds %struct.State, %struct.State* %0, i64 0, i32 6, i32 33, i32 0, i32 0
  %RDI = getelementptr inbounds %struct.State, %struct.State* %0, i64 0, i32 6, i32 11, i32 0, i32 0
  %RBP = getelementptr inbounds %struct.State, %struct.State* %0, i64 0, i32 6, i32 15, i32 0, i32 0
  %3 = load i64, i64* %RBP, align 8
  %4 = add i64 %3, -8
  %5 = load i64, i64* %PC, align 8
  %6 = add i64 %5, 4
  store i64 %6, i64* %PC, align 8
  store i64 %4, i64* %RDI, align 8
  ret %struct.Memory* %2
}

define %struct.Memory* @routine_callq_._ZNK14PointerWrapperIdEdeEv(%struct.State* dereferenceable(3376), i64, %struct.Memory*, i64 %rel_off1, i64 %rel_off2, i64 %rel_off3) local_unnamed_addr {
block_400478:
  %PC = getelementptr inbounds %struct.State, %struct.State* %0, i64 0, i32 6, i32 33, i32 0, i32 0
  %3 = load i64, i64* %PC, align 8
  %4 = add i64 %3, %rel_off1
  %5 = add i64 %3, %rel_off2
  %6 = getelementptr inbounds %struct.State, %struct.State* %0, i64 0, i32 6, i32 13, i32 0, i32 0
  %7 = load i64, i64* %6, align 8
  %8 = add i64 %7, -8
  %9 = inttoptr i64 %8 to i64*
  store i64 %5, i64* %9, align 8
  store i64 %8, i64* %6, align 8
  store i64 %4, i64* %PC, align 8
  ret %struct.Memory* %2
}

define %struct.Memory* @routine_movsd___rax____xmm0(%struct.State* dereferenceable(3376), i64, %struct.Memory*) local_unnamed_addr {
block_400478:
  %PC = getelementptr inbounds %struct.State, %struct.State* %0, i64 0, i32 6, i32 33, i32 0, i32 0
  %RAX = getelementptr inbounds %struct.State, %struct.State* %0, i64 0, i32 6, i32 1, i32 0, i32 0
  %3 = bitcast i64* %RAX to i64**
  %4 = load i64*, i64** %3, align 8
  %5 = load i64, i64* %PC, align 8
  %6 = add i64 %5, 4
  store i64 %6, i64* %PC, align 8
  %7 = load i64, i64* %4, align 8
  %8 = getelementptr inbounds %struct.State, %struct.State* %0, i64 0, i32 1, i64 0, i32 0, i32 0, i32 0, i64 0
  store i64 %7, i64* %8, align 1
  %9 = getelementptr inbounds %struct.State, %struct.State* %0, i64 0, i32 1, i64 0, i32 0, i32 0, i32 0, i64 1
  %10 = bitcast i64* %9 to double*
  store double 0.000000e+00, double* %10, align 1
  ret %struct.Memory* %2
}

define %struct.Memory* @routine_movsd__xmm0__MINUS0x18__rbp_(%struct.State* dereferenceable(3376), i64, %struct.Memory*) local_unnamed_addr {
block_400478:
  %PC = getelementptr inbounds %struct.State, %struct.State* %0, i64 0, i32 6, i32 33, i32 0, i32 0
  %RBP = getelementptr inbounds %struct.State, %struct.State* %0, i64 0, i32 6, i32 15, i32 0, i32 0
  %3 = load i64, i64* %RBP, align 8
  %4 = add i64 %3, -24
  %5 = load i64, i64* %PC, align 8
  %6 = add i64 %5, 5
  store i64 %6, i64* %PC, align 8
  %7 = getelementptr inbounds %struct.State, %struct.State* %0, i64 0, i32 1, i64 0, i32 0, i32 0, i32 0, i64 0
  %8 = load i64, i64* %7, align 1
  %9 = inttoptr i64 %4 to i64*
  store i64 %8, i64* %9, align 8
  ret %struct.Memory* %2
}

define %struct.Memory* @routine_movq_MINUS0x8__rbp____rax(%struct.State* dereferenceable(3376), i64, %struct.Memory*) local_unnamed_addr {
block_400478:
  %PC = getelementptr inbounds %struct.State, %struct.State* %0, i64 0, i32 6, i32 33, i32 0, i32 0
  %RAX = getelementptr inbounds %struct.State, %struct.State* %0, i64 0, i32 6, i32 1, i32 0, i32 0
  %RBP = getelementptr inbounds %struct.State, %struct.State* %0, i64 0, i32 6, i32 15, i32 0, i32 0
  %3 = load i64, i64* %RBP, align 8
  %4 = add i64 %3, -8
  %5 = load i64, i64* %PC, align 8
  %6 = add i64 %5, 4
  store i64 %6, i64* %PC, align 8
  %7 = inttoptr i64 %4 to i64*
  %8 = load i64, i64* %7, align 8
  store i64 %8, i64* %RAX, align 8
  ret %struct.Memory* %2
}

define %struct.Memory* @routine_movq__rax__MINUS0x20__rbp_(%struct.State* dereferenceable(3376), i64, %struct.Memory*) local_unnamed_addr {
block_400478:
  %PC = getelementptr inbounds %struct.State, %struct.State* %0, i64 0, i32 6, i32 33, i32 0, i32 0
  %RAX = getelementptr inbounds %struct.State, %struct.State* %0, i64 0, i32 6, i32 1, i32 0, i32 0
  %RBP = getelementptr inbounds %struct.State, %struct.State* %0, i64 0, i32 6, i32 15, i32 0, i32 0
  %3 = load i64, i64* %RBP, align 8
  %4 = add i64 %3, -32
  %5 = load i64, i64* %RAX, align 8
  %6 = load i64, i64* %PC, align 8
  %7 = add i64 %6, 4
  store i64 %7, i64* %PC, align 8
  %8 = inttoptr i64 %4 to i64*
  store i64 %5, i64* %8, align 8
  ret %struct.Memory* %2
}

define %struct.Memory* @routine_movq_MINUS0x10__rbp____rax(%struct.State* dereferenceable(3376), i64, %struct.Memory*) local_unnamed_addr {
block_400478:
  %PC = getelementptr inbounds %struct.State, %struct.State* %0, i64 0, i32 6, i32 33, i32 0, i32 0
  %RAX = getelementptr inbounds %struct.State, %struct.State* %0, i64 0, i32 6, i32 1, i32 0, i32 0
  %RBP = getelementptr inbounds %struct.State, %struct.State* %0, i64 0, i32 6, i32 15, i32 0, i32 0
  %3 = load i64, i64* %RBP, align 8
  %4 = add i64 %3, -16
  %5 = load i64, i64* %PC, align 8
  %6 = add i64 %5, 4
  store i64 %6, i64* %PC, align 8
  %7 = inttoptr i64 %4 to i64*
  %8 = load i64, i64* %7, align 8
  store i64 %8, i64* %RAX, align 8
  ret %struct.Memory* %2
}

define %struct.Memory* @routine_movq__rax__MINUS0x28__rbp_(%struct.State* dereferenceable(3376), i64, %struct.Memory*) local_unnamed_addr {
block_400478:
  %PC = getelementptr inbounds %struct.State, %struct.State* %0, i64 0, i32 6, i32 33, i32 0, i32 0
  %RAX = getelementptr inbounds %struct.State, %struct.State* %0, i64 0, i32 6, i32 1, i32 0, i32 0
  %RBP = getelementptr inbounds %struct.State, %struct.State* %0, i64 0, i32 6, i32 15, i32 0, i32 0
  %3 = load i64, i64* %RBP, align 8
  %4 = add i64 %3, -40
  %5 = load i64, i64* %RAX, align 8
  %6 = load i64, i64* %PC, align 8
  %7 = add i64 %6, 4
  store i64 %7, i64* %PC, align 8
  %8 = inttoptr i64 %4 to i64*
  store i64 %5, i64* %8, align 8
  ret %struct.Memory* %2
}

define %struct.Memory* @routine_jmpq_.L_405444(%struct.State* dereferenceable(3376), i64, %struct.Memory*, i64 %rel_off1, i64 %rel_off2) local_unnamed_addr {
block_400478:
  %PC = getelementptr inbounds %struct.State, %struct.State* %0, i64 0, i32 6, i32 33, i32 0, i32 0
  %3 = load i64, i64* %PC, align 8
  %4 = add i64 %3, %rel_off1
  store i64 %4, i64* %PC, align 8
  ret %struct.Memory* %2
}

define %struct.Memory* @routine_leaq_MINUS0x28__rbp____rdi(%struct.State* dereferenceable(3376), i64, %struct.Memory*) local_unnamed_addr {
block_400478:
  %PC = getelementptr inbounds %struct.State, %struct.State* %0, i64 0, i32 6, i32 33, i32 0, i32 0
  %RDI = getelementptr inbounds %struct.State, %struct.State* %0, i64 0, i32 6, i32 11, i32 0, i32 0
  %RBP = getelementptr inbounds %struct.State, %struct.State* %0, i64 0, i32 6, i32 15, i32 0, i32 0
  %3 = load i64, i64* %RBP, align 8
  %4 = add i64 %3, -40
  %5 = load i64, i64* %PC, align 8
  %6 = add i64 %5, 4
  store i64 %6, i64* %PC, align 8
  store i64 %4, i64* %RDI, align 8
  ret %struct.Memory* %2
}

define %struct.Memory* @routine_movsd_MINUS0x18__rbp____xmm0(%struct.State* dereferenceable(3376), i64, %struct.Memory*) local_unnamed_addr {
block_400478:
  %PC = getelementptr inbounds %struct.State, %struct.State* %0, i64 0, i32 6, i32 33, i32 0, i32 0
  %RBP = getelementptr inbounds %struct.State, %struct.State* %0, i64 0, i32 6, i32 15, i32 0, i32 0
  %3 = load i64, i64* %RBP, align 8
  %4 = add i64 %3, -24
  %5 = load i64, i64* %PC, align 8
  %6 = add i64 %5, 5
  store i64 %6, i64* %PC, align 8
  %7 = inttoptr i64 %4 to i64*
  %8 = load i64, i64* %7, align 8
  %9 = getelementptr inbounds %struct.State, %struct.State* %0, i64 0, i32 1, i64 0, i32 0, i32 0, i32 0, i64 0
  store i64 %8, i64* %9, align 1
  %10 = getelementptr inbounds %struct.State, %struct.State* %0, i64 0, i32 1, i64 0, i32 0, i32 0, i32 0, i64 1
  %11 = bitcast i64* %10 to double*
  store double 0.000000e+00, double* %11, align 1
  ret %struct.Memory* %2
}

define %struct.Memory* @routine_movsd__xmm0__MINUS0x58__rbp_(%struct.State* dereferenceable(3376), i64, %struct.Memory*) local_unnamed_addr {
block_400478:
  %PC = getelementptr inbounds %struct.State, %struct.State* %0, i64 0, i32 6, i32 33, i32 0, i32 0
  %RBP = getelementptr inbounds %struct.State, %struct.State* %0, i64 0, i32 6, i32 15, i32 0, i32 0
  %3 = load i64, i64* %RBP, align 8
  %4 = add i64 %3, -88
  %5 = load i64, i64* %PC, align 8
  %6 = add i64 %5, 5
  store i64 %6, i64* %PC, align 8
  %7 = getelementptr inbounds %struct.State, %struct.State* %0, i64 0, i32 1, i64 0, i32 0, i32 0, i32 0, i64 0
  %8 = load i64, i64* %7, align 1
  %9 = inttoptr i64 %4 to i64*
  store i64 %8, i64* %9, align 8
  ret %struct.Memory* %2
}

define %struct.Memory* @routine_callq_._ZmmIdER14PointerWrapperIT_ES3_(%struct.State* dereferenceable(3376), i64, %struct.Memory*, i64 %rel_off1, i64 %rel_off2, i64 %rel_off3) local_unnamed_addr {
block_400478:
  %PC = getelementptr inbounds %struct.State, %struct.State* %0, i64 0, i32 6, i32 33, i32 0, i32 0
  %3 = load i64, i64* %PC, align 8
  %4 = add i64 %3, %rel_off1
  %5 = add i64 %3, %rel_off2
  %6 = getelementptr inbounds %struct.State, %struct.State* %0, i64 0, i32 6, i32 13, i32 0, i32 0
  %7 = load i64, i64* %6, align 8
  %8 = add i64 %7, -8
  %9 = inttoptr i64 %8 to i64*
  store i64 %5, i64* %9, align 8
  store i64 %8, i64* %6, align 8
  store i64 %4, i64* %PC, align 8
  ret %struct.Memory* %2
}

define %struct.Memory* @routine_movsd_MINUS0x58__rbp____xmm1(%struct.State* dereferenceable(3376), i64, %struct.Memory*) local_unnamed_addr {
block_400478:
  %PC = getelementptr inbounds %struct.State, %struct.State* %0, i64 0, i32 6, i32 33, i32 0, i32 0
  %RBP = getelementptr inbounds %struct.State, %struct.State* %0, i64 0, i32 6, i32 15, i32 0, i32 0
  %3 = load i64, i64* %RBP, align 8
  %4 = add i64 %3, -88
  %5 = load i64, i64* %PC, align 8
  %6 = add i64 %5, 5
  store i64 %6, i64* %PC, align 8
  %7 = inttoptr i64 %4 to i64*
  %8 = load i64, i64* %7, align 8
  %9 = getelementptr inbounds %struct.State, %struct.State* %0, i64 0, i32 1, i64 1, i32 0, i32 0, i32 0, i64 0
  store i64 %8, i64* %9, align 1
  %10 = getelementptr inbounds %struct.State, %struct.State* %0, i64 0, i32 1, i64 1, i32 0, i32 0, i32 0, i64 1
  %11 = bitcast i64* %10 to double*
  store double 0.000000e+00, double* %11, align 1
  ret %struct.Memory* %2
}

define %struct.Memory* @routine_ucomisd__xmm1___xmm0(%struct.State* dereferenceable(3376), i64, %struct.Memory*) local_unnamed_addr {
block_400478:
  %PC = getelementptr inbounds %struct.State, %struct.State* %0, i64 0, i32 6, i32 33, i32 0, i32 0
  %3 = getelementptr inbounds %struct.State, %struct.State* %0, i64 0, i32 1
  %4 = getelementptr inbounds %struct.State, %struct.State* %0, i64 0, i32 1, i64 1
  %5 = load i64, i64* %PC, align 8
  %6 = add i64 %5, 4
  store i64 %6, i64* %PC, align 8
  %7 = bitcast [32 x %union.VectorReg]* %3 to double*
  %8 = load double, double* %7, align 1
  %9 = bitcast %union.VectorReg* %4 to double*
  %10 = load double, double* %9, align 1
  %11 = fcmp uno double %8, %10
  br i1 %11, label %12, label %22

; <label>:12:                                     ; preds = %block_400478
  %13 = fadd double %8, %10
  %14 = bitcast double %13 to i64
  %15 = and i64 %14, 9221120237041090560
  %16 = icmp eq i64 %15, 9218868437227405312
  %17 = and i64 %14, 2251799813685247
  %18 = icmp ne i64 %17, 0
  %19 = and i1 %16, %18
  br i1 %19, label %20, label %28

; <label>:20:                                     ; preds = %12
  %21 = tail call %struct.Memory* @__remill_error(%struct.State* nonnull dereferenceable(3376) %0, i64 %6, %struct.Memory* %2)
  br label %_ZN12_GLOBAL__N_1L6COMISDI2VnI8vec128_tES3_EEP6MemoryS5_R5StateT_T0_.exit

; <label>:22:                                     ; preds = %block_400478
  %23 = fcmp ogt double %8, %10
  br i1 %23, label %28, label %24

; <label>:24:                                     ; preds = %22
  %25 = fcmp olt double %8, %10
  br i1 %25, label %28, label %26

; <label>:26:                                     ; preds = %24
  %27 = fcmp oeq double %8, %10
  br i1 %27, label %28, label %35

; <label>:28:                                     ; preds = %26, %24, %22, %12
  %29 = phi i8 [ 0, %22 ], [ 0, %24 ], [ 1, %26 ], [ 1, %12 ]
  %30 = phi i8 [ 0, %22 ], [ 0, %24 ], [ 0, %26 ], [ 1, %12 ]
  %31 = phi i8 [ 0, %22 ], [ 1, %24 ], [ 0, %26 ], [ 1, %12 ]
  %32 = getelementptr inbounds %struct.State, %struct.State* %0, i64 0, i32 2, i32 7
  store i8 %29, i8* %32, align 1
  %33 = getelementptr inbounds %struct.State, %struct.State* %0, i64 0, i32 2, i32 3
  store i8 %30, i8* %33, align 1
  %34 = getelementptr inbounds %struct.State, %struct.State* %0, i64 0, i32 2, i32 1
  store i8 %31, i8* %34, align 1
  br label %35

; <label>:35:                                     ; preds = %28, %26
  %36 = getelementptr inbounds %struct.State, %struct.State* %0, i64 0, i32 2, i32 13
  store i8 0, i8* %36, align 1
  %37 = getelementptr inbounds %struct.State, %struct.State* %0, i64 0, i32 2, i32 9
  store i8 0, i8* %37, align 1
  %38 = getelementptr inbounds %struct.State, %struct.State* %0, i64 0, i32 2, i32 5
  store i8 0, i8* %38, align 1
  br label %_ZN12_GLOBAL__N_1L6COMISDI2VnI8vec128_tES3_EEP6MemoryS5_R5StateT_T0_.exit

_ZN12_GLOBAL__N_1L6COMISDI2VnI8vec128_tES3_EEP6MemoryS5_R5StateT_T0_.exit: ; preds = %35, %20
  %39 = phi %struct.Memory* [ %21, %20 ], [ %2, %35 ]
  ret %struct.Memory* %39
}

define %struct.Memory* @routine_jbe_.L_405477(%struct.State* dereferenceable(3376), i64, %struct.Memory*, i8* %BRANCH_TAKEN, i64 %rel_off1, i64 %rel_off2, i64 %rel_off3) local_unnamed_addr {
block_400478:
  %PC = getelementptr inbounds %struct.State, %struct.State* %0, i64 0, i32 6, i32 33, i32 0, i32 0
  %3 = load i64, i64* %PC, align 8
  %4 = getelementptr inbounds %struct.State, %struct.State* %0, i64 0, i32 2, i32 1
  %5 = load i8, i8* %4, align 1
  %6 = getelementptr inbounds %struct.State, %struct.State* %0, i64 0, i32 2, i32 7
  %7 = load i8, i8* %6, align 1
  %8 = or i8 %7, %5
  %9 = icmp ne i8 %8, 0
  %10 = zext i1 %9 to i8
  store i8 %10, i8* %BRANCH_TAKEN, align 1
  %.v = select i1 %9, i64 %rel_off1, i64 %rel_off2
  %11 = add i64 %3, %.v
  store i64 %11, i64* %PC, align 8
  ret %struct.Memory* %2
}

define %struct.Memory* @routine_leaq_MINUS0x20__rbp____rdi(%struct.State* dereferenceable(3376), i64, %struct.Memory*) local_unnamed_addr {
block_400478:
  %PC = getelementptr inbounds %struct.State, %struct.State* %0, i64 0, i32 6, i32 33, i32 0, i32 0
  %RDI = getelementptr inbounds %struct.State, %struct.State* %0, i64 0, i32 6, i32 11, i32 0, i32 0
  %RBP = getelementptr inbounds %struct.State, %struct.State* %0, i64 0, i32 6, i32 15, i32 0, i32 0
  %3 = load i64, i64* %RBP, align 8
  %4 = add i64 %3, -32
  %5 = load i64, i64* %PC, align 8
  %6 = add i64 %5, 4
  store i64 %6, i64* %PC, align 8
  store i64 %4, i64* %RDI, align 8
  ret %struct.Memory* %2
}

define %struct.Memory* @routine_leaq_MINUS0x28__rbp____rsi(%struct.State* dereferenceable(3376), i64, %struct.Memory*) local_unnamed_addr {
block_400478:
  %PC = getelementptr inbounds %struct.State, %struct.State* %0, i64 0, i32 6, i32 33, i32 0, i32 0
  %RSI = getelementptr inbounds %struct.State, %struct.State* %0, i64 0, i32 6, i32 9, i32 0, i32 0
  %RBP = getelementptr inbounds %struct.State, %struct.State* %0, i64 0, i32 6, i32 15, i32 0, i32 0
  %3 = load i64, i64* %RBP, align 8
  %4 = add i64 %3, -40
  %5 = load i64, i64* %PC, align 8
  %6 = add i64 %5, 4
  store i64 %6, i64* %PC, align 8
  store i64 %4, i64* %RSI, align 8
  ret %struct.Memory* %2
}

define %struct.Memory* @routine_callq_._ZltIdEbRK14PointerWrapperIT_ES4_(%struct.State* dereferenceable(3376), i64, %struct.Memory*, i64 %rel_off1, i64 %rel_off2, i64 %rel_off3) local_unnamed_addr {
block_400478:
  %PC = getelementptr inbounds %struct.State, %struct.State* %0, i64 0, i32 6, i32 33, i32 0, i32 0
  %3 = load i64, i64* %PC, align 8
  %4 = add i64 %3, %rel_off1
  %5 = add i64 %3, %rel_off2
  %6 = getelementptr inbounds %struct.State, %struct.State* %0, i64 0, i32 6, i32 13, i32 0, i32 0
  %7 = load i64, i64* %6, align 8
  %8 = add i64 %7, -8
  %9 = inttoptr i64 %8 to i64*
  store i64 %5, i64* %9, align 8
  store i64 %8, i64* %6, align 8
  store i64 %4, i64* %PC, align 8
  ret %struct.Memory* %2
}

define %struct.Memory* @routine_testb__0x1___al(%struct.State* dereferenceable(3376), i64, %struct.Memory*) local_unnamed_addr {
block_400478:
  %PC = getelementptr inbounds %struct.State, %struct.State* %0, i64 0, i32 6, i32 33, i32 0, i32 0
  %3 = getelementptr inbounds %struct.State, %struct.State* %0, i64 0, i32 6, i32 1, i32 0
  %AL = bitcast %union.anon* %3 to i8*
  %4 = load i8, i8* %AL, align 1
  %5 = load i64, i64* %PC, align 8
  %6 = add i64 %5, 2
  store i64 %6, i64* %PC, align 8
  %7 = and i8 %4, 1
  %8 = getelementptr inbounds %struct.State, %struct.State* %0, i64 0, i32 2, i32 1
  store i8 0, i8* %8, align 1
  %9 = zext i8 %7 to i32
  %10 = tail call i32 @llvm.ctpop.i32(i32 %9)
  %11 = trunc i32 %10 to i8
  %12 = xor i8 %11, 1
  %13 = getelementptr inbounds %struct.State, %struct.State* %0, i64 0, i32 2, i32 3
  store i8 %12, i8* %13, align 1
  %14 = xor i8 %7, 1
  %15 = getelementptr inbounds %struct.State, %struct.State* %0, i64 0, i32 2, i32 7
  store i8 %14, i8* %15, align 1
  %16 = getelementptr inbounds %struct.State, %struct.State* %0, i64 0, i32 2, i32 9
  store i8 0, i8* %16, align 1
  %17 = getelementptr inbounds %struct.State, %struct.State* %0, i64 0, i32 2, i32 13
  store i8 0, i8* %17, align 1
  %18 = getelementptr inbounds %struct.State, %struct.State* %0, i64 0, i32 2, i32 5
  store i8 0, i8* %18, align 1
  ret %struct.Memory* %2
}

define %struct.Memory* @routine_jne_.L_405491(%struct.State* dereferenceable(3376), i64, %struct.Memory*, i8* %BRANCH_TAKEN, i64 %rel_off1, i64 %rel_off2, i64 %rel_off3) local_unnamed_addr {
block_400478:
  %PC = getelementptr inbounds %struct.State, %struct.State* %0, i64 0, i32 6, i32 33, i32 0, i32 0
  %3 = load i64, i64* %PC, align 8
  %4 = getelementptr inbounds %struct.State, %struct.State* %0, i64 0, i32 2, i32 7
  %5 = load i8, i8* %4, align 1
  %6 = icmp eq i8 %5, 0
  %7 = zext i1 %6 to i8
  store i8 %7, i8* %BRANCH_TAKEN, align 1
  %.v = select i1 %6, i64 %rel_off1, i64 %rel_off2
  %8 = add i64 %3, %.v
  store i64 %8, i64* %PC, align 8
  ret %struct.Memory* %2
}

define %struct.Memory* @routine_jmpq_.L_405535(%struct.State* dereferenceable(3376), i64, %struct.Memory*, i64 %rel_off1, i64 %rel_off2) local_unnamed_addr {
block_400478:
  %PC = getelementptr inbounds %struct.State, %struct.State* %0, i64 0, i32 6, i32 33, i32 0, i32 0
  %3 = load i64, i64* %PC, align 8
  %4 = add i64 %3, %rel_off1
  store i64 %4, i64* %PC, align 8
  ret %struct.Memory* %2
}

define %struct.Memory* @routine_jmpq_.L_405496(%struct.State* dereferenceable(3376), i64, %struct.Memory*, i64 %rel_off1, i64 %rel_off2) local_unnamed_addr {
block_400478:
  %PC = getelementptr inbounds %struct.State, %struct.State* %0, i64 0, i32 6, i32 33, i32 0, i32 0
  %3 = load i64, i64* %PC, align 8
  %4 = add i64 %3, %rel_off1
  store i64 %4, i64* %PC, align 8
  ret %struct.Memory* %2
}

define %struct.Memory* @routine_movsd_MINUS0x18__rbp____xmm1(%struct.State* dereferenceable(3376), i64, %struct.Memory*) local_unnamed_addr {
block_400478:
  %PC = getelementptr inbounds %struct.State, %struct.State* %0, i64 0, i32 6, i32 33, i32 0, i32 0
  %RBP = getelementptr inbounds %struct.State, %struct.State* %0, i64 0, i32 6, i32 15, i32 0, i32 0
  %3 = load i64, i64* %RBP, align 8
  %4 = add i64 %3, -24
  %5 = load i64, i64* %PC, align 8
  %6 = add i64 %5, 5
  store i64 %6, i64* %PC, align 8
  %7 = inttoptr i64 %4 to i64*
  %8 = load i64, i64* %7, align 8
  %9 = getelementptr inbounds %struct.State, %struct.State* %0, i64 0, i32 1, i64 1, i32 0, i32 0, i32 0, i64 0
  store i64 %8, i64* %9, align 1
  %10 = getelementptr inbounds %struct.State, %struct.State* %0, i64 0, i32 1, i64 1, i32 0, i32 0, i32 0, i64 1
  %11 = bitcast i64* %10 to double*
  store double 0.000000e+00, double* %11, align 1
  ret %struct.Memory* %2
}

define %struct.Memory* @routine_ucomisd__xmm0___xmm1(%struct.State* dereferenceable(3376), i64, %struct.Memory*) local_unnamed_addr {
block_400478:
  %PC = getelementptr inbounds %struct.State, %struct.State* %0, i64 0, i32 6, i32 33, i32 0, i32 0
  %3 = getelementptr inbounds %struct.State, %struct.State* %0, i64 0, i32 1
  %4 = getelementptr inbounds %struct.State, %struct.State* %0, i64 0, i32 1, i64 1
  %5 = load i64, i64* %PC, align 8
  %6 = add i64 %5, 4
  store i64 %6, i64* %PC, align 8
  %7 = bitcast %union.VectorReg* %4 to double*
  %8 = load double, double* %7, align 1
  %9 = bitcast [32 x %union.VectorReg]* %3 to double*
  %10 = load double, double* %9, align 1
  %11 = fcmp uno double %8, %10
  br i1 %11, label %12, label %22

; <label>:12:                                     ; preds = %block_400478
  %13 = fadd double %8, %10
  %14 = bitcast double %13 to i64
  %15 = and i64 %14, 9221120237041090560
  %16 = icmp eq i64 %15, 9218868437227405312
  %17 = and i64 %14, 2251799813685247
  %18 = icmp ne i64 %17, 0
  %19 = and i1 %16, %18
  br i1 %19, label %20, label %28

; <label>:20:                                     ; preds = %12
  %21 = tail call %struct.Memory* @__remill_error(%struct.State* nonnull dereferenceable(3376) %0, i64 %6, %struct.Memory* %2)
  br label %_ZN12_GLOBAL__N_1L6COMISDI2VnI8vec128_tES3_EEP6MemoryS5_R5StateT_T0_.exit

; <label>:22:                                     ; preds = %block_400478
  %23 = fcmp ogt double %8, %10
  br i1 %23, label %28, label %24

; <label>:24:                                     ; preds = %22
  %25 = fcmp olt double %8, %10
  br i1 %25, label %28, label %26

; <label>:26:                                     ; preds = %24
  %27 = fcmp oeq double %8, %10
  br i1 %27, label %28, label %35

; <label>:28:                                     ; preds = %26, %24, %22, %12
  %29 = phi i8 [ 0, %22 ], [ 0, %24 ], [ 1, %26 ], [ 1, %12 ]
  %30 = phi i8 [ 0, %22 ], [ 0, %24 ], [ 0, %26 ], [ 1, %12 ]
  %31 = phi i8 [ 0, %22 ], [ 1, %24 ], [ 0, %26 ], [ 1, %12 ]
  %32 = getelementptr inbounds %struct.State, %struct.State* %0, i64 0, i32 2, i32 7
  store i8 %29, i8* %32, align 1
  %33 = getelementptr inbounds %struct.State, %struct.State* %0, i64 0, i32 2, i32 3
  store i8 %30, i8* %33, align 1
  %34 = getelementptr inbounds %struct.State, %struct.State* %0, i64 0, i32 2, i32 1
  store i8 %31, i8* %34, align 1
  br label %35

; <label>:35:                                     ; preds = %28, %26
  %36 = getelementptr inbounds %struct.State, %struct.State* %0, i64 0, i32 2, i32 13
  store i8 0, i8* %36, align 1
  %37 = getelementptr inbounds %struct.State, %struct.State* %0, i64 0, i32 2, i32 9
  store i8 0, i8* %37, align 1
  %38 = getelementptr inbounds %struct.State, %struct.State* %0, i64 0, i32 2, i32 5
  store i8 0, i8* %38, align 1
  br label %_ZN12_GLOBAL__N_1L6COMISDI2VnI8vec128_tES3_EEP6MemoryS5_R5StateT_T0_.exit

_ZN12_GLOBAL__N_1L6COMISDI2VnI8vec128_tES3_EEP6MemoryS5_R5StateT_T0_.exit: ; preds = %35, %20
  %39 = phi %struct.Memory* [ %21, %20 ], [ %2, %35 ]
  ret %struct.Memory* %39
}

define %struct.Memory* @routine_jbe_.L_4054c4(%struct.State* dereferenceable(3376), i64, %struct.Memory*, i8* %BRANCH_TAKEN, i64 %rel_off1, i64 %rel_off2, i64 %rel_off3) local_unnamed_addr {
block_400478:
  %PC = getelementptr inbounds %struct.State, %struct.State* %0, i64 0, i32 6, i32 33, i32 0, i32 0
  %3 = load i64, i64* %PC, align 8
  %4 = getelementptr inbounds %struct.State, %struct.State* %0, i64 0, i32 2, i32 1
  %5 = load i8, i8* %4, align 1
  %6 = getelementptr inbounds %struct.State, %struct.State* %0, i64 0, i32 2, i32 7
  %7 = load i8, i8* %6, align 1
  %8 = or i8 %7, %5
  %9 = icmp ne i8 %8, 0
  %10 = zext i1 %9 to i8
  store i8 %10, i8* %BRANCH_TAKEN, align 1
  %.v = select i1 %9, i64 %rel_off1, i64 %rel_off2
  %11 = add i64 %3, %.v
  store i64 %11, i64* %PC, align 8
  ret %struct.Memory* %2
}

define %struct.Memory* @routine_callq_._ZppIdER14PointerWrapperIT_ES3_(%struct.State* dereferenceable(3376), i64, %struct.Memory*, i64 %rel_off1, i64 %rel_off2, i64 %rel_off3) local_unnamed_addr {
block_400478:
  %PC = getelementptr inbounds %struct.State, %struct.State* %0, i64 0, i32 6, i32 33, i32 0, i32 0
  %3 = load i64, i64* %PC, align 8
  %4 = add i64 %3, %rel_off1
  %5 = add i64 %3, %rel_off2
  %6 = getelementptr inbounds %struct.State, %struct.State* %0, i64 0, i32 6, i32 13, i32 0, i32 0
  %7 = load i64, i64* %6, align 8
  %8 = add i64 %7, -8
  %9 = inttoptr i64 %8 to i64*
  store i64 %5, i64* %9, align 8
  store i64 %8, i64* %6, align 8
  store i64 %4, i64* %PC, align 8
  ret %struct.Memory* %2
}

define %struct.Memory* @routine_movq__rax__MINUS0x60__rbp_(%struct.State* dereferenceable(3376), i64, %struct.Memory*) local_unnamed_addr {
block_400478:
  %PC = getelementptr inbounds %struct.State, %struct.State* %0, i64 0, i32 6, i32 33, i32 0, i32 0
  %RAX = getelementptr inbounds %struct.State, %struct.State* %0, i64 0, i32 6, i32 1, i32 0, i32 0
  %RBP = getelementptr inbounds %struct.State, %struct.State* %0, i64 0, i32 6, i32 15, i32 0, i32 0
  %3 = load i64, i64* %RBP, align 8
  %4 = add i64 %3, -96
  %5 = load i64, i64* %RAX, align 8
  %6 = load i64, i64* %PC, align 8
  %7 = add i64 %6, 4
  store i64 %7, i64* %PC, align 8
  %8 = inttoptr i64 %4 to i64*
  store i64 %5, i64* %8, align 8
  ret %struct.Memory* %2
}

define %struct.Memory* @routine_jne_.L_4054de(%struct.State* dereferenceable(3376), i64, %struct.Memory*, i8* %BRANCH_TAKEN, i64 %rel_off1, i64 %rel_off2, i64 %rel_off3) local_unnamed_addr {
block_400478:
  %PC = getelementptr inbounds %struct.State, %struct.State* %0, i64 0, i32 6, i32 33, i32 0, i32 0
  %3 = load i64, i64* %PC, align 8
  %4 = getelementptr inbounds %struct.State, %struct.State* %0, i64 0, i32 2, i32 7
  %5 = load i8, i8* %4, align 1
  %6 = icmp eq i8 %5, 0
  %7 = zext i1 %6 to i8
  store i8 %7, i8* %BRANCH_TAKEN, align 1
  %.v = select i1 %6, i64 %rel_off1, i64 %rel_off2
  %8 = add i64 %3, %.v
  store i64 %8, i64* %PC, align 8
  ret %struct.Memory* %2
}

define %struct.Memory* @routine_movsd__xmm0__MINUS0x30__rbp_(%struct.State* dereferenceable(3376), i64, %struct.Memory*) local_unnamed_addr {
block_400478:
  %PC = getelementptr inbounds %struct.State, %struct.State* %0, i64 0, i32 6, i32 33, i32 0, i32 0
  %RBP = getelementptr inbounds %struct.State, %struct.State* %0, i64 0, i32 6, i32 15, i32 0, i32 0
  %3 = load i64, i64* %RBP, align 8
  %4 = add i64 %3, -48
  %5 = load i64, i64* %PC, align 8
  %6 = add i64 %5, 5
  store i64 %6, i64* %PC, align 8
  %7 = getelementptr inbounds %struct.State, %struct.State* %0, i64 0, i32 1, i64 0, i32 0, i32 0, i32 0, i64 0
  %8 = load i64, i64* %7, align 1
  %9 = inttoptr i64 %4 to i64*
  store i64 %8, i64* %9, align 8
  ret %struct.Memory* %2
}

define %struct.Memory* @routine_movsd__xmm0__MINUS0x68__rbp_(%struct.State* dereferenceable(3376), i64, %struct.Memory*) local_unnamed_addr {
block_400478:
  %PC = getelementptr inbounds %struct.State, %struct.State* %0, i64 0, i32 6, i32 33, i32 0, i32 0
  %RBP = getelementptr inbounds %struct.State, %struct.State* %0, i64 0, i32 6, i32 15, i32 0, i32 0
  %3 = load i64, i64* %RBP, align 8
  %4 = add i64 %3, -104
  %5 = load i64, i64* %PC, align 8
  %6 = add i64 %5, 5
  store i64 %6, i64* %PC, align 8
  %7 = getelementptr inbounds %struct.State, %struct.State* %0, i64 0, i32 1, i64 0, i32 0, i32 0, i32 0, i64 0
  %8 = load i64, i64* %7, align 1
  %9 = inttoptr i64 %4 to i64*
  store i64 %8, i64* %9, align 8
  ret %struct.Memory* %2
}

define %struct.Memory* @routine_movsd_MINUS0x68__rbp____xmm0(%struct.State* dereferenceable(3376), i64, %struct.Memory*) local_unnamed_addr {
block_400478:
  %PC = getelementptr inbounds %struct.State, %struct.State* %0, i64 0, i32 6, i32 33, i32 0, i32 0
  %RBP = getelementptr inbounds %struct.State, %struct.State* %0, i64 0, i32 6, i32 15, i32 0, i32 0
  %3 = load i64, i64* %RBP, align 8
  %4 = add i64 %3, -104
  %5 = load i64, i64* %PC, align 8
  %6 = add i64 %5, 5
  store i64 %6, i64* %PC, align 8
  %7 = inttoptr i64 %4 to i64*
  %8 = load i64, i64* %7, align 8
  %9 = getelementptr inbounds %struct.State, %struct.State* %0, i64 0, i32 1, i64 0, i32 0, i32 0, i32 0, i64 0
  store i64 %8, i64* %9, align 1
  %10 = getelementptr inbounds %struct.State, %struct.State* %0, i64 0, i32 1, i64 0, i32 0, i32 0, i32 0, i64 1
  %11 = bitcast i64* %10 to double*
  store double 0.000000e+00, double* %11, align 1
  ret %struct.Memory* %2
}

define %struct.Memory* @routine_movsd__xmm0____rax_(%struct.State* dereferenceable(3376), i64, %struct.Memory*) local_unnamed_addr {
block_400478:
  %PC = getelementptr inbounds %struct.State, %struct.State* %0, i64 0, i32 6, i32 33, i32 0, i32 0
  %RAX = getelementptr inbounds %struct.State, %struct.State* %0, i64 0, i32 6, i32 1, i32 0, i32 0
  %3 = bitcast i64* %RAX to i64**
  %4 = load i64*, i64** %3, align 8
  %5 = load i64, i64* %PC, align 8
  %6 = add i64 %5, 4
  store i64 %6, i64* %PC, align 8
  %7 = getelementptr inbounds %struct.State, %struct.State* %0, i64 0, i32 1, i64 0, i32 0, i32 0, i32 0, i64 0
  %8 = load i64, i64* %7, align 1
  store i64 %8, i64* %4, align 8
  ret %struct.Memory* %2
}

define %struct.Memory* @routine_movsd_MINUS0x30__rbp____xmm0(%struct.State* dereferenceable(3376), i64, %struct.Memory*) local_unnamed_addr {
block_400478:
  %PC = getelementptr inbounds %struct.State, %struct.State* %0, i64 0, i32 6, i32 33, i32 0, i32 0
  %RBP = getelementptr inbounds %struct.State, %struct.State* %0, i64 0, i32 6, i32 15, i32 0, i32 0
  %3 = load i64, i64* %RBP, align 8
  %4 = add i64 %3, -48
  %5 = load i64, i64* %PC, align 8
  %6 = add i64 %5, 5
  store i64 %6, i64* %PC, align 8
  %7 = inttoptr i64 %4 to i64*
  %8 = load i64, i64* %7, align 8
  %9 = getelementptr inbounds %struct.State, %struct.State* %0, i64 0, i32 1, i64 0, i32 0, i32 0, i32 0, i64 0
  store i64 %8, i64* %9, align 1
  %10 = getelementptr inbounds %struct.State, %struct.State* %0, i64 0, i32 1, i64 0, i32 0, i32 0, i32 0, i64 1
  %11 = bitcast i64* %10 to double*
  store double 0.000000e+00, double* %11, align 1
  ret %struct.Memory* %2
}

define %struct.Memory* @routine_movsd__xmm0__MINUS0x70__rbp_(%struct.State* dereferenceable(3376), i64, %struct.Memory*) local_unnamed_addr {
block_400478:
  %PC = getelementptr inbounds %struct.State, %struct.State* %0, i64 0, i32 6, i32 33, i32 0, i32 0
  %RBP = getelementptr inbounds %struct.State, %struct.State* %0, i64 0, i32 6, i32 15, i32 0, i32 0
  %3 = load i64, i64* %RBP, align 8
  %4 = add i64 %3, -112
  %5 = load i64, i64* %PC, align 8
  %6 = add i64 %5, 5
  store i64 %6, i64* %PC, align 8
  %7 = getelementptr inbounds %struct.State, %struct.State* %0, i64 0, i32 1, i64 0, i32 0, i32 0, i32 0, i64 0
  %8 = load i64, i64* %7, align 1
  %9 = inttoptr i64 %4 to i64*
  store i64 %8, i64* %9, align 8
  ret %struct.Memory* %2
}

define %struct.Memory* @routine_movsd_MINUS0x70__rbp____xmm0(%struct.State* dereferenceable(3376), i64, %struct.Memory*) local_unnamed_addr {
block_400478:
  %PC = getelementptr inbounds %struct.State, %struct.State* %0, i64 0, i32 6, i32 33, i32 0, i32 0
  %RBP = getelementptr inbounds %struct.State, %struct.State* %0, i64 0, i32 6, i32 15, i32 0, i32 0
  %3 = load i64, i64* %RBP, align 8
  %4 = add i64 %3, -112
  %5 = load i64, i64* %PC, align 8
  %6 = add i64 %5, 5
  store i64 %6, i64* %PC, align 8
  %7 = inttoptr i64 %4 to i64*
  %8 = load i64, i64* %7, align 8
  %9 = getelementptr inbounds %struct.State, %struct.State* %0, i64 0, i32 1, i64 0, i32 0, i32 0, i32 0, i64 0
  store i64 %8, i64* %9, align 1
  %10 = getelementptr inbounds %struct.State, %struct.State* %0, i64 0, i32 1, i64 0, i32 0, i32 0, i32 0, i64 1
  %11 = bitcast i64* %10 to double*
  store double 0.000000e+00, double* %11, align 1
  ret %struct.Memory* %2
}

define %struct.Memory* @routine_jmpq_.L_40543f(%struct.State* dereferenceable(3376), i64, %struct.Memory*, i64 %rel_off1, i64 %rel_off2) local_unnamed_addr {
block_400478:
  %PC = getelementptr inbounds %struct.State, %struct.State* %0, i64 0, i32 6, i32 33, i32 0, i32 0
  %3 = load i64, i64* %PC, align 8
  %4 = add i64 %3, %rel_off1
  store i64 %4, i64* %PC, align 8
  ret %struct.Memory* %2
}

define %struct.Memory* @routine_movl__0x1___eax(%struct.State* dereferenceable(3376), i64, %struct.Memory*) local_unnamed_addr {
block_400478:
  %PC = getelementptr inbounds %struct.State, %struct.State* %0, i64 0, i32 6, i32 33, i32 0, i32 0
  %RAX = getelementptr inbounds %struct.State, %struct.State* %0, i64 0, i32 6, i32 1, i32 0, i32 0
  %3 = load i64, i64* %PC, align 8
  %4 = add i64 %3, 5
  store i64 %4, i64* %PC, align 8
  store i64 1, i64* %RAX, align 8
  ret %struct.Memory* %2
}

define %struct.Memory* @routine_movl__eax___esi(%struct.State* dereferenceable(3376), i64, %struct.Memory*) local_unnamed_addr {
block_400478:
  %PC = getelementptr inbounds %struct.State, %struct.State* %0, i64 0, i32 6, i32 33, i32 0, i32 0
  %3 = getelementptr inbounds %struct.State, %struct.State* %0, i64 0, i32 6, i32 1, i32 0
  %EAX = bitcast %union.anon* %3 to i32*
  %RSI = getelementptr inbounds %struct.State, %struct.State* %0, i64 0, i32 6, i32 9, i32 0, i32 0
  %4 = load i32, i32* %EAX, align 4
  %5 = zext i32 %4 to i64
  %6 = load i64, i64* %PC, align 8
  %7 = add i64 %6, 2
  store i64 %7, i64* %PC, align 8
  store i64 %5, i64* %RSI, align 8
  ret %struct.Memory* %2
}

define %struct.Memory* @routine_movq_MINUS0x8__rbp____rcx(%struct.State* dereferenceable(3376), i64, %struct.Memory*) local_unnamed_addr {
block_400478:
  %PC = getelementptr inbounds %struct.State, %struct.State* %0, i64 0, i32 6, i32 33, i32 0, i32 0
  %RCX = getelementptr inbounds %struct.State, %struct.State* %0, i64 0, i32 6, i32 5, i32 0, i32 0
  %RBP = getelementptr inbounds %struct.State, %struct.State* %0, i64 0, i32 6, i32 15, i32 0, i32 0
  %3 = load i64, i64* %RBP, align 8
  %4 = add i64 %3, -8
  %5 = load i64, i64* %PC, align 8
  %6 = add i64 %5, 4
  store i64 %6, i64* %PC, align 8
  %7 = inttoptr i64 %4 to i64*
  %8 = load i64, i64* %7, align 8
  store i64 %8, i64* %RCX, align 8
  ret %struct.Memory* %2
}

define %struct.Memory* @routine_movq__rcx__MINUS0x38__rbp_(%struct.State* dereferenceable(3376), i64, %struct.Memory*) local_unnamed_addr {
block_400478:
  %PC = getelementptr inbounds %struct.State, %struct.State* %0, i64 0, i32 6, i32 33, i32 0, i32 0
  %RCX = getelementptr inbounds %struct.State, %struct.State* %0, i64 0, i32 6, i32 5, i32 0, i32 0
  %RBP = getelementptr inbounds %struct.State, %struct.State* %0, i64 0, i32 6, i32 15, i32 0, i32 0
  %3 = load i64, i64* %RBP, align 8
  %4 = add i64 %3, -56
  %5 = load i64, i64* %RCX, align 8
  %6 = load i64, i64* %PC, align 8
  %7 = add i64 %6, 4
  store i64 %7, i64* %PC, align 8
  %8 = inttoptr i64 %4 to i64*
  store i64 %5, i64* %8, align 8
  ret %struct.Memory* %2
}

define %struct.Memory* @routine_callq_._ZplIdE14PointerWrapperIT_ERS2_l(%struct.State* dereferenceable(3376), i64, %struct.Memory*, i64 %rel_off1, i64 %rel_off2, i64 %rel_off3) local_unnamed_addr {
block_400478:
  %PC = getelementptr inbounds %struct.State, %struct.State* %0, i64 0, i32 6, i32 33, i32 0, i32 0
  %3 = load i64, i64* %PC, align 8
  %4 = add i64 %3, %rel_off1
  %5 = add i64 %3, %rel_off2
  %6 = getelementptr inbounds %struct.State, %struct.State* %0, i64 0, i32 6, i32 13, i32 0, i32 0
  %7 = load i64, i64* %6, align 8
  %8 = add i64 %7, -8
  %9 = inttoptr i64 %8 to i64*
  store i64 %5, i64* %9, align 8
  store i64 %8, i64* %6, align 8
  store i64 %4, i64* %PC, align 8
  ret %struct.Memory* %2
}

define %struct.Memory* @routine_movq__rax__MINUS0x40__rbp_(%struct.State* dereferenceable(3376), i64, %struct.Memory*) local_unnamed_addr {
block_400478:
  %PC = getelementptr inbounds %struct.State, %struct.State* %0, i64 0, i32 6, i32 33, i32 0, i32 0
  %RAX = getelementptr inbounds %struct.State, %struct.State* %0, i64 0, i32 6, i32 1, i32 0, i32 0
  %RBP = getelementptr inbounds %struct.State, %struct.State* %0, i64 0, i32 6, i32 15, i32 0, i32 0
  %3 = load i64, i64* %RBP, align 8
  %4 = add i64 %3, -64
  %5 = load i64, i64* %RAX, align 8
  %6 = load i64, i64* %PC, align 8
  %7 = add i64 %6, 4
  store i64 %7, i64* %PC, align 8
  %8 = inttoptr i64 %4 to i64*
  store i64 %5, i64* %8, align 8
  ret %struct.Memory* %2
}

define %struct.Memory* @routine_movq_MINUS0x38__rbp____rdi(%struct.State* dereferenceable(3376), i64, %struct.Memory*) local_unnamed_addr {
block_400478:
  %PC = getelementptr inbounds %struct.State, %struct.State* %0, i64 0, i32 6, i32 33, i32 0, i32 0
  %RDI = getelementptr inbounds %struct.State, %struct.State* %0, i64 0, i32 6, i32 11, i32 0, i32 0
  %RBP = getelementptr inbounds %struct.State, %struct.State* %0, i64 0, i32 6, i32 15, i32 0, i32 0
  %3 = load i64, i64* %RBP, align 8
  %4 = add i64 %3, -56
  %5 = load i64, i64* %PC, align 8
  %6 = add i64 %5, 4
  store i64 %6, i64* %PC, align 8
  %7 = inttoptr i64 %4 to i64*
  %8 = load i64, i64* %7, align 8
  store i64 %8, i64* %RDI, align 8
  ret %struct.Memory* %2
}

define %struct.Memory* @routine_movq_MINUS0x40__rbp____rsi(%struct.State* dereferenceable(3376), i64, %struct.Memory*) local_unnamed_addr {
block_400478:
  %PC = getelementptr inbounds %struct.State, %struct.State* %0, i64 0, i32 6, i32 33, i32 0, i32 0
  %RSI = getelementptr inbounds %struct.State, %struct.State* %0, i64 0, i32 6, i32 9, i32 0, i32 0
  %RBP = getelementptr inbounds %struct.State, %struct.State* %0, i64 0, i32 6, i32 15, i32 0, i32 0
  %3 = load i64, i64* %RBP, align 8
  %4 = add i64 %3, -64
  %5 = load i64, i64* %PC, align 8
  %6 = add i64 %5, 4
  store i64 %6, i64* %PC, align 8
  %7 = inttoptr i64 %4 to i64*
  %8 = load i64, i64* %7, align 8
  store i64 %8, i64* %RSI, align 8
  ret %struct.Memory* %2
}

define %struct.Memory* @routine_callq_._ZN9benchmark9quicksortI14PointerWrapperIdEdEEvT_S3_(%struct.State* dereferenceable(3376), i64, %struct.Memory*, i64 %rel_off1, i64 %rel_off2, i64 %rel_off3) local_unnamed_addr {
block_400478:
  %PC = getelementptr inbounds %struct.State, %struct.State* %0, i64 0, i32 6, i32 33, i32 0, i32 0
  %3 = load i64, i64* %PC, align 8
  %4 = add i64 %3, %rel_off1
  %5 = add i64 %3, %rel_off2
  %6 = getelementptr inbounds %struct.State, %struct.State* %0, i64 0, i32 6, i32 13, i32 0, i32 0
  %7 = load i64, i64* %6, align 8
  %8 = add i64 %7, -8
  %9 = inttoptr i64 %8 to i64*
  store i64 %5, i64* %9, align 8
  store i64 %8, i64* %6, align 8
  store i64 %4, i64* %PC, align 8
  ret %struct.Memory* %2
}

define %struct.Memory* @routine_movl__0x1___edx(%struct.State* dereferenceable(3376), i64, %struct.Memory*) local_unnamed_addr {
block_400478:
  %PC = getelementptr inbounds %struct.State, %struct.State* %0, i64 0, i32 6, i32 33, i32 0, i32 0
  %RDX = getelementptr inbounds %struct.State, %struct.State* %0, i64 0, i32 6, i32 7, i32 0, i32 0
  %3 = load i64, i64* %PC, align 8
  %4 = add i64 %3, 5
  store i64 %4, i64* %PC, align 8
  store i64 1, i64* %RDX, align 8
  ret %struct.Memory* %2
}

define %struct.Memory* @routine_movl__edx___esi(%struct.State* dereferenceable(3376), i64, %struct.Memory*) local_unnamed_addr {
block_400478:
  %PC = getelementptr inbounds %struct.State, %struct.State* %0, i64 0, i32 6, i32 33, i32 0, i32 0
  %3 = getelementptr inbounds %struct.State, %struct.State* %0, i64 0, i32 6, i32 7, i32 0
  %EDX = bitcast %union.anon* %3 to i32*
  %RSI = getelementptr inbounds %struct.State, %struct.State* %0, i64 0, i32 6, i32 9, i32 0, i32 0
  %4 = load i32, i32* %EDX, align 4
  %5 = zext i32 %4 to i64
  %6 = load i64, i64* %PC, align 8
  %7 = add i64 %6, 2
  store i64 %7, i64* %PC, align 8
  store i64 %5, i64* %RSI, align 8
  ret %struct.Memory* %2
}

define %struct.Memory* @routine_movq__rax__MINUS0x48__rbp_(%struct.State* dereferenceable(3376), i64, %struct.Memory*) local_unnamed_addr {
block_400478:
  %PC = getelementptr inbounds %struct.State, %struct.State* %0, i64 0, i32 6, i32 33, i32 0, i32 0
  %RAX = getelementptr inbounds %struct.State, %struct.State* %0, i64 0, i32 6, i32 1, i32 0, i32 0
  %RBP = getelementptr inbounds %struct.State, %struct.State* %0, i64 0, i32 6, i32 15, i32 0, i32 0
  %3 = load i64, i64* %RBP, align 8
  %4 = add i64 %3, -72
  %5 = load i64, i64* %RAX, align 8
  %6 = load i64, i64* %PC, align 8
  %7 = add i64 %6, 4
  store i64 %7, i64* %PC, align 8
  %8 = inttoptr i64 %4 to i64*
  store i64 %5, i64* %8, align 8
  ret %struct.Memory* %2
}

define %struct.Memory* @routine_movq__rax__MINUS0x50__rbp_(%struct.State* dereferenceable(3376), i64, %struct.Memory*) local_unnamed_addr {
block_400478:
  %PC = getelementptr inbounds %struct.State, %struct.State* %0, i64 0, i32 6, i32 33, i32 0, i32 0
  %RAX = getelementptr inbounds %struct.State, %struct.State* %0, i64 0, i32 6, i32 1, i32 0, i32 0
  %RBP = getelementptr inbounds %struct.State, %struct.State* %0, i64 0, i32 6, i32 15, i32 0, i32 0
  %3 = load i64, i64* %RBP, align 8
  %4 = add i64 %3, -80
  %5 = load i64, i64* %RAX, align 8
  %6 = load i64, i64* %PC, align 8
  %7 = add i64 %6, 4
  store i64 %7, i64* %PC, align 8
  %8 = inttoptr i64 %4 to i64*
  store i64 %5, i64* %8, align 8
  ret %struct.Memory* %2
}

define %struct.Memory* @routine_movq_MINUS0x48__rbp____rdi(%struct.State* dereferenceable(3376), i64, %struct.Memory*) local_unnamed_addr {
block_400478:
  %PC = getelementptr inbounds %struct.State, %struct.State* %0, i64 0, i32 6, i32 33, i32 0, i32 0
  %RDI = getelementptr inbounds %struct.State, %struct.State* %0, i64 0, i32 6, i32 11, i32 0, i32 0
  %RBP = getelementptr inbounds %struct.State, %struct.State* %0, i64 0, i32 6, i32 15, i32 0, i32 0
  %3 = load i64, i64* %RBP, align 8
  %4 = add i64 %3, -72
  %5 = load i64, i64* %PC, align 8
  %6 = add i64 %5, 4
  store i64 %6, i64* %PC, align 8
  %7 = inttoptr i64 %4 to i64*
  %8 = load i64, i64* %7, align 8
  store i64 %8, i64* %RDI, align 8
  ret %struct.Memory* %2
}

define %struct.Memory* @routine_movq_MINUS0x50__rbp____rsi(%struct.State* dereferenceable(3376), i64, %struct.Memory*) local_unnamed_addr {
block_400478:
  %PC = getelementptr inbounds %struct.State, %struct.State* %0, i64 0, i32 6, i32 33, i32 0, i32 0
  %RSI = getelementptr inbounds %struct.State, %struct.State* %0, i64 0, i32 6, i32 9, i32 0, i32 0
  %RBP = getelementptr inbounds %struct.State, %struct.State* %0, i64 0, i32 6, i32 15, i32 0, i32 0
  %3 = load i64, i64* %RBP, align 8
  %4 = add i64 %3, -80
  %5 = load i64, i64* %PC, align 8
  %6 = add i64 %5, 4
  store i64 %6, i64* %PC, align 8
  %7 = inttoptr i64 %4 to i64*
  %8 = load i64, i64* %7, align 8
  store i64 %8, i64* %RSI, align 8
  ret %struct.Memory* %2
}

define %struct.Memory* @routine_addq__0x70___rsp(%struct.State* dereferenceable(3376), i64, %struct.Memory*) local_unnamed_addr {
block_400478:
  %PC = getelementptr inbounds %struct.State, %struct.State* %0, i64 0, i32 6, i32 33, i32 0, i32 0
  %RSP = getelementptr inbounds %struct.State, %struct.State* %0, i64 0, i32 6, i32 13, i32 0, i32 0
  %3 = load i64, i64* %RSP, align 8
  %4 = load i64, i64* %PC, align 8
  %5 = add i64 %4, 4
  store i64 %5, i64* %PC, align 8
  %6 = add i64 %3, 112
  store i64 %6, i64* %RSP, align 8
  %7 = icmp ugt i64 %3, -113
  %8 = zext i1 %7 to i8
  %9 = getelementptr inbounds %struct.State, %struct.State* %0, i64 0, i32 2, i32 1
  store i8 %8, i8* %9, align 1
  %10 = trunc i64 %6 to i32
  %11 = and i32 %10, 255
  %12 = tail call i32 @llvm.ctpop.i32(i32 %11)
  %13 = trunc i32 %12 to i8
  %14 = and i8 %13, 1
  %15 = xor i8 %14, 1
  %16 = getelementptr inbounds %struct.State, %struct.State* %0, i64 0, i32 2, i32 3
  store i8 %15, i8* %16, align 1
  %17 = xor i64 %3, 16
  %18 = xor i64 %17, %6
  %19 = lshr i64 %18, 4
  %20 = trunc i64 %19 to i8
  %21 = and i8 %20, 1
  %22 = getelementptr inbounds %struct.State, %struct.State* %0, i64 0, i32 2, i32 5
  store i8 %21, i8* %22, align 1
  %23 = icmp eq i64 %6, 0
  %24 = zext i1 %23 to i8
  %25 = getelementptr inbounds %struct.State, %struct.State* %0, i64 0, i32 2, i32 7
  store i8 %24, i8* %25, align 1
  %26 = lshr i64 %6, 63
  %27 = trunc i64 %26 to i8
  %28 = getelementptr inbounds %struct.State, %struct.State* %0, i64 0, i32 2, i32 9
  store i8 %27, i8* %28, align 1
  %29 = lshr i64 %3, 63
  %30 = xor i64 %26, %29
  %31 = add nuw nsw i64 %30, %26
  %32 = icmp eq i64 %31, 2
  %33 = zext i1 %32 to i8
  %34 = getelementptr inbounds %struct.State, %struct.State* %0, i64 0, i32 2, i32 13
  store i8 %33, i8* %34, align 1
  ret %struct.Memory* %2
}

define %struct.Memory* @routine_popq__rbp(%struct.State* dereferenceable(3376), i64, %struct.Memory*) local_unnamed_addr {
block_400478:
  %PC = getelementptr inbounds %struct.State, %struct.State* %0, i64 0, i32 6, i32 33, i32 0, i32 0
  %RBP = getelementptr inbounds %struct.State, %struct.State* %0, i64 0, i32 6, i32 15, i32 0, i32 0
  %3 = load i64, i64* %PC, align 8
  %4 = add i64 %3, 1
  store i64 %4, i64* %PC, align 8
  %5 = getelementptr inbounds %struct.State, %struct.State* %0, i64 0, i32 6, i32 13, i32 0, i32 0
  %6 = load i64, i64* %5, align 8
  %7 = add i64 %6, 8
  %8 = inttoptr i64 %6 to i64*
  %9 = load i64, i64* %8, align 8
  store i64 %9, i64* %RBP, align 8
  store i64 %7, i64* %5, align 8
  ret %struct.Memory* %2
}

define %struct.Memory* @routine_retq(%struct.State* dereferenceable(3376), i64, %struct.Memory*) local_unnamed_addr {
block_400478:
  %PC = getelementptr inbounds %struct.State, %struct.State* %0, i64 0, i32 6, i32 33, i32 0, i32 0
  %3 = load i64, i64* %PC, align 8
  %4 = add i64 %3, 1
  store i64 %4, i64* %PC, align 8
  %5 = getelementptr inbounds %struct.State, %struct.State* %0, i64 0, i32 6, i32 13, i32 0, i32 0
  %6 = load i64, i64* %5, align 8
  %7 = inttoptr i64 %6 to i64*
  %8 = load i64, i64* %7, align 8
  store i64 %8, i64* %PC, align 8
  %9 = add i64 %6, 8
  store i64 %9, i64* %5, align 8
  ret %struct.Memory* %2
}

attributes #0 = { nounwind readnone }
attributes #1 = { alwaysinline }
