; ModuleID = '/tmp/tmpqx2ybuqn-query.ll'
source_filename = "llvm-link"
target datalayout = "e-m:e-i64:64-f80:128-n8:16:32:64-S128"
target triple = "x86_64-pc-linux-gnu-elf"

%__bss_start_type = type <{ [8 x i8] }>
%struct.State = type { %struct.ArchState, [32 x %union.VectorReg], %struct.ArithFlags, %union.anon, %struct.Segments, %struct.AddressSpace, %struct.GPR, %struct.X87Stack, %struct.MMX, %struct.FPUStatusFlags, %union.anon, %union.FPU, %struct.SegmentCaches }
%struct.ArchState = type { i32, i32, %union.anon }
%union.VectorReg = type { %union.vec512_t }
%union.vec512_t = type { %struct.uint64v8_t }
%struct.uint64v8_t = type { [8 x i64] }
%struct.ArithFlags = type { i8, i8, i8, i8, i8, i8, i8, i8, i8, i8, i8, i8, i8, i8, i8, i8 }
%struct.Segments = type { i16, %union.SegmentSelector, i16, %union.SegmentSelector, i16, %union.SegmentSelector, i16, %union.SegmentSelector, i16, %union.SegmentSelector, i16, %union.SegmentSelector }
%union.SegmentSelector = type { i16 }
%struct.AddressSpace = type { i64, %struct.Reg, i64, %struct.Reg, i64, %struct.Reg, i64, %struct.Reg, i64, %struct.Reg, i64, %struct.Reg }
%struct.Reg = type { %union.anon }
%struct.GPR = type { i64, %struct.Reg, i64, %struct.Reg, i64, %struct.Reg, i64, %struct.Reg, i64, %struct.Reg, i64, %struct.Reg, i64, %struct.Reg, i64, %struct.Reg, i64, %struct.Reg, i64, %struct.Reg, i64, %struct.Reg, i64, %struct.Reg, i64, %struct.Reg, i64, %struct.Reg, i64, %struct.Reg, i64, %struct.Reg, i64, %struct.Reg }
%struct.X87Stack = type { [8 x %struct.anon.3] }
%struct.anon.3 = type { i64, double }
%struct.MMX = type { [8 x %struct.anon.4] }
%struct.anon.4 = type { i64, %union.vec64_t }
%union.vec64_t = type { %struct.uint64v1_t }
%struct.uint64v1_t = type { [1 x i64] }
%struct.FPUStatusFlags = type { i8, i8, i8, i8, i8, i8, i8, i8, i8, i8, i8, i8, i8, i8, i8, i8, i8, i8, i8, i8, [4 x i8] }
%union.anon = type { i64 }
%union.FPU = type { %struct.anon.13 }
%struct.anon.13 = type { %struct.FpuFXSAVE, [96 x i8] }
%struct.FpuFXSAVE = type { %union.SegmentSelector, %union.SegmentSelector, %union.FPUAbridgedTagWord, i8, i16, i32, %union.SegmentSelector, i16, i32, %union.SegmentSelector, i16, %union.FPUControlStatus, %union.FPUControlStatus, [8 x %struct.FPUStackElem], [16 x %union.vec128_t] }
%union.FPUAbridgedTagWord = type { i8 }
%union.FPUControlStatus = type { i32 }
%struct.FPUStackElem = type { %union.anon.11, [6 x i8] }
%union.anon.11 = type { %struct.float80_t }
%struct.float80_t = type { [10 x i8] }
%union.vec128_t = type { %struct.uint128v1_t }
%struct.uint128v1_t = type { [1 x i128] }
%struct.SegmentCaches = type { %struct.SegmentShadow, %struct.SegmentShadow, %struct.SegmentShadow, %struct.SegmentShadow, %struct.SegmentShadow, %struct.SegmentShadow }
%struct.SegmentShadow = type { %union.anon, i32, i32 }
%struct.Memory = type opaque

@__bss_start = local_unnamed_addr global %__bss_start_type zeroinitializer

declare %struct.Memory* @__remill_error(%struct.State* dereferenceable(3376), i64, %struct.Memory*) local_unnamed_addr

; Function Attrs: nounwind readnone
declare i32 @llvm.ctpop.i32(i32) #0

declare %struct.Memory* @sub_404780._ZmiIdElR14PointerWrapperIT_ES3_(%struct.State* noalias dereferenceable(3376), i64, %struct.Memory* noalias readnone returned) local_unnamed_addr

declare %struct.Memory* @sub_404740._ZNK14PointerWrapperIdEdeEv(%struct.State* noalias dereferenceable(3376), i64, %struct.Memory* noalias readnone returned) local_unnamed_addr

declare %struct.Memory* @sub_4055e0._ZmmIdER14PointerWrapperIT_ES3_(%struct.State* noalias dereferenceable(3376), i64, %struct.Memory* noalias readnone returned) local_unnamed_addr

declare %struct.Memory* @sub_405600._ZltIdEbRK14PointerWrapperIT_ES4_(%struct.State* noalias dereferenceable(3376), i64, %struct.Memory* noalias readnone returned) local_unnamed_addr

declare %struct.Memory* @sub_404760._ZppIdER14PointerWrapperIT_ES3_(%struct.State* noalias dereferenceable(3376), i64, %struct.Memory* noalias readnone returned) local_unnamed_addr

declare %struct.Memory* @sub_4047b0._ZplIdE14PointerWrapperIT_ERS2_l(%struct.State* noalias dereferenceable(3376), i64, %struct.Memory* noalias readnone returned) local_unnamed_addr

declare %struct.Memory* @sub_405440._ZN9benchmark9quicksortI14PointerWrapperIdEdEEvT_S3_(%struct.State* noalias dereferenceable(3376), i64, %struct.Memory* noalias readnone returned) local_unnamed_addr

; Function Attrs: alwaysinline
define %struct.Memory* @_ZN9benchmark9quicksortI14PointerWrapperIdEdEEvT_S3_(%struct.State* noalias, i64, %struct.Memory* noalias) local_unnamed_addr #1 {
entry:
  %var_2_3 = getelementptr inbounds %struct.State, %struct.State* %0, i64 0, i32 6, i32 33, i32 0, i32 0
  %RBP.i = getelementptr inbounds %struct.State, %struct.State* %0, i64 0, i32 6, i32 15, i32 0, i32 0
  %var_2_6 = getelementptr inbounds %struct.State, %struct.State* %0, i64 0, i32 6, i32 13, i32 0, i32 0
  %var_2_14 = getelementptr inbounds %struct.State, %struct.State* %0, i64 0, i32 2, i32 1
  %var_2_30 = getelementptr inbounds %struct.State, %struct.State* %0, i64 0, i32 2, i32 7
  %var_2_40 = getelementptr inbounds %struct.State, %struct.State* %0, i64 0, i32 6, i32 1, i32 0
  %RAX.i208 = getelementptr inbounds %union.anon, %union.anon* %var_2_40, i64 0, i32 0
  %var_2_53 = load i64, i64* %var_2_3, align 8
  %var_2_55 = add i64 %var_2_53, -3288
  %call2_40545e = tail call %struct.Memory* @sub_404780._ZmiIdElR14PointerWrapperIT_ES3_(%struct.State* %0, i64 %var_2_55, %struct.Memory* %2)
  %var_2_60 = load i64, i64* %RAX.i208, align 8
  %var_2_62 = add i64 %var_2_60, -1
  %var_2_75 = icmp eq i64 %var_2_62, 0
  %var_2_77 = lshr i64 %var_2_62, 63
  %var_2_79 = lshr i64 %var_2_60, 63
  %var_2_80 = xor i64 %var_2_77, %var_2_79
  %var_2_81 = add nuw nsw i64 %var_2_80, %var_2_79
  %var_2_82 = icmp eq i64 %var_2_81, 2
  %var_2_84 = icmp ne i64 %var_2_77, 0
  %var_2_85 = xor i1 %var_2_84, %var_2_82
  %var_2_86 = or i1 %var_2_75, %var_2_85
  br i1 %var_2_86, label %block_.L_4055d7, label %block_40546d

block_40546d:                                     ; preds = %entry
  %var_2_61 = load i64, i64* %var_2_3, align 8
  %var_2_90 = add i64 %var_2_61, -3363
  %call2_405471 = tail call %struct.Memory* @sub_404740._ZNK14PointerWrapperIdEdeEv(%struct.State* nonnull %0, i64 %var_2_90, %struct.Memory* %call2_40545e)
  %AL.i130 = bitcast %union.anon* %var_2_40 to i8*
  %.pre = load i64, i64* %var_2_3, align 8
  %var_4_3 = bitcast %union.anon* %var_2_40 to double**
  br label %block_.L_40548f

block_.L_40548f:                                  ; preds = %block_.L_40552e, %block_40546d
  %var_2_128 = phi i64 [ %.pre, %block_40546d ], [ %var_2_366, %block_.L_40552e ]
  %MEMORY.0 = phi %struct.Memory* [ %call2_405471, %block_40546d ], [ %call2_405572, %block_.L_40552e ]
  %var_2_129 = add i64 %var_2_128, 5
  br label %block_.L_405494

block_.L_405494:                                  ; preds = %block_4054c2, %block_.L_40548f
  %storemerge = phi i64 [ %var_2_129, %block_.L_40548f ], [ %var_2_192, %block_4054c2 ]
  %MEMORY.1 = phi %struct.Memory* [ %MEMORY.0, %block_.L_40548f ], [ %var_2_186, %block_4054c2 ]
  %var_2_137 = add i64 %storemerge, 14
  store i64 %var_2_137, i64* %var_2_3, align 8
  %var_2_140 = add i64 %storemerge, 332
  %call2_4054a2 = tail call %struct.Memory* @sub_4055e0._ZmmIdER14PointerWrapperIT_ES3_(%struct.State* nonnull %0, i64 %var_2_140, %struct.Memory* %MEMORY.1)
  %var_2_146 = load i64, i64* %var_2_3, align 8
  %var_2_147 = add i64 %var_2_146, -3431
  %call2_4054aa = tail call %struct.Memory* @sub_404740._ZNK14PointerWrapperIdEdeEv(%struct.State* nonnull %0, i64 %var_2_147, %struct.Memory* %MEMORY.1)
  %var_2_1525 = load double*, double** %var_4_3, align 8
  %var_2_153 = load i64, i64* %var_2_3, align 8
  %var_2_1554 = load double, double* %var_2_1525, align 8
  %var_2_156 = load i64, i64* %RBP.i, align 8
  %var_2_157 = add i64 %var_2_156, -88
  %var_4_4 = inttoptr i64 %var_2_157 to double*
  %var_2_1606 = load double, double* %var_4_4, align 8
  %var_2_161 = add i64 %var_2_153, 13
  %var_2_163 = fcmp uno double %var_2_1554, %var_2_1606
  br i1 %var_2_163, label %var_2_164, label %routine_ucomisd__xmm1___xmm0.exit

var_2_164:                                        ; preds = %block_.L_405494
  %var_2_165 = fadd double %var_2_1554, %var_2_1606
  %var_2_166 = bitcast double %var_2_165 to i64
  %var_2_167 = and i64 %var_2_166, 9221120237041090560
  %var_2_168 = icmp eq i64 %var_2_167, 9218868437227405312
  %var_2_169 = and i64 %var_2_166, 2251799813685247
  %var_2_170 = icmp ne i64 %var_2_169, 0
  %var_2_171 = and i1 %var_2_168, %var_2_170
  br i1 %var_2_171, label %var_2_172, label %routine_ucomisd__xmm1___xmm0.exit

var_2_172:                                        ; preds = %var_2_164
  %var_2_173 = tail call %struct.Memory* @__remill_error(%struct.State* nonnull dereferenceable(3376) %0, i64 %var_2_161, %struct.Memory* %MEMORY.1)
  %.pre22 = load i64, i64* %var_2_3, align 8
  br label %routine_ucomisd__xmm1___xmm0.exit

routine_ucomisd__xmm1___xmm0.exit:                ; preds = %block_.L_405494, %var_2_164, %var_2_172
  %var_2_185 = phi i64 [ %.pre22, %var_2_172 ], [ %var_2_161, %var_2_164 ], [ %var_2_161, %block_.L_405494 ]
  %var_2_186 = phi %struct.Memory* [ %var_2_173, %var_2_172 ], [ %MEMORY.1, %var_2_164 ], [ %MEMORY.1, %block_.L_405494 ]
  %var_2_187 = load i8, i8* %var_2_14, align 1
  %var_2_188 = load i8, i8* %var_2_30, align 1
  %var_2_189 = or i8 %var_2_188, %var_2_187
  %var_2_190 = icmp ne i8 %var_2_189, 0
  %.v36 = select i1 %var_2_190, i64 11, i64 6
  %var_2_191 = add i64 %.v36, %var_2_185
  store i64 %var_2_191, i64* %var_2_3, align 8
  br i1 %var_2_190, label %block_.L_4054c7, label %block_4054c2

block_4054c2:                                     ; preds = %routine_ucomisd__xmm1___xmm0.exit
  %var_2_192 = add i64 %var_2_191, -46
  %var_2_193 = add i64 %var_2_191, 5
  store i64 %var_2_193, i64* %var_2_3, align 8
  br label %block_.L_405494

block_.L_4054c7:                                  ; preds = %routine_ucomisd__xmm1___xmm0.exit
  %var_2_197 = add i64 %var_2_191, 313
  %var_2_198 = add i64 %var_2_191, 13
  %var_2_199 = load i64, i64* %var_2_6, align 8
  %var_2_200 = add i64 %var_2_199, -8
  %var_2_201 = inttoptr i64 %var_2_200 to i64*
  store i64 %var_2_198, i64* %var_2_201, align 8
  store i64 %var_2_197, i64* %var_2_3, align 8
  %call2_4054cf = tail call %struct.Memory* @sub_405600._ZltIdEbRK14PointerWrapperIT_ES4_(%struct.State* nonnull %0, i64 %var_2_197, %struct.Memory* %var_2_186)
  %var_2_202 = load i8, i8* %AL.i130, align 1
  %var_2_203 = load i64, i64* %var_2_3, align 8
  %var_2_204 = and i8 %var_2_202, 1
  %var_2_210 = icmp eq i8 %var_2_204, 0
  br i1 %var_2_210, label %block_.L_405585.loopexit, label %block_.L_4054e1

block_.L_4054e1:                                  ; preds = %block_.L_4054c7
  %var_2_213 = add i64 %var_2_203, 18
  br label %block_.L_4054e6

block_.L_4054e6:                                  ; preds = %block_405502, %block_.L_4054e1
  %storemerge6 = phi i64 [ %var_2_213, %block_.L_4054e1 ], [ %var_2_276, %block_405502 ]
  %MEMORY.2 = phi %struct.Memory* [ %call2_4054cf, %block_.L_4054e1 ], [ %call2_405506, %block_405502 ]
  %var_2_216 = add i64 %storemerge6, -3494
  %call2_4054ea = tail call %struct.Memory* @sub_404740._ZNK14PointerWrapperIdEdeEv(%struct.State* nonnull %0, i64 %var_2_216, %struct.Memory* %MEMORY.2)
  %var_2_2218 = load double*, double** %var_4_3, align 8
  %var_2_222 = load i64, i64* %var_2_3, align 8
  %var_2_2247 = load double, double* %var_2_2218, align 8
  %var_2_225 = load i64, i64* %RBP.i, align 8
  %var_2_226 = add i64 %var_2_225, -24
  %var_4_5 = inttoptr i64 %var_2_226 to double*
  %var_2_2299 = load double, double* %var_4_5, align 8
  %var_2_230 = add i64 %var_2_222, 13
  %var_2_232 = fcmp uno double %var_2_2299, %var_2_2247
  br i1 %var_2_232, label %var_2_233, label %routine_ucomisd__xmm0___xmm1.exit

var_2_233:                                        ; preds = %block_.L_4054e6
  %var_2_234 = fadd double %var_2_2247, %var_2_2299
  %var_2_235 = bitcast double %var_2_234 to i64
  %var_2_236 = and i64 %var_2_235, 9221120237041090560
  %var_2_237 = icmp eq i64 %var_2_236, 9218868437227405312
  %var_2_238 = and i64 %var_2_235, 2251799813685247
  %var_2_239 = icmp ne i64 %var_2_238, 0
  %var_2_240 = and i1 %var_2_237, %var_2_239
  br i1 %var_2_240, label %var_2_241, label %routine_ucomisd__xmm0___xmm1.exit

var_2_241:                                        ; preds = %var_2_233
  %var_2_242 = tail call %struct.Memory* @__remill_error(%struct.State* nonnull dereferenceable(3376) %0, i64 %var_2_230, %struct.Memory* %MEMORY.2)
  %.pre23 = load i64, i64* %var_2_3, align 8
  br label %routine_ucomisd__xmm0___xmm1.exit

routine_ucomisd__xmm0___xmm1.exit:                ; preds = %block_.L_4054e6, %var_2_233, %var_2_241
  %var_2_255 = phi i64 [ %.pre23, %var_2_241 ], [ %var_2_230, %var_2_233 ], [ %var_2_230, %block_.L_4054e6 ]
  %var_2_256 = phi %struct.Memory* [ %var_2_242, %var_2_241 ], [ %MEMORY.2, %var_2_233 ], [ %MEMORY.2, %block_.L_4054e6 ]
  %var_2_257 = load i8, i8* %var_2_14, align 1
  %var_2_258 = load i8, i8* %var_2_30, align 1
  %var_2_259 = or i8 %var_2_258, %var_2_257
  %var_2_260 = icmp ne i8 %var_2_259, 0
  %.v37 = select i1 %var_2_260, i64 24, i64 6
  %var_2_261 = add i64 %.v37, %var_2_255
  br i1 %var_2_260, label %block_.L_405514, label %block_405502

block_405502:                                     ; preds = %routine_ucomisd__xmm0___xmm1.exit
  %var_2_264 = add i64 %var_2_261, -3490
  %call2_405506 = tail call %struct.Memory* @sub_404760._ZppIdER14PointerWrapperIT_ES3_(%struct.State* nonnull %0, i64 %var_2_264, %struct.Memory* %var_2_256)
  %var_2_275 = load i64, i64* %var_2_3, align 8
  %var_2_276 = add i64 %var_2_275, -41
  %var_2_277 = add i64 %var_2_275, 5
  store i64 %var_2_277, i64* %var_2_3, align 8
  br label %block_.L_4054e6

block_.L_405514:                                  ; preds = %routine_ucomisd__xmm0___xmm1.exit
  %var_2_279 = add i64 %var_2_261, 236
  %call2_40551c = tail call %struct.Memory* @sub_405600._ZltIdEbRK14PointerWrapperIT_ES4_(%struct.State* nonnull %0, i64 %var_2_279, %struct.Memory* %var_2_256)
  %var_2_284 = load i8, i8* %AL.i130, align 1
  %var_2_285 = load i64, i64* %var_2_3, align 8
  %var_2_286 = and i8 %var_2_284, 1
  %var_2_292 = icmp ne i8 %var_2_286, 0
  %.v27 = select i1 %var_2_292, i64 13, i64 8
  %var_2_293 = add i64 %.v27, %var_2_285
  br i1 %var_2_292, label %block_.L_40552e, label %block_405529

block_405529:                                     ; preds = %block_.L_405514
  %var_2_295 = add i64 %var_2_293, 5
  store i64 %var_2_295, i64* %var_2_3, align 8
  br label %block_.L_405585

block_.L_40552e:                                  ; preds = %block_.L_405514
  %var_2_298 = add i64 %var_2_293, -3566
  %call2_405532 = tail call %struct.Memory* @sub_404740._ZNK14PointerWrapperIdEdeEv(%struct.State* nonnull %0, i64 %var_2_298, %struct.Memory* %call2_40551c)
  %var_2_312 = load i64, i64* %var_2_3, align 8
  %var_2_313 = add i64 %var_2_312, -3588
  %call2_405544 = tail call %struct.Memory* @sub_404740._ZNK14PointerWrapperIdEdeEv(%struct.State* nonnull %0, i64 %var_2_313, %struct.Memory* %call2_405532)
  %var_2_327 = load i64, i64* %var_2_3, align 8
  %var_2_328 = add i64 %var_2_327, -3606
  %call2_405556 = tail call %struct.Memory* @sub_404740._ZNK14PointerWrapperIdEdeEv(%struct.State* nonnull %0, i64 %var_2_328, %struct.Memory* %call2_405544)
  %var_2_344 = load i64, i64* %var_2_3, align 8
  %var_2_345 = add i64 %var_2_344, 5
  store i64 %var_2_345, i64* %var_2_3, align 8
  %var_2_352 = add i64 %var_2_344, -3629
  %call2_405572 = tail call %struct.Memory* @sub_404740._ZNK14PointerWrapperIdEdeEv(%struct.State* nonnull %0, i64 %var_2_352, %struct.Memory* %call2_405556)
  %var_2_359 = load i64, i64* %var_2_3, align 8
  %var_2_360 = add i64 %var_2_359, 5
  store i64 %var_2_360, i64* %var_2_3, align 8
  %var_2_366 = add i64 %var_2_359, -236
  br label %block_.L_40548f

block_.L_405585.loopexit:                         ; preds = %block_.L_4054c7
  br label %block_.L_405585

block_.L_405585:                                  ; preds = %block_.L_405585.loopexit, %block_405529
  %var_2_376 = phi i64 [ %var_2_295, %block_405529 ], [ %var_2_203, %block_.L_405585.loopexit ]
  %MEMORY.3 = phi %struct.Memory* [ %call2_40551c, %block_405529 ], [ %call2_4054cf, %block_.L_405585.loopexit ]
  %var_2_377 = add i64 %var_2_376, -3560
  %call2_405598 = tail call %struct.Memory* @sub_4047b0._ZplIdE14PointerWrapperIT_ERS2_l(%struct.State* nonnull %0, i64 %var_2_377, %struct.Memory* %MEMORY.3)
  %var_2_390 = load i64, i64* %var_2_3, align 8
  %var_2_398 = add i64 %var_2_390, -353
  %call2_4055a9 = tail call %struct.Memory* @sub_405440._ZN9benchmark9quicksortI14PointerWrapperIdEdEEvT_S3_(%struct.State* nonnull %0, i64 %var_2_398, %struct.Memory* %call2_405598)
  %var_2_405 = load i64, i64* %var_2_3, align 8
  %var_2_406 = add i64 %var_2_405, -3582
  %call2_4055b9 = tail call %struct.Memory* @sub_4047b0._ZplIdE14PointerWrapperIT_ERS2_l(%struct.State* nonnull %0, i64 %var_2_406, %struct.Memory* %call2_4055a9)
  %var_2_428 = load i64, i64* %var_2_3, align 8
  %var_2_436 = add i64 %var_2_428, -394
  %call2_4055d2 = tail call %struct.Memory* @sub_405440._ZN9benchmark9quicksortI14PointerWrapperIdEdEEvT_S3_(%struct.State* nonnull %0, i64 %var_2_436, %struct.Memory* %call2_4055b9)
  br label %block_.L_4055d7

block_.L_4055d7:                                  ; preds = %block_.L_405585, %entry
  %MEMORY.4 = phi %struct.Memory* [ %call2_40545e, %entry ], [ %call2_4055d2, %block_.L_405585 ]
  ret %struct.Memory* %MEMORY.4
}

; Function Attrs: alwaysinline norecurse nounwind
define %struct.Memory* @routine_pushq__rbp(%struct.State* nocapture dereferenceable(3376), i64, %struct.Memory* readnone returned) local_unnamed_addr #2 {
block_400488:
  %PC = getelementptr inbounds %struct.State, %struct.State* %0, i64 0, i32 6, i32 33, i32 0, i32 0
  %RBP = getelementptr inbounds %struct.State, %struct.State* %0, i64 0, i32 6, i32 15, i32 0, i32 0
  %3 = load i64, i64* %RBP, align 8
  %4 = load i64, i64* %PC, align 8
  %5 = add i64 %4, 1
  store i64 %5, i64* %PC, align 8
  %6 = getelementptr inbounds %struct.State, %struct.State* %0, i64 0, i32 6, i32 13, i32 0, i32 0
  %7 = load i64, i64* %6, align 8
  %8 = add i64 %7, -8
  %9 = inttoptr i64 %8 to i64*
  store i64 %3, i64* %9, align 8
  store i64 %8, i64* %6, align 8
  ret %struct.Memory* %2
}

; Function Attrs: alwaysinline norecurse nounwind
define %struct.Memory* @routine_movq__rsp___rbp(%struct.State* nocapture dereferenceable(3376), i64, %struct.Memory* readnone returned) local_unnamed_addr #2 {
block_400488:
  %PC = getelementptr inbounds %struct.State, %struct.State* %0, i64 0, i32 6, i32 33, i32 0, i32 0
  %RSP = getelementptr inbounds %struct.State, %struct.State* %0, i64 0, i32 6, i32 13, i32 0, i32 0
  %RBP = getelementptr inbounds %struct.State, %struct.State* %0, i64 0, i32 6, i32 15, i32 0, i32 0
  %3 = load i64, i64* %RSP, align 8
  %4 = load i64, i64* %PC, align 8
  %5 = add i64 %4, 3
  store i64 %5, i64* %PC, align 8
  store i64 %3, i64* %RBP, align 8
  ret %struct.Memory* %2
}

; Function Attrs: alwaysinline nounwind
define %struct.Memory* @routine_subq__0x70___rsp(%struct.State* nocapture dereferenceable(3376), i64, %struct.Memory* readnone returned) local_unnamed_addr #3 {
block_400488:
  %PC = getelementptr inbounds %struct.State, %struct.State* %0, i64 0, i32 6, i32 33, i32 0, i32 0
  %RSP = getelementptr inbounds %struct.State, %struct.State* %0, i64 0, i32 6, i32 13, i32 0, i32 0
  %3 = load i64, i64* %RSP, align 8
  %4 = load i64, i64* %PC, align 8
  %5 = add i64 %4, 4
  store i64 %5, i64* %PC, align 8
  %6 = add i64 %3, -112
  store i64 %6, i64* %RSP, align 8
  %7 = icmp ult i64 %3, 112
  %8 = zext i1 %7 to i8
  %9 = getelementptr inbounds %struct.State, %struct.State* %0, i64 0, i32 2, i32 1
  store i8 %8, i8* %9, align 1
  %10 = trunc i64 %6 to i32
  %11 = and i32 %10, 255
  %12 = tail call i32 @llvm.ctpop.i32(i32 %11)
  %13 = trunc i32 %12 to i8
  %14 = and i8 %13, 1
  %15 = xor i8 %14, 1
  %16 = getelementptr inbounds %struct.State, %struct.State* %0, i64 0, i32 2, i32 3
  store i8 %15, i8* %16, align 1
  %17 = xor i64 %3, 16
  %18 = xor i64 %17, %6
  %19 = lshr i64 %18, 4
  %20 = trunc i64 %19 to i8
  %21 = and i8 %20, 1
  %22 = getelementptr inbounds %struct.State, %struct.State* %0, i64 0, i32 2, i32 5
  store i8 %21, i8* %22, align 1
  %23 = icmp eq i64 %6, 0
  %24 = zext i1 %23 to i8
  %25 = getelementptr inbounds %struct.State, %struct.State* %0, i64 0, i32 2, i32 7
  store i8 %24, i8* %25, align 1
  %26 = lshr i64 %6, 63
  %27 = trunc i64 %26 to i8
  %28 = getelementptr inbounds %struct.State, %struct.State* %0, i64 0, i32 2, i32 9
  store i8 %27, i8* %28, align 1
  %29 = lshr i64 %3, 63
  %30 = xor i64 %26, %29
  %31 = add nuw nsw i64 %30, %29
  %32 = icmp eq i64 %31, 2
  %33 = zext i1 %32 to i8
  %34 = getelementptr inbounds %struct.State, %struct.State* %0, i64 0, i32 2, i32 13
  store i8 %33, i8* %34, align 1
  ret %struct.Memory* %2
}

; Function Attrs: alwaysinline norecurse nounwind
define %struct.Memory* @routine_leaq_MINUS0x10__rbp____rax(%struct.State* nocapture dereferenceable(3376), i64, %struct.Memory* readnone returned) local_unnamed_addr #2 {
block_400488:
  %PC = getelementptr inbounds %struct.State, %struct.State* %0, i64 0, i32 6, i32 33, i32 0, i32 0
  %RAX = getelementptr inbounds %struct.State, %struct.State* %0, i64 0, i32 6, i32 1, i32 0, i32 0
  %RBP = getelementptr inbounds %struct.State, %struct.State* %0, i64 0, i32 6, i32 15, i32 0, i32 0
  %3 = load i64, i64* %RBP, align 8
  %4 = add i64 %3, -16
  %5 = load i64, i64* %PC, align 8
  %6 = add i64 %5, 4
  store i64 %6, i64* %PC, align 8
  store i64 %4, i64* %RAX, align 8
  ret %struct.Memory* %2
}

; Function Attrs: alwaysinline norecurse nounwind
define %struct.Memory* @routine_leaq_MINUS0x8__rbp____rcx(%struct.State* nocapture dereferenceable(3376), i64, %struct.Memory* readnone returned) local_unnamed_addr #2 {
block_400488:
  %PC = getelementptr inbounds %struct.State, %struct.State* %0, i64 0, i32 6, i32 33, i32 0, i32 0
  %RCX = getelementptr inbounds %struct.State, %struct.State* %0, i64 0, i32 6, i32 5, i32 0, i32 0
  %RBP = getelementptr inbounds %struct.State, %struct.State* %0, i64 0, i32 6, i32 15, i32 0, i32 0
  %3 = load i64, i64* %RBP, align 8
  %4 = add i64 %3, -8
  %5 = load i64, i64* %PC, align 8
  %6 = add i64 %5, 4
  store i64 %6, i64* %PC, align 8
  store i64 %4, i64* %RCX, align 8
  ret %struct.Memory* %2
}

; Function Attrs: alwaysinline norecurse nounwind
define %struct.Memory* @routine_movq__rdi__MINUS0x8__rbp_(%struct.State* nocapture dereferenceable(3376), i64, %struct.Memory* readnone returned) local_unnamed_addr #2 {
block_400488:
  %PC = getelementptr inbounds %struct.State, %struct.State* %0, i64 0, i32 6, i32 33, i32 0, i32 0
  %RDI = getelementptr inbounds %struct.State, %struct.State* %0, i64 0, i32 6, i32 11, i32 0, i32 0
  %RBP = getelementptr inbounds %struct.State, %struct.State* %0, i64 0, i32 6, i32 15, i32 0, i32 0
  %3 = load i64, i64* %RBP, align 8
  %4 = add i64 %3, -8
  %5 = load i64, i64* %RDI, align 8
  %6 = load i64, i64* %PC, align 8
  %7 = add i64 %6, 4
  store i64 %7, i64* %PC, align 8
  %8 = inttoptr i64 %4 to i64*
  store i64 %5, i64* %8, align 8
  ret %struct.Memory* %2
}

; Function Attrs: alwaysinline norecurse nounwind
define %struct.Memory* @routine_movq__rsi__MINUS0x10__rbp_(%struct.State* nocapture dereferenceable(3376), i64, %struct.Memory* readnone returned) local_unnamed_addr #2 {
block_400488:
  %PC = getelementptr inbounds %struct.State, %struct.State* %0, i64 0, i32 6, i32 33, i32 0, i32 0
  %RSI = getelementptr inbounds %struct.State, %struct.State* %0, i64 0, i32 6, i32 9, i32 0, i32 0
  %RBP = getelementptr inbounds %struct.State, %struct.State* %0, i64 0, i32 6, i32 15, i32 0, i32 0
  %3 = load i64, i64* %RBP, align 8
  %4 = add i64 %3, -16
  %5 = load i64, i64* %RSI, align 8
  %6 = load i64, i64* %PC, align 8
  %7 = add i64 %6, 4
  store i64 %7, i64* %PC, align 8
  %8 = inttoptr i64 %4 to i64*
  store i64 %5, i64* %8, align 8
  ret %struct.Memory* %2
}

; Function Attrs: alwaysinline norecurse nounwind
define %struct.Memory* @routine_movq__rax___rdi(%struct.State* nocapture dereferenceable(3376), i64, %struct.Memory* readnone returned) local_unnamed_addr #2 {
block_400488:
  %PC = getelementptr inbounds %struct.State, %struct.State* %0, i64 0, i32 6, i32 33, i32 0, i32 0
  %RAX = getelementptr inbounds %struct.State, %struct.State* %0, i64 0, i32 6, i32 1, i32 0, i32 0
  %RDI = getelementptr inbounds %struct.State, %struct.State* %0, i64 0, i32 6, i32 11, i32 0, i32 0
  %3 = load i64, i64* %RAX, align 8
  %4 = load i64, i64* %PC, align 8
  %5 = add i64 %4, 3
  store i64 %5, i64* %PC, align 8
  store i64 %3, i64* %RDI, align 8
  ret %struct.Memory* %2
}

; Function Attrs: alwaysinline norecurse nounwind
define %struct.Memory* @routine_movq__rcx___rsi(%struct.State* nocapture dereferenceable(3376), i64, %struct.Memory* readnone returned) local_unnamed_addr #2 {
block_400488:
  %PC = getelementptr inbounds %struct.State, %struct.State* %0, i64 0, i32 6, i32 33, i32 0, i32 0
  %RCX = getelementptr inbounds %struct.State, %struct.State* %0, i64 0, i32 6, i32 5, i32 0, i32 0
  %RSI = getelementptr inbounds %struct.State, %struct.State* %0, i64 0, i32 6, i32 9, i32 0, i32 0
  %3 = load i64, i64* %RCX, align 8
  %4 = load i64, i64* %PC, align 8
  %5 = add i64 %4, 3
  store i64 %5, i64* %PC, align 8
  store i64 %3, i64* %RSI, align 8
  ret %struct.Memory* %2
}

; Function Attrs: alwaysinline norecurse nounwind
define %struct.Memory* @routine_callq_._ZmiIdElR14PointerWrapperIT_ES3_(%struct.State* nocapture dereferenceable(3376), i64, %struct.Memory* readnone returned, i64 %rel_off1, i64 %rel_off2, i64 %rel_off3) local_unnamed_addr #2 {
block_400488:
  %PC = getelementptr inbounds %struct.State, %struct.State* %0, i64 0, i32 6, i32 33, i32 0, i32 0
  %3 = load i64, i64* %PC, align 8
  %4 = add i64 %3, %rel_off1
  %5 = add i64 %3, %rel_off2
  %6 = getelementptr inbounds %struct.State, %struct.State* %0, i64 0, i32 6, i32 13, i32 0, i32 0
  %7 = load i64, i64* %6, align 8
  %8 = add i64 %7, -8
  %9 = inttoptr i64 %8 to i64*
  store i64 %5, i64* %9, align 8
  store i64 %8, i64* %6, align 8
  store i64 %4, i64* %PC, align 8
  ret %struct.Memory* %2
}

; Function Attrs: alwaysinline nounwind
define %struct.Memory* @routine_cmpq__0x1___rax(%struct.State* nocapture dereferenceable(3376), i64, %struct.Memory* readnone returned) local_unnamed_addr #3 {
block_400488:
  %PC = getelementptr inbounds %struct.State, %struct.State* %0, i64 0, i32 6, i32 33, i32 0, i32 0
  %RAX = getelementptr inbounds %struct.State, %struct.State* %0, i64 0, i32 6, i32 1, i32 0, i32 0
  %3 = load i64, i64* %RAX, align 8
  %4 = load i64, i64* %PC, align 8
  %5 = add i64 %4, 4
  store i64 %5, i64* %PC, align 8
  %6 = add i64 %3, -1
  %7 = icmp eq i64 %3, 0
  %8 = zext i1 %7 to i8
  %9 = getelementptr inbounds %struct.State, %struct.State* %0, i64 0, i32 2, i32 1
  store i8 %8, i8* %9, align 1
  %10 = trunc i64 %6 to i32
  %11 = and i32 %10, 255
  %12 = tail call i32 @llvm.ctpop.i32(i32 %11)
  %13 = trunc i32 %12 to i8
  %14 = and i8 %13, 1
  %15 = xor i8 %14, 1
  %16 = getelementptr inbounds %struct.State, %struct.State* %0, i64 0, i32 2, i32 3
  store i8 %15, i8* %16, align 1
  %17 = xor i64 %6, %3
  %18 = lshr i64 %17, 4
  %19 = trunc i64 %18 to i8
  %20 = and i8 %19, 1
  %21 = getelementptr inbounds %struct.State, %struct.State* %0, i64 0, i32 2, i32 5
  store i8 %20, i8* %21, align 1
  %22 = icmp eq i64 %6, 0
  %23 = zext i1 %22 to i8
  %24 = getelementptr inbounds %struct.State, %struct.State* %0, i64 0, i32 2, i32 7
  store i8 %23, i8* %24, align 1
  %25 = lshr i64 %6, 63
  %26 = trunc i64 %25 to i8
  %27 = getelementptr inbounds %struct.State, %struct.State* %0, i64 0, i32 2, i32 9
  store i8 %26, i8* %27, align 1
  %28 = lshr i64 %3, 63
  %29 = xor i64 %25, %28
  %30 = add nuw nsw i64 %29, %28
  %31 = icmp eq i64 %30, 2
  %32 = zext i1 %31 to i8
  %33 = getelementptr inbounds %struct.State, %struct.State* %0, i64 0, i32 2, i32 13
  store i8 %32, i8* %33, align 1
  ret %struct.Memory* %2
}

; Function Attrs: alwaysinline norecurse nounwind
define %struct.Memory* @routine_jle_.L_4055d7(%struct.State* nocapture dereferenceable(3376), i64, %struct.Memory* readnone returned, i8* nocapture %BRANCH_TAKEN, i64 %rel_off1, i64 %rel_off2, i64 %rel_off3) local_unnamed_addr #2 {
block_400488:
  %PC = getelementptr inbounds %struct.State, %struct.State* %0, i64 0, i32 6, i32 33, i32 0, i32 0
  %3 = load i64, i64* %PC, align 8
  %4 = getelementptr inbounds %struct.State, %struct.State* %0, i64 0, i32 2, i32 7
  %5 = load i8, i8* %4, align 1
  %6 = icmp ne i8 %5, 0
  %7 = getelementptr inbounds %struct.State, %struct.State* %0, i64 0, i32 2, i32 9
  %8 = load i8, i8* %7, align 1
  %9 = icmp ne i8 %8, 0
  %10 = getelementptr inbounds %struct.State, %struct.State* %0, i64 0, i32 2, i32 13
  %11 = load i8, i8* %10, align 1
  %12 = icmp ne i8 %11, 0
  %13 = xor i1 %9, %12
  %14 = or i1 %6, %13
  %15 = zext i1 %14 to i8
  store i8 %15, i8* %BRANCH_TAKEN, align 1
  %.v = select i1 %14, i64 %rel_off1, i64 %rel_off2
  %16 = add i64 %.v, %3
  store i64 %16, i64* %PC, align 8
  ret %struct.Memory* %2
}

; Function Attrs: alwaysinline norecurse nounwind
define %struct.Memory* @routine_leaq_MINUS0x8__rbp____rdi(%struct.State* nocapture dereferenceable(3376), i64, %struct.Memory* readnone returned) local_unnamed_addr #2 {
block_400488:
  %PC = getelementptr inbounds %struct.State, %struct.State* %0, i64 0, i32 6, i32 33, i32 0, i32 0
  %RDI = getelementptr inbounds %struct.State, %struct.State* %0, i64 0, i32 6, i32 11, i32 0, i32 0
  %RBP = getelementptr inbounds %struct.State, %struct.State* %0, i64 0, i32 6, i32 15, i32 0, i32 0
  %3 = load i64, i64* %RBP, align 8
  %4 = add i64 %3, -8
  %5 = load i64, i64* %PC, align 8
  %6 = add i64 %5, 4
  store i64 %6, i64* %PC, align 8
  store i64 %4, i64* %RDI, align 8
  ret %struct.Memory* %2
}

; Function Attrs: alwaysinline norecurse nounwind
define %struct.Memory* @routine_callq_._ZNK14PointerWrapperIdEdeEv(%struct.State* nocapture dereferenceable(3376), i64, %struct.Memory* readnone returned, i64 %rel_off1, i64 %rel_off2, i64 %rel_off3) local_unnamed_addr #2 {
block_400488:
  %PC = getelementptr inbounds %struct.State, %struct.State* %0, i64 0, i32 6, i32 33, i32 0, i32 0
  %3 = load i64, i64* %PC, align 8
  %4 = add i64 %3, %rel_off1
  %5 = add i64 %3, %rel_off2
  %6 = getelementptr inbounds %struct.State, %struct.State* %0, i64 0, i32 6, i32 13, i32 0, i32 0
  %7 = load i64, i64* %6, align 8
  %8 = add i64 %7, -8
  %9 = inttoptr i64 %8 to i64*
  store i64 %5, i64* %9, align 8
  store i64 %8, i64* %6, align 8
  store i64 %4, i64* %PC, align 8
  ret %struct.Memory* %2
}

; Function Attrs: alwaysinline norecurse nounwind
define %struct.Memory* @routine_movsd___rax____xmm0(%struct.State* nocapture dereferenceable(3376), i64, %struct.Memory* readnone returned) local_unnamed_addr #2 {
block_400488:
  %PC = getelementptr inbounds %struct.State, %struct.State* %0, i64 0, i32 6, i32 33, i32 0, i32 0
  %RAX = getelementptr inbounds %struct.State, %struct.State* %0, i64 0, i32 6, i32 1, i32 0, i32 0
  %3 = bitcast i64* %RAX to i64**
  %4 = load i64*, i64** %3, align 8
  %5 = load i64, i64* %PC, align 8
  %6 = add i64 %5, 4
  store i64 %6, i64* %PC, align 8
  %7 = load i64, i64* %4, align 8
  %8 = getelementptr inbounds %struct.State, %struct.State* %0, i64 0, i32 1, i64 0, i32 0, i32 0, i32 0, i64 0
  store i64 %7, i64* %8, align 1
  %9 = getelementptr inbounds %struct.State, %struct.State* %0, i64 0, i32 1, i64 0, i32 0, i32 0, i32 0, i64 1
  %10 = bitcast i64* %9 to double*
  store double 0.000000e+00, double* %10, align 1
  ret %struct.Memory* %2
}

; Function Attrs: alwaysinline norecurse nounwind
define %struct.Memory* @routine_movsd__xmm0__MINUS0x18__rbp_(%struct.State* nocapture dereferenceable(3376), i64, %struct.Memory* readnone returned) local_unnamed_addr #2 {
block_400488:
  %PC = getelementptr inbounds %struct.State, %struct.State* %0, i64 0, i32 6, i32 33, i32 0, i32 0
  %RBP = getelementptr inbounds %struct.State, %struct.State* %0, i64 0, i32 6, i32 15, i32 0, i32 0
  %3 = load i64, i64* %RBP, align 8
  %4 = add i64 %3, -24
  %5 = load i64, i64* %PC, align 8
  %6 = add i64 %5, 5
  store i64 %6, i64* %PC, align 8
  %7 = getelementptr inbounds %struct.State, %struct.State* %0, i64 0, i32 1, i64 0, i32 0, i32 0, i32 0, i64 0
  %8 = load i64, i64* %7, align 1
  %9 = inttoptr i64 %4 to i64*
  store i64 %8, i64* %9, align 8
  ret %struct.Memory* %2
}

; Function Attrs: alwaysinline norecurse nounwind
define %struct.Memory* @routine_movq_MINUS0x8__rbp____rax(%struct.State* nocapture dereferenceable(3376), i64, %struct.Memory* readnone returned) local_unnamed_addr #2 {
block_400488:
  %PC = getelementptr inbounds %struct.State, %struct.State* %0, i64 0, i32 6, i32 33, i32 0, i32 0
  %RAX = getelementptr inbounds %struct.State, %struct.State* %0, i64 0, i32 6, i32 1, i32 0, i32 0
  %RBP = getelementptr inbounds %struct.State, %struct.State* %0, i64 0, i32 6, i32 15, i32 0, i32 0
  %3 = load i64, i64* %RBP, align 8
  %4 = add i64 %3, -8
  %5 = load i64, i64* %PC, align 8
  %6 = add i64 %5, 4
  store i64 %6, i64* %PC, align 8
  %7 = inttoptr i64 %4 to i64*
  %8 = load i64, i64* %7, align 8
  store i64 %8, i64* %RAX, align 8
  ret %struct.Memory* %2
}

; Function Attrs: alwaysinline norecurse nounwind
define %struct.Memory* @routine_movq__rax__MINUS0x20__rbp_(%struct.State* nocapture dereferenceable(3376), i64, %struct.Memory* readnone returned) local_unnamed_addr #2 {
block_400488:
  %PC = getelementptr inbounds %struct.State, %struct.State* %0, i64 0, i32 6, i32 33, i32 0, i32 0
  %RAX = getelementptr inbounds %struct.State, %struct.State* %0, i64 0, i32 6, i32 1, i32 0, i32 0
  %RBP = getelementptr inbounds %struct.State, %struct.State* %0, i64 0, i32 6, i32 15, i32 0, i32 0
  %3 = load i64, i64* %RBP, align 8
  %4 = add i64 %3, -32
  %5 = load i64, i64* %RAX, align 8
  %6 = load i64, i64* %PC, align 8
  %7 = add i64 %6, 4
  store i64 %7, i64* %PC, align 8
  %8 = inttoptr i64 %4 to i64*
  store i64 %5, i64* %8, align 8
  ret %struct.Memory* %2
}

; Function Attrs: alwaysinline norecurse nounwind
define %struct.Memory* @routine_movq_MINUS0x10__rbp____rax(%struct.State* nocapture dereferenceable(3376), i64, %struct.Memory* readnone returned) local_unnamed_addr #2 {
block_400488:
  %PC = getelementptr inbounds %struct.State, %struct.State* %0, i64 0, i32 6, i32 33, i32 0, i32 0
  %RAX = getelementptr inbounds %struct.State, %struct.State* %0, i64 0, i32 6, i32 1, i32 0, i32 0
  %RBP = getelementptr inbounds %struct.State, %struct.State* %0, i64 0, i32 6, i32 15, i32 0, i32 0
  %3 = load i64, i64* %RBP, align 8
  %4 = add i64 %3, -16
  %5 = load i64, i64* %PC, align 8
  %6 = add i64 %5, 4
  store i64 %6, i64* %PC, align 8
  %7 = inttoptr i64 %4 to i64*
  %8 = load i64, i64* %7, align 8
  store i64 %8, i64* %RAX, align 8
  ret %struct.Memory* %2
}

; Function Attrs: alwaysinline norecurse nounwind
define %struct.Memory* @routine_movq__rax__MINUS0x28__rbp_(%struct.State* nocapture dereferenceable(3376), i64, %struct.Memory* readnone returned) local_unnamed_addr #2 {
block_400488:
  %PC = getelementptr inbounds %struct.State, %struct.State* %0, i64 0, i32 6, i32 33, i32 0, i32 0
  %RAX = getelementptr inbounds %struct.State, %struct.State* %0, i64 0, i32 6, i32 1, i32 0, i32 0
  %RBP = getelementptr inbounds %struct.State, %struct.State* %0, i64 0, i32 6, i32 15, i32 0, i32 0
  %3 = load i64, i64* %RBP, align 8
  %4 = add i64 %3, -40
  %5 = load i64, i64* %RAX, align 8
  %6 = load i64, i64* %PC, align 8
  %7 = add i64 %6, 4
  store i64 %7, i64* %PC, align 8
  %8 = inttoptr i64 %4 to i64*
  store i64 %5, i64* %8, align 8
  ret %struct.Memory* %2
}

; Function Attrs: alwaysinline norecurse nounwind
define %struct.Memory* @routine_jmpq_.L_405494(%struct.State* nocapture dereferenceable(3376), i64, %struct.Memory* readnone returned, i64 %rel_off1, i64 %rel_off2) local_unnamed_addr #2 {
block_400488:
  %PC = getelementptr inbounds %struct.State, %struct.State* %0, i64 0, i32 6, i32 33, i32 0, i32 0
  %3 = load i64, i64* %PC, align 8
  %4 = add i64 %3, %rel_off1
  store i64 %4, i64* %PC, align 8
  ret %struct.Memory* %2
}

; Function Attrs: alwaysinline norecurse nounwind
define %struct.Memory* @routine_leaq_MINUS0x28__rbp____rdi(%struct.State* nocapture dereferenceable(3376), i64, %struct.Memory* readnone returned) local_unnamed_addr #2 {
block_400488:
  %PC = getelementptr inbounds %struct.State, %struct.State* %0, i64 0, i32 6, i32 33, i32 0, i32 0
  %RDI = getelementptr inbounds %struct.State, %struct.State* %0, i64 0, i32 6, i32 11, i32 0, i32 0
  %RBP = getelementptr inbounds %struct.State, %struct.State* %0, i64 0, i32 6, i32 15, i32 0, i32 0
  %3 = load i64, i64* %RBP, align 8
  %4 = add i64 %3, -40
  %5 = load i64, i64* %PC, align 8
  %6 = add i64 %5, 4
  store i64 %6, i64* %PC, align 8
  store i64 %4, i64* %RDI, align 8
  ret %struct.Memory* %2
}

; Function Attrs: alwaysinline norecurse nounwind
define %struct.Memory* @routine_movsd_MINUS0x18__rbp____xmm0(%struct.State* nocapture dereferenceable(3376), i64, %struct.Memory* readnone returned) local_unnamed_addr #2 {
block_400488:
  %PC = getelementptr inbounds %struct.State, %struct.State* %0, i64 0, i32 6, i32 33, i32 0, i32 0
  %RBP = getelementptr inbounds %struct.State, %struct.State* %0, i64 0, i32 6, i32 15, i32 0, i32 0
  %3 = load i64, i64* %RBP, align 8
  %4 = add i64 %3, -24
  %5 = load i64, i64* %PC, align 8
  %6 = add i64 %5, 5
  store i64 %6, i64* %PC, align 8
  %7 = inttoptr i64 %4 to i64*
  %8 = load i64, i64* %7, align 8
  %9 = getelementptr inbounds %struct.State, %struct.State* %0, i64 0, i32 1, i64 0, i32 0, i32 0, i32 0, i64 0
  store i64 %8, i64* %9, align 1
  %10 = getelementptr inbounds %struct.State, %struct.State* %0, i64 0, i32 1, i64 0, i32 0, i32 0, i32 0, i64 1
  %11 = bitcast i64* %10 to double*
  store double 0.000000e+00, double* %11, align 1
  ret %struct.Memory* %2
}

; Function Attrs: alwaysinline norecurse nounwind
define %struct.Memory* @routine_movsd__xmm0__MINUS0x58__rbp_(%struct.State* nocapture dereferenceable(3376), i64, %struct.Memory* readnone returned) local_unnamed_addr #2 {
block_400488:
  %PC = getelementptr inbounds %struct.State, %struct.State* %0, i64 0, i32 6, i32 33, i32 0, i32 0
  %RBP = getelementptr inbounds %struct.State, %struct.State* %0, i64 0, i32 6, i32 15, i32 0, i32 0
  %3 = load i64, i64* %RBP, align 8
  %4 = add i64 %3, -88
  %5 = load i64, i64* %PC, align 8
  %6 = add i64 %5, 5
  store i64 %6, i64* %PC, align 8
  %7 = getelementptr inbounds %struct.State, %struct.State* %0, i64 0, i32 1, i64 0, i32 0, i32 0, i32 0, i64 0
  %8 = load i64, i64* %7, align 1
  %9 = inttoptr i64 %4 to i64*
  store i64 %8, i64* %9, align 8
  ret %struct.Memory* %2
}

; Function Attrs: alwaysinline norecurse nounwind
define %struct.Memory* @routine_callq_._ZmmIdER14PointerWrapperIT_ES3_(%struct.State* nocapture dereferenceable(3376), i64, %struct.Memory* readnone returned, i64 %rel_off1, i64 %rel_off2, i64 %rel_off3) local_unnamed_addr #2 {
block_400488:
  %PC = getelementptr inbounds %struct.State, %struct.State* %0, i64 0, i32 6, i32 33, i32 0, i32 0
  %3 = load i64, i64* %PC, align 8
  %4 = add i64 %3, %rel_off1
  %5 = add i64 %3, %rel_off2
  %6 = getelementptr inbounds %struct.State, %struct.State* %0, i64 0, i32 6, i32 13, i32 0, i32 0
  %7 = load i64, i64* %6, align 8
  %8 = add i64 %7, -8
  %9 = inttoptr i64 %8 to i64*
  store i64 %5, i64* %9, align 8
  store i64 %8, i64* %6, align 8
  store i64 %4, i64* %PC, align 8
  ret %struct.Memory* %2
}

; Function Attrs: alwaysinline norecurse nounwind
define %struct.Memory* @routine_movsd_MINUS0x58__rbp____xmm1(%struct.State* nocapture dereferenceable(3376), i64, %struct.Memory* readnone returned) local_unnamed_addr #2 {
block_400488:
  %PC = getelementptr inbounds %struct.State, %struct.State* %0, i64 0, i32 6, i32 33, i32 0, i32 0
  %RBP = getelementptr inbounds %struct.State, %struct.State* %0, i64 0, i32 6, i32 15, i32 0, i32 0
  %3 = load i64, i64* %RBP, align 8
  %4 = add i64 %3, -88
  %5 = load i64, i64* %PC, align 8
  %6 = add i64 %5, 5
  store i64 %6, i64* %PC, align 8
  %7 = inttoptr i64 %4 to i64*
  %8 = load i64, i64* %7, align 8
  %9 = getelementptr inbounds %struct.State, %struct.State* %0, i64 0, i32 1, i64 1, i32 0, i32 0, i32 0, i64 0
  store i64 %8, i64* %9, align 1
  %10 = getelementptr inbounds %struct.State, %struct.State* %0, i64 0, i32 1, i64 1, i32 0, i32 0, i32 0, i64 1
  %11 = bitcast i64* %10 to double*
  store double 0.000000e+00, double* %11, align 1
  ret %struct.Memory* %2
}

; Function Attrs: alwaysinline
define %struct.Memory* @routine_ucomisd__xmm1___xmm0(%struct.State* dereferenceable(3376), i64, %struct.Memory*) local_unnamed_addr #1 {
block_400488:
  %PC = getelementptr inbounds %struct.State, %struct.State* %0, i64 0, i32 6, i32 33, i32 0, i32 0
  %3 = getelementptr inbounds %struct.State, %struct.State* %0, i64 0, i32 1
  %4 = getelementptr inbounds %struct.State, %struct.State* %0, i64 0, i32 1, i64 1
  %5 = load i64, i64* %PC, align 8
  %6 = add i64 %5, 4
  store i64 %6, i64* %PC, align 8
  %7 = bitcast [32 x %union.VectorReg]* %3 to double*
  %8 = load double, double* %7, align 1
  %9 = bitcast %union.VectorReg* %4 to double*
  %10 = load double, double* %9, align 1
  %11 = fcmp uno double %8, %10
  br i1 %11, label %12, label %22

; <label>:12:                                     ; preds = %block_400488
  %13 = fadd double %8, %10
  %14 = bitcast double %13 to i64
  %15 = and i64 %14, 9221120237041090560
  %16 = icmp eq i64 %15, 9218868437227405312
  %17 = and i64 %14, 2251799813685247
  %18 = icmp ne i64 %17, 0
  %19 = and i1 %16, %18
  br i1 %19, label %20, label %28

; <label>:20:                                     ; preds = %12
  %21 = tail call %struct.Memory* @__remill_error(%struct.State* nonnull dereferenceable(3376) %0, i64 %6, %struct.Memory* %2)
  br label %_ZN12_GLOBAL__N_1L6COMISDI2VnI8vec128_tES3_EEP6MemoryS5_R5StateT_T0_.exit

; <label>:22:                                     ; preds = %block_400488
  %23 = fcmp ogt double %8, %10
  br i1 %23, label %28, label %24

; <label>:24:                                     ; preds = %22
  %25 = fcmp olt double %8, %10
  br i1 %25, label %28, label %26

; <label>:26:                                     ; preds = %24
  %27 = fcmp oeq double %8, %10
  br i1 %27, label %28, label %35

; <label>:28:                                     ; preds = %26, %24, %22, %12
  %29 = phi i8 [ 0, %22 ], [ 0, %24 ], [ 1, %26 ], [ 1, %12 ]
  %30 = phi i8 [ 0, %22 ], [ 0, %24 ], [ 0, %26 ], [ 1, %12 ]
  %31 = phi i8 [ 0, %22 ], [ 1, %24 ], [ 0, %26 ], [ 1, %12 ]
  %32 = getelementptr inbounds %struct.State, %struct.State* %0, i64 0, i32 2, i32 7
  store i8 %29, i8* %32, align 1
  %33 = getelementptr inbounds %struct.State, %struct.State* %0, i64 0, i32 2, i32 3
  store i8 %30, i8* %33, align 1
  %34 = getelementptr inbounds %struct.State, %struct.State* %0, i64 0, i32 2, i32 1
  store i8 %31, i8* %34, align 1
  br label %35

; <label>:35:                                     ; preds = %28, %26
  %36 = getelementptr inbounds %struct.State, %struct.State* %0, i64 0, i32 2, i32 13
  store i8 0, i8* %36, align 1
  %37 = getelementptr inbounds %struct.State, %struct.State* %0, i64 0, i32 2, i32 9
  store i8 0, i8* %37, align 1
  %38 = getelementptr inbounds %struct.State, %struct.State* %0, i64 0, i32 2, i32 5
  store i8 0, i8* %38, align 1
  br label %_ZN12_GLOBAL__N_1L6COMISDI2VnI8vec128_tES3_EEP6MemoryS5_R5StateT_T0_.exit

_ZN12_GLOBAL__N_1L6COMISDI2VnI8vec128_tES3_EEP6MemoryS5_R5StateT_T0_.exit: ; preds = %35, %20
  %39 = phi %struct.Memory* [ %21, %20 ], [ %2, %35 ]
  ret %struct.Memory* %39
}

; Function Attrs: alwaysinline norecurse nounwind
define %struct.Memory* @routine_jbe_.L_4054c7(%struct.State* nocapture dereferenceable(3376), i64, %struct.Memory* readnone returned, i8* nocapture %BRANCH_TAKEN, i64 %rel_off1, i64 %rel_off2, i64 %rel_off3) local_unnamed_addr #2 {
block_400488:
  %PC = getelementptr inbounds %struct.State, %struct.State* %0, i64 0, i32 6, i32 33, i32 0, i32 0
  %3 = load i64, i64* %PC, align 8
  %4 = getelementptr inbounds %struct.State, %struct.State* %0, i64 0, i32 2, i32 1
  %5 = load i8, i8* %4, align 1
  %6 = getelementptr inbounds %struct.State, %struct.State* %0, i64 0, i32 2, i32 7
  %7 = load i8, i8* %6, align 1
  %8 = or i8 %7, %5
  %9 = icmp ne i8 %8, 0
  %10 = zext i1 %9 to i8
  store i8 %10, i8* %BRANCH_TAKEN, align 1
  %.v = select i1 %9, i64 %rel_off1, i64 %rel_off2
  %11 = add i64 %.v, %3
  store i64 %11, i64* %PC, align 8
  ret %struct.Memory* %2
}

; Function Attrs: alwaysinline norecurse nounwind
define %struct.Memory* @routine_leaq_MINUS0x20__rbp____rdi(%struct.State* nocapture dereferenceable(3376), i64, %struct.Memory* readnone returned) local_unnamed_addr #2 {
block_400488:
  %PC = getelementptr inbounds %struct.State, %struct.State* %0, i64 0, i32 6, i32 33, i32 0, i32 0
  %RDI = getelementptr inbounds %struct.State, %struct.State* %0, i64 0, i32 6, i32 11, i32 0, i32 0
  %RBP = getelementptr inbounds %struct.State, %struct.State* %0, i64 0, i32 6, i32 15, i32 0, i32 0
  %3 = load i64, i64* %RBP, align 8
  %4 = add i64 %3, -32
  %5 = load i64, i64* %PC, align 8
  %6 = add i64 %5, 4
  store i64 %6, i64* %PC, align 8
  store i64 %4, i64* %RDI, align 8
  ret %struct.Memory* %2
}

; Function Attrs: alwaysinline norecurse nounwind
define %struct.Memory* @routine_leaq_MINUS0x28__rbp____rsi(%struct.State* nocapture dereferenceable(3376), i64, %struct.Memory* readnone returned) local_unnamed_addr #2 {
block_400488:
  %PC = getelementptr inbounds %struct.State, %struct.State* %0, i64 0, i32 6, i32 33, i32 0, i32 0
  %RSI = getelementptr inbounds %struct.State, %struct.State* %0, i64 0, i32 6, i32 9, i32 0, i32 0
  %RBP = getelementptr inbounds %struct.State, %struct.State* %0, i64 0, i32 6, i32 15, i32 0, i32 0
  %3 = load i64, i64* %RBP, align 8
  %4 = add i64 %3, -40
  %5 = load i64, i64* %PC, align 8
  %6 = add i64 %5, 4
  store i64 %6, i64* %PC, align 8
  store i64 %4, i64* %RSI, align 8
  ret %struct.Memory* %2
}

; Function Attrs: alwaysinline norecurse nounwind
define %struct.Memory* @routine_callq_._ZltIdEbRK14PointerWrapperIT_ES4_(%struct.State* nocapture dereferenceable(3376), i64, %struct.Memory* readnone returned, i64 %rel_off1, i64 %rel_off2, i64 %rel_off3) local_unnamed_addr #2 {
block_400488:
  %PC = getelementptr inbounds %struct.State, %struct.State* %0, i64 0, i32 6, i32 33, i32 0, i32 0
  %3 = load i64, i64* %PC, align 8
  %4 = add i64 %3, %rel_off1
  %5 = add i64 %3, %rel_off2
  %6 = getelementptr inbounds %struct.State, %struct.State* %0, i64 0, i32 6, i32 13, i32 0, i32 0
  %7 = load i64, i64* %6, align 8
  %8 = add i64 %7, -8
  %9 = inttoptr i64 %8 to i64*
  store i64 %5, i64* %9, align 8
  store i64 %8, i64* %6, align 8
  store i64 %4, i64* %PC, align 8
  ret %struct.Memory* %2
}

; Function Attrs: alwaysinline nounwind
define %struct.Memory* @routine_testb__0x1___al(%struct.State* nocapture dereferenceable(3376), i64, %struct.Memory* readnone returned) local_unnamed_addr #3 {
block_400488:
  %PC = getelementptr inbounds %struct.State, %struct.State* %0, i64 0, i32 6, i32 33, i32 0, i32 0
  %3 = getelementptr inbounds %struct.State, %struct.State* %0, i64 0, i32 6, i32 1, i32 0
  %AL = bitcast %union.anon* %3 to i8*
  %4 = load i8, i8* %AL, align 1
  %5 = load i64, i64* %PC, align 8
  %6 = add i64 %5, 2
  store i64 %6, i64* %PC, align 8
  %7 = and i8 %4, 1
  %8 = getelementptr inbounds %struct.State, %struct.State* %0, i64 0, i32 2, i32 1
  store i8 0, i8* %8, align 1
  %9 = zext i8 %7 to i32
  %10 = tail call i32 @llvm.ctpop.i32(i32 %9)
  %11 = trunc i32 %10 to i8
  %12 = xor i8 %11, 1
  %13 = getelementptr inbounds %struct.State, %struct.State* %0, i64 0, i32 2, i32 3
  store i8 %12, i8* %13, align 1
  %14 = xor i8 %7, 1
  %15 = getelementptr inbounds %struct.State, %struct.State* %0, i64 0, i32 2, i32 7
  store i8 %14, i8* %15, align 1
  %16 = getelementptr inbounds %struct.State, %struct.State* %0, i64 0, i32 2, i32 9
  store i8 0, i8* %16, align 1
  %17 = getelementptr inbounds %struct.State, %struct.State* %0, i64 0, i32 2, i32 13
  store i8 0, i8* %17, align 1
  %18 = getelementptr inbounds %struct.State, %struct.State* %0, i64 0, i32 2, i32 5
  store i8 0, i8* %18, align 1
  ret %struct.Memory* %2
}

; Function Attrs: alwaysinline norecurse nounwind
define %struct.Memory* @routine_jne_.L_4054e1(%struct.State* nocapture dereferenceable(3376), i64, %struct.Memory* readnone returned, i8* nocapture %BRANCH_TAKEN, i64 %rel_off1, i64 %rel_off2, i64 %rel_off3) local_unnamed_addr #2 {
block_400488:
  %PC = getelementptr inbounds %struct.State, %struct.State* %0, i64 0, i32 6, i32 33, i32 0, i32 0
  %3 = load i64, i64* %PC, align 8
  %4 = getelementptr inbounds %struct.State, %struct.State* %0, i64 0, i32 2, i32 7
  %5 = load i8, i8* %4, align 1
  %6 = icmp eq i8 %5, 0
  %7 = zext i1 %6 to i8
  store i8 %7, i8* %BRANCH_TAKEN, align 1
  %.v = select i1 %6, i64 %rel_off1, i64 %rel_off2
  %8 = add i64 %.v, %3
  store i64 %8, i64* %PC, align 8
  ret %struct.Memory* %2
}

; Function Attrs: alwaysinline norecurse nounwind
define %struct.Memory* @routine_jmpq_.L_405585(%struct.State* nocapture dereferenceable(3376), i64, %struct.Memory* readnone returned, i64 %rel_off1, i64 %rel_off2) local_unnamed_addr #2 {
block_400488:
  %PC = getelementptr inbounds %struct.State, %struct.State* %0, i64 0, i32 6, i32 33, i32 0, i32 0
  %3 = load i64, i64* %PC, align 8
  %4 = add i64 %3, %rel_off1
  store i64 %4, i64* %PC, align 8
  ret %struct.Memory* %2
}

; Function Attrs: alwaysinline norecurse nounwind
define %struct.Memory* @routine_jmpq_.L_4054e6(%struct.State* nocapture dereferenceable(3376), i64, %struct.Memory* readnone returned, i64 %rel_off1, i64 %rel_off2) local_unnamed_addr #2 {
block_400488:
  %PC = getelementptr inbounds %struct.State, %struct.State* %0, i64 0, i32 6, i32 33, i32 0, i32 0
  %3 = load i64, i64* %PC, align 8
  %4 = add i64 %3, %rel_off1
  store i64 %4, i64* %PC, align 8
  ret %struct.Memory* %2
}

; Function Attrs: alwaysinline norecurse nounwind
define %struct.Memory* @routine_movsd_MINUS0x18__rbp____xmm1(%struct.State* nocapture dereferenceable(3376), i64, %struct.Memory* readnone returned) local_unnamed_addr #2 {
block_400488:
  %PC = getelementptr inbounds %struct.State, %struct.State* %0, i64 0, i32 6, i32 33, i32 0, i32 0
  %RBP = getelementptr inbounds %struct.State, %struct.State* %0, i64 0, i32 6, i32 15, i32 0, i32 0
  %3 = load i64, i64* %RBP, align 8
  %4 = add i64 %3, -24
  %5 = load i64, i64* %PC, align 8
  %6 = add i64 %5, 5
  store i64 %6, i64* %PC, align 8
  %7 = inttoptr i64 %4 to i64*
  %8 = load i64, i64* %7, align 8
  %9 = getelementptr inbounds %struct.State, %struct.State* %0, i64 0, i32 1, i64 1, i32 0, i32 0, i32 0, i64 0
  store i64 %8, i64* %9, align 1
  %10 = getelementptr inbounds %struct.State, %struct.State* %0, i64 0, i32 1, i64 1, i32 0, i32 0, i32 0, i64 1
  %11 = bitcast i64* %10 to double*
  store double 0.000000e+00, double* %11, align 1
  ret %struct.Memory* %2
}

; Function Attrs: alwaysinline
define %struct.Memory* @routine_ucomisd__xmm0___xmm1(%struct.State* dereferenceable(3376), i64, %struct.Memory*) local_unnamed_addr #1 {
block_400488:
  %PC = getelementptr inbounds %struct.State, %struct.State* %0, i64 0, i32 6, i32 33, i32 0, i32 0
  %3 = getelementptr inbounds %struct.State, %struct.State* %0, i64 0, i32 1
  %4 = getelementptr inbounds %struct.State, %struct.State* %0, i64 0, i32 1, i64 1
  %5 = load i64, i64* %PC, align 8
  %6 = add i64 %5, 4
  store i64 %6, i64* %PC, align 8
  %7 = bitcast %union.VectorReg* %4 to double*
  %8 = load double, double* %7, align 1
  %9 = bitcast [32 x %union.VectorReg]* %3 to double*
  %10 = load double, double* %9, align 1
  %11 = fcmp uno double %8, %10
  br i1 %11, label %12, label %22

; <label>:12:                                     ; preds = %block_400488
  %13 = fadd double %8, %10
  %14 = bitcast double %13 to i64
  %15 = and i64 %14, 9221120237041090560
  %16 = icmp eq i64 %15, 9218868437227405312
  %17 = and i64 %14, 2251799813685247
  %18 = icmp ne i64 %17, 0
  %19 = and i1 %16, %18
  br i1 %19, label %20, label %28

; <label>:20:                                     ; preds = %12
  %21 = tail call %struct.Memory* @__remill_error(%struct.State* nonnull dereferenceable(3376) %0, i64 %6, %struct.Memory* %2)
  br label %_ZN12_GLOBAL__N_1L6COMISDI2VnI8vec128_tES3_EEP6MemoryS5_R5StateT_T0_.exit

; <label>:22:                                     ; preds = %block_400488
  %23 = fcmp ogt double %8, %10
  br i1 %23, label %28, label %24

; <label>:24:                                     ; preds = %22
  %25 = fcmp olt double %8, %10
  br i1 %25, label %28, label %26

; <label>:26:                                     ; preds = %24
  %27 = fcmp oeq double %8, %10
  br i1 %27, label %28, label %35

; <label>:28:                                     ; preds = %26, %24, %22, %12
  %29 = phi i8 [ 0, %22 ], [ 0, %24 ], [ 1, %26 ], [ 1, %12 ]
  %30 = phi i8 [ 0, %22 ], [ 0, %24 ], [ 0, %26 ], [ 1, %12 ]
  %31 = phi i8 [ 0, %22 ], [ 1, %24 ], [ 0, %26 ], [ 1, %12 ]
  %32 = getelementptr inbounds %struct.State, %struct.State* %0, i64 0, i32 2, i32 7
  store i8 %29, i8* %32, align 1
  %33 = getelementptr inbounds %struct.State, %struct.State* %0, i64 0, i32 2, i32 3
  store i8 %30, i8* %33, align 1
  %34 = getelementptr inbounds %struct.State, %struct.State* %0, i64 0, i32 2, i32 1
  store i8 %31, i8* %34, align 1
  br label %35

; <label>:35:                                     ; preds = %28, %26
  %36 = getelementptr inbounds %struct.State, %struct.State* %0, i64 0, i32 2, i32 13
  store i8 0, i8* %36, align 1
  %37 = getelementptr inbounds %struct.State, %struct.State* %0, i64 0, i32 2, i32 9
  store i8 0, i8* %37, align 1
  %38 = getelementptr inbounds %struct.State, %struct.State* %0, i64 0, i32 2, i32 5
  store i8 0, i8* %38, align 1
  br label %_ZN12_GLOBAL__N_1L6COMISDI2VnI8vec128_tES3_EEP6MemoryS5_R5StateT_T0_.exit

_ZN12_GLOBAL__N_1L6COMISDI2VnI8vec128_tES3_EEP6MemoryS5_R5StateT_T0_.exit: ; preds = %35, %20
  %39 = phi %struct.Memory* [ %21, %20 ], [ %2, %35 ]
  ret %struct.Memory* %39
}

; Function Attrs: alwaysinline norecurse nounwind
define %struct.Memory* @routine_jbe_.L_405514(%struct.State* nocapture dereferenceable(3376), i64, %struct.Memory* readnone returned, i8* nocapture %BRANCH_TAKEN, i64 %rel_off1, i64 %rel_off2, i64 %rel_off3) local_unnamed_addr #2 {
block_400488:
  %PC = getelementptr inbounds %struct.State, %struct.State* %0, i64 0, i32 6, i32 33, i32 0, i32 0
  %3 = load i64, i64* %PC, align 8
  %4 = getelementptr inbounds %struct.State, %struct.State* %0, i64 0, i32 2, i32 1
  %5 = load i8, i8* %4, align 1
  %6 = getelementptr inbounds %struct.State, %struct.State* %0, i64 0, i32 2, i32 7
  %7 = load i8, i8* %6, align 1
  %8 = or i8 %7, %5
  %9 = icmp ne i8 %8, 0
  %10 = zext i1 %9 to i8
  store i8 %10, i8* %BRANCH_TAKEN, align 1
  %.v = select i1 %9, i64 %rel_off1, i64 %rel_off2
  %11 = add i64 %.v, %3
  store i64 %11, i64* %PC, align 8
  ret %struct.Memory* %2
}

; Function Attrs: alwaysinline norecurse nounwind
define %struct.Memory* @routine_callq_._ZppIdER14PointerWrapperIT_ES3_(%struct.State* nocapture dereferenceable(3376), i64, %struct.Memory* readnone returned, i64 %rel_off1, i64 %rel_off2, i64 %rel_off3) local_unnamed_addr #2 {
block_400488:
  %PC = getelementptr inbounds %struct.State, %struct.State* %0, i64 0, i32 6, i32 33, i32 0, i32 0
  %3 = load i64, i64* %PC, align 8
  %4 = add i64 %3, %rel_off1
  %5 = add i64 %3, %rel_off2
  %6 = getelementptr inbounds %struct.State, %struct.State* %0, i64 0, i32 6, i32 13, i32 0, i32 0
  %7 = load i64, i64* %6, align 8
  %8 = add i64 %7, -8
  %9 = inttoptr i64 %8 to i64*
  store i64 %5, i64* %9, align 8
  store i64 %8, i64* %6, align 8
  store i64 %4, i64* %PC, align 8
  ret %struct.Memory* %2
}

; Function Attrs: alwaysinline norecurse nounwind
define %struct.Memory* @routine_movq__rax__MINUS0x60__rbp_(%struct.State* nocapture dereferenceable(3376), i64, %struct.Memory* readnone returned) local_unnamed_addr #2 {
block_400488:
  %PC = getelementptr inbounds %struct.State, %struct.State* %0, i64 0, i32 6, i32 33, i32 0, i32 0
  %RAX = getelementptr inbounds %struct.State, %struct.State* %0, i64 0, i32 6, i32 1, i32 0, i32 0
  %RBP = getelementptr inbounds %struct.State, %struct.State* %0, i64 0, i32 6, i32 15, i32 0, i32 0
  %3 = load i64, i64* %RBP, align 8
  %4 = add i64 %3, -96
  %5 = load i64, i64* %RAX, align 8
  %6 = load i64, i64* %PC, align 8
  %7 = add i64 %6, 4
  store i64 %7, i64* %PC, align 8
  %8 = inttoptr i64 %4 to i64*
  store i64 %5, i64* %8, align 8
  ret %struct.Memory* %2
}

; Function Attrs: alwaysinline norecurse nounwind
define %struct.Memory* @routine_jne_.L_40552e(%struct.State* nocapture dereferenceable(3376), i64, %struct.Memory* readnone returned, i8* nocapture %BRANCH_TAKEN, i64 %rel_off1, i64 %rel_off2, i64 %rel_off3) local_unnamed_addr #2 {
block_400488:
  %PC = getelementptr inbounds %struct.State, %struct.State* %0, i64 0, i32 6, i32 33, i32 0, i32 0
  %3 = load i64, i64* %PC, align 8
  %4 = getelementptr inbounds %struct.State, %struct.State* %0, i64 0, i32 2, i32 7
  %5 = load i8, i8* %4, align 1
  %6 = icmp eq i8 %5, 0
  %7 = zext i1 %6 to i8
  store i8 %7, i8* %BRANCH_TAKEN, align 1
  %.v = select i1 %6, i64 %rel_off1, i64 %rel_off2
  %8 = add i64 %.v, %3
  store i64 %8, i64* %PC, align 8
  ret %struct.Memory* %2
}

; Function Attrs: alwaysinline norecurse nounwind
define %struct.Memory* @routine_movsd__xmm0__MINUS0x30__rbp_(%struct.State* nocapture dereferenceable(3376), i64, %struct.Memory* readnone returned) local_unnamed_addr #2 {
block_400488:
  %PC = getelementptr inbounds %struct.State, %struct.State* %0, i64 0, i32 6, i32 33, i32 0, i32 0
  %RBP = getelementptr inbounds %struct.State, %struct.State* %0, i64 0, i32 6, i32 15, i32 0, i32 0
  %3 = load i64, i64* %RBP, align 8
  %4 = add i64 %3, -48
  %5 = load i64, i64* %PC, align 8
  %6 = add i64 %5, 5
  store i64 %6, i64* %PC, align 8
  %7 = getelementptr inbounds %struct.State, %struct.State* %0, i64 0, i32 1, i64 0, i32 0, i32 0, i32 0, i64 0
  %8 = load i64, i64* %7, align 1
  %9 = inttoptr i64 %4 to i64*
  store i64 %8, i64* %9, align 8
  ret %struct.Memory* %2
}

; Function Attrs: alwaysinline norecurse nounwind
define %struct.Memory* @routine_movsd__xmm0__MINUS0x68__rbp_(%struct.State* nocapture dereferenceable(3376), i64, %struct.Memory* readnone returned) local_unnamed_addr #2 {
block_400488:
  %PC = getelementptr inbounds %struct.State, %struct.State* %0, i64 0, i32 6, i32 33, i32 0, i32 0
  %RBP = getelementptr inbounds %struct.State, %struct.State* %0, i64 0, i32 6, i32 15, i32 0, i32 0
  %3 = load i64, i64* %RBP, align 8
  %4 = add i64 %3, -104
  %5 = load i64, i64* %PC, align 8
  %6 = add i64 %5, 5
  store i64 %6, i64* %PC, align 8
  %7 = getelementptr inbounds %struct.State, %struct.State* %0, i64 0, i32 1, i64 0, i32 0, i32 0, i32 0, i64 0
  %8 = load i64, i64* %7, align 1
  %9 = inttoptr i64 %4 to i64*
  store i64 %8, i64* %9, align 8
  ret %struct.Memory* %2
}

; Function Attrs: alwaysinline norecurse nounwind
define %struct.Memory* @routine_movsd_MINUS0x68__rbp____xmm0(%struct.State* nocapture dereferenceable(3376), i64, %struct.Memory* readnone returned) local_unnamed_addr #2 {
block_400488:
  %PC = getelementptr inbounds %struct.State, %struct.State* %0, i64 0, i32 6, i32 33, i32 0, i32 0
  %RBP = getelementptr inbounds %struct.State, %struct.State* %0, i64 0, i32 6, i32 15, i32 0, i32 0
  %3 = load i64, i64* %RBP, align 8
  %4 = add i64 %3, -104
  %5 = load i64, i64* %PC, align 8
  %6 = add i64 %5, 5
  store i64 %6, i64* %PC, align 8
  %7 = inttoptr i64 %4 to i64*
  %8 = load i64, i64* %7, align 8
  %9 = getelementptr inbounds %struct.State, %struct.State* %0, i64 0, i32 1, i64 0, i32 0, i32 0, i32 0, i64 0
  store i64 %8, i64* %9, align 1
  %10 = getelementptr inbounds %struct.State, %struct.State* %0, i64 0, i32 1, i64 0, i32 0, i32 0, i32 0, i64 1
  %11 = bitcast i64* %10 to double*
  store double 0.000000e+00, double* %11, align 1
  ret %struct.Memory* %2
}

; Function Attrs: alwaysinline norecurse nounwind
define %struct.Memory* @routine_movsd__xmm0____rax_(%struct.State* nocapture dereferenceable(3376), i64, %struct.Memory* readnone returned) local_unnamed_addr #2 {
block_400488:
  %PC = getelementptr inbounds %struct.State, %struct.State* %0, i64 0, i32 6, i32 33, i32 0, i32 0
  %RAX = getelementptr inbounds %struct.State, %struct.State* %0, i64 0, i32 6, i32 1, i32 0, i32 0
  %3 = bitcast i64* %RAX to i64**
  %4 = load i64*, i64** %3, align 8
  %5 = load i64, i64* %PC, align 8
  %6 = add i64 %5, 4
  store i64 %6, i64* %PC, align 8
  %7 = getelementptr inbounds %struct.State, %struct.State* %0, i64 0, i32 1, i64 0, i32 0, i32 0, i32 0, i64 0
  %8 = load i64, i64* %7, align 1
  store i64 %8, i64* %4, align 8
  ret %struct.Memory* %2
}

; Function Attrs: alwaysinline norecurse nounwind
define %struct.Memory* @routine_movsd_MINUS0x30__rbp____xmm0(%struct.State* nocapture dereferenceable(3376), i64, %struct.Memory* readnone returned) local_unnamed_addr #2 {
block_400488:
  %PC = getelementptr inbounds %struct.State, %struct.State* %0, i64 0, i32 6, i32 33, i32 0, i32 0
  %RBP = getelementptr inbounds %struct.State, %struct.State* %0, i64 0, i32 6, i32 15, i32 0, i32 0
  %3 = load i64, i64* %RBP, align 8
  %4 = add i64 %3, -48
  %5 = load i64, i64* %PC, align 8
  %6 = add i64 %5, 5
  store i64 %6, i64* %PC, align 8
  %7 = inttoptr i64 %4 to i64*
  %8 = load i64, i64* %7, align 8
  %9 = getelementptr inbounds %struct.State, %struct.State* %0, i64 0, i32 1, i64 0, i32 0, i32 0, i32 0, i64 0
  store i64 %8, i64* %9, align 1
  %10 = getelementptr inbounds %struct.State, %struct.State* %0, i64 0, i32 1, i64 0, i32 0, i32 0, i32 0, i64 1
  %11 = bitcast i64* %10 to double*
  store double 0.000000e+00, double* %11, align 1
  ret %struct.Memory* %2
}

; Function Attrs: alwaysinline norecurse nounwind
define %struct.Memory* @routine_movsd__xmm0__MINUS0x70__rbp_(%struct.State* nocapture dereferenceable(3376), i64, %struct.Memory* readnone returned) local_unnamed_addr #2 {
block_400488:
  %PC = getelementptr inbounds %struct.State, %struct.State* %0, i64 0, i32 6, i32 33, i32 0, i32 0
  %RBP = getelementptr inbounds %struct.State, %struct.State* %0, i64 0, i32 6, i32 15, i32 0, i32 0
  %3 = load i64, i64* %RBP, align 8
  %4 = add i64 %3, -112
  %5 = load i64, i64* %PC, align 8
  %6 = add i64 %5, 5
  store i64 %6, i64* %PC, align 8
  %7 = getelementptr inbounds %struct.State, %struct.State* %0, i64 0, i32 1, i64 0, i32 0, i32 0, i32 0, i64 0
  %8 = load i64, i64* %7, align 1
  %9 = inttoptr i64 %4 to i64*
  store i64 %8, i64* %9, align 8
  ret %struct.Memory* %2
}

; Function Attrs: alwaysinline norecurse nounwind
define %struct.Memory* @routine_movsd_MINUS0x70__rbp____xmm0(%struct.State* nocapture dereferenceable(3376), i64, %struct.Memory* readnone returned) local_unnamed_addr #2 {
block_400488:
  %PC = getelementptr inbounds %struct.State, %struct.State* %0, i64 0, i32 6, i32 33, i32 0, i32 0
  %RBP = getelementptr inbounds %struct.State, %struct.State* %0, i64 0, i32 6, i32 15, i32 0, i32 0
  %3 = load i64, i64* %RBP, align 8
  %4 = add i64 %3, -112
  %5 = load i64, i64* %PC, align 8
  %6 = add i64 %5, 5
  store i64 %6, i64* %PC, align 8
  %7 = inttoptr i64 %4 to i64*
  %8 = load i64, i64* %7, align 8
  %9 = getelementptr inbounds %struct.State, %struct.State* %0, i64 0, i32 1, i64 0, i32 0, i32 0, i32 0, i64 0
  store i64 %8, i64* %9, align 1
  %10 = getelementptr inbounds %struct.State, %struct.State* %0, i64 0, i32 1, i64 0, i32 0, i32 0, i32 0, i64 1
  %11 = bitcast i64* %10 to double*
  store double 0.000000e+00, double* %11, align 1
  ret %struct.Memory* %2
}

; Function Attrs: alwaysinline norecurse nounwind
define %struct.Memory* @routine_jmpq_.L_40548f(%struct.State* nocapture dereferenceable(3376), i64, %struct.Memory* readnone returned, i64 %rel_off1, i64 %rel_off2) local_unnamed_addr #2 {
block_400488:
  %PC = getelementptr inbounds %struct.State, %struct.State* %0, i64 0, i32 6, i32 33, i32 0, i32 0
  %3 = load i64, i64* %PC, align 8
  %4 = add i64 %3, %rel_off1
  store i64 %4, i64* %PC, align 8
  ret %struct.Memory* %2
}

; Function Attrs: alwaysinline norecurse nounwind
define %struct.Memory* @routine_movl__0x1___eax(%struct.State* nocapture dereferenceable(3376), i64, %struct.Memory* readnone returned) local_unnamed_addr #2 {
block_400488:
  %PC = getelementptr inbounds %struct.State, %struct.State* %0, i64 0, i32 6, i32 33, i32 0, i32 0
  %RAX = getelementptr inbounds %struct.State, %struct.State* %0, i64 0, i32 6, i32 1, i32 0, i32 0
  %3 = load i64, i64* %PC, align 8
  %4 = add i64 %3, 5
  store i64 %4, i64* %PC, align 8
  store i64 1, i64* %RAX, align 8
  ret %struct.Memory* %2
}

; Function Attrs: alwaysinline norecurse nounwind
define %struct.Memory* @routine_movl__eax___esi(%struct.State* nocapture dereferenceable(3376), i64, %struct.Memory* readnone returned) local_unnamed_addr #2 {
block_400488:
  %PC = getelementptr inbounds %struct.State, %struct.State* %0, i64 0, i32 6, i32 33, i32 0, i32 0
  %3 = getelementptr inbounds %struct.State, %struct.State* %0, i64 0, i32 6, i32 1, i32 0
  %EAX = bitcast %union.anon* %3 to i32*
  %RSI = getelementptr inbounds %struct.State, %struct.State* %0, i64 0, i32 6, i32 9, i32 0, i32 0
  %4 = load i32, i32* %EAX, align 4
  %5 = zext i32 %4 to i64
  %6 = load i64, i64* %PC, align 8
  %7 = add i64 %6, 2
  store i64 %7, i64* %PC, align 8
  store i64 %5, i64* %RSI, align 8
  ret %struct.Memory* %2
}

; Function Attrs: alwaysinline norecurse nounwind
define %struct.Memory* @routine_movq_MINUS0x8__rbp____rcx(%struct.State* nocapture dereferenceable(3376), i64, %struct.Memory* readnone returned) local_unnamed_addr #2 {
block_400488:
  %PC = getelementptr inbounds %struct.State, %struct.State* %0, i64 0, i32 6, i32 33, i32 0, i32 0
  %RCX = getelementptr inbounds %struct.State, %struct.State* %0, i64 0, i32 6, i32 5, i32 0, i32 0
  %RBP = getelementptr inbounds %struct.State, %struct.State* %0, i64 0, i32 6, i32 15, i32 0, i32 0
  %3 = load i64, i64* %RBP, align 8
  %4 = add i64 %3, -8
  %5 = load i64, i64* %PC, align 8
  %6 = add i64 %5, 4
  store i64 %6, i64* %PC, align 8
  %7 = inttoptr i64 %4 to i64*
  %8 = load i64, i64* %7, align 8
  store i64 %8, i64* %RCX, align 8
  ret %struct.Memory* %2
}

; Function Attrs: alwaysinline norecurse nounwind
define %struct.Memory* @routine_movq__rcx__MINUS0x38__rbp_(%struct.State* nocapture dereferenceable(3376), i64, %struct.Memory* readnone returned) local_unnamed_addr #2 {
block_400488:
  %PC = getelementptr inbounds %struct.State, %struct.State* %0, i64 0, i32 6, i32 33, i32 0, i32 0
  %RCX = getelementptr inbounds %struct.State, %struct.State* %0, i64 0, i32 6, i32 5, i32 0, i32 0
  %RBP = getelementptr inbounds %struct.State, %struct.State* %0, i64 0, i32 6, i32 15, i32 0, i32 0
  %3 = load i64, i64* %RBP, align 8
  %4 = add i64 %3, -56
  %5 = load i64, i64* %RCX, align 8
  %6 = load i64, i64* %PC, align 8
  %7 = add i64 %6, 4
  store i64 %7, i64* %PC, align 8
  %8 = inttoptr i64 %4 to i64*
  store i64 %5, i64* %8, align 8
  ret %struct.Memory* %2
}

; Function Attrs: alwaysinline norecurse nounwind
define %struct.Memory* @routine_callq_._ZplIdE14PointerWrapperIT_ERS2_l(%struct.State* nocapture dereferenceable(3376), i64, %struct.Memory* readnone returned, i64 %rel_off1, i64 %rel_off2, i64 %rel_off3) local_unnamed_addr #2 {
block_400488:
  %PC = getelementptr inbounds %struct.State, %struct.State* %0, i64 0, i32 6, i32 33, i32 0, i32 0
  %3 = load i64, i64* %PC, align 8
  %4 = add i64 %3, %rel_off1
  %5 = add i64 %3, %rel_off2
  %6 = getelementptr inbounds %struct.State, %struct.State* %0, i64 0, i32 6, i32 13, i32 0, i32 0
  %7 = load i64, i64* %6, align 8
  %8 = add i64 %7, -8
  %9 = inttoptr i64 %8 to i64*
  store i64 %5, i64* %9, align 8
  store i64 %8, i64* %6, align 8
  store i64 %4, i64* %PC, align 8
  ret %struct.Memory* %2
}

; Function Attrs: alwaysinline norecurse nounwind
define %struct.Memory* @routine_movq__rax__MINUS0x40__rbp_(%struct.State* nocapture dereferenceable(3376), i64, %struct.Memory* readnone returned) local_unnamed_addr #2 {
block_400488:
  %PC = getelementptr inbounds %struct.State, %struct.State* %0, i64 0, i32 6, i32 33, i32 0, i32 0
  %RAX = getelementptr inbounds %struct.State, %struct.State* %0, i64 0, i32 6, i32 1, i32 0, i32 0
  %RBP = getelementptr inbounds %struct.State, %struct.State* %0, i64 0, i32 6, i32 15, i32 0, i32 0
  %3 = load i64, i64* %RBP, align 8
  %4 = add i64 %3, -64
  %5 = load i64, i64* %RAX, align 8
  %6 = load i64, i64* %PC, align 8
  %7 = add i64 %6, 4
  store i64 %7, i64* %PC, align 8
  %8 = inttoptr i64 %4 to i64*
  store i64 %5, i64* %8, align 8
  ret %struct.Memory* %2
}

; Function Attrs: alwaysinline norecurse nounwind
define %struct.Memory* @routine_movq_MINUS0x38__rbp____rdi(%struct.State* nocapture dereferenceable(3376), i64, %struct.Memory* readnone returned) local_unnamed_addr #2 {
block_400488:
  %PC = getelementptr inbounds %struct.State, %struct.State* %0, i64 0, i32 6, i32 33, i32 0, i32 0
  %RDI = getelementptr inbounds %struct.State, %struct.State* %0, i64 0, i32 6, i32 11, i32 0, i32 0
  %RBP = getelementptr inbounds %struct.State, %struct.State* %0, i64 0, i32 6, i32 15, i32 0, i32 0
  %3 = load i64, i64* %RBP, align 8
  %4 = add i64 %3, -56
  %5 = load i64, i64* %PC, align 8
  %6 = add i64 %5, 4
  store i64 %6, i64* %PC, align 8
  %7 = inttoptr i64 %4 to i64*
  %8 = load i64, i64* %7, align 8
  store i64 %8, i64* %RDI, align 8
  ret %struct.Memory* %2
}

; Function Attrs: alwaysinline norecurse nounwind
define %struct.Memory* @routine_movq_MINUS0x40__rbp____rsi(%struct.State* nocapture dereferenceable(3376), i64, %struct.Memory* readnone returned) local_unnamed_addr #2 {
block_400488:
  %PC = getelementptr inbounds %struct.State, %struct.State* %0, i64 0, i32 6, i32 33, i32 0, i32 0
  %RSI = getelementptr inbounds %struct.State, %struct.State* %0, i64 0, i32 6, i32 9, i32 0, i32 0
  %RBP = getelementptr inbounds %struct.State, %struct.State* %0, i64 0, i32 6, i32 15, i32 0, i32 0
  %3 = load i64, i64* %RBP, align 8
  %4 = add i64 %3, -64
  %5 = load i64, i64* %PC, align 8
  %6 = add i64 %5, 4
  store i64 %6, i64* %PC, align 8
  %7 = inttoptr i64 %4 to i64*
  %8 = load i64, i64* %7, align 8
  store i64 %8, i64* %RSI, align 8
  ret %struct.Memory* %2
}

; Function Attrs: alwaysinline norecurse nounwind
define %struct.Memory* @routine_callq_._ZN9benchmark9quicksortI14PointerWrapperIdEdEEvT_S3_(%struct.State* nocapture dereferenceable(3376), i64, %struct.Memory* readnone returned, i64 %rel_off1, i64 %rel_off2, i64 %rel_off3) local_unnamed_addr #2 {
block_400488:
  %PC = getelementptr inbounds %struct.State, %struct.State* %0, i64 0, i32 6, i32 33, i32 0, i32 0
  %3 = load i64, i64* %PC, align 8
  %4 = add i64 %3, %rel_off1
  %5 = add i64 %3, %rel_off2
  %6 = getelementptr inbounds %struct.State, %struct.State* %0, i64 0, i32 6, i32 13, i32 0, i32 0
  %7 = load i64, i64* %6, align 8
  %8 = add i64 %7, -8
  %9 = inttoptr i64 %8 to i64*
  store i64 %5, i64* %9, align 8
  store i64 %8, i64* %6, align 8
  store i64 %4, i64* %PC, align 8
  ret %struct.Memory* %2
}

; Function Attrs: alwaysinline norecurse nounwind
define %struct.Memory* @routine_movl__0x1___edx(%struct.State* nocapture dereferenceable(3376), i64, %struct.Memory* readnone returned) local_unnamed_addr #2 {
block_400488:
  %PC = getelementptr inbounds %struct.State, %struct.State* %0, i64 0, i32 6, i32 33, i32 0, i32 0
  %RDX = getelementptr inbounds %struct.State, %struct.State* %0, i64 0, i32 6, i32 7, i32 0, i32 0
  %3 = load i64, i64* %PC, align 8
  %4 = add i64 %3, 5
  store i64 %4, i64* %PC, align 8
  store i64 1, i64* %RDX, align 8
  ret %struct.Memory* %2
}

; Function Attrs: alwaysinline norecurse nounwind
define %struct.Memory* @routine_movl__edx___esi(%struct.State* nocapture dereferenceable(3376), i64, %struct.Memory* readnone returned) local_unnamed_addr #2 {
block_400488:
  %PC = getelementptr inbounds %struct.State, %struct.State* %0, i64 0, i32 6, i32 33, i32 0, i32 0
  %3 = getelementptr inbounds %struct.State, %struct.State* %0, i64 0, i32 6, i32 7, i32 0
  %EDX = bitcast %union.anon* %3 to i32*
  %RSI = getelementptr inbounds %struct.State, %struct.State* %0, i64 0, i32 6, i32 9, i32 0, i32 0
  %4 = load i32, i32* %EDX, align 4
  %5 = zext i32 %4 to i64
  %6 = load i64, i64* %PC, align 8
  %7 = add i64 %6, 2
  store i64 %7, i64* %PC, align 8
  store i64 %5, i64* %RSI, align 8
  ret %struct.Memory* %2
}

; Function Attrs: alwaysinline norecurse nounwind
define %struct.Memory* @routine_movq__rax__MINUS0x48__rbp_(%struct.State* nocapture dereferenceable(3376), i64, %struct.Memory* readnone returned) local_unnamed_addr #2 {
block_400488:
  %PC = getelementptr inbounds %struct.State, %struct.State* %0, i64 0, i32 6, i32 33, i32 0, i32 0
  %RAX = getelementptr inbounds %struct.State, %struct.State* %0, i64 0, i32 6, i32 1, i32 0, i32 0
  %RBP = getelementptr inbounds %struct.State, %struct.State* %0, i64 0, i32 6, i32 15, i32 0, i32 0
  %3 = load i64, i64* %RBP, align 8
  %4 = add i64 %3, -72
  %5 = load i64, i64* %RAX, align 8
  %6 = load i64, i64* %PC, align 8
  %7 = add i64 %6, 4
  store i64 %7, i64* %PC, align 8
  %8 = inttoptr i64 %4 to i64*
  store i64 %5, i64* %8, align 8
  ret %struct.Memory* %2
}

; Function Attrs: alwaysinline norecurse nounwind
define %struct.Memory* @routine_movq__rax__MINUS0x50__rbp_(%struct.State* nocapture dereferenceable(3376), i64, %struct.Memory* readnone returned) local_unnamed_addr #2 {
block_400488:
  %PC = getelementptr inbounds %struct.State, %struct.State* %0, i64 0, i32 6, i32 33, i32 0, i32 0
  %RAX = getelementptr inbounds %struct.State, %struct.State* %0, i64 0, i32 6, i32 1, i32 0, i32 0
  %RBP = getelementptr inbounds %struct.State, %struct.State* %0, i64 0, i32 6, i32 15, i32 0, i32 0
  %3 = load i64, i64* %RBP, align 8
  %4 = add i64 %3, -80
  %5 = load i64, i64* %RAX, align 8
  %6 = load i64, i64* %PC, align 8
  %7 = add i64 %6, 4
  store i64 %7, i64* %PC, align 8
  %8 = inttoptr i64 %4 to i64*
  store i64 %5, i64* %8, align 8
  ret %struct.Memory* %2
}

; Function Attrs: alwaysinline norecurse nounwind
define %struct.Memory* @routine_movq_MINUS0x48__rbp____rdi(%struct.State* nocapture dereferenceable(3376), i64, %struct.Memory* readnone returned) local_unnamed_addr #2 {
block_400488:
  %PC = getelementptr inbounds %struct.State, %struct.State* %0, i64 0, i32 6, i32 33, i32 0, i32 0
  %RDI = getelementptr inbounds %struct.State, %struct.State* %0, i64 0, i32 6, i32 11, i32 0, i32 0
  %RBP = getelementptr inbounds %struct.State, %struct.State* %0, i64 0, i32 6, i32 15, i32 0, i32 0
  %3 = load i64, i64* %RBP, align 8
  %4 = add i64 %3, -72
  %5 = load i64, i64* %PC, align 8
  %6 = add i64 %5, 4
  store i64 %6, i64* %PC, align 8
  %7 = inttoptr i64 %4 to i64*
  %8 = load i64, i64* %7, align 8
  store i64 %8, i64* %RDI, align 8
  ret %struct.Memory* %2
}

; Function Attrs: alwaysinline norecurse nounwind
define %struct.Memory* @routine_movq_MINUS0x50__rbp____rsi(%struct.State* nocapture dereferenceable(3376), i64, %struct.Memory* readnone returned) local_unnamed_addr #2 {
block_400488:
  %PC = getelementptr inbounds %struct.State, %struct.State* %0, i64 0, i32 6, i32 33, i32 0, i32 0
  %RSI = getelementptr inbounds %struct.State, %struct.State* %0, i64 0, i32 6, i32 9, i32 0, i32 0
  %RBP = getelementptr inbounds %struct.State, %struct.State* %0, i64 0, i32 6, i32 15, i32 0, i32 0
  %3 = load i64, i64* %RBP, align 8
  %4 = add i64 %3, -80
  %5 = load i64, i64* %PC, align 8
  %6 = add i64 %5, 4
  store i64 %6, i64* %PC, align 8
  %7 = inttoptr i64 %4 to i64*
  %8 = load i64, i64* %7, align 8
  store i64 %8, i64* %RSI, align 8
  ret %struct.Memory* %2
}

; Function Attrs: alwaysinline nounwind
define %struct.Memory* @routine_addq__0x70___rsp(%struct.State* nocapture dereferenceable(3376), i64, %struct.Memory* readnone returned) local_unnamed_addr #3 {
block_400488:
  %PC = getelementptr inbounds %struct.State, %struct.State* %0, i64 0, i32 6, i32 33, i32 0, i32 0
  %RSP = getelementptr inbounds %struct.State, %struct.State* %0, i64 0, i32 6, i32 13, i32 0, i32 0
  %3 = load i64, i64* %RSP, align 8
  %4 = load i64, i64* %PC, align 8
  %5 = add i64 %4, 4
  store i64 %5, i64* %PC, align 8
  %6 = add i64 %3, 112
  store i64 %6, i64* %RSP, align 8
  %7 = icmp ugt i64 %3, -113
  %8 = zext i1 %7 to i8
  %9 = getelementptr inbounds %struct.State, %struct.State* %0, i64 0, i32 2, i32 1
  store i8 %8, i8* %9, align 1
  %10 = trunc i64 %6 to i32
  %11 = and i32 %10, 255
  %12 = tail call i32 @llvm.ctpop.i32(i32 %11)
  %13 = trunc i32 %12 to i8
  %14 = and i8 %13, 1
  %15 = xor i8 %14, 1
  %16 = getelementptr inbounds %struct.State, %struct.State* %0, i64 0, i32 2, i32 3
  store i8 %15, i8* %16, align 1
  %17 = xor i64 %3, 16
  %18 = xor i64 %17, %6
  %19 = lshr i64 %18, 4
  %20 = trunc i64 %19 to i8
  %21 = and i8 %20, 1
  %22 = getelementptr inbounds %struct.State, %struct.State* %0, i64 0, i32 2, i32 5
  store i8 %21, i8* %22, align 1
  %23 = icmp eq i64 %6, 0
  %24 = zext i1 %23 to i8
  %25 = getelementptr inbounds %struct.State, %struct.State* %0, i64 0, i32 2, i32 7
  store i8 %24, i8* %25, align 1
  %26 = lshr i64 %6, 63
  %27 = trunc i64 %26 to i8
  %28 = getelementptr inbounds %struct.State, %struct.State* %0, i64 0, i32 2, i32 9
  store i8 %27, i8* %28, align 1
  %29 = lshr i64 %3, 63
  %30 = xor i64 %26, %29
  %31 = add nuw nsw i64 %30, %26
  %32 = icmp eq i64 %31, 2
  %33 = zext i1 %32 to i8
  %34 = getelementptr inbounds %struct.State, %struct.State* %0, i64 0, i32 2, i32 13
  store i8 %33, i8* %34, align 1
  ret %struct.Memory* %2
}

; Function Attrs: alwaysinline norecurse nounwind
define %struct.Memory* @routine_popq__rbp(%struct.State* nocapture dereferenceable(3376), i64, %struct.Memory* readnone returned) local_unnamed_addr #2 {
block_400488:
  %PC = getelementptr inbounds %struct.State, %struct.State* %0, i64 0, i32 6, i32 33, i32 0, i32 0
  %RBP = getelementptr inbounds %struct.State, %struct.State* %0, i64 0, i32 6, i32 15, i32 0, i32 0
  %3 = load i64, i64* %PC, align 8
  %4 = add i64 %3, 1
  store i64 %4, i64* %PC, align 8
  %5 = getelementptr inbounds %struct.State, %struct.State* %0, i64 0, i32 6, i32 13, i32 0, i32 0
  %6 = load i64, i64* %5, align 8
  %7 = add i64 %6, 8
  %8 = inttoptr i64 %6 to i64*
  %9 = load i64, i64* %8, align 8
  store i64 %9, i64* %RBP, align 8
  store i64 %7, i64* %5, align 8
  ret %struct.Memory* %2
}

; Function Attrs: alwaysinline norecurse nounwind
define %struct.Memory* @routine_retq(%struct.State* nocapture dereferenceable(3376), i64, %struct.Memory* readnone returned) local_unnamed_addr #2 {
block_400488:
  %PC = getelementptr inbounds %struct.State, %struct.State* %0, i64 0, i32 6, i32 33, i32 0, i32 0
  %3 = load i64, i64* %PC, align 8
  %4 = add i64 %3, 1
  store i64 %4, i64* %PC, align 8
  %5 = getelementptr inbounds %struct.State, %struct.State* %0, i64 0, i32 6, i32 13, i32 0, i32 0
  %6 = load i64, i64* %5, align 8
  %7 = inttoptr i64 %6 to i64*
  %8 = load i64, i64* %7, align 8
  store i64 %8, i64* %PC, align 8
  %9 = add i64 %6, 8
  store i64 %9, i64* %5, align 8
  ret %struct.Memory* %2
}

attributes #0 = { nounwind readnone }
attributes #1 = { alwaysinline }
attributes #2 = { alwaysinline norecurse nounwind }
attributes #3 = { alwaysinline nounwind }
