; ModuleID = 'mcsema/test.proposed.ll'
source_filename = "llvm-link"
target datalayout = "e-m:e-i64:64-f80:128-n8:16:32:64-S128"
target triple = "x86_64-pc-linux-gnu-elf"

%union.anon = type { i64 }
%seg_400388__init_type = type <{ [23 x i8] }>
%seg_4003a0__text_type = type <{ [354 x i8] }>
%seg_400504__fini_type = type <{ [9 x i8] }>
%seg_400510__rodata_type = type <{ [4 x i8] }>
%seg_400514__eh_frame_hdr_type = type <{ [52 x i8] }>
%seg_400548__eh_frame_type = type <{ [208 x i8] }>
%seg_601018__data_type = type <{ [16 x i8] }>
%__bss_start_type = type <{ [8 x i8] }>
%struct.State = type { %struct.ArchState, [32 x %union.VectorReg], %struct.ArithFlags, %union.anon, %struct.Segments, %struct.AddressSpace, %struct.GPR, %struct.X87Stack, %struct.MMX, %struct.FPUStatusFlags, %union.anon, %union.FPU, %struct.SegmentCaches }
%struct.ArchState = type { i32, i32, %union.anon }
%union.VectorReg = type { %union.vec512_t }
%union.vec512_t = type { %struct.uint64v8_t }
%struct.uint64v8_t = type { [8 x i64] }
%struct.ArithFlags = type { i8, i8, i8, i8, i8, i8, i8, i8, i8, i8, i8, i8, i8, i8, i8, i8 }
%struct.Segments = type { i16, %union.SegmentSelector, i16, %union.SegmentSelector, i16, %union.SegmentSelector, i16, %union.SegmentSelector, i16, %union.SegmentSelector, i16, %union.SegmentSelector }
%union.SegmentSelector = type { i16 }
%struct.AddressSpace = type { i64, %struct.Reg, i64, %struct.Reg, i64, %struct.Reg, i64, %struct.Reg, i64, %struct.Reg, i64, %struct.Reg }
%struct.Reg = type { %union.anon }
%struct.GPR = type { i64, %struct.Reg, i64, %struct.Reg, i64, %struct.Reg, i64, %struct.Reg, i64, %struct.Reg, i64, %struct.Reg, i64, %struct.Reg, i64, %struct.Reg, i64, %struct.Reg, i64, %struct.Reg, i64, %struct.Reg, i64, %struct.Reg, i64, %struct.Reg, i64, %struct.Reg, i64, %struct.Reg, i64, %struct.Reg, i64, %struct.Reg }
%struct.X87Stack = type { [8 x %struct.anon.3] }
%struct.anon.3 = type { i64, double }
%struct.MMX = type { [8 x %struct.anon.4] }
%struct.anon.4 = type { i64, %union.vec64_t }
%union.vec64_t = type { %struct.uint64v1_t }
%struct.uint64v1_t = type { [1 x i64] }
%struct.FPUStatusFlags = type { i8, i8, i8, i8, i8, i8, i8, i8, i8, i8, i8, i8, i8, i8, i8, i8, i8, i8, i8, i8, [4 x i8] }
%union.FPU = type { %struct.anon.13 }
%struct.anon.13 = type { %struct.FpuFXSAVE, [96 x i8] }
%struct.FpuFXSAVE = type { %union.SegmentSelector, %union.SegmentSelector, %union.FPUAbridgedTagWord, i8, i16, i32, %union.SegmentSelector, i16, i32, %union.SegmentSelector, i16, %union.FPUControlStatus, %union.FPUControlStatus, [8 x %struct.FPUStackElem], [16 x %union.vec128_t] }
%union.FPUAbridgedTagWord = type { i8 }
%union.FPUControlStatus = type { i32 }
%struct.FPUStackElem = type { %union.anon.11, [6 x i8] }
%union.anon.11 = type { %struct.float80_t }
%struct.float80_t = type { [10 x i8] }
%union.vec128_t = type { %struct.uint128v1_t }
%struct.uint128v1_t = type { [1 x i128] }
%struct.SegmentCaches = type { %struct.SegmentShadow, %struct.SegmentShadow, %struct.SegmentShadow, %struct.SegmentShadow, %struct.SegmentShadow, %struct.SegmentShadow }
%struct.SegmentShadow = type { %union.anon, i32, i32 }
%struct.Memory = type opaque
%struct.anon.2 = type { i8, i8 }

@switch.table = private unnamed_addr constant [4 x i32] [i32 2048, i32 3072, i32 0, i32 1024]
@DR0 = external global i64, align 8
@DR1 = external global i64, align 8
@DR2 = external global i64, align 8
@DR3 = external global i64, align 8
@DR4 = external global i64, align 8
@DR5 = external global i64, align 8
@DR6 = external global i64, align 8
@DR7 = external global i64, align 8
@gCR0 = external global %union.anon, align 1
@gCR1 = external global %union.anon, align 1
@gCR2 = external global %union.anon, align 1
@gCR3 = external global %union.anon, align 1
@gCR4 = external global %union.anon, align 1
@gCR8 = external global %union.anon, align 1
@seg_400388__init = internal constant %seg_400388__init_type <{ [23 x i8] c"H\83\EC\08H\8B\05e\0C \00H\85\C0t\02\FF\D0H\83\C4\08\C3" }>
@seg_4003a0__text = internal constant %seg_4003a0__text_type <{ [354 x i8] c"1\EDI\89\D1^H\89\E2H\83\E4\F0PTI\C7\C0\00\05@\00H\C7\C1\90\04@\00H\C7\C7\88\04@\00\FF\15&\0C \00\F4\0F\1FD\00\00\F3\C3f.\0F\1F\84\00\00\00\00\00\0F\1F@\00U\B8(\10`\00H=(\10`\00H\89\E5t\17\B8\00\00\00\00H\85\C0t\0D]\BF(\10`\00\FF\E0\0F\1FD\00\00]\C3f\0F\1FD\00\00\BE(\10`\00UH\81\EE(\10`\00H\89\E5H\C1\FE\03H\89\F0H\C1\E8?H\01\C6H\D1\FEt\15\B8\00\00\00\00H\85\C0t\0B]\BF(\10`\00\FF\E0\0F\1F\00]\C3f\0F\1FD\00\00\80=\D1\0B \00\00u\17UH\89\E5\E8~\FF\FF\FF\C6\05\BF\0B \00\01]\C3\0F\1FD\00\00\F3\C3\0F\1F@\00f.\0F\1F\84\00\00\00\00\00UH\89\E5]\EB\89\90U\C3f\0F\1FD\00\00AWAVI\89\D7AUATL\8D%\9E\09 \00UH\8D-\9E\09 \00SA\89\FDI\89\F6L)\E5H\83\EC\08H\C1\FD\03\E8\C7\FE\FF\FFH\85\EDt 1\DB\0F\1F\84\00\00\00\00\00L\89\FAL\89\F6D\89\EFA\FF\14\DCH\83\C3\01H9\DDu\EAH\83\C4\08[]A\5CA]A^A_\C3\90f.\0F\1F\84\00\00\00\00\00\F3\C3" }>
@seg_400504__fini = internal constant %seg_400504__fini_type <{ [9 x i8] c"H\83\EC\08H\83\C4\08\C3" }>
@seg_400510__rodata = internal constant %seg_400510__rodata_type <{ [4 x i8] c"\01\00\02\00" }>
@seg_400514__eh_frame_hdr = internal constant %seg_400514__eh_frame_hdr_type <{ [52 x i8] c"\01\1B\03;0\00\00\00\05\00\00\00\8C\FE\FF\FFL\00\00\00\BC\FE\FF\FFx\00\00\00t\FF\FF\FF\8C\00\00\00|\FF\FF\FF\A4\00\00\00\EC\FF\FF\FF\EC\00\00\00" }>
@seg_400548__eh_frame = internal constant %seg_400548__eh_frame_type <{ [208 x i8] c"\14\00\00\00\00\00\00\00\01zR\00\01x\10\01\1B\0C\07\08\90\01\07\10\10\00\00\00\1C\00\00\008\FE\FF\FF+\00\00\00\00\00\00\00\14\00\00\00\00\00\00\00\01zR\00\01x\10\01\1B\0C\07\08\90\01\00\00\10\00\00\00\1C\00\00\00<\FE\FF\FF\02\00\00\00\00\00\00\00\14\00\00\000\00\00\00\E0\FE\FF\FF\02\00\00\00\00\00\00\00\00\00\00\00D\00\00\00H\00\00\00\D0\FE\FF\FFe\00\00\00\00B\0E\10\8F\02B\0E\18\8E\03E\0E \8D\04B\0E(\8C\05H\0E0\86\06H\0E8\83\07M\0E@r\0E8A\0E0A\0E(B\0E B\0E\18B\0E\10B\0E\08\00\10\00\00\00\90\00\00\00\F8\FE\FF\FF\02\00\00\00\00\00\00\00\00\00\00\00" }>
@seg_601018__data = internal global %seg_601018__data_type zeroinitializer
@__bss_start = global %__bss_start_type zeroinitializer
@0 = internal global i1 false

; Function Attrs: nounwind readnone
declare i32 @llvm.ctpop.i32(i32) #0

declare %struct.Memory* @__remill_error(%struct.State* dereferenceable(3376), i64, %struct.Memory*)

; Function Attrs: alwaysinline
define %struct.Memory* @_ZN31custom_multiple_constant_divideIhE8do_shiftEh(%struct.State* noalias, i64, %struct.Memory* noalias) #1 {
entry:
  %3 = getelementptr inbounds %struct.State, %struct.State* %0, i64 0, i32 6, i32 33, i32 0, i32 0
  store i64 %1, i64* %3, align 8
  %BRANCH_TAKEN = alloca i8, align 1
  store i8 0, i8* %BRANCH_TAKEN, align 1
  %MEMORY = alloca %struct.Memory*, align 8
  store %struct.Memory* %2, %struct.Memory** %MEMORY, align 8
  %loadMem_4168f0 = load %struct.Memory*, %struct.Memory** %MEMORY
  %4 = getelementptr inbounds %struct.State, %struct.State* %0, i32 0, i32 6
  %5 = getelementptr inbounds %struct.GPR, %struct.GPR* %4, i32 0, i32 33
  %6 = getelementptr inbounds %struct.Reg, %struct.Reg* %5, i32 0, i32 0
  %PC.i = bitcast %union.anon* %6 to i64*
  %7 = getelementptr inbounds %struct.State, %struct.State* %0, i32 0, i32 6
  %8 = getelementptr inbounds %struct.GPR, %struct.GPR* %7, i32 0, i32 15
  %9 = getelementptr inbounds %struct.Reg, %struct.Reg* %8, i32 0, i32 0
  %RBP.i = bitcast %union.anon* %9 to i64*
  %10 = load i64, i64* %RBP.i
  %11 = load i64, i64* %PC.i
  %12 = add i64 %11, 1
  store i64 %12, i64* %PC.i
  %13 = getelementptr inbounds %struct.State, %struct.State* %0, i64 0, i32 6, i32 13, i32 0, i32 0
  %14 = load i64, i64* %13, align 8
  %15 = add i64 %14, -8
  %16 = inttoptr i64 %15 to i64*
  store i64 %10, i64* %16
  store i64 %15, i64* %13, align 8
  store %struct.Memory* %loadMem_4168f0, %struct.Memory** %MEMORY
  %loadMem_4168f1 = load %struct.Memory*, %struct.Memory** %MEMORY
  %17 = getelementptr inbounds %struct.State, %struct.State* %0, i32 0, i32 6
  %18 = getelementptr inbounds %struct.GPR, %struct.GPR* %17, i32 0, i32 33
  %19 = getelementptr inbounds %struct.Reg, %struct.Reg* %18, i32 0, i32 0
  %PC.i8 = bitcast %union.anon* %19 to i64*
  %20 = getelementptr inbounds %struct.State, %struct.State* %0, i32 0, i32 6
  %21 = getelementptr inbounds %struct.GPR, %struct.GPR* %20, i32 0, i32 13
  %22 = getelementptr inbounds %struct.Reg, %struct.Reg* %21, i32 0, i32 0
  %RSP.i = bitcast %union.anon* %22 to i64*
  %23 = getelementptr inbounds %struct.State, %struct.State* %0, i32 0, i32 6
  %24 = getelementptr inbounds %struct.GPR, %struct.GPR* %23, i32 0, i32 15
  %25 = getelementptr inbounds %struct.Reg, %struct.Reg* %24, i32 0, i32 0
  %RBP.i9 = bitcast %union.anon* %25 to i64*
  %26 = load i64, i64* %RSP.i
  %27 = load i64, i64* %PC.i8
  %28 = add i64 %27, 3
  store i64 %28, i64* %PC.i8
  store i64 %26, i64* %RBP.i9, align 8
  store %struct.Memory* %loadMem_4168f1, %struct.Memory** %MEMORY
  %loadMem_4168f4 = load %struct.Memory*, %struct.Memory** %MEMORY
  %29 = getelementptr inbounds %struct.State, %struct.State* %0, i32 0, i32 6
  %30 = getelementptr inbounds %struct.GPR, %struct.GPR* %29, i32 0, i32 33
  %31 = getelementptr inbounds %struct.Reg, %struct.Reg* %30, i32 0, i32 0
  %PC.i12 = bitcast %union.anon* %31 to i64*
  %32 = getelementptr inbounds %struct.State, %struct.State* %0, i32 0, i32 6
  %33 = getelementptr inbounds %struct.GPR, %struct.GPR* %32, i32 0, i32 1
  %34 = getelementptr inbounds %struct.Reg, %struct.Reg* %33, i32 0, i32 0
  %35 = bitcast %union.anon* %34 to %struct.anon.2*
  %AL.i13 = getelementptr inbounds %struct.anon.2, %struct.anon.2* %35, i32 0, i32 0
  %36 = getelementptr inbounds %struct.State, %struct.State* %0, i32 0, i32 6
  %37 = getelementptr inbounds %struct.GPR, %struct.GPR* %36, i32 0, i32 11
  %38 = getelementptr inbounds %struct.Reg, %struct.Reg* %37, i32 0, i32 0
  %39 = bitcast %union.anon* %38 to %struct.anon.2*
  %DIL.i = getelementptr inbounds %struct.anon.2, %struct.anon.2* %39, i32 0, i32 0
  %40 = load i8, i8* %DIL.i
  %41 = zext i8 %40 to i64
  %42 = load i64, i64* %PC.i12
  %43 = add i64 %42, 3
  store i64 %43, i64* %PC.i12
  store i8 %40, i8* %AL.i13, align 1
  store %struct.Memory* %loadMem_4168f4, %struct.Memory** %MEMORY
  %loadMem_4168f7 = load %struct.Memory*, %struct.Memory** %MEMORY
  %44 = getelementptr inbounds %struct.State, %struct.State* %0, i32 0, i32 6
  %45 = getelementptr inbounds %struct.GPR, %struct.GPR* %44, i32 0, i32 33
  %46 = getelementptr inbounds %struct.Reg, %struct.Reg* %45, i32 0, i32 0
  %PC.i16 = bitcast %union.anon* %46 to i64*
  %47 = getelementptr inbounds %struct.State, %struct.State* %0, i32 0, i32 6
  %48 = getelementptr inbounds %struct.GPR, %struct.GPR* %47, i32 0, i32 11
  %49 = getelementptr inbounds %struct.Reg, %struct.Reg* %48, i32 0, i32 0
  %RDI.i = bitcast %union.anon* %49 to i64*
  %50 = load i64, i64* %PC.i16
  %51 = add i64 %50, 5
  store i64 %51, i64* %PC.i16
  store i64 5, i64* %RDI.i, align 8
  store %struct.Memory* %loadMem_4168f7, %struct.Memory** %MEMORY
  %loadMem_4168fc = load %struct.Memory*, %struct.Memory** %MEMORY
  %52 = getelementptr inbounds %struct.State, %struct.State* %0, i32 0, i32 6
  %53 = getelementptr inbounds %struct.GPR, %struct.GPR* %52, i32 0, i32 33
  %54 = getelementptr inbounds %struct.Reg, %struct.Reg* %53, i32 0, i32 0
  %PC.i23 = bitcast %union.anon* %54 to i64*
  %55 = getelementptr inbounds %struct.State, %struct.State* %0, i32 0, i32 6
  %56 = getelementptr inbounds %struct.GPR, %struct.GPR* %55, i32 0, i32 5
  %57 = getelementptr inbounds %struct.Reg, %struct.Reg* %56, i32 0, i32 0
  %RCX.i = bitcast %union.anon* %57 to i64*
  %58 = load i64, i64* %PC.i23
  %59 = add i64 %58, 5
  store i64 %59, i64* %PC.i23
  store i64 4, i64* %RCX.i, align 8
  store %struct.Memory* %loadMem_4168fc, %struct.Memory** %MEMORY
  %loadMem_416901 = load %struct.Memory*, %struct.Memory** %MEMORY
  %60 = getelementptr inbounds %struct.State, %struct.State* %0, i32 0, i32 6
  %61 = getelementptr inbounds %struct.GPR, %struct.GPR* %60, i32 0, i32 33
  %62 = getelementptr inbounds %struct.Reg, %struct.Reg* %61, i32 0, i32 0
  %PC.i35 = bitcast %union.anon* %62 to i64*
  %63 = getelementptr inbounds %struct.State, %struct.State* %0, i32 0, i32 6
  %64 = getelementptr inbounds %struct.GPR, %struct.GPR* %63, i32 0, i32 7
  %65 = getelementptr inbounds %struct.Reg, %struct.Reg* %64, i32 0, i32 0
  %RDX.i = bitcast %union.anon* %65 to i64*
  %66 = load i64, i64* %PC.i35
  %67 = add i64 %66, 5
  store i64 %67, i64* %PC.i35
  store i64 3, i64* %RDX.i, align 8
  store %struct.Memory* %loadMem_416901, %struct.Memory** %MEMORY
  %loadMem_416906 = load %struct.Memory*, %struct.Memory** %MEMORY
  %68 = getelementptr inbounds %struct.State, %struct.State* %0, i32 0, i32 6
  %69 = getelementptr inbounds %struct.GPR, %struct.GPR* %68, i32 0, i32 33
  %70 = getelementptr inbounds %struct.Reg, %struct.Reg* %69, i32 0, i32 0
  %PC.i33 = bitcast %union.anon* %70 to i64*
  %71 = getelementptr inbounds %struct.State, %struct.State* %0, i32 0, i32 6
  %72 = getelementptr inbounds %struct.GPR, %struct.GPR* %71, i32 0, i32 9
  %73 = getelementptr inbounds %struct.Reg, %struct.Reg* %72, i32 0, i32 0
  %RSI.i34 = bitcast %union.anon* %73 to i64*
  %74 = load i64, i64* %PC.i33
  %75 = add i64 %74, 5
  store i64 %75, i64* %PC.i33
  store i64 2, i64* %RSI.i34, align 8
  store %struct.Memory* %loadMem_416906, %struct.Memory** %MEMORY
  %loadMem_41690b = load %struct.Memory*, %struct.Memory** %MEMORY
  %76 = getelementptr inbounds %struct.State, %struct.State* %0, i32 0, i32 6
  %77 = getelementptr inbounds %struct.GPR, %struct.GPR* %76, i32 0, i32 33
  %78 = getelementptr inbounds %struct.Reg, %struct.Reg* %77, i32 0, i32 0
  %PC.i30 = bitcast %union.anon* %78 to i64*
  %79 = getelementptr inbounds %struct.State, %struct.State* %0, i32 0, i32 6
  %80 = getelementptr inbounds %struct.GPR, %struct.GPR* %79, i32 0, i32 1
  %81 = getelementptr inbounds %struct.Reg, %struct.Reg* %80, i32 0, i32 0
  %82 = bitcast %union.anon* %81 to %struct.anon.2*
  %AL.i31 = getelementptr inbounds %struct.anon.2, %struct.anon.2* %82, i32 0, i32 0
  %83 = getelementptr inbounds %struct.State, %struct.State* %0, i32 0, i32 6
  %84 = getelementptr inbounds %struct.GPR, %struct.GPR* %83, i32 0, i32 15
  %85 = getelementptr inbounds %struct.Reg, %struct.Reg* %84, i32 0, i32 0
  %RBP.i32 = bitcast %union.anon* %85 to i64*
  %86 = load i64, i64* %RBP.i32
  %87 = sub i64 %86, 1
  %88 = load i8, i8* %AL.i31
  %89 = zext i8 %88 to i64
  %90 = load i64, i64* %PC.i30
  %91 = add i64 %90, 3
  store i64 %91, i64* %PC.i30
  %92 = inttoptr i64 %87 to i8*
  store i8 %88, i8* %92
  store %struct.Memory* %loadMem_41690b, %struct.Memory** %MEMORY
  %loadMem_41690e = load %struct.Memory*, %struct.Memory** %MEMORY
  %93 = getelementptr inbounds %struct.State, %struct.State* %0, i32 0, i32 6
  %94 = getelementptr inbounds %struct.GPR, %struct.GPR* %93, i32 0, i32 33
  %95 = getelementptr inbounds %struct.Reg, %struct.Reg* %94, i32 0, i32 0
  %PC.i27 = bitcast %union.anon* %95 to i64*
  %96 = getelementptr inbounds %struct.State, %struct.State* %0, i32 0, i32 6
  %97 = getelementptr inbounds %struct.GPR, %struct.GPR* %96, i32 0, i32 1
  %98 = getelementptr inbounds %struct.Reg, %struct.Reg* %97, i32 0, i32 0
  %RAX.i28 = bitcast %union.anon* %98 to i64*
  %99 = getelementptr inbounds %struct.State, %struct.State* %0, i32 0, i32 6
  %100 = getelementptr inbounds %struct.GPR, %struct.GPR* %99, i32 0, i32 15
  %101 = getelementptr inbounds %struct.Reg, %struct.Reg* %100, i32 0, i32 0
  %RBP.i29 = bitcast %union.anon* %101 to i64*
  %102 = load i64, i64* %RBP.i29
  %103 = sub i64 %102, 1
  %104 = load i64, i64* %PC.i27
  %105 = add i64 %104, 4
  store i64 %105, i64* %PC.i27
  %106 = inttoptr i64 %103 to i8*
  %107 = load i8, i8* %106
  %108 = zext i8 %107 to i64
  store i64 %108, i64* %RAX.i28, align 8
  store %struct.Memory* %loadMem_41690e, %struct.Memory** %MEMORY
  %loadMem_416912 = load %struct.Memory*, %struct.Memory** %MEMORY
  %109 = getelementptr inbounds %struct.State, %struct.State* %0, i32 0, i32 6
  %110 = getelementptr inbounds %struct.GPR, %struct.GPR* %109, i32 0, i32 33
  %111 = getelementptr inbounds %struct.Reg, %struct.Reg* %110, i32 0, i32 0
  %PC.i25 = bitcast %union.anon* %111 to i64*
  %112 = getelementptr inbounds %struct.State, %struct.State* %0, i32 0, i32 6
  %113 = getelementptr inbounds %struct.GPR, %struct.GPR* %112, i32 0, i32 7
  %114 = getelementptr inbounds %struct.Reg, %struct.Reg* %113, i32 0, i32 0
  %EDX.i = bitcast %union.anon* %114 to i32*
  %115 = getelementptr inbounds %struct.State, %struct.State* %0, i32 0, i32 6
  %116 = getelementptr inbounds %struct.GPR, %struct.GPR* %115, i32 0, i32 15
  %117 = getelementptr inbounds %struct.Reg, %struct.Reg* %116, i32 0, i32 0
  %RBP.i26 = bitcast %union.anon* %117 to i64*
  %118 = load i64, i64* %RBP.i26
  %119 = sub i64 %118, 8
  %120 = load i32, i32* %EDX.i
  %121 = zext i32 %120 to i64
  %122 = load i64, i64* %PC.i25
  %123 = add i64 %122, 3
  store i64 %123, i64* %PC.i25
  %124 = inttoptr i64 %119 to i32*
  store i32 %120, i32* %124
  store %struct.Memory* %loadMem_416912, %struct.Memory** %MEMORY
  %loadMem_416915 = load %struct.Memory*, %struct.Memory** %MEMORY
  %125 = getelementptr inbounds %struct.State, %struct.State* %0, i32 0, i32 6
  %126 = getelementptr inbounds %struct.GPR, %struct.GPR* %125, i32 0, i32 33
  %127 = getelementptr inbounds %struct.Reg, %struct.Reg* %126, i32 0, i32 0
  %PC.i24 = bitcast %union.anon* %127 to i64*
  %128 = load i64, i64* %PC.i24
  %129 = add i64 %128, 1
  store i64 %129, i64* %PC.i24
  %130 = getelementptr inbounds %struct.State, %struct.State* %0, i64 0, i32 6, i32 7, i32 0, i32 0
  %131 = getelementptr inbounds %struct.State, %struct.State* %0, i64 0, i32 6, i32 1, i32 0
  %132 = bitcast %union.anon* %131 to i32*
  %133 = load i32, i32* %132, align 8
  %134 = sext i32 %133 to i64
  %135 = lshr i64 %134, 32
  store i64 %135, i64* %130, align 8
  store %struct.Memory* %loadMem_416915, %struct.Memory** %MEMORY
  %loadMem_416916 = load %struct.Memory*, %struct.Memory** %MEMORY
  %136 = getelementptr inbounds %struct.State, %struct.State* %0, i32 0, i32 6
  %137 = getelementptr inbounds %struct.GPR, %struct.GPR* %136, i32 0, i32 33
  %138 = getelementptr inbounds %struct.Reg, %struct.Reg* %137, i32 0, i32 0
  %PC.i20 = bitcast %union.anon* %138 to i64*
  %139 = getelementptr inbounds %struct.State, %struct.State* %0, i32 0, i32 6
  %140 = getelementptr inbounds %struct.GPR, %struct.GPR* %139, i32 0, i32 9
  %141 = getelementptr inbounds %struct.Reg, %struct.Reg* %140, i32 0, i32 0
  %ESI.i21 = bitcast %union.anon* %141 to i32*
  %142 = load i32, i32* %ESI.i21
  %143 = zext i32 %142 to i64
  %144 = load i64, i64* %PC.i20
  %145 = add i64 %144, 2
  store i64 %145, i64* %PC.i20
  %146 = getelementptr inbounds %struct.State, %struct.State* %0, i64 0, i32 6, i32 1, i32 0
  %147 = bitcast %union.anon* %146 to i32*
  %148 = load i32, i32* %147, align 8
  %149 = zext i32 %148 to i64
  %150 = getelementptr inbounds %struct.State, %struct.State* %0, i64 0, i32 6, i32 7, i32 0
  %151 = bitcast %union.anon* %150 to i32*
  %152 = load i32, i32* %151, align 8
  %153 = zext i32 %152 to i64
  %154 = shl i64 %143, 32
  %155 = ashr exact i64 %154, 32
  %156 = shl i64 %153, 32
  %157 = or i64 %156, %149
  %158 = sdiv i64 %157, %155
  %159 = shl i64 %158, 32
  %160 = ashr exact i64 %159, 32
  %161 = icmp eq i64 %158, %160
  br i1 %161, label %166, label %162

; <label>:162:                                    ; preds = %entry
  %163 = getelementptr inbounds %struct.State, %struct.State* %0, i64 0, i32 6, i32 33, i32 0, i32 0
  %164 = load i64, i64* %163, align 8
  %165 = call %struct.Memory* @__remill_error(%struct.State* nonnull dereferenceable(3376) %0, i64 %164, %struct.Memory* %loadMem_416916)
  br label %routine_idivl__esi.exit22

; <label>:166:                                    ; preds = %entry
  %167 = srem i64 %157, %155
  %168 = getelementptr inbounds %union.anon, %union.anon* %146, i64 0, i32 0
  %169 = and i64 %158, 4294967295
  store i64 %169, i64* %168, align 8
  %170 = getelementptr inbounds %union.anon, %union.anon* %150, i64 0, i32 0
  %171 = and i64 %167, 4294967295
  store i64 %171, i64* %170, align 8
  %172 = getelementptr inbounds %struct.State, %struct.State* %0, i64 0, i32 2, i32 1
  store i8 0, i8* %172, align 1
  %173 = getelementptr inbounds %struct.State, %struct.State* %0, i64 0, i32 2, i32 3
  store i8 0, i8* %173, align 1
  %174 = getelementptr inbounds %struct.State, %struct.State* %0, i64 0, i32 2, i32 5
  store i8 0, i8* %174, align 1
  %175 = getelementptr inbounds %struct.State, %struct.State* %0, i64 0, i32 2, i32 7
  store i8 0, i8* %175, align 1
  %176 = getelementptr inbounds %struct.State, %struct.State* %0, i64 0, i32 2, i32 9
  store i8 0, i8* %176, align 1
  %177 = getelementptr inbounds %struct.State, %struct.State* %0, i64 0, i32 2, i32 13
  store i8 0, i8* %177, align 1
  br label %routine_idivl__esi.exit22

routine_idivl__esi.exit22:                        ; preds = %162, %166
  %178 = phi %struct.Memory* [ %165, %162 ], [ %loadMem_416916, %166 ]
  store %struct.Memory* %178, %struct.Memory** %MEMORY
  %loadMem_416918 = load %struct.Memory*, %struct.Memory** %MEMORY
  %179 = getelementptr inbounds %struct.State, %struct.State* %0, i32 0, i32 6
  %180 = getelementptr inbounds %struct.GPR, %struct.GPR* %179, i32 0, i32 33
  %181 = getelementptr inbounds %struct.Reg, %struct.Reg* %180, i32 0, i32 0
  %PC.i19 = bitcast %union.anon* %181 to i64*
  %182 = load i64, i64* %PC.i19
  %183 = add i64 %182, 1
  store i64 %183, i64* %PC.i19
  %184 = getelementptr inbounds %struct.State, %struct.State* %0, i64 0, i32 6, i32 7, i32 0, i32 0
  %185 = getelementptr inbounds %struct.State, %struct.State* %0, i64 0, i32 6, i32 1, i32 0
  %186 = bitcast %union.anon* %185 to i32*
  %187 = load i32, i32* %186, align 8
  %188 = sext i32 %187 to i64
  %189 = lshr i64 %188, 32
  store i64 %189, i64* %184, align 8
  store %struct.Memory* %loadMem_416918, %struct.Memory** %MEMORY
  %loadMem_416919 = load %struct.Memory*, %struct.Memory** %MEMORY
  %190 = getelementptr inbounds %struct.State, %struct.State* %0, i32 0, i32 6
  %191 = getelementptr inbounds %struct.GPR, %struct.GPR* %190, i32 0, i32 33
  %192 = getelementptr inbounds %struct.Reg, %struct.Reg* %191, i32 0, i32 0
  %PC.i17 = bitcast %union.anon* %192 to i64*
  %193 = getelementptr inbounds %struct.State, %struct.State* %0, i32 0, i32 6
  %194 = getelementptr inbounds %struct.GPR, %struct.GPR* %193, i32 0, i32 9
  %195 = getelementptr inbounds %struct.Reg, %struct.Reg* %194, i32 0, i32 0
  %RSI.i = bitcast %union.anon* %195 to i64*
  %196 = getelementptr inbounds %struct.State, %struct.State* %0, i32 0, i32 6
  %197 = getelementptr inbounds %struct.GPR, %struct.GPR* %196, i32 0, i32 15
  %198 = getelementptr inbounds %struct.Reg, %struct.Reg* %197, i32 0, i32 0
  %RBP.i18 = bitcast %union.anon* %198 to i64*
  %199 = load i64, i64* %RBP.i18
  %200 = sub i64 %199, 8
  %201 = load i64, i64* %PC.i17
  %202 = add i64 %201, 3
  store i64 %202, i64* %PC.i17
  %203 = inttoptr i64 %200 to i32*
  %204 = load i32, i32* %203
  %205 = zext i32 %204 to i64
  store i64 %205, i64* %RSI.i, align 8
  store %struct.Memory* %loadMem_416919, %struct.Memory** %MEMORY
  %loadMem_41691c = load %struct.Memory*, %struct.Memory** %MEMORY
  %206 = getelementptr inbounds %struct.State, %struct.State* %0, i32 0, i32 6
  %207 = getelementptr inbounds %struct.GPR, %struct.GPR* %206, i32 0, i32 33
  %208 = getelementptr inbounds %struct.Reg, %struct.Reg* %207, i32 0, i32 0
  %PC.i15 = bitcast %union.anon* %208 to i64*
  %209 = getelementptr inbounds %struct.State, %struct.State* %0, i32 0, i32 6
  %210 = getelementptr inbounds %struct.GPR, %struct.GPR* %209, i32 0, i32 9
  %211 = getelementptr inbounds %struct.Reg, %struct.Reg* %210, i32 0, i32 0
  %ESI.i = bitcast %union.anon* %211 to i32*
  %212 = load i32, i32* %ESI.i
  %213 = zext i32 %212 to i64
  %214 = load i64, i64* %PC.i15
  %215 = add i64 %214, 2
  store i64 %215, i64* %PC.i15
  %216 = getelementptr inbounds %struct.State, %struct.State* %0, i64 0, i32 6, i32 1, i32 0
  %217 = bitcast %union.anon* %216 to i32*
  %218 = load i32, i32* %217, align 8
  %219 = zext i32 %218 to i64
  %220 = getelementptr inbounds %struct.State, %struct.State* %0, i64 0, i32 6, i32 7, i32 0
  %221 = bitcast %union.anon* %220 to i32*
  %222 = load i32, i32* %221, align 8
  %223 = zext i32 %222 to i64
  %224 = shl i64 %213, 32
  %225 = ashr exact i64 %224, 32
  %226 = shl i64 %223, 32
  %227 = or i64 %226, %219
  %228 = sdiv i64 %227, %225
  %229 = shl i64 %228, 32
  %230 = ashr exact i64 %229, 32
  %231 = icmp eq i64 %228, %230
  br i1 %231, label %236, label %232

; <label>:232:                                    ; preds = %routine_idivl__esi.exit22
  %233 = getelementptr inbounds %struct.State, %struct.State* %0, i64 0, i32 6, i32 33, i32 0, i32 0
  %234 = load i64, i64* %233, align 8
  %235 = call %struct.Memory* @__remill_error(%struct.State* nonnull dereferenceable(3376) %0, i64 %234, %struct.Memory* %loadMem_41691c)
  br label %routine_idivl__esi.exit

; <label>:236:                                    ; preds = %routine_idivl__esi.exit22
  %237 = srem i64 %227, %225
  %238 = getelementptr inbounds %union.anon, %union.anon* %216, i64 0, i32 0
  %239 = and i64 %228, 4294967295
  store i64 %239, i64* %238, align 8
  %240 = getelementptr inbounds %union.anon, %union.anon* %220, i64 0, i32 0
  %241 = and i64 %237, 4294967295
  store i64 %241, i64* %240, align 8
  %242 = getelementptr inbounds %struct.State, %struct.State* %0, i64 0, i32 2, i32 1
  store i8 0, i8* %242, align 1
  %243 = getelementptr inbounds %struct.State, %struct.State* %0, i64 0, i32 2, i32 3
  store i8 0, i8* %243, align 1
  %244 = getelementptr inbounds %struct.State, %struct.State* %0, i64 0, i32 2, i32 5
  store i8 0, i8* %244, align 1
  %245 = getelementptr inbounds %struct.State, %struct.State* %0, i64 0, i32 2, i32 7
  store i8 0, i8* %245, align 1
  %246 = getelementptr inbounds %struct.State, %struct.State* %0, i64 0, i32 2, i32 9
  store i8 0, i8* %246, align 1
  %247 = getelementptr inbounds %struct.State, %struct.State* %0, i64 0, i32 2, i32 13
  store i8 0, i8* %247, align 1
  br label %routine_idivl__esi.exit

routine_idivl__esi.exit:                          ; preds = %232, %236
  %248 = phi %struct.Memory* [ %235, %232 ], [ %loadMem_41691c, %236 ]
  store %struct.Memory* %248, %struct.Memory** %MEMORY
  %loadMem_41691e = load %struct.Memory*, %struct.Memory** %MEMORY
  %249 = getelementptr inbounds %struct.State, %struct.State* %0, i32 0, i32 6
  %250 = getelementptr inbounds %struct.GPR, %struct.GPR* %249, i32 0, i32 33
  %251 = getelementptr inbounds %struct.Reg, %struct.Reg* %250, i32 0, i32 0
  %PC.i14 = bitcast %union.anon* %251 to i64*
  %252 = load i64, i64* %PC.i14
  %253 = add i64 %252, 1
  store i64 %253, i64* %PC.i14
  %254 = getelementptr inbounds %struct.State, %struct.State* %0, i64 0, i32 6, i32 7, i32 0, i32 0
  %255 = getelementptr inbounds %struct.State, %struct.State* %0, i64 0, i32 6, i32 1, i32 0
  %256 = bitcast %union.anon* %255 to i32*
  %257 = load i32, i32* %256, align 8
  %258 = sext i32 %257 to i64
  %259 = lshr i64 %258, 32
  store i64 %259, i64* %254, align 8
  store %struct.Memory* %loadMem_41691e, %struct.Memory** %MEMORY
  %loadMem_41691f = load %struct.Memory*, %struct.Memory** %MEMORY
  %260 = getelementptr inbounds %struct.State, %struct.State* %0, i32 0, i32 6
  %261 = getelementptr inbounds %struct.GPR, %struct.GPR* %260, i32 0, i32 33
  %262 = getelementptr inbounds %struct.Reg, %struct.Reg* %261, i32 0, i32 0
  %PC.i11 = bitcast %union.anon* %262 to i64*
  %263 = getelementptr inbounds %struct.State, %struct.State* %0, i32 0, i32 6
  %264 = getelementptr inbounds %struct.GPR, %struct.GPR* %263, i32 0, i32 5
  %265 = getelementptr inbounds %struct.Reg, %struct.Reg* %264, i32 0, i32 0
  %ECX.i = bitcast %union.anon* %265 to i32*
  %266 = load i32, i32* %ECX.i
  %267 = zext i32 %266 to i64
  %268 = load i64, i64* %PC.i11
  %269 = add i64 %268, 2
  store i64 %269, i64* %PC.i11
  %270 = getelementptr inbounds %struct.State, %struct.State* %0, i64 0, i32 6, i32 1, i32 0
  %271 = bitcast %union.anon* %270 to i32*
  %272 = load i32, i32* %271, align 8
  %273 = zext i32 %272 to i64
  %274 = getelementptr inbounds %struct.State, %struct.State* %0, i64 0, i32 6, i32 7, i32 0
  %275 = bitcast %union.anon* %274 to i32*
  %276 = load i32, i32* %275, align 8
  %277 = zext i32 %276 to i64
  %278 = shl i64 %267, 32
  %279 = ashr exact i64 %278, 32
  %280 = shl i64 %277, 32
  %281 = or i64 %280, %273
  %282 = sdiv i64 %281, %279
  %283 = shl i64 %282, 32
  %284 = ashr exact i64 %283, 32
  %285 = icmp eq i64 %282, %284
  br i1 %285, label %290, label %286

; <label>:286:                                    ; preds = %routine_idivl__esi.exit
  %287 = getelementptr inbounds %struct.State, %struct.State* %0, i64 0, i32 6, i32 33, i32 0, i32 0
  %288 = load i64, i64* %287, align 8
  %289 = call %struct.Memory* @__remill_error(%struct.State* nonnull dereferenceable(3376) %0, i64 %288, %struct.Memory* %loadMem_41691f)
  br label %routine_idivl__ecx.exit

; <label>:290:                                    ; preds = %routine_idivl__esi.exit
  %291 = srem i64 %281, %279
  %292 = getelementptr inbounds %union.anon, %union.anon* %270, i64 0, i32 0
  %293 = and i64 %282, 4294967295
  store i64 %293, i64* %292, align 8
  %294 = getelementptr inbounds %union.anon, %union.anon* %274, i64 0, i32 0
  %295 = and i64 %291, 4294967295
  store i64 %295, i64* %294, align 8
  %296 = getelementptr inbounds %struct.State, %struct.State* %0, i64 0, i32 2, i32 1
  store i8 0, i8* %296, align 1
  %297 = getelementptr inbounds %struct.State, %struct.State* %0, i64 0, i32 2, i32 3
  store i8 0, i8* %297, align 1
  %298 = getelementptr inbounds %struct.State, %struct.State* %0, i64 0, i32 2, i32 5
  store i8 0, i8* %298, align 1
  %299 = getelementptr inbounds %struct.State, %struct.State* %0, i64 0, i32 2, i32 7
  store i8 0, i8* %299, align 1
  %300 = getelementptr inbounds %struct.State, %struct.State* %0, i64 0, i32 2, i32 9
  store i8 0, i8* %300, align 1
  %301 = getelementptr inbounds %struct.State, %struct.State* %0, i64 0, i32 2, i32 13
  store i8 0, i8* %301, align 1
  br label %routine_idivl__ecx.exit

routine_idivl__ecx.exit:                          ; preds = %286, %290
  %302 = phi %struct.Memory* [ %289, %286 ], [ %loadMem_41691f, %290 ]
  store %struct.Memory* %302, %struct.Memory** %MEMORY
  %loadMem_416921 = load %struct.Memory*, %struct.Memory** %MEMORY
  %303 = getelementptr inbounds %struct.State, %struct.State* %0, i32 0, i32 6
  %304 = getelementptr inbounds %struct.GPR, %struct.GPR* %303, i32 0, i32 33
  %305 = getelementptr inbounds %struct.Reg, %struct.Reg* %304, i32 0, i32 0
  %PC.i10 = bitcast %union.anon* %305 to i64*
  %306 = load i64, i64* %PC.i10
  %307 = add i64 %306, 1
  store i64 %307, i64* %PC.i10
  %308 = getelementptr inbounds %struct.State, %struct.State* %0, i64 0, i32 6, i32 7, i32 0, i32 0
  %309 = getelementptr inbounds %struct.State, %struct.State* %0, i64 0, i32 6, i32 1, i32 0
  %310 = bitcast %union.anon* %309 to i32*
  %311 = load i32, i32* %310, align 8
  %312 = sext i32 %311 to i64
  %313 = lshr i64 %312, 32
  store i64 %313, i64* %308, align 8
  store %struct.Memory* %loadMem_416921, %struct.Memory** %MEMORY
  %loadMem_416922 = load %struct.Memory*, %struct.Memory** %MEMORY
  %314 = getelementptr inbounds %struct.State, %struct.State* %0, i32 0, i32 6
  %315 = getelementptr inbounds %struct.GPR, %struct.GPR* %314, i32 0, i32 33
  %316 = getelementptr inbounds %struct.Reg, %struct.Reg* %315, i32 0, i32 0
  %PC.i7 = bitcast %union.anon* %316 to i64*
  %317 = getelementptr inbounds %struct.State, %struct.State* %0, i32 0, i32 6
  %318 = getelementptr inbounds %struct.GPR, %struct.GPR* %317, i32 0, i32 11
  %319 = getelementptr inbounds %struct.Reg, %struct.Reg* %318, i32 0, i32 0
  %EDI.i = bitcast %union.anon* %319 to i32*
  %320 = load i32, i32* %EDI.i
  %321 = zext i32 %320 to i64
  %322 = load i64, i64* %PC.i7
  %323 = add i64 %322, 2
  store i64 %323, i64* %PC.i7
  %324 = getelementptr inbounds %struct.State, %struct.State* %0, i64 0, i32 6, i32 1, i32 0
  %325 = bitcast %union.anon* %324 to i32*
  %326 = load i32, i32* %325, align 8
  %327 = zext i32 %326 to i64
  %328 = getelementptr inbounds %struct.State, %struct.State* %0, i64 0, i32 6, i32 7, i32 0
  %329 = bitcast %union.anon* %328 to i32*
  %330 = load i32, i32* %329, align 8
  %331 = zext i32 %330 to i64
  %332 = shl i64 %321, 32
  %333 = ashr exact i64 %332, 32
  %334 = shl i64 %331, 32
  %335 = or i64 %334, %327
  %336 = sdiv i64 %335, %333
  %337 = shl i64 %336, 32
  %338 = ashr exact i64 %337, 32
  %339 = icmp eq i64 %336, %338
  br i1 %339, label %344, label %340

; <label>:340:                                    ; preds = %routine_idivl__ecx.exit
  %341 = getelementptr inbounds %struct.State, %struct.State* %0, i64 0, i32 6, i32 33, i32 0, i32 0
  %342 = load i64, i64* %341, align 8
  %343 = call %struct.Memory* @__remill_error(%struct.State* nonnull dereferenceable(3376) %0, i64 %342, %struct.Memory* %loadMem_416922)
  br label %routine_idivl__edi.exit

; <label>:344:                                    ; preds = %routine_idivl__ecx.exit
  %345 = srem i64 %335, %333
  %346 = getelementptr inbounds %union.anon, %union.anon* %324, i64 0, i32 0
  %347 = and i64 %336, 4294967295
  store i64 %347, i64* %346, align 8
  %348 = getelementptr inbounds %union.anon, %union.anon* %328, i64 0, i32 0
  %349 = and i64 %345, 4294967295
  store i64 %349, i64* %348, align 8
  %350 = getelementptr inbounds %struct.State, %struct.State* %0, i64 0, i32 2, i32 1
  store i8 0, i8* %350, align 1
  %351 = getelementptr inbounds %struct.State, %struct.State* %0, i64 0, i32 2, i32 3
  store i8 0, i8* %351, align 1
  %352 = getelementptr inbounds %struct.State, %struct.State* %0, i64 0, i32 2, i32 5
  store i8 0, i8* %352, align 1
  %353 = getelementptr inbounds %struct.State, %struct.State* %0, i64 0, i32 2, i32 7
  store i8 0, i8* %353, align 1
  %354 = getelementptr inbounds %struct.State, %struct.State* %0, i64 0, i32 2, i32 9
  store i8 0, i8* %354, align 1
  %355 = getelementptr inbounds %struct.State, %struct.State* %0, i64 0, i32 2, i32 13
  store i8 0, i8* %355, align 1
  br label %routine_idivl__edi.exit

routine_idivl__edi.exit:                          ; preds = %340, %344
  %356 = phi %struct.Memory* [ %343, %340 ], [ %loadMem_416922, %344 ]
  store %struct.Memory* %356, %struct.Memory** %MEMORY
  %loadMem_416924 = load %struct.Memory*, %struct.Memory** %MEMORY
  %357 = getelementptr inbounds %struct.State, %struct.State* %0, i32 0, i32 6
  %358 = getelementptr inbounds %struct.GPR, %struct.GPR* %357, i32 0, i32 33
  %359 = getelementptr inbounds %struct.Reg, %struct.Reg* %358, i32 0, i32 0
  %PC.i5 = bitcast %union.anon* %359 to i64*
  %360 = getelementptr inbounds %struct.State, %struct.State* %0, i32 0, i32 6
  %361 = getelementptr inbounds %struct.GPR, %struct.GPR* %360, i32 0, i32 1
  %362 = getelementptr inbounds %struct.Reg, %struct.Reg* %361, i32 0, i32 0
  %363 = bitcast %union.anon* %362 to %struct.anon.2*
  %AL.i = getelementptr inbounds %struct.anon.2, %struct.anon.2* %363, i32 0, i32 0
  %364 = getelementptr inbounds %struct.State, %struct.State* %0, i32 0, i32 6
  %365 = getelementptr inbounds %struct.GPR, %struct.GPR* %364, i32 0, i32 17
  %366 = getelementptr inbounds %struct.Reg, %struct.Reg* %365, i32 0, i32 0
  %367 = bitcast %union.anon* %366 to %struct.anon.2*
  %R8B.i6 = getelementptr inbounds %struct.anon.2, %struct.anon.2* %367, i32 0, i32 0
  %368 = load i8, i8* %AL.i
  %369 = zext i8 %368 to i64
  %370 = load i64, i64* %PC.i5
  %371 = add i64 %370, 3
  store i64 %371, i64* %PC.i5
  store i8 %368, i8* %R8B.i6, align 1
  store %struct.Memory* %loadMem_416924, %struct.Memory** %MEMORY
  %loadMem_416927 = load %struct.Memory*, %struct.Memory** %MEMORY
  %372 = getelementptr inbounds %struct.State, %struct.State* %0, i32 0, i32 6
  %373 = getelementptr inbounds %struct.GPR, %struct.GPR* %372, i32 0, i32 33
  %374 = getelementptr inbounds %struct.Reg, %struct.Reg* %373, i32 0, i32 0
  %PC.i4 = bitcast %union.anon* %374 to i64*
  %375 = getelementptr inbounds %struct.State, %struct.State* %0, i32 0, i32 6
  %376 = getelementptr inbounds %struct.GPR, %struct.GPR* %375, i32 0, i32 17
  %377 = getelementptr inbounds %struct.Reg, %struct.Reg* %376, i32 0, i32 0
  %378 = bitcast %union.anon* %377 to %struct.anon.2*
  %R8B.i = getelementptr inbounds %struct.anon.2, %struct.anon.2* %378, i32 0, i32 0
  %379 = getelementptr inbounds %struct.State, %struct.State* %0, i32 0, i32 6
  %380 = getelementptr inbounds %struct.GPR, %struct.GPR* %379, i32 0, i32 1
  %381 = getelementptr inbounds %struct.Reg, %struct.Reg* %380, i32 0, i32 0
  %RAX.i = bitcast %union.anon* %381 to i64*
  %382 = load i8, i8* %R8B.i
  %383 = zext i8 %382 to i64
  %384 = load i64, i64* %PC.i4
  %385 = add i64 %384, 4
  store i64 %385, i64* %PC.i4
  %386 = and i64 %383, 255
  store i64 %386, i64* %RAX.i, align 8
  store %struct.Memory* %loadMem_416927, %struct.Memory** %MEMORY
  %loadMem_41692b = load %struct.Memory*, %struct.Memory** %MEMORY
  %387 = getelementptr inbounds %struct.State, %struct.State* %0, i32 0, i32 6
  %388 = getelementptr inbounds %struct.GPR, %struct.GPR* %387, i32 0, i32 33
  %389 = getelementptr inbounds %struct.Reg, %struct.Reg* %388, i32 0, i32 0
  %PC.i2 = bitcast %union.anon* %389 to i64*
  %390 = getelementptr inbounds %struct.State, %struct.State* %0, i32 0, i32 6
  %391 = getelementptr inbounds %struct.GPR, %struct.GPR* %390, i32 0, i32 15
  %392 = getelementptr inbounds %struct.Reg, %struct.Reg* %391, i32 0, i32 0
  %RBP.i3 = bitcast %union.anon* %392 to i64*
  %393 = load i64, i64* %PC.i2
  %394 = add i64 %393, 1
  store i64 %394, i64* %PC.i2
  %395 = getelementptr inbounds %struct.State, %struct.State* %0, i64 0, i32 6, i32 13, i32 0, i32 0
  %396 = load i64, i64* %395, align 8
  %397 = add i64 %396, 8
  %398 = inttoptr i64 %396 to i64*
  %399 = load i64, i64* %398
  store i64 %399, i64* %RBP.i3, align 8
  store i64 %397, i64* %395, align 8
  store %struct.Memory* %loadMem_41692b, %struct.Memory** %MEMORY
  %loadMem_41692c = load %struct.Memory*, %struct.Memory** %MEMORY
  %400 = getelementptr inbounds %struct.State, %struct.State* %0, i32 0, i32 6
  %401 = getelementptr inbounds %struct.GPR, %struct.GPR* %400, i32 0, i32 33
  %402 = getelementptr inbounds %struct.Reg, %struct.Reg* %401, i32 0, i32 0
  %PC.i1 = bitcast %union.anon* %402 to i64*
  %403 = load i64, i64* %PC.i1
  %404 = add i64 %403, 1
  store i64 %404, i64* %PC.i1
  %405 = getelementptr inbounds %struct.State, %struct.State* %0, i64 0, i32 6, i32 33, i32 0, i32 0
  %406 = getelementptr inbounds %struct.State, %struct.State* %0, i64 0, i32 6, i32 13, i32 0, i32 0
  %407 = load i64, i64* %406, align 8
  %408 = inttoptr i64 %407 to i64*
  %409 = load i64, i64* %408
  store i64 %409, i64* %405, align 8
  %410 = add i64 %407, 8
  store i64 %410, i64* %406, align 8
  store %struct.Memory* %loadMem_41692c, %struct.Memory** %MEMORY
  ret %struct.Memory* %loadMem_41692c
}

define %struct.Memory* @routine_pushq__rbp(%struct.State* dereferenceable(3376), i64, %struct.Memory*) {
block_400488:
  %3 = getelementptr inbounds %struct.State, %struct.State* %0, i32 0, i32 6
  %4 = getelementptr inbounds %struct.GPR, %struct.GPR* %3, i32 0, i32 33
  %5 = getelementptr inbounds %struct.Reg, %struct.Reg* %4, i32 0, i32 0
  %PC = bitcast %union.anon* %5 to i64*
  %6 = getelementptr inbounds %struct.State, %struct.State* %0, i32 0, i32 6
  %7 = getelementptr inbounds %struct.GPR, %struct.GPR* %6, i32 0, i32 15
  %8 = getelementptr inbounds %struct.Reg, %struct.Reg* %7, i32 0, i32 0
  %RBP = bitcast %union.anon* %8 to i64*
  %9 = load i64, i64* %RBP
  %10 = load i64, i64* %PC
  %11 = add i64 %10, 1
  store i64 %11, i64* %PC
  %12 = getelementptr inbounds %struct.State, %struct.State* %0, i64 0, i32 6, i32 13, i32 0, i32 0
  %13 = load i64, i64* %12, align 8
  %14 = add i64 %13, -8
  %15 = inttoptr i64 %14 to i64*
  store i64 %9, i64* %15
  store i64 %14, i64* %12, align 8
  ret %struct.Memory* %2
}

define %struct.Memory* @routine_movq__rsp___rbp(%struct.State* dereferenceable(3376), i64, %struct.Memory*) {
block_400488:
  %3 = getelementptr inbounds %struct.State, %struct.State* %0, i32 0, i32 6
  %4 = getelementptr inbounds %struct.GPR, %struct.GPR* %3, i32 0, i32 33
  %5 = getelementptr inbounds %struct.Reg, %struct.Reg* %4, i32 0, i32 0
  %PC = bitcast %union.anon* %5 to i64*
  %6 = getelementptr inbounds %struct.State, %struct.State* %0, i32 0, i32 6
  %7 = getelementptr inbounds %struct.GPR, %struct.GPR* %6, i32 0, i32 13
  %8 = getelementptr inbounds %struct.Reg, %struct.Reg* %7, i32 0, i32 0
  %RSP = bitcast %union.anon* %8 to i64*
  %9 = getelementptr inbounds %struct.State, %struct.State* %0, i32 0, i32 6
  %10 = getelementptr inbounds %struct.GPR, %struct.GPR* %9, i32 0, i32 15
  %11 = getelementptr inbounds %struct.Reg, %struct.Reg* %10, i32 0, i32 0
  %RBP = bitcast %union.anon* %11 to i64*
  %12 = load i64, i64* %RSP
  %13 = load i64, i64* %PC
  %14 = add i64 %13, 3
  store i64 %14, i64* %PC
  store i64 %12, i64* %RBP, align 8
  ret %struct.Memory* %2
}

define %struct.Memory* @routine_movb__dil___al(%struct.State* dereferenceable(3376), i64, %struct.Memory*) {
block_400488:
  %3 = getelementptr inbounds %struct.State, %struct.State* %0, i32 0, i32 6
  %4 = getelementptr inbounds %struct.GPR, %struct.GPR* %3, i32 0, i32 33
  %5 = getelementptr inbounds %struct.Reg, %struct.Reg* %4, i32 0, i32 0
  %PC = bitcast %union.anon* %5 to i64*
  %6 = getelementptr inbounds %struct.State, %struct.State* %0, i32 0, i32 6
  %7 = getelementptr inbounds %struct.GPR, %struct.GPR* %6, i32 0, i32 1
  %8 = getelementptr inbounds %struct.Reg, %struct.Reg* %7, i32 0, i32 0
  %9 = bitcast %union.anon* %8 to %struct.anon.2*
  %AL = getelementptr inbounds %struct.anon.2, %struct.anon.2* %9, i32 0, i32 0
  %10 = getelementptr inbounds %struct.State, %struct.State* %0, i32 0, i32 6
  %11 = getelementptr inbounds %struct.GPR, %struct.GPR* %10, i32 0, i32 11
  %12 = getelementptr inbounds %struct.Reg, %struct.Reg* %11, i32 0, i32 0
  %13 = bitcast %union.anon* %12 to %struct.anon.2*
  %DIL = getelementptr inbounds %struct.anon.2, %struct.anon.2* %13, i32 0, i32 0
  %14 = load i8, i8* %DIL
  %15 = zext i8 %14 to i64
  %16 = load i64, i64* %PC
  %17 = add i64 %16, 3
  store i64 %17, i64* %PC
  store i8 %14, i8* %AL, align 1
  ret %struct.Memory* %2
}

define %struct.Memory* @routine_movl__0x5___edi(%struct.State* dereferenceable(3376), i64, %struct.Memory*) {
block_400488:
  %3 = getelementptr inbounds %struct.State, %struct.State* %0, i32 0, i32 6
  %4 = getelementptr inbounds %struct.GPR, %struct.GPR* %3, i32 0, i32 33
  %5 = getelementptr inbounds %struct.Reg, %struct.Reg* %4, i32 0, i32 0
  %PC = bitcast %union.anon* %5 to i64*
  %6 = getelementptr inbounds %struct.State, %struct.State* %0, i32 0, i32 6
  %7 = getelementptr inbounds %struct.GPR, %struct.GPR* %6, i32 0, i32 11
  %8 = getelementptr inbounds %struct.Reg, %struct.Reg* %7, i32 0, i32 0
  %RDI = bitcast %union.anon* %8 to i64*
  %9 = load i64, i64* %PC
  %10 = add i64 %9, 5
  store i64 %10, i64* %PC
  store i64 5, i64* %RDI, align 8
  ret %struct.Memory* %2
}

define %struct.Memory* @routine_movl__0x4___ecx(%struct.State* dereferenceable(3376), i64, %struct.Memory*) {
block_400488:
  %3 = getelementptr inbounds %struct.State, %struct.State* %0, i32 0, i32 6
  %4 = getelementptr inbounds %struct.GPR, %struct.GPR* %3, i32 0, i32 33
  %5 = getelementptr inbounds %struct.Reg, %struct.Reg* %4, i32 0, i32 0
  %PC = bitcast %union.anon* %5 to i64*
  %6 = getelementptr inbounds %struct.State, %struct.State* %0, i32 0, i32 6
  %7 = getelementptr inbounds %struct.GPR, %struct.GPR* %6, i32 0, i32 5
  %8 = getelementptr inbounds %struct.Reg, %struct.Reg* %7, i32 0, i32 0
  %RCX = bitcast %union.anon* %8 to i64*
  %9 = load i64, i64* %PC
  %10 = add i64 %9, 5
  store i64 %10, i64* %PC
  store i64 4, i64* %RCX, align 8
  ret %struct.Memory* %2
}

define %struct.Memory* @routine_movl__0x3___edx(%struct.State* dereferenceable(3376), i64, %struct.Memory*) {
block_400488:
  %3 = getelementptr inbounds %struct.State, %struct.State* %0, i32 0, i32 6
  %4 = getelementptr inbounds %struct.GPR, %struct.GPR* %3, i32 0, i32 33
  %5 = getelementptr inbounds %struct.Reg, %struct.Reg* %4, i32 0, i32 0
  %PC = bitcast %union.anon* %5 to i64*
  %6 = getelementptr inbounds %struct.State, %struct.State* %0, i32 0, i32 6
  %7 = getelementptr inbounds %struct.GPR, %struct.GPR* %6, i32 0, i32 7
  %8 = getelementptr inbounds %struct.Reg, %struct.Reg* %7, i32 0, i32 0
  %RDX = bitcast %union.anon* %8 to i64*
  %9 = load i64, i64* %PC
  %10 = add i64 %9, 5
  store i64 %10, i64* %PC
  store i64 3, i64* %RDX, align 8
  ret %struct.Memory* %2
}

define %struct.Memory* @routine_movl__0x2___esi(%struct.State* dereferenceable(3376), i64, %struct.Memory*) {
block_400488:
  %3 = getelementptr inbounds %struct.State, %struct.State* %0, i32 0, i32 6
  %4 = getelementptr inbounds %struct.GPR, %struct.GPR* %3, i32 0, i32 33
  %5 = getelementptr inbounds %struct.Reg, %struct.Reg* %4, i32 0, i32 0
  %PC = bitcast %union.anon* %5 to i64*
  %6 = getelementptr inbounds %struct.State, %struct.State* %0, i32 0, i32 6
  %7 = getelementptr inbounds %struct.GPR, %struct.GPR* %6, i32 0, i32 9
  %8 = getelementptr inbounds %struct.Reg, %struct.Reg* %7, i32 0, i32 0
  %RSI = bitcast %union.anon* %8 to i64*
  %9 = load i64, i64* %PC
  %10 = add i64 %9, 5
  store i64 %10, i64* %PC
  store i64 2, i64* %RSI, align 8
  ret %struct.Memory* %2
}

define %struct.Memory* @routine_movb__al__MINUS0x1__rbp_(%struct.State* dereferenceable(3376), i64, %struct.Memory*) {
block_400488:
  %3 = getelementptr inbounds %struct.State, %struct.State* %0, i32 0, i32 6
  %4 = getelementptr inbounds %struct.GPR, %struct.GPR* %3, i32 0, i32 33
  %5 = getelementptr inbounds %struct.Reg, %struct.Reg* %4, i32 0, i32 0
  %PC = bitcast %union.anon* %5 to i64*
  %6 = getelementptr inbounds %struct.State, %struct.State* %0, i32 0, i32 6
  %7 = getelementptr inbounds %struct.GPR, %struct.GPR* %6, i32 0, i32 1
  %8 = getelementptr inbounds %struct.Reg, %struct.Reg* %7, i32 0, i32 0
  %9 = bitcast %union.anon* %8 to %struct.anon.2*
  %AL = getelementptr inbounds %struct.anon.2, %struct.anon.2* %9, i32 0, i32 0
  %10 = getelementptr inbounds %struct.State, %struct.State* %0, i32 0, i32 6
  %11 = getelementptr inbounds %struct.GPR, %struct.GPR* %10, i32 0, i32 15
  %12 = getelementptr inbounds %struct.Reg, %struct.Reg* %11, i32 0, i32 0
  %RBP = bitcast %union.anon* %12 to i64*
  %13 = load i64, i64* %RBP
  %14 = sub i64 %13, 1
  %15 = load i8, i8* %AL
  %16 = zext i8 %15 to i64
  %17 = load i64, i64* %PC
  %18 = add i64 %17, 3
  store i64 %18, i64* %PC
  %19 = inttoptr i64 %14 to i8*
  store i8 %15, i8* %19
  ret %struct.Memory* %2
}

define %struct.Memory* @routine_movzbl_MINUS0x1__rbp____eax(%struct.State* dereferenceable(3376), i64, %struct.Memory*) {
block_400488:
  %3 = getelementptr inbounds %struct.State, %struct.State* %0, i32 0, i32 6
  %4 = getelementptr inbounds %struct.GPR, %struct.GPR* %3, i32 0, i32 33
  %5 = getelementptr inbounds %struct.Reg, %struct.Reg* %4, i32 0, i32 0
  %PC = bitcast %union.anon* %5 to i64*
  %6 = getelementptr inbounds %struct.State, %struct.State* %0, i32 0, i32 6
  %7 = getelementptr inbounds %struct.GPR, %struct.GPR* %6, i32 0, i32 1
  %8 = getelementptr inbounds %struct.Reg, %struct.Reg* %7, i32 0, i32 0
  %RAX = bitcast %union.anon* %8 to i64*
  %9 = getelementptr inbounds %struct.State, %struct.State* %0, i32 0, i32 6
  %10 = getelementptr inbounds %struct.GPR, %struct.GPR* %9, i32 0, i32 15
  %11 = getelementptr inbounds %struct.Reg, %struct.Reg* %10, i32 0, i32 0
  %RBP = bitcast %union.anon* %11 to i64*
  %12 = load i64, i64* %RBP
  %13 = sub i64 %12, 1
  %14 = load i64, i64* %PC
  %15 = add i64 %14, 4
  store i64 %15, i64* %PC
  %16 = inttoptr i64 %13 to i8*
  %17 = load i8, i8* %16
  %18 = zext i8 %17 to i64
  store i64 %18, i64* %RAX, align 8
  ret %struct.Memory* %2
}

define %struct.Memory* @routine_movl__edx__MINUS0x8__rbp_(%struct.State* dereferenceable(3376), i64, %struct.Memory*) {
block_400488:
  %3 = getelementptr inbounds %struct.State, %struct.State* %0, i32 0, i32 6
  %4 = getelementptr inbounds %struct.GPR, %struct.GPR* %3, i32 0, i32 33
  %5 = getelementptr inbounds %struct.Reg, %struct.Reg* %4, i32 0, i32 0
  %PC = bitcast %union.anon* %5 to i64*
  %6 = getelementptr inbounds %struct.State, %struct.State* %0, i32 0, i32 6
  %7 = getelementptr inbounds %struct.GPR, %struct.GPR* %6, i32 0, i32 7
  %8 = getelementptr inbounds %struct.Reg, %struct.Reg* %7, i32 0, i32 0
  %EDX = bitcast %union.anon* %8 to i32*
  %9 = getelementptr inbounds %struct.State, %struct.State* %0, i32 0, i32 6
  %10 = getelementptr inbounds %struct.GPR, %struct.GPR* %9, i32 0, i32 15
  %11 = getelementptr inbounds %struct.Reg, %struct.Reg* %10, i32 0, i32 0
  %RBP = bitcast %union.anon* %11 to i64*
  %12 = load i64, i64* %RBP
  %13 = sub i64 %12, 8
  %14 = load i32, i32* %EDX
  %15 = zext i32 %14 to i64
  %16 = load i64, i64* %PC
  %17 = add i64 %16, 3
  store i64 %17, i64* %PC
  %18 = inttoptr i64 %13 to i32*
  store i32 %14, i32* %18
  ret %struct.Memory* %2
}

define %struct.Memory* @routine_cltd(%struct.State* dereferenceable(3376), i64, %struct.Memory*) {
block_400488:
  %3 = getelementptr inbounds %struct.State, %struct.State* %0, i32 0, i32 6
  %4 = getelementptr inbounds %struct.GPR, %struct.GPR* %3, i32 0, i32 33
  %5 = getelementptr inbounds %struct.Reg, %struct.Reg* %4, i32 0, i32 0
  %PC = bitcast %union.anon* %5 to i64*
  %6 = load i64, i64* %PC
  %7 = add i64 %6, 1
  store i64 %7, i64* %PC
  %8 = getelementptr inbounds %struct.State, %struct.State* %0, i64 0, i32 6, i32 7, i32 0, i32 0
  %9 = getelementptr inbounds %struct.State, %struct.State* %0, i64 0, i32 6, i32 1, i32 0
  %10 = bitcast %union.anon* %9 to i32*
  %11 = load i32, i32* %10, align 8
  %12 = sext i32 %11 to i64
  %13 = lshr i64 %12, 32
  store i64 %13, i64* %8, align 8
  ret %struct.Memory* %2
}

define %struct.Memory* @routine_idivl__esi(%struct.State* dereferenceable(3376), i64, %struct.Memory*) {
block_400488:
  %3 = getelementptr inbounds %struct.State, %struct.State* %0, i32 0, i32 6
  %4 = getelementptr inbounds %struct.GPR, %struct.GPR* %3, i32 0, i32 33
  %5 = getelementptr inbounds %struct.Reg, %struct.Reg* %4, i32 0, i32 0
  %PC = bitcast %union.anon* %5 to i64*
  %6 = getelementptr inbounds %struct.State, %struct.State* %0, i32 0, i32 6
  %7 = getelementptr inbounds %struct.GPR, %struct.GPR* %6, i32 0, i32 9
  %8 = getelementptr inbounds %struct.Reg, %struct.Reg* %7, i32 0, i32 0
  %ESI = bitcast %union.anon* %8 to i32*
  %9 = load i32, i32* %ESI
  %10 = zext i32 %9 to i64
  %11 = load i64, i64* %PC
  %12 = add i64 %11, 2
  store i64 %12, i64* %PC
  %13 = getelementptr inbounds %struct.State, %struct.State* %0, i64 0, i32 6, i32 1, i32 0
  %14 = bitcast %union.anon* %13 to i32*
  %15 = load i32, i32* %14, align 8
  %16 = zext i32 %15 to i64
  %17 = getelementptr inbounds %struct.State, %struct.State* %0, i64 0, i32 6, i32 7, i32 0
  %18 = bitcast %union.anon* %17 to i32*
  %19 = load i32, i32* %18, align 8
  %20 = zext i32 %19 to i64
  %21 = shl i64 %10, 32
  %22 = ashr exact i64 %21, 32
  %23 = shl i64 %20, 32
  %24 = or i64 %23, %16
  %25 = sdiv i64 %24, %22
  %26 = shl i64 %25, 32
  %27 = ashr exact i64 %26, 32
  %28 = icmp eq i64 %25, %27
  br i1 %28, label %33, label %29

; <label>:29:                                     ; preds = %block_400488
  %30 = getelementptr inbounds %struct.State, %struct.State* %0, i64 0, i32 6, i32 33, i32 0, i32 0
  %31 = load i64, i64* %30, align 8
  %32 = call %struct.Memory* @__remill_error(%struct.State* nonnull dereferenceable(3376) %0, i64 %31, %struct.Memory* %2)
  br label %_ZN12_GLOBAL__N_1L10IDIVedxeaxI2RnIjEEEP6MemoryS4_R5StateT_.exit

; <label>:33:                                     ; preds = %block_400488
  %34 = srem i64 %24, %22
  %35 = getelementptr inbounds %union.anon, %union.anon* %13, i64 0, i32 0
  %36 = and i64 %25, 4294967295
  store i64 %36, i64* %35, align 8
  %37 = getelementptr inbounds %union.anon, %union.anon* %17, i64 0, i32 0
  %38 = and i64 %34, 4294967295
  store i64 %38, i64* %37, align 8
  %39 = getelementptr inbounds %struct.State, %struct.State* %0, i64 0, i32 2, i32 1
  store i8 0, i8* %39, align 1
  %40 = getelementptr inbounds %struct.State, %struct.State* %0, i64 0, i32 2, i32 3
  store i8 0, i8* %40, align 1
  %41 = getelementptr inbounds %struct.State, %struct.State* %0, i64 0, i32 2, i32 5
  store i8 0, i8* %41, align 1
  %42 = getelementptr inbounds %struct.State, %struct.State* %0, i64 0, i32 2, i32 7
  store i8 0, i8* %42, align 1
  %43 = getelementptr inbounds %struct.State, %struct.State* %0, i64 0, i32 2, i32 9
  store i8 0, i8* %43, align 1
  %44 = getelementptr inbounds %struct.State, %struct.State* %0, i64 0, i32 2, i32 13
  store i8 0, i8* %44, align 1
  br label %_ZN12_GLOBAL__N_1L10IDIVedxeaxI2RnIjEEEP6MemoryS4_R5StateT_.exit

_ZN12_GLOBAL__N_1L10IDIVedxeaxI2RnIjEEEP6MemoryS4_R5StateT_.exit: ; preds = %29, %33
  %45 = phi %struct.Memory* [ %32, %29 ], [ %2, %33 ]
  ret %struct.Memory* %45
}

define %struct.Memory* @routine_movl_MINUS0x8__rbp____esi(%struct.State* dereferenceable(3376), i64, %struct.Memory*) {
block_400488:
  %3 = getelementptr inbounds %struct.State, %struct.State* %0, i32 0, i32 6
  %4 = getelementptr inbounds %struct.GPR, %struct.GPR* %3, i32 0, i32 33
  %5 = getelementptr inbounds %struct.Reg, %struct.Reg* %4, i32 0, i32 0
  %PC = bitcast %union.anon* %5 to i64*
  %6 = getelementptr inbounds %struct.State, %struct.State* %0, i32 0, i32 6
  %7 = getelementptr inbounds %struct.GPR, %struct.GPR* %6, i32 0, i32 9
  %8 = getelementptr inbounds %struct.Reg, %struct.Reg* %7, i32 0, i32 0
  %RSI = bitcast %union.anon* %8 to i64*
  %9 = getelementptr inbounds %struct.State, %struct.State* %0, i32 0, i32 6
  %10 = getelementptr inbounds %struct.GPR, %struct.GPR* %9, i32 0, i32 15
  %11 = getelementptr inbounds %struct.Reg, %struct.Reg* %10, i32 0, i32 0
  %RBP = bitcast %union.anon* %11 to i64*
  %12 = load i64, i64* %RBP
  %13 = sub i64 %12, 8
  %14 = load i64, i64* %PC
  %15 = add i64 %14, 3
  store i64 %15, i64* %PC
  %16 = inttoptr i64 %13 to i32*
  %17 = load i32, i32* %16
  %18 = zext i32 %17 to i64
  store i64 %18, i64* %RSI, align 8
  ret %struct.Memory* %2
}

define %struct.Memory* @routine_idivl__ecx(%struct.State* dereferenceable(3376), i64, %struct.Memory*) {
block_400488:
  %3 = getelementptr inbounds %struct.State, %struct.State* %0, i32 0, i32 6
  %4 = getelementptr inbounds %struct.GPR, %struct.GPR* %3, i32 0, i32 33
  %5 = getelementptr inbounds %struct.Reg, %struct.Reg* %4, i32 0, i32 0
  %PC = bitcast %union.anon* %5 to i64*
  %6 = getelementptr inbounds %struct.State, %struct.State* %0, i32 0, i32 6
  %7 = getelementptr inbounds %struct.GPR, %struct.GPR* %6, i32 0, i32 5
  %8 = getelementptr inbounds %struct.Reg, %struct.Reg* %7, i32 0, i32 0
  %ECX = bitcast %union.anon* %8 to i32*
  %9 = load i32, i32* %ECX
  %10 = zext i32 %9 to i64
  %11 = load i64, i64* %PC
  %12 = add i64 %11, 2
  store i64 %12, i64* %PC
  %13 = getelementptr inbounds %struct.State, %struct.State* %0, i64 0, i32 6, i32 1, i32 0
  %14 = bitcast %union.anon* %13 to i32*
  %15 = load i32, i32* %14, align 8
  %16 = zext i32 %15 to i64
  %17 = getelementptr inbounds %struct.State, %struct.State* %0, i64 0, i32 6, i32 7, i32 0
  %18 = bitcast %union.anon* %17 to i32*
  %19 = load i32, i32* %18, align 8
  %20 = zext i32 %19 to i64
  %21 = shl i64 %10, 32
  %22 = ashr exact i64 %21, 32
  %23 = shl i64 %20, 32
  %24 = or i64 %23, %16
  %25 = sdiv i64 %24, %22
  %26 = shl i64 %25, 32
  %27 = ashr exact i64 %26, 32
  %28 = icmp eq i64 %25, %27
  br i1 %28, label %33, label %29

; <label>:29:                                     ; preds = %block_400488
  %30 = getelementptr inbounds %struct.State, %struct.State* %0, i64 0, i32 6, i32 33, i32 0, i32 0
  %31 = load i64, i64* %30, align 8
  %32 = call %struct.Memory* @__remill_error(%struct.State* nonnull dereferenceable(3376) %0, i64 %31, %struct.Memory* %2)
  br label %_ZN12_GLOBAL__N_1L10IDIVedxeaxI2RnIjEEEP6MemoryS4_R5StateT_.exit

; <label>:33:                                     ; preds = %block_400488
  %34 = srem i64 %24, %22
  %35 = getelementptr inbounds %union.anon, %union.anon* %13, i64 0, i32 0
  %36 = and i64 %25, 4294967295
  store i64 %36, i64* %35, align 8
  %37 = getelementptr inbounds %union.anon, %union.anon* %17, i64 0, i32 0
  %38 = and i64 %34, 4294967295
  store i64 %38, i64* %37, align 8
  %39 = getelementptr inbounds %struct.State, %struct.State* %0, i64 0, i32 2, i32 1
  store i8 0, i8* %39, align 1
  %40 = getelementptr inbounds %struct.State, %struct.State* %0, i64 0, i32 2, i32 3
  store i8 0, i8* %40, align 1
  %41 = getelementptr inbounds %struct.State, %struct.State* %0, i64 0, i32 2, i32 5
  store i8 0, i8* %41, align 1
  %42 = getelementptr inbounds %struct.State, %struct.State* %0, i64 0, i32 2, i32 7
  store i8 0, i8* %42, align 1
  %43 = getelementptr inbounds %struct.State, %struct.State* %0, i64 0, i32 2, i32 9
  store i8 0, i8* %43, align 1
  %44 = getelementptr inbounds %struct.State, %struct.State* %0, i64 0, i32 2, i32 13
  store i8 0, i8* %44, align 1
  br label %_ZN12_GLOBAL__N_1L10IDIVedxeaxI2RnIjEEEP6MemoryS4_R5StateT_.exit

_ZN12_GLOBAL__N_1L10IDIVedxeaxI2RnIjEEEP6MemoryS4_R5StateT_.exit: ; preds = %29, %33
  %45 = phi %struct.Memory* [ %32, %29 ], [ %2, %33 ]
  ret %struct.Memory* %45
}

define %struct.Memory* @routine_idivl__edi(%struct.State* dereferenceable(3376), i64, %struct.Memory*) {
block_400488:
  %3 = getelementptr inbounds %struct.State, %struct.State* %0, i32 0, i32 6
  %4 = getelementptr inbounds %struct.GPR, %struct.GPR* %3, i32 0, i32 33
  %5 = getelementptr inbounds %struct.Reg, %struct.Reg* %4, i32 0, i32 0
  %PC = bitcast %union.anon* %5 to i64*
  %6 = getelementptr inbounds %struct.State, %struct.State* %0, i32 0, i32 6
  %7 = getelementptr inbounds %struct.GPR, %struct.GPR* %6, i32 0, i32 11
  %8 = getelementptr inbounds %struct.Reg, %struct.Reg* %7, i32 0, i32 0
  %EDI = bitcast %union.anon* %8 to i32*
  %9 = load i32, i32* %EDI
  %10 = zext i32 %9 to i64
  %11 = load i64, i64* %PC
  %12 = add i64 %11, 2
  store i64 %12, i64* %PC
  %13 = getelementptr inbounds %struct.State, %struct.State* %0, i64 0, i32 6, i32 1, i32 0
  %14 = bitcast %union.anon* %13 to i32*
  %15 = load i32, i32* %14, align 8
  %16 = zext i32 %15 to i64
  %17 = getelementptr inbounds %struct.State, %struct.State* %0, i64 0, i32 6, i32 7, i32 0
  %18 = bitcast %union.anon* %17 to i32*
  %19 = load i32, i32* %18, align 8
  %20 = zext i32 %19 to i64
  %21 = shl i64 %10, 32
  %22 = ashr exact i64 %21, 32
  %23 = shl i64 %20, 32
  %24 = or i64 %23, %16
  %25 = sdiv i64 %24, %22
  %26 = shl i64 %25, 32
  %27 = ashr exact i64 %26, 32
  %28 = icmp eq i64 %25, %27
  br i1 %28, label %33, label %29

; <label>:29:                                     ; preds = %block_400488
  %30 = getelementptr inbounds %struct.State, %struct.State* %0, i64 0, i32 6, i32 33, i32 0, i32 0
  %31 = load i64, i64* %30, align 8
  %32 = call %struct.Memory* @__remill_error(%struct.State* nonnull dereferenceable(3376) %0, i64 %31, %struct.Memory* %2)
  br label %_ZN12_GLOBAL__N_1L10IDIVedxeaxI2RnIjEEEP6MemoryS4_R5StateT_.exit

; <label>:33:                                     ; preds = %block_400488
  %34 = srem i64 %24, %22
  %35 = getelementptr inbounds %union.anon, %union.anon* %13, i64 0, i32 0
  %36 = and i64 %25, 4294967295
  store i64 %36, i64* %35, align 8
  %37 = getelementptr inbounds %union.anon, %union.anon* %17, i64 0, i32 0
  %38 = and i64 %34, 4294967295
  store i64 %38, i64* %37, align 8
  %39 = getelementptr inbounds %struct.State, %struct.State* %0, i64 0, i32 2, i32 1
  store i8 0, i8* %39, align 1
  %40 = getelementptr inbounds %struct.State, %struct.State* %0, i64 0, i32 2, i32 3
  store i8 0, i8* %40, align 1
  %41 = getelementptr inbounds %struct.State, %struct.State* %0, i64 0, i32 2, i32 5
  store i8 0, i8* %41, align 1
  %42 = getelementptr inbounds %struct.State, %struct.State* %0, i64 0, i32 2, i32 7
  store i8 0, i8* %42, align 1
  %43 = getelementptr inbounds %struct.State, %struct.State* %0, i64 0, i32 2, i32 9
  store i8 0, i8* %43, align 1
  %44 = getelementptr inbounds %struct.State, %struct.State* %0, i64 0, i32 2, i32 13
  store i8 0, i8* %44, align 1
  br label %_ZN12_GLOBAL__N_1L10IDIVedxeaxI2RnIjEEEP6MemoryS4_R5StateT_.exit

_ZN12_GLOBAL__N_1L10IDIVedxeaxI2RnIjEEEP6MemoryS4_R5StateT_.exit: ; preds = %29, %33
  %45 = phi %struct.Memory* [ %32, %29 ], [ %2, %33 ]
  ret %struct.Memory* %45
}

define %struct.Memory* @routine_movb__al___r8b(%struct.State* dereferenceable(3376), i64, %struct.Memory*) {
block_400488:
  %3 = getelementptr inbounds %struct.State, %struct.State* %0, i32 0, i32 6
  %4 = getelementptr inbounds %struct.GPR, %struct.GPR* %3, i32 0, i32 33
  %5 = getelementptr inbounds %struct.Reg, %struct.Reg* %4, i32 0, i32 0
  %PC = bitcast %union.anon* %5 to i64*
  %6 = getelementptr inbounds %struct.State, %struct.State* %0, i32 0, i32 6
  %7 = getelementptr inbounds %struct.GPR, %struct.GPR* %6, i32 0, i32 1
  %8 = getelementptr inbounds %struct.Reg, %struct.Reg* %7, i32 0, i32 0
  %9 = bitcast %union.anon* %8 to %struct.anon.2*
  %AL = getelementptr inbounds %struct.anon.2, %struct.anon.2* %9, i32 0, i32 0
  %10 = getelementptr inbounds %struct.State, %struct.State* %0, i32 0, i32 6
  %11 = getelementptr inbounds %struct.GPR, %struct.GPR* %10, i32 0, i32 17
  %12 = getelementptr inbounds %struct.Reg, %struct.Reg* %11, i32 0, i32 0
  %13 = bitcast %union.anon* %12 to %struct.anon.2*
  %R8B = getelementptr inbounds %struct.anon.2, %struct.anon.2* %13, i32 0, i32 0
  %14 = load i8, i8* %AL
  %15 = zext i8 %14 to i64
  %16 = load i64, i64* %PC
  %17 = add i64 %16, 3
  store i64 %17, i64* %PC
  store i8 %14, i8* %R8B, align 1
  ret %struct.Memory* %2
}

define %struct.Memory* @routine_movzbl__r8b___eax(%struct.State* dereferenceable(3376), i64, %struct.Memory*) {
block_400488:
  %3 = getelementptr inbounds %struct.State, %struct.State* %0, i32 0, i32 6
  %4 = getelementptr inbounds %struct.GPR, %struct.GPR* %3, i32 0, i32 33
  %5 = getelementptr inbounds %struct.Reg, %struct.Reg* %4, i32 0, i32 0
  %PC = bitcast %union.anon* %5 to i64*
  %6 = getelementptr inbounds %struct.State, %struct.State* %0, i32 0, i32 6
  %7 = getelementptr inbounds %struct.GPR, %struct.GPR* %6, i32 0, i32 17
  %8 = getelementptr inbounds %struct.Reg, %struct.Reg* %7, i32 0, i32 0
  %9 = bitcast %union.anon* %8 to %struct.anon.2*
  %R8B = getelementptr inbounds %struct.anon.2, %struct.anon.2* %9, i32 0, i32 0
  %10 = getelementptr inbounds %struct.State, %struct.State* %0, i32 0, i32 6
  %11 = getelementptr inbounds %struct.GPR, %struct.GPR* %10, i32 0, i32 1
  %12 = getelementptr inbounds %struct.Reg, %struct.Reg* %11, i32 0, i32 0
  %RAX = bitcast %union.anon* %12 to i64*
  %13 = load i8, i8* %R8B
  %14 = zext i8 %13 to i64
  %15 = load i64, i64* %PC
  %16 = add i64 %15, 4
  store i64 %16, i64* %PC
  %17 = and i64 %14, 255
  store i64 %17, i64* %RAX, align 8
  ret %struct.Memory* %2
}

define %struct.Memory* @routine_popq__rbp(%struct.State* dereferenceable(3376), i64, %struct.Memory*) {
block_400488:
  %3 = getelementptr inbounds %struct.State, %struct.State* %0, i32 0, i32 6
  %4 = getelementptr inbounds %struct.GPR, %struct.GPR* %3, i32 0, i32 33
  %5 = getelementptr inbounds %struct.Reg, %struct.Reg* %4, i32 0, i32 0
  %PC = bitcast %union.anon* %5 to i64*
  %6 = getelementptr inbounds %struct.State, %struct.State* %0, i32 0, i32 6
  %7 = getelementptr inbounds %struct.GPR, %struct.GPR* %6, i32 0, i32 15
  %8 = getelementptr inbounds %struct.Reg, %struct.Reg* %7, i32 0, i32 0
  %RBP = bitcast %union.anon* %8 to i64*
  %9 = load i64, i64* %PC
  %10 = add i64 %9, 1
  store i64 %10, i64* %PC
  %11 = getelementptr inbounds %struct.State, %struct.State* %0, i64 0, i32 6, i32 13, i32 0, i32 0
  %12 = load i64, i64* %11, align 8
  %13 = add i64 %12, 8
  %14 = inttoptr i64 %12 to i64*
  %15 = load i64, i64* %14
  store i64 %15, i64* %RBP, align 8
  store i64 %13, i64* %11, align 8
  ret %struct.Memory* %2
}

define %struct.Memory* @routine_retq(%struct.State* dereferenceable(3376), i64, %struct.Memory*) {
block_400488:
  %3 = getelementptr inbounds %struct.State, %struct.State* %0, i32 0, i32 6
  %4 = getelementptr inbounds %struct.GPR, %struct.GPR* %3, i32 0, i32 33
  %5 = getelementptr inbounds %struct.Reg, %struct.Reg* %4, i32 0, i32 0
  %PC = bitcast %union.anon* %5 to i64*
  %6 = load i64, i64* %PC
  %7 = add i64 %6, 1
  store i64 %7, i64* %PC
  %8 = getelementptr inbounds %struct.State, %struct.State* %0, i64 0, i32 6, i32 33, i32 0, i32 0
  %9 = getelementptr inbounds %struct.State, %struct.State* %0, i64 0, i32 6, i32 13, i32 0, i32 0
  %10 = load i64, i64* %9, align 8
  %11 = inttoptr i64 %10 to i64*
  %12 = load i64, i64* %11
  store i64 %12, i64* %8, align 8
  %13 = add i64 %10, 8
  store i64 %13, i64* %9, align 8
  ret %struct.Memory* %2
}

attributes #0 = { nounwind readnone }
attributes #1 = { alwaysinline }
