; ModuleID = 'mcsema/test.proposed.ll'
source_filename = "llvm-link"
target datalayout = "e-m:e-i64:64-f80:128-n8:16:32:64-S128"
target triple = "x86_64-pc-linux-gnu-elf"

%union.anon = type { i64 }
%seg_400388__init_type = type <{ [23 x i8] }>
%seg_4003a0__text_type = type <{ [354 x i8] }>
%seg_400504__fini_type = type <{ [9 x i8] }>
%seg_400510__rodata_type = type <{ [4 x i8] }>
%seg_400514__eh_frame_hdr_type = type <{ [52 x i8] }>
%seg_400548__eh_frame_type = type <{ [208 x i8] }>
%seg_601018__data_type = type <{ [16 x i8] }>
%__bss_start_type = type <{ [8 x i8] }>
%struct.State = type { %struct.ArchState, [32 x %union.VectorReg], %struct.ArithFlags, %union.anon, %struct.Segments, %struct.AddressSpace, %struct.GPR, %struct.X87Stack, %struct.MMX, %struct.FPUStatusFlags, %union.anon, %union.FPU, %struct.SegmentCaches }
%struct.ArchState = type { i32, i32, %union.anon }
%union.VectorReg = type { %union.vec512_t }
%union.vec512_t = type { %struct.uint64v8_t }
%struct.uint64v8_t = type { [8 x i64] }
%struct.ArithFlags = type { i8, i8, i8, i8, i8, i8, i8, i8, i8, i8, i8, i8, i8, i8, i8, i8 }
%struct.Segments = type { i16, %union.SegmentSelector, i16, %union.SegmentSelector, i16, %union.SegmentSelector, i16, %union.SegmentSelector, i16, %union.SegmentSelector, i16, %union.SegmentSelector }
%union.SegmentSelector = type { i16 }
%struct.AddressSpace = type { i64, %struct.Reg, i64, %struct.Reg, i64, %struct.Reg, i64, %struct.Reg, i64, %struct.Reg, i64, %struct.Reg }
%struct.Reg = type { %union.anon }
%struct.GPR = type { i64, %struct.Reg, i64, %struct.Reg, i64, %struct.Reg, i64, %struct.Reg, i64, %struct.Reg, i64, %struct.Reg, i64, %struct.Reg, i64, %struct.Reg, i64, %struct.Reg, i64, %struct.Reg, i64, %struct.Reg, i64, %struct.Reg, i64, %struct.Reg, i64, %struct.Reg, i64, %struct.Reg, i64, %struct.Reg, i64, %struct.Reg }
%struct.X87Stack = type { [8 x %struct.anon.3] }
%struct.anon.3 = type { i64, double }
%struct.MMX = type { [8 x %struct.anon.4] }
%struct.anon.4 = type { i64, %union.vec64_t }
%union.vec64_t = type { %struct.uint64v1_t }
%struct.uint64v1_t = type { [1 x i64] }
%struct.FPUStatusFlags = type { i8, i8, i8, i8, i8, i8, i8, i8, i8, i8, i8, i8, i8, i8, i8, i8, i8, i8, i8, i8, [4 x i8] }
%union.FPU = type { %struct.anon.13 }
%struct.anon.13 = type { %struct.FpuFXSAVE, [96 x i8] }
%struct.FpuFXSAVE = type { %union.SegmentSelector, %union.SegmentSelector, %union.FPUAbridgedTagWord, i8, i16, i32, %union.SegmentSelector, i16, i32, %union.SegmentSelector, i16, %union.FPUControlStatus, %union.FPUControlStatus, [8 x %struct.FPUStackElem], [16 x %union.vec128_t] }
%union.FPUAbridgedTagWord = type { i8 }
%union.FPUControlStatus = type { i32 }
%struct.FPUStackElem = type { %union.anon.11, [6 x i8] }
%union.anon.11 = type { %struct.float80_t }
%struct.float80_t = type { [10 x i8] }
%union.vec128_t = type { %struct.uint128v1_t }
%struct.uint128v1_t = type { [1 x i128] }
%struct.SegmentCaches = type { %struct.SegmentShadow, %struct.SegmentShadow, %struct.SegmentShadow, %struct.SegmentShadow, %struct.SegmentShadow, %struct.SegmentShadow }
%struct.SegmentShadow = type { %union.anon, i32, i32 }
%struct.Memory = type opaque
%struct.anon.2 = type { i8, i8 }

@switch.table = private unnamed_addr constant [4 x i32] [i32 2048, i32 3072, i32 0, i32 1024]
@DR0 = external global i64, align 8
@DR1 = external global i64, align 8
@DR2 = external global i64, align 8
@DR3 = external global i64, align 8
@DR4 = external global i64, align 8
@DR5 = external global i64, align 8
@DR6 = external global i64, align 8
@DR7 = external global i64, align 8
@gCR0 = external global %union.anon, align 1
@gCR1 = external global %union.anon, align 1
@gCR2 = external global %union.anon, align 1
@gCR3 = external global %union.anon, align 1
@gCR4 = external global %union.anon, align 1
@gCR8 = external global %union.anon, align 1
@seg_400388__init = internal constant %seg_400388__init_type <{ [23 x i8] c"H\83\EC\08H\8B\05e\0C \00H\85\C0t\02\FF\D0H\83\C4\08\C3" }>
@seg_4003a0__text = internal constant %seg_4003a0__text_type <{ [354 x i8] c"1\EDI\89\D1^H\89\E2H\83\E4\F0PTI\C7\C0\00\05@\00H\C7\C1\90\04@\00H\C7\C7\88\04@\00\FF\15&\0C \00\F4\0F\1FD\00\00\F3\C3f.\0F\1F\84\00\00\00\00\00\0F\1F@\00U\B8(\10`\00H=(\10`\00H\89\E5t\17\B8\00\00\00\00H\85\C0t\0D]\BF(\10`\00\FF\E0\0F\1FD\00\00]\C3f\0F\1FD\00\00\BE(\10`\00UH\81\EE(\10`\00H\89\E5H\C1\FE\03H\89\F0H\C1\E8?H\01\C6H\D1\FEt\15\B8\00\00\00\00H\85\C0t\0B]\BF(\10`\00\FF\E0\0F\1F\00]\C3f\0F\1FD\00\00\80=\D1\0B \00\00u\17UH\89\E5\E8~\FF\FF\FF\C6\05\BF\0B \00\01]\C3\0F\1FD\00\00\F3\C3\0F\1F@\00f.\0F\1F\84\00\00\00\00\00UH\89\E5]\EB\89\90U\C3f\0F\1FD\00\00AWAVI\89\D7AUATL\8D%\9E\09 \00UH\8D-\9E\09 \00SA\89\FDI\89\F6L)\E5H\83\EC\08H\C1\FD\03\E8\C7\FE\FF\FFH\85\EDt 1\DB\0F\1F\84\00\00\00\00\00L\89\FAL\89\F6D\89\EFA\FF\14\DCH\83\C3\01H9\DDu\EAH\83\C4\08[]A\5CA]A^A_\C3\90f.\0F\1F\84\00\00\00\00\00\F3\C3" }>
@seg_400504__fini = internal constant %seg_400504__fini_type <{ [9 x i8] c"H\83\EC\08H\83\C4\08\C3" }>
@seg_400510__rodata = internal constant %seg_400510__rodata_type <{ [4 x i8] c"\01\00\02\00" }>
@seg_400514__eh_frame_hdr = internal constant %seg_400514__eh_frame_hdr_type <{ [52 x i8] c"\01\1B\03;0\00\00\00\05\00\00\00\8C\FE\FF\FFL\00\00\00\BC\FE\FF\FFx\00\00\00t\FF\FF\FF\8C\00\00\00|\FF\FF\FF\A4\00\00\00\EC\FF\FF\FF\EC\00\00\00" }>
@seg_400548__eh_frame = internal constant %seg_400548__eh_frame_type <{ [208 x i8] c"\14\00\00\00\00\00\00\00\01zR\00\01x\10\01\1B\0C\07\08\90\01\07\10\10\00\00\00\1C\00\00\008\FE\FF\FF+\00\00\00\00\00\00\00\14\00\00\00\00\00\00\00\01zR\00\01x\10\01\1B\0C\07\08\90\01\00\00\10\00\00\00\1C\00\00\00<\FE\FF\FF\02\00\00\00\00\00\00\00\14\00\00\000\00\00\00\E0\FE\FF\FF\02\00\00\00\00\00\00\00\00\00\00\00D\00\00\00H\00\00\00\D0\FE\FF\FFe\00\00\00\00B\0E\10\8F\02B\0E\18\8E\03E\0E \8D\04B\0E(\8C\05H\0E0\86\06H\0E8\83\07M\0E@r\0E8A\0E0A\0E(B\0E B\0E\18B\0E\10B\0E\08\00\10\00\00\00\90\00\00\00\F8\FE\FF\FF\02\00\00\00\00\00\00\00\00\00\00\00" }>
@seg_601018__data = internal global %seg_601018__data_type zeroinitializer
@__bss_start = global %__bss_start_type zeroinitializer
@0 = internal global i1 false

; Function Attrs: nounwind readnone
declare i32 @llvm.ctpop.i32(i32) #0

declare %struct.Memory* @__remill_error(%struct.State* dereferenceable(3376), i64, %struct.Memory*)

declare %struct.Memory* @sub_400e80._Z11start_timerv(%struct.State* dereferenceable(3376), i64, %struct.Memory*)

declare %struct.Memory* @sub_416860._ZN32custom_multiple_constant_divide2IhE8do_shiftEh(%struct.State* dereferenceable(3376), i64, %struct.Memory*)

declare %struct.Memory* @sub_416880._Z17check_shifted_sumIh32custom_multiple_constant_divide2IhEEvT_(%struct.State* dereferenceable(3376), i64, %struct.Memory*)

declare %struct.Memory* @sub_400ea0._Z5timerv(%struct.State* dereferenceable(3376), i64, %struct.Memory*)

declare %struct.Memory* @sub_400840._Z13record_resultdPKc(%struct.State* dereferenceable(3376), i64, %struct.Memory*)

; Function Attrs: alwaysinline
define %struct.Memory* @_Z13test_constantIh32custom_multiple_constant_divide2IhEEvPT_iPKc(%struct.State* noalias, i64, %struct.Memory* noalias) #1 {
entry:
  %3 = getelementptr inbounds %struct.State, %struct.State* %0, i64 0, i32 6, i32 33, i32 0, i32 0
  store i64 %1, i64* %3, align 8
  %BRANCH_TAKEN = alloca i8, align 1
  store i8 0, i8* %BRANCH_TAKEN, align 1
  %MEMORY = alloca %struct.Memory*, align 8
  store %struct.Memory* %2, %struct.Memory** %MEMORY, align 8
  %loadMem_404ee0 = load %struct.Memory*, %struct.Memory** %MEMORY
  %4 = getelementptr inbounds %struct.State, %struct.State* %0, i32 0, i32 6
  %5 = getelementptr inbounds %struct.GPR, %struct.GPR* %4, i32 0, i32 33
  %6 = getelementptr inbounds %struct.Reg, %struct.Reg* %5, i32 0, i32 0
  %PC.i = bitcast %union.anon* %6 to i64*
  %7 = getelementptr inbounds %struct.State, %struct.State* %0, i32 0, i32 6
  %8 = getelementptr inbounds %struct.GPR, %struct.GPR* %7, i32 0, i32 15
  %9 = getelementptr inbounds %struct.Reg, %struct.Reg* %8, i32 0, i32 0
  %RBP.i = bitcast %union.anon* %9 to i64*
  %10 = load i64, i64* %RBP.i
  %11 = load i64, i64* %PC.i
  %12 = add i64 %11, 1
  store i64 %12, i64* %PC.i
  %13 = getelementptr inbounds %struct.State, %struct.State* %0, i64 0, i32 6, i32 13, i32 0, i32 0
  %14 = load i64, i64* %13, align 8
  %15 = add i64 %14, -8
  %16 = inttoptr i64 %15 to i64*
  store i64 %10, i64* %16
  store i64 %15, i64* %13, align 8
  store %struct.Memory* %loadMem_404ee0, %struct.Memory** %MEMORY
  %loadMem_404ee1 = load %struct.Memory*, %struct.Memory** %MEMORY
  %17 = getelementptr inbounds %struct.State, %struct.State* %0, i32 0, i32 6
  %18 = getelementptr inbounds %struct.GPR, %struct.GPR* %17, i32 0, i32 33
  %19 = getelementptr inbounds %struct.Reg, %struct.Reg* %18, i32 0, i32 0
  %PC.i80 = bitcast %union.anon* %19 to i64*
  %20 = getelementptr inbounds %struct.State, %struct.State* %0, i32 0, i32 6
  %21 = getelementptr inbounds %struct.GPR, %struct.GPR* %20, i32 0, i32 13
  %22 = getelementptr inbounds %struct.Reg, %struct.Reg* %21, i32 0, i32 0
  %RSP.i81 = bitcast %union.anon* %22 to i64*
  %23 = getelementptr inbounds %struct.State, %struct.State* %0, i32 0, i32 6
  %24 = getelementptr inbounds %struct.GPR, %struct.GPR* %23, i32 0, i32 15
  %25 = getelementptr inbounds %struct.Reg, %struct.Reg* %24, i32 0, i32 0
  %RBP.i82 = bitcast %union.anon* %25 to i64*
  %26 = load i64, i64* %RSP.i81
  %27 = load i64, i64* %PC.i80
  %28 = add i64 %27, 3
  store i64 %28, i64* %PC.i80
  store i64 %26, i64* %RBP.i82, align 8
  store %struct.Memory* %loadMem_404ee1, %struct.Memory** %MEMORY
  %loadMem_404ee4 = load %struct.Memory*, %struct.Memory** %MEMORY
  %29 = getelementptr inbounds %struct.State, %struct.State* %0, i32 0, i32 6
  %30 = getelementptr inbounds %struct.GPR, %struct.GPR* %29, i32 0, i32 33
  %31 = getelementptr inbounds %struct.Reg, %struct.Reg* %30, i32 0, i32 0
  %PC.i78 = bitcast %union.anon* %31 to i64*
  %32 = getelementptr inbounds %struct.State, %struct.State* %0, i32 0, i32 6
  %33 = getelementptr inbounds %struct.GPR, %struct.GPR* %32, i32 0, i32 13
  %34 = getelementptr inbounds %struct.Reg, %struct.Reg* %33, i32 0, i32 0
  %RSP.i79 = bitcast %union.anon* %34 to i64*
  %35 = load i64, i64* %RSP.i79
  %36 = load i64, i64* %PC.i78
  %37 = add i64 %36, 4
  store i64 %37, i64* %PC.i78
  %38 = sub i64 %35, 48
  store i64 %38, i64* %RSP.i79, align 8
  %39 = icmp ult i64 %35, 48
  %40 = zext i1 %39 to i8
  %41 = getelementptr inbounds %struct.State, %struct.State* %0, i64 0, i32 2, i32 1
  store i8 %40, i8* %41, align 1
  %42 = trunc i64 %38 to i32
  %43 = and i32 %42, 255
  %44 = call i32 @llvm.ctpop.i32(i32 %43)
  %45 = trunc i32 %44 to i8
  %46 = and i8 %45, 1
  %47 = xor i8 %46, 1
  %48 = getelementptr inbounds %struct.State, %struct.State* %0, i64 0, i32 2, i32 3
  store i8 %47, i8* %48, align 1
  %49 = xor i64 48, %35
  %50 = xor i64 %49, %38
  %51 = lshr i64 %50, 4
  %52 = trunc i64 %51 to i8
  %53 = and i8 %52, 1
  %54 = getelementptr inbounds %struct.State, %struct.State* %0, i64 0, i32 2, i32 5
  store i8 %53, i8* %54, align 1
  %55 = icmp eq i64 %38, 0
  %56 = zext i1 %55 to i8
  %57 = getelementptr inbounds %struct.State, %struct.State* %0, i64 0, i32 2, i32 7
  store i8 %56, i8* %57, align 1
  %58 = lshr i64 %38, 63
  %59 = trunc i64 %58 to i8
  %60 = getelementptr inbounds %struct.State, %struct.State* %0, i64 0, i32 2, i32 9
  store i8 %59, i8* %60, align 1
  %61 = lshr i64 %35, 63
  %62 = xor i64 %58, %61
  %63 = add i64 %62, %61
  %64 = icmp eq i64 %63, 2
  %65 = zext i1 %64 to i8
  %66 = getelementptr inbounds %struct.State, %struct.State* %0, i64 0, i32 2, i32 13
  store i8 %65, i8* %66, align 1
  store %struct.Memory* %loadMem_404ee4, %struct.Memory** %MEMORY
  %loadMem_404ee8 = load %struct.Memory*, %struct.Memory** %MEMORY
  %67 = getelementptr inbounds %struct.State, %struct.State* %0, i32 0, i32 6
  %68 = getelementptr inbounds %struct.GPR, %struct.GPR* %67, i32 0, i32 33
  %69 = getelementptr inbounds %struct.Reg, %struct.Reg* %68, i32 0, i32 0
  %PC.i75 = bitcast %union.anon* %69 to i64*
  %70 = getelementptr inbounds %struct.State, %struct.State* %0, i32 0, i32 6
  %71 = getelementptr inbounds %struct.GPR, %struct.GPR* %70, i32 0, i32 11
  %72 = getelementptr inbounds %struct.Reg, %struct.Reg* %71, i32 0, i32 0
  %RDI.i76 = bitcast %union.anon* %72 to i64*
  %73 = getelementptr inbounds %struct.State, %struct.State* %0, i32 0, i32 6
  %74 = getelementptr inbounds %struct.GPR, %struct.GPR* %73, i32 0, i32 15
  %75 = getelementptr inbounds %struct.Reg, %struct.Reg* %74, i32 0, i32 0
  %RBP.i77 = bitcast %union.anon* %75 to i64*
  %76 = load i64, i64* %RBP.i77
  %77 = sub i64 %76, 8
  %78 = load i64, i64* %RDI.i76
  %79 = load i64, i64* %PC.i75
  %80 = add i64 %79, 4
  store i64 %80, i64* %PC.i75
  %81 = inttoptr i64 %77 to i64*
  store i64 %78, i64* %81
  store %struct.Memory* %loadMem_404ee8, %struct.Memory** %MEMORY
  %loadMem_404eec = load %struct.Memory*, %struct.Memory** %MEMORY
  %82 = getelementptr inbounds %struct.State, %struct.State* %0, i32 0, i32 6
  %83 = getelementptr inbounds %struct.GPR, %struct.GPR* %82, i32 0, i32 33
  %84 = getelementptr inbounds %struct.Reg, %struct.Reg* %83, i32 0, i32 0
  %PC.i73 = bitcast %union.anon* %84 to i64*
  %85 = getelementptr inbounds %struct.State, %struct.State* %0, i32 0, i32 6
  %86 = getelementptr inbounds %struct.GPR, %struct.GPR* %85, i32 0, i32 9
  %87 = getelementptr inbounds %struct.Reg, %struct.Reg* %86, i32 0, i32 0
  %ESI.i = bitcast %union.anon* %87 to i32*
  %88 = getelementptr inbounds %struct.State, %struct.State* %0, i32 0, i32 6
  %89 = getelementptr inbounds %struct.GPR, %struct.GPR* %88, i32 0, i32 15
  %90 = getelementptr inbounds %struct.Reg, %struct.Reg* %89, i32 0, i32 0
  %RBP.i74 = bitcast %union.anon* %90 to i64*
  %91 = load i64, i64* %RBP.i74
  %92 = sub i64 %91, 12
  %93 = load i32, i32* %ESI.i
  %94 = zext i32 %93 to i64
  %95 = load i64, i64* %PC.i73
  %96 = add i64 %95, 3
  store i64 %96, i64* %PC.i73
  %97 = inttoptr i64 %92 to i32*
  store i32 %93, i32* %97
  store %struct.Memory* %loadMem_404eec, %struct.Memory** %MEMORY
  %loadMem_404eef = load %struct.Memory*, %struct.Memory** %MEMORY
  %98 = getelementptr inbounds %struct.State, %struct.State* %0, i32 0, i32 6
  %99 = getelementptr inbounds %struct.GPR, %struct.GPR* %98, i32 0, i32 33
  %100 = getelementptr inbounds %struct.Reg, %struct.Reg* %99, i32 0, i32 0
  %PC.i70 = bitcast %union.anon* %100 to i64*
  %101 = getelementptr inbounds %struct.State, %struct.State* %0, i32 0, i32 6
  %102 = getelementptr inbounds %struct.GPR, %struct.GPR* %101, i32 0, i32 7
  %103 = getelementptr inbounds %struct.Reg, %struct.Reg* %102, i32 0, i32 0
  %RDX.i71 = bitcast %union.anon* %103 to i64*
  %104 = getelementptr inbounds %struct.State, %struct.State* %0, i32 0, i32 6
  %105 = getelementptr inbounds %struct.GPR, %struct.GPR* %104, i32 0, i32 15
  %106 = getelementptr inbounds %struct.Reg, %struct.Reg* %105, i32 0, i32 0
  %RBP.i72 = bitcast %union.anon* %106 to i64*
  %107 = load i64, i64* %RBP.i72
  %108 = sub i64 %107, 24
  %109 = load i64, i64* %RDX.i71
  %110 = load i64, i64* %PC.i70
  %111 = add i64 %110, 4
  store i64 %111, i64* %PC.i70
  %112 = inttoptr i64 %108 to i64*
  store i64 %109, i64* %112
  store %struct.Memory* %loadMem_404eef, %struct.Memory** %MEMORY
  %loadMem1_404ef3 = load %struct.Memory*, %struct.Memory** %MEMORY
  %113 = getelementptr inbounds %struct.State, %struct.State* %0, i32 0, i32 6
  %114 = getelementptr inbounds %struct.GPR, %struct.GPR* %113, i32 0, i32 33
  %115 = getelementptr inbounds %struct.Reg, %struct.Reg* %114, i32 0, i32 0
  %PC.i69 = bitcast %union.anon* %115 to i64*
  %116 = load i64, i64* %PC.i69
  %117 = add i64 %116, -16499
  %118 = load i64, i64* %PC.i69
  %119 = add i64 %118, 5
  %120 = load i64, i64* %PC.i69
  %121 = add i64 %120, 5
  store i64 %121, i64* %PC.i69
  %122 = getelementptr inbounds %struct.State, %struct.State* %0, i64 0, i32 6, i32 13, i32 0, i32 0
  %123 = load i64, i64* %122, align 8
  %124 = add i64 %123, -8
  %125 = inttoptr i64 %124 to i64*
  store i64 %119, i64* %125
  store i64 %124, i64* %122, align 8
  %126 = getelementptr inbounds %struct.State, %struct.State* %0, i64 0, i32 6, i32 33, i32 0, i32 0
  store i64 %117, i64* %126, align 8
  store %struct.Memory* %loadMem1_404ef3, %struct.Memory** %MEMORY
  %loadMem2_404ef3 = load %struct.Memory*, %struct.Memory** %MEMORY
  %loadPC_404ef3 = load i64, i64* %3
  %call2_404ef3 = call %struct.Memory* @sub_400e80._Z11start_timerv(%struct.State* %0, i64 %loadPC_404ef3, %struct.Memory* %loadMem2_404ef3)
  store %struct.Memory* %call2_404ef3, %struct.Memory** %MEMORY
  %loadMem_404ef8 = load %struct.Memory*, %struct.Memory** %MEMORY
  %127 = getelementptr inbounds %struct.State, %struct.State* %0, i32 0, i32 6
  %128 = getelementptr inbounds %struct.GPR, %struct.GPR* %127, i32 0, i32 33
  %129 = getelementptr inbounds %struct.Reg, %struct.Reg* %128, i32 0, i32 0
  %PC.i67 = bitcast %union.anon* %129 to i64*
  %130 = getelementptr inbounds %struct.State, %struct.State* %0, i32 0, i32 6
  %131 = getelementptr inbounds %struct.GPR, %struct.GPR* %130, i32 0, i32 15
  %132 = getelementptr inbounds %struct.Reg, %struct.Reg* %131, i32 0, i32 0
  %RBP.i68 = bitcast %union.anon* %132 to i64*
  %133 = load i64, i64* %RBP.i68
  %134 = sub i64 %133, 28
  %135 = load i64, i64* %PC.i67
  %136 = add i64 %135, 7
  store i64 %136, i64* %PC.i67
  %137 = inttoptr i64 %134 to i32*
  store i32 0, i32* %137
  store %struct.Memory* %loadMem_404ef8, %struct.Memory** %MEMORY
  br label %block_.L_404eff

block_.L_404eff:                                  ; preds = %block_.L_404f53, %entry
  %loadMem_404eff = load %struct.Memory*, %struct.Memory** %MEMORY
  %138 = getelementptr inbounds %struct.State, %struct.State* %0, i32 0, i32 6
  %139 = getelementptr inbounds %struct.GPR, %struct.GPR* %138, i32 0, i32 33
  %140 = getelementptr inbounds %struct.Reg, %struct.Reg* %139, i32 0, i32 0
  %PC.i64 = bitcast %union.anon* %140 to i64*
  %141 = getelementptr inbounds %struct.State, %struct.State* %0, i32 0, i32 6
  %142 = getelementptr inbounds %struct.GPR, %struct.GPR* %141, i32 0, i32 1
  %143 = getelementptr inbounds %struct.Reg, %struct.Reg* %142, i32 0, i32 0
  %RAX.i65 = bitcast %union.anon* %143 to i64*
  %144 = getelementptr inbounds %struct.State, %struct.State* %0, i32 0, i32 6
  %145 = getelementptr inbounds %struct.GPR, %struct.GPR* %144, i32 0, i32 15
  %146 = getelementptr inbounds %struct.Reg, %struct.Reg* %145, i32 0, i32 0
  %RBP.i66 = bitcast %union.anon* %146 to i64*
  %147 = load i64, i64* %RBP.i66
  %148 = sub i64 %147, 28
  %149 = load i64, i64* %PC.i64
  %150 = add i64 %149, 3
  store i64 %150, i64* %PC.i64
  %151 = inttoptr i64 %148 to i32*
  %152 = load i32, i32* %151
  %153 = zext i32 %152 to i64
  store i64 %153, i64* %RAX.i65, align 8
  store %struct.Memory* %loadMem_404eff, %struct.Memory** %MEMORY
  %loadMem_404f02 = load %struct.Memory*, %struct.Memory** %MEMORY
  %154 = getelementptr inbounds %struct.State, %struct.State* %0, i32 0, i32 6
  %155 = getelementptr inbounds %struct.GPR, %struct.GPR* %154, i32 0, i32 33
  %156 = getelementptr inbounds %struct.Reg, %struct.Reg* %155, i32 0, i32 0
  %PC.i62 = bitcast %union.anon* %156 to i64*
  %157 = getelementptr inbounds %struct.State, %struct.State* %0, i32 0, i32 6
  %158 = getelementptr inbounds %struct.GPR, %struct.GPR* %157, i32 0, i32 1
  %159 = getelementptr inbounds %struct.Reg, %struct.Reg* %158, i32 0, i32 0
  %EAX.i63 = bitcast %union.anon* %159 to i32*
  %160 = load i32, i32* %EAX.i63
  %161 = zext i32 %160 to i64
  %162 = load i64, i64* %PC.i62
  %163 = add i64 %162, 7
  store i64 %163, i64* %PC.i62
  %164 = load i32, i32* inttoptr (i64 6430912 to i32*)
  %165 = sub i32 %160, %164
  %166 = icmp ult i32 %160, %164
  %167 = zext i1 %166 to i8
  %168 = getelementptr inbounds %struct.State, %struct.State* %0, i64 0, i32 2, i32 1
  store i8 %167, i8* %168, align 1
  %169 = and i32 %165, 255
  %170 = call i32 @llvm.ctpop.i32(i32 %169)
  %171 = trunc i32 %170 to i8
  %172 = and i8 %171, 1
  %173 = xor i8 %172, 1
  %174 = getelementptr inbounds %struct.State, %struct.State* %0, i64 0, i32 2, i32 3
  store i8 %173, i8* %174, align 1
  %175 = xor i32 %164, %160
  %176 = xor i32 %175, %165
  %177 = lshr i32 %176, 4
  %178 = trunc i32 %177 to i8
  %179 = and i8 %178, 1
  %180 = getelementptr inbounds %struct.State, %struct.State* %0, i64 0, i32 2, i32 5
  store i8 %179, i8* %180, align 1
  %181 = icmp eq i32 %165, 0
  %182 = zext i1 %181 to i8
  %183 = getelementptr inbounds %struct.State, %struct.State* %0, i64 0, i32 2, i32 7
  store i8 %182, i8* %183, align 1
  %184 = lshr i32 %165, 31
  %185 = trunc i32 %184 to i8
  %186 = getelementptr inbounds %struct.State, %struct.State* %0, i64 0, i32 2, i32 9
  store i8 %185, i8* %186, align 1
  %187 = lshr i32 %160, 31
  %188 = lshr i32 %164, 31
  %189 = xor i32 %188, %187
  %190 = xor i32 %184, %187
  %191 = add i32 %190, %189
  %192 = icmp eq i32 %191, 2
  %193 = zext i1 %192 to i8
  %194 = getelementptr inbounds %struct.State, %struct.State* %0, i64 0, i32 2, i32 13
  store i8 %193, i8* %194, align 1
  store %struct.Memory* %loadMem_404f02, %struct.Memory** %MEMORY
  %loadMem_404f09 = load %struct.Memory*, %struct.Memory** %MEMORY
  %195 = getelementptr inbounds %struct.State, %struct.State* %0, i32 0, i32 6
  %196 = getelementptr inbounds %struct.GPR, %struct.GPR* %195, i32 0, i32 33
  %197 = getelementptr inbounds %struct.Reg, %struct.Reg* %196, i32 0, i32 0
  %PC.i61 = bitcast %union.anon* %197 to i64*
  %198 = load i64, i64* %PC.i61
  %199 = add i64 %198, 97
  %200 = load i64, i64* %PC.i61
  %201 = add i64 %200, 6
  %202 = load i64, i64* %PC.i61
  %203 = add i64 %202, 6
  store i64 %203, i64* %PC.i61
  %204 = getelementptr inbounds %struct.State, %struct.State* %0, i64 0, i32 2, i32 9
  %205 = load i8, i8* %204, align 1
  %206 = icmp ne i8 %205, 0
  %207 = getelementptr inbounds %struct.State, %struct.State* %0, i64 0, i32 2, i32 13
  %208 = load i8, i8* %207, align 1
  %209 = icmp ne i8 %208, 0
  %210 = xor i1 %206, %209
  %211 = xor i1 %210, true
  %212 = zext i1 %211 to i8
  store i8 %212, i8* %BRANCH_TAKEN, align 1
  %213 = getelementptr inbounds %struct.State, %struct.State* %0, i64 0, i32 6, i32 33, i32 0, i32 0
  %214 = select i1 %210, i64 %201, i64 %199
  store i64 %214, i64* %213, align 8
  store %struct.Memory* %loadMem_404f09, %struct.Memory** %MEMORY
  %loadBr_404f09 = load i8, i8* %BRANCH_TAKEN
  %cmpBr_404f09 = icmp eq i8 %loadBr_404f09, 1
  br i1 %cmpBr_404f09, label %block_.L_404f6a, label %block_404f0f

block_404f0f:                                     ; preds = %block_.L_404eff
  %loadMem_404f0f = load %struct.Memory*, %struct.Memory** %MEMORY
  %215 = getelementptr inbounds %struct.State, %struct.State* %0, i32 0, i32 6
  %216 = getelementptr inbounds %struct.GPR, %struct.GPR* %215, i32 0, i32 33
  %217 = getelementptr inbounds %struct.Reg, %struct.Reg* %216, i32 0, i32 0
  %PC.i59 = bitcast %union.anon* %217 to i64*
  %218 = getelementptr inbounds %struct.State, %struct.State* %0, i32 0, i32 6
  %219 = getelementptr inbounds %struct.GPR, %struct.GPR* %218, i32 0, i32 15
  %220 = getelementptr inbounds %struct.Reg, %struct.Reg* %219, i32 0, i32 0
  %RBP.i60 = bitcast %union.anon* %220 to i64*
  %221 = load i64, i64* %RBP.i60
  %222 = sub i64 %221, 29
  %223 = load i64, i64* %PC.i59
  %224 = add i64 %223, 4
  store i64 %224, i64* %PC.i59
  %225 = inttoptr i64 %222 to i8*
  store i8 0, i8* %225
  store %struct.Memory* %loadMem_404f0f, %struct.Memory** %MEMORY
  %loadMem_404f13 = load %struct.Memory*, %struct.Memory** %MEMORY
  %226 = getelementptr inbounds %struct.State, %struct.State* %0, i32 0, i32 6
  %227 = getelementptr inbounds %struct.GPR, %struct.GPR* %226, i32 0, i32 33
  %228 = getelementptr inbounds %struct.Reg, %struct.Reg* %227, i32 0, i32 0
  %PC.i57 = bitcast %union.anon* %228 to i64*
  %229 = getelementptr inbounds %struct.State, %struct.State* %0, i32 0, i32 6
  %230 = getelementptr inbounds %struct.GPR, %struct.GPR* %229, i32 0, i32 15
  %231 = getelementptr inbounds %struct.Reg, %struct.Reg* %230, i32 0, i32 0
  %RBP.i58 = bitcast %union.anon* %231 to i64*
  %232 = load i64, i64* %RBP.i58
  %233 = sub i64 %232, 36
  %234 = load i64, i64* %PC.i57
  %235 = add i64 %234, 7
  store i64 %235, i64* %PC.i57
  %236 = inttoptr i64 %233 to i32*
  store i32 0, i32* %236
  store %struct.Memory* %loadMem_404f13, %struct.Memory** %MEMORY
  br label %block_.L_404f1a

block_.L_404f1a:                                  ; preds = %block_404f26, %block_404f0f
  %loadMem_404f1a = load %struct.Memory*, %struct.Memory** %MEMORY
  %237 = getelementptr inbounds %struct.State, %struct.State* %0, i32 0, i32 6
  %238 = getelementptr inbounds %struct.GPR, %struct.GPR* %237, i32 0, i32 33
  %239 = getelementptr inbounds %struct.Reg, %struct.Reg* %238, i32 0, i32 0
  %PC.i54 = bitcast %union.anon* %239 to i64*
  %240 = getelementptr inbounds %struct.State, %struct.State* %0, i32 0, i32 6
  %241 = getelementptr inbounds %struct.GPR, %struct.GPR* %240, i32 0, i32 1
  %242 = getelementptr inbounds %struct.Reg, %struct.Reg* %241, i32 0, i32 0
  %RAX.i55 = bitcast %union.anon* %242 to i64*
  %243 = getelementptr inbounds %struct.State, %struct.State* %0, i32 0, i32 6
  %244 = getelementptr inbounds %struct.GPR, %struct.GPR* %243, i32 0, i32 15
  %245 = getelementptr inbounds %struct.Reg, %struct.Reg* %244, i32 0, i32 0
  %RBP.i56 = bitcast %union.anon* %245 to i64*
  %246 = load i64, i64* %RBP.i56
  %247 = sub i64 %246, 36
  %248 = load i64, i64* %PC.i54
  %249 = add i64 %248, 3
  store i64 %249, i64* %PC.i54
  %250 = inttoptr i64 %247 to i32*
  %251 = load i32, i32* %250
  %252 = zext i32 %251 to i64
  store i64 %252, i64* %RAX.i55, align 8
  store %struct.Memory* %loadMem_404f1a, %struct.Memory** %MEMORY
  %loadMem_404f1d = load %struct.Memory*, %struct.Memory** %MEMORY
  %253 = getelementptr inbounds %struct.State, %struct.State* %0, i32 0, i32 6
  %254 = getelementptr inbounds %struct.GPR, %struct.GPR* %253, i32 0, i32 33
  %255 = getelementptr inbounds %struct.Reg, %struct.Reg* %254, i32 0, i32 0
  %PC.i51 = bitcast %union.anon* %255 to i64*
  %256 = getelementptr inbounds %struct.State, %struct.State* %0, i32 0, i32 6
  %257 = getelementptr inbounds %struct.GPR, %struct.GPR* %256, i32 0, i32 1
  %258 = getelementptr inbounds %struct.Reg, %struct.Reg* %257, i32 0, i32 0
  %EAX.i52 = bitcast %union.anon* %258 to i32*
  %259 = getelementptr inbounds %struct.State, %struct.State* %0, i32 0, i32 6
  %260 = getelementptr inbounds %struct.GPR, %struct.GPR* %259, i32 0, i32 15
  %261 = getelementptr inbounds %struct.Reg, %struct.Reg* %260, i32 0, i32 0
  %RBP.i53 = bitcast %union.anon* %261 to i64*
  %262 = load i32, i32* %EAX.i52
  %263 = zext i32 %262 to i64
  %264 = load i64, i64* %RBP.i53
  %265 = sub i64 %264, 12
  %266 = load i64, i64* %PC.i51
  %267 = add i64 %266, 3
  store i64 %267, i64* %PC.i51
  %268 = inttoptr i64 %265 to i32*
  %269 = load i32, i32* %268
  %270 = sub i32 %262, %269
  %271 = icmp ult i32 %262, %269
  %272 = zext i1 %271 to i8
  %273 = getelementptr inbounds %struct.State, %struct.State* %0, i64 0, i32 2, i32 1
  store i8 %272, i8* %273, align 1
  %274 = and i32 %270, 255
  %275 = call i32 @llvm.ctpop.i32(i32 %274)
  %276 = trunc i32 %275 to i8
  %277 = and i8 %276, 1
  %278 = xor i8 %277, 1
  %279 = getelementptr inbounds %struct.State, %struct.State* %0, i64 0, i32 2, i32 3
  store i8 %278, i8* %279, align 1
  %280 = xor i32 %269, %262
  %281 = xor i32 %280, %270
  %282 = lshr i32 %281, 4
  %283 = trunc i32 %282 to i8
  %284 = and i8 %283, 1
  %285 = getelementptr inbounds %struct.State, %struct.State* %0, i64 0, i32 2, i32 5
  store i8 %284, i8* %285, align 1
  %286 = icmp eq i32 %270, 0
  %287 = zext i1 %286 to i8
  %288 = getelementptr inbounds %struct.State, %struct.State* %0, i64 0, i32 2, i32 7
  store i8 %287, i8* %288, align 1
  %289 = lshr i32 %270, 31
  %290 = trunc i32 %289 to i8
  %291 = getelementptr inbounds %struct.State, %struct.State* %0, i64 0, i32 2, i32 9
  store i8 %290, i8* %291, align 1
  %292 = lshr i32 %262, 31
  %293 = lshr i32 %269, 31
  %294 = xor i32 %293, %292
  %295 = xor i32 %289, %292
  %296 = add i32 %295, %294
  %297 = icmp eq i32 %296, 2
  %298 = zext i1 %297 to i8
  %299 = getelementptr inbounds %struct.State, %struct.State* %0, i64 0, i32 2, i32 13
  store i8 %298, i8* %299, align 1
  store %struct.Memory* %loadMem_404f1d, %struct.Memory** %MEMORY
  %loadMem_404f20 = load %struct.Memory*, %struct.Memory** %MEMORY
  %300 = getelementptr inbounds %struct.State, %struct.State* %0, i32 0, i32 6
  %301 = getelementptr inbounds %struct.GPR, %struct.GPR* %300, i32 0, i32 33
  %302 = getelementptr inbounds %struct.Reg, %struct.Reg* %301, i32 0, i32 0
  %PC.i50 = bitcast %union.anon* %302 to i64*
  %303 = load i64, i64* %PC.i50
  %304 = add i64 %303, 51
  %305 = load i64, i64* %PC.i50
  %306 = add i64 %305, 6
  %307 = load i64, i64* %PC.i50
  %308 = add i64 %307, 6
  store i64 %308, i64* %PC.i50
  %309 = getelementptr inbounds %struct.State, %struct.State* %0, i64 0, i32 2, i32 9
  %310 = load i8, i8* %309, align 1
  %311 = icmp ne i8 %310, 0
  %312 = getelementptr inbounds %struct.State, %struct.State* %0, i64 0, i32 2, i32 13
  %313 = load i8, i8* %312, align 1
  %314 = icmp ne i8 %313, 0
  %315 = xor i1 %311, %314
  %316 = xor i1 %315, true
  %317 = zext i1 %316 to i8
  store i8 %317, i8* %BRANCH_TAKEN, align 1
  %318 = getelementptr inbounds %struct.State, %struct.State* %0, i64 0, i32 6, i32 33, i32 0, i32 0
  %319 = select i1 %315, i64 %306, i64 %304
  store i64 %319, i64* %318, align 8
  store %struct.Memory* %loadMem_404f20, %struct.Memory** %MEMORY
  %loadBr_404f20 = load i8, i8* %BRANCH_TAKEN
  %cmpBr_404f20 = icmp eq i8 %loadBr_404f20, 1
  br i1 %cmpBr_404f20, label %block_.L_404f53, label %block_404f26

block_404f26:                                     ; preds = %block_.L_404f1a
  %loadMem_404f26 = load %struct.Memory*, %struct.Memory** %MEMORY
  %320 = getelementptr inbounds %struct.State, %struct.State* %0, i32 0, i32 6
  %321 = getelementptr inbounds %struct.GPR, %struct.GPR* %320, i32 0, i32 33
  %322 = getelementptr inbounds %struct.Reg, %struct.Reg* %321, i32 0, i32 0
  %PC.i47 = bitcast %union.anon* %322 to i64*
  %323 = getelementptr inbounds %struct.State, %struct.State* %0, i32 0, i32 6
  %324 = getelementptr inbounds %struct.GPR, %struct.GPR* %323, i32 0, i32 1
  %325 = getelementptr inbounds %struct.Reg, %struct.Reg* %324, i32 0, i32 0
  %RAX.i48 = bitcast %union.anon* %325 to i64*
  %326 = getelementptr inbounds %struct.State, %struct.State* %0, i32 0, i32 6
  %327 = getelementptr inbounds %struct.GPR, %struct.GPR* %326, i32 0, i32 15
  %328 = getelementptr inbounds %struct.Reg, %struct.Reg* %327, i32 0, i32 0
  %RBP.i49 = bitcast %union.anon* %328 to i64*
  %329 = load i64, i64* %RBP.i49
  %330 = sub i64 %329, 8
  %331 = load i64, i64* %PC.i47
  %332 = add i64 %331, 4
  store i64 %332, i64* %PC.i47
  %333 = inttoptr i64 %330 to i64*
  %334 = load i64, i64* %333
  store i64 %334, i64* %RAX.i48, align 8
  store %struct.Memory* %loadMem_404f26, %struct.Memory** %MEMORY
  %loadMem_404f2a = load %struct.Memory*, %struct.Memory** %MEMORY
  %335 = getelementptr inbounds %struct.State, %struct.State* %0, i32 0, i32 6
  %336 = getelementptr inbounds %struct.GPR, %struct.GPR* %335, i32 0, i32 33
  %337 = getelementptr inbounds %struct.Reg, %struct.Reg* %336, i32 0, i32 0
  %PC.i44 = bitcast %union.anon* %337 to i64*
  %338 = getelementptr inbounds %struct.State, %struct.State* %0, i32 0, i32 6
  %339 = getelementptr inbounds %struct.GPR, %struct.GPR* %338, i32 0, i32 5
  %340 = getelementptr inbounds %struct.Reg, %struct.Reg* %339, i32 0, i32 0
  %RCX.i45 = bitcast %union.anon* %340 to i64*
  %341 = getelementptr inbounds %struct.State, %struct.State* %0, i32 0, i32 6
  %342 = getelementptr inbounds %struct.GPR, %struct.GPR* %341, i32 0, i32 15
  %343 = getelementptr inbounds %struct.Reg, %struct.Reg* %342, i32 0, i32 0
  %RBP.i46 = bitcast %union.anon* %343 to i64*
  %344 = load i64, i64* %RBP.i46
  %345 = sub i64 %344, 36
  %346 = load i64, i64* %PC.i44
  %347 = add i64 %346, 4
  store i64 %347, i64* %PC.i44
  %348 = inttoptr i64 %345 to i32*
  %349 = load i32, i32* %348
  %350 = sext i32 %349 to i64
  store i64 %350, i64* %RCX.i45, align 8
  store %struct.Memory* %loadMem_404f2a, %struct.Memory** %MEMORY
  %loadMem_404f2e = load %struct.Memory*, %struct.Memory** %MEMORY
  %351 = getelementptr inbounds %struct.State, %struct.State* %0, i32 0, i32 6
  %352 = getelementptr inbounds %struct.GPR, %struct.GPR* %351, i32 0, i32 33
  %353 = getelementptr inbounds %struct.Reg, %struct.Reg* %352, i32 0, i32 0
  %PC.i41 = bitcast %union.anon* %353 to i64*
  %354 = getelementptr inbounds %struct.State, %struct.State* %0, i32 0, i32 6
  %355 = getelementptr inbounds %struct.GPR, %struct.GPR* %354, i32 0, i32 1
  %356 = getelementptr inbounds %struct.Reg, %struct.Reg* %355, i32 0, i32 0
  %RAX.i42 = bitcast %union.anon* %356 to i64*
  %357 = getelementptr inbounds %struct.State, %struct.State* %0, i32 0, i32 6
  %358 = getelementptr inbounds %struct.GPR, %struct.GPR* %357, i32 0, i32 5
  %359 = getelementptr inbounds %struct.Reg, %struct.Reg* %358, i32 0, i32 0
  %RCX.i = bitcast %union.anon* %359 to i64*
  %360 = getelementptr inbounds %struct.State, %struct.State* %0, i32 0, i32 6
  %361 = getelementptr inbounds %struct.GPR, %struct.GPR* %360, i32 0, i32 11
  %362 = getelementptr inbounds %struct.Reg, %struct.Reg* %361, i32 0, i32 0
  %RDI.i43 = bitcast %union.anon* %362 to i64*
  %363 = load i64, i64* %RAX.i42
  %364 = load i64, i64* %RCX.i
  %365 = add i64 %364, %363
  %366 = load i64, i64* %PC.i41
  %367 = add i64 %366, 4
  store i64 %367, i64* %PC.i41
  %368 = inttoptr i64 %365 to i8*
  %369 = load i8, i8* %368
  %370 = zext i8 %369 to i64
  store i64 %370, i64* %RDI.i43, align 8
  store %struct.Memory* %loadMem_404f2e, %struct.Memory** %MEMORY
  %loadMem1_404f32 = load %struct.Memory*, %struct.Memory** %MEMORY
  %371 = getelementptr inbounds %struct.State, %struct.State* %0, i32 0, i32 6
  %372 = getelementptr inbounds %struct.GPR, %struct.GPR* %371, i32 0, i32 33
  %373 = getelementptr inbounds %struct.Reg, %struct.Reg* %372, i32 0, i32 0
  %PC.i40 = bitcast %union.anon* %373 to i64*
  %374 = load i64, i64* %PC.i40
  %375 = add i64 %374, 71982
  %376 = load i64, i64* %PC.i40
  %377 = add i64 %376, 5
  %378 = load i64, i64* %PC.i40
  %379 = add i64 %378, 5
  store i64 %379, i64* %PC.i40
  %380 = getelementptr inbounds %struct.State, %struct.State* %0, i64 0, i32 6, i32 13, i32 0, i32 0
  %381 = load i64, i64* %380, align 8
  %382 = add i64 %381, -8
  %383 = inttoptr i64 %382 to i64*
  store i64 %377, i64* %383
  store i64 %382, i64* %380, align 8
  %384 = getelementptr inbounds %struct.State, %struct.State* %0, i64 0, i32 6, i32 33, i32 0, i32 0
  store i64 %375, i64* %384, align 8
  store %struct.Memory* %loadMem1_404f32, %struct.Memory** %MEMORY
  %loadMem2_404f32 = load %struct.Memory*, %struct.Memory** %MEMORY
  %loadPC_404f32 = load i64, i64* %3
  %call2_404f32 = call %struct.Memory* @sub_416860._ZN32custom_multiple_constant_divide2IhE8do_shiftEh(%struct.State* %0, i64 %loadPC_404f32, %struct.Memory* %loadMem2_404f32)
  store %struct.Memory* %call2_404f32, %struct.Memory** %MEMORY
  %loadMem_404f37 = load %struct.Memory*, %struct.Memory** %MEMORY
  %385 = getelementptr inbounds %struct.State, %struct.State* %0, i32 0, i32 6
  %386 = getelementptr inbounds %struct.GPR, %struct.GPR* %385, i32 0, i32 33
  %387 = getelementptr inbounds %struct.Reg, %struct.Reg* %386, i32 0, i32 0
  %PC.i37 = bitcast %union.anon* %387 to i64*
  %388 = getelementptr inbounds %struct.State, %struct.State* %0, i32 0, i32 6
  %389 = getelementptr inbounds %struct.GPR, %struct.GPR* %388, i32 0, i32 1
  %390 = getelementptr inbounds %struct.Reg, %struct.Reg* %389, i32 0, i32 0
  %391 = bitcast %union.anon* %390 to %struct.anon.2*
  %AL.i38 = getelementptr inbounds %struct.anon.2, %struct.anon.2* %391, i32 0, i32 0
  %392 = getelementptr inbounds %struct.State, %struct.State* %0, i32 0, i32 6
  %393 = getelementptr inbounds %struct.GPR, %struct.GPR* %392, i32 0, i32 11
  %394 = getelementptr inbounds %struct.Reg, %struct.Reg* %393, i32 0, i32 0
  %RDI.i39 = bitcast %union.anon* %394 to i64*
  %395 = load i8, i8* %AL.i38
  %396 = zext i8 %395 to i64
  %397 = load i64, i64* %PC.i37
  %398 = add i64 %397, 3
  store i64 %398, i64* %PC.i37
  %399 = and i64 %396, 255
  store i64 %399, i64* %RDI.i39, align 8
  store %struct.Memory* %loadMem_404f37, %struct.Memory** %MEMORY
  %loadMem_404f3a = load %struct.Memory*, %struct.Memory** %MEMORY
  %400 = getelementptr inbounds %struct.State, %struct.State* %0, i32 0, i32 6
  %401 = getelementptr inbounds %struct.GPR, %struct.GPR* %400, i32 0, i32 33
  %402 = getelementptr inbounds %struct.Reg, %struct.Reg* %401, i32 0, i32 0
  %PC.i34 = bitcast %union.anon* %402 to i64*
  %403 = getelementptr inbounds %struct.State, %struct.State* %0, i32 0, i32 6
  %404 = getelementptr inbounds %struct.GPR, %struct.GPR* %403, i32 0, i32 7
  %405 = getelementptr inbounds %struct.Reg, %struct.Reg* %404, i32 0, i32 0
  %RDX.i35 = bitcast %union.anon* %405 to i64*
  %406 = getelementptr inbounds %struct.State, %struct.State* %0, i32 0, i32 6
  %407 = getelementptr inbounds %struct.GPR, %struct.GPR* %406, i32 0, i32 15
  %408 = getelementptr inbounds %struct.Reg, %struct.Reg* %407, i32 0, i32 0
  %RBP.i36 = bitcast %union.anon* %408 to i64*
  %409 = load i64, i64* %RBP.i36
  %410 = sub i64 %409, 29
  %411 = load i64, i64* %PC.i34
  %412 = add i64 %411, 4
  store i64 %412, i64* %PC.i34
  %413 = inttoptr i64 %410 to i8*
  %414 = load i8, i8* %413
  %415 = zext i8 %414 to i64
  store i64 %415, i64* %RDX.i35, align 8
  store %struct.Memory* %loadMem_404f3a, %struct.Memory** %MEMORY
  %loadMem_404f3e = load %struct.Memory*, %struct.Memory** %MEMORY
  %416 = getelementptr inbounds %struct.State, %struct.State* %0, i32 0, i32 6
  %417 = getelementptr inbounds %struct.GPR, %struct.GPR* %416, i32 0, i32 33
  %418 = getelementptr inbounds %struct.Reg, %struct.Reg* %417, i32 0, i32 0
  %PC.i33 = bitcast %union.anon* %418 to i64*
  %419 = getelementptr inbounds %struct.State, %struct.State* %0, i32 0, i32 6
  %420 = getelementptr inbounds %struct.GPR, %struct.GPR* %419, i32 0, i32 11
  %421 = getelementptr inbounds %struct.Reg, %struct.Reg* %420, i32 0, i32 0
  %EDI.i = bitcast %union.anon* %421 to i32*
  %422 = getelementptr inbounds %struct.State, %struct.State* %0, i32 0, i32 6
  %423 = getelementptr inbounds %struct.GPR, %struct.GPR* %422, i32 0, i32 7
  %424 = getelementptr inbounds %struct.Reg, %struct.Reg* %423, i32 0, i32 0
  %RDX.i = bitcast %union.anon* %424 to i64*
  %425 = load i64, i64* %RDX.i
  %426 = load i32, i32* %EDI.i
  %427 = zext i32 %426 to i64
  %428 = load i64, i64* %PC.i33
  %429 = add i64 %428, 2
  store i64 %429, i64* %PC.i33
  %430 = trunc i64 %425 to i32
  %431 = add i32 %426, %430
  %432 = zext i32 %431 to i64
  store i64 %432, i64* %RDX.i, align 8
  %433 = icmp ult i32 %431, %430
  %434 = icmp ult i32 %431, %426
  %435 = or i1 %433, %434
  %436 = zext i1 %435 to i8
  %437 = getelementptr inbounds %struct.State, %struct.State* %0, i64 0, i32 2, i32 1
  store i8 %436, i8* %437, align 1
  %438 = and i32 %431, 255
  %439 = call i32 @llvm.ctpop.i32(i32 %438)
  %440 = trunc i32 %439 to i8
  %441 = and i8 %440, 1
  %442 = xor i8 %441, 1
  %443 = getelementptr inbounds %struct.State, %struct.State* %0, i64 0, i32 2, i32 3
  store i8 %442, i8* %443, align 1
  %444 = xor i64 %427, %425
  %445 = trunc i64 %444 to i32
  %446 = xor i32 %445, %431
  %447 = lshr i32 %446, 4
  %448 = trunc i32 %447 to i8
  %449 = and i8 %448, 1
  %450 = getelementptr inbounds %struct.State, %struct.State* %0, i64 0, i32 2, i32 5
  store i8 %449, i8* %450, align 1
  %451 = icmp eq i32 %431, 0
  %452 = zext i1 %451 to i8
  %453 = getelementptr inbounds %struct.State, %struct.State* %0, i64 0, i32 2, i32 7
  store i8 %452, i8* %453, align 1
  %454 = lshr i32 %431, 31
  %455 = trunc i32 %454 to i8
  %456 = getelementptr inbounds %struct.State, %struct.State* %0, i64 0, i32 2, i32 9
  store i8 %455, i8* %456, align 1
  %457 = lshr i32 %430, 31
  %458 = lshr i32 %426, 31
  %459 = xor i32 %454, %457
  %460 = xor i32 %454, %458
  %461 = add i32 %459, %460
  %462 = icmp eq i32 %461, 2
  %463 = zext i1 %462 to i8
  %464 = getelementptr inbounds %struct.State, %struct.State* %0, i64 0, i32 2, i32 13
  store i8 %463, i8* %464, align 1
  store %struct.Memory* %loadMem_404f3e, %struct.Memory** %MEMORY
  %loadMem_404f40 = load %struct.Memory*, %struct.Memory** %MEMORY
  %465 = getelementptr inbounds %struct.State, %struct.State* %0, i32 0, i32 6
  %466 = getelementptr inbounds %struct.GPR, %struct.GPR* %465, i32 0, i32 33
  %467 = getelementptr inbounds %struct.Reg, %struct.Reg* %466, i32 0, i32 0
  %PC.i31 = bitcast %union.anon* %467 to i64*
  %468 = getelementptr inbounds %struct.State, %struct.State* %0, i32 0, i32 6
  %469 = getelementptr inbounds %struct.GPR, %struct.GPR* %468, i32 0, i32 1
  %470 = getelementptr inbounds %struct.Reg, %struct.Reg* %469, i32 0, i32 0
  %471 = bitcast %union.anon* %470 to %struct.anon.2*
  %AL.i32 = getelementptr inbounds %struct.anon.2, %struct.anon.2* %471, i32 0, i32 0
  %472 = getelementptr inbounds %struct.State, %struct.State* %0, i32 0, i32 6
  %473 = getelementptr inbounds %struct.GPR, %struct.GPR* %472, i32 0, i32 7
  %474 = getelementptr inbounds %struct.Reg, %struct.Reg* %473, i32 0, i32 0
  %475 = bitcast %union.anon* %474 to %struct.anon.2*
  %DL.i = getelementptr inbounds %struct.anon.2, %struct.anon.2* %475, i32 0, i32 0
  %476 = load i8, i8* %DL.i
  %477 = zext i8 %476 to i64
  %478 = load i64, i64* %PC.i31
  %479 = add i64 %478, 2
  store i64 %479, i64* %PC.i31
  store i8 %476, i8* %AL.i32, align 1
  store %struct.Memory* %loadMem_404f40, %struct.Memory** %MEMORY
  %loadMem_404f42 = load %struct.Memory*, %struct.Memory** %MEMORY
  %480 = getelementptr inbounds %struct.State, %struct.State* %0, i32 0, i32 6
  %481 = getelementptr inbounds %struct.GPR, %struct.GPR* %480, i32 0, i32 33
  %482 = getelementptr inbounds %struct.Reg, %struct.Reg* %481, i32 0, i32 0
  %PC.i29 = bitcast %union.anon* %482 to i64*
  %483 = getelementptr inbounds %struct.State, %struct.State* %0, i32 0, i32 6
  %484 = getelementptr inbounds %struct.GPR, %struct.GPR* %483, i32 0, i32 1
  %485 = getelementptr inbounds %struct.Reg, %struct.Reg* %484, i32 0, i32 0
  %486 = bitcast %union.anon* %485 to %struct.anon.2*
  %AL.i = getelementptr inbounds %struct.anon.2, %struct.anon.2* %486, i32 0, i32 0
  %487 = getelementptr inbounds %struct.State, %struct.State* %0, i32 0, i32 6
  %488 = getelementptr inbounds %struct.GPR, %struct.GPR* %487, i32 0, i32 15
  %489 = getelementptr inbounds %struct.Reg, %struct.Reg* %488, i32 0, i32 0
  %RBP.i30 = bitcast %union.anon* %489 to i64*
  %490 = load i64, i64* %RBP.i30
  %491 = sub i64 %490, 29
  %492 = load i8, i8* %AL.i
  %493 = zext i8 %492 to i64
  %494 = load i64, i64* %PC.i29
  %495 = add i64 %494, 3
  store i64 %495, i64* %PC.i29
  %496 = inttoptr i64 %491 to i8*
  store i8 %492, i8* %496
  store %struct.Memory* %loadMem_404f42, %struct.Memory** %MEMORY
  %loadMem_404f45 = load %struct.Memory*, %struct.Memory** %MEMORY
  %497 = getelementptr inbounds %struct.State, %struct.State* %0, i32 0, i32 6
  %498 = getelementptr inbounds %struct.GPR, %struct.GPR* %497, i32 0, i32 33
  %499 = getelementptr inbounds %struct.Reg, %struct.Reg* %498, i32 0, i32 0
  %PC.i26 = bitcast %union.anon* %499 to i64*
  %500 = getelementptr inbounds %struct.State, %struct.State* %0, i32 0, i32 6
  %501 = getelementptr inbounds %struct.GPR, %struct.GPR* %500, i32 0, i32 1
  %502 = getelementptr inbounds %struct.Reg, %struct.Reg* %501, i32 0, i32 0
  %RAX.i27 = bitcast %union.anon* %502 to i64*
  %503 = getelementptr inbounds %struct.State, %struct.State* %0, i32 0, i32 6
  %504 = getelementptr inbounds %struct.GPR, %struct.GPR* %503, i32 0, i32 15
  %505 = getelementptr inbounds %struct.Reg, %struct.Reg* %504, i32 0, i32 0
  %RBP.i28 = bitcast %union.anon* %505 to i64*
  %506 = load i64, i64* %RBP.i28
  %507 = sub i64 %506, 36
  %508 = load i64, i64* %PC.i26
  %509 = add i64 %508, 3
  store i64 %509, i64* %PC.i26
  %510 = inttoptr i64 %507 to i32*
  %511 = load i32, i32* %510
  %512 = zext i32 %511 to i64
  store i64 %512, i64* %RAX.i27, align 8
  store %struct.Memory* %loadMem_404f45, %struct.Memory** %MEMORY
  %loadMem_404f48 = load %struct.Memory*, %struct.Memory** %MEMORY
  %513 = getelementptr inbounds %struct.State, %struct.State* %0, i32 0, i32 6
  %514 = getelementptr inbounds %struct.GPR, %struct.GPR* %513, i32 0, i32 33
  %515 = getelementptr inbounds %struct.Reg, %struct.Reg* %514, i32 0, i32 0
  %PC.i24 = bitcast %union.anon* %515 to i64*
  %516 = getelementptr inbounds %struct.State, %struct.State* %0, i32 0, i32 6
  %517 = getelementptr inbounds %struct.GPR, %struct.GPR* %516, i32 0, i32 1
  %518 = getelementptr inbounds %struct.Reg, %struct.Reg* %517, i32 0, i32 0
  %RAX.i25 = bitcast %union.anon* %518 to i64*
  %519 = load i64, i64* %RAX.i25
  %520 = load i64, i64* %PC.i24
  %521 = add i64 %520, 3
  store i64 %521, i64* %PC.i24
  %522 = trunc i64 %519 to i32
  %523 = add i32 1, %522
  %524 = zext i32 %523 to i64
  store i64 %524, i64* %RAX.i25, align 8
  %525 = icmp ult i32 %523, %522
  %526 = icmp ult i32 %523, 1
  %527 = or i1 %525, %526
  %528 = zext i1 %527 to i8
  %529 = getelementptr inbounds %struct.State, %struct.State* %0, i64 0, i32 2, i32 1
  store i8 %528, i8* %529, align 1
  %530 = and i32 %523, 255
  %531 = call i32 @llvm.ctpop.i32(i32 %530)
  %532 = trunc i32 %531 to i8
  %533 = and i8 %532, 1
  %534 = xor i8 %533, 1
  %535 = getelementptr inbounds %struct.State, %struct.State* %0, i64 0, i32 2, i32 3
  store i8 %534, i8* %535, align 1
  %536 = xor i64 1, %519
  %537 = trunc i64 %536 to i32
  %538 = xor i32 %537, %523
  %539 = lshr i32 %538, 4
  %540 = trunc i32 %539 to i8
  %541 = and i8 %540, 1
  %542 = getelementptr inbounds %struct.State, %struct.State* %0, i64 0, i32 2, i32 5
  store i8 %541, i8* %542, align 1
  %543 = icmp eq i32 %523, 0
  %544 = zext i1 %543 to i8
  %545 = getelementptr inbounds %struct.State, %struct.State* %0, i64 0, i32 2, i32 7
  store i8 %544, i8* %545, align 1
  %546 = lshr i32 %523, 31
  %547 = trunc i32 %546 to i8
  %548 = getelementptr inbounds %struct.State, %struct.State* %0, i64 0, i32 2, i32 9
  store i8 %547, i8* %548, align 1
  %549 = lshr i32 %522, 31
  %550 = xor i32 %546, %549
  %551 = add i32 %550, %546
  %552 = icmp eq i32 %551, 2
  %553 = zext i1 %552 to i8
  %554 = getelementptr inbounds %struct.State, %struct.State* %0, i64 0, i32 2, i32 13
  store i8 %553, i8* %554, align 1
  store %struct.Memory* %loadMem_404f48, %struct.Memory** %MEMORY
  %loadMem_404f4b = load %struct.Memory*, %struct.Memory** %MEMORY
  %555 = getelementptr inbounds %struct.State, %struct.State* %0, i32 0, i32 6
  %556 = getelementptr inbounds %struct.GPR, %struct.GPR* %555, i32 0, i32 33
  %557 = getelementptr inbounds %struct.Reg, %struct.Reg* %556, i32 0, i32 0
  %PC.i21 = bitcast %union.anon* %557 to i64*
  %558 = getelementptr inbounds %struct.State, %struct.State* %0, i32 0, i32 6
  %559 = getelementptr inbounds %struct.GPR, %struct.GPR* %558, i32 0, i32 1
  %560 = getelementptr inbounds %struct.Reg, %struct.Reg* %559, i32 0, i32 0
  %EAX.i22 = bitcast %union.anon* %560 to i32*
  %561 = getelementptr inbounds %struct.State, %struct.State* %0, i32 0, i32 6
  %562 = getelementptr inbounds %struct.GPR, %struct.GPR* %561, i32 0, i32 15
  %563 = getelementptr inbounds %struct.Reg, %struct.Reg* %562, i32 0, i32 0
  %RBP.i23 = bitcast %union.anon* %563 to i64*
  %564 = load i64, i64* %RBP.i23
  %565 = sub i64 %564, 36
  %566 = load i32, i32* %EAX.i22
  %567 = zext i32 %566 to i64
  %568 = load i64, i64* %PC.i21
  %569 = add i64 %568, 3
  store i64 %569, i64* %PC.i21
  %570 = inttoptr i64 %565 to i32*
  store i32 %566, i32* %570
  store %struct.Memory* %loadMem_404f4b, %struct.Memory** %MEMORY
  %loadMem_404f4e = load %struct.Memory*, %struct.Memory** %MEMORY
  %571 = getelementptr inbounds %struct.State, %struct.State* %0, i32 0, i32 6
  %572 = getelementptr inbounds %struct.GPR, %struct.GPR* %571, i32 0, i32 33
  %573 = getelementptr inbounds %struct.Reg, %struct.Reg* %572, i32 0, i32 0
  %PC.i20 = bitcast %union.anon* %573 to i64*
  %574 = load i64, i64* %PC.i20
  %575 = add i64 %574, -52
  %576 = load i64, i64* %PC.i20
  %577 = add i64 %576, 5
  store i64 %577, i64* %PC.i20
  %578 = getelementptr inbounds %struct.State, %struct.State* %0, i64 0, i32 6, i32 33, i32 0, i32 0
  store i64 %575, i64* %578, align 8
  store %struct.Memory* %loadMem_404f4e, %struct.Memory** %MEMORY
  br label %block_.L_404f1a

block_.L_404f53:                                  ; preds = %block_.L_404f1a
  %loadMem_404f53 = load %struct.Memory*, %struct.Memory** %MEMORY
  %579 = getelementptr inbounds %struct.State, %struct.State* %0, i32 0, i32 6
  %580 = getelementptr inbounds %struct.GPR, %struct.GPR* %579, i32 0, i32 33
  %581 = getelementptr inbounds %struct.Reg, %struct.Reg* %580, i32 0, i32 0
  %PC.i17 = bitcast %union.anon* %581 to i64*
  %582 = getelementptr inbounds %struct.State, %struct.State* %0, i32 0, i32 6
  %583 = getelementptr inbounds %struct.GPR, %struct.GPR* %582, i32 0, i32 11
  %584 = getelementptr inbounds %struct.Reg, %struct.Reg* %583, i32 0, i32 0
  %RDI.i18 = bitcast %union.anon* %584 to i64*
  %585 = getelementptr inbounds %struct.State, %struct.State* %0, i32 0, i32 6
  %586 = getelementptr inbounds %struct.GPR, %struct.GPR* %585, i32 0, i32 15
  %587 = getelementptr inbounds %struct.Reg, %struct.Reg* %586, i32 0, i32 0
  %RBP.i19 = bitcast %union.anon* %587 to i64*
  %588 = load i64, i64* %RBP.i19
  %589 = sub i64 %588, 29
  %590 = load i64, i64* %PC.i17
  %591 = add i64 %590, 4
  store i64 %591, i64* %PC.i17
  %592 = inttoptr i64 %589 to i8*
  %593 = load i8, i8* %592
  %594 = zext i8 %593 to i64
  store i64 %594, i64* %RDI.i18, align 8
  store %struct.Memory* %loadMem_404f53, %struct.Memory** %MEMORY
  %loadMem1_404f57 = load %struct.Memory*, %struct.Memory** %MEMORY
  %595 = getelementptr inbounds %struct.State, %struct.State* %0, i32 0, i32 6
  %596 = getelementptr inbounds %struct.GPR, %struct.GPR* %595, i32 0, i32 33
  %597 = getelementptr inbounds %struct.Reg, %struct.Reg* %596, i32 0, i32 0
  %PC.i16 = bitcast %union.anon* %597 to i64*
  %598 = load i64, i64* %PC.i16
  %599 = add i64 %598, 71977
  %600 = load i64, i64* %PC.i16
  %601 = add i64 %600, 5
  %602 = load i64, i64* %PC.i16
  %603 = add i64 %602, 5
  store i64 %603, i64* %PC.i16
  %604 = getelementptr inbounds %struct.State, %struct.State* %0, i64 0, i32 6, i32 13, i32 0, i32 0
  %605 = load i64, i64* %604, align 8
  %606 = add i64 %605, -8
  %607 = inttoptr i64 %606 to i64*
  store i64 %601, i64* %607
  store i64 %606, i64* %604, align 8
  %608 = getelementptr inbounds %struct.State, %struct.State* %0, i64 0, i32 6, i32 33, i32 0, i32 0
  store i64 %599, i64* %608, align 8
  store %struct.Memory* %loadMem1_404f57, %struct.Memory** %MEMORY
  %loadMem2_404f57 = load %struct.Memory*, %struct.Memory** %MEMORY
  %loadPC_404f57 = load i64, i64* %3
  %call2_404f57 = call %struct.Memory* @sub_416880._Z17check_shifted_sumIh32custom_multiple_constant_divide2IhEEvT_(%struct.State* %0, i64 %loadPC_404f57, %struct.Memory* %loadMem2_404f57)
  store %struct.Memory* %call2_404f57, %struct.Memory** %MEMORY
  %loadMem_404f5c = load %struct.Memory*, %struct.Memory** %MEMORY
  %609 = getelementptr inbounds %struct.State, %struct.State* %0, i32 0, i32 6
  %610 = getelementptr inbounds %struct.GPR, %struct.GPR* %609, i32 0, i32 33
  %611 = getelementptr inbounds %struct.Reg, %struct.Reg* %610, i32 0, i32 0
  %PC.i13 = bitcast %union.anon* %611 to i64*
  %612 = getelementptr inbounds %struct.State, %struct.State* %0, i32 0, i32 6
  %613 = getelementptr inbounds %struct.GPR, %struct.GPR* %612, i32 0, i32 1
  %614 = getelementptr inbounds %struct.Reg, %struct.Reg* %613, i32 0, i32 0
  %RAX.i14 = bitcast %union.anon* %614 to i64*
  %615 = getelementptr inbounds %struct.State, %struct.State* %0, i32 0, i32 6
  %616 = getelementptr inbounds %struct.GPR, %struct.GPR* %615, i32 0, i32 15
  %617 = getelementptr inbounds %struct.Reg, %struct.Reg* %616, i32 0, i32 0
  %RBP.i15 = bitcast %union.anon* %617 to i64*
  %618 = load i64, i64* %RBP.i15
  %619 = sub i64 %618, 28
  %620 = load i64, i64* %PC.i13
  %621 = add i64 %620, 3
  store i64 %621, i64* %PC.i13
  %622 = inttoptr i64 %619 to i32*
  %623 = load i32, i32* %622
  %624 = zext i32 %623 to i64
  store i64 %624, i64* %RAX.i14, align 8
  store %struct.Memory* %loadMem_404f5c, %struct.Memory** %MEMORY
  %loadMem_404f5f = load %struct.Memory*, %struct.Memory** %MEMORY
  %625 = getelementptr inbounds %struct.State, %struct.State* %0, i32 0, i32 6
  %626 = getelementptr inbounds %struct.GPR, %struct.GPR* %625, i32 0, i32 33
  %627 = getelementptr inbounds %struct.Reg, %struct.Reg* %626, i32 0, i32 0
  %PC.i12 = bitcast %union.anon* %627 to i64*
  %628 = getelementptr inbounds %struct.State, %struct.State* %0, i32 0, i32 6
  %629 = getelementptr inbounds %struct.GPR, %struct.GPR* %628, i32 0, i32 1
  %630 = getelementptr inbounds %struct.Reg, %struct.Reg* %629, i32 0, i32 0
  %RAX.i = bitcast %union.anon* %630 to i64*
  %631 = load i64, i64* %RAX.i
  %632 = load i64, i64* %PC.i12
  %633 = add i64 %632, 3
  store i64 %633, i64* %PC.i12
  %634 = trunc i64 %631 to i32
  %635 = add i32 1, %634
  %636 = zext i32 %635 to i64
  store i64 %636, i64* %RAX.i, align 8
  %637 = icmp ult i32 %635, %634
  %638 = icmp ult i32 %635, 1
  %639 = or i1 %637, %638
  %640 = zext i1 %639 to i8
  %641 = getelementptr inbounds %struct.State, %struct.State* %0, i64 0, i32 2, i32 1
  store i8 %640, i8* %641, align 1
  %642 = and i32 %635, 255
  %643 = call i32 @llvm.ctpop.i32(i32 %642)
  %644 = trunc i32 %643 to i8
  %645 = and i8 %644, 1
  %646 = xor i8 %645, 1
  %647 = getelementptr inbounds %struct.State, %struct.State* %0, i64 0, i32 2, i32 3
  store i8 %646, i8* %647, align 1
  %648 = xor i64 1, %631
  %649 = trunc i64 %648 to i32
  %650 = xor i32 %649, %635
  %651 = lshr i32 %650, 4
  %652 = trunc i32 %651 to i8
  %653 = and i8 %652, 1
  %654 = getelementptr inbounds %struct.State, %struct.State* %0, i64 0, i32 2, i32 5
  store i8 %653, i8* %654, align 1
  %655 = icmp eq i32 %635, 0
  %656 = zext i1 %655 to i8
  %657 = getelementptr inbounds %struct.State, %struct.State* %0, i64 0, i32 2, i32 7
  store i8 %656, i8* %657, align 1
  %658 = lshr i32 %635, 31
  %659 = trunc i32 %658 to i8
  %660 = getelementptr inbounds %struct.State, %struct.State* %0, i64 0, i32 2, i32 9
  store i8 %659, i8* %660, align 1
  %661 = lshr i32 %634, 31
  %662 = xor i32 %658, %661
  %663 = add i32 %662, %658
  %664 = icmp eq i32 %663, 2
  %665 = zext i1 %664 to i8
  %666 = getelementptr inbounds %struct.State, %struct.State* %0, i64 0, i32 2, i32 13
  store i8 %665, i8* %666, align 1
  store %struct.Memory* %loadMem_404f5f, %struct.Memory** %MEMORY
  %loadMem_404f62 = load %struct.Memory*, %struct.Memory** %MEMORY
  %667 = getelementptr inbounds %struct.State, %struct.State* %0, i32 0, i32 6
  %668 = getelementptr inbounds %struct.GPR, %struct.GPR* %667, i32 0, i32 33
  %669 = getelementptr inbounds %struct.Reg, %struct.Reg* %668, i32 0, i32 0
  %PC.i10 = bitcast %union.anon* %669 to i64*
  %670 = getelementptr inbounds %struct.State, %struct.State* %0, i32 0, i32 6
  %671 = getelementptr inbounds %struct.GPR, %struct.GPR* %670, i32 0, i32 1
  %672 = getelementptr inbounds %struct.Reg, %struct.Reg* %671, i32 0, i32 0
  %EAX.i = bitcast %union.anon* %672 to i32*
  %673 = getelementptr inbounds %struct.State, %struct.State* %0, i32 0, i32 6
  %674 = getelementptr inbounds %struct.GPR, %struct.GPR* %673, i32 0, i32 15
  %675 = getelementptr inbounds %struct.Reg, %struct.Reg* %674, i32 0, i32 0
  %RBP.i11 = bitcast %union.anon* %675 to i64*
  %676 = load i64, i64* %RBP.i11
  %677 = sub i64 %676, 28
  %678 = load i32, i32* %EAX.i
  %679 = zext i32 %678 to i64
  %680 = load i64, i64* %PC.i10
  %681 = add i64 %680, 3
  store i64 %681, i64* %PC.i10
  %682 = inttoptr i64 %677 to i32*
  store i32 %678, i32* %682
  store %struct.Memory* %loadMem_404f62, %struct.Memory** %MEMORY
  %loadMem_404f65 = load %struct.Memory*, %struct.Memory** %MEMORY
  %683 = getelementptr inbounds %struct.State, %struct.State* %0, i32 0, i32 6
  %684 = getelementptr inbounds %struct.GPR, %struct.GPR* %683, i32 0, i32 33
  %685 = getelementptr inbounds %struct.Reg, %struct.Reg* %684, i32 0, i32 0
  %PC.i9 = bitcast %union.anon* %685 to i64*
  %686 = load i64, i64* %PC.i9
  %687 = add i64 %686, -102
  %688 = load i64, i64* %PC.i9
  %689 = add i64 %688, 5
  store i64 %689, i64* %PC.i9
  %690 = getelementptr inbounds %struct.State, %struct.State* %0, i64 0, i32 6, i32 33, i32 0, i32 0
  store i64 %687, i64* %690, align 8
  store %struct.Memory* %loadMem_404f65, %struct.Memory** %MEMORY
  br label %block_.L_404eff

block_.L_404f6a:                                  ; preds = %block_.L_404eff
  %loadMem1_404f6a = load %struct.Memory*, %struct.Memory** %MEMORY
  %691 = getelementptr inbounds %struct.State, %struct.State* %0, i32 0, i32 6
  %692 = getelementptr inbounds %struct.GPR, %struct.GPR* %691, i32 0, i32 33
  %693 = getelementptr inbounds %struct.Reg, %struct.Reg* %692, i32 0, i32 0
  %PC.i8 = bitcast %union.anon* %693 to i64*
  %694 = load i64, i64* %PC.i8
  %695 = add i64 %694, -16586
  %696 = load i64, i64* %PC.i8
  %697 = add i64 %696, 5
  %698 = load i64, i64* %PC.i8
  %699 = add i64 %698, 5
  store i64 %699, i64* %PC.i8
  %700 = getelementptr inbounds %struct.State, %struct.State* %0, i64 0, i32 6, i32 13, i32 0, i32 0
  %701 = load i64, i64* %700, align 8
  %702 = add i64 %701, -8
  %703 = inttoptr i64 %702 to i64*
  store i64 %697, i64* %703
  store i64 %702, i64* %700, align 8
  %704 = getelementptr inbounds %struct.State, %struct.State* %0, i64 0, i32 6, i32 33, i32 0, i32 0
  store i64 %695, i64* %704, align 8
  store %struct.Memory* %loadMem1_404f6a, %struct.Memory** %MEMORY
  %loadMem2_404f6a = load %struct.Memory*, %struct.Memory** %MEMORY
  %loadPC_404f6a = load i64, i64* %3
  %call2_404f6a = call %struct.Memory* @sub_400ea0._Z5timerv(%struct.State* %0, i64 %loadPC_404f6a, %struct.Memory* %loadMem2_404f6a)
  store %struct.Memory* %call2_404f6a, %struct.Memory** %MEMORY
  %loadMem_404f6f = load %struct.Memory*, %struct.Memory** %MEMORY
  %705 = getelementptr inbounds %struct.State, %struct.State* %0, i32 0, i32 6
  %706 = getelementptr inbounds %struct.GPR, %struct.GPR* %705, i32 0, i32 33
  %707 = getelementptr inbounds %struct.Reg, %struct.Reg* %706, i32 0, i32 0
  %PC.i6 = bitcast %union.anon* %707 to i64*
  %708 = getelementptr inbounds %struct.State, %struct.State* %0, i32 0, i32 6
  %709 = getelementptr inbounds %struct.GPR, %struct.GPR* %708, i32 0, i32 11
  %710 = getelementptr inbounds %struct.Reg, %struct.Reg* %709, i32 0, i32 0
  %RDI.i = bitcast %union.anon* %710 to i64*
  %711 = getelementptr inbounds %struct.State, %struct.State* %0, i32 0, i32 6
  %712 = getelementptr inbounds %struct.GPR, %struct.GPR* %711, i32 0, i32 15
  %713 = getelementptr inbounds %struct.Reg, %struct.Reg* %712, i32 0, i32 0
  %RBP.i7 = bitcast %union.anon* %713 to i64*
  %714 = load i64, i64* %RBP.i7
  %715 = sub i64 %714, 24
  %716 = load i64, i64* %PC.i6
  %717 = add i64 %716, 4
  store i64 %717, i64* %PC.i6
  %718 = inttoptr i64 %715 to i64*
  %719 = load i64, i64* %718
  store i64 %719, i64* %RDI.i, align 8
  store %struct.Memory* %loadMem_404f6f, %struct.Memory** %MEMORY
  %loadMem1_404f73 = load %struct.Memory*, %struct.Memory** %MEMORY
  %720 = getelementptr inbounds %struct.State, %struct.State* %0, i32 0, i32 6
  %721 = getelementptr inbounds %struct.GPR, %struct.GPR* %720, i32 0, i32 33
  %722 = getelementptr inbounds %struct.Reg, %struct.Reg* %721, i32 0, i32 0
  %PC.i5 = bitcast %union.anon* %722 to i64*
  %723 = load i64, i64* %PC.i5
  %724 = add i64 %723, -18227
  %725 = load i64, i64* %PC.i5
  %726 = add i64 %725, 5
  %727 = load i64, i64* %PC.i5
  %728 = add i64 %727, 5
  store i64 %728, i64* %PC.i5
  %729 = getelementptr inbounds %struct.State, %struct.State* %0, i64 0, i32 6, i32 13, i32 0, i32 0
  %730 = load i64, i64* %729, align 8
  %731 = add i64 %730, -8
  %732 = inttoptr i64 %731 to i64*
  store i64 %726, i64* %732
  store i64 %731, i64* %729, align 8
  %733 = getelementptr inbounds %struct.State, %struct.State* %0, i64 0, i32 6, i32 33, i32 0, i32 0
  store i64 %724, i64* %733, align 8
  store %struct.Memory* %loadMem1_404f73, %struct.Memory** %MEMORY
  %loadMem2_404f73 = load %struct.Memory*, %struct.Memory** %MEMORY
  %loadPC_404f73 = load i64, i64* %3
  %call2_404f73 = call %struct.Memory* @sub_400840._Z13record_resultdPKc(%struct.State* %0, i64 %loadPC_404f73, %struct.Memory* %loadMem2_404f73)
  store %struct.Memory* %call2_404f73, %struct.Memory** %MEMORY
  %loadMem_404f78 = load %struct.Memory*, %struct.Memory** %MEMORY
  %734 = getelementptr inbounds %struct.State, %struct.State* %0, i32 0, i32 6
  %735 = getelementptr inbounds %struct.GPR, %struct.GPR* %734, i32 0, i32 33
  %736 = getelementptr inbounds %struct.Reg, %struct.Reg* %735, i32 0, i32 0
  %PC.i4 = bitcast %union.anon* %736 to i64*
  %737 = getelementptr inbounds %struct.State, %struct.State* %0, i32 0, i32 6
  %738 = getelementptr inbounds %struct.GPR, %struct.GPR* %737, i32 0, i32 13
  %739 = getelementptr inbounds %struct.Reg, %struct.Reg* %738, i32 0, i32 0
  %RSP.i = bitcast %union.anon* %739 to i64*
  %740 = load i64, i64* %RSP.i
  %741 = load i64, i64* %PC.i4
  %742 = add i64 %741, 4
  store i64 %742, i64* %PC.i4
  %743 = add i64 48, %740
  store i64 %743, i64* %RSP.i, align 8
  %744 = icmp ult i64 %743, %740
  %745 = icmp ult i64 %743, 48
  %746 = or i1 %744, %745
  %747 = zext i1 %746 to i8
  %748 = getelementptr inbounds %struct.State, %struct.State* %0, i64 0, i32 2, i32 1
  store i8 %747, i8* %748, align 1
  %749 = trunc i64 %743 to i32
  %750 = and i32 %749, 255
  %751 = call i32 @llvm.ctpop.i32(i32 %750)
  %752 = trunc i32 %751 to i8
  %753 = and i8 %752, 1
  %754 = xor i8 %753, 1
  %755 = getelementptr inbounds %struct.State, %struct.State* %0, i64 0, i32 2, i32 3
  store i8 %754, i8* %755, align 1
  %756 = xor i64 48, %740
  %757 = xor i64 %756, %743
  %758 = lshr i64 %757, 4
  %759 = trunc i64 %758 to i8
  %760 = and i8 %759, 1
  %761 = getelementptr inbounds %struct.State, %struct.State* %0, i64 0, i32 2, i32 5
  store i8 %760, i8* %761, align 1
  %762 = icmp eq i64 %743, 0
  %763 = zext i1 %762 to i8
  %764 = getelementptr inbounds %struct.State, %struct.State* %0, i64 0, i32 2, i32 7
  store i8 %763, i8* %764, align 1
  %765 = lshr i64 %743, 63
  %766 = trunc i64 %765 to i8
  %767 = getelementptr inbounds %struct.State, %struct.State* %0, i64 0, i32 2, i32 9
  store i8 %766, i8* %767, align 1
  %768 = lshr i64 %740, 63
  %769 = xor i64 %765, %768
  %770 = add i64 %769, %765
  %771 = icmp eq i64 %770, 2
  %772 = zext i1 %771 to i8
  %773 = getelementptr inbounds %struct.State, %struct.State* %0, i64 0, i32 2, i32 13
  store i8 %772, i8* %773, align 1
  store %struct.Memory* %loadMem_404f78, %struct.Memory** %MEMORY
  %loadMem_404f7c = load %struct.Memory*, %struct.Memory** %MEMORY
  %774 = getelementptr inbounds %struct.State, %struct.State* %0, i32 0, i32 6
  %775 = getelementptr inbounds %struct.GPR, %struct.GPR* %774, i32 0, i32 33
  %776 = getelementptr inbounds %struct.Reg, %struct.Reg* %775, i32 0, i32 0
  %PC.i2 = bitcast %union.anon* %776 to i64*
  %777 = getelementptr inbounds %struct.State, %struct.State* %0, i32 0, i32 6
  %778 = getelementptr inbounds %struct.GPR, %struct.GPR* %777, i32 0, i32 15
  %779 = getelementptr inbounds %struct.Reg, %struct.Reg* %778, i32 0, i32 0
  %RBP.i3 = bitcast %union.anon* %779 to i64*
  %780 = load i64, i64* %PC.i2
  %781 = add i64 %780, 1
  store i64 %781, i64* %PC.i2
  %782 = getelementptr inbounds %struct.State, %struct.State* %0, i64 0, i32 6, i32 13, i32 0, i32 0
  %783 = load i64, i64* %782, align 8
  %784 = add i64 %783, 8
  %785 = inttoptr i64 %783 to i64*
  %786 = load i64, i64* %785
  store i64 %786, i64* %RBP.i3, align 8
  store i64 %784, i64* %782, align 8
  store %struct.Memory* %loadMem_404f7c, %struct.Memory** %MEMORY
  %loadMem_404f7d = load %struct.Memory*, %struct.Memory** %MEMORY
  %787 = getelementptr inbounds %struct.State, %struct.State* %0, i32 0, i32 6
  %788 = getelementptr inbounds %struct.GPR, %struct.GPR* %787, i32 0, i32 33
  %789 = getelementptr inbounds %struct.Reg, %struct.Reg* %788, i32 0, i32 0
  %PC.i1 = bitcast %union.anon* %789 to i64*
  %790 = load i64, i64* %PC.i1
  %791 = add i64 %790, 1
  store i64 %791, i64* %PC.i1
  %792 = getelementptr inbounds %struct.State, %struct.State* %0, i64 0, i32 6, i32 33, i32 0, i32 0
  %793 = getelementptr inbounds %struct.State, %struct.State* %0, i64 0, i32 6, i32 13, i32 0, i32 0
  %794 = load i64, i64* %793, align 8
  %795 = inttoptr i64 %794 to i64*
  %796 = load i64, i64* %795
  store i64 %796, i64* %792, align 8
  %797 = add i64 %794, 8
  store i64 %797, i64* %793, align 8
  store %struct.Memory* %loadMem_404f7d, %struct.Memory** %MEMORY
  ret %struct.Memory* %loadMem_404f7d
}

define %struct.Memory* @routine_pushq__rbp(%struct.State* dereferenceable(3376), i64, %struct.Memory*) {
block_400488:
  %3 = getelementptr inbounds %struct.State, %struct.State* %0, i32 0, i32 6
  %4 = getelementptr inbounds %struct.GPR, %struct.GPR* %3, i32 0, i32 33
  %5 = getelementptr inbounds %struct.Reg, %struct.Reg* %4, i32 0, i32 0
  %PC = bitcast %union.anon* %5 to i64*
  %6 = getelementptr inbounds %struct.State, %struct.State* %0, i32 0, i32 6
  %7 = getelementptr inbounds %struct.GPR, %struct.GPR* %6, i32 0, i32 15
  %8 = getelementptr inbounds %struct.Reg, %struct.Reg* %7, i32 0, i32 0
  %RBP = bitcast %union.anon* %8 to i64*
  %9 = load i64, i64* %RBP
  %10 = load i64, i64* %PC
  %11 = add i64 %10, 1
  store i64 %11, i64* %PC
  %12 = getelementptr inbounds %struct.State, %struct.State* %0, i64 0, i32 6, i32 13, i32 0, i32 0
  %13 = load i64, i64* %12, align 8
  %14 = add i64 %13, -8
  %15 = inttoptr i64 %14 to i64*
  store i64 %9, i64* %15
  store i64 %14, i64* %12, align 8
  ret %struct.Memory* %2
}

define %struct.Memory* @routine_movq__rsp___rbp(%struct.State* dereferenceable(3376), i64, %struct.Memory*) {
block_400488:
  %3 = getelementptr inbounds %struct.State, %struct.State* %0, i32 0, i32 6
  %4 = getelementptr inbounds %struct.GPR, %struct.GPR* %3, i32 0, i32 33
  %5 = getelementptr inbounds %struct.Reg, %struct.Reg* %4, i32 0, i32 0
  %PC = bitcast %union.anon* %5 to i64*
  %6 = getelementptr inbounds %struct.State, %struct.State* %0, i32 0, i32 6
  %7 = getelementptr inbounds %struct.GPR, %struct.GPR* %6, i32 0, i32 13
  %8 = getelementptr inbounds %struct.Reg, %struct.Reg* %7, i32 0, i32 0
  %RSP = bitcast %union.anon* %8 to i64*
  %9 = getelementptr inbounds %struct.State, %struct.State* %0, i32 0, i32 6
  %10 = getelementptr inbounds %struct.GPR, %struct.GPR* %9, i32 0, i32 15
  %11 = getelementptr inbounds %struct.Reg, %struct.Reg* %10, i32 0, i32 0
  %RBP = bitcast %union.anon* %11 to i64*
  %12 = load i64, i64* %RSP
  %13 = load i64, i64* %PC
  %14 = add i64 %13, 3
  store i64 %14, i64* %PC
  store i64 %12, i64* %RBP, align 8
  ret %struct.Memory* %2
}

define %struct.Memory* @routine_subq__0x30___rsp(%struct.State* dereferenceable(3376), i64, %struct.Memory*) {
block_400488:
  %3 = getelementptr inbounds %struct.State, %struct.State* %0, i32 0, i32 6
  %4 = getelementptr inbounds %struct.GPR, %struct.GPR* %3, i32 0, i32 33
  %5 = getelementptr inbounds %struct.Reg, %struct.Reg* %4, i32 0, i32 0
  %PC = bitcast %union.anon* %5 to i64*
  %6 = getelementptr inbounds %struct.State, %struct.State* %0, i32 0, i32 6
  %7 = getelementptr inbounds %struct.GPR, %struct.GPR* %6, i32 0, i32 13
  %8 = getelementptr inbounds %struct.Reg, %struct.Reg* %7, i32 0, i32 0
  %RSP = bitcast %union.anon* %8 to i64*
  %9 = load i64, i64* %RSP
  %10 = load i64, i64* %PC
  %11 = add i64 %10, 4
  store i64 %11, i64* %PC
  %12 = sub i64 %9, 48
  store i64 %12, i64* %RSP, align 8
  %13 = icmp ult i64 %9, 48
  %14 = zext i1 %13 to i8
  %15 = getelementptr inbounds %struct.State, %struct.State* %0, i64 0, i32 2, i32 1
  store i8 %14, i8* %15, align 1
  %16 = trunc i64 %12 to i32
  %17 = and i32 %16, 255
  %18 = call i32 @llvm.ctpop.i32(i32 %17)
  %19 = trunc i32 %18 to i8
  %20 = and i8 %19, 1
  %21 = xor i8 %20, 1
  %22 = getelementptr inbounds %struct.State, %struct.State* %0, i64 0, i32 2, i32 3
  store i8 %21, i8* %22, align 1
  %23 = xor i64 48, %9
  %24 = xor i64 %23, %12
  %25 = lshr i64 %24, 4
  %26 = trunc i64 %25 to i8
  %27 = and i8 %26, 1
  %28 = getelementptr inbounds %struct.State, %struct.State* %0, i64 0, i32 2, i32 5
  store i8 %27, i8* %28, align 1
  %29 = icmp eq i64 %12, 0
  %30 = zext i1 %29 to i8
  %31 = getelementptr inbounds %struct.State, %struct.State* %0, i64 0, i32 2, i32 7
  store i8 %30, i8* %31, align 1
  %32 = lshr i64 %12, 63
  %33 = trunc i64 %32 to i8
  %34 = getelementptr inbounds %struct.State, %struct.State* %0, i64 0, i32 2, i32 9
  store i8 %33, i8* %34, align 1
  %35 = lshr i64 %9, 63
  %36 = xor i64 %32, %35
  %37 = add i64 %36, %35
  %38 = icmp eq i64 %37, 2
  %39 = zext i1 %38 to i8
  %40 = getelementptr inbounds %struct.State, %struct.State* %0, i64 0, i32 2, i32 13
  store i8 %39, i8* %40, align 1
  ret %struct.Memory* %2
}

define %struct.Memory* @routine_movq__rdi__MINUS0x8__rbp_(%struct.State* dereferenceable(3376), i64, %struct.Memory*) {
block_400488:
  %3 = getelementptr inbounds %struct.State, %struct.State* %0, i32 0, i32 6
  %4 = getelementptr inbounds %struct.GPR, %struct.GPR* %3, i32 0, i32 33
  %5 = getelementptr inbounds %struct.Reg, %struct.Reg* %4, i32 0, i32 0
  %PC = bitcast %union.anon* %5 to i64*
  %6 = getelementptr inbounds %struct.State, %struct.State* %0, i32 0, i32 6
  %7 = getelementptr inbounds %struct.GPR, %struct.GPR* %6, i32 0, i32 11
  %8 = getelementptr inbounds %struct.Reg, %struct.Reg* %7, i32 0, i32 0
  %RDI = bitcast %union.anon* %8 to i64*
  %9 = getelementptr inbounds %struct.State, %struct.State* %0, i32 0, i32 6
  %10 = getelementptr inbounds %struct.GPR, %struct.GPR* %9, i32 0, i32 15
  %11 = getelementptr inbounds %struct.Reg, %struct.Reg* %10, i32 0, i32 0
  %RBP = bitcast %union.anon* %11 to i64*
  %12 = load i64, i64* %RBP
  %13 = sub i64 %12, 8
  %14 = load i64, i64* %RDI
  %15 = load i64, i64* %PC
  %16 = add i64 %15, 4
  store i64 %16, i64* %PC
  %17 = inttoptr i64 %13 to i64*
  store i64 %14, i64* %17
  ret %struct.Memory* %2
}

define %struct.Memory* @routine_movl__esi__MINUS0xc__rbp_(%struct.State* dereferenceable(3376), i64, %struct.Memory*) {
block_400488:
  %3 = getelementptr inbounds %struct.State, %struct.State* %0, i32 0, i32 6
  %4 = getelementptr inbounds %struct.GPR, %struct.GPR* %3, i32 0, i32 33
  %5 = getelementptr inbounds %struct.Reg, %struct.Reg* %4, i32 0, i32 0
  %PC = bitcast %union.anon* %5 to i64*
  %6 = getelementptr inbounds %struct.State, %struct.State* %0, i32 0, i32 6
  %7 = getelementptr inbounds %struct.GPR, %struct.GPR* %6, i32 0, i32 9
  %8 = getelementptr inbounds %struct.Reg, %struct.Reg* %7, i32 0, i32 0
  %ESI = bitcast %union.anon* %8 to i32*
  %9 = getelementptr inbounds %struct.State, %struct.State* %0, i32 0, i32 6
  %10 = getelementptr inbounds %struct.GPR, %struct.GPR* %9, i32 0, i32 15
  %11 = getelementptr inbounds %struct.Reg, %struct.Reg* %10, i32 0, i32 0
  %RBP = bitcast %union.anon* %11 to i64*
  %12 = load i64, i64* %RBP
  %13 = sub i64 %12, 12
  %14 = load i32, i32* %ESI
  %15 = zext i32 %14 to i64
  %16 = load i64, i64* %PC
  %17 = add i64 %16, 3
  store i64 %17, i64* %PC
  %18 = inttoptr i64 %13 to i32*
  store i32 %14, i32* %18
  ret %struct.Memory* %2
}

define %struct.Memory* @routine_movq__rdx__MINUS0x18__rbp_(%struct.State* dereferenceable(3376), i64, %struct.Memory*) {
block_400488:
  %3 = getelementptr inbounds %struct.State, %struct.State* %0, i32 0, i32 6
  %4 = getelementptr inbounds %struct.GPR, %struct.GPR* %3, i32 0, i32 33
  %5 = getelementptr inbounds %struct.Reg, %struct.Reg* %4, i32 0, i32 0
  %PC = bitcast %union.anon* %5 to i64*
  %6 = getelementptr inbounds %struct.State, %struct.State* %0, i32 0, i32 6
  %7 = getelementptr inbounds %struct.GPR, %struct.GPR* %6, i32 0, i32 7
  %8 = getelementptr inbounds %struct.Reg, %struct.Reg* %7, i32 0, i32 0
  %RDX = bitcast %union.anon* %8 to i64*
  %9 = getelementptr inbounds %struct.State, %struct.State* %0, i32 0, i32 6
  %10 = getelementptr inbounds %struct.GPR, %struct.GPR* %9, i32 0, i32 15
  %11 = getelementptr inbounds %struct.Reg, %struct.Reg* %10, i32 0, i32 0
  %RBP = bitcast %union.anon* %11 to i64*
  %12 = load i64, i64* %RBP
  %13 = sub i64 %12, 24
  %14 = load i64, i64* %RDX
  %15 = load i64, i64* %PC
  %16 = add i64 %15, 4
  store i64 %16, i64* %PC
  %17 = inttoptr i64 %13 to i64*
  store i64 %14, i64* %17
  ret %struct.Memory* %2
}

define %struct.Memory* @routine_callq_._Z11start_timerv(%struct.State* dereferenceable(3376), i64, %struct.Memory*, i64 %rel_off1, i64 %rel_off2, i64 %rel_off3) {
block_400488:
  %3 = getelementptr inbounds %struct.State, %struct.State* %0, i32 0, i32 6
  %4 = getelementptr inbounds %struct.GPR, %struct.GPR* %3, i32 0, i32 33
  %5 = getelementptr inbounds %struct.Reg, %struct.Reg* %4, i32 0, i32 0
  %PC = bitcast %union.anon* %5 to i64*
  %6 = load i64, i64* %PC
  %7 = add i64 %6, %rel_off1
  %8 = load i64, i64* %PC
  %9 = add i64 %8, %rel_off2
  %10 = load i64, i64* %PC
  %11 = add i64 %10, %rel_off3
  store i64 %11, i64* %PC
  %12 = getelementptr inbounds %struct.State, %struct.State* %0, i64 0, i32 6, i32 13, i32 0, i32 0
  %13 = load i64, i64* %12, align 8
  %14 = add i64 %13, -8
  %15 = inttoptr i64 %14 to i64*
  store i64 %9, i64* %15
  store i64 %14, i64* %12, align 8
  %16 = getelementptr inbounds %struct.State, %struct.State* %0, i64 0, i32 6, i32 33, i32 0, i32 0
  store i64 %7, i64* %16, align 8
  ret %struct.Memory* %2
}

define %struct.Memory* @routine_movl__0x0__MINUS0x1c__rbp_(%struct.State* dereferenceable(3376), i64, %struct.Memory*) {
block_400488:
  %3 = getelementptr inbounds %struct.State, %struct.State* %0, i32 0, i32 6
  %4 = getelementptr inbounds %struct.GPR, %struct.GPR* %3, i32 0, i32 33
  %5 = getelementptr inbounds %struct.Reg, %struct.Reg* %4, i32 0, i32 0
  %PC = bitcast %union.anon* %5 to i64*
  %6 = getelementptr inbounds %struct.State, %struct.State* %0, i32 0, i32 6
  %7 = getelementptr inbounds %struct.GPR, %struct.GPR* %6, i32 0, i32 15
  %8 = getelementptr inbounds %struct.Reg, %struct.Reg* %7, i32 0, i32 0
  %RBP = bitcast %union.anon* %8 to i64*
  %9 = load i64, i64* %RBP
  %10 = sub i64 %9, 28
  %11 = load i64, i64* %PC
  %12 = add i64 %11, 7
  store i64 %12, i64* %PC
  %13 = inttoptr i64 %10 to i32*
  store i32 0, i32* %13
  ret %struct.Memory* %2
}

define %struct.Memory* @routine_movl_MINUS0x1c__rbp____eax(%struct.State* dereferenceable(3376), i64, %struct.Memory*) {
block_400488:
  %3 = getelementptr inbounds %struct.State, %struct.State* %0, i32 0, i32 6
  %4 = getelementptr inbounds %struct.GPR, %struct.GPR* %3, i32 0, i32 33
  %5 = getelementptr inbounds %struct.Reg, %struct.Reg* %4, i32 0, i32 0
  %PC = bitcast %union.anon* %5 to i64*
  %6 = getelementptr inbounds %struct.State, %struct.State* %0, i32 0, i32 6
  %7 = getelementptr inbounds %struct.GPR, %struct.GPR* %6, i32 0, i32 1
  %8 = getelementptr inbounds %struct.Reg, %struct.Reg* %7, i32 0, i32 0
  %RAX = bitcast %union.anon* %8 to i64*
  %9 = getelementptr inbounds %struct.State, %struct.State* %0, i32 0, i32 6
  %10 = getelementptr inbounds %struct.GPR, %struct.GPR* %9, i32 0, i32 15
  %11 = getelementptr inbounds %struct.Reg, %struct.Reg* %10, i32 0, i32 0
  %RBP = bitcast %union.anon* %11 to i64*
  %12 = load i64, i64* %RBP
  %13 = sub i64 %12, 28
  %14 = load i64, i64* %PC
  %15 = add i64 %14, 3
  store i64 %15, i64* %PC
  %16 = inttoptr i64 %13 to i32*
  %17 = load i32, i32* %16
  %18 = zext i32 %17 to i64
  store i64 %18, i64* %RAX, align 8
  ret %struct.Memory* %2
}

define %struct.Memory* @routine_cmpl_0x6220c0___eax(%struct.State* dereferenceable(3376), i64, %struct.Memory*) {
block_400488:
  %3 = getelementptr inbounds %struct.State, %struct.State* %0, i32 0, i32 6
  %4 = getelementptr inbounds %struct.GPR, %struct.GPR* %3, i32 0, i32 33
  %5 = getelementptr inbounds %struct.Reg, %struct.Reg* %4, i32 0, i32 0
  %PC = bitcast %union.anon* %5 to i64*
  %6 = getelementptr inbounds %struct.State, %struct.State* %0, i32 0, i32 6
  %7 = getelementptr inbounds %struct.GPR, %struct.GPR* %6, i32 0, i32 1
  %8 = getelementptr inbounds %struct.Reg, %struct.Reg* %7, i32 0, i32 0
  %EAX = bitcast %union.anon* %8 to i32*
  %9 = load i32, i32* %EAX
  %10 = zext i32 %9 to i64
  %11 = load i64, i64* %PC
  %12 = add i64 %11, 7
  store i64 %12, i64* %PC
  %13 = load i32, i32* inttoptr (i64 6430912 to i32*)
  %14 = sub i32 %9, %13
  %15 = icmp ult i32 %9, %13
  %16 = zext i1 %15 to i8
  %17 = getelementptr inbounds %struct.State, %struct.State* %0, i64 0, i32 2, i32 1
  store i8 %16, i8* %17, align 1
  %18 = and i32 %14, 255
  %19 = call i32 @llvm.ctpop.i32(i32 %18)
  %20 = trunc i32 %19 to i8
  %21 = and i8 %20, 1
  %22 = xor i8 %21, 1
  %23 = getelementptr inbounds %struct.State, %struct.State* %0, i64 0, i32 2, i32 3
  store i8 %22, i8* %23, align 1
  %24 = xor i32 %13, %9
  %25 = xor i32 %24, %14
  %26 = lshr i32 %25, 4
  %27 = trunc i32 %26 to i8
  %28 = and i8 %27, 1
  %29 = getelementptr inbounds %struct.State, %struct.State* %0, i64 0, i32 2, i32 5
  store i8 %28, i8* %29, align 1
  %30 = icmp eq i32 %14, 0
  %31 = zext i1 %30 to i8
  %32 = getelementptr inbounds %struct.State, %struct.State* %0, i64 0, i32 2, i32 7
  store i8 %31, i8* %32, align 1
  %33 = lshr i32 %14, 31
  %34 = trunc i32 %33 to i8
  %35 = getelementptr inbounds %struct.State, %struct.State* %0, i64 0, i32 2, i32 9
  store i8 %34, i8* %35, align 1
  %36 = lshr i32 %9, 31
  %37 = lshr i32 %13, 31
  %38 = xor i32 %37, %36
  %39 = xor i32 %33, %36
  %40 = add i32 %39, %38
  %41 = icmp eq i32 %40, 2
  %42 = zext i1 %41 to i8
  %43 = getelementptr inbounds %struct.State, %struct.State* %0, i64 0, i32 2, i32 13
  store i8 %42, i8* %43, align 1
  ret %struct.Memory* %2
}

define %struct.Memory* @routine_jge_.L_404f6a(%struct.State* dereferenceable(3376), i64, %struct.Memory*, i8* %BRANCH_TAKEN, i64 %rel_off1, i64 %rel_off2, i64 %rel_off3) {
block_400488:
  %3 = getelementptr inbounds %struct.State, %struct.State* %0, i32 0, i32 6
  %4 = getelementptr inbounds %struct.GPR, %struct.GPR* %3, i32 0, i32 33
  %5 = getelementptr inbounds %struct.Reg, %struct.Reg* %4, i32 0, i32 0
  %PC = bitcast %union.anon* %5 to i64*
  %6 = load i64, i64* %PC
  %7 = add i64 %6, %rel_off1
  %8 = load i64, i64* %PC
  %9 = add i64 %8, %rel_off2
  %10 = load i64, i64* %PC
  %11 = add i64 %10, %rel_off3
  store i64 %11, i64* %PC
  %12 = getelementptr inbounds %struct.State, %struct.State* %0, i64 0, i32 2, i32 9
  %13 = load i8, i8* %12, align 1
  %14 = icmp ne i8 %13, 0
  %15 = getelementptr inbounds %struct.State, %struct.State* %0, i64 0, i32 2, i32 13
  %16 = load i8, i8* %15, align 1
  %17 = icmp ne i8 %16, 0
  %18 = xor i1 %14, %17
  %19 = xor i1 %18, true
  %20 = zext i1 %19 to i8
  store i8 %20, i8* %BRANCH_TAKEN, align 1
  %21 = getelementptr inbounds %struct.State, %struct.State* %0, i64 0, i32 6, i32 33, i32 0, i32 0
  %22 = select i1 %18, i64 %9, i64 %7
  store i64 %22, i64* %21, align 8
  ret %struct.Memory* %2
}

define %struct.Memory* @routine_movb__0x0__MINUS0x1d__rbp_(%struct.State* dereferenceable(3376), i64, %struct.Memory*) {
block_400488:
  %3 = getelementptr inbounds %struct.State, %struct.State* %0, i32 0, i32 6
  %4 = getelementptr inbounds %struct.GPR, %struct.GPR* %3, i32 0, i32 33
  %5 = getelementptr inbounds %struct.Reg, %struct.Reg* %4, i32 0, i32 0
  %PC = bitcast %union.anon* %5 to i64*
  %6 = getelementptr inbounds %struct.State, %struct.State* %0, i32 0, i32 6
  %7 = getelementptr inbounds %struct.GPR, %struct.GPR* %6, i32 0, i32 15
  %8 = getelementptr inbounds %struct.Reg, %struct.Reg* %7, i32 0, i32 0
  %RBP = bitcast %union.anon* %8 to i64*
  %9 = load i64, i64* %RBP
  %10 = sub i64 %9, 29
  %11 = load i64, i64* %PC
  %12 = add i64 %11, 4
  store i64 %12, i64* %PC
  %13 = inttoptr i64 %10 to i8*
  store i8 0, i8* %13
  ret %struct.Memory* %2
}

define %struct.Memory* @routine_movl__0x0__MINUS0x24__rbp_(%struct.State* dereferenceable(3376), i64, %struct.Memory*) {
block_400488:
  %3 = getelementptr inbounds %struct.State, %struct.State* %0, i32 0, i32 6
  %4 = getelementptr inbounds %struct.GPR, %struct.GPR* %3, i32 0, i32 33
  %5 = getelementptr inbounds %struct.Reg, %struct.Reg* %4, i32 0, i32 0
  %PC = bitcast %union.anon* %5 to i64*
  %6 = getelementptr inbounds %struct.State, %struct.State* %0, i32 0, i32 6
  %7 = getelementptr inbounds %struct.GPR, %struct.GPR* %6, i32 0, i32 15
  %8 = getelementptr inbounds %struct.Reg, %struct.Reg* %7, i32 0, i32 0
  %RBP = bitcast %union.anon* %8 to i64*
  %9 = load i64, i64* %RBP
  %10 = sub i64 %9, 36
  %11 = load i64, i64* %PC
  %12 = add i64 %11, 7
  store i64 %12, i64* %PC
  %13 = inttoptr i64 %10 to i32*
  store i32 0, i32* %13
  ret %struct.Memory* %2
}

define %struct.Memory* @routine_movl_MINUS0x24__rbp____eax(%struct.State* dereferenceable(3376), i64, %struct.Memory*) {
block_400488:
  %3 = getelementptr inbounds %struct.State, %struct.State* %0, i32 0, i32 6
  %4 = getelementptr inbounds %struct.GPR, %struct.GPR* %3, i32 0, i32 33
  %5 = getelementptr inbounds %struct.Reg, %struct.Reg* %4, i32 0, i32 0
  %PC = bitcast %union.anon* %5 to i64*
  %6 = getelementptr inbounds %struct.State, %struct.State* %0, i32 0, i32 6
  %7 = getelementptr inbounds %struct.GPR, %struct.GPR* %6, i32 0, i32 1
  %8 = getelementptr inbounds %struct.Reg, %struct.Reg* %7, i32 0, i32 0
  %RAX = bitcast %union.anon* %8 to i64*
  %9 = getelementptr inbounds %struct.State, %struct.State* %0, i32 0, i32 6
  %10 = getelementptr inbounds %struct.GPR, %struct.GPR* %9, i32 0, i32 15
  %11 = getelementptr inbounds %struct.Reg, %struct.Reg* %10, i32 0, i32 0
  %RBP = bitcast %union.anon* %11 to i64*
  %12 = load i64, i64* %RBP
  %13 = sub i64 %12, 36
  %14 = load i64, i64* %PC
  %15 = add i64 %14, 3
  store i64 %15, i64* %PC
  %16 = inttoptr i64 %13 to i32*
  %17 = load i32, i32* %16
  %18 = zext i32 %17 to i64
  store i64 %18, i64* %RAX, align 8
  ret %struct.Memory* %2
}

define %struct.Memory* @routine_cmpl_MINUS0xc__rbp____eax(%struct.State* dereferenceable(3376), i64, %struct.Memory*) {
block_400488:
  %3 = getelementptr inbounds %struct.State, %struct.State* %0, i32 0, i32 6
  %4 = getelementptr inbounds %struct.GPR, %struct.GPR* %3, i32 0, i32 33
  %5 = getelementptr inbounds %struct.Reg, %struct.Reg* %4, i32 0, i32 0
  %PC = bitcast %union.anon* %5 to i64*
  %6 = getelementptr inbounds %struct.State, %struct.State* %0, i32 0, i32 6
  %7 = getelementptr inbounds %struct.GPR, %struct.GPR* %6, i32 0, i32 1
  %8 = getelementptr inbounds %struct.Reg, %struct.Reg* %7, i32 0, i32 0
  %EAX = bitcast %union.anon* %8 to i32*
  %9 = getelementptr inbounds %struct.State, %struct.State* %0, i32 0, i32 6
  %10 = getelementptr inbounds %struct.GPR, %struct.GPR* %9, i32 0, i32 15
  %11 = getelementptr inbounds %struct.Reg, %struct.Reg* %10, i32 0, i32 0
  %RBP = bitcast %union.anon* %11 to i64*
  %12 = load i32, i32* %EAX
  %13 = zext i32 %12 to i64
  %14 = load i64, i64* %RBP
  %15 = sub i64 %14, 12
  %16 = load i64, i64* %PC
  %17 = add i64 %16, 3
  store i64 %17, i64* %PC
  %18 = inttoptr i64 %15 to i32*
  %19 = load i32, i32* %18
  %20 = sub i32 %12, %19
  %21 = icmp ult i32 %12, %19
  %22 = zext i1 %21 to i8
  %23 = getelementptr inbounds %struct.State, %struct.State* %0, i64 0, i32 2, i32 1
  store i8 %22, i8* %23, align 1
  %24 = and i32 %20, 255
  %25 = call i32 @llvm.ctpop.i32(i32 %24)
  %26 = trunc i32 %25 to i8
  %27 = and i8 %26, 1
  %28 = xor i8 %27, 1
  %29 = getelementptr inbounds %struct.State, %struct.State* %0, i64 0, i32 2, i32 3
  store i8 %28, i8* %29, align 1
  %30 = xor i32 %19, %12
  %31 = xor i32 %30, %20
  %32 = lshr i32 %31, 4
  %33 = trunc i32 %32 to i8
  %34 = and i8 %33, 1
  %35 = getelementptr inbounds %struct.State, %struct.State* %0, i64 0, i32 2, i32 5
  store i8 %34, i8* %35, align 1
  %36 = icmp eq i32 %20, 0
  %37 = zext i1 %36 to i8
  %38 = getelementptr inbounds %struct.State, %struct.State* %0, i64 0, i32 2, i32 7
  store i8 %37, i8* %38, align 1
  %39 = lshr i32 %20, 31
  %40 = trunc i32 %39 to i8
  %41 = getelementptr inbounds %struct.State, %struct.State* %0, i64 0, i32 2, i32 9
  store i8 %40, i8* %41, align 1
  %42 = lshr i32 %12, 31
  %43 = lshr i32 %19, 31
  %44 = xor i32 %43, %42
  %45 = xor i32 %39, %42
  %46 = add i32 %45, %44
  %47 = icmp eq i32 %46, 2
  %48 = zext i1 %47 to i8
  %49 = getelementptr inbounds %struct.State, %struct.State* %0, i64 0, i32 2, i32 13
  store i8 %48, i8* %49, align 1
  ret %struct.Memory* %2
}

define %struct.Memory* @routine_jge_.L_404f53(%struct.State* dereferenceable(3376), i64, %struct.Memory*, i8* %BRANCH_TAKEN, i64 %rel_off1, i64 %rel_off2, i64 %rel_off3) {
block_400488:
  %3 = getelementptr inbounds %struct.State, %struct.State* %0, i32 0, i32 6
  %4 = getelementptr inbounds %struct.GPR, %struct.GPR* %3, i32 0, i32 33
  %5 = getelementptr inbounds %struct.Reg, %struct.Reg* %4, i32 0, i32 0
  %PC = bitcast %union.anon* %5 to i64*
  %6 = load i64, i64* %PC
  %7 = add i64 %6, %rel_off1
  %8 = load i64, i64* %PC
  %9 = add i64 %8, %rel_off2
  %10 = load i64, i64* %PC
  %11 = add i64 %10, %rel_off3
  store i64 %11, i64* %PC
  %12 = getelementptr inbounds %struct.State, %struct.State* %0, i64 0, i32 2, i32 9
  %13 = load i8, i8* %12, align 1
  %14 = icmp ne i8 %13, 0
  %15 = getelementptr inbounds %struct.State, %struct.State* %0, i64 0, i32 2, i32 13
  %16 = load i8, i8* %15, align 1
  %17 = icmp ne i8 %16, 0
  %18 = xor i1 %14, %17
  %19 = xor i1 %18, true
  %20 = zext i1 %19 to i8
  store i8 %20, i8* %BRANCH_TAKEN, align 1
  %21 = getelementptr inbounds %struct.State, %struct.State* %0, i64 0, i32 6, i32 33, i32 0, i32 0
  %22 = select i1 %18, i64 %9, i64 %7
  store i64 %22, i64* %21, align 8
  ret %struct.Memory* %2
}

define %struct.Memory* @routine_movq_MINUS0x8__rbp____rax(%struct.State* dereferenceable(3376), i64, %struct.Memory*) {
block_400488:
  %3 = getelementptr inbounds %struct.State, %struct.State* %0, i32 0, i32 6
  %4 = getelementptr inbounds %struct.GPR, %struct.GPR* %3, i32 0, i32 33
  %5 = getelementptr inbounds %struct.Reg, %struct.Reg* %4, i32 0, i32 0
  %PC = bitcast %union.anon* %5 to i64*
  %6 = getelementptr inbounds %struct.State, %struct.State* %0, i32 0, i32 6
  %7 = getelementptr inbounds %struct.GPR, %struct.GPR* %6, i32 0, i32 1
  %8 = getelementptr inbounds %struct.Reg, %struct.Reg* %7, i32 0, i32 0
  %RAX = bitcast %union.anon* %8 to i64*
  %9 = getelementptr inbounds %struct.State, %struct.State* %0, i32 0, i32 6
  %10 = getelementptr inbounds %struct.GPR, %struct.GPR* %9, i32 0, i32 15
  %11 = getelementptr inbounds %struct.Reg, %struct.Reg* %10, i32 0, i32 0
  %RBP = bitcast %union.anon* %11 to i64*
  %12 = load i64, i64* %RBP
  %13 = sub i64 %12, 8
  %14 = load i64, i64* %PC
  %15 = add i64 %14, 4
  store i64 %15, i64* %PC
  %16 = inttoptr i64 %13 to i64*
  %17 = load i64, i64* %16
  store i64 %17, i64* %RAX, align 8
  ret %struct.Memory* %2
}

define %struct.Memory* @routine_movslq_MINUS0x24__rbp____rcx(%struct.State* dereferenceable(3376), i64, %struct.Memory*) {
block_400488:
  %3 = getelementptr inbounds %struct.State, %struct.State* %0, i32 0, i32 6
  %4 = getelementptr inbounds %struct.GPR, %struct.GPR* %3, i32 0, i32 33
  %5 = getelementptr inbounds %struct.Reg, %struct.Reg* %4, i32 0, i32 0
  %PC = bitcast %union.anon* %5 to i64*
  %6 = getelementptr inbounds %struct.State, %struct.State* %0, i32 0, i32 6
  %7 = getelementptr inbounds %struct.GPR, %struct.GPR* %6, i32 0, i32 5
  %8 = getelementptr inbounds %struct.Reg, %struct.Reg* %7, i32 0, i32 0
  %RCX = bitcast %union.anon* %8 to i64*
  %9 = getelementptr inbounds %struct.State, %struct.State* %0, i32 0, i32 6
  %10 = getelementptr inbounds %struct.GPR, %struct.GPR* %9, i32 0, i32 15
  %11 = getelementptr inbounds %struct.Reg, %struct.Reg* %10, i32 0, i32 0
  %RBP = bitcast %union.anon* %11 to i64*
  %12 = load i64, i64* %RBP
  %13 = sub i64 %12, 36
  %14 = load i64, i64* %PC
  %15 = add i64 %14, 4
  store i64 %15, i64* %PC
  %16 = inttoptr i64 %13 to i32*
  %17 = load i32, i32* %16
  %18 = sext i32 %17 to i64
  store i64 %18, i64* %RCX, align 8
  ret %struct.Memory* %2
}

define %struct.Memory* @routine_movzbl___rax__rcx_1____edi(%struct.State* dereferenceable(3376), i64, %struct.Memory*) {
block_400488:
  %3 = getelementptr inbounds %struct.State, %struct.State* %0, i32 0, i32 6
  %4 = getelementptr inbounds %struct.GPR, %struct.GPR* %3, i32 0, i32 33
  %5 = getelementptr inbounds %struct.Reg, %struct.Reg* %4, i32 0, i32 0
  %PC = bitcast %union.anon* %5 to i64*
  %6 = getelementptr inbounds %struct.State, %struct.State* %0, i32 0, i32 6
  %7 = getelementptr inbounds %struct.GPR, %struct.GPR* %6, i32 0, i32 1
  %8 = getelementptr inbounds %struct.Reg, %struct.Reg* %7, i32 0, i32 0
  %RAX = bitcast %union.anon* %8 to i64*
  %9 = getelementptr inbounds %struct.State, %struct.State* %0, i32 0, i32 6
  %10 = getelementptr inbounds %struct.GPR, %struct.GPR* %9, i32 0, i32 5
  %11 = getelementptr inbounds %struct.Reg, %struct.Reg* %10, i32 0, i32 0
  %RCX = bitcast %union.anon* %11 to i64*
  %12 = getelementptr inbounds %struct.State, %struct.State* %0, i32 0, i32 6
  %13 = getelementptr inbounds %struct.GPR, %struct.GPR* %12, i32 0, i32 11
  %14 = getelementptr inbounds %struct.Reg, %struct.Reg* %13, i32 0, i32 0
  %RDI = bitcast %union.anon* %14 to i64*
  %15 = load i64, i64* %RAX
  %16 = load i64, i64* %RCX
  %17 = add i64 %16, %15
  %18 = load i64, i64* %PC
  %19 = add i64 %18, 4
  store i64 %19, i64* %PC
  %20 = inttoptr i64 %17 to i8*
  %21 = load i8, i8* %20
  %22 = zext i8 %21 to i64
  store i64 %22, i64* %RDI, align 8
  ret %struct.Memory* %2
}

define %struct.Memory* @routine_callq_._ZN32custom_multiple_constant_divide2IhE8do_shiftEh(%struct.State* dereferenceable(3376), i64, %struct.Memory*, i64 %rel_off1, i64 %rel_off2, i64 %rel_off3) {
block_400488:
  %3 = getelementptr inbounds %struct.State, %struct.State* %0, i32 0, i32 6
  %4 = getelementptr inbounds %struct.GPR, %struct.GPR* %3, i32 0, i32 33
  %5 = getelementptr inbounds %struct.Reg, %struct.Reg* %4, i32 0, i32 0
  %PC = bitcast %union.anon* %5 to i64*
  %6 = load i64, i64* %PC
  %7 = add i64 %6, %rel_off1
  %8 = load i64, i64* %PC
  %9 = add i64 %8, %rel_off2
  %10 = load i64, i64* %PC
  %11 = add i64 %10, %rel_off3
  store i64 %11, i64* %PC
  %12 = getelementptr inbounds %struct.State, %struct.State* %0, i64 0, i32 6, i32 13, i32 0, i32 0
  %13 = load i64, i64* %12, align 8
  %14 = add i64 %13, -8
  %15 = inttoptr i64 %14 to i64*
  store i64 %9, i64* %15
  store i64 %14, i64* %12, align 8
  %16 = getelementptr inbounds %struct.State, %struct.State* %0, i64 0, i32 6, i32 33, i32 0, i32 0
  store i64 %7, i64* %16, align 8
  ret %struct.Memory* %2
}

define %struct.Memory* @routine_movzbl__al___edi(%struct.State* dereferenceable(3376), i64, %struct.Memory*) {
block_400488:
  %3 = getelementptr inbounds %struct.State, %struct.State* %0, i32 0, i32 6
  %4 = getelementptr inbounds %struct.GPR, %struct.GPR* %3, i32 0, i32 33
  %5 = getelementptr inbounds %struct.Reg, %struct.Reg* %4, i32 0, i32 0
  %PC = bitcast %union.anon* %5 to i64*
  %6 = getelementptr inbounds %struct.State, %struct.State* %0, i32 0, i32 6
  %7 = getelementptr inbounds %struct.GPR, %struct.GPR* %6, i32 0, i32 1
  %8 = getelementptr inbounds %struct.Reg, %struct.Reg* %7, i32 0, i32 0
  %9 = bitcast %union.anon* %8 to %struct.anon.2*
  %AL = getelementptr inbounds %struct.anon.2, %struct.anon.2* %9, i32 0, i32 0
  %10 = getelementptr inbounds %struct.State, %struct.State* %0, i32 0, i32 6
  %11 = getelementptr inbounds %struct.GPR, %struct.GPR* %10, i32 0, i32 11
  %12 = getelementptr inbounds %struct.Reg, %struct.Reg* %11, i32 0, i32 0
  %RDI = bitcast %union.anon* %12 to i64*
  %13 = load i8, i8* %AL
  %14 = zext i8 %13 to i64
  %15 = load i64, i64* %PC
  %16 = add i64 %15, 3
  store i64 %16, i64* %PC
  %17 = and i64 %14, 255
  store i64 %17, i64* %RDI, align 8
  ret %struct.Memory* %2
}

define %struct.Memory* @routine_movzbl_MINUS0x1d__rbp____edx(%struct.State* dereferenceable(3376), i64, %struct.Memory*) {
block_400488:
  %3 = getelementptr inbounds %struct.State, %struct.State* %0, i32 0, i32 6
  %4 = getelementptr inbounds %struct.GPR, %struct.GPR* %3, i32 0, i32 33
  %5 = getelementptr inbounds %struct.Reg, %struct.Reg* %4, i32 0, i32 0
  %PC = bitcast %union.anon* %5 to i64*
  %6 = getelementptr inbounds %struct.State, %struct.State* %0, i32 0, i32 6
  %7 = getelementptr inbounds %struct.GPR, %struct.GPR* %6, i32 0, i32 7
  %8 = getelementptr inbounds %struct.Reg, %struct.Reg* %7, i32 0, i32 0
  %RDX = bitcast %union.anon* %8 to i64*
  %9 = getelementptr inbounds %struct.State, %struct.State* %0, i32 0, i32 6
  %10 = getelementptr inbounds %struct.GPR, %struct.GPR* %9, i32 0, i32 15
  %11 = getelementptr inbounds %struct.Reg, %struct.Reg* %10, i32 0, i32 0
  %RBP = bitcast %union.anon* %11 to i64*
  %12 = load i64, i64* %RBP
  %13 = sub i64 %12, 29
  %14 = load i64, i64* %PC
  %15 = add i64 %14, 4
  store i64 %15, i64* %PC
  %16 = inttoptr i64 %13 to i8*
  %17 = load i8, i8* %16
  %18 = zext i8 %17 to i64
  store i64 %18, i64* %RDX, align 8
  ret %struct.Memory* %2
}

define %struct.Memory* @routine_addl__edi___edx(%struct.State* dereferenceable(3376), i64, %struct.Memory*) {
block_400488:
  %3 = getelementptr inbounds %struct.State, %struct.State* %0, i32 0, i32 6
  %4 = getelementptr inbounds %struct.GPR, %struct.GPR* %3, i32 0, i32 33
  %5 = getelementptr inbounds %struct.Reg, %struct.Reg* %4, i32 0, i32 0
  %PC = bitcast %union.anon* %5 to i64*
  %6 = getelementptr inbounds %struct.State, %struct.State* %0, i32 0, i32 6
  %7 = getelementptr inbounds %struct.GPR, %struct.GPR* %6, i32 0, i32 11
  %8 = getelementptr inbounds %struct.Reg, %struct.Reg* %7, i32 0, i32 0
  %EDI = bitcast %union.anon* %8 to i32*
  %9 = getelementptr inbounds %struct.State, %struct.State* %0, i32 0, i32 6
  %10 = getelementptr inbounds %struct.GPR, %struct.GPR* %9, i32 0, i32 7
  %11 = getelementptr inbounds %struct.Reg, %struct.Reg* %10, i32 0, i32 0
  %RDX = bitcast %union.anon* %11 to i64*
  %12 = load i64, i64* %RDX
  %13 = load i32, i32* %EDI
  %14 = zext i32 %13 to i64
  %15 = load i64, i64* %PC
  %16 = add i64 %15, 2
  store i64 %16, i64* %PC
  %17 = trunc i64 %12 to i32
  %18 = add i32 %13, %17
  %19 = zext i32 %18 to i64
  store i64 %19, i64* %RDX, align 8
  %20 = icmp ult i32 %18, %17
  %21 = icmp ult i32 %18, %13
  %22 = or i1 %20, %21
  %23 = zext i1 %22 to i8
  %24 = getelementptr inbounds %struct.State, %struct.State* %0, i64 0, i32 2, i32 1
  store i8 %23, i8* %24, align 1
  %25 = and i32 %18, 255
  %26 = call i32 @llvm.ctpop.i32(i32 %25)
  %27 = trunc i32 %26 to i8
  %28 = and i8 %27, 1
  %29 = xor i8 %28, 1
  %30 = getelementptr inbounds %struct.State, %struct.State* %0, i64 0, i32 2, i32 3
  store i8 %29, i8* %30, align 1
  %31 = xor i64 %14, %12
  %32 = trunc i64 %31 to i32
  %33 = xor i32 %32, %18
  %34 = lshr i32 %33, 4
  %35 = trunc i32 %34 to i8
  %36 = and i8 %35, 1
  %37 = getelementptr inbounds %struct.State, %struct.State* %0, i64 0, i32 2, i32 5
  store i8 %36, i8* %37, align 1
  %38 = icmp eq i32 %18, 0
  %39 = zext i1 %38 to i8
  %40 = getelementptr inbounds %struct.State, %struct.State* %0, i64 0, i32 2, i32 7
  store i8 %39, i8* %40, align 1
  %41 = lshr i32 %18, 31
  %42 = trunc i32 %41 to i8
  %43 = getelementptr inbounds %struct.State, %struct.State* %0, i64 0, i32 2, i32 9
  store i8 %42, i8* %43, align 1
  %44 = lshr i32 %17, 31
  %45 = lshr i32 %13, 31
  %46 = xor i32 %41, %44
  %47 = xor i32 %41, %45
  %48 = add i32 %46, %47
  %49 = icmp eq i32 %48, 2
  %50 = zext i1 %49 to i8
  %51 = getelementptr inbounds %struct.State, %struct.State* %0, i64 0, i32 2, i32 13
  store i8 %50, i8* %51, align 1
  ret %struct.Memory* %2
}

define %struct.Memory* @routine_movb__dl___al(%struct.State* dereferenceable(3376), i64, %struct.Memory*) {
block_400488:
  %3 = getelementptr inbounds %struct.State, %struct.State* %0, i32 0, i32 6
  %4 = getelementptr inbounds %struct.GPR, %struct.GPR* %3, i32 0, i32 33
  %5 = getelementptr inbounds %struct.Reg, %struct.Reg* %4, i32 0, i32 0
  %PC = bitcast %union.anon* %5 to i64*
  %6 = getelementptr inbounds %struct.State, %struct.State* %0, i32 0, i32 6
  %7 = getelementptr inbounds %struct.GPR, %struct.GPR* %6, i32 0, i32 1
  %8 = getelementptr inbounds %struct.Reg, %struct.Reg* %7, i32 0, i32 0
  %9 = bitcast %union.anon* %8 to %struct.anon.2*
  %AL = getelementptr inbounds %struct.anon.2, %struct.anon.2* %9, i32 0, i32 0
  %10 = getelementptr inbounds %struct.State, %struct.State* %0, i32 0, i32 6
  %11 = getelementptr inbounds %struct.GPR, %struct.GPR* %10, i32 0, i32 7
  %12 = getelementptr inbounds %struct.Reg, %struct.Reg* %11, i32 0, i32 0
  %13 = bitcast %union.anon* %12 to %struct.anon.2*
  %DL = getelementptr inbounds %struct.anon.2, %struct.anon.2* %13, i32 0, i32 0
  %14 = load i8, i8* %DL
  %15 = zext i8 %14 to i64
  %16 = load i64, i64* %PC
  %17 = add i64 %16, 2
  store i64 %17, i64* %PC
  store i8 %14, i8* %AL, align 1
  ret %struct.Memory* %2
}

define %struct.Memory* @routine_movb__al__MINUS0x1d__rbp_(%struct.State* dereferenceable(3376), i64, %struct.Memory*) {
block_400488:
  %3 = getelementptr inbounds %struct.State, %struct.State* %0, i32 0, i32 6
  %4 = getelementptr inbounds %struct.GPR, %struct.GPR* %3, i32 0, i32 33
  %5 = getelementptr inbounds %struct.Reg, %struct.Reg* %4, i32 0, i32 0
  %PC = bitcast %union.anon* %5 to i64*
  %6 = getelementptr inbounds %struct.State, %struct.State* %0, i32 0, i32 6
  %7 = getelementptr inbounds %struct.GPR, %struct.GPR* %6, i32 0, i32 1
  %8 = getelementptr inbounds %struct.Reg, %struct.Reg* %7, i32 0, i32 0
  %9 = bitcast %union.anon* %8 to %struct.anon.2*
  %AL = getelementptr inbounds %struct.anon.2, %struct.anon.2* %9, i32 0, i32 0
  %10 = getelementptr inbounds %struct.State, %struct.State* %0, i32 0, i32 6
  %11 = getelementptr inbounds %struct.GPR, %struct.GPR* %10, i32 0, i32 15
  %12 = getelementptr inbounds %struct.Reg, %struct.Reg* %11, i32 0, i32 0
  %RBP = bitcast %union.anon* %12 to i64*
  %13 = load i64, i64* %RBP
  %14 = sub i64 %13, 29
  %15 = load i8, i8* %AL
  %16 = zext i8 %15 to i64
  %17 = load i64, i64* %PC
  %18 = add i64 %17, 3
  store i64 %18, i64* %PC
  %19 = inttoptr i64 %14 to i8*
  store i8 %15, i8* %19
  ret %struct.Memory* %2
}

define %struct.Memory* @routine_addl__0x1___eax(%struct.State* dereferenceable(3376), i64, %struct.Memory*) {
block_400488:
  %3 = getelementptr inbounds %struct.State, %struct.State* %0, i32 0, i32 6
  %4 = getelementptr inbounds %struct.GPR, %struct.GPR* %3, i32 0, i32 33
  %5 = getelementptr inbounds %struct.Reg, %struct.Reg* %4, i32 0, i32 0
  %PC = bitcast %union.anon* %5 to i64*
  %6 = getelementptr inbounds %struct.State, %struct.State* %0, i32 0, i32 6
  %7 = getelementptr inbounds %struct.GPR, %struct.GPR* %6, i32 0, i32 1
  %8 = getelementptr inbounds %struct.Reg, %struct.Reg* %7, i32 0, i32 0
  %RAX = bitcast %union.anon* %8 to i64*
  %9 = load i64, i64* %RAX
  %10 = load i64, i64* %PC
  %11 = add i64 %10, 3
  store i64 %11, i64* %PC
  %12 = trunc i64 %9 to i32
  %13 = add i32 1, %12
  %14 = zext i32 %13 to i64
  store i64 %14, i64* %RAX, align 8
  %15 = icmp ult i32 %13, %12
  %16 = icmp ult i32 %13, 1
  %17 = or i1 %15, %16
  %18 = zext i1 %17 to i8
  %19 = getelementptr inbounds %struct.State, %struct.State* %0, i64 0, i32 2, i32 1
  store i8 %18, i8* %19, align 1
  %20 = and i32 %13, 255
  %21 = call i32 @llvm.ctpop.i32(i32 %20)
  %22 = trunc i32 %21 to i8
  %23 = and i8 %22, 1
  %24 = xor i8 %23, 1
  %25 = getelementptr inbounds %struct.State, %struct.State* %0, i64 0, i32 2, i32 3
  store i8 %24, i8* %25, align 1
  %26 = xor i64 1, %9
  %27 = trunc i64 %26 to i32
  %28 = xor i32 %27, %13
  %29 = lshr i32 %28, 4
  %30 = trunc i32 %29 to i8
  %31 = and i8 %30, 1
  %32 = getelementptr inbounds %struct.State, %struct.State* %0, i64 0, i32 2, i32 5
  store i8 %31, i8* %32, align 1
  %33 = icmp eq i32 %13, 0
  %34 = zext i1 %33 to i8
  %35 = getelementptr inbounds %struct.State, %struct.State* %0, i64 0, i32 2, i32 7
  store i8 %34, i8* %35, align 1
  %36 = lshr i32 %13, 31
  %37 = trunc i32 %36 to i8
  %38 = getelementptr inbounds %struct.State, %struct.State* %0, i64 0, i32 2, i32 9
  store i8 %37, i8* %38, align 1
  %39 = lshr i32 %12, 31
  %40 = xor i32 %36, %39
  %41 = add i32 %40, %36
  %42 = icmp eq i32 %41, 2
  %43 = zext i1 %42 to i8
  %44 = getelementptr inbounds %struct.State, %struct.State* %0, i64 0, i32 2, i32 13
  store i8 %43, i8* %44, align 1
  ret %struct.Memory* %2
}

define %struct.Memory* @routine_movl__eax__MINUS0x24__rbp_(%struct.State* dereferenceable(3376), i64, %struct.Memory*) {
block_400488:
  %3 = getelementptr inbounds %struct.State, %struct.State* %0, i32 0, i32 6
  %4 = getelementptr inbounds %struct.GPR, %struct.GPR* %3, i32 0, i32 33
  %5 = getelementptr inbounds %struct.Reg, %struct.Reg* %4, i32 0, i32 0
  %PC = bitcast %union.anon* %5 to i64*
  %6 = getelementptr inbounds %struct.State, %struct.State* %0, i32 0, i32 6
  %7 = getelementptr inbounds %struct.GPR, %struct.GPR* %6, i32 0, i32 1
  %8 = getelementptr inbounds %struct.Reg, %struct.Reg* %7, i32 0, i32 0
  %EAX = bitcast %union.anon* %8 to i32*
  %9 = getelementptr inbounds %struct.State, %struct.State* %0, i32 0, i32 6
  %10 = getelementptr inbounds %struct.GPR, %struct.GPR* %9, i32 0, i32 15
  %11 = getelementptr inbounds %struct.Reg, %struct.Reg* %10, i32 0, i32 0
  %RBP = bitcast %union.anon* %11 to i64*
  %12 = load i64, i64* %RBP
  %13 = sub i64 %12, 36
  %14 = load i32, i32* %EAX
  %15 = zext i32 %14 to i64
  %16 = load i64, i64* %PC
  %17 = add i64 %16, 3
  store i64 %17, i64* %PC
  %18 = inttoptr i64 %13 to i32*
  store i32 %14, i32* %18
  ret %struct.Memory* %2
}

define %struct.Memory* @routine_jmpq_.L_404f1a(%struct.State* dereferenceable(3376), i64, %struct.Memory*, i64 %rel_off1, i64 %rel_off2) {
block_400488:
  %3 = getelementptr inbounds %struct.State, %struct.State* %0, i32 0, i32 6
  %4 = getelementptr inbounds %struct.GPR, %struct.GPR* %3, i32 0, i32 33
  %5 = getelementptr inbounds %struct.Reg, %struct.Reg* %4, i32 0, i32 0
  %PC = bitcast %union.anon* %5 to i64*
  %6 = load i64, i64* %PC
  %7 = add i64 %6, %rel_off1
  %8 = load i64, i64* %PC
  %9 = add i64 %8, %rel_off2
  store i64 %9, i64* %PC
  %10 = getelementptr inbounds %struct.State, %struct.State* %0, i64 0, i32 6, i32 33, i32 0, i32 0
  store i64 %7, i64* %10, align 8
  ret %struct.Memory* %2
}

define %struct.Memory* @routine_movzbl_MINUS0x1d__rbp____edi(%struct.State* dereferenceable(3376), i64, %struct.Memory*) {
block_400488:
  %3 = getelementptr inbounds %struct.State, %struct.State* %0, i32 0, i32 6
  %4 = getelementptr inbounds %struct.GPR, %struct.GPR* %3, i32 0, i32 33
  %5 = getelementptr inbounds %struct.Reg, %struct.Reg* %4, i32 0, i32 0
  %PC = bitcast %union.anon* %5 to i64*
  %6 = getelementptr inbounds %struct.State, %struct.State* %0, i32 0, i32 6
  %7 = getelementptr inbounds %struct.GPR, %struct.GPR* %6, i32 0, i32 11
  %8 = getelementptr inbounds %struct.Reg, %struct.Reg* %7, i32 0, i32 0
  %RDI = bitcast %union.anon* %8 to i64*
  %9 = getelementptr inbounds %struct.State, %struct.State* %0, i32 0, i32 6
  %10 = getelementptr inbounds %struct.GPR, %struct.GPR* %9, i32 0, i32 15
  %11 = getelementptr inbounds %struct.Reg, %struct.Reg* %10, i32 0, i32 0
  %RBP = bitcast %union.anon* %11 to i64*
  %12 = load i64, i64* %RBP
  %13 = sub i64 %12, 29
  %14 = load i64, i64* %PC
  %15 = add i64 %14, 4
  store i64 %15, i64* %PC
  %16 = inttoptr i64 %13 to i8*
  %17 = load i8, i8* %16
  %18 = zext i8 %17 to i64
  store i64 %18, i64* %RDI, align 8
  ret %struct.Memory* %2
}

define %struct.Memory* @routine_callq_._Z17check_shifted_sumIh32custom_multiple_constant_divide2IhEEvT_(%struct.State* dereferenceable(3376), i64, %struct.Memory*, i64 %rel_off1, i64 %rel_off2, i64 %rel_off3) {
block_400488:
  %3 = getelementptr inbounds %struct.State, %struct.State* %0, i32 0, i32 6
  %4 = getelementptr inbounds %struct.GPR, %struct.GPR* %3, i32 0, i32 33
  %5 = getelementptr inbounds %struct.Reg, %struct.Reg* %4, i32 0, i32 0
  %PC = bitcast %union.anon* %5 to i64*
  %6 = load i64, i64* %PC
  %7 = add i64 %6, %rel_off1
  %8 = load i64, i64* %PC
  %9 = add i64 %8, %rel_off2
  %10 = load i64, i64* %PC
  %11 = add i64 %10, %rel_off3
  store i64 %11, i64* %PC
  %12 = getelementptr inbounds %struct.State, %struct.State* %0, i64 0, i32 6, i32 13, i32 0, i32 0
  %13 = load i64, i64* %12, align 8
  %14 = add i64 %13, -8
  %15 = inttoptr i64 %14 to i64*
  store i64 %9, i64* %15
  store i64 %14, i64* %12, align 8
  %16 = getelementptr inbounds %struct.State, %struct.State* %0, i64 0, i32 6, i32 33, i32 0, i32 0
  store i64 %7, i64* %16, align 8
  ret %struct.Memory* %2
}

define %struct.Memory* @routine_movl__eax__MINUS0x1c__rbp_(%struct.State* dereferenceable(3376), i64, %struct.Memory*) {
block_400488:
  %3 = getelementptr inbounds %struct.State, %struct.State* %0, i32 0, i32 6
  %4 = getelementptr inbounds %struct.GPR, %struct.GPR* %3, i32 0, i32 33
  %5 = getelementptr inbounds %struct.Reg, %struct.Reg* %4, i32 0, i32 0
  %PC = bitcast %union.anon* %5 to i64*
  %6 = getelementptr inbounds %struct.State, %struct.State* %0, i32 0, i32 6
  %7 = getelementptr inbounds %struct.GPR, %struct.GPR* %6, i32 0, i32 1
  %8 = getelementptr inbounds %struct.Reg, %struct.Reg* %7, i32 0, i32 0
  %EAX = bitcast %union.anon* %8 to i32*
  %9 = getelementptr inbounds %struct.State, %struct.State* %0, i32 0, i32 6
  %10 = getelementptr inbounds %struct.GPR, %struct.GPR* %9, i32 0, i32 15
  %11 = getelementptr inbounds %struct.Reg, %struct.Reg* %10, i32 0, i32 0
  %RBP = bitcast %union.anon* %11 to i64*
  %12 = load i64, i64* %RBP
  %13 = sub i64 %12, 28
  %14 = load i32, i32* %EAX
  %15 = zext i32 %14 to i64
  %16 = load i64, i64* %PC
  %17 = add i64 %16, 3
  store i64 %17, i64* %PC
  %18 = inttoptr i64 %13 to i32*
  store i32 %14, i32* %18
  ret %struct.Memory* %2
}

define %struct.Memory* @routine_jmpq_.L_404eff(%struct.State* dereferenceable(3376), i64, %struct.Memory*, i64 %rel_off1, i64 %rel_off2) {
block_400488:
  %3 = getelementptr inbounds %struct.State, %struct.State* %0, i32 0, i32 6
  %4 = getelementptr inbounds %struct.GPR, %struct.GPR* %3, i32 0, i32 33
  %5 = getelementptr inbounds %struct.Reg, %struct.Reg* %4, i32 0, i32 0
  %PC = bitcast %union.anon* %5 to i64*
  %6 = load i64, i64* %PC
  %7 = add i64 %6, %rel_off1
  %8 = load i64, i64* %PC
  %9 = add i64 %8, %rel_off2
  store i64 %9, i64* %PC
  %10 = getelementptr inbounds %struct.State, %struct.State* %0, i64 0, i32 6, i32 33, i32 0, i32 0
  store i64 %7, i64* %10, align 8
  ret %struct.Memory* %2
}

define %struct.Memory* @routine_callq_._Z5timerv(%struct.State* dereferenceable(3376), i64, %struct.Memory*, i64 %rel_off1, i64 %rel_off2, i64 %rel_off3) {
block_400488:
  %3 = getelementptr inbounds %struct.State, %struct.State* %0, i32 0, i32 6
  %4 = getelementptr inbounds %struct.GPR, %struct.GPR* %3, i32 0, i32 33
  %5 = getelementptr inbounds %struct.Reg, %struct.Reg* %4, i32 0, i32 0
  %PC = bitcast %union.anon* %5 to i64*
  %6 = load i64, i64* %PC
  %7 = add i64 %6, %rel_off1
  %8 = load i64, i64* %PC
  %9 = add i64 %8, %rel_off2
  %10 = load i64, i64* %PC
  %11 = add i64 %10, %rel_off3
  store i64 %11, i64* %PC
  %12 = getelementptr inbounds %struct.State, %struct.State* %0, i64 0, i32 6, i32 13, i32 0, i32 0
  %13 = load i64, i64* %12, align 8
  %14 = add i64 %13, -8
  %15 = inttoptr i64 %14 to i64*
  store i64 %9, i64* %15
  store i64 %14, i64* %12, align 8
  %16 = getelementptr inbounds %struct.State, %struct.State* %0, i64 0, i32 6, i32 33, i32 0, i32 0
  store i64 %7, i64* %16, align 8
  ret %struct.Memory* %2
}

define %struct.Memory* @routine_movq_MINUS0x18__rbp____rdi(%struct.State* dereferenceable(3376), i64, %struct.Memory*) {
block_400488:
  %3 = getelementptr inbounds %struct.State, %struct.State* %0, i32 0, i32 6
  %4 = getelementptr inbounds %struct.GPR, %struct.GPR* %3, i32 0, i32 33
  %5 = getelementptr inbounds %struct.Reg, %struct.Reg* %4, i32 0, i32 0
  %PC = bitcast %union.anon* %5 to i64*
  %6 = getelementptr inbounds %struct.State, %struct.State* %0, i32 0, i32 6
  %7 = getelementptr inbounds %struct.GPR, %struct.GPR* %6, i32 0, i32 11
  %8 = getelementptr inbounds %struct.Reg, %struct.Reg* %7, i32 0, i32 0
  %RDI = bitcast %union.anon* %8 to i64*
  %9 = getelementptr inbounds %struct.State, %struct.State* %0, i32 0, i32 6
  %10 = getelementptr inbounds %struct.GPR, %struct.GPR* %9, i32 0, i32 15
  %11 = getelementptr inbounds %struct.Reg, %struct.Reg* %10, i32 0, i32 0
  %RBP = bitcast %union.anon* %11 to i64*
  %12 = load i64, i64* %RBP
  %13 = sub i64 %12, 24
  %14 = load i64, i64* %PC
  %15 = add i64 %14, 4
  store i64 %15, i64* %PC
  %16 = inttoptr i64 %13 to i64*
  %17 = load i64, i64* %16
  store i64 %17, i64* %RDI, align 8
  ret %struct.Memory* %2
}

define %struct.Memory* @routine_callq_._Z13record_resultdPKc(%struct.State* dereferenceable(3376), i64, %struct.Memory*, i64 %rel_off1, i64 %rel_off2, i64 %rel_off3) {
block_400488:
  %3 = getelementptr inbounds %struct.State, %struct.State* %0, i32 0, i32 6
  %4 = getelementptr inbounds %struct.GPR, %struct.GPR* %3, i32 0, i32 33
  %5 = getelementptr inbounds %struct.Reg, %struct.Reg* %4, i32 0, i32 0
  %PC = bitcast %union.anon* %5 to i64*
  %6 = load i64, i64* %PC
  %7 = add i64 %6, %rel_off1
  %8 = load i64, i64* %PC
  %9 = add i64 %8, %rel_off2
  %10 = load i64, i64* %PC
  %11 = add i64 %10, %rel_off3
  store i64 %11, i64* %PC
  %12 = getelementptr inbounds %struct.State, %struct.State* %0, i64 0, i32 6, i32 13, i32 0, i32 0
  %13 = load i64, i64* %12, align 8
  %14 = add i64 %13, -8
  %15 = inttoptr i64 %14 to i64*
  store i64 %9, i64* %15
  store i64 %14, i64* %12, align 8
  %16 = getelementptr inbounds %struct.State, %struct.State* %0, i64 0, i32 6, i32 33, i32 0, i32 0
  store i64 %7, i64* %16, align 8
  ret %struct.Memory* %2
}

define %struct.Memory* @routine_addq__0x30___rsp(%struct.State* dereferenceable(3376), i64, %struct.Memory*) {
block_400488:
  %3 = getelementptr inbounds %struct.State, %struct.State* %0, i32 0, i32 6
  %4 = getelementptr inbounds %struct.GPR, %struct.GPR* %3, i32 0, i32 33
  %5 = getelementptr inbounds %struct.Reg, %struct.Reg* %4, i32 0, i32 0
  %PC = bitcast %union.anon* %5 to i64*
  %6 = getelementptr inbounds %struct.State, %struct.State* %0, i32 0, i32 6
  %7 = getelementptr inbounds %struct.GPR, %struct.GPR* %6, i32 0, i32 13
  %8 = getelementptr inbounds %struct.Reg, %struct.Reg* %7, i32 0, i32 0
  %RSP = bitcast %union.anon* %8 to i64*
  %9 = load i64, i64* %RSP
  %10 = load i64, i64* %PC
  %11 = add i64 %10, 4
  store i64 %11, i64* %PC
  %12 = add i64 48, %9
  store i64 %12, i64* %RSP, align 8
  %13 = icmp ult i64 %12, %9
  %14 = icmp ult i64 %12, 48
  %15 = or i1 %13, %14
  %16 = zext i1 %15 to i8
  %17 = getelementptr inbounds %struct.State, %struct.State* %0, i64 0, i32 2, i32 1
  store i8 %16, i8* %17, align 1
  %18 = trunc i64 %12 to i32
  %19 = and i32 %18, 255
  %20 = call i32 @llvm.ctpop.i32(i32 %19)
  %21 = trunc i32 %20 to i8
  %22 = and i8 %21, 1
  %23 = xor i8 %22, 1
  %24 = getelementptr inbounds %struct.State, %struct.State* %0, i64 0, i32 2, i32 3
  store i8 %23, i8* %24, align 1
  %25 = xor i64 48, %9
  %26 = xor i64 %25, %12
  %27 = lshr i64 %26, 4
  %28 = trunc i64 %27 to i8
  %29 = and i8 %28, 1
  %30 = getelementptr inbounds %struct.State, %struct.State* %0, i64 0, i32 2, i32 5
  store i8 %29, i8* %30, align 1
  %31 = icmp eq i64 %12, 0
  %32 = zext i1 %31 to i8
  %33 = getelementptr inbounds %struct.State, %struct.State* %0, i64 0, i32 2, i32 7
  store i8 %32, i8* %33, align 1
  %34 = lshr i64 %12, 63
  %35 = trunc i64 %34 to i8
  %36 = getelementptr inbounds %struct.State, %struct.State* %0, i64 0, i32 2, i32 9
  store i8 %35, i8* %36, align 1
  %37 = lshr i64 %9, 63
  %38 = xor i64 %34, %37
  %39 = add i64 %38, %34
  %40 = icmp eq i64 %39, 2
  %41 = zext i1 %40 to i8
  %42 = getelementptr inbounds %struct.State, %struct.State* %0, i64 0, i32 2, i32 13
  store i8 %41, i8* %42, align 1
  ret %struct.Memory* %2
}

define %struct.Memory* @routine_popq__rbp(%struct.State* dereferenceable(3376), i64, %struct.Memory*) {
block_400488:
  %3 = getelementptr inbounds %struct.State, %struct.State* %0, i32 0, i32 6
  %4 = getelementptr inbounds %struct.GPR, %struct.GPR* %3, i32 0, i32 33
  %5 = getelementptr inbounds %struct.Reg, %struct.Reg* %4, i32 0, i32 0
  %PC = bitcast %union.anon* %5 to i64*
  %6 = getelementptr inbounds %struct.State, %struct.State* %0, i32 0, i32 6
  %7 = getelementptr inbounds %struct.GPR, %struct.GPR* %6, i32 0, i32 15
  %8 = getelementptr inbounds %struct.Reg, %struct.Reg* %7, i32 0, i32 0
  %RBP = bitcast %union.anon* %8 to i64*
  %9 = load i64, i64* %PC
  %10 = add i64 %9, 1
  store i64 %10, i64* %PC
  %11 = getelementptr inbounds %struct.State, %struct.State* %0, i64 0, i32 6, i32 13, i32 0, i32 0
  %12 = load i64, i64* %11, align 8
  %13 = add i64 %12, 8
  %14 = inttoptr i64 %12 to i64*
  %15 = load i64, i64* %14
  store i64 %15, i64* %RBP, align 8
  store i64 %13, i64* %11, align 8
  ret %struct.Memory* %2
}

define %struct.Memory* @routine_retq(%struct.State* dereferenceable(3376), i64, %struct.Memory*) {
block_400488:
  %3 = getelementptr inbounds %struct.State, %struct.State* %0, i32 0, i32 6
  %4 = getelementptr inbounds %struct.GPR, %struct.GPR* %3, i32 0, i32 33
  %5 = getelementptr inbounds %struct.Reg, %struct.Reg* %4, i32 0, i32 0
  %PC = bitcast %union.anon* %5 to i64*
  %6 = load i64, i64* %PC
  %7 = add i64 %6, 1
  store i64 %7, i64* %PC
  %8 = getelementptr inbounds %struct.State, %struct.State* %0, i64 0, i32 6, i32 33, i32 0, i32 0
  %9 = getelementptr inbounds %struct.State, %struct.State* %0, i64 0, i32 6, i32 13, i32 0, i32 0
  %10 = load i64, i64* %9, align 8
  %11 = inttoptr i64 %10 to i64*
  %12 = load i64, i64* %11
  store i64 %12, i64* %8, align 8
  %13 = add i64 %10, 8
  store i64 %13, i64* %9, align 8
  ret %struct.Memory* %2
}

attributes #0 = { nounwind readnone }
attributes #1 = { alwaysinline }
