; ModuleID = 'test.bc'
source_filename = "llvm-link"
target datalayout = "e-m:e-i64:64-f80:128-n8:16:32:64-S128"
target triple = "x86_64-pc-linux-gnu-elf"
%union.anon = type { i64 }
%seg_400388__init_type = type <{ [23 x i8] }>
%seg_4003a0__text_type = type <{ [354 x i8] }>
%seg_400504__fini_type = type <{ [9 x i8] }>
%seg_400510__rodata_type = type <{ [4 x i8] }>
%seg_400514__eh_frame_hdr_type = type <{ [52 x i8] }>
%seg_400548__eh_frame_type = type <{ [208 x i8] }>
%seg_600e40__init_array_type = type <{ i64, i64 }>
%seg_601018__data_type = type <{ [16 x i8] }>
%__bss_start_type = type <{ [8 x i8] }>
%struct.State = type { %struct.ArchState, [32 x %union.VectorReg], %struct.ArithFlags, %union.anon, %struct.Segments, %struct.AddressSpace, %struct.GPR, %struct.X87Stack, %struct.MMX, %struct.FPUStatusFlags, %union.anon, %union.FPU, %struct.SegmentCaches }
%struct.ArchState = type { i32, i32, %union.anon }
%union.VectorReg = type { %union.vec512_t }
%union.vec512_t = type { %struct.uint64v8_t }
%struct.uint64v8_t = type { [8 x i64] }
%struct.ArithFlags = type { i8, i8, i8, i8, i8, i8, i8, i8, i8, i8, i8, i8, i8, i8, i8, i8 }
%struct.Segments = type { i16, %union.SegmentSelector, i16, %union.SegmentSelector, i16, %union.SegmentSelector, i16, %union.SegmentSelector, i16, %union.SegmentSelector, i16, %union.SegmentSelector }
%union.SegmentSelector = type { i16 }
%struct.AddressSpace = type { i64, %struct.Reg, i64, %struct.Reg, i64, %struct.Reg, i64, %struct.Reg, i64, %struct.Reg, i64, %struct.Reg }
%struct.Reg = type { %union.anon }
%struct.GPR = type { i64, %struct.Reg, i64, %struct.Reg, i64, %struct.Reg, i64, %struct.Reg, i64, %struct.Reg, i64, %struct.Reg, i64, %struct.Reg, i64, %struct.Reg, i64, %struct.Reg, i64, %struct.Reg, i64, %struct.Reg, i64, %struct.Reg, i64, %struct.Reg, i64, %struct.Reg, i64, %struct.Reg, i64, %struct.Reg, i64, %struct.Reg }
%struct.X87Stack = type { [8 x %struct.anon.3] }
%struct.anon.3 = type { i64, double }
%struct.MMX = type { [8 x %struct.anon.4] }
%struct.anon.4 = type { i64, %union.vec64_t }
%union.vec64_t = type { %struct.uint64v1_t }
%struct.uint64v1_t = type { [1 x i64] }
%struct.FPUStatusFlags = type { i8, i8, i8, i8, i8, i8, i8, i8, i8, i8, i8, i8, i8, i8, i8, i8, i8, i8, i8, i8, [4 x i8] }
%union.FPU = type { %struct.anon.13 }
%struct.anon.13 = type { %struct.FpuFXSAVE, [96 x i8] }
%struct.FpuFXSAVE = type { %union.SegmentSelector, %union.SegmentSelector, %union.FPUAbridgedTagWord, i8, i16, i32, %union.SegmentSelector, i16, i32, %union.SegmentSelector, i16, %union.FPUControlStatus, %union.FPUControlStatus, [8 x %struct.FPUStackElem], [16 x %union.vec128_t] }
%union.FPUAbridgedTagWord = type { i8 }
%union.FPUControlStatus = type { i32 }
%struct.FPUStackElem = type { %union.anon.11, [6 x i8] }
%union.anon.11 = type { %struct.float80_t }
%struct.float80_t = type { [10 x i8] }
%union.vec128_t = type { %struct.uint128v1_t }
%struct.uint128v1_t = type { [1 x i128] }
%struct.SegmentCaches = type { %struct.SegmentShadow, %struct.SegmentShadow, %struct.SegmentShadow, %struct.SegmentShadow, %struct.SegmentShadow, %struct.SegmentShadow }
%struct.SegmentShadow = type { %union.anon, i32, i32 }
%struct.Memory = type opaque
%struct.uint8v32_t = type { [32 x i8] }
%struct.anon.2 = type { i8, i8 }
%struct.int32v8_t = type { [8 x i32] }
%struct.float32v8_t = type { [8 x float] }
%struct.uint8v8_t = type { [8 x i8] }
%struct.uint8v16_t = type { [16 x i8] }
%struct.uint16v8_t = type { [8 x i16] }
%struct.uint8v4_t = type { [4 x i8] }
%struct.int16v4_t = type { [4 x i16] }
%struct.int32v4_t = type { [4 x i32] }
%struct.uint64v2_t = type { [2 x i64] }
%struct.uint64v4_t = type { [4 x i64] }
%struct.uint128v2_t = type { [2 x i128] }
%struct.uint16v16_t = type { [16 x i16] }
%struct.float64v4_t = type { [4 x double] }
%"class.(anonymous namespace)::BitMatrix" = type { %"class.std::bitset", [16 x [16 x i8]] }
%"class.std::bitset" = type { %struct.uint64v4_t }
%struct.bcd80_t = type { [9 x %union.FPUAbridgedTagWord], %union.FPUAbridgedTagWord }
%struct.FpuFSAVE = type { %union.SegmentSelector, i16, %union.SegmentSelector, i16, %union.SegmentSelector, i16, i32, %union.SegmentSelector, i16, i32, %union.SegmentSelector, i16, [8 x %struct.FPUStackElem] }
%struct.anon.5 = type { i32, i32 }
@switch.table = private unnamed_addr constant [4 x i32] [i32 2048, i32 3072, i32 0, i32 1024]
@DR0 = external global i64, align 8
@DR1 = external global i64, align 8
@DR2 = external global i64, align 8
@DR3 = external global i64, align 8
@DR4 = external global i64, align 8
@DR5 = external global i64, align 8
@DR6 = external global i64, align 8
@DR7 = external global i64, align 8
@gCR0 = external global %union.anon, align 1
@gCR1 = external global %union.anon, align 1
@gCR2 = external global %union.anon, align 1
@gCR3 = external global %union.anon, align 1
@gCR4 = external global %union.anon, align 1
@gCR8 = external global %union.anon, align 1
@seg_400388__init = internal constant %seg_400388__init_type <{ [23 x i8] c"H\83\EC\08H\8B\05e\0C \00H\85\C0t\02\FF\D0H\83\C4\08\C3" }>
@seg_4003a0__text = internal constant %seg_4003a0__text_type <{ [354 x i8] c"1\EDI\89\D1^H\89\E2H\83\E4\F0PTI\C7\C0\00\05@\00H\C7\C1\90\04@\00H\C7\C7\88\04@\00\FF\15&\0C \00\F4\0F\1FD\00\00\F3\C3f.\0F\1F\84\00\00\00\00\00\0F\1F@\00U\B8(\10`\00H=(\10`\00H\89\E5t\17\B8\00\00\00\00H\85\C0t\0D]\BF(\10`\00\FF\E0\0F\1FD\00\00]\C3f\0F\1FD\00\00\BE(\10`\00UH\81\EE(\10`\00H\89\E5H\C1\FE\03H\89\F0H\C1\E8?H\01\C6H\D1\FEt\15\B8\00\00\00\00H\85\C0t\0B]\BF(\10`\00\FF\E0\0F\1F\00]\C3f\0F\1FD\00\00\80=\D1\0B \00\00u\17UH\89\E5\E8~\FF\FF\FF\C6\05\BF\0B \00\01]\C3\0F\1FD\00\00\F3\C3\0F\1F@\00f.\0F\1F\84\00\00\00\00\00UH\89\E5]\EB\89\90U\C3f\0F\1FD\00\00AWAVI\89\D7AUATL\8D%\9E\09 \00UH\8D-\9E\09 \00SA\89\FDI\89\F6L)\E5H\83\EC\08H\C1\FD\03\E8\C7\FE\FF\FFH\85\EDt 1\DB\0F\1F\84\00\00\00\00\00L\89\FAL\89\F6D\89\EFA\FF\14\DCH\83\C3\01H9\DDu\EAH\83\C4\08[]A\5CA]A^A_\C3\90f.\0F\1F\84\00\00\00\00\00\F3\C3" }>
@seg_400504__fini = internal constant %seg_400504__fini_type <{ [9 x i8] c"H\83\EC\08H\83\C4\08\C3" }>
@seg_400510__rodata = internal constant %seg_400510__rodata_type <{ [4 x i8] c"\01\00\02\00" }>
@seg_400514__eh_frame_hdr = internal constant %seg_400514__eh_frame_hdr_type <{ [52 x i8] c"\01\1B\03;0\00\00\00\05\00\00\00\8C\FE\FF\FFL\00\00\00\BC\FE\FF\FFx\00\00\00t\FF\FF\FF\8C\00\00\00|\FF\FF\FF\A4\00\00\00\EC\FF\FF\FF\EC\00\00\00" }>
@seg_400548__eh_frame = internal constant %seg_400548__eh_frame_type <{ [208 x i8] c"\14\00\00\00\00\00\00\00\01zR\00\01x\10\01\1B\0C\07\08\90\01\07\10\10\00\00\00\1C\00\00\008\FE\FF\FF+\00\00\00\00\00\00\00\14\00\00\00\00\00\00\00\01zR\00\01x\10\01\1B\0C\07\08\90\01\00\00\10\00\00\00\1C\00\00\00<\FE\FF\FF\02\00\00\00\00\00\00\00\14\00\00\000\00\00\00\E0\FE\FF\FF\02\00\00\00\00\00\00\00\00\00\00\00D\00\00\00H\00\00\00\D0\FE\FF\FFe\00\00\00\00B\0E\10\8F\02B\0E\18\8E\03E\0E \8D\04B\0E(\8C\05H\0E0\86\06H\0E8\83\07M\0E@r\0E8A\0E0A\0E(B\0E B\0E\18B\0E\10B\0E\08\00\10\00\00\00\90\00\00\00\F8\FE\FF\FF\02\00\00\00\00\00\00\00\00\00\00\00" }>
@seg_601018__data = internal global %seg_601018__data_type zeroinitializer
@__bss_start = global %__bss_start_type zeroinitializer
@0 = internal global i1 false

; Function Declaraions
declare %struct.Memory* @__remill_error(%struct.State* dereferenceable(3376), i64, %struct.Memory*)
declare i32 @__remill_fpu_exception_test_and_clear(i32, i32)
declare void @llvm.lifetime.start(i64, i8* nocapture)
declare void @llvm.lifetime.end(i64, i8* nocapture)
declare i32 @llvm.ctpop.i32(i32)
declare i32 @llvm.bswap.i32(i32)
declare i64 @llvm.bswap.i64(i64)
declare i32 @llvm.cttz.i32(i32, i1)
declare i64 @llvm.cttz.i64(i64, i1)
declare i32 @llvm.ctlz.i32(i32, i1)
declare i64 @llvm.ctlz.i64(i64, i1)
declare void @llvm.memcpy.p0i8.p0i8.i64(i8* nocapture writeonly, i8* nocapture readonly, i64, i32, i1)
declare double @llvm.nearbyint.f64(double)
declare double @llvm.fabs.f64(double)
declare <4 x double> @llvm.nearbyint.v4f64(<4 x double>)
declare <4 x double> @llvm.fabs.v4f64(<4 x double>)
declare double @llvm.trunc.f64(double)
declare <4 x double> @llvm.trunc.v4f64(<4 x double>)
declare float @llvm.nearbyint.f32(float)
declare float @llvm.fabs.f32(float)
declare <4 x float> @llvm.nearbyint.v4f32(<4 x float>)
declare <4 x float> @llvm.fabs.v4f32(<4 x float>)
declare float @llvm.trunc.f32(float)
declare <4 x float> @llvm.trunc.v4f32(<4 x float>)
declare void @llvm.memset.p0i8.i64(i8* nocapture writeonly, i8, i64, i32, i1)

; Buiitins  
declare double @atan(double) local_unnamed_addr #9
declare double @cos(double) local_unnamed_addr #9
declare double @sin(double) local_unnamed_addr #9
declare double @sqrt(double) local_unnamed_addr #9
declare double @tan(double) local_unnamed_addr #9
declare extern_weak x86_64_sysvcc i64 @abort() #18
declare extern_weak x86_64_sysvcc i64 @abs(i64) #18
declare extern_weak x86_64_sysvcc i64 @asin(i64) #18
declare extern_weak x86_64_sysvcc i64 @atof(i64) #18
declare extern_weak x86_64_sysvcc i64 @atoi(i64) #18
declare extern_weak x86_64_sysvcc i64 @atol(i64) #18
declare extern_weak x86_64_sysvcc i64 @calloc(i64, i64) #18
declare extern_weak x86_64_sysvcc i64 @clock() #18
declare extern_weak x86_64_sysvcc i64 @cosf(i64) #18
declare extern_weak x86_64_sysvcc i64 @exit(i64) #18
declare extern_weak x86_64_sysvcc i64 @exp(i64) #18
declare extern_weak x86_64_sysvcc i64 @fflush(i64) #18
declare extern_weak x86_64_sysvcc i64 @floor(i64) #18
declare extern_weak x86_64_sysvcc i64 @fprintf(i64, i64, i64, i64, i64, i64, i64, i64, i64, i64, i64, i64, i64, i64, i64, i64) #18
declare extern_weak x86_64_sysvcc i64 @fputs(i64, i64) #18
declare extern_weak x86_64_sysvcc i64 @free(i64) #18
declare extern_weak x86_64_sysvcc i64 @fwrite(i64, i64, i64, i64) #18
declare extern_weak x86_64_sysvcc i64 @getchar() #18
declare extern_weak x86_64_sysvcc i64 @gettimeofday(i64, i64) #18
declare extern_weak x86_64_sysvcc i64 @__isoc99_fscanf(i64, i64, i64, i64, i64, i64, i64, i64, i64, i64, i64, i64, i64, i64, i64, i64) #18
declare extern_weak x86_64_sysvcc i64 @__isoc99_scanf(i64, i64, i64, i64, i64, i64, i64, i64, i64, i64, i64, i64, i64, i64, i64, i64) #18
declare extern_weak x86_64_sysvcc i64 @__isoc99_sscanf(i64, i64, i64, i64, i64, i64, i64, i64, i64, i64, i64, i64, i64, i64, i64, i64) #18
declare extern_weak x86_64_sysvcc i64 @log(i64) #18
declare extern_weak x86_64_sysvcc i64 @lrand48() #18
declare extern_weak x86_64_sysvcc i64 @malloc(i64) #18
declare extern_weak x86_64_sysvcc i64 @memalign(i64, i64) #18
declare extern_weak x86_64_sysvcc i64 @memcpy(i64, i64, i64) #18
declare extern_weak x86_64_sysvcc i64 @memset(i64, i64, i64) #18
declare extern_weak x86_64_sysvcc i64 @perror(i64) #18
declare extern_weak x86_64_sysvcc i64 @posix_memalign(i64, i64, i64) #18
declare extern_weak x86_64_sysvcc i64 @pow(i64, i64) #18
declare extern_weak x86_64_sysvcc i64 @printf(i64, i64, i64, i64, i64, i64, i64, i64, i64, i64, i64, i64, i64, i64, i64, i64) #18
declare extern_weak x86_64_sysvcc i64 @putchar(i64) #18
declare extern_weak x86_64_sysvcc i64 @puts(i64) #18
declare extern_weak x86_64_sysvcc i64 @rand() #18
declare extern_weak x86_64_sysvcc i64 @random() #18
declare extern_weak x86_64_sysvcc i64 @realloc(i64, i64) #18
declare extern_weak x86_64_sysvcc i64 @seed48(i64) #18
declare extern_weak x86_64_sysvcc i64 @sinf(i64) #18
declare extern_weak x86_64_sysvcc i64 @sprintf(i64, i64, i64, i64, i64, i64, i64, i64, i64, i64, i64, i64, i64, i64, i64, i64) #18
declare extern_weak x86_64_sysvcc i64 @srand(i64) #18
declare extern_weak x86_64_sysvcc i64 @strcat(i64, i64) #18
declare extern_weak x86_64_sysvcc i64 @strcmp(i64, i64) #18
declare extern_weak x86_64_sysvcc i64 @strcpy(i64, i64) #18
declare extern_weak x86_64_sysvcc i64 @strdup(i64) #18
declare extern_weak x86_64_sysvcc i64 @strlen(i64) #18
declare extern_weak x86_64_sysvcc i64 @strncmp(i64, i64, i64) #18
declare extern_weak x86_64_sysvcc i64 @strtoll(i64, i64, i64) #18
declare extern_weak x86_64_sysvcc i64 @time(i64) #18
declare extern_weak x86_64_sysvcc i64 @ungetc(i64, i64) #18
declare extern_weak x86_64_sysvcc i64 @pthread_join(i64, i64) #18
declare extern_weak x86_64_sysvcc i64 @pthread_create(i64, i64, i64, i64) #18

declare %struct.Memory* @__remill_function_call(%struct.State* dereferenceable(3376), i64, %struct.Memory*)

define internal %struct.Memory* @ext_pthread_create(%struct.State*, i64, %struct.Memory*) #18 {
  %4 = call %struct.Memory* @__remill_function_call(%struct.State* %0, i64 ptrtoint (i64 (i64, i64, i64, i64)* @pthread_create to i64), %struct.Memory* %2)
  ret %struct.Memory* %4
}

define internal %struct.Memory* @ext_pthread_join(%struct.State*, i64, %struct.Memory*) #18 {
  %4 = call %struct.Memory* @__remill_function_call(%struct.State* %0, i64 ptrtoint (i64 (i64, i64)* @pthread_join to i64), %struct.Memory* %2)
  ret %struct.Memory* %4
}

define internal %struct.Memory* @ext_gettimeofday(%struct.State*, i64, %struct.Memory*) #18 {
  %4 = call %struct.Memory* @__remill_function_call(%struct.State* %0, i64 ptrtoint (i64 (i64, i64)* @gettimeofday to i64), %struct.Memory* %2)
  ret %struct.Memory* %4
}

define internal %struct.Memory* @ext___isoc99_scanf(%struct.State*, i64, %struct.Memory*) #18 {
  %4 = call %struct.Memory* @__remill_function_call(%struct.State* %0, i64 ptrtoint (i64 (i64, i64, i64, i64, i64, i64, i64, i64, i64, i64, i64, i64, i64, i64, i64, i64)* @__isoc99_scanf to i64), %struct.Memory* %2)
  ret %struct.Memory* %4
}


define internal %struct.Memory* @ext_fflush(%struct.State*, i64, %struct.Memory*) #18 {
  %4 = call %struct.Memory* @__remill_function_call(%struct.State* %0, i64 ptrtoint (i64 (i64)* @fflush to i64), %struct.Memory* %2)
  ret %struct.Memory* %4
}

define internal %struct.Memory* @ext___isoc99_fscanf(%struct.State*, i64, %struct.Memory*) #18 {
  %4 = call %struct.Memory* @__remill_function_call(%struct.State* %0, i64 ptrtoint (i64 (i64, i64, i64, i64, i64, i64, i64, i64, i64, i64, i64, i64, i64, i64, i64, i64)* @__isoc99_fscanf to i64), %struct.Memory* %2)
  ret %struct.Memory* %4
}

define internal %struct.Memory* @ext___isoc99_sscanf(%struct.State*, i64, %struct.Memory*) #18 {
  %4 = call %struct.Memory* @__remill_function_call(%struct.State* %0, i64 ptrtoint (i64 (i64, i64, i64, i64, i64, i64, i64, i64, i64, i64, i64, i64, i64, i64, i64, i64)* @__isoc99_sscanf to i64), %struct.Memory* %2)
  ret %struct.Memory* %4
}

define internal %struct.Memory* @ext_memcpy(%struct.State*, i64, %struct.Memory*) #18 {
  %4 = call %struct.Memory* @__remill_function_call(%struct.State* %0, i64 ptrtoint (i64 (i64, i64, i64)* @memcpy to i64), %struct.Memory* %2)
  ret %struct.Memory* %4
}

define internal %struct.Memory* @ext_posix_memalign(%struct.State*, i64, %struct.Memory*) #18 {
  %4 = call %struct.Memory* @__remill_function_call(%struct.State* %0, i64 ptrtoint (i64 (i64, i64, i64)* @posix_memalign to i64), %struct.Memory* %2)
  ret %struct.Memory* %4
}

define internal %struct.Memory* @ext_fprintf(%struct.State*, i64, %struct.Memory*) #18 {
  %4 = call %struct.Memory* @__remill_function_call(%struct.State* %0, i64 ptrtoint (i64 (i64, i64, i64, i64, i64, i64, i64, i64, i64, i64, i64, i64, i64, i64, i64, i64)* @fprintf to i64), %struct.Memory* %2)
  ret %struct.Memory* %4
}

define internal %struct.Memory* @ext_memset(%struct.State*, i64, %struct.Memory*) #18 {
  %4 = call %struct.Memory* @__remill_function_call(%struct.State* %0, i64 ptrtoint (i64 (i64, i64, i64)* @memset to i64), %struct.Memory* %2)
  ret %struct.Memory* %4
}

define internal %struct.Memory* @ext_perror(%struct.State*, i64, %struct.Memory*) #18 {
  %4 = call %struct.Memory* @__remill_function_call(%struct.State* %0, i64 ptrtoint (i64 (i64)* @perror to i64), %struct.Memory* %2)
  ret %struct.Memory* %4
}

define internal %struct.Memory* @ext_floor(%struct.State*, i64, %struct.Memory*) #18 {
  %4 = call %struct.Memory* @__remill_function_call(%struct.State* %0, i64 ptrtoint (i64 (i64)* @floor to i64), %struct.Memory* %2)
  ret %struct.Memory* %4
}

define internal %struct.Memory* @ext_malloc(%struct.State*, i64, %struct.Memory*) #18 {
  %4 = call %struct.Memory* @__remill_function_call(%struct.State* %0, i64 ptrtoint (i64 (i64)* @malloc to i64), %struct.Memory* %2)
  ret %struct.Memory* %4
}

define internal %struct.Memory* @ext_atoi(%struct.State*, i64, %struct.Memory*) #18 {
  %4 = call %struct.Memory* @__remill_function_call(%struct.State* %0, i64 ptrtoint (i64 (i64)* @atoi to i64), %struct.Memory* %2)
  ret %struct.Memory* %4
}

define internal %struct.Memory* @ext_strcpy(%struct.State*, i64, %struct.Memory*) #18 {
  %4 = call %struct.Memory* @__remill_function_call(%struct.State* %0, i64 ptrtoint (i64 (i64, i64)* @strcpy to i64), %struct.Memory* %2)
  ret %struct.Memory* %4
}

define internal %struct.Memory* @ext_ungetc(%struct.State*, i64, %struct.Memory*) #18 {
  %4 = call %struct.Memory* @__remill_function_call(%struct.State* %0, i64 ptrtoint (i64 (i64, i64)* @ungetc to i64), %struct.Memory* %2)
  ret %struct.Memory* %4
}

define internal %struct.Memory* @ext_pow(%struct.State*, i64, %struct.Memory*) #18 {
  %4 = call %struct.Memory* @__remill_function_call(%struct.State* %0, i64 ptrtoint (i64 (i64, i64)* @pow to i64), %struct.Memory* %2)
  ret %struct.Memory* %4
}

define internal %struct.Memory* @ext_seed48(%struct.State*, i64, %struct.Memory*) #18 {
  %4 = call %struct.Memory* @__remill_function_call(%struct.State* %0, i64 ptrtoint (i64 (i64)* @seed48 to i64), %struct.Memory* %2)
  ret %struct.Memory* %4
}

define internal %struct.Memory* @ext_asin(%struct.State*, i64, %struct.Memory*) #18 {
  %4 = call %struct.Memory* @__remill_function_call(%struct.State* %0, i64 ptrtoint (i64 (i64)* @asin to i64), %struct.Memory* %2)
  ret %struct.Memory* %4
}

define internal %struct.Memory* @ext_strdup(%struct.State*, i64, %struct.Memory*) #18 {
  %4 = call %struct.Memory* @__remill_function_call(%struct.State* %0, i64 ptrtoint (i64 (i64)* @strdup to i64), %struct.Memory* %2)
  ret %struct.Memory* %4
}

define internal %struct.Memory* @ext_cosf(%struct.State*, i64, %struct.Memory*) #18 {
  %4 = call %struct.Memory* @__remill_function_call(%struct.State* %0, i64 ptrtoint (i64 (i64)* @cosf to i64), %struct.Memory* %2)
  ret %struct.Memory* %4
}

define internal %struct.Memory* @ext_abs(%struct.State*, i64, %struct.Memory*) #18 {
  %4 = call %struct.Memory* @__remill_function_call(%struct.State* %0, i64 ptrtoint (i64 (i64)* @abs to i64), %struct.Memory* %2)
  ret %struct.Memory* %4
}

define internal %struct.Memory* @ext_abort(%struct.State*, i64, %struct.Memory*) #18 {
  %4 = call %struct.Memory* @__remill_function_call(%struct.State* %0, i64 ptrtoint (i64 ()* @abort to i64), %struct.Memory* %2)
  ret %struct.Memory* %4
}

define internal %struct.Memory* @ext_exit(%struct.State*, i64, %struct.Memory*) #18 {
  %4 = call %struct.Memory* @__remill_function_call(%struct.State* %0, i64 ptrtoint (i64 (i64)* @exit to i64), %struct.Memory* %2)
  ret %struct.Memory* %4
}

define internal %struct.Memory* @ext_putchar(%struct.State*, i64, %struct.Memory*) #18 {
  %4 = call %struct.Memory* @__remill_function_call(%struct.State* %0, i64 ptrtoint (i64 (i64)* @putchar to i64), %struct.Memory* %2)
  ret %struct.Memory* %4
}

define internal %struct.Memory* @ext_strncmp(%struct.State*, i64, %struct.Memory*) #18 {
  %4 = call %struct.Memory* @__remill_function_call(%struct.State* %0, i64 ptrtoint (i64 (i64, i64, i64)* @strncmp to i64), %struct.Memory* %2)
  ret %struct.Memory* %4
}

define internal %struct.Memory* @ext_strcmp(%struct.State*, i64, %struct.Memory*) #18 {
  %4 = call %struct.Memory* @__remill_function_call(%struct.State* %0, i64 ptrtoint (i64 (i64, i64)* @strcmp to i64), %struct.Memory* %2)
  ret %struct.Memory* %4
}

define internal %struct.Memory* @ext_rand(%struct.State*, i64, %struct.Memory*) #18 {
  %4 = call %struct.Memory* @__remill_function_call(%struct.State* %0, i64 ptrtoint (i64 ()* @rand to i64), %struct.Memory* %2)
  ret %struct.Memory* %4
}

define internal %struct.Memory* @ext_calloc(%struct.State*, i64, %struct.Memory*) #18 {
  %4 = call %struct.Memory* @__remill_function_call(%struct.State* %0, i64 ptrtoint (i64 (i64, i64)* @calloc to i64), %struct.Memory* %2)
  ret %struct.Memory* %4
}

define internal %struct.Memory* @ext_fwrite(%struct.State*, i64, %struct.Memory*) #18 {
  %4 = call %struct.Memory* @__remill_function_call(%struct.State* %0, i64 ptrtoint (i64 (i64, i64, i64, i64)* @fwrite to i64), %struct.Memory* %2)
  ret %struct.Memory* %4
}

define internal %struct.Memory* @ext_realloc(%struct.State*, i64, %struct.Memory*) #18 {
  %4 = call %struct.Memory* @__remill_function_call(%struct.State* %0, i64 ptrtoint (i64 (i64, i64)* @realloc to i64), %struct.Memory* %2)
  ret %struct.Memory* %4
}


define internal %struct.Memory* @ext_log(%struct.State*, i64, %struct.Memory*) #18 {
  %4 = call %struct.Memory* @__remill_function_call(%struct.State* %0, i64 ptrtoint (i64 (i64)* @log to i64), %struct.Memory* %2)
  ret %struct.Memory* %4
}


define internal %struct.Memory* @ext_exp(%struct.State*, i64, %struct.Memory*) #18 {
  %4 = call %struct.Memory* @__remill_function_call(%struct.State* %0, i64 ptrtoint (i64 (i64)* @exp to i64), %struct.Memory* %2)
  ret %struct.Memory* %4
}

define internal %struct.Memory* @ext_sprintf(%struct.State*, i64, %struct.Memory*) #18 {
  %4 = call %struct.Memory* @__remill_function_call(%struct.State* %0, i64 ptrtoint (i64 (i64, i64, i64, i64, i64, i64, i64, i64, i64, i64, i64, i64, i64, i64, i64, i64)* @sprintf to i64), %struct.Memory* %2)
  ret %struct.Memory* %4
}

define internal %struct.Memory* @ext_strcat(%struct.State*, i64, %struct.Memory*) #18 {
  %4 = call %struct.Memory* @__remill_function_call(%struct.State* %0, i64 ptrtoint (i64 (i64, i64)* @strcat to i64), %struct.Memory* %2)
  ret %struct.Memory* %4
}

define internal %struct.Memory* @ext_puts(%struct.State*, i64, %struct.Memory*) #18 {
  %4 = call %struct.Memory* @__remill_function_call(%struct.State* %0, i64 ptrtoint (i64 (i64)* @puts to i64), %struct.Memory* %2)
  ret %struct.Memory* %4
}

define internal %struct.Memory* @ext_atol(%struct.State*, i64, %struct.Memory*) #18 {
  %4 = call %struct.Memory* @__remill_function_call(%struct.State* %0, i64 ptrtoint (i64 (i64)* @atol to i64), %struct.Memory* %2)
  ret %struct.Memory* %4
}

define internal %struct.Memory* @ext_atof(%struct.State*, i64, %struct.Memory*) #18 {
  %4 = call %struct.Memory* @__remill_function_call(%struct.State* %0, i64 ptrtoint (i64 (i64)* @atof to i64), %struct.Memory* %2)
  ret %struct.Memory* %4
}

define internal %struct.Memory* @ext_clock(%struct.State*, i64, %struct.Memory*) #18 {
  %4 = call %struct.Memory* @__remill_function_call(%struct.State* %0, i64 ptrtoint (i64 ()* @clock to i64), %struct.Memory* %2)
  ret %struct.Memory* %4
}

define internal %struct.Memory* @ext_strlen(%struct.State*, i64, %struct.Memory*) #18 {
  %4 = call %struct.Memory* @__remill_function_call(%struct.State* %0, i64 ptrtoint (i64 (i64)* @strlen to i64), %struct.Memory* %2)
  ret %struct.Memory* %4
}

define internal %struct.Memory* @ext_free(%struct.State*, i64, %struct.Memory*) #18 {
  %4 = call %struct.Memory* @__remill_function_call(%struct.State* %0, i64 ptrtoint (i64 (i64)* @free to i64), %struct.Memory* %2)
  ret %struct.Memory* %4
}

define internal %struct.Memory* @ext_srand(%struct.State*, i64, %struct.Memory*) #18 {
  %4 = call %struct.Memory* @__remill_function_call(%struct.State* %0, i64 ptrtoint (i64 (i64)* @srand to i64), %struct.Memory* %2)
  ret %struct.Memory* %4
}

define internal %struct.Memory* @ext_fputs(%struct.State*, i64, %struct.Memory*) #18 {
  %4 = call %struct.Memory* @__remill_function_call(%struct.State* %0, i64 ptrtoint (i64 (i64, i64)* @fputs to i64), %struct.Memory* %2)
  ret %struct.Memory* %4
}

define internal %struct.Memory* @ext_strtoll(%struct.State*, i64, %struct.Memory*) #18 {
  %4 = call %struct.Memory* @__remill_function_call(%struct.State* %0, i64 ptrtoint (i64 (i64, i64, i64)* @strtoll to i64), %struct.Memory* %2)
  ret %struct.Memory* %4
}

define internal %struct.Memory* @ext_sinf(%struct.State*, i64, %struct.Memory*) #18 {
  %4 = call %struct.Memory* @__remill_function_call(%struct.State* %0, i64 ptrtoint (i64 (i64)* @sinf to i64), %struct.Memory* %2)
  ret %struct.Memory* %4
}

define internal %struct.Memory* @ext_time(%struct.State*, i64, %struct.Memory*) #18 {
  %4 = call %struct.Memory* @__remill_function_call(%struct.State* %0, i64 ptrtoint (i64 (i64)* @time to i64), %struct.Memory* %2)
  ret %struct.Memory* %4
}

define internal %struct.Memory* @ext_printf(%struct.State*, i64, %struct.Memory*) #18 {
  %4 = call %struct.Memory* @__remill_function_call(%struct.State* %0, i64 ptrtoint (i64 (i64, i64, i64, i64, i64, i64, i64, i64, i64, i64, i64, i64, i64, i64, i64, i64)* @printf to i64), %struct.Memory* %2)
  ret %struct.Memory* %4
}

define internal %struct.Memory* @ext_memalign(%struct.State*, i64, %struct.Memory*) #18 {
  %4 = call %struct.Memory* @__remill_function_call(%struct.State* %0, i64 ptrtoint (i64 (i64, i64)* @memalign to i64), %struct.Memory* %2)
  ret %struct.Memory* %4
}

define internal %struct.Memory* @ext_random(%struct.State*, i64, %struct.Memory*) #18 {
  %4 = call %struct.Memory* @__remill_function_call(%struct.State* %0, i64 ptrtoint (i64 ()* @random to i64), %struct.Memory* %2)
  ret %struct.Memory* %4
}

define internal %struct.Memory* @ext_lrand48(%struct.State*, i64, %struct.Memory*) #18 {
  %4 = call %struct.Memory* @__remill_function_call(%struct.State* %0, i64 ptrtoint (i64 ()* @lrand48 to i64), %struct.Memory* %2)
  ret %struct.Memory* %4
}

define internal %struct.Memory* @ext_getchar(%struct.State*, i64, %struct.Memory*) #18 {
  %4 = call %struct.Memory* @__remill_function_call(%struct.State* %0, i64 ptrtoint (i64 ()* @getchar to i64), %struct.Memory* %2)
  ret %struct.Memory* %4
}

declare %struct.Memory* @ext_sqrt(%struct.State* noalias dereferenceable(3376), i64, %struct.Memory* noalias)
declare %struct.Memory* @ext_atan(%struct.State* noalias dereferenceable(3376), i64, %struct.Memory* noalias)
declare %struct.Memory* @ext_cos(%struct.State* noalias dereferenceable(3376), i64, %struct.Memory* noalias) 
declare %struct.Memory* @ext_tan(%struct.State* noalias dereferenceable(3376), i64, %struct.Memory* noalias) 
declare %struct.Memory* @ext_sin(%struct.State* noalias dereferenceable(3376), i64, %struct.Memory* noalias) 


; Data Access Globals


define %struct.Memory* @kernel_2mm_StrictFP(%struct.State* noalias , i64, %struct.Memory* noalias) alwaysinline  {
entry:
  %3 = getelementptr inbounds %struct.State, %struct.State* %0, i64 0, i32 6, i32 33, i32 0, i32 0
  store i64 %1, i64* %3, align 8
  %BRANCH_TAKEN = alloca i8, align 1
  store i8 0, i8* %BRANCH_TAKEN, align 1
  %MEMORY = alloca %struct.Memory*, align 8
  store %struct.Memory* %2, %struct.Memory** %MEMORY, align 8

  ; Code: .kernel_2mm_StrictFP:	 RIP: 400fd0	 Bytes: 0
  ; Code: pushq %rbp	 RIP: 400fd0	 Bytes: 1
  %loadMem_400fd0 = load %struct.Memory*, %struct.Memory** %MEMORY
  %call_400fd0 = call %struct.Memory* @routine_pushq__rbp(%struct.State* %0, i64  0, %struct.Memory* %loadMem_400fd0)
  store %struct.Memory* %call_400fd0, %struct.Memory** %MEMORY

  ; Code: movq %rsp, %rbp	 RIP: 400fd1	 Bytes: 3
  %loadMem_400fd1 = load %struct.Memory*, %struct.Memory** %MEMORY
  %call_400fd1 = call %struct.Memory* @routine_movq__rsp___rbp(%struct.State* %0, i64  0, %struct.Memory* %loadMem_400fd1)
  store %struct.Memory* %call_400fd1, %struct.Memory** %MEMORY

  ; Code: movq 0x20(%rbp), %rax	 RIP: 400fd4	 Bytes: 4
  %loadMem_400fd4 = load %struct.Memory*, %struct.Memory** %MEMORY
  %call_400fd4 = call %struct.Memory* @routine_movq_0x20__rbp____rax(%struct.State* %0, i64  0, %struct.Memory* %loadMem_400fd4)
  store %struct.Memory* %call_400fd4, %struct.Memory** %MEMORY

  ; Code: movq 0x18(%rbp), %r10	 RIP: 400fd8	 Bytes: 4
  %loadMem_400fd8 = load %struct.Memory*, %struct.Memory** %MEMORY
  %call_400fd8 = call %struct.Memory* @routine_movq_0x18__rbp____r10(%struct.State* %0, i64  0, %struct.Memory* %loadMem_400fd8)
  store %struct.Memory* %call_400fd8, %struct.Memory** %MEMORY

  ; Code: movq 0x10(%rbp), %r11	 RIP: 400fdc	 Bytes: 4
  %loadMem_400fdc = load %struct.Memory*, %struct.Memory** %MEMORY
  %call_400fdc = call %struct.Memory* @routine_movq_0x10__rbp____r11(%struct.State* %0, i64  0, %struct.Memory* %loadMem_400fdc)
  store %struct.Memory* %call_400fdc, %struct.Memory** %MEMORY

  ; Code: movl %edi, -0x4(%rbp)	 RIP: 400fe0	 Bytes: 3
  %loadMem_400fe0 = load %struct.Memory*, %struct.Memory** %MEMORY
  %call_400fe0 = call %struct.Memory* @routine_movl__edi__MINUS0x4__rbp_(%struct.State* %0, i64  0, %struct.Memory* %loadMem_400fe0)
  store %struct.Memory* %call_400fe0, %struct.Memory** %MEMORY

  ; Code: movl %esi, -0x8(%rbp)	 RIP: 400fe3	 Bytes: 3
  %loadMem_400fe3 = load %struct.Memory*, %struct.Memory** %MEMORY
  %call_400fe3 = call %struct.Memory* @routine_movl__esi__MINUS0x8__rbp_(%struct.State* %0, i64  0, %struct.Memory* %loadMem_400fe3)
  store %struct.Memory* %call_400fe3, %struct.Memory** %MEMORY

  ; Code: movl %edx, -0xc(%rbp)	 RIP: 400fe6	 Bytes: 3
  %loadMem_400fe6 = load %struct.Memory*, %struct.Memory** %MEMORY
  %call_400fe6 = call %struct.Memory* @routine_movl__edx__MINUS0xc__rbp_(%struct.State* %0, i64  0, %struct.Memory* %loadMem_400fe6)
  store %struct.Memory* %call_400fe6, %struct.Memory** %MEMORY

  ; Code: movl %ecx, -0x10(%rbp)	 RIP: 400fe9	 Bytes: 3
  %loadMem_400fe9 = load %struct.Memory*, %struct.Memory** %MEMORY
  %call_400fe9 = call %struct.Memory* @routine_movl__ecx__MINUS0x10__rbp_(%struct.State* %0, i64  0, %struct.Memory* %loadMem_400fe9)
  store %struct.Memory* %call_400fe9, %struct.Memory** %MEMORY

  ; Code: movsd %xmm0, -0x18(%rbp)	 RIP: 400fec	 Bytes: 5
  %loadMem_400fec = load %struct.Memory*, %struct.Memory** %MEMORY
  %call_400fec = call %struct.Memory* @routine_movsd__xmm0__MINUS0x18__rbp_(%struct.State* %0, i64  0, %struct.Memory* %loadMem_400fec)
  store %struct.Memory* %call_400fec, %struct.Memory** %MEMORY

  ; Code: movsd %xmm1, -0x20(%rbp)	 RIP: 400ff1	 Bytes: 5
  %loadMem_400ff1 = load %struct.Memory*, %struct.Memory** %MEMORY
  %call_400ff1 = call %struct.Memory* @routine_movsd__xmm1__MINUS0x20__rbp_(%struct.State* %0, i64  0, %struct.Memory* %loadMem_400ff1)
  store %struct.Memory* %call_400ff1, %struct.Memory** %MEMORY

  ; Code: movq %r8, -0x28(%rbp)	 RIP: 400ff6	 Bytes: 4
  %loadMem_400ff6 = load %struct.Memory*, %struct.Memory** %MEMORY
  %call_400ff6 = call %struct.Memory* @routine_movq__r8__MINUS0x28__rbp_(%struct.State* %0, i64  0, %struct.Memory* %loadMem_400ff6)
  store %struct.Memory* %call_400ff6, %struct.Memory** %MEMORY

  ; Code: movq %r9, -0x30(%rbp)	 RIP: 400ffa	 Bytes: 4
  %loadMem_400ffa = load %struct.Memory*, %struct.Memory** %MEMORY
  %call_400ffa = call %struct.Memory* @routine_movq__r9__MINUS0x30__rbp_(%struct.State* %0, i64  0, %struct.Memory* %loadMem_400ffa)
  store %struct.Memory* %call_400ffa, %struct.Memory** %MEMORY

  ; Code: movq %r11, -0x38(%rbp)	 RIP: 400ffe	 Bytes: 4
  %loadMem_400ffe = load %struct.Memory*, %struct.Memory** %MEMORY
  %call_400ffe = call %struct.Memory* @routine_movq__r11__MINUS0x38__rbp_(%struct.State* %0, i64  0, %struct.Memory* %loadMem_400ffe)
  store %struct.Memory* %call_400ffe, %struct.Memory** %MEMORY

  ; Code: movq %r10, -0x40(%rbp)	 RIP: 401002	 Bytes: 4
  %loadMem_401002 = load %struct.Memory*, %struct.Memory** %MEMORY
  %call_401002 = call %struct.Memory* @routine_movq__r10__MINUS0x40__rbp_(%struct.State* %0, i64  0, %struct.Memory* %loadMem_401002)
  store %struct.Memory* %call_401002, %struct.Memory** %MEMORY

  ; Code: movq %rax, -0x48(%rbp)	 RIP: 401006	 Bytes: 4
  %loadMem_401006 = load %struct.Memory*, %struct.Memory** %MEMORY
  %call_401006 = call %struct.Memory* @routine_movq__rax__MINUS0x48__rbp_(%struct.State* %0, i64  0, %struct.Memory* %loadMem_401006)
  store %struct.Memory* %call_401006, %struct.Memory** %MEMORY

  ; Code: movl $0x0, -0x4c(%rbp)	 RIP: 40100a	 Bytes: 7
  %loadMem_40100a = load %struct.Memory*, %struct.Memory** %MEMORY
  %call_40100a = call %struct.Memory* @routine_movl__0x0__MINUS0x4c__rbp_(%struct.State* %0, i64  0, %struct.Memory* %loadMem_40100a)
  store %struct.Memory* %call_40100a, %struct.Memory** %MEMORY

  ; Code: .L_401011:	 RIP: 401011	 Bytes: 0
  br label %block_.L_401011
block_.L_401011:

  ; Code: movl -0x4c(%rbp), %eax	 RIP: 401011	 Bytes: 3
  %loadMem_401011 = load %struct.Memory*, %struct.Memory** %MEMORY
  %call_401011 = call %struct.Memory* @routine_movl_MINUS0x4c__rbp____eax(%struct.State* %0, i64  0, %struct.Memory* %loadMem_401011)
  store %struct.Memory* %call_401011, %struct.Memory** %MEMORY

  ; Code: cmpl -0x4(%rbp), %eax	 RIP: 401014	 Bytes: 3
  %loadMem_401014 = load %struct.Memory*, %struct.Memory** %MEMORY
  %call_401014 = call %struct.Memory* @routine_cmpl_MINUS0x4__rbp____eax(%struct.State* %0, i64  0, %struct.Memory* %loadMem_401014)
  store %struct.Memory* %call_401014, %struct.Memory** %MEMORY

  ; Code: jge .L_4010e4	 RIP: 401017	 Bytes: 6
  %loadMem_401017 = load %struct.Memory*, %struct.Memory** %MEMORY
  %call_401017 = call %struct.Memory* @routine_jge_.L_4010e4(%struct.State* %0, i64  0, %struct.Memory* %loadMem_401017, i8* %BRANCH_TAKEN, i64 205, i64 6, i64 6)
  store %struct.Memory* %call_401017, %struct.Memory** %MEMORY

  %loadBr_401017 = load i8, i8* %BRANCH_TAKEN
  %cmpBr_401017 = icmp eq i8 %loadBr_401017, 1
  br i1 %cmpBr_401017, label %block_.L_4010e4, label %block_40101d

block_40101d:
  ; Code: movl $0x0, -0x50(%rbp)	 RIP: 40101d	 Bytes: 7
  %loadMem_40101d = load %struct.Memory*, %struct.Memory** %MEMORY
  %call_40101d = call %struct.Memory* @routine_movl__0x0__MINUS0x50__rbp_(%struct.State* %0, i64  0, %struct.Memory* %loadMem_40101d)
  store %struct.Memory* %call_40101d, %struct.Memory** %MEMORY

  ; Code: .L_401024:	 RIP: 401024	 Bytes: 0
  br label %block_.L_401024
block_.L_401024:

  ; Code: movl -0x50(%rbp), %eax	 RIP: 401024	 Bytes: 3
  %loadMem_401024 = load %struct.Memory*, %struct.Memory** %MEMORY
  %call_401024 = call %struct.Memory* @routine_movl_MINUS0x50__rbp____eax(%struct.State* %0, i64  0, %struct.Memory* %loadMem_401024)
  store %struct.Memory* %call_401024, %struct.Memory** %MEMORY

  ; Code: cmpl -0x8(%rbp), %eax	 RIP: 401027	 Bytes: 3
  %loadMem_401027 = load %struct.Memory*, %struct.Memory** %MEMORY
  %call_401027 = call %struct.Memory* @routine_cmpl_MINUS0x8__rbp____eax(%struct.State* %0, i64  0, %struct.Memory* %loadMem_401027)
  store %struct.Memory* %call_401027, %struct.Memory** %MEMORY

  ; Code: jge .L_4010d1	 RIP: 40102a	 Bytes: 6
  %loadMem_40102a = load %struct.Memory*, %struct.Memory** %MEMORY
  %call_40102a = call %struct.Memory* @routine_jge_.L_4010d1(%struct.State* %0, i64  0, %struct.Memory* %loadMem_40102a, i8* %BRANCH_TAKEN, i64 167, i64 6, i64 6)
  store %struct.Memory* %call_40102a, %struct.Memory** %MEMORY

  %loadBr_40102a = load i8, i8* %BRANCH_TAKEN
  %cmpBr_40102a = icmp eq i8 %loadBr_40102a, 1
  br i1 %cmpBr_40102a, label %block_.L_4010d1, label %block_401030

block_401030:
  ; Code: xorps %xmm0, %xmm0	 RIP: 401030	 Bytes: 3
  %loadMem_401030 = load %struct.Memory*, %struct.Memory** %MEMORY
  %call_401030 = call %struct.Memory* @routine_xorps__xmm0___xmm0(%struct.State* %0, i64  0, %struct.Memory* %loadMem_401030)
  store %struct.Memory* %call_401030, %struct.Memory** %MEMORY

  ; Code: movq -0x28(%rbp), %rax	 RIP: 401033	 Bytes: 4
  %loadMem_401033 = load %struct.Memory*, %struct.Memory** %MEMORY
  %call_401033 = call %struct.Memory* @routine_movq_MINUS0x28__rbp____rax(%struct.State* %0, i64  0, %struct.Memory* %loadMem_401033)
  store %struct.Memory* %call_401033, %struct.Memory** %MEMORY

  ; Code: movslq -0x4c(%rbp), %rcx	 RIP: 401037	 Bytes: 4
  %loadMem_401037 = load %struct.Memory*, %struct.Memory** %MEMORY
  %call_401037 = call %struct.Memory* @routine_movslq_MINUS0x4c__rbp____rcx(%struct.State* %0, i64  0, %struct.Memory* %loadMem_401037)
  store %struct.Memory* %call_401037, %struct.Memory** %MEMORY

  ; Code: shlq $0xd, %rcx	 RIP: 40103b	 Bytes: 4
  %loadMem_40103b = load %struct.Memory*, %struct.Memory** %MEMORY
  %call_40103b = call %struct.Memory* @routine_shlq__0xd___rcx(%struct.State* %0, i64  0, %struct.Memory* %loadMem_40103b)
  store %struct.Memory* %call_40103b, %struct.Memory** %MEMORY

  ; Code: addq %rcx, %rax	 RIP: 40103f	 Bytes: 3
  %loadMem_40103f = load %struct.Memory*, %struct.Memory** %MEMORY
  %call_40103f = call %struct.Memory* @routine_addq__rcx___rax(%struct.State* %0, i64  0, %struct.Memory* %loadMem_40103f)
  store %struct.Memory* %call_40103f, %struct.Memory** %MEMORY

  ; Code: movslq -0x50(%rbp), %rcx	 RIP: 401042	 Bytes: 4
  %loadMem_401042 = load %struct.Memory*, %struct.Memory** %MEMORY
  %call_401042 = call %struct.Memory* @routine_movslq_MINUS0x50__rbp____rcx(%struct.State* %0, i64  0, %struct.Memory* %loadMem_401042)
  store %struct.Memory* %call_401042, %struct.Memory** %MEMORY

  ; Code: movsd %xmm0, (%rax,%rcx,8)	 RIP: 401046	 Bytes: 5
  %loadMem_401046 = load %struct.Memory*, %struct.Memory** %MEMORY
  %call_401046 = call %struct.Memory* @routine_movsd__xmm0____rax__rcx_8_(%struct.State* %0, i64  0, %struct.Memory* %loadMem_401046)
  store %struct.Memory* %call_401046, %struct.Memory** %MEMORY

  ; Code: movl $0x0, -0x54(%rbp)	 RIP: 40104b	 Bytes: 7
  %loadMem_40104b = load %struct.Memory*, %struct.Memory** %MEMORY
  %call_40104b = call %struct.Memory* @routine_movl__0x0__MINUS0x54__rbp_(%struct.State* %0, i64  0, %struct.Memory* %loadMem_40104b)
  store %struct.Memory* %call_40104b, %struct.Memory** %MEMORY

  ; Code: .L_401052:	 RIP: 401052	 Bytes: 0
  br label %block_.L_401052
block_.L_401052:

  ; Code: movl -0x54(%rbp), %eax	 RIP: 401052	 Bytes: 3
  %loadMem_401052 = load %struct.Memory*, %struct.Memory** %MEMORY
  %call_401052 = call %struct.Memory* @routine_movl_MINUS0x54__rbp____eax(%struct.State* %0, i64  0, %struct.Memory* %loadMem_401052)
  store %struct.Memory* %call_401052, %struct.Memory** %MEMORY

  ; Code: cmpl -0xc(%rbp), %eax	 RIP: 401055	 Bytes: 3
  %loadMem_401055 = load %struct.Memory*, %struct.Memory** %MEMORY
  %call_401055 = call %struct.Memory* @routine_cmpl_MINUS0xc__rbp____eax(%struct.State* %0, i64  0, %struct.Memory* %loadMem_401055)
  store %struct.Memory* %call_401055, %struct.Memory** %MEMORY

  ; Code: jge .L_4010be	 RIP: 401058	 Bytes: 6
  %loadMem_401058 = load %struct.Memory*, %struct.Memory** %MEMORY
  %call_401058 = call %struct.Memory* @routine_jge_.L_4010be(%struct.State* %0, i64  0, %struct.Memory* %loadMem_401058, i8* %BRANCH_TAKEN, i64 102, i64 6, i64 6)
  store %struct.Memory* %call_401058, %struct.Memory** %MEMORY

  %loadBr_401058 = load i8, i8* %BRANCH_TAKEN
  %cmpBr_401058 = icmp eq i8 %loadBr_401058, 1
  br i1 %cmpBr_401058, label %block_.L_4010be, label %block_40105e

block_40105e:
  ; Code: movsd -0x18(%rbp), %xmm0	 RIP: 40105e	 Bytes: 5
  %loadMem_40105e = load %struct.Memory*, %struct.Memory** %MEMORY
  %call_40105e = call %struct.Memory* @routine_movsd_MINUS0x18__rbp____xmm0(%struct.State* %0, i64  0, %struct.Memory* %loadMem_40105e)
  store %struct.Memory* %call_40105e, %struct.Memory** %MEMORY

  ; Code: movq -0x30(%rbp), %rax	 RIP: 401063	 Bytes: 4
  %loadMem_401063 = load %struct.Memory*, %struct.Memory** %MEMORY
  %call_401063 = call %struct.Memory* @routine_movq_MINUS0x30__rbp____rax(%struct.State* %0, i64  0, %struct.Memory* %loadMem_401063)
  store %struct.Memory* %call_401063, %struct.Memory** %MEMORY

  ; Code: movslq -0x4c(%rbp), %rcx	 RIP: 401067	 Bytes: 4
  %loadMem_401067 = load %struct.Memory*, %struct.Memory** %MEMORY
  %call_401067 = call %struct.Memory* @routine_movslq_MINUS0x4c__rbp____rcx(%struct.State* %0, i64  0, %struct.Memory* %loadMem_401067)
  store %struct.Memory* %call_401067, %struct.Memory** %MEMORY

  ; Code: shlq $0xd, %rcx	 RIP: 40106b	 Bytes: 4
  %loadMem_40106b = load %struct.Memory*, %struct.Memory** %MEMORY
  %call_40106b = call %struct.Memory* @routine_shlq__0xd___rcx(%struct.State* %0, i64  0, %struct.Memory* %loadMem_40106b)
  store %struct.Memory* %call_40106b, %struct.Memory** %MEMORY

  ; Code: addq %rcx, %rax	 RIP: 40106f	 Bytes: 3
  %loadMem_40106f = load %struct.Memory*, %struct.Memory** %MEMORY
  %call_40106f = call %struct.Memory* @routine_addq__rcx___rax(%struct.State* %0, i64  0, %struct.Memory* %loadMem_40106f)
  store %struct.Memory* %call_40106f, %struct.Memory** %MEMORY

  ; Code: movslq -0x54(%rbp), %rcx	 RIP: 401072	 Bytes: 4
  %loadMem_401072 = load %struct.Memory*, %struct.Memory** %MEMORY
  %call_401072 = call %struct.Memory* @routine_movslq_MINUS0x54__rbp____rcx(%struct.State* %0, i64  0, %struct.Memory* %loadMem_401072)
  store %struct.Memory* %call_401072, %struct.Memory** %MEMORY

  ; Code: mulsd (%rax,%rcx,8), %xmm0	 RIP: 401076	 Bytes: 5
  %loadMem_401076 = load %struct.Memory*, %struct.Memory** %MEMORY
  %call_401076 = call %struct.Memory* @routine_mulsd___rax__rcx_8____xmm0(%struct.State* %0, i64  0, %struct.Memory* %loadMem_401076)
  store %struct.Memory* %call_401076, %struct.Memory** %MEMORY

  ; Code: movq -0x38(%rbp), %rax	 RIP: 40107b	 Bytes: 4
  %loadMem_40107b = load %struct.Memory*, %struct.Memory** %MEMORY
  %call_40107b = call %struct.Memory* @routine_movq_MINUS0x38__rbp____rax(%struct.State* %0, i64  0, %struct.Memory* %loadMem_40107b)
  store %struct.Memory* %call_40107b, %struct.Memory** %MEMORY

  ; Code: movslq -0x54(%rbp), %rcx	 RIP: 40107f	 Bytes: 4
  %loadMem_40107f = load %struct.Memory*, %struct.Memory** %MEMORY
  %call_40107f = call %struct.Memory* @routine_movslq_MINUS0x54__rbp____rcx(%struct.State* %0, i64  0, %struct.Memory* %loadMem_40107f)
  store %struct.Memory* %call_40107f, %struct.Memory** %MEMORY

  ; Code: shlq $0xd, %rcx	 RIP: 401083	 Bytes: 4
  %loadMem_401083 = load %struct.Memory*, %struct.Memory** %MEMORY
  %call_401083 = call %struct.Memory* @routine_shlq__0xd___rcx(%struct.State* %0, i64  0, %struct.Memory* %loadMem_401083)
  store %struct.Memory* %call_401083, %struct.Memory** %MEMORY

  ; Code: addq %rcx, %rax	 RIP: 401087	 Bytes: 3
  %loadMem_401087 = load %struct.Memory*, %struct.Memory** %MEMORY
  %call_401087 = call %struct.Memory* @routine_addq__rcx___rax(%struct.State* %0, i64  0, %struct.Memory* %loadMem_401087)
  store %struct.Memory* %call_401087, %struct.Memory** %MEMORY

  ; Code: movslq -0x50(%rbp), %rcx	 RIP: 40108a	 Bytes: 4
  %loadMem_40108a = load %struct.Memory*, %struct.Memory** %MEMORY
  %call_40108a = call %struct.Memory* @routine_movslq_MINUS0x50__rbp____rcx(%struct.State* %0, i64  0, %struct.Memory* %loadMem_40108a)
  store %struct.Memory* %call_40108a, %struct.Memory** %MEMORY

  ; Code: mulsd (%rax,%rcx,8), %xmm0	 RIP: 40108e	 Bytes: 5
  %loadMem_40108e = load %struct.Memory*, %struct.Memory** %MEMORY
  %call_40108e = call %struct.Memory* @routine_mulsd___rax__rcx_8____xmm0(%struct.State* %0, i64  0, %struct.Memory* %loadMem_40108e)
  store %struct.Memory* %call_40108e, %struct.Memory** %MEMORY

  ; Code: movq -0x28(%rbp), %rax	 RIP: 401093	 Bytes: 4
  %loadMem_401093 = load %struct.Memory*, %struct.Memory** %MEMORY
  %call_401093 = call %struct.Memory* @routine_movq_MINUS0x28__rbp____rax(%struct.State* %0, i64  0, %struct.Memory* %loadMem_401093)
  store %struct.Memory* %call_401093, %struct.Memory** %MEMORY

  ; Code: movslq -0x4c(%rbp), %rcx	 RIP: 401097	 Bytes: 4
  %loadMem_401097 = load %struct.Memory*, %struct.Memory** %MEMORY
  %call_401097 = call %struct.Memory* @routine_movslq_MINUS0x4c__rbp____rcx(%struct.State* %0, i64  0, %struct.Memory* %loadMem_401097)
  store %struct.Memory* %call_401097, %struct.Memory** %MEMORY

  ; Code: shlq $0xd, %rcx	 RIP: 40109b	 Bytes: 4
  %loadMem_40109b = load %struct.Memory*, %struct.Memory** %MEMORY
  %call_40109b = call %struct.Memory* @routine_shlq__0xd___rcx(%struct.State* %0, i64  0, %struct.Memory* %loadMem_40109b)
  store %struct.Memory* %call_40109b, %struct.Memory** %MEMORY

  ; Code: addq %rcx, %rax	 RIP: 40109f	 Bytes: 3
  %loadMem_40109f = load %struct.Memory*, %struct.Memory** %MEMORY
  %call_40109f = call %struct.Memory* @routine_addq__rcx___rax(%struct.State* %0, i64  0, %struct.Memory* %loadMem_40109f)
  store %struct.Memory* %call_40109f, %struct.Memory** %MEMORY

  ; Code: movslq -0x50(%rbp), %rcx	 RIP: 4010a2	 Bytes: 4
  %loadMem_4010a2 = load %struct.Memory*, %struct.Memory** %MEMORY
  %call_4010a2 = call %struct.Memory* @routine_movslq_MINUS0x50__rbp____rcx(%struct.State* %0, i64  0, %struct.Memory* %loadMem_4010a2)
  store %struct.Memory* %call_4010a2, %struct.Memory** %MEMORY

  ; Code: addsd (%rax,%rcx,8), %xmm0	 RIP: 4010a6	 Bytes: 5
  %loadMem_4010a6 = load %struct.Memory*, %struct.Memory** %MEMORY
  %call_4010a6 = call %struct.Memory* @routine_addsd___rax__rcx_8____xmm0(%struct.State* %0, i64  0, %struct.Memory* %loadMem_4010a6)
  store %struct.Memory* %call_4010a6, %struct.Memory** %MEMORY

  ; Code: movsd %xmm0, (%rax,%rcx,8)	 RIP: 4010ab	 Bytes: 5
  %loadMem_4010ab = load %struct.Memory*, %struct.Memory** %MEMORY
  %call_4010ab = call %struct.Memory* @routine_movsd__xmm0____rax__rcx_8_(%struct.State* %0, i64  0, %struct.Memory* %loadMem_4010ab)
  store %struct.Memory* %call_4010ab, %struct.Memory** %MEMORY

  ; Code: movl -0x54(%rbp), %eax	 RIP: 4010b0	 Bytes: 3
  %loadMem_4010b0 = load %struct.Memory*, %struct.Memory** %MEMORY
  %call_4010b0 = call %struct.Memory* @routine_movl_MINUS0x54__rbp____eax(%struct.State* %0, i64  0, %struct.Memory* %loadMem_4010b0)
  store %struct.Memory* %call_4010b0, %struct.Memory** %MEMORY

  ; Code: addl $0x1, %eax	 RIP: 4010b3	 Bytes: 3
  %loadMem_4010b3 = load %struct.Memory*, %struct.Memory** %MEMORY
  %call_4010b3 = call %struct.Memory* @routine_addl__0x1___eax(%struct.State* %0, i64  0, %struct.Memory* %loadMem_4010b3)
  store %struct.Memory* %call_4010b3, %struct.Memory** %MEMORY

  ; Code: movl %eax, -0x54(%rbp)	 RIP: 4010b6	 Bytes: 3
  %loadMem_4010b6 = load %struct.Memory*, %struct.Memory** %MEMORY
  %call_4010b6 = call %struct.Memory* @routine_movl__eax__MINUS0x54__rbp_(%struct.State* %0, i64  0, %struct.Memory* %loadMem_4010b6)
  store %struct.Memory* %call_4010b6, %struct.Memory** %MEMORY

  ; Code: jmpq .L_401052	 RIP: 4010b9	 Bytes: 5
  %loadMem_4010b9 = load %struct.Memory*, %struct.Memory** %MEMORY
  %call_4010b9 = call %struct.Memory* @routine_jmpq_.L_401052(%struct.State* %0, i64  0, %struct.Memory* %loadMem_4010b9, i64 -103, i64 5)
  store %struct.Memory* %call_4010b9, %struct.Memory** %MEMORY

  br label %block_.L_401052

  ; Code: .L_4010be:	 RIP: 4010be	 Bytes: 0
block_.L_4010be:

  ; Code: jmpq .L_4010c3	 RIP: 4010be	 Bytes: 5
  %loadMem_4010be = load %struct.Memory*, %struct.Memory** %MEMORY
  %call_4010be = call %struct.Memory* @routine_jmpq_.L_4010c3(%struct.State* %0, i64  0, %struct.Memory* %loadMem_4010be, i64 5, i64 5)
  store %struct.Memory* %call_4010be, %struct.Memory** %MEMORY

  br label %block_.L_4010c3

  ; Code: .L_4010c3:	 RIP: 4010c3	 Bytes: 0
block_.L_4010c3:

  ; Code: movl -0x50(%rbp), %eax	 RIP: 4010c3	 Bytes: 3
  %loadMem_4010c3 = load %struct.Memory*, %struct.Memory** %MEMORY
  %call_4010c3 = call %struct.Memory* @routine_movl_MINUS0x50__rbp____eax(%struct.State* %0, i64  0, %struct.Memory* %loadMem_4010c3)
  store %struct.Memory* %call_4010c3, %struct.Memory** %MEMORY

  ; Code: addl $0x1, %eax	 RIP: 4010c6	 Bytes: 3
  %loadMem_4010c6 = load %struct.Memory*, %struct.Memory** %MEMORY
  %call_4010c6 = call %struct.Memory* @routine_addl__0x1___eax(%struct.State* %0, i64  0, %struct.Memory* %loadMem_4010c6)
  store %struct.Memory* %call_4010c6, %struct.Memory** %MEMORY

  ; Code: movl %eax, -0x50(%rbp)	 RIP: 4010c9	 Bytes: 3
  %loadMem_4010c9 = load %struct.Memory*, %struct.Memory** %MEMORY
  %call_4010c9 = call %struct.Memory* @routine_movl__eax__MINUS0x50__rbp_(%struct.State* %0, i64  0, %struct.Memory* %loadMem_4010c9)
  store %struct.Memory* %call_4010c9, %struct.Memory** %MEMORY

  ; Code: jmpq .L_401024	 RIP: 4010cc	 Bytes: 5
  %loadMem_4010cc = load %struct.Memory*, %struct.Memory** %MEMORY
  %call_4010cc = call %struct.Memory* @routine_jmpq_.L_401024(%struct.State* %0, i64  0, %struct.Memory* %loadMem_4010cc, i64 -168, i64 5)
  store %struct.Memory* %call_4010cc, %struct.Memory** %MEMORY

  br label %block_.L_401024

  ; Code: .L_4010d1:	 RIP: 4010d1	 Bytes: 0
block_.L_4010d1:

  ; Code: jmpq .L_4010d6	 RIP: 4010d1	 Bytes: 5
  %loadMem_4010d1 = load %struct.Memory*, %struct.Memory** %MEMORY
  %call_4010d1 = call %struct.Memory* @routine_jmpq_.L_4010d6(%struct.State* %0, i64  0, %struct.Memory* %loadMem_4010d1, i64 5, i64 5)
  store %struct.Memory* %call_4010d1, %struct.Memory** %MEMORY

  br label %block_.L_4010d6

  ; Code: .L_4010d6:	 RIP: 4010d6	 Bytes: 0
block_.L_4010d6:

  ; Code: movl -0x4c(%rbp), %eax	 RIP: 4010d6	 Bytes: 3
  %loadMem_4010d6 = load %struct.Memory*, %struct.Memory** %MEMORY
  %call_4010d6 = call %struct.Memory* @routine_movl_MINUS0x4c__rbp____eax(%struct.State* %0, i64  0, %struct.Memory* %loadMem_4010d6)
  store %struct.Memory* %call_4010d6, %struct.Memory** %MEMORY

  ; Code: addl $0x1, %eax	 RIP: 4010d9	 Bytes: 3
  %loadMem_4010d9 = load %struct.Memory*, %struct.Memory** %MEMORY
  %call_4010d9 = call %struct.Memory* @routine_addl__0x1___eax(%struct.State* %0, i64  0, %struct.Memory* %loadMem_4010d9)
  store %struct.Memory* %call_4010d9, %struct.Memory** %MEMORY

  ; Code: movl %eax, -0x4c(%rbp)	 RIP: 4010dc	 Bytes: 3
  %loadMem_4010dc = load %struct.Memory*, %struct.Memory** %MEMORY
  %call_4010dc = call %struct.Memory* @routine_movl__eax__MINUS0x4c__rbp_(%struct.State* %0, i64  0, %struct.Memory* %loadMem_4010dc)
  store %struct.Memory* %call_4010dc, %struct.Memory** %MEMORY

  ; Code: jmpq .L_401011	 RIP: 4010df	 Bytes: 5
  %loadMem_4010df = load %struct.Memory*, %struct.Memory** %MEMORY
  %call_4010df = call %struct.Memory* @routine_jmpq_.L_401011(%struct.State* %0, i64  0, %struct.Memory* %loadMem_4010df, i64 -206, i64 5)
  store %struct.Memory* %call_4010df, %struct.Memory** %MEMORY

  br label %block_.L_401011

  ; Code: .L_4010e4:	 RIP: 4010e4	 Bytes: 0
block_.L_4010e4:

  ; Code: movl $0x0, -0x4c(%rbp)	 RIP: 4010e4	 Bytes: 7
  %loadMem_4010e4 = load %struct.Memory*, %struct.Memory** %MEMORY
  %call_4010e4 = call %struct.Memory* @routine_movl__0x0__MINUS0x4c__rbp_(%struct.State* %0, i64  0, %struct.Memory* %loadMem_4010e4)
  store %struct.Memory* %call_4010e4, %struct.Memory** %MEMORY

  ; Code: .L_4010eb:	 RIP: 4010eb	 Bytes: 0
  br label %block_.L_4010eb
block_.L_4010eb:

  ; Code: movl -0x4c(%rbp), %eax	 RIP: 4010eb	 Bytes: 3
  %loadMem_4010eb = load %struct.Memory*, %struct.Memory** %MEMORY
  %call_4010eb = call %struct.Memory* @routine_movl_MINUS0x4c__rbp____eax(%struct.State* %0, i64  0, %struct.Memory* %loadMem_4010eb)
  store %struct.Memory* %call_4010eb, %struct.Memory** %MEMORY

  ; Code: cmpl -0x4(%rbp), %eax	 RIP: 4010ee	 Bytes: 3
  %loadMem_4010ee = load %struct.Memory*, %struct.Memory** %MEMORY
  %call_4010ee = call %struct.Memory* @routine_cmpl_MINUS0x4__rbp____eax(%struct.State* %0, i64  0, %struct.Memory* %loadMem_4010ee)
  store %struct.Memory* %call_4010ee, %struct.Memory** %MEMORY

  ; Code: jge .L_4011c0	 RIP: 4010f1	 Bytes: 6
  %loadMem_4010f1 = load %struct.Memory*, %struct.Memory** %MEMORY
  %call_4010f1 = call %struct.Memory* @routine_jge_.L_4011c0(%struct.State* %0, i64  0, %struct.Memory* %loadMem_4010f1, i8* %BRANCH_TAKEN, i64 207, i64 6, i64 6)
  store %struct.Memory* %call_4010f1, %struct.Memory** %MEMORY

  %loadBr_4010f1 = load i8, i8* %BRANCH_TAKEN
  %cmpBr_4010f1 = icmp eq i8 %loadBr_4010f1, 1
  br i1 %cmpBr_4010f1, label %block_.L_4011c0, label %block_4010f7

block_4010f7:
  ; Code: movl $0x0, -0x50(%rbp)	 RIP: 4010f7	 Bytes: 7
  %loadMem_4010f7 = load %struct.Memory*, %struct.Memory** %MEMORY
  %call_4010f7 = call %struct.Memory* @routine_movl__0x0__MINUS0x50__rbp_(%struct.State* %0, i64  0, %struct.Memory* %loadMem_4010f7)
  store %struct.Memory* %call_4010f7, %struct.Memory** %MEMORY

  ; Code: .L_4010fe:	 RIP: 4010fe	 Bytes: 0
  br label %block_.L_4010fe
block_.L_4010fe:

  ; Code: movl -0x50(%rbp), %eax	 RIP: 4010fe	 Bytes: 3
  %loadMem_4010fe = load %struct.Memory*, %struct.Memory** %MEMORY
  %call_4010fe = call %struct.Memory* @routine_movl_MINUS0x50__rbp____eax(%struct.State* %0, i64  0, %struct.Memory* %loadMem_4010fe)
  store %struct.Memory* %call_4010fe, %struct.Memory** %MEMORY

  ; Code: cmpl -0x10(%rbp), %eax	 RIP: 401101	 Bytes: 3
  %loadMem_401101 = load %struct.Memory*, %struct.Memory** %MEMORY
  %call_401101 = call %struct.Memory* @routine_cmpl_MINUS0x10__rbp____eax(%struct.State* %0, i64  0, %struct.Memory* %loadMem_401101)
  store %struct.Memory* %call_401101, %struct.Memory** %MEMORY

  ; Code: jge .L_4011ad	 RIP: 401104	 Bytes: 6
  %loadMem_401104 = load %struct.Memory*, %struct.Memory** %MEMORY
  %call_401104 = call %struct.Memory* @routine_jge_.L_4011ad(%struct.State* %0, i64  0, %struct.Memory* %loadMem_401104, i8* %BRANCH_TAKEN, i64 169, i64 6, i64 6)
  store %struct.Memory* %call_401104, %struct.Memory** %MEMORY

  %loadBr_401104 = load i8, i8* %BRANCH_TAKEN
  %cmpBr_401104 = icmp eq i8 %loadBr_401104, 1
  br i1 %cmpBr_401104, label %block_.L_4011ad, label %block_40110a

block_40110a:
  ; Code: movsd -0x20(%rbp), %xmm0	 RIP: 40110a	 Bytes: 5
  %loadMem_40110a = load %struct.Memory*, %struct.Memory** %MEMORY
  %call_40110a = call %struct.Memory* @routine_movsd_MINUS0x20__rbp____xmm0(%struct.State* %0, i64  0, %struct.Memory* %loadMem_40110a)
  store %struct.Memory* %call_40110a, %struct.Memory** %MEMORY

  ; Code: movq -0x48(%rbp), %rax	 RIP: 40110f	 Bytes: 4
  %loadMem_40110f = load %struct.Memory*, %struct.Memory** %MEMORY
  %call_40110f = call %struct.Memory* @routine_movq_MINUS0x48__rbp____rax(%struct.State* %0, i64  0, %struct.Memory* %loadMem_40110f)
  store %struct.Memory* %call_40110f, %struct.Memory** %MEMORY

  ; Code: movslq -0x4c(%rbp), %rcx	 RIP: 401113	 Bytes: 4
  %loadMem_401113 = load %struct.Memory*, %struct.Memory** %MEMORY
  %call_401113 = call %struct.Memory* @routine_movslq_MINUS0x4c__rbp____rcx(%struct.State* %0, i64  0, %struct.Memory* %loadMem_401113)
  store %struct.Memory* %call_401113, %struct.Memory** %MEMORY

  ; Code: shlq $0xd, %rcx	 RIP: 401117	 Bytes: 4
  %loadMem_401117 = load %struct.Memory*, %struct.Memory** %MEMORY
  %call_401117 = call %struct.Memory* @routine_shlq__0xd___rcx(%struct.State* %0, i64  0, %struct.Memory* %loadMem_401117)
  store %struct.Memory* %call_401117, %struct.Memory** %MEMORY

  ; Code: addq %rcx, %rax	 RIP: 40111b	 Bytes: 3
  %loadMem_40111b = load %struct.Memory*, %struct.Memory** %MEMORY
  %call_40111b = call %struct.Memory* @routine_addq__rcx___rax(%struct.State* %0, i64  0, %struct.Memory* %loadMem_40111b)
  store %struct.Memory* %call_40111b, %struct.Memory** %MEMORY

  ; Code: movslq -0x50(%rbp), %rcx	 RIP: 40111e	 Bytes: 4
  %loadMem_40111e = load %struct.Memory*, %struct.Memory** %MEMORY
  %call_40111e = call %struct.Memory* @routine_movslq_MINUS0x50__rbp____rcx(%struct.State* %0, i64  0, %struct.Memory* %loadMem_40111e)
  store %struct.Memory* %call_40111e, %struct.Memory** %MEMORY

  ; Code: mulsd (%rax,%rcx,8), %xmm0	 RIP: 401122	 Bytes: 5
  %loadMem_401122 = load %struct.Memory*, %struct.Memory** %MEMORY
  %call_401122 = call %struct.Memory* @routine_mulsd___rax__rcx_8____xmm0(%struct.State* %0, i64  0, %struct.Memory* %loadMem_401122)
  store %struct.Memory* %call_401122, %struct.Memory** %MEMORY

  ; Code: movsd %xmm0, (%rax,%rcx,8)	 RIP: 401127	 Bytes: 5
  %loadMem_401127 = load %struct.Memory*, %struct.Memory** %MEMORY
  %call_401127 = call %struct.Memory* @routine_movsd__xmm0____rax__rcx_8_(%struct.State* %0, i64  0, %struct.Memory* %loadMem_401127)
  store %struct.Memory* %call_401127, %struct.Memory** %MEMORY

  ; Code: movl $0x0, -0x54(%rbp)	 RIP: 40112c	 Bytes: 7
  %loadMem_40112c = load %struct.Memory*, %struct.Memory** %MEMORY
  %call_40112c = call %struct.Memory* @routine_movl__0x0__MINUS0x54__rbp_(%struct.State* %0, i64  0, %struct.Memory* %loadMem_40112c)
  store %struct.Memory* %call_40112c, %struct.Memory** %MEMORY

  ; Code: .L_401133:	 RIP: 401133	 Bytes: 0
  br label %block_.L_401133
block_.L_401133:

  ; Code: movl -0x54(%rbp), %eax	 RIP: 401133	 Bytes: 3
  %loadMem_401133 = load %struct.Memory*, %struct.Memory** %MEMORY
  %call_401133 = call %struct.Memory* @routine_movl_MINUS0x54__rbp____eax(%struct.State* %0, i64  0, %struct.Memory* %loadMem_401133)
  store %struct.Memory* %call_401133, %struct.Memory** %MEMORY

  ; Code: cmpl -0x8(%rbp), %eax	 RIP: 401136	 Bytes: 3
  %loadMem_401136 = load %struct.Memory*, %struct.Memory** %MEMORY
  %call_401136 = call %struct.Memory* @routine_cmpl_MINUS0x8__rbp____eax(%struct.State* %0, i64  0, %struct.Memory* %loadMem_401136)
  store %struct.Memory* %call_401136, %struct.Memory** %MEMORY

  ; Code: jge .L_40119a	 RIP: 401139	 Bytes: 6
  %loadMem_401139 = load %struct.Memory*, %struct.Memory** %MEMORY
  %call_401139 = call %struct.Memory* @routine_jge_.L_40119a(%struct.State* %0, i64  0, %struct.Memory* %loadMem_401139, i8* %BRANCH_TAKEN, i64 97, i64 6, i64 6)
  store %struct.Memory* %call_401139, %struct.Memory** %MEMORY

  %loadBr_401139 = load i8, i8* %BRANCH_TAKEN
  %cmpBr_401139 = icmp eq i8 %loadBr_401139, 1
  br i1 %cmpBr_401139, label %block_.L_40119a, label %block_40113f

block_40113f:
  ; Code: movq -0x28(%rbp), %rax	 RIP: 40113f	 Bytes: 4
  %loadMem_40113f = load %struct.Memory*, %struct.Memory** %MEMORY
  %call_40113f = call %struct.Memory* @routine_movq_MINUS0x28__rbp____rax(%struct.State* %0, i64  0, %struct.Memory* %loadMem_40113f)
  store %struct.Memory* %call_40113f, %struct.Memory** %MEMORY

  ; Code: movslq -0x4c(%rbp), %rcx	 RIP: 401143	 Bytes: 4
  %loadMem_401143 = load %struct.Memory*, %struct.Memory** %MEMORY
  %call_401143 = call %struct.Memory* @routine_movslq_MINUS0x4c__rbp____rcx(%struct.State* %0, i64  0, %struct.Memory* %loadMem_401143)
  store %struct.Memory* %call_401143, %struct.Memory** %MEMORY

  ; Code: shlq $0xd, %rcx	 RIP: 401147	 Bytes: 4
  %loadMem_401147 = load %struct.Memory*, %struct.Memory** %MEMORY
  %call_401147 = call %struct.Memory* @routine_shlq__0xd___rcx(%struct.State* %0, i64  0, %struct.Memory* %loadMem_401147)
  store %struct.Memory* %call_401147, %struct.Memory** %MEMORY

  ; Code: addq %rcx, %rax	 RIP: 40114b	 Bytes: 3
  %loadMem_40114b = load %struct.Memory*, %struct.Memory** %MEMORY
  %call_40114b = call %struct.Memory* @routine_addq__rcx___rax(%struct.State* %0, i64  0, %struct.Memory* %loadMem_40114b)
  store %struct.Memory* %call_40114b, %struct.Memory** %MEMORY

  ; Code: movslq -0x54(%rbp), %rcx	 RIP: 40114e	 Bytes: 4
  %loadMem_40114e = load %struct.Memory*, %struct.Memory** %MEMORY
  %call_40114e = call %struct.Memory* @routine_movslq_MINUS0x54__rbp____rcx(%struct.State* %0, i64  0, %struct.Memory* %loadMem_40114e)
  store %struct.Memory* %call_40114e, %struct.Memory** %MEMORY

  ; Code: movsd (%rax,%rcx,8), %xmm0	 RIP: 401152	 Bytes: 5
  %loadMem_401152 = load %struct.Memory*, %struct.Memory** %MEMORY
  %call_401152 = call %struct.Memory* @routine_movsd___rax__rcx_8____xmm0(%struct.State* %0, i64  0, %struct.Memory* %loadMem_401152)
  store %struct.Memory* %call_401152, %struct.Memory** %MEMORY

  ; Code: movq -0x40(%rbp), %rax	 RIP: 401157	 Bytes: 4
  %loadMem_401157 = load %struct.Memory*, %struct.Memory** %MEMORY
  %call_401157 = call %struct.Memory* @routine_movq_MINUS0x40__rbp____rax(%struct.State* %0, i64  0, %struct.Memory* %loadMem_401157)
  store %struct.Memory* %call_401157, %struct.Memory** %MEMORY

  ; Code: movslq -0x54(%rbp), %rcx	 RIP: 40115b	 Bytes: 4
  %loadMem_40115b = load %struct.Memory*, %struct.Memory** %MEMORY
  %call_40115b = call %struct.Memory* @routine_movslq_MINUS0x54__rbp____rcx(%struct.State* %0, i64  0, %struct.Memory* %loadMem_40115b)
  store %struct.Memory* %call_40115b, %struct.Memory** %MEMORY

  ; Code: shlq $0xd, %rcx	 RIP: 40115f	 Bytes: 4
  %loadMem_40115f = load %struct.Memory*, %struct.Memory** %MEMORY
  %call_40115f = call %struct.Memory* @routine_shlq__0xd___rcx(%struct.State* %0, i64  0, %struct.Memory* %loadMem_40115f)
  store %struct.Memory* %call_40115f, %struct.Memory** %MEMORY

  ; Code: addq %rcx, %rax	 RIP: 401163	 Bytes: 3
  %loadMem_401163 = load %struct.Memory*, %struct.Memory** %MEMORY
  %call_401163 = call %struct.Memory* @routine_addq__rcx___rax(%struct.State* %0, i64  0, %struct.Memory* %loadMem_401163)
  store %struct.Memory* %call_401163, %struct.Memory** %MEMORY

  ; Code: movslq -0x50(%rbp), %rcx	 RIP: 401166	 Bytes: 4
  %loadMem_401166 = load %struct.Memory*, %struct.Memory** %MEMORY
  %call_401166 = call %struct.Memory* @routine_movslq_MINUS0x50__rbp____rcx(%struct.State* %0, i64  0, %struct.Memory* %loadMem_401166)
  store %struct.Memory* %call_401166, %struct.Memory** %MEMORY

  ; Code: mulsd (%rax,%rcx,8), %xmm0	 RIP: 40116a	 Bytes: 5
  %loadMem_40116a = load %struct.Memory*, %struct.Memory** %MEMORY
  %call_40116a = call %struct.Memory* @routine_mulsd___rax__rcx_8____xmm0(%struct.State* %0, i64  0, %struct.Memory* %loadMem_40116a)
  store %struct.Memory* %call_40116a, %struct.Memory** %MEMORY

  ; Code: movq -0x48(%rbp), %rax	 RIP: 40116f	 Bytes: 4
  %loadMem_40116f = load %struct.Memory*, %struct.Memory** %MEMORY
  %call_40116f = call %struct.Memory* @routine_movq_MINUS0x48__rbp____rax(%struct.State* %0, i64  0, %struct.Memory* %loadMem_40116f)
  store %struct.Memory* %call_40116f, %struct.Memory** %MEMORY

  ; Code: movslq -0x4c(%rbp), %rcx	 RIP: 401173	 Bytes: 4
  %loadMem_401173 = load %struct.Memory*, %struct.Memory** %MEMORY
  %call_401173 = call %struct.Memory* @routine_movslq_MINUS0x4c__rbp____rcx(%struct.State* %0, i64  0, %struct.Memory* %loadMem_401173)
  store %struct.Memory* %call_401173, %struct.Memory** %MEMORY

  ; Code: shlq $0xd, %rcx	 RIP: 401177	 Bytes: 4
  %loadMem_401177 = load %struct.Memory*, %struct.Memory** %MEMORY
  %call_401177 = call %struct.Memory* @routine_shlq__0xd___rcx(%struct.State* %0, i64  0, %struct.Memory* %loadMem_401177)
  store %struct.Memory* %call_401177, %struct.Memory** %MEMORY

  ; Code: addq %rcx, %rax	 RIP: 40117b	 Bytes: 3
  %loadMem_40117b = load %struct.Memory*, %struct.Memory** %MEMORY
  %call_40117b = call %struct.Memory* @routine_addq__rcx___rax(%struct.State* %0, i64  0, %struct.Memory* %loadMem_40117b)
  store %struct.Memory* %call_40117b, %struct.Memory** %MEMORY

  ; Code: movslq -0x50(%rbp), %rcx	 RIP: 40117e	 Bytes: 4
  %loadMem_40117e = load %struct.Memory*, %struct.Memory** %MEMORY
  %call_40117e = call %struct.Memory* @routine_movslq_MINUS0x50__rbp____rcx(%struct.State* %0, i64  0, %struct.Memory* %loadMem_40117e)
  store %struct.Memory* %call_40117e, %struct.Memory** %MEMORY

  ; Code: addsd (%rax,%rcx,8), %xmm0	 RIP: 401182	 Bytes: 5
  %loadMem_401182 = load %struct.Memory*, %struct.Memory** %MEMORY
  %call_401182 = call %struct.Memory* @routine_addsd___rax__rcx_8____xmm0(%struct.State* %0, i64  0, %struct.Memory* %loadMem_401182)
  store %struct.Memory* %call_401182, %struct.Memory** %MEMORY

  ; Code: movsd %xmm0, (%rax,%rcx,8)	 RIP: 401187	 Bytes: 5
  %loadMem_401187 = load %struct.Memory*, %struct.Memory** %MEMORY
  %call_401187 = call %struct.Memory* @routine_movsd__xmm0____rax__rcx_8_(%struct.State* %0, i64  0, %struct.Memory* %loadMem_401187)
  store %struct.Memory* %call_401187, %struct.Memory** %MEMORY

  ; Code: movl -0x54(%rbp), %eax	 RIP: 40118c	 Bytes: 3
  %loadMem_40118c = load %struct.Memory*, %struct.Memory** %MEMORY
  %call_40118c = call %struct.Memory* @routine_movl_MINUS0x54__rbp____eax(%struct.State* %0, i64  0, %struct.Memory* %loadMem_40118c)
  store %struct.Memory* %call_40118c, %struct.Memory** %MEMORY

  ; Code: addl $0x1, %eax	 RIP: 40118f	 Bytes: 3
  %loadMem_40118f = load %struct.Memory*, %struct.Memory** %MEMORY
  %call_40118f = call %struct.Memory* @routine_addl__0x1___eax(%struct.State* %0, i64  0, %struct.Memory* %loadMem_40118f)
  store %struct.Memory* %call_40118f, %struct.Memory** %MEMORY

  ; Code: movl %eax, -0x54(%rbp)	 RIP: 401192	 Bytes: 3
  %loadMem_401192 = load %struct.Memory*, %struct.Memory** %MEMORY
  %call_401192 = call %struct.Memory* @routine_movl__eax__MINUS0x54__rbp_(%struct.State* %0, i64  0, %struct.Memory* %loadMem_401192)
  store %struct.Memory* %call_401192, %struct.Memory** %MEMORY

  ; Code: jmpq .L_401133	 RIP: 401195	 Bytes: 5
  %loadMem_401195 = load %struct.Memory*, %struct.Memory** %MEMORY
  %call_401195 = call %struct.Memory* @routine_jmpq_.L_401133(%struct.State* %0, i64  0, %struct.Memory* %loadMem_401195, i64 -98, i64 5)
  store %struct.Memory* %call_401195, %struct.Memory** %MEMORY

  br label %block_.L_401133

  ; Code: .L_40119a:	 RIP: 40119a	 Bytes: 0
block_.L_40119a:

  ; Code: jmpq .L_40119f	 RIP: 40119a	 Bytes: 5
  %loadMem_40119a = load %struct.Memory*, %struct.Memory** %MEMORY
  %call_40119a = call %struct.Memory* @routine_jmpq_.L_40119f(%struct.State* %0, i64  0, %struct.Memory* %loadMem_40119a, i64 5, i64 5)
  store %struct.Memory* %call_40119a, %struct.Memory** %MEMORY

  br label %block_.L_40119f

  ; Code: .L_40119f:	 RIP: 40119f	 Bytes: 0
block_.L_40119f:

  ; Code: movl -0x50(%rbp), %eax	 RIP: 40119f	 Bytes: 3
  %loadMem_40119f = load %struct.Memory*, %struct.Memory** %MEMORY
  %call_40119f = call %struct.Memory* @routine_movl_MINUS0x50__rbp____eax(%struct.State* %0, i64  0, %struct.Memory* %loadMem_40119f)
  store %struct.Memory* %call_40119f, %struct.Memory** %MEMORY

  ; Code: addl $0x1, %eax	 RIP: 4011a2	 Bytes: 3
  %loadMem_4011a2 = load %struct.Memory*, %struct.Memory** %MEMORY
  %call_4011a2 = call %struct.Memory* @routine_addl__0x1___eax(%struct.State* %0, i64  0, %struct.Memory* %loadMem_4011a2)
  store %struct.Memory* %call_4011a2, %struct.Memory** %MEMORY

  ; Code: movl %eax, -0x50(%rbp)	 RIP: 4011a5	 Bytes: 3
  %loadMem_4011a5 = load %struct.Memory*, %struct.Memory** %MEMORY
  %call_4011a5 = call %struct.Memory* @routine_movl__eax__MINUS0x50__rbp_(%struct.State* %0, i64  0, %struct.Memory* %loadMem_4011a5)
  store %struct.Memory* %call_4011a5, %struct.Memory** %MEMORY

  ; Code: jmpq .L_4010fe	 RIP: 4011a8	 Bytes: 5
  %loadMem_4011a8 = load %struct.Memory*, %struct.Memory** %MEMORY
  %call_4011a8 = call %struct.Memory* @routine_jmpq_.L_4010fe(%struct.State* %0, i64  0, %struct.Memory* %loadMem_4011a8, i64 -170, i64 5)
  store %struct.Memory* %call_4011a8, %struct.Memory** %MEMORY

  br label %block_.L_4010fe

  ; Code: .L_4011ad:	 RIP: 4011ad	 Bytes: 0
block_.L_4011ad:

  ; Code: jmpq .L_4011b2	 RIP: 4011ad	 Bytes: 5
  %loadMem_4011ad = load %struct.Memory*, %struct.Memory** %MEMORY
  %call_4011ad = call %struct.Memory* @routine_jmpq_.L_4011b2(%struct.State* %0, i64  0, %struct.Memory* %loadMem_4011ad, i64 5, i64 5)
  store %struct.Memory* %call_4011ad, %struct.Memory** %MEMORY

  br label %block_.L_4011b2

  ; Code: .L_4011b2:	 RIP: 4011b2	 Bytes: 0
block_.L_4011b2:

  ; Code: movl -0x4c(%rbp), %eax	 RIP: 4011b2	 Bytes: 3
  %loadMem_4011b2 = load %struct.Memory*, %struct.Memory** %MEMORY
  %call_4011b2 = call %struct.Memory* @routine_movl_MINUS0x4c__rbp____eax(%struct.State* %0, i64  0, %struct.Memory* %loadMem_4011b2)
  store %struct.Memory* %call_4011b2, %struct.Memory** %MEMORY

  ; Code: addl $0x1, %eax	 RIP: 4011b5	 Bytes: 3
  %loadMem_4011b5 = load %struct.Memory*, %struct.Memory** %MEMORY
  %call_4011b5 = call %struct.Memory* @routine_addl__0x1___eax(%struct.State* %0, i64  0, %struct.Memory* %loadMem_4011b5)
  store %struct.Memory* %call_4011b5, %struct.Memory** %MEMORY

  ; Code: movl %eax, -0x4c(%rbp)	 RIP: 4011b8	 Bytes: 3
  %loadMem_4011b8 = load %struct.Memory*, %struct.Memory** %MEMORY
  %call_4011b8 = call %struct.Memory* @routine_movl__eax__MINUS0x4c__rbp_(%struct.State* %0, i64  0, %struct.Memory* %loadMem_4011b8)
  store %struct.Memory* %call_4011b8, %struct.Memory** %MEMORY

  ; Code: jmpq .L_4010eb	 RIP: 4011bb	 Bytes: 5
  %loadMem_4011bb = load %struct.Memory*, %struct.Memory** %MEMORY
  %call_4011bb = call %struct.Memory* @routine_jmpq_.L_4010eb(%struct.State* %0, i64  0, %struct.Memory* %loadMem_4011bb, i64 -208, i64 5)
  store %struct.Memory* %call_4011bb, %struct.Memory** %MEMORY

  br label %block_.L_4010eb

  ; Code: .L_4011c0:	 RIP: 4011c0	 Bytes: 0
block_.L_4011c0:

  ; Code: popq %rbp	 RIP: 4011c0	 Bytes: 1
  %loadMem_4011c0 = load %struct.Memory*, %struct.Memory** %MEMORY
  %call_4011c0 = call %struct.Memory* @routine_popq__rbp(%struct.State* %0, i64  0, %struct.Memory* %loadMem_4011c0)
  store %struct.Memory* %call_4011c0, %struct.Memory** %MEMORY

  ; Code: retq	 RIP: 4011c1	 Bytes: 1
  %loadMem_4011c1 = load %struct.Memory*, %struct.Memory** %MEMORY
  %call_4011c1 = call %struct.Memory* @routine_retq(%struct.State* %0, i64  0, %struct.Memory* %loadMem_4011c1)
  store %struct.Memory* %call_4011c1, %struct.Memory** %MEMORY

  ret %struct.Memory* %call_4011c1
}

define internal %struct.Memory* @_ZN12_GLOBAL__N_1L4PUSHI2InImEEEP6MemoryS4_R5StateT_(%struct.Memory*, %struct.State* nocapture dereferenceable(3376), i64) #0 {
  %4 = getelementptr inbounds %struct.State, %struct.State* %1, i64 0, i32 6, i32 13, i32 0, i32 0
  %5 = load i64, i64* %4, align 8
  %6 = add i64 %5, -8
  %7 = inttoptr i64 %6 to i64*
  store i64 %2, i64* %7
  store i64 %6, i64* %4, align 8
  ret %struct.Memory* %0
}

define %struct.Memory* @routine_pushq__rbp(%struct.State*  dereferenceable(3376), i64, %struct.Memory* ) #19 {
block_400488:
  %3 = getelementptr inbounds %struct.State, %struct.State* %0, i32 0, i32 6
  %4 = getelementptr inbounds %struct.GPR, %struct.GPR* %3, i32 0, i32 33
  %5 = getelementptr inbounds %struct.Reg, %struct.Reg* %4, i32 0, i32 0
  %PC = bitcast %union.anon* %5 to i64*
  %6 = getelementptr inbounds %struct.State, %struct.State* %0, i32 0, i32 6
  %7 = getelementptr inbounds %struct.GPR, %struct.GPR* %6, i32 0, i32 15
  %8 = getelementptr inbounds %struct.Reg, %struct.Reg* %7, i32 0, i32 0
  %RBP = bitcast %union.anon* %8 to i64*
  %9 = load i64, i64* %RBP
  %10 = load i64, i64* %PC
  %11 = add i64 %10, 1
  store i64 %11, i64* %PC
  %12 = call %struct.Memory* @_ZN12_GLOBAL__N_1L4PUSHI2InImEEEP6MemoryS4_R5StateT_(%struct.Memory* %2, %struct.State* %0, i64 %9)
  ret %struct.Memory* %12
}

define internal %struct.Memory* @_ZN12_GLOBAL__N_1L3MOVI3RnWImE2RnImEEEP6MemoryS6_R5StateT_T0_(%struct.Memory* readnone returned, %struct.State* nocapture readnone dereferenceable(3376), i64* nocapture, i64) #2 {
  store i64 %3, i64* %2, align 8
  ret %struct.Memory* %0
}

define %struct.Memory* @routine_movq__rsp___rbp(%struct.State*  dereferenceable(3376), i64, %struct.Memory* ) #19 {
block_400488:
  %3 = getelementptr inbounds %struct.State, %struct.State* %0, i32 0, i32 6
  %4 = getelementptr inbounds %struct.GPR, %struct.GPR* %3, i32 0, i32 33
  %5 = getelementptr inbounds %struct.Reg, %struct.Reg* %4, i32 0, i32 0
  %PC = bitcast %union.anon* %5 to i64*
  %6 = getelementptr inbounds %struct.State, %struct.State* %0, i32 0, i32 6
  %7 = getelementptr inbounds %struct.GPR, %struct.GPR* %6, i32 0, i32 13
  %8 = getelementptr inbounds %struct.Reg, %struct.Reg* %7, i32 0, i32 0
  %RSP = bitcast %union.anon* %8 to i64*
  %9 = getelementptr inbounds %struct.State, %struct.State* %0, i32 0, i32 6
  %10 = getelementptr inbounds %struct.GPR, %struct.GPR* %9, i32 0, i32 15
  %11 = getelementptr inbounds %struct.Reg, %struct.Reg* %10, i32 0, i32 0
  %RBP = bitcast %union.anon* %11 to i64*
  %12 = load i64, i64* %RSP
  %13 = load i64, i64* %PC
  %14 = add i64 %13, 3
  store i64 %14, i64* %PC
  %15 = call %struct.Memory* @_ZN12_GLOBAL__N_1L3MOVI3RnWImE2RnImEEEP6MemoryS6_R5StateT_T0_(%struct.Memory* %2, %struct.State* %0, i64* %RBP, i64 %12)
  ret %struct.Memory* %15
}

define internal %struct.Memory* @_ZN12_GLOBAL__N_1L3MOVI3RnWImE2MnImEEEP6MemoryS6_R5StateT_T0_(%struct.Memory* returned, %struct.State* nocapture readnone dereferenceable(3376), i64* nocapture, i64) #0 {
  %5 = inttoptr i64 %3 to i64*
  %6 = load i64, i64* %5
  store i64 %6, i64* %2, align 8
  ret %struct.Memory* %0
}

define %struct.Memory* @routine_movq_0x20__rbp____rax(%struct.State*  dereferenceable(3376), i64, %struct.Memory* ) #19 {
block_400488:
  %3 = getelementptr inbounds %struct.State, %struct.State* %0, i32 0, i32 6
  %4 = getelementptr inbounds %struct.GPR, %struct.GPR* %3, i32 0, i32 33
  %5 = getelementptr inbounds %struct.Reg, %struct.Reg* %4, i32 0, i32 0
  %PC = bitcast %union.anon* %5 to i64*
  %6 = getelementptr inbounds %struct.State, %struct.State* %0, i32 0, i32 6
  %7 = getelementptr inbounds %struct.GPR, %struct.GPR* %6, i32 0, i32 1
  %8 = getelementptr inbounds %struct.Reg, %struct.Reg* %7, i32 0, i32 0
  %RAX = bitcast %union.anon* %8 to i64*
  %9 = getelementptr inbounds %struct.State, %struct.State* %0, i32 0, i32 6
  %10 = getelementptr inbounds %struct.GPR, %struct.GPR* %9, i32 0, i32 15
  %11 = getelementptr inbounds %struct.Reg, %struct.Reg* %10, i32 0, i32 0
  %RBP = bitcast %union.anon* %11 to i64*
  %12 = load i64, i64* %RBP
  %13 = add i64 %12, 32
  %14 = load i64, i64* %PC
  %15 = add i64 %14, 4
  store i64 %15, i64* %PC
  %16 = call %struct.Memory* @_ZN12_GLOBAL__N_1L3MOVI3RnWImE2MnImEEEP6MemoryS6_R5StateT_T0_(%struct.Memory* %2, %struct.State* %0, i64* %RAX, i64 %13)
  ret %struct.Memory* %16
}


define %struct.Memory* @routine_movq_0x18__rbp____r10(%struct.State*  dereferenceable(3376), i64, %struct.Memory* ) #19 {
block_400488:
  %3 = getelementptr inbounds %struct.State, %struct.State* %0, i32 0, i32 6
  %4 = getelementptr inbounds %struct.GPR, %struct.GPR* %3, i32 0, i32 33
  %5 = getelementptr inbounds %struct.Reg, %struct.Reg* %4, i32 0, i32 0
  %PC = bitcast %union.anon* %5 to i64*
  %6 = getelementptr inbounds %struct.State, %struct.State* %0, i32 0, i32 6
  %7 = getelementptr inbounds %struct.GPR, %struct.GPR* %6, i32 0, i32 15
  %8 = getelementptr inbounds %struct.Reg, %struct.Reg* %7, i32 0, i32 0
  %RBP = bitcast %union.anon* %8 to i64*
  %9 = getelementptr inbounds %struct.State, %struct.State* %0, i32 0, i32 6
  %10 = getelementptr inbounds %struct.GPR, %struct.GPR* %9, i32 0, i32 21
  %11 = getelementptr inbounds %struct.Reg, %struct.Reg* %10, i32 0, i32 0
  %R10 = bitcast %union.anon* %11 to i64*
  %12 = load i64, i64* %RBP
  %13 = add i64 %12, 24
  %14 = load i64, i64* %PC
  %15 = add i64 %14, 4
  store i64 %15, i64* %PC
  %16 = call %struct.Memory* @_ZN12_GLOBAL__N_1L3MOVI3RnWImE2MnImEEEP6MemoryS6_R5StateT_T0_(%struct.Memory* %2, %struct.State* %0, i64* %R10, i64 %13)
  ret %struct.Memory* %16
}


define %struct.Memory* @routine_movq_0x10__rbp____r11(%struct.State*  dereferenceable(3376), i64, %struct.Memory* ) #19 {
block_400488:
  %3 = getelementptr inbounds %struct.State, %struct.State* %0, i32 0, i32 6
  %4 = getelementptr inbounds %struct.GPR, %struct.GPR* %3, i32 0, i32 33
  %5 = getelementptr inbounds %struct.Reg, %struct.Reg* %4, i32 0, i32 0
  %PC = bitcast %union.anon* %5 to i64*
  %6 = getelementptr inbounds %struct.State, %struct.State* %0, i32 0, i32 6
  %7 = getelementptr inbounds %struct.GPR, %struct.GPR* %6, i32 0, i32 15
  %8 = getelementptr inbounds %struct.Reg, %struct.Reg* %7, i32 0, i32 0
  %RBP = bitcast %union.anon* %8 to i64*
  %9 = getelementptr inbounds %struct.State, %struct.State* %0, i32 0, i32 6
  %10 = getelementptr inbounds %struct.GPR, %struct.GPR* %9, i32 0, i32 23
  %11 = getelementptr inbounds %struct.Reg, %struct.Reg* %10, i32 0, i32 0
  %R11 = bitcast %union.anon* %11 to i64*
  %12 = load i64, i64* %RBP
  %13 = add i64 %12, 16
  %14 = load i64, i64* %PC
  %15 = add i64 %14, 4
  store i64 %15, i64* %PC
  %16 = call %struct.Memory* @_ZN12_GLOBAL__N_1L3MOVI3RnWImE2MnImEEEP6MemoryS6_R5StateT_T0_(%struct.Memory* %2, %struct.State* %0, i64* %R11, i64 %13)
  ret %struct.Memory* %16
}

define internal %struct.Memory* @_ZN12_GLOBAL__N_1L3MOVI3MnWIjE2RnIjEEEP6MemoryS6_R5StateT_T0_(%struct.Memory* readnone, %struct.State* nocapture readnone dereferenceable(3376), i64, i64) #8 {
  %5 = trunc i64 %3 to i32
  %6 = inttoptr i64 %2 to i32*
  store i32 %5, i32* %6
  ret %struct.Memory* %0
}

define %struct.Memory* @routine_movl__edi__MINUS0x4__rbp_(%struct.State*  dereferenceable(3376), i64, %struct.Memory* ) #19 {
block_400488:
  %3 = getelementptr inbounds %struct.State, %struct.State* %0, i32 0, i32 6
  %4 = getelementptr inbounds %struct.GPR, %struct.GPR* %3, i32 0, i32 33
  %5 = getelementptr inbounds %struct.Reg, %struct.Reg* %4, i32 0, i32 0
  %PC = bitcast %union.anon* %5 to i64*
  %6 = getelementptr inbounds %struct.State, %struct.State* %0, i32 0, i32 6
  %7 = getelementptr inbounds %struct.GPR, %struct.GPR* %6, i32 0, i32 11
  %8 = getelementptr inbounds %struct.Reg, %struct.Reg* %7, i32 0, i32 0
  %EDI = bitcast %union.anon* %8 to i32*
  %9 = getelementptr inbounds %struct.State, %struct.State* %0, i32 0, i32 6
  %10 = getelementptr inbounds %struct.GPR, %struct.GPR* %9, i32 0, i32 15
  %11 = getelementptr inbounds %struct.Reg, %struct.Reg* %10, i32 0, i32 0
  %RBP = bitcast %union.anon* %11 to i64*
  %12 = load i64, i64* %RBP
  %13 = sub i64 %12, 4
  %14 = load i32, i32* %EDI
  %15 = zext i32 %14 to i64
  %16 = load i64, i64* %PC
  %17 = add i64 %16, 3
  store i64 %17, i64* %PC
  %18 = call %struct.Memory* @_ZN12_GLOBAL__N_1L3MOVI3MnWIjE2RnIjEEEP6MemoryS6_R5StateT_T0_(%struct.Memory* %2, %struct.State* %0, i64 %13, i64 %15)
  ret %struct.Memory* %18
}


define %struct.Memory* @routine_movl__esi__MINUS0x8__rbp_(%struct.State*  dereferenceable(3376), i64, %struct.Memory* ) #19 {
block_400488:
  %3 = getelementptr inbounds %struct.State, %struct.State* %0, i32 0, i32 6
  %4 = getelementptr inbounds %struct.GPR, %struct.GPR* %3, i32 0, i32 33
  %5 = getelementptr inbounds %struct.Reg, %struct.Reg* %4, i32 0, i32 0
  %PC = bitcast %union.anon* %5 to i64*
  %6 = getelementptr inbounds %struct.State, %struct.State* %0, i32 0, i32 6
  %7 = getelementptr inbounds %struct.GPR, %struct.GPR* %6, i32 0, i32 9
  %8 = getelementptr inbounds %struct.Reg, %struct.Reg* %7, i32 0, i32 0
  %ESI = bitcast %union.anon* %8 to i32*
  %9 = getelementptr inbounds %struct.State, %struct.State* %0, i32 0, i32 6
  %10 = getelementptr inbounds %struct.GPR, %struct.GPR* %9, i32 0, i32 15
  %11 = getelementptr inbounds %struct.Reg, %struct.Reg* %10, i32 0, i32 0
  %RBP = bitcast %union.anon* %11 to i64*
  %12 = load i64, i64* %RBP
  %13 = sub i64 %12, 8
  %14 = load i32, i32* %ESI
  %15 = zext i32 %14 to i64
  %16 = load i64, i64* %PC
  %17 = add i64 %16, 3
  store i64 %17, i64* %PC
  %18 = call %struct.Memory* @_ZN12_GLOBAL__N_1L3MOVI3MnWIjE2RnIjEEEP6MemoryS6_R5StateT_T0_(%struct.Memory* %2, %struct.State* %0, i64 %13, i64 %15)
  ret %struct.Memory* %18
}


define %struct.Memory* @routine_movl__edx__MINUS0xc__rbp_(%struct.State*  dereferenceable(3376), i64, %struct.Memory* ) #19 {
block_400488:
  %3 = getelementptr inbounds %struct.State, %struct.State* %0, i32 0, i32 6
  %4 = getelementptr inbounds %struct.GPR, %struct.GPR* %3, i32 0, i32 33
  %5 = getelementptr inbounds %struct.Reg, %struct.Reg* %4, i32 0, i32 0
  %PC = bitcast %union.anon* %5 to i64*
  %6 = getelementptr inbounds %struct.State, %struct.State* %0, i32 0, i32 6
  %7 = getelementptr inbounds %struct.GPR, %struct.GPR* %6, i32 0, i32 7
  %8 = getelementptr inbounds %struct.Reg, %struct.Reg* %7, i32 0, i32 0
  %EDX = bitcast %union.anon* %8 to i32*
  %9 = getelementptr inbounds %struct.State, %struct.State* %0, i32 0, i32 6
  %10 = getelementptr inbounds %struct.GPR, %struct.GPR* %9, i32 0, i32 15
  %11 = getelementptr inbounds %struct.Reg, %struct.Reg* %10, i32 0, i32 0
  %RBP = bitcast %union.anon* %11 to i64*
  %12 = load i64, i64* %RBP
  %13 = sub i64 %12, 12
  %14 = load i32, i32* %EDX
  %15 = zext i32 %14 to i64
  %16 = load i64, i64* %PC
  %17 = add i64 %16, 3
  store i64 %17, i64* %PC
  %18 = call %struct.Memory* @_ZN12_GLOBAL__N_1L3MOVI3MnWIjE2RnIjEEEP6MemoryS6_R5StateT_T0_(%struct.Memory* %2, %struct.State* %0, i64 %13, i64 %15)
  ret %struct.Memory* %18
}


define %struct.Memory* @routine_movl__ecx__MINUS0x10__rbp_(%struct.State*  dereferenceable(3376), i64, %struct.Memory* ) #19 {
block_400488:
  %3 = getelementptr inbounds %struct.State, %struct.State* %0, i32 0, i32 6
  %4 = getelementptr inbounds %struct.GPR, %struct.GPR* %3, i32 0, i32 33
  %5 = getelementptr inbounds %struct.Reg, %struct.Reg* %4, i32 0, i32 0
  %PC = bitcast %union.anon* %5 to i64*
  %6 = getelementptr inbounds %struct.State, %struct.State* %0, i32 0, i32 6
  %7 = getelementptr inbounds %struct.GPR, %struct.GPR* %6, i32 0, i32 5
  %8 = getelementptr inbounds %struct.Reg, %struct.Reg* %7, i32 0, i32 0
  %ECX = bitcast %union.anon* %8 to i32*
  %9 = getelementptr inbounds %struct.State, %struct.State* %0, i32 0, i32 6
  %10 = getelementptr inbounds %struct.GPR, %struct.GPR* %9, i32 0, i32 15
  %11 = getelementptr inbounds %struct.Reg, %struct.Reg* %10, i32 0, i32 0
  %RBP = bitcast %union.anon* %11 to i64*
  %12 = load i64, i64* %RBP
  %13 = sub i64 %12, 16
  %14 = load i32, i32* %ECX
  %15 = zext i32 %14 to i64
  %16 = load i64, i64* %PC
  %17 = add i64 %16, 3
  store i64 %17, i64* %PC
  %18 = call %struct.Memory* @_ZN12_GLOBAL__N_1L3MOVI3MnWIjE2RnIjEEEP6MemoryS6_R5StateT_T0_(%struct.Memory* %2, %struct.State* %0, i64 %13, i64 %15)
  ret %struct.Memory* %18
}

define internal %struct.Memory* @_ZN12_GLOBAL__N_1L9MOVSD_MEMI4MVnWI7vec64_tE2VnI8vec128_tEEEP6MemoryS8_R5StateT_T0_(%struct.Memory* readnone, %struct.State* nocapture readnone dereferenceable(3376), i64, i8* nocapture readonly) #7 {
  %5 = bitcast i8* %3 to double*
  %6 = load double, double* %5, align 1
  %7 = inttoptr i64 %2 to double*
  store double %6, double* %7
  ret %struct.Memory* %0
}

define %struct.Memory* @routine_movsd__xmm0__MINUS0x18__rbp_(%struct.State*  dereferenceable(3376), i64, %struct.Memory* ) #19 {
block_400488:
  %3 = getelementptr inbounds %struct.State, %struct.State* %0, i32 0, i32 6
  %4 = getelementptr inbounds %struct.GPR, %struct.GPR* %3, i32 0, i32 33
  %5 = getelementptr inbounds %struct.Reg, %struct.Reg* %4, i32 0, i32 0
  %PC = bitcast %union.anon* %5 to i64*
  %6 = getelementptr inbounds %struct.State, %struct.State* %0, i32 0, i32 6
  %7 = getelementptr inbounds %struct.GPR, %struct.GPR* %6, i32 0, i32 15
  %8 = getelementptr inbounds %struct.Reg, %struct.Reg* %7, i32 0, i32 0
  %RBP = bitcast %union.anon* %8 to i64*
  %9 = getelementptr inbounds %struct.State, %struct.State* %0, i32 0, i32 1
  %10 = getelementptr inbounds [32 x %union.VectorReg], [32 x %union.VectorReg]* %9, i64 0, i64 0
  %XMM0 = bitcast %union.VectorReg* %10 to %union.vec128_t*
  %11 = load i64, i64* %RBP
  %12 = sub i64 %11, 24
  %13 = bitcast %union.vec128_t* %XMM0 to i8*
  %14 = load i64, i64* %PC
  %15 = add i64 %14, 5
  store i64 %15, i64* %PC
  %16 = call %struct.Memory* @_ZN12_GLOBAL__N_1L9MOVSD_MEMI4MVnWI7vec64_tE2VnI8vec128_tEEEP6MemoryS8_R5StateT_T0_(%struct.Memory* %2, %struct.State* %0, i64 %12, i8* %13)
  ret %struct.Memory* %16
}


define %struct.Memory* @routine_movsd__xmm1__MINUS0x20__rbp_(%struct.State*  dereferenceable(3376), i64, %struct.Memory* ) #19 {
block_400488:
  %3 = getelementptr inbounds %struct.State, %struct.State* %0, i32 0, i32 6
  %4 = getelementptr inbounds %struct.GPR, %struct.GPR* %3, i32 0, i32 33
  %5 = getelementptr inbounds %struct.Reg, %struct.Reg* %4, i32 0, i32 0
  %PC = bitcast %union.anon* %5 to i64*
  %6 = getelementptr inbounds %struct.State, %struct.State* %0, i32 0, i32 6
  %7 = getelementptr inbounds %struct.GPR, %struct.GPR* %6, i32 0, i32 15
  %8 = getelementptr inbounds %struct.Reg, %struct.Reg* %7, i32 0, i32 0
  %RBP = bitcast %union.anon* %8 to i64*
  %9 = getelementptr inbounds %struct.State, %struct.State* %0, i32 0, i32 1
  %10 = getelementptr inbounds [32 x %union.VectorReg], [32 x %union.VectorReg]* %9, i64 0, i64 1
  %XMM1 = bitcast %union.VectorReg* %10 to %union.vec128_t*
  %11 = load i64, i64* %RBP
  %12 = sub i64 %11, 32
  %13 = bitcast %union.vec128_t* %XMM1 to i8*
  %14 = load i64, i64* %PC
  %15 = add i64 %14, 5
  store i64 %15, i64* %PC
  %16 = call %struct.Memory* @_ZN12_GLOBAL__N_1L9MOVSD_MEMI4MVnWI7vec64_tE2VnI8vec128_tEEEP6MemoryS8_R5StateT_T0_(%struct.Memory* %2, %struct.State* %0, i64 %12, i8* %13)
  ret %struct.Memory* %16
}

define internal %struct.Memory* @_ZN12_GLOBAL__N_1L3MOVI3MnWImE2RnImEEEP6MemoryS6_R5StateT_T0_(%struct.Memory* readnone, %struct.State* nocapture readnone dereferenceable(3376), i64, i64) #8 {
  %5 = inttoptr i64 %2 to i64*
  store i64 %3, i64* %5
  ret %struct.Memory* %0
}

define %struct.Memory* @routine_movq__r8__MINUS0x28__rbp_(%struct.State*  dereferenceable(3376), i64, %struct.Memory* ) #19 {
block_400488:
  %3 = getelementptr inbounds %struct.State, %struct.State* %0, i32 0, i32 6
  %4 = getelementptr inbounds %struct.GPR, %struct.GPR* %3, i32 0, i32 33
  %5 = getelementptr inbounds %struct.Reg, %struct.Reg* %4, i32 0, i32 0
  %PC = bitcast %union.anon* %5 to i64*
  %6 = getelementptr inbounds %struct.State, %struct.State* %0, i32 0, i32 6
  %7 = getelementptr inbounds %struct.GPR, %struct.GPR* %6, i32 0, i32 15
  %8 = getelementptr inbounds %struct.Reg, %struct.Reg* %7, i32 0, i32 0
  %RBP = bitcast %union.anon* %8 to i64*
  %9 = getelementptr inbounds %struct.State, %struct.State* %0, i32 0, i32 6
  %10 = getelementptr inbounds %struct.GPR, %struct.GPR* %9, i32 0, i32 17
  %11 = getelementptr inbounds %struct.Reg, %struct.Reg* %10, i32 0, i32 0
  %R8 = bitcast %union.anon* %11 to i64*
  %12 = load i64, i64* %RBP
  %13 = sub i64 %12, 40
  %14 = load i64, i64* %R8
  %15 = load i64, i64* %PC
  %16 = add i64 %15, 4
  store i64 %16, i64* %PC
  %17 = call %struct.Memory* @_ZN12_GLOBAL__N_1L3MOVI3MnWImE2RnImEEEP6MemoryS6_R5StateT_T0_(%struct.Memory* %2, %struct.State* %0, i64 %13, i64 %14)
  ret %struct.Memory* %17
}


define %struct.Memory* @routine_movq__r9__MINUS0x30__rbp_(%struct.State*  dereferenceable(3376), i64, %struct.Memory* ) #19 {
block_400488:
  %3 = getelementptr inbounds %struct.State, %struct.State* %0, i32 0, i32 6
  %4 = getelementptr inbounds %struct.GPR, %struct.GPR* %3, i32 0, i32 33
  %5 = getelementptr inbounds %struct.Reg, %struct.Reg* %4, i32 0, i32 0
  %PC = bitcast %union.anon* %5 to i64*
  %6 = getelementptr inbounds %struct.State, %struct.State* %0, i32 0, i32 6
  %7 = getelementptr inbounds %struct.GPR, %struct.GPR* %6, i32 0, i32 15
  %8 = getelementptr inbounds %struct.Reg, %struct.Reg* %7, i32 0, i32 0
  %RBP = bitcast %union.anon* %8 to i64*
  %9 = getelementptr inbounds %struct.State, %struct.State* %0, i32 0, i32 6
  %10 = getelementptr inbounds %struct.GPR, %struct.GPR* %9, i32 0, i32 19
  %11 = getelementptr inbounds %struct.Reg, %struct.Reg* %10, i32 0, i32 0
  %R9 = bitcast %union.anon* %11 to i64*
  %12 = load i64, i64* %RBP
  %13 = sub i64 %12, 48
  %14 = load i64, i64* %R9
  %15 = load i64, i64* %PC
  %16 = add i64 %15, 4
  store i64 %16, i64* %PC
  %17 = call %struct.Memory* @_ZN12_GLOBAL__N_1L3MOVI3MnWImE2RnImEEEP6MemoryS6_R5StateT_T0_(%struct.Memory* %2, %struct.State* %0, i64 %13, i64 %14)
  ret %struct.Memory* %17
}


define %struct.Memory* @routine_movq__r11__MINUS0x38__rbp_(%struct.State*  dereferenceable(3376), i64, %struct.Memory* ) #19 {
block_400488:
  %3 = getelementptr inbounds %struct.State, %struct.State* %0, i32 0, i32 6
  %4 = getelementptr inbounds %struct.GPR, %struct.GPR* %3, i32 0, i32 33
  %5 = getelementptr inbounds %struct.Reg, %struct.Reg* %4, i32 0, i32 0
  %PC = bitcast %union.anon* %5 to i64*
  %6 = getelementptr inbounds %struct.State, %struct.State* %0, i32 0, i32 6
  %7 = getelementptr inbounds %struct.GPR, %struct.GPR* %6, i32 0, i32 15
  %8 = getelementptr inbounds %struct.Reg, %struct.Reg* %7, i32 0, i32 0
  %RBP = bitcast %union.anon* %8 to i64*
  %9 = getelementptr inbounds %struct.State, %struct.State* %0, i32 0, i32 6
  %10 = getelementptr inbounds %struct.GPR, %struct.GPR* %9, i32 0, i32 23
  %11 = getelementptr inbounds %struct.Reg, %struct.Reg* %10, i32 0, i32 0
  %R11 = bitcast %union.anon* %11 to i64*
  %12 = load i64, i64* %RBP
  %13 = sub i64 %12, 56
  %14 = load i64, i64* %R11
  %15 = load i64, i64* %PC
  %16 = add i64 %15, 4
  store i64 %16, i64* %PC
  %17 = call %struct.Memory* @_ZN12_GLOBAL__N_1L3MOVI3MnWImE2RnImEEEP6MemoryS6_R5StateT_T0_(%struct.Memory* %2, %struct.State* %0, i64 %13, i64 %14)
  ret %struct.Memory* %17
}


define %struct.Memory* @routine_movq__r10__MINUS0x40__rbp_(%struct.State*  dereferenceable(3376), i64, %struct.Memory* ) #19 {
block_400488:
  %3 = getelementptr inbounds %struct.State, %struct.State* %0, i32 0, i32 6
  %4 = getelementptr inbounds %struct.GPR, %struct.GPR* %3, i32 0, i32 33
  %5 = getelementptr inbounds %struct.Reg, %struct.Reg* %4, i32 0, i32 0
  %PC = bitcast %union.anon* %5 to i64*
  %6 = getelementptr inbounds %struct.State, %struct.State* %0, i32 0, i32 6
  %7 = getelementptr inbounds %struct.GPR, %struct.GPR* %6, i32 0, i32 15
  %8 = getelementptr inbounds %struct.Reg, %struct.Reg* %7, i32 0, i32 0
  %RBP = bitcast %union.anon* %8 to i64*
  %9 = getelementptr inbounds %struct.State, %struct.State* %0, i32 0, i32 6
  %10 = getelementptr inbounds %struct.GPR, %struct.GPR* %9, i32 0, i32 21
  %11 = getelementptr inbounds %struct.Reg, %struct.Reg* %10, i32 0, i32 0
  %R10 = bitcast %union.anon* %11 to i64*
  %12 = load i64, i64* %RBP
  %13 = sub i64 %12, 64
  %14 = load i64, i64* %R10
  %15 = load i64, i64* %PC
  %16 = add i64 %15, 4
  store i64 %16, i64* %PC
  %17 = call %struct.Memory* @_ZN12_GLOBAL__N_1L3MOVI3MnWImE2RnImEEEP6MemoryS6_R5StateT_T0_(%struct.Memory* %2, %struct.State* %0, i64 %13, i64 %14)
  ret %struct.Memory* %17
}


define %struct.Memory* @routine_movq__rax__MINUS0x48__rbp_(%struct.State*  dereferenceable(3376), i64, %struct.Memory* ) #19 {
block_400488:
  %3 = getelementptr inbounds %struct.State, %struct.State* %0, i32 0, i32 6
  %4 = getelementptr inbounds %struct.GPR, %struct.GPR* %3, i32 0, i32 33
  %5 = getelementptr inbounds %struct.Reg, %struct.Reg* %4, i32 0, i32 0
  %PC = bitcast %union.anon* %5 to i64*
  %6 = getelementptr inbounds %struct.State, %struct.State* %0, i32 0, i32 6
  %7 = getelementptr inbounds %struct.GPR, %struct.GPR* %6, i32 0, i32 1
  %8 = getelementptr inbounds %struct.Reg, %struct.Reg* %7, i32 0, i32 0
  %RAX = bitcast %union.anon* %8 to i64*
  %9 = getelementptr inbounds %struct.State, %struct.State* %0, i32 0, i32 6
  %10 = getelementptr inbounds %struct.GPR, %struct.GPR* %9, i32 0, i32 15
  %11 = getelementptr inbounds %struct.Reg, %struct.Reg* %10, i32 0, i32 0
  %RBP = bitcast %union.anon* %11 to i64*
  %12 = load i64, i64* %RBP
  %13 = sub i64 %12, 72
  %14 = load i64, i64* %RAX
  %15 = load i64, i64* %PC
  %16 = add i64 %15, 4
  store i64 %16, i64* %PC
  %17 = call %struct.Memory* @_ZN12_GLOBAL__N_1L3MOVI3MnWImE2RnImEEEP6MemoryS6_R5StateT_T0_(%struct.Memory* %2, %struct.State* %0, i64 %13, i64 %14)
  ret %struct.Memory* %17
}

define internal %struct.Memory* @_ZN12_GLOBAL__N_1L3MOVI3MnWIjE2InIjEEEP6MemoryS6_R5StateT_T0_(%struct.Memory* readnone, %struct.State* nocapture readnone dereferenceable(3376), i64, i64) #8 {
  %5 = trunc i64 %3 to i32
  %6 = inttoptr i64 %2 to i32*
  store i32 %5, i32* %6
  ret %struct.Memory* %0
}

define %struct.Memory* @routine_movl__0x0__MINUS0x4c__rbp_(%struct.State*  dereferenceable(3376), i64, %struct.Memory* ) #19 {
block_400488:
  %3 = getelementptr inbounds %struct.State, %struct.State* %0, i32 0, i32 6
  %4 = getelementptr inbounds %struct.GPR, %struct.GPR* %3, i32 0, i32 33
  %5 = getelementptr inbounds %struct.Reg, %struct.Reg* %4, i32 0, i32 0
  %PC = bitcast %union.anon* %5 to i64*
  %6 = getelementptr inbounds %struct.State, %struct.State* %0, i32 0, i32 6
  %7 = getelementptr inbounds %struct.GPR, %struct.GPR* %6, i32 0, i32 15
  %8 = getelementptr inbounds %struct.Reg, %struct.Reg* %7, i32 0, i32 0
  %RBP = bitcast %union.anon* %8 to i64*
  %9 = load i64, i64* %RBP
  %10 = sub i64 %9, 76
  %11 = load i64, i64* %PC
  %12 = add i64 %11, 7
  store i64 %12, i64* %PC
  %13 = call %struct.Memory* @_ZN12_GLOBAL__N_1L3MOVI3MnWIjE2InIjEEEP6MemoryS6_R5StateT_T0_(%struct.Memory* %2, %struct.State* %0, i64 %10, i64 0)
  ret %struct.Memory* %13
}

define internal %struct.Memory* @_ZN12_GLOBAL__N_1L3MOVI3RnWImE2MnIjEEEP6MemoryS6_R5StateT_T0_(%struct.Memory* returned, %struct.State* nocapture readnone dereferenceable(3376), i64* nocapture, i64) #0 {
  %5 = inttoptr i64 %3 to i32*
  %6 = load i32, i32* %5
  %7 = zext i32 %6 to i64
  store i64 %7, i64* %2, align 8
  ret %struct.Memory* %0
}

define %struct.Memory* @routine_movl_MINUS0x4c__rbp____eax(%struct.State*  dereferenceable(3376), i64, %struct.Memory* ) #19 {
block_400488:
  %3 = getelementptr inbounds %struct.State, %struct.State* %0, i32 0, i32 6
  %4 = getelementptr inbounds %struct.GPR, %struct.GPR* %3, i32 0, i32 33
  %5 = getelementptr inbounds %struct.Reg, %struct.Reg* %4, i32 0, i32 0
  %PC = bitcast %union.anon* %5 to i64*
  %6 = getelementptr inbounds %struct.State, %struct.State* %0, i32 0, i32 6
  %7 = getelementptr inbounds %struct.GPR, %struct.GPR* %6, i32 0, i32 1
  %8 = getelementptr inbounds %struct.Reg, %struct.Reg* %7, i32 0, i32 0
  %RAX = bitcast %union.anon* %8 to i64*
  %9 = getelementptr inbounds %struct.State, %struct.State* %0, i32 0, i32 6
  %10 = getelementptr inbounds %struct.GPR, %struct.GPR* %9, i32 0, i32 15
  %11 = getelementptr inbounds %struct.Reg, %struct.Reg* %10, i32 0, i32 0
  %RBP = bitcast %union.anon* %11 to i64*
  %12 = load i64, i64* %RBP
  %13 = sub i64 %12, 76
  %14 = load i64, i64* %PC
  %15 = add i64 %14, 3
  store i64 %15, i64* %PC
  %16 = call %struct.Memory* @_ZN12_GLOBAL__N_1L3MOVI3RnWImE2MnIjEEEP6MemoryS6_R5StateT_T0_(%struct.Memory* %2, %struct.State* %0, i64* %RAX, i64 %13)
  ret %struct.Memory* %16
}

define internal %struct.Memory* @_ZN12_GLOBAL__N_1L3CMPI2RnIjE2MnIjEEEP6MemoryS6_R5StateT_T0_(%struct.Memory*, %struct.State* nocapture dereferenceable(3376), i64, i64) #0 {
  %5 = trunc i64 %2 to i32
  %6 = inttoptr i64 %3 to i32*
  %7 = load i32, i32* %6
  %8 = sub i32 %5, %7
  %9 = icmp ult i32 %5, %7
  %10 = zext i1 %9 to i8
  %11 = getelementptr inbounds %struct.State, %struct.State* %1, i64 0, i32 2, i32 1
  store i8 %10, i8* %11, align 1
  %12 = and i32 %8, 255
  %13 = tail call i32 @llvm.ctpop.i32(i32 %12) #22
  %14 = trunc i32 %13 to i8
  %15 = and i8 %14, 1
  %16 = xor i8 %15, 1
  %17 = getelementptr inbounds %struct.State, %struct.State* %1, i64 0, i32 2, i32 3
  store i8 %16, i8* %17, align 1
  %18 = xor i32 %7, %5
  %19 = xor i32 %18, %8
  %20 = lshr i32 %19, 4
  %21 = trunc i32 %20 to i8
  %22 = and i8 %21, 1
  %23 = getelementptr inbounds %struct.State, %struct.State* %1, i64 0, i32 2, i32 5
  store i8 %22, i8* %23, align 1
  %24 = icmp eq i32 %8, 0
  %25 = zext i1 %24 to i8
  %26 = getelementptr inbounds %struct.State, %struct.State* %1, i64 0, i32 2, i32 7
  store i8 %25, i8* %26, align 1
  %27 = lshr i32 %8, 31
  %28 = trunc i32 %27 to i8
  %29 = getelementptr inbounds %struct.State, %struct.State* %1, i64 0, i32 2, i32 9
  store i8 %28, i8* %29, align 1
  %30 = lshr i32 %5, 31
  %31 = lshr i32 %7, 31
  %32 = xor i32 %31, %30
  %33 = xor i32 %27, %30
  %34 = add   i32 %33, %32
  %35 = icmp eq i32 %34, 2
  %36 = zext i1 %35 to i8
  %37 = getelementptr inbounds %struct.State, %struct.State* %1, i64 0, i32 2, i32 13
  store i8 %36, i8* %37, align 1
  ret %struct.Memory* %0
}

define %struct.Memory* @routine_cmpl_MINUS0x4__rbp____eax(%struct.State*  dereferenceable(3376), i64, %struct.Memory* ) #19 {
block_400488:
  %3 = getelementptr inbounds %struct.State, %struct.State* %0, i32 0, i32 6
  %4 = getelementptr inbounds %struct.GPR, %struct.GPR* %3, i32 0, i32 33
  %5 = getelementptr inbounds %struct.Reg, %struct.Reg* %4, i32 0, i32 0
  %PC = bitcast %union.anon* %5 to i64*
  %6 = getelementptr inbounds %struct.State, %struct.State* %0, i32 0, i32 6
  %7 = getelementptr inbounds %struct.GPR, %struct.GPR* %6, i32 0, i32 1
  %8 = getelementptr inbounds %struct.Reg, %struct.Reg* %7, i32 0, i32 0
  %EAX = bitcast %union.anon* %8 to i32*
  %9 = getelementptr inbounds %struct.State, %struct.State* %0, i32 0, i32 6
  %10 = getelementptr inbounds %struct.GPR, %struct.GPR* %9, i32 0, i32 15
  %11 = getelementptr inbounds %struct.Reg, %struct.Reg* %10, i32 0, i32 0
  %RBP = bitcast %union.anon* %11 to i64*
  %12 = load i32, i32* %EAX
  %13 = zext i32 %12 to i64
  %14 = load i64, i64* %RBP
  %15 = sub i64 %14, 4
  %16 = load i64, i64* %PC
  %17 = add i64 %16, 3
  store i64 %17, i64* %PC
  %18 = call %struct.Memory* @_ZN12_GLOBAL__N_1L3CMPI2RnIjE2MnIjEEEP6MemoryS6_R5StateT_T0_(%struct.Memory* %2, %struct.State* %0, i64 %13, i64 %15)
  ret %struct.Memory* %18
}

define internal %struct.Memory* @_ZN12_GLOBAL__N_1L3JNLEP6MemoryR5State3RnWIhE2InImES7_(%struct.Memory* readnone returned, %struct.State* nocapture dereferenceable(3376), i8* nocapture, i64, i64) #2 {
  %6 = getelementptr inbounds %struct.State, %struct.State* %1, i64 0, i32 2, i32 9
  %7 = load i8, i8* %6, align 1
  %8 = icmp ne i8 %7, 0
  %9 = getelementptr inbounds %struct.State, %struct.State* %1, i64 0, i32 2, i32 13
  %10 = load i8, i8* %9, align 1
  %11 = icmp ne i8 %10, 0
  %12 = xor i1 %8, %11
  %13 = xor i1 %12, true
  %14 = zext i1 %13 to i8
  store i8 %14, i8* %2, align 1
  %15 = getelementptr inbounds %struct.State, %struct.State* %1, i64 0, i32 6, i32 33, i32 0, i32 0
  %16 = select i1 %12, i64 %4, i64 %3
  store i64 %16, i64* %15, align 8
  ret %struct.Memory* %0
}

define %struct.Memory* @routine_jge_.L_4010e4(%struct.State*  dereferenceable(3376), i64, %struct.Memory*, i8* %BRANCH_TAKEN, i64 %rel_off1, i64 %rel_off2, i64 %rel_off3) {
block_400488:
  %3 = getelementptr inbounds %struct.State, %struct.State* %0, i32 0, i32 6
  %4 = getelementptr inbounds %struct.GPR, %struct.GPR* %3, i32 0, i32 33
  %5 = getelementptr inbounds %struct.Reg, %struct.Reg* %4, i32 0, i32 0
  %PC = bitcast %union.anon* %5 to i64*
  %6 = load i64, i64* %PC
  %7 = add i64 %6, %rel_off1
  %8 = load i64, i64* %PC
  %9 = add i64 %8, %rel_off2
  %10 = load i64, i64* %PC
  %11 = add i64 %10, %rel_off3
  store i64 %11, i64* %PC
  %12 = call %struct.Memory* @_ZN12_GLOBAL__N_1L3JNLEP6MemoryR5State3RnWIhE2InImES7_(%struct.Memory* %2, %struct.State* %0, i8* %BRANCH_TAKEN, i64 %7, i64 %9)
  ret %struct.Memory* %12
}


define %struct.Memory* @routine_movl__0x0__MINUS0x50__rbp_(%struct.State*  dereferenceable(3376), i64, %struct.Memory* ) #19 {
block_400488:
  %3 = getelementptr inbounds %struct.State, %struct.State* %0, i32 0, i32 6
  %4 = getelementptr inbounds %struct.GPR, %struct.GPR* %3, i32 0, i32 33
  %5 = getelementptr inbounds %struct.Reg, %struct.Reg* %4, i32 0, i32 0
  %PC = bitcast %union.anon* %5 to i64*
  %6 = getelementptr inbounds %struct.State, %struct.State* %0, i32 0, i32 6
  %7 = getelementptr inbounds %struct.GPR, %struct.GPR* %6, i32 0, i32 15
  %8 = getelementptr inbounds %struct.Reg, %struct.Reg* %7, i32 0, i32 0
  %RBP = bitcast %union.anon* %8 to i64*
  %9 = load i64, i64* %RBP
  %10 = sub i64 %9, 80
  %11 = load i64, i64* %PC
  %12 = add i64 %11, 7
  store i64 %12, i64* %PC
  %13 = call %struct.Memory* @_ZN12_GLOBAL__N_1L3MOVI3MnWIjE2InIjEEEP6MemoryS6_R5StateT_T0_(%struct.Memory* %2, %struct.State* %0, i64 %10, i64 0)
  ret %struct.Memory* %13
}


define %struct.Memory* @routine_movl_MINUS0x50__rbp____eax(%struct.State*  dereferenceable(3376), i64, %struct.Memory* ) #19 {
block_400488:
  %3 = getelementptr inbounds %struct.State, %struct.State* %0, i32 0, i32 6
  %4 = getelementptr inbounds %struct.GPR, %struct.GPR* %3, i32 0, i32 33
  %5 = getelementptr inbounds %struct.Reg, %struct.Reg* %4, i32 0, i32 0
  %PC = bitcast %union.anon* %5 to i64*
  %6 = getelementptr inbounds %struct.State, %struct.State* %0, i32 0, i32 6
  %7 = getelementptr inbounds %struct.GPR, %struct.GPR* %6, i32 0, i32 1
  %8 = getelementptr inbounds %struct.Reg, %struct.Reg* %7, i32 0, i32 0
  %RAX = bitcast %union.anon* %8 to i64*
  %9 = getelementptr inbounds %struct.State, %struct.State* %0, i32 0, i32 6
  %10 = getelementptr inbounds %struct.GPR, %struct.GPR* %9, i32 0, i32 15
  %11 = getelementptr inbounds %struct.Reg, %struct.Reg* %10, i32 0, i32 0
  %RBP = bitcast %union.anon* %11 to i64*
  %12 = load i64, i64* %RBP
  %13 = sub i64 %12, 80
  %14 = load i64, i64* %PC
  %15 = add i64 %14, 3
  store i64 %15, i64* %PC
  %16 = call %struct.Memory* @_ZN12_GLOBAL__N_1L3MOVI3RnWImE2MnIjEEEP6MemoryS6_R5StateT_T0_(%struct.Memory* %2, %struct.State* %0, i64* %RAX, i64 %13)
  ret %struct.Memory* %16
}


define %struct.Memory* @routine_cmpl_MINUS0x8__rbp____eax(%struct.State*  dereferenceable(3376), i64, %struct.Memory* ) #19 {
block_400488:
  %3 = getelementptr inbounds %struct.State, %struct.State* %0, i32 0, i32 6
  %4 = getelementptr inbounds %struct.GPR, %struct.GPR* %3, i32 0, i32 33
  %5 = getelementptr inbounds %struct.Reg, %struct.Reg* %4, i32 0, i32 0
  %PC = bitcast %union.anon* %5 to i64*
  %6 = getelementptr inbounds %struct.State, %struct.State* %0, i32 0, i32 6
  %7 = getelementptr inbounds %struct.GPR, %struct.GPR* %6, i32 0, i32 1
  %8 = getelementptr inbounds %struct.Reg, %struct.Reg* %7, i32 0, i32 0
  %EAX = bitcast %union.anon* %8 to i32*
  %9 = getelementptr inbounds %struct.State, %struct.State* %0, i32 0, i32 6
  %10 = getelementptr inbounds %struct.GPR, %struct.GPR* %9, i32 0, i32 15
  %11 = getelementptr inbounds %struct.Reg, %struct.Reg* %10, i32 0, i32 0
  %RBP = bitcast %union.anon* %11 to i64*
  %12 = load i32, i32* %EAX
  %13 = zext i32 %12 to i64
  %14 = load i64, i64* %RBP
  %15 = sub i64 %14, 8
  %16 = load i64, i64* %PC
  %17 = add i64 %16, 3
  store i64 %17, i64* %PC
  %18 = call %struct.Memory* @_ZN12_GLOBAL__N_1L3CMPI2RnIjE2MnIjEEEP6MemoryS6_R5StateT_T0_(%struct.Memory* %2, %struct.State* %0, i64 %13, i64 %15)
  ret %struct.Memory* %18
}


define %struct.Memory* @routine_jge_.L_4010d1(%struct.State*  dereferenceable(3376), i64, %struct.Memory*, i8* %BRANCH_TAKEN, i64 %rel_off1, i64 %rel_off2, i64 %rel_off3) {
block_400488:
  %3 = getelementptr inbounds %struct.State, %struct.State* %0, i32 0, i32 6
  %4 = getelementptr inbounds %struct.GPR, %struct.GPR* %3, i32 0, i32 33
  %5 = getelementptr inbounds %struct.Reg, %struct.Reg* %4, i32 0, i32 0
  %PC = bitcast %union.anon* %5 to i64*
  %6 = load i64, i64* %PC
  %7 = add i64 %6, %rel_off1
  %8 = load i64, i64* %PC
  %9 = add i64 %8, %rel_off2
  %10 = load i64, i64* %PC
  %11 = add i64 %10, %rel_off3
  store i64 %11, i64* %PC
  %12 = call %struct.Memory* @_ZN12_GLOBAL__N_1L3JNLEP6MemoryR5State3RnWIhE2InImES7_(%struct.Memory* %2, %struct.State* %0, i8* %BRANCH_TAKEN, i64 %7, i64 %9)
  ret %struct.Memory* %12
}

define internal %struct.Memory* @_ZN12_GLOBAL__N_1L4PXORI3VnWI8vec128_tE2VnIS2_ES5_EEP6MemoryS7_R5StateT_T0_T1_(%struct.Memory* readnone returned, %struct.State* nocapture readnone dereferenceable(3376), i8* nocapture, i8* nocapture readonly, i8* nocapture readonly) #0 {
  %6 = bitcast i8* %3 to i64*
  %7 = load i64, i64* %6, align 1
  %8 = getelementptr inbounds i8, i8* %3, i64 8
  %9 = bitcast i8* %8 to i64*
  %10 = load i64, i64* %9, align 1
  %11 = bitcast i8* %4 to i64*
  %12 = load i64, i64* %11, align 1
  %13 = getelementptr inbounds i8, i8* %4, i64 8
  %14 = bitcast i8* %13 to i64*
  %15 = load i64, i64* %14, align 1
  %16 = xor i64 %12, %7
  %17 = xor i64 %15, %10
  %18 = trunc i64 %16 to i32
  %19 = lshr i64 %16, 32
  %20 = trunc i64 %19 to i32
  %21 = bitcast i8* %2 to i32*
  store i32 %18, i32* %21, align 1
  %22 = getelementptr inbounds i8, i8* %2, i64 4
  %23 = bitcast i8* %22 to i32*
  store i32 %20, i32* %23, align 1
  %24 = trunc i64 %17 to i32
  %25 = getelementptr inbounds i8, i8* %2, i64 8
  %26 = bitcast i8* %25 to i32*
  store i32 %24, i32* %26, align 1
  %27 = lshr i64 %17, 32
  %28 = trunc i64 %27 to i32
  %29 = getelementptr inbounds i8, i8* %2, i64 12
  %30 = bitcast i8* %29 to i32*
  store i32 %28, i32* %30, align 1
  ret %struct.Memory* %0
}

define %struct.Memory* @routine_xorps__xmm0___xmm0(%struct.State*  dereferenceable(3376), i64, %struct.Memory* ) #19 {
block_400488:
  %3 = getelementptr inbounds %struct.State, %struct.State* %0, i32 0, i32 6
  %4 = getelementptr inbounds %struct.GPR, %struct.GPR* %3, i32 0, i32 33
  %5 = getelementptr inbounds %struct.Reg, %struct.Reg* %4, i32 0, i32 0
  %PC = bitcast %union.anon* %5 to i64*
  %6 = getelementptr inbounds %struct.State, %struct.State* %0, i32 0, i32 1
  %7 = getelementptr inbounds [32 x %union.VectorReg], [32 x %union.VectorReg]* %6, i64 0, i64 0
  %YMM0 = bitcast %union.VectorReg* %7 to %"class.std::bitset"*
  %8 = getelementptr inbounds %struct.State, %struct.State* %0, i32 0, i32 1
  %9 = getelementptr inbounds [32 x %union.VectorReg], [32 x %union.VectorReg]* %8, i64 0, i64 0
  %XMM0 = bitcast %union.VectorReg* %9 to %union.vec128_t*
  %10 = bitcast %"class.std::bitset"* %YMM0 to i8*
  %11 = bitcast %"class.std::bitset"* %YMM0 to i8*
  %12 = bitcast %union.vec128_t* %XMM0 to i8*
  %13 = load i64, i64* %PC
  %14 = add i64 %13, 3
  store i64 %14, i64* %PC
  %15 = call %struct.Memory* @_ZN12_GLOBAL__N_1L4PXORI3VnWI8vec128_tE2VnIS2_ES5_EEP6MemoryS7_R5StateT_T0_T1_(%struct.Memory* %2, %struct.State* %0, i8* %10, i8* %11, i8* %12)
  ret %struct.Memory* %15
}


define %struct.Memory* @routine_movq_MINUS0x28__rbp____rax(%struct.State*  dereferenceable(3376), i64, %struct.Memory* ) #19 {
block_400488:
  %3 = getelementptr inbounds %struct.State, %struct.State* %0, i32 0, i32 6
  %4 = getelementptr inbounds %struct.GPR, %struct.GPR* %3, i32 0, i32 33
  %5 = getelementptr inbounds %struct.Reg, %struct.Reg* %4, i32 0, i32 0
  %PC = bitcast %union.anon* %5 to i64*
  %6 = getelementptr inbounds %struct.State, %struct.State* %0, i32 0, i32 6
  %7 = getelementptr inbounds %struct.GPR, %struct.GPR* %6, i32 0, i32 1
  %8 = getelementptr inbounds %struct.Reg, %struct.Reg* %7, i32 0, i32 0
  %RAX = bitcast %union.anon* %8 to i64*
  %9 = getelementptr inbounds %struct.State, %struct.State* %0, i32 0, i32 6
  %10 = getelementptr inbounds %struct.GPR, %struct.GPR* %9, i32 0, i32 15
  %11 = getelementptr inbounds %struct.Reg, %struct.Reg* %10, i32 0, i32 0
  %RBP = bitcast %union.anon* %11 to i64*
  %12 = load i64, i64* %RBP
  %13 = sub i64 %12, 40
  %14 = load i64, i64* %PC
  %15 = add i64 %14, 4
  store i64 %15, i64* %PC
  %16 = call %struct.Memory* @_ZN12_GLOBAL__N_1L3MOVI3RnWImE2MnImEEEP6MemoryS6_R5StateT_T0_(%struct.Memory* %2, %struct.State* %0, i64* %RAX, i64 %13)
  ret %struct.Memory* %16
}

define internal %struct.Memory* @_ZN12_GLOBAL__N_1L5MOVSXI3RnWImE2MnIjElEEP6MemoryS6_R5StateT_T0_(%struct.Memory* returned, %struct.State* nocapture readnone dereferenceable(3376), i64* nocapture, i64) #0 {
  %5 = inttoptr i64 %3 to i32*
  %6 = load i32, i32* %5
  %7 = sext i32 %6 to i64
  store i64 %7, i64* %2, align 8
  ret %struct.Memory* %0
}

define %struct.Memory* @routine_movslq_MINUS0x4c__rbp____rcx(%struct.State*  dereferenceable(3376), i64, %struct.Memory* ) #19 {
block_400488:
  %3 = getelementptr inbounds %struct.State, %struct.State* %0, i32 0, i32 6
  %4 = getelementptr inbounds %struct.GPR, %struct.GPR* %3, i32 0, i32 33
  %5 = getelementptr inbounds %struct.Reg, %struct.Reg* %4, i32 0, i32 0
  %PC = bitcast %union.anon* %5 to i64*
  %6 = getelementptr inbounds %struct.State, %struct.State* %0, i32 0, i32 6
  %7 = getelementptr inbounds %struct.GPR, %struct.GPR* %6, i32 0, i32 5
  %8 = getelementptr inbounds %struct.Reg, %struct.Reg* %7, i32 0, i32 0
  %RCX = bitcast %union.anon* %8 to i64*
  %9 = getelementptr inbounds %struct.State, %struct.State* %0, i32 0, i32 6
  %10 = getelementptr inbounds %struct.GPR, %struct.GPR* %9, i32 0, i32 15
  %11 = getelementptr inbounds %struct.Reg, %struct.Reg* %10, i32 0, i32 0
  %RBP = bitcast %union.anon* %11 to i64*
  %12 = load i64, i64* %RBP
  %13 = sub i64 %12, 76
  %14 = load i64, i64* %PC
  %15 = add i64 %14, 4
  store i64 %15, i64* %PC
  %16 = call %struct.Memory* @_ZN12_GLOBAL__N_1L5MOVSXI3RnWImE2MnIjElEEP6MemoryS6_R5StateT_T0_(%struct.Memory* %2, %struct.State* %0, i64* %RCX, i64 %13)
  ret %struct.Memory* %16
}

define internal %struct.Memory* @_ZN12_GLOBAL__N_1L3SHLI3RnWImE2RnImE2InImEEEP6MemoryS8_R5StateT_T0_T1_(%struct.Memory* readnone, %struct.State* nocapture dereferenceable(3376), i64* nocapture, i64, i64) #0 {
  %6 = trunc i64 %4 to i6
  switch i6 %6, label %12 [
    i6 0, label %41
    i6 1, label %7
  ]

; <label>:7:                                      ; preds = %5
  %8 = shl i64 %3, 1
  %9 = icmp slt i64 %3, 0
  %10 = icmp slt i64 %8, 0
  %11 = xor i1 %9, %10
  br label %19

; <label>:12:                                     ; preds = %5
  %13 = and i64 %4, 63
  %14 = add  i64 %13, -1
  %15 = shl i64 %3, %14
  %16 = icmp slt i64 %15, 0
  %17 = icmp ne i8 0, 0
  %18 = shl i64 %15, 1
  br label %19

; <label>:19:                                     ; preds = %12, %7
  %20 = phi i1 [ %9, %7 ], [ %16, %12 ]
  %21 = phi i1 [ %11, %7 ], [ %17, %12 ]
  %22 = phi i64 [ %8, %7 ], [ %18, %12 ]
  store i64 %22, i64* %2, align 8
  %23 = getelementptr inbounds %struct.State, %struct.State* %1, i64 0, i32 2, i32 1
  %24 = zext i1 %20 to i8
  store i8 %24, i8* %23, align 1
  %25 = getelementptr inbounds %struct.State, %struct.State* %1, i64 0, i32 2, i32 3
  %26 = trunc i64 %22 to i32
  %27 = and i32 %26, 254
  %28 = tail call i32 @llvm.ctpop.i32(i32 %27) #22
  %29 = trunc i32 %28 to i8
  %30 = and i8 %29, 1
  %31 = xor i8 %30, 1
  store i8 %31, i8* %25, align 1
  %32 = getelementptr inbounds %struct.State, %struct.State* %1, i64 0, i32 2, i32 5
  store i8 0, i8* %32, align 1
  %33 = getelementptr inbounds %struct.State, %struct.State* %1, i64 0, i32 2, i32 7
  %34 = icmp eq i64 %22, 0
  %35 = zext i1 %34 to i8
  store i8 %35, i8* %33, align 1
  %36 = getelementptr inbounds %struct.State, %struct.State* %1, i64 0, i32 2, i32 9
  %37 = lshr i64 %22, 63
  %38 = trunc i64 %37 to i8
  store i8 %38, i8* %36, align 1
  %39 = getelementptr inbounds %struct.State, %struct.State* %1, i64 0, i32 2, i32 13
  %40 = zext i1 %21 to i8
  store i8 %40, i8* %39, align 1
  br label %41

; <label>:41:                                     ; preds = %19, %5
  ret %struct.Memory* %0
}

define %struct.Memory* @routine_shlq__0xd___rcx(%struct.State*  dereferenceable(3376), i64, %struct.Memory* ) #19 {
block_400488:
  %3 = getelementptr inbounds %struct.State, %struct.State* %0, i32 0, i32 6
  %4 = getelementptr inbounds %struct.GPR, %struct.GPR* %3, i32 0, i32 33
  %5 = getelementptr inbounds %struct.Reg, %struct.Reg* %4, i32 0, i32 0
  %PC = bitcast %union.anon* %5 to i64*
  %6 = getelementptr inbounds %struct.State, %struct.State* %0, i32 0, i32 6
  %7 = getelementptr inbounds %struct.GPR, %struct.GPR* %6, i32 0, i32 5
  %8 = getelementptr inbounds %struct.Reg, %struct.Reg* %7, i32 0, i32 0
  %RCX = bitcast %union.anon* %8 to i64*
  %9 = load i64, i64* %RCX
  %10 = load i64, i64* %PC
  %11 = add i64 %10, 4
  store i64 %11, i64* %PC
  %12 = call %struct.Memory* @_ZN12_GLOBAL__N_1L3SHLI3RnWImE2RnImE2InImEEEP6MemoryS8_R5StateT_T0_T1_(%struct.Memory* %2, %struct.State* %0, i64* %RCX, i64 %9, i64 13)
  ret %struct.Memory* %12
}

define internal %struct.Memory* @_ZN12_GLOBAL__N_1L3ADDI3RnWImE2RnImES4_EEP6MemoryS6_R5StateT_T0_T1_(%struct.Memory* readnone returned, %struct.State* nocapture dereferenceable(3376), i64* nocapture, i64, i64) #0 {
  %6 = add i64 %4, %3
  store i64 %6, i64* %2, align 8
  %7 = icmp ult i64 %6, %3
  %8 = icmp ult i64 %6, %4
  %9 = or i1 %7, %8
  %10 = zext i1 %9 to i8
  %11 = getelementptr inbounds %struct.State, %struct.State* %1, i64 0, i32 2, i32 1
  store i8 %10, i8* %11, align 1
  %12 = trunc i64 %6 to i32
  %13 = and i32 %12, 255
  %14 = tail call i32 @llvm.ctpop.i32(i32 %13) #22
  %15 = trunc i32 %14 to i8
  %16 = and i8 %15, 1
  %17 = xor i8 %16, 1
  %18 = getelementptr inbounds %struct.State, %struct.State* %1, i64 0, i32 2, i32 3
  store i8 %17, i8* %18, align 1
  %19 = xor i64 %4, %3
  %20 = xor i64 %19, %6
  %21 = lshr i64 %20, 4
  %22 = trunc i64 %21 to i8
  %23 = and i8 %22, 1
  %24 = getelementptr inbounds %struct.State, %struct.State* %1, i64 0, i32 2, i32 5
  store i8 %23, i8* %24, align 1
  %25 = icmp eq i64 %6, 0
  %26 = zext i1 %25 to i8
  %27 = getelementptr inbounds %struct.State, %struct.State* %1, i64 0, i32 2, i32 7
  store i8 %26, i8* %27, align 1
  %28 = lshr i64 %6, 63
  %29 = trunc i64 %28 to i8
  %30 = getelementptr inbounds %struct.State, %struct.State* %1, i64 0, i32 2, i32 9
  store i8 %29, i8* %30, align 1
  %31 = lshr i64 %3, 63
  %32 = lshr i64 %4, 63
  %33 = xor i64 %28, %31
  %34 = xor i64 %28, %32
  %35 = add   i64 %33, %34
  %36 = icmp eq i64 %35, 2
  %37 = zext i1 %36 to i8
  %38 = getelementptr inbounds %struct.State, %struct.State* %1, i64 0, i32 2, i32 13
  store i8 %37, i8* %38, align 1
  ret %struct.Memory* %0
}

define %struct.Memory* @routine_addq__rcx___rax(%struct.State*  dereferenceable(3376), i64, %struct.Memory* ) #19 {
block_400488:
  %3 = getelementptr inbounds %struct.State, %struct.State* %0, i32 0, i32 6
  %4 = getelementptr inbounds %struct.GPR, %struct.GPR* %3, i32 0, i32 33
  %5 = getelementptr inbounds %struct.Reg, %struct.Reg* %4, i32 0, i32 0
  %PC = bitcast %union.anon* %5 to i64*
  %6 = getelementptr inbounds %struct.State, %struct.State* %0, i32 0, i32 6
  %7 = getelementptr inbounds %struct.GPR, %struct.GPR* %6, i32 0, i32 1
  %8 = getelementptr inbounds %struct.Reg, %struct.Reg* %7, i32 0, i32 0
  %RAX = bitcast %union.anon* %8 to i64*
  %9 = getelementptr inbounds %struct.State, %struct.State* %0, i32 0, i32 6
  %10 = getelementptr inbounds %struct.GPR, %struct.GPR* %9, i32 0, i32 5
  %11 = getelementptr inbounds %struct.Reg, %struct.Reg* %10, i32 0, i32 0
  %RCX = bitcast %union.anon* %11 to i64*
  %12 = load i64, i64* %RAX
  %13 = load i64, i64* %RCX
  %14 = load i64, i64* %PC
  %15 = add i64 %14, 3
  store i64 %15, i64* %PC
  %16 = call %struct.Memory* @_ZN12_GLOBAL__N_1L3ADDI3RnWImE2RnImES4_EEP6MemoryS6_R5StateT_T0_T1_(%struct.Memory* %2, %struct.State* %0, i64* %RAX, i64 %12, i64 %13)
  ret %struct.Memory* %16
}


define %struct.Memory* @routine_movslq_MINUS0x50__rbp____rcx(%struct.State*  dereferenceable(3376), i64, %struct.Memory* ) #19 {
block_400488:
  %3 = getelementptr inbounds %struct.State, %struct.State* %0, i32 0, i32 6
  %4 = getelementptr inbounds %struct.GPR, %struct.GPR* %3, i32 0, i32 33
  %5 = getelementptr inbounds %struct.Reg, %struct.Reg* %4, i32 0, i32 0
  %PC = bitcast %union.anon* %5 to i64*
  %6 = getelementptr inbounds %struct.State, %struct.State* %0, i32 0, i32 6
  %7 = getelementptr inbounds %struct.GPR, %struct.GPR* %6, i32 0, i32 5
  %8 = getelementptr inbounds %struct.Reg, %struct.Reg* %7, i32 0, i32 0
  %RCX = bitcast %union.anon* %8 to i64*
  %9 = getelementptr inbounds %struct.State, %struct.State* %0, i32 0, i32 6
  %10 = getelementptr inbounds %struct.GPR, %struct.GPR* %9, i32 0, i32 15
  %11 = getelementptr inbounds %struct.Reg, %struct.Reg* %10, i32 0, i32 0
  %RBP = bitcast %union.anon* %11 to i64*
  %12 = load i64, i64* %RBP
  %13 = sub i64 %12, 80
  %14 = load i64, i64* %PC
  %15 = add i64 %14, 4
  store i64 %15, i64* %PC
  %16 = call %struct.Memory* @_ZN12_GLOBAL__N_1L5MOVSXI3RnWImE2MnIjElEEP6MemoryS6_R5StateT_T0_(%struct.Memory* %2, %struct.State* %0, i64* %RCX, i64 %13)
  ret %struct.Memory* %16
}


define %struct.Memory* @routine_movsd__xmm0____rax__rcx_8_(%struct.State*  dereferenceable(3376), i64, %struct.Memory* ) #19 {
block_400488:
  %3 = getelementptr inbounds %struct.State, %struct.State* %0, i32 0, i32 6
  %4 = getelementptr inbounds %struct.GPR, %struct.GPR* %3, i32 0, i32 33
  %5 = getelementptr inbounds %struct.Reg, %struct.Reg* %4, i32 0, i32 0
  %PC = bitcast %union.anon* %5 to i64*
  %6 = getelementptr inbounds %struct.State, %struct.State* %0, i32 0, i32 6
  %7 = getelementptr inbounds %struct.GPR, %struct.GPR* %6, i32 0, i32 1
  %8 = getelementptr inbounds %struct.Reg, %struct.Reg* %7, i32 0, i32 0
  %RAX = bitcast %union.anon* %8 to i64*
  %9 = getelementptr inbounds %struct.State, %struct.State* %0, i32 0, i32 6
  %10 = getelementptr inbounds %struct.GPR, %struct.GPR* %9, i32 0, i32 5
  %11 = getelementptr inbounds %struct.Reg, %struct.Reg* %10, i32 0, i32 0
  %RCX = bitcast %union.anon* %11 to i64*
  %12 = getelementptr inbounds %struct.State, %struct.State* %0, i32 0, i32 1
  %13 = getelementptr inbounds [32 x %union.VectorReg], [32 x %union.VectorReg]* %12, i64 0, i64 0
  %XMM0 = bitcast %union.VectorReg* %13 to %union.vec128_t*
  %14 = load i64, i64* %RAX
  %15 = load i64, i64* %RCX
  %16 = mul i64 %15, 8
  %17 = add i64 %16, %14
  %18 = bitcast %union.vec128_t* %XMM0 to i8*
  %19 = load i64, i64* %PC
  %20 = add i64 %19, 5
  store i64 %20, i64* %PC
  %21 = call %struct.Memory* @_ZN12_GLOBAL__N_1L9MOVSD_MEMI4MVnWI7vec64_tE2VnI8vec128_tEEEP6MemoryS8_R5StateT_T0_(%struct.Memory* %2, %struct.State* %0, i64 %17, i8* %18)
  ret %struct.Memory* %21
}


define %struct.Memory* @routine_movl__0x0__MINUS0x54__rbp_(%struct.State*  dereferenceable(3376), i64, %struct.Memory* ) #19 {
block_400488:
  %3 = getelementptr inbounds %struct.State, %struct.State* %0, i32 0, i32 6
  %4 = getelementptr inbounds %struct.GPR, %struct.GPR* %3, i32 0, i32 33
  %5 = getelementptr inbounds %struct.Reg, %struct.Reg* %4, i32 0, i32 0
  %PC = bitcast %union.anon* %5 to i64*
  %6 = getelementptr inbounds %struct.State, %struct.State* %0, i32 0, i32 6
  %7 = getelementptr inbounds %struct.GPR, %struct.GPR* %6, i32 0, i32 15
  %8 = getelementptr inbounds %struct.Reg, %struct.Reg* %7, i32 0, i32 0
  %RBP = bitcast %union.anon* %8 to i64*
  %9 = load i64, i64* %RBP
  %10 = sub i64 %9, 84
  %11 = load i64, i64* %PC
  %12 = add i64 %11, 7
  store i64 %12, i64* %PC
  %13 = call %struct.Memory* @_ZN12_GLOBAL__N_1L3MOVI3MnWIjE2InIjEEEP6MemoryS6_R5StateT_T0_(%struct.Memory* %2, %struct.State* %0, i64 %10, i64 0)
  ret %struct.Memory* %13
}


define %struct.Memory* @routine_movl_MINUS0x54__rbp____eax(%struct.State*  dereferenceable(3376), i64, %struct.Memory* ) #19 {
block_400488:
  %3 = getelementptr inbounds %struct.State, %struct.State* %0, i32 0, i32 6
  %4 = getelementptr inbounds %struct.GPR, %struct.GPR* %3, i32 0, i32 33
  %5 = getelementptr inbounds %struct.Reg, %struct.Reg* %4, i32 0, i32 0
  %PC = bitcast %union.anon* %5 to i64*
  %6 = getelementptr inbounds %struct.State, %struct.State* %0, i32 0, i32 6
  %7 = getelementptr inbounds %struct.GPR, %struct.GPR* %6, i32 0, i32 1
  %8 = getelementptr inbounds %struct.Reg, %struct.Reg* %7, i32 0, i32 0
  %RAX = bitcast %union.anon* %8 to i64*
  %9 = getelementptr inbounds %struct.State, %struct.State* %0, i32 0, i32 6
  %10 = getelementptr inbounds %struct.GPR, %struct.GPR* %9, i32 0, i32 15
  %11 = getelementptr inbounds %struct.Reg, %struct.Reg* %10, i32 0, i32 0
  %RBP = bitcast %union.anon* %11 to i64*
  %12 = load i64, i64* %RBP
  %13 = sub i64 %12, 84
  %14 = load i64, i64* %PC
  %15 = add i64 %14, 3
  store i64 %15, i64* %PC
  %16 = call %struct.Memory* @_ZN12_GLOBAL__N_1L3MOVI3RnWImE2MnIjEEEP6MemoryS6_R5StateT_T0_(%struct.Memory* %2, %struct.State* %0, i64* %RAX, i64 %13)
  ret %struct.Memory* %16
}


define %struct.Memory* @routine_cmpl_MINUS0xc__rbp____eax(%struct.State*  dereferenceable(3376), i64, %struct.Memory* ) #19 {
block_400488:
  %3 = getelementptr inbounds %struct.State, %struct.State* %0, i32 0, i32 6
  %4 = getelementptr inbounds %struct.GPR, %struct.GPR* %3, i32 0, i32 33
  %5 = getelementptr inbounds %struct.Reg, %struct.Reg* %4, i32 0, i32 0
  %PC = bitcast %union.anon* %5 to i64*
  %6 = getelementptr inbounds %struct.State, %struct.State* %0, i32 0, i32 6
  %7 = getelementptr inbounds %struct.GPR, %struct.GPR* %6, i32 0, i32 1
  %8 = getelementptr inbounds %struct.Reg, %struct.Reg* %7, i32 0, i32 0
  %EAX = bitcast %union.anon* %8 to i32*
  %9 = getelementptr inbounds %struct.State, %struct.State* %0, i32 0, i32 6
  %10 = getelementptr inbounds %struct.GPR, %struct.GPR* %9, i32 0, i32 15
  %11 = getelementptr inbounds %struct.Reg, %struct.Reg* %10, i32 0, i32 0
  %RBP = bitcast %union.anon* %11 to i64*
  %12 = load i32, i32* %EAX
  %13 = zext i32 %12 to i64
  %14 = load i64, i64* %RBP
  %15 = sub i64 %14, 12
  %16 = load i64, i64* %PC
  %17 = add i64 %16, 3
  store i64 %17, i64* %PC
  %18 = call %struct.Memory* @_ZN12_GLOBAL__N_1L3CMPI2RnIjE2MnIjEEEP6MemoryS6_R5StateT_T0_(%struct.Memory* %2, %struct.State* %0, i64 %13, i64 %15)
  ret %struct.Memory* %18
}


define %struct.Memory* @routine_jge_.L_4010be(%struct.State*  dereferenceable(3376), i64, %struct.Memory*, i8* %BRANCH_TAKEN, i64 %rel_off1, i64 %rel_off2, i64 %rel_off3) {
block_400488:
  %3 = getelementptr inbounds %struct.State, %struct.State* %0, i32 0, i32 6
  %4 = getelementptr inbounds %struct.GPR, %struct.GPR* %3, i32 0, i32 33
  %5 = getelementptr inbounds %struct.Reg, %struct.Reg* %4, i32 0, i32 0
  %PC = bitcast %union.anon* %5 to i64*
  %6 = load i64, i64* %PC
  %7 = add i64 %6, %rel_off1
  %8 = load i64, i64* %PC
  %9 = add i64 %8, %rel_off2
  %10 = load i64, i64* %PC
  %11 = add i64 %10, %rel_off3
  store i64 %11, i64* %PC
  %12 = call %struct.Memory* @_ZN12_GLOBAL__N_1L3JNLEP6MemoryR5State3RnWIhE2InImES7_(%struct.Memory* %2, %struct.State* %0, i8* %BRANCH_TAKEN, i64 %7, i64 %9)
  ret %struct.Memory* %12
}

define internal %struct.Memory* @_ZN12_GLOBAL__N_1L9MOVSD_MEMI3VnWI8vec128_tE3MVnI7vec64_tEEEP6MemoryS8_R5StateT_T0_(%struct.Memory* returned, %struct.State* nocapture readnone dereferenceable(3376), i8* nocapture, i64) #0 {
  %5 = inttoptr i64 %3 to double*
  %6 = load double, double* %5
  %7 = bitcast i8* %2 to double*
  store double %6, double* %7, align 1
  %8 = getelementptr inbounds i8, i8* %2, i64 8
  %9 = bitcast i8* %8 to double*
  store double 0.000000e+00, double* %9, align 1
  ret %struct.Memory* %0
}

define %struct.Memory* @routine_movsd_MINUS0x18__rbp____xmm0(%struct.State*  dereferenceable(3376), i64, %struct.Memory* ) #19 {
block_400488:
  %3 = getelementptr inbounds %struct.State, %struct.State* %0, i32 0, i32 6
  %4 = getelementptr inbounds %struct.GPR, %struct.GPR* %3, i32 0, i32 33
  %5 = getelementptr inbounds %struct.Reg, %struct.Reg* %4, i32 0, i32 0
  %PC = bitcast %union.anon* %5 to i64*
  %6 = getelementptr inbounds %struct.State, %struct.State* %0, i32 0, i32 6
  %7 = getelementptr inbounds %struct.GPR, %struct.GPR* %6, i32 0, i32 15
  %8 = getelementptr inbounds %struct.Reg, %struct.Reg* %7, i32 0, i32 0
  %RBP = bitcast %union.anon* %8 to i64*
  %9 = getelementptr inbounds %struct.State, %struct.State* %0, i32 0, i32 1
  %10 = getelementptr inbounds [32 x %union.VectorReg], [32 x %union.VectorReg]* %9, i64 0, i64 0
  %YMM0 = bitcast %union.VectorReg* %10 to %"class.std::bitset"*
  %11 = bitcast %"class.std::bitset"* %YMM0 to i8*
  %12 = load i64, i64* %RBP
  %13 = sub i64 %12, 24
  %14 = load i64, i64* %PC
  %15 = add i64 %14, 5
  store i64 %15, i64* %PC
  %16 = call %struct.Memory* @_ZN12_GLOBAL__N_1L9MOVSD_MEMI3VnWI8vec128_tE3MVnI7vec64_tEEEP6MemoryS8_R5StateT_T0_(%struct.Memory* %2, %struct.State* %0, i8* %11, i64 %13)
  ret %struct.Memory* %16
}


define %struct.Memory* @routine_movq_MINUS0x30__rbp____rax(%struct.State*  dereferenceable(3376), i64, %struct.Memory* ) #19 {
block_400488:
  %3 = getelementptr inbounds %struct.State, %struct.State* %0, i32 0, i32 6
  %4 = getelementptr inbounds %struct.GPR, %struct.GPR* %3, i32 0, i32 33
  %5 = getelementptr inbounds %struct.Reg, %struct.Reg* %4, i32 0, i32 0
  %PC = bitcast %union.anon* %5 to i64*
  %6 = getelementptr inbounds %struct.State, %struct.State* %0, i32 0, i32 6
  %7 = getelementptr inbounds %struct.GPR, %struct.GPR* %6, i32 0, i32 1
  %8 = getelementptr inbounds %struct.Reg, %struct.Reg* %7, i32 0, i32 0
  %RAX = bitcast %union.anon* %8 to i64*
  %9 = getelementptr inbounds %struct.State, %struct.State* %0, i32 0, i32 6
  %10 = getelementptr inbounds %struct.GPR, %struct.GPR* %9, i32 0, i32 15
  %11 = getelementptr inbounds %struct.Reg, %struct.Reg* %10, i32 0, i32 0
  %RBP = bitcast %union.anon* %11 to i64*
  %12 = load i64, i64* %RBP
  %13 = sub i64 %12, 48
  %14 = load i64, i64* %PC
  %15 = add i64 %14, 4
  store i64 %15, i64* %PC
  %16 = call %struct.Memory* @_ZN12_GLOBAL__N_1L3MOVI3RnWImE2MnImEEEP6MemoryS6_R5StateT_T0_(%struct.Memory* %2, %struct.State* %0, i64* %RAX, i64 %13)
  ret %struct.Memory* %16
}








define %struct.Memory* @routine_movslq_MINUS0x54__rbp____rcx(%struct.State*  dereferenceable(3376), i64, %struct.Memory* ) #19 {
block_400488:
  %3 = getelementptr inbounds %struct.State, %struct.State* %0, i32 0, i32 6
  %4 = getelementptr inbounds %struct.GPR, %struct.GPR* %3, i32 0, i32 33
  %5 = getelementptr inbounds %struct.Reg, %struct.Reg* %4, i32 0, i32 0
  %PC = bitcast %union.anon* %5 to i64*
  %6 = getelementptr inbounds %struct.State, %struct.State* %0, i32 0, i32 6
  %7 = getelementptr inbounds %struct.GPR, %struct.GPR* %6, i32 0, i32 5
  %8 = getelementptr inbounds %struct.Reg, %struct.Reg* %7, i32 0, i32 0
  %RCX = bitcast %union.anon* %8 to i64*
  %9 = getelementptr inbounds %struct.State, %struct.State* %0, i32 0, i32 6
  %10 = getelementptr inbounds %struct.GPR, %struct.GPR* %9, i32 0, i32 15
  %11 = getelementptr inbounds %struct.Reg, %struct.Reg* %10, i32 0, i32 0
  %RBP = bitcast %union.anon* %11 to i64*
  %12 = load i64, i64* %RBP
  %13 = sub i64 %12, 84
  %14 = load i64, i64* %PC
  %15 = add i64 %14, 4
  store i64 %15, i64* %PC
  %16 = call %struct.Memory* @_ZN12_GLOBAL__N_1L5MOVSXI3RnWImE2MnIjElEEP6MemoryS6_R5StateT_T0_(%struct.Memory* %2, %struct.State* %0, i64* %RCX, i64 %13)
  ret %struct.Memory* %16
}

define internal %struct.Memory* @_ZN12_GLOBAL__N_1L5MULSDI3VnWI8vec128_tE2VnIS2_E3MVnIS2_EEEP6MemoryS9_R5StateT_T0_T1_(%struct.Memory* returned, %struct.State* nocapture readnone dereferenceable(3376), i8* nocapture, i8* nocapture readonly, i64) #0 {
  %6 = bitcast i8* %3 to double*
  %7 = load double, double* %6, align 1
  %8 = getelementptr inbounds i8, i8* %3, i64 8
  %9 = bitcast i8* %8 to i64*
  %10 = load i64, i64* %9, align 1
  %11 = inttoptr i64 %4 to double*
  %12 = load double, double* %11
  %13 = fmul double %7, %12
  %14 = bitcast i8* %2 to double*
  store double %13, double* %14, align 1
  %15 = getelementptr inbounds i8, i8* %2, i64 8
  %16 = bitcast i8* %15 to i64*
  store i64 %10, i64* %16, align 1
  ret %struct.Memory* %0
}

define %struct.Memory* @routine_mulsd___rax__rcx_8____xmm0(%struct.State*  dereferenceable(3376), i64, %struct.Memory* ) #19 {
block_400488:
  %3 = getelementptr inbounds %struct.State, %struct.State* %0, i32 0, i32 6
  %4 = getelementptr inbounds %struct.GPR, %struct.GPR* %3, i32 0, i32 33
  %5 = getelementptr inbounds %struct.Reg, %struct.Reg* %4, i32 0, i32 0
  %PC = bitcast %union.anon* %5 to i64*
  %6 = getelementptr inbounds %struct.State, %struct.State* %0, i32 0, i32 6
  %7 = getelementptr inbounds %struct.GPR, %struct.GPR* %6, i32 0, i32 1
  %8 = getelementptr inbounds %struct.Reg, %struct.Reg* %7, i32 0, i32 0
  %RAX = bitcast %union.anon* %8 to i64*
  %9 = getelementptr inbounds %struct.State, %struct.State* %0, i32 0, i32 6
  %10 = getelementptr inbounds %struct.GPR, %struct.GPR* %9, i32 0, i32 5
  %11 = getelementptr inbounds %struct.Reg, %struct.Reg* %10, i32 0, i32 0
  %RCX = bitcast %union.anon* %11 to i64*
  %12 = getelementptr inbounds %struct.State, %struct.State* %0, i32 0, i32 1
  %13 = getelementptr inbounds [32 x %union.VectorReg], [32 x %union.VectorReg]* %12, i64 0, i64 0
  %YMM0 = bitcast %union.VectorReg* %13 to %"class.std::bitset"*
  %14 = bitcast %"class.std::bitset"* %YMM0 to i8*
  %15 = bitcast %"class.std::bitset"* %YMM0 to i8*
  %16 = load i64, i64* %RAX
  %17 = load i64, i64* %RCX
  %18 = mul i64 %17, 8
  %19 = add i64 %18, %16
  %20 = load i64, i64* %PC
  %21 = add i64 %20, 5
  store i64 %21, i64* %PC
  %22 = call %struct.Memory* @_ZN12_GLOBAL__N_1L5MULSDI3VnWI8vec128_tE2VnIS2_E3MVnIS2_EEEP6MemoryS9_R5StateT_T0_T1_(%struct.Memory* %2, %struct.State* %0, i8* %14, i8* %15, i64 %19)
  ret %struct.Memory* %22
}


define %struct.Memory* @routine_movq_MINUS0x38__rbp____rax(%struct.State*  dereferenceable(3376), i64, %struct.Memory* ) #19 {
block_400488:
  %3 = getelementptr inbounds %struct.State, %struct.State* %0, i32 0, i32 6
  %4 = getelementptr inbounds %struct.GPR, %struct.GPR* %3, i32 0, i32 33
  %5 = getelementptr inbounds %struct.Reg, %struct.Reg* %4, i32 0, i32 0
  %PC = bitcast %union.anon* %5 to i64*
  %6 = getelementptr inbounds %struct.State, %struct.State* %0, i32 0, i32 6
  %7 = getelementptr inbounds %struct.GPR, %struct.GPR* %6, i32 0, i32 1
  %8 = getelementptr inbounds %struct.Reg, %struct.Reg* %7, i32 0, i32 0
  %RAX = bitcast %union.anon* %8 to i64*
  %9 = getelementptr inbounds %struct.State, %struct.State* %0, i32 0, i32 6
  %10 = getelementptr inbounds %struct.GPR, %struct.GPR* %9, i32 0, i32 15
  %11 = getelementptr inbounds %struct.Reg, %struct.Reg* %10, i32 0, i32 0
  %RBP = bitcast %union.anon* %11 to i64*
  %12 = load i64, i64* %RBP
  %13 = sub i64 %12, 56
  %14 = load i64, i64* %PC
  %15 = add i64 %14, 4
  store i64 %15, i64* %PC
  %16 = call %struct.Memory* @_ZN12_GLOBAL__N_1L3MOVI3RnWImE2MnImEEEP6MemoryS6_R5StateT_T0_(%struct.Memory* %2, %struct.State* %0, i64* %RAX, i64 %13)
  ret %struct.Memory* %16
}





















define internal %struct.Memory* @_ZN12_GLOBAL__N_1L5ADDSDI3VnWI8vec128_tE2VnIS2_E3MVnI7vec64_tEEEP6MemorySA_R5StateT_T0_T1_(%struct.Memory* returned, %struct.State* nocapture readnone dereferenceable(3376), i8* nocapture, i8* nocapture readonly, i64) #0 {
  %6 = bitcast i8* %3 to double*
  %7 = load double, double* %6, align 1
  %8 = getelementptr inbounds i8, i8* %3, i64 8
  %9 = bitcast i8* %8 to i64*
  %10 = load i64, i64* %9, align 1
  %11 = inttoptr i64 %4 to double*
  %12 = load double, double* %11
  %13 = fadd double %7, %12
  %14 = bitcast i8* %2 to double*
  store double %13, double* %14, align 1
  %15 = getelementptr inbounds i8, i8* %2, i64 8
  %16 = bitcast i8* %15 to i64*
  store i64 %10, i64* %16, align 1
  ret %struct.Memory* %0
}

define %struct.Memory* @routine_addsd___rax__rcx_8____xmm0(%struct.State*  dereferenceable(3376), i64, %struct.Memory* ) #19 {
block_400488:
  %3 = getelementptr inbounds %struct.State, %struct.State* %0, i32 0, i32 6
  %4 = getelementptr inbounds %struct.GPR, %struct.GPR* %3, i32 0, i32 33
  %5 = getelementptr inbounds %struct.Reg, %struct.Reg* %4, i32 0, i32 0
  %PC = bitcast %union.anon* %5 to i64*
  %6 = getelementptr inbounds %struct.State, %struct.State* %0, i32 0, i32 6
  %7 = getelementptr inbounds %struct.GPR, %struct.GPR* %6, i32 0, i32 1
  %8 = getelementptr inbounds %struct.Reg, %struct.Reg* %7, i32 0, i32 0
  %RAX = bitcast %union.anon* %8 to i64*
  %9 = getelementptr inbounds %struct.State, %struct.State* %0, i32 0, i32 6
  %10 = getelementptr inbounds %struct.GPR, %struct.GPR* %9, i32 0, i32 5
  %11 = getelementptr inbounds %struct.Reg, %struct.Reg* %10, i32 0, i32 0
  %RCX = bitcast %union.anon* %11 to i64*
  %12 = getelementptr inbounds %struct.State, %struct.State* %0, i32 0, i32 1
  %13 = getelementptr inbounds [32 x %union.VectorReg], [32 x %union.VectorReg]* %12, i64 0, i64 0
  %YMM0 = bitcast %union.VectorReg* %13 to %"class.std::bitset"*
  %14 = bitcast %"class.std::bitset"* %YMM0 to i8*
  %15 = bitcast %"class.std::bitset"* %YMM0 to i8*
  %16 = load i64, i64* %RAX
  %17 = load i64, i64* %RCX
  %18 = mul i64 %17, 8
  %19 = add i64 %18, %16
  %20 = load i64, i64* %PC
  %21 = add i64 %20, 5
  store i64 %21, i64* %PC
  %22 = call %struct.Memory* @_ZN12_GLOBAL__N_1L5ADDSDI3VnWI8vec128_tE2VnIS2_E3MVnI7vec64_tEEEP6MemorySA_R5StateT_T0_T1_(%struct.Memory* %2, %struct.State* %0, i8* %14, i8* %15, i64 %19)
  ret %struct.Memory* %22
}





define internal %struct.Memory* @_ZN12_GLOBAL__N_1L3ADDI3RnWImE2RnIjE2InIjEEEP6MemoryS8_R5StateT_T0_T1_(%struct.Memory* readnone returned, %struct.State* nocapture dereferenceable(3376), i64* nocapture, i64, i64) #0 {
  %6 = trunc i64 %3 to i32
  %7 = trunc i64 %4 to i32
  %8 = add i32 %7, %6
  %9 = zext i32 %8 to i64
  store i64 %9, i64* %2, align 8
  %10 = icmp ult i32 %8, %6
  %11 = icmp ult i32 %8, %7
  %12 = or i1 %10, %11
  %13 = zext i1 %12 to i8
  %14 = getelementptr inbounds %struct.State, %struct.State* %1, i64 0, i32 2, i32 1
  store i8 %13, i8* %14, align 1
  %15 = and i32 %8, 255
  %16 = tail call i32 @llvm.ctpop.i32(i32 %15) #22
  %17 = trunc i32 %16 to i8
  %18 = and i8 %17, 1
  %19 = xor i8 %18, 1
  %20 = getelementptr inbounds %struct.State, %struct.State* %1, i64 0, i32 2, i32 3
  store i8 %19, i8* %20, align 1
  %21 = xor i64 %4, %3
  %22 = trunc i64 %21 to i32
  %23 = xor i32 %22, %8
  %24 = lshr i32 %23, 4
  %25 = trunc i32 %24 to i8
  %26 = and i8 %25, 1
  %27 = getelementptr inbounds %struct.State, %struct.State* %1, i64 0, i32 2, i32 5
  store i8 %26, i8* %27, align 1
  %28 = icmp eq i32 %8, 0
  %29 = zext i1 %28 to i8
  %30 = getelementptr inbounds %struct.State, %struct.State* %1, i64 0, i32 2, i32 7
  store i8 %29, i8* %30, align 1
  %31 = lshr i32 %8, 31
  %32 = trunc i32 %31 to i8
  %33 = getelementptr inbounds %struct.State, %struct.State* %1, i64 0, i32 2, i32 9
  store i8 %32, i8* %33, align 1
  %34 = lshr i32 %6, 31
  %35 = lshr i32 %7, 31
  %36 = xor i32 %31, %34
  %37 = xor i32 %31, %35
  %38 = add   i32 %36, %37
  %39 = icmp eq i32 %38, 2
  %40 = zext i1 %39 to i8
  %41 = getelementptr inbounds %struct.State, %struct.State* %1, i64 0, i32 2, i32 13
  store i8 %40, i8* %41, align 1
  ret %struct.Memory* %0
}

define %struct.Memory* @routine_addl__0x1___eax(%struct.State*  dereferenceable(3376), i64, %struct.Memory* ) #19 {
block_400488:
  %3 = getelementptr inbounds %struct.State, %struct.State* %0, i32 0, i32 6
  %4 = getelementptr inbounds %struct.GPR, %struct.GPR* %3, i32 0, i32 33
  %5 = getelementptr inbounds %struct.Reg, %struct.Reg* %4, i32 0, i32 0
  %PC = bitcast %union.anon* %5 to i64*
  %6 = getelementptr inbounds %struct.State, %struct.State* %0, i32 0, i32 6
  %7 = getelementptr inbounds %struct.GPR, %struct.GPR* %6, i32 0, i32 1
  %8 = getelementptr inbounds %struct.Reg, %struct.Reg* %7, i32 0, i32 0
  %RAX = bitcast %union.anon* %8 to i64*
  %9 = load i64, i64* %RAX
  %10 = load i64, i64* %PC
  %11 = add i64 %10, 3
  store i64 %11, i64* %PC
  %12 = call %struct.Memory* @_ZN12_GLOBAL__N_1L3ADDI3RnWImE2RnIjE2InIjEEEP6MemoryS8_R5StateT_T0_T1_(%struct.Memory* %2, %struct.State* %0, i64* %RAX, i64 %9, i64 1)
  ret %struct.Memory* %12
}


define %struct.Memory* @routine_movl__eax__MINUS0x54__rbp_(%struct.State*  dereferenceable(3376), i64, %struct.Memory* ) #19 {
block_400488:
  %3 = getelementptr inbounds %struct.State, %struct.State* %0, i32 0, i32 6
  %4 = getelementptr inbounds %struct.GPR, %struct.GPR* %3, i32 0, i32 33
  %5 = getelementptr inbounds %struct.Reg, %struct.Reg* %4, i32 0, i32 0
  %PC = bitcast %union.anon* %5 to i64*
  %6 = getelementptr inbounds %struct.State, %struct.State* %0, i32 0, i32 6
  %7 = getelementptr inbounds %struct.GPR, %struct.GPR* %6, i32 0, i32 1
  %8 = getelementptr inbounds %struct.Reg, %struct.Reg* %7, i32 0, i32 0
  %EAX = bitcast %union.anon* %8 to i32*
  %9 = getelementptr inbounds %struct.State, %struct.State* %0, i32 0, i32 6
  %10 = getelementptr inbounds %struct.GPR, %struct.GPR* %9, i32 0, i32 15
  %11 = getelementptr inbounds %struct.Reg, %struct.Reg* %10, i32 0, i32 0
  %RBP = bitcast %union.anon* %11 to i64*
  %12 = load i64, i64* %RBP
  %13 = sub i64 %12, 84
  %14 = load i32, i32* %EAX
  %15 = zext i32 %14 to i64
  %16 = load i64, i64* %PC
  %17 = add i64 %16, 3
  store i64 %17, i64* %PC
  %18 = call %struct.Memory* @_ZN12_GLOBAL__N_1L3MOVI3MnWIjE2RnIjEEEP6MemoryS6_R5StateT_T0_(%struct.Memory* %2, %struct.State* %0, i64 %13, i64 %15)
  ret %struct.Memory* %18
}

define internal %struct.Memory* @_ZN12_GLOBAL__N_1L3JMPI2InImEEEP6MemoryS4_R5StateT_(%struct.Memory* readnone returned, %struct.State* nocapture dereferenceable(3376), i64) #2 {
  %4 = getelementptr inbounds %struct.State, %struct.State* %1, i64 0, i32 6, i32 33, i32 0, i32 0
  store i64 %2, i64* %4, align 8
  ret %struct.Memory* %0
}

define %struct.Memory* @routine_jmpq_.L_401052(%struct.State*  dereferenceable(3376), i64, %struct.Memory*, i64 %rel_off1, i64 %rel_off2) {
block_400488:
  %3 = getelementptr inbounds %struct.State, %struct.State* %0, i32 0, i32 6
  %4 = getelementptr inbounds %struct.GPR, %struct.GPR* %3, i32 0, i32 33
  %5 = getelementptr inbounds %struct.Reg, %struct.Reg* %4, i32 0, i32 0
  %PC = bitcast %union.anon* %5 to i64*
  %6 = load i64, i64* %PC
  %7 = add i64 %6, %rel_off1
  %8 = load i64, i64* %PC
  %9 = add i64 %8, %rel_off2
  store i64 %9, i64* %PC
  %10 = call %struct.Memory* @_ZN12_GLOBAL__N_1L3JMPI2InImEEEP6MemoryS4_R5StateT_(%struct.Memory* %2, %struct.State* %0, i64 %7)
  ret %struct.Memory* %10
}


define %struct.Memory* @routine_jmpq_.L_4010c3(%struct.State*  dereferenceable(3376), i64, %struct.Memory*, i64 %rel_off1, i64 %rel_off2) {
block_400488:
  %3 = getelementptr inbounds %struct.State, %struct.State* %0, i32 0, i32 6
  %4 = getelementptr inbounds %struct.GPR, %struct.GPR* %3, i32 0, i32 33
  %5 = getelementptr inbounds %struct.Reg, %struct.Reg* %4, i32 0, i32 0
  %PC = bitcast %union.anon* %5 to i64*
  %6 = load i64, i64* %PC
  %7 = add i64 %6, %rel_off1
  %8 = load i64, i64* %PC
  %9 = add i64 %8, %rel_off2
  store i64 %9, i64* %PC
  %10 = call %struct.Memory* @_ZN12_GLOBAL__N_1L3JMPI2InImEEEP6MemoryS4_R5StateT_(%struct.Memory* %2, %struct.State* %0, i64 %7)
  ret %struct.Memory* %10
}






define %struct.Memory* @routine_movl__eax__MINUS0x50__rbp_(%struct.State*  dereferenceable(3376), i64, %struct.Memory* ) #19 {
block_400488:
  %3 = getelementptr inbounds %struct.State, %struct.State* %0, i32 0, i32 6
  %4 = getelementptr inbounds %struct.GPR, %struct.GPR* %3, i32 0, i32 33
  %5 = getelementptr inbounds %struct.Reg, %struct.Reg* %4, i32 0, i32 0
  %PC = bitcast %union.anon* %5 to i64*
  %6 = getelementptr inbounds %struct.State, %struct.State* %0, i32 0, i32 6
  %7 = getelementptr inbounds %struct.GPR, %struct.GPR* %6, i32 0, i32 1
  %8 = getelementptr inbounds %struct.Reg, %struct.Reg* %7, i32 0, i32 0
  %EAX = bitcast %union.anon* %8 to i32*
  %9 = getelementptr inbounds %struct.State, %struct.State* %0, i32 0, i32 6
  %10 = getelementptr inbounds %struct.GPR, %struct.GPR* %9, i32 0, i32 15
  %11 = getelementptr inbounds %struct.Reg, %struct.Reg* %10, i32 0, i32 0
  %RBP = bitcast %union.anon* %11 to i64*
  %12 = load i64, i64* %RBP
  %13 = sub i64 %12, 80
  %14 = load i32, i32* %EAX
  %15 = zext i32 %14 to i64
  %16 = load i64, i64* %PC
  %17 = add i64 %16, 3
  store i64 %17, i64* %PC
  %18 = call %struct.Memory* @_ZN12_GLOBAL__N_1L3MOVI3MnWIjE2RnIjEEEP6MemoryS6_R5StateT_T0_(%struct.Memory* %2, %struct.State* %0, i64 %13, i64 %15)
  ret %struct.Memory* %18
}


define %struct.Memory* @routine_jmpq_.L_401024(%struct.State*  dereferenceable(3376), i64, %struct.Memory*, i64 %rel_off1, i64 %rel_off2) {
block_400488:
  %3 = getelementptr inbounds %struct.State, %struct.State* %0, i32 0, i32 6
  %4 = getelementptr inbounds %struct.GPR, %struct.GPR* %3, i32 0, i32 33
  %5 = getelementptr inbounds %struct.Reg, %struct.Reg* %4, i32 0, i32 0
  %PC = bitcast %union.anon* %5 to i64*
  %6 = load i64, i64* %PC
  %7 = add i64 %6, %rel_off1
  %8 = load i64, i64* %PC
  %9 = add i64 %8, %rel_off2
  store i64 %9, i64* %PC
  %10 = call %struct.Memory* @_ZN12_GLOBAL__N_1L3JMPI2InImEEEP6MemoryS4_R5StateT_(%struct.Memory* %2, %struct.State* %0, i64 %7)
  ret %struct.Memory* %10
}


define %struct.Memory* @routine_jmpq_.L_4010d6(%struct.State*  dereferenceable(3376), i64, %struct.Memory*, i64 %rel_off1, i64 %rel_off2) {
block_400488:
  %3 = getelementptr inbounds %struct.State, %struct.State* %0, i32 0, i32 6
  %4 = getelementptr inbounds %struct.GPR, %struct.GPR* %3, i32 0, i32 33
  %5 = getelementptr inbounds %struct.Reg, %struct.Reg* %4, i32 0, i32 0
  %PC = bitcast %union.anon* %5 to i64*
  %6 = load i64, i64* %PC
  %7 = add i64 %6, %rel_off1
  %8 = load i64, i64* %PC
  %9 = add i64 %8, %rel_off2
  store i64 %9, i64* %PC
  %10 = call %struct.Memory* @_ZN12_GLOBAL__N_1L3JMPI2InImEEEP6MemoryS4_R5StateT_(%struct.Memory* %2, %struct.State* %0, i64 %7)
  ret %struct.Memory* %10
}






define %struct.Memory* @routine_movl__eax__MINUS0x4c__rbp_(%struct.State*  dereferenceable(3376), i64, %struct.Memory* ) #19 {
block_400488:
  %3 = getelementptr inbounds %struct.State, %struct.State* %0, i32 0, i32 6
  %4 = getelementptr inbounds %struct.GPR, %struct.GPR* %3, i32 0, i32 33
  %5 = getelementptr inbounds %struct.Reg, %struct.Reg* %4, i32 0, i32 0
  %PC = bitcast %union.anon* %5 to i64*
  %6 = getelementptr inbounds %struct.State, %struct.State* %0, i32 0, i32 6
  %7 = getelementptr inbounds %struct.GPR, %struct.GPR* %6, i32 0, i32 1
  %8 = getelementptr inbounds %struct.Reg, %struct.Reg* %7, i32 0, i32 0
  %EAX = bitcast %union.anon* %8 to i32*
  %9 = getelementptr inbounds %struct.State, %struct.State* %0, i32 0, i32 6
  %10 = getelementptr inbounds %struct.GPR, %struct.GPR* %9, i32 0, i32 15
  %11 = getelementptr inbounds %struct.Reg, %struct.Reg* %10, i32 0, i32 0
  %RBP = bitcast %union.anon* %11 to i64*
  %12 = load i64, i64* %RBP
  %13 = sub i64 %12, 76
  %14 = load i32, i32* %EAX
  %15 = zext i32 %14 to i64
  %16 = load i64, i64* %PC
  %17 = add i64 %16, 3
  store i64 %17, i64* %PC
  %18 = call %struct.Memory* @_ZN12_GLOBAL__N_1L3MOVI3MnWIjE2RnIjEEEP6MemoryS6_R5StateT_T0_(%struct.Memory* %2, %struct.State* %0, i64 %13, i64 %15)
  ret %struct.Memory* %18
}


define %struct.Memory* @routine_jmpq_.L_401011(%struct.State*  dereferenceable(3376), i64, %struct.Memory*, i64 %rel_off1, i64 %rel_off2) {
block_400488:
  %3 = getelementptr inbounds %struct.State, %struct.State* %0, i32 0, i32 6
  %4 = getelementptr inbounds %struct.GPR, %struct.GPR* %3, i32 0, i32 33
  %5 = getelementptr inbounds %struct.Reg, %struct.Reg* %4, i32 0, i32 0
  %PC = bitcast %union.anon* %5 to i64*
  %6 = load i64, i64* %PC
  %7 = add i64 %6, %rel_off1
  %8 = load i64, i64* %PC
  %9 = add i64 %8, %rel_off2
  store i64 %9, i64* %PC
  %10 = call %struct.Memory* @_ZN12_GLOBAL__N_1L3JMPI2InImEEEP6MemoryS4_R5StateT_(%struct.Memory* %2, %struct.State* %0, i64 %7)
  ret %struct.Memory* %10
}








define %struct.Memory* @routine_jge_.L_4011c0(%struct.State*  dereferenceable(3376), i64, %struct.Memory*, i8* %BRANCH_TAKEN, i64 %rel_off1, i64 %rel_off2, i64 %rel_off3) {
block_400488:
  %3 = getelementptr inbounds %struct.State, %struct.State* %0, i32 0, i32 6
  %4 = getelementptr inbounds %struct.GPR, %struct.GPR* %3, i32 0, i32 33
  %5 = getelementptr inbounds %struct.Reg, %struct.Reg* %4, i32 0, i32 0
  %PC = bitcast %union.anon* %5 to i64*
  %6 = load i64, i64* %PC
  %7 = add i64 %6, %rel_off1
  %8 = load i64, i64* %PC
  %9 = add i64 %8, %rel_off2
  %10 = load i64, i64* %PC
  %11 = add i64 %10, %rel_off3
  store i64 %11, i64* %PC
  %12 = call %struct.Memory* @_ZN12_GLOBAL__N_1L3JNLEP6MemoryR5State3RnWIhE2InImES7_(%struct.Memory* %2, %struct.State* %0, i8* %BRANCH_TAKEN, i64 %7, i64 %9)
  ret %struct.Memory* %12
}






define %struct.Memory* @routine_cmpl_MINUS0x10__rbp____eax(%struct.State*  dereferenceable(3376), i64, %struct.Memory* ) #19 {
block_400488:
  %3 = getelementptr inbounds %struct.State, %struct.State* %0, i32 0, i32 6
  %4 = getelementptr inbounds %struct.GPR, %struct.GPR* %3, i32 0, i32 33
  %5 = getelementptr inbounds %struct.Reg, %struct.Reg* %4, i32 0, i32 0
  %PC = bitcast %union.anon* %5 to i64*
  %6 = getelementptr inbounds %struct.State, %struct.State* %0, i32 0, i32 6
  %7 = getelementptr inbounds %struct.GPR, %struct.GPR* %6, i32 0, i32 1
  %8 = getelementptr inbounds %struct.Reg, %struct.Reg* %7, i32 0, i32 0
  %EAX = bitcast %union.anon* %8 to i32*
  %9 = getelementptr inbounds %struct.State, %struct.State* %0, i32 0, i32 6
  %10 = getelementptr inbounds %struct.GPR, %struct.GPR* %9, i32 0, i32 15
  %11 = getelementptr inbounds %struct.Reg, %struct.Reg* %10, i32 0, i32 0
  %RBP = bitcast %union.anon* %11 to i64*
  %12 = load i32, i32* %EAX
  %13 = zext i32 %12 to i64
  %14 = load i64, i64* %RBP
  %15 = sub i64 %14, 16
  %16 = load i64, i64* %PC
  %17 = add i64 %16, 3
  store i64 %17, i64* %PC
  %18 = call %struct.Memory* @_ZN12_GLOBAL__N_1L3CMPI2RnIjE2MnIjEEEP6MemoryS6_R5StateT_T0_(%struct.Memory* %2, %struct.State* %0, i64 %13, i64 %15)
  ret %struct.Memory* %18
}


define %struct.Memory* @routine_jge_.L_4011ad(%struct.State*  dereferenceable(3376), i64, %struct.Memory*, i8* %BRANCH_TAKEN, i64 %rel_off1, i64 %rel_off2, i64 %rel_off3) {
block_400488:
  %3 = getelementptr inbounds %struct.State, %struct.State* %0, i32 0, i32 6
  %4 = getelementptr inbounds %struct.GPR, %struct.GPR* %3, i32 0, i32 33
  %5 = getelementptr inbounds %struct.Reg, %struct.Reg* %4, i32 0, i32 0
  %PC = bitcast %union.anon* %5 to i64*
  %6 = load i64, i64* %PC
  %7 = add i64 %6, %rel_off1
  %8 = load i64, i64* %PC
  %9 = add i64 %8, %rel_off2
  %10 = load i64, i64* %PC
  %11 = add i64 %10, %rel_off3
  store i64 %11, i64* %PC
  %12 = call %struct.Memory* @_ZN12_GLOBAL__N_1L3JNLEP6MemoryR5State3RnWIhE2InImES7_(%struct.Memory* %2, %struct.State* %0, i8* %BRANCH_TAKEN, i64 %7, i64 %9)
  ret %struct.Memory* %12
}


define %struct.Memory* @routine_movsd_MINUS0x20__rbp____xmm0(%struct.State*  dereferenceable(3376), i64, %struct.Memory* ) #19 {
block_400488:
  %3 = getelementptr inbounds %struct.State, %struct.State* %0, i32 0, i32 6
  %4 = getelementptr inbounds %struct.GPR, %struct.GPR* %3, i32 0, i32 33
  %5 = getelementptr inbounds %struct.Reg, %struct.Reg* %4, i32 0, i32 0
  %PC = bitcast %union.anon* %5 to i64*
  %6 = getelementptr inbounds %struct.State, %struct.State* %0, i32 0, i32 6
  %7 = getelementptr inbounds %struct.GPR, %struct.GPR* %6, i32 0, i32 15
  %8 = getelementptr inbounds %struct.Reg, %struct.Reg* %7, i32 0, i32 0
  %RBP = bitcast %union.anon* %8 to i64*
  %9 = getelementptr inbounds %struct.State, %struct.State* %0, i32 0, i32 1
  %10 = getelementptr inbounds [32 x %union.VectorReg], [32 x %union.VectorReg]* %9, i64 0, i64 0
  %YMM0 = bitcast %union.VectorReg* %10 to %"class.std::bitset"*
  %11 = bitcast %"class.std::bitset"* %YMM0 to i8*
  %12 = load i64, i64* %RBP
  %13 = sub i64 %12, 32
  %14 = load i64, i64* %PC
  %15 = add i64 %14, 5
  store i64 %15, i64* %PC
  %16 = call %struct.Memory* @_ZN12_GLOBAL__N_1L9MOVSD_MEMI3VnWI8vec128_tE3MVnI7vec64_tEEEP6MemoryS8_R5StateT_T0_(%struct.Memory* %2, %struct.State* %0, i8* %11, i64 %13)
  ret %struct.Memory* %16
}


define %struct.Memory* @routine_movq_MINUS0x48__rbp____rax(%struct.State*  dereferenceable(3376), i64, %struct.Memory* ) #19 {
block_400488:
  %3 = getelementptr inbounds %struct.State, %struct.State* %0, i32 0, i32 6
  %4 = getelementptr inbounds %struct.GPR, %struct.GPR* %3, i32 0, i32 33
  %5 = getelementptr inbounds %struct.Reg, %struct.Reg* %4, i32 0, i32 0
  %PC = bitcast %union.anon* %5 to i64*
  %6 = getelementptr inbounds %struct.State, %struct.State* %0, i32 0, i32 6
  %7 = getelementptr inbounds %struct.GPR, %struct.GPR* %6, i32 0, i32 1
  %8 = getelementptr inbounds %struct.Reg, %struct.Reg* %7, i32 0, i32 0
  %RAX = bitcast %union.anon* %8 to i64*
  %9 = getelementptr inbounds %struct.State, %struct.State* %0, i32 0, i32 6
  %10 = getelementptr inbounds %struct.GPR, %struct.GPR* %9, i32 0, i32 15
  %11 = getelementptr inbounds %struct.Reg, %struct.Reg* %10, i32 0, i32 0
  %RBP = bitcast %union.anon* %11 to i64*
  %12 = load i64, i64* %RBP
  %13 = sub i64 %12, 72
  %14 = load i64, i64* %PC
  %15 = add i64 %14, 4
  store i64 %15, i64* %PC
  %16 = call %struct.Memory* @_ZN12_GLOBAL__N_1L3MOVI3RnWImE2MnImEEEP6MemoryS6_R5StateT_T0_(%struct.Memory* %2, %struct.State* %0, i64* %RAX, i64 %13)
  ret %struct.Memory* %16
}




















define %struct.Memory* @routine_jge_.L_40119a(%struct.State*  dereferenceable(3376), i64, %struct.Memory*, i8* %BRANCH_TAKEN, i64 %rel_off1, i64 %rel_off2, i64 %rel_off3) {
block_400488:
  %3 = getelementptr inbounds %struct.State, %struct.State* %0, i32 0, i32 6
  %4 = getelementptr inbounds %struct.GPR, %struct.GPR* %3, i32 0, i32 33
  %5 = getelementptr inbounds %struct.Reg, %struct.Reg* %4, i32 0, i32 0
  %PC = bitcast %union.anon* %5 to i64*
  %6 = load i64, i64* %PC
  %7 = add i64 %6, %rel_off1
  %8 = load i64, i64* %PC
  %9 = add i64 %8, %rel_off2
  %10 = load i64, i64* %PC
  %11 = add i64 %10, %rel_off3
  store i64 %11, i64* %PC
  %12 = call %struct.Memory* @_ZN12_GLOBAL__N_1L3JNLEP6MemoryR5State3RnWIhE2InImES7_(%struct.Memory* %2, %struct.State* %0, i8* %BRANCH_TAKEN, i64 %7, i64 %9)
  ret %struct.Memory* %12
}












define %struct.Memory* @routine_movsd___rax__rcx_8____xmm0(%struct.State*  dereferenceable(3376), i64, %struct.Memory* ) #19 {
block_400488:
  %3 = getelementptr inbounds %struct.State, %struct.State* %0, i32 0, i32 6
  %4 = getelementptr inbounds %struct.GPR, %struct.GPR* %3, i32 0, i32 33
  %5 = getelementptr inbounds %struct.Reg, %struct.Reg* %4, i32 0, i32 0
  %PC = bitcast %union.anon* %5 to i64*
  %6 = getelementptr inbounds %struct.State, %struct.State* %0, i32 0, i32 6
  %7 = getelementptr inbounds %struct.GPR, %struct.GPR* %6, i32 0, i32 1
  %8 = getelementptr inbounds %struct.Reg, %struct.Reg* %7, i32 0, i32 0
  %RAX = bitcast %union.anon* %8 to i64*
  %9 = getelementptr inbounds %struct.State, %struct.State* %0, i32 0, i32 6
  %10 = getelementptr inbounds %struct.GPR, %struct.GPR* %9, i32 0, i32 5
  %11 = getelementptr inbounds %struct.Reg, %struct.Reg* %10, i32 0, i32 0
  %RCX = bitcast %union.anon* %11 to i64*
  %12 = getelementptr inbounds %struct.State, %struct.State* %0, i32 0, i32 1
  %13 = getelementptr inbounds [32 x %union.VectorReg], [32 x %union.VectorReg]* %12, i64 0, i64 0
  %YMM0 = bitcast %union.VectorReg* %13 to %"class.std::bitset"*
  %14 = bitcast %"class.std::bitset"* %YMM0 to i8*
  %15 = load i64, i64* %RAX
  %16 = load i64, i64* %RCX
  %17 = mul i64 %16, 8
  %18 = add i64 %17, %15
  %19 = load i64, i64* %PC
  %20 = add i64 %19, 5
  store i64 %20, i64* %PC
  %21 = call %struct.Memory* @_ZN12_GLOBAL__N_1L9MOVSD_MEMI3VnWI8vec128_tE3MVnI7vec64_tEEEP6MemoryS8_R5StateT_T0_(%struct.Memory* %2, %struct.State* %0, i8* %14, i64 %18)
  ret %struct.Memory* %21
}


define %struct.Memory* @routine_movq_MINUS0x40__rbp____rax(%struct.State*  dereferenceable(3376), i64, %struct.Memory* ) #19 {
block_400488:
  %3 = getelementptr inbounds %struct.State, %struct.State* %0, i32 0, i32 6
  %4 = getelementptr inbounds %struct.GPR, %struct.GPR* %3, i32 0, i32 33
  %5 = getelementptr inbounds %struct.Reg, %struct.Reg* %4, i32 0, i32 0
  %PC = bitcast %union.anon* %5 to i64*
  %6 = getelementptr inbounds %struct.State, %struct.State* %0, i32 0, i32 6
  %7 = getelementptr inbounds %struct.GPR, %struct.GPR* %6, i32 0, i32 1
  %8 = getelementptr inbounds %struct.Reg, %struct.Reg* %7, i32 0, i32 0
  %RAX = bitcast %union.anon* %8 to i64*
  %9 = getelementptr inbounds %struct.State, %struct.State* %0, i32 0, i32 6
  %10 = getelementptr inbounds %struct.GPR, %struct.GPR* %9, i32 0, i32 15
  %11 = getelementptr inbounds %struct.Reg, %struct.Reg* %10, i32 0, i32 0
  %RBP = bitcast %union.anon* %11 to i64*
  %12 = load i64, i64* %RBP
  %13 = sub i64 %12, 64
  %14 = load i64, i64* %PC
  %15 = add i64 %14, 4
  store i64 %15, i64* %PC
  %16 = call %struct.Memory* @_ZN12_GLOBAL__N_1L3MOVI3RnWImE2MnImEEEP6MemoryS6_R5StateT_T0_(%struct.Memory* %2, %struct.State* %0, i64* %RAX, i64 %13)
  ret %struct.Memory* %16
}
































define %struct.Memory* @routine_jmpq_.L_401133(%struct.State*  dereferenceable(3376), i64, %struct.Memory*, i64 %rel_off1, i64 %rel_off2) {
block_400488:
  %3 = getelementptr inbounds %struct.State, %struct.State* %0, i32 0, i32 6
  %4 = getelementptr inbounds %struct.GPR, %struct.GPR* %3, i32 0, i32 33
  %5 = getelementptr inbounds %struct.Reg, %struct.Reg* %4, i32 0, i32 0
  %PC = bitcast %union.anon* %5 to i64*
  %6 = load i64, i64* %PC
  %7 = add i64 %6, %rel_off1
  %8 = load i64, i64* %PC
  %9 = add i64 %8, %rel_off2
  store i64 %9, i64* %PC
  %10 = call %struct.Memory* @_ZN12_GLOBAL__N_1L3JMPI2InImEEEP6MemoryS4_R5StateT_(%struct.Memory* %2, %struct.State* %0, i64 %7)
  ret %struct.Memory* %10
}


define %struct.Memory* @routine_jmpq_.L_40119f(%struct.State*  dereferenceable(3376), i64, %struct.Memory*, i64 %rel_off1, i64 %rel_off2) {
block_400488:
  %3 = getelementptr inbounds %struct.State, %struct.State* %0, i32 0, i32 6
  %4 = getelementptr inbounds %struct.GPR, %struct.GPR* %3, i32 0, i32 33
  %5 = getelementptr inbounds %struct.Reg, %struct.Reg* %4, i32 0, i32 0
  %PC = bitcast %union.anon* %5 to i64*
  %6 = load i64, i64* %PC
  %7 = add i64 %6, %rel_off1
  %8 = load i64, i64* %PC
  %9 = add i64 %8, %rel_off2
  store i64 %9, i64* %PC
  %10 = call %struct.Memory* @_ZN12_GLOBAL__N_1L3JMPI2InImEEEP6MemoryS4_R5StateT_(%struct.Memory* %2, %struct.State* %0, i64 %7)
  ret %struct.Memory* %10
}








define %struct.Memory* @routine_jmpq_.L_4010fe(%struct.State*  dereferenceable(3376), i64, %struct.Memory*, i64 %rel_off1, i64 %rel_off2) {
block_400488:
  %3 = getelementptr inbounds %struct.State, %struct.State* %0, i32 0, i32 6
  %4 = getelementptr inbounds %struct.GPR, %struct.GPR* %3, i32 0, i32 33
  %5 = getelementptr inbounds %struct.Reg, %struct.Reg* %4, i32 0, i32 0
  %PC = bitcast %union.anon* %5 to i64*
  %6 = load i64, i64* %PC
  %7 = add i64 %6, %rel_off1
  %8 = load i64, i64* %PC
  %9 = add i64 %8, %rel_off2
  store i64 %9, i64* %PC
  %10 = call %struct.Memory* @_ZN12_GLOBAL__N_1L3JMPI2InImEEEP6MemoryS4_R5StateT_(%struct.Memory* %2, %struct.State* %0, i64 %7)
  ret %struct.Memory* %10
}


define %struct.Memory* @routine_jmpq_.L_4011b2(%struct.State*  dereferenceable(3376), i64, %struct.Memory*, i64 %rel_off1, i64 %rel_off2) {
block_400488:
  %3 = getelementptr inbounds %struct.State, %struct.State* %0, i32 0, i32 6
  %4 = getelementptr inbounds %struct.GPR, %struct.GPR* %3, i32 0, i32 33
  %5 = getelementptr inbounds %struct.Reg, %struct.Reg* %4, i32 0, i32 0
  %PC = bitcast %union.anon* %5 to i64*
  %6 = load i64, i64* %PC
  %7 = add i64 %6, %rel_off1
  %8 = load i64, i64* %PC
  %9 = add i64 %8, %rel_off2
  store i64 %9, i64* %PC
  %10 = call %struct.Memory* @_ZN12_GLOBAL__N_1L3JMPI2InImEEEP6MemoryS4_R5StateT_(%struct.Memory* %2, %struct.State* %0, i64 %7)
  ret %struct.Memory* %10
}








define %struct.Memory* @routine_jmpq_.L_4010eb(%struct.State*  dereferenceable(3376), i64, %struct.Memory*, i64 %rel_off1, i64 %rel_off2) {
block_400488:
  %3 = getelementptr inbounds %struct.State, %struct.State* %0, i32 0, i32 6
  %4 = getelementptr inbounds %struct.GPR, %struct.GPR* %3, i32 0, i32 33
  %5 = getelementptr inbounds %struct.Reg, %struct.Reg* %4, i32 0, i32 0
  %PC = bitcast %union.anon* %5 to i64*
  %6 = load i64, i64* %PC
  %7 = add i64 %6, %rel_off1
  %8 = load i64, i64* %PC
  %9 = add i64 %8, %rel_off2
  store i64 %9, i64* %PC
  %10 = call %struct.Memory* @_ZN12_GLOBAL__N_1L3JMPI2InImEEEP6MemoryS4_R5StateT_(%struct.Memory* %2, %struct.State* %0, i64 %7)
  ret %struct.Memory* %10
}

define internal %struct.Memory* @_ZN12_GLOBAL__N_1L3POPI3RnWImEEEP6MemoryS4_R5StateT_(%struct.Memory*, %struct.State* nocapture dereferenceable(3376), i64* nocapture) #0 {
  %4 = getelementptr inbounds %struct.State, %struct.State* %1, i64 0, i32 6, i32 13, i32 0, i32 0
  %5 = load i64, i64* %4, align 8
  %6 = add i64 %5, 8
  %7 = inttoptr i64 %5 to i64*
  %8 = load i64, i64* %7
  store i64 %8, i64* %2, align 8
  store i64 %6, i64* %4, align 8
  ret %struct.Memory* %0
}

define %struct.Memory* @routine_popq__rbp(%struct.State*  dereferenceable(3376), i64, %struct.Memory* ) #19 {
block_400488:
  %3 = getelementptr inbounds %struct.State, %struct.State* %0, i32 0, i32 6
  %4 = getelementptr inbounds %struct.GPR, %struct.GPR* %3, i32 0, i32 33
  %5 = getelementptr inbounds %struct.Reg, %struct.Reg* %4, i32 0, i32 0
  %PC = bitcast %union.anon* %5 to i64*
  %6 = getelementptr inbounds %struct.State, %struct.State* %0, i32 0, i32 6
  %7 = getelementptr inbounds %struct.GPR, %struct.GPR* %6, i32 0, i32 15
  %8 = getelementptr inbounds %struct.Reg, %struct.Reg* %7, i32 0, i32 0
  %RBP = bitcast %union.anon* %8 to i64*
  %9 = load i64, i64* %PC
  %10 = add i64 %9, 1
  store i64 %10, i64* %PC
  %11 = call %struct.Memory* @_ZN12_GLOBAL__N_1L3POPI3RnWImEEEP6MemoryS4_R5StateT_(%struct.Memory* %2, %struct.State* %0, i64* %RBP)
  ret %struct.Memory* %11
}

define internal %struct.Memory* @_ZN12_GLOBAL__N_1L3RETEP6MemoryR5State(%struct.Memory* returned, %struct.State* nocapture dereferenceable(3376)) #0 {
  %3 = getelementptr inbounds %struct.State, %struct.State* %1, i64 0, i32 6, i32 33, i32 0, i32 0
  %4 = getelementptr inbounds %struct.State, %struct.State* %1, i64 0, i32 6, i32 13, i32 0, i32 0
  %5 = load i64, i64* %4, align 8
  %6 = inttoptr i64 %5 to i64*
  %7 = load i64, i64* %6
  store i64 %7, i64* %3, align 8
  %8 = add i64 %5, 8
  store i64 %8, i64* %4, align 8
  ret %struct.Memory* %0
}

define %struct.Memory* @routine_retq(%struct.State*  dereferenceable(3376), i64, %struct.Memory* ) #19 {
block_400488:
  %3 = getelementptr inbounds %struct.State, %struct.State* %0, i32 0, i32 6
  %4 = getelementptr inbounds %struct.GPR, %struct.GPR* %3, i32 0, i32 33
  %5 = getelementptr inbounds %struct.Reg, %struct.Reg* %4, i32 0, i32 0
  %PC = bitcast %union.anon* %5 to i64*
  %6 = load i64, i64* %PC
  %7 = add i64 %6, 1
  store i64 %7, i64* %PC
  %8 = call %struct.Memory* @_ZN12_GLOBAL__N_1L3RETEP6MemoryR5State(%struct.Memory* %2, %struct.State* %0)
  ret %struct.Memory* %8
}

