; ModuleID = 'mcsema/test.proposed.ll'
source_filename = "llvm-link"
target datalayout = "e-m:e-i64:64-f80:128-n8:16:32:64-S128"
target triple = "x86_64-pc-linux-gnu-elf"

%union.anon = type { i64 }
%seg_400388__init_type = type <{ [23 x i8] }>
%seg_4003a0__text_type = type <{ [354 x i8] }>
%seg_400504__fini_type = type <{ [9 x i8] }>
%seg_400510__rodata_type = type <{ [4 x i8] }>
%seg_400514__eh_frame_hdr_type = type <{ [52 x i8] }>
%seg_400548__eh_frame_type = type <{ [208 x i8] }>
%seg_601018__data_type = type <{ [16 x i8] }>
%__bss_start_type = type <{ [8 x i8] }>
%struct.State = type { %struct.ArchState, [32 x %union.VectorReg], %struct.ArithFlags, %union.anon, %struct.Segments, %struct.AddressSpace, %struct.GPR, %struct.X87Stack, %struct.MMX, %struct.FPUStatusFlags, %union.anon, %union.FPU, %struct.SegmentCaches }
%struct.ArchState = type { i32, i32, %union.anon }
%union.VectorReg = type { %union.vec512_t }
%union.vec512_t = type { %struct.uint64v8_t }
%struct.uint64v8_t = type { [8 x i64] }
%struct.ArithFlags = type { i8, i8, i8, i8, i8, i8, i8, i8, i8, i8, i8, i8, i8, i8, i8, i8 }
%struct.Segments = type { i16, %union.SegmentSelector, i16, %union.SegmentSelector, i16, %union.SegmentSelector, i16, %union.SegmentSelector, i16, %union.SegmentSelector, i16, %union.SegmentSelector }
%union.SegmentSelector = type { i16 }
%struct.AddressSpace = type { i64, %struct.Reg, i64, %struct.Reg, i64, %struct.Reg, i64, %struct.Reg, i64, %struct.Reg, i64, %struct.Reg }
%struct.Reg = type { %union.anon }
%struct.GPR = type { i64, %struct.Reg, i64, %struct.Reg, i64, %struct.Reg, i64, %struct.Reg, i64, %struct.Reg, i64, %struct.Reg, i64, %struct.Reg, i64, %struct.Reg, i64, %struct.Reg, i64, %struct.Reg, i64, %struct.Reg, i64, %struct.Reg, i64, %struct.Reg, i64, %struct.Reg, i64, %struct.Reg, i64, %struct.Reg, i64, %struct.Reg }
%struct.X87Stack = type { [8 x %struct.anon.3] }
%struct.anon.3 = type { i64, double }
%struct.MMX = type { [8 x %struct.anon.4] }
%struct.anon.4 = type { i64, %union.vec64_t }
%union.vec64_t = type { %struct.uint64v1_t }
%struct.uint64v1_t = type { [1 x i64] }
%struct.FPUStatusFlags = type { i8, i8, i8, i8, i8, i8, i8, i8, i8, i8, i8, i8, i8, i8, i8, i8, i8, i8, i8, i8, [4 x i8] }
%union.FPU = type { %struct.anon.13 }
%struct.anon.13 = type { %struct.FpuFXSAVE, [96 x i8] }
%struct.FpuFXSAVE = type { %union.SegmentSelector, %union.SegmentSelector, %union.FPUAbridgedTagWord, i8, i16, i32, %union.SegmentSelector, i16, i32, %union.SegmentSelector, i16, %union.FPUControlStatus, %union.FPUControlStatus, [8 x %struct.FPUStackElem], [16 x %union.vec128_t] }
%union.FPUAbridgedTagWord = type { i8 }
%union.FPUControlStatus = type { i32 }
%struct.FPUStackElem = type { %union.anon.11, [6 x i8] }
%union.anon.11 = type { %struct.float80_t }
%struct.float80_t = type { [10 x i8] }
%union.vec128_t = type { %struct.uint128v1_t }
%struct.uint128v1_t = type { [1 x i128] }
%struct.SegmentCaches = type { %struct.SegmentShadow, %struct.SegmentShadow, %struct.SegmentShadow, %struct.SegmentShadow, %struct.SegmentShadow, %struct.SegmentShadow }
%struct.SegmentShadow = type { %union.anon, i32, i32 }
%struct.Memory = type opaque
%"class.std::bitset" = type { %struct.uint64v4_t }
%struct.uint64v4_t = type { [4 x i64] }

@switch.table = private unnamed_addr constant [4 x i32] [i32 2048, i32 3072, i32 0, i32 1024]
@DR0 = external global i64, align 8
@DR1 = external global i64, align 8
@DR2 = external global i64, align 8
@DR3 = external global i64, align 8
@DR4 = external global i64, align 8
@DR5 = external global i64, align 8
@DR6 = external global i64, align 8
@DR7 = external global i64, align 8
@gCR0 = external global %union.anon, align 1
@gCR1 = external global %union.anon, align 1
@gCR2 = external global %union.anon, align 1
@gCR3 = external global %union.anon, align 1
@gCR4 = external global %union.anon, align 1
@gCR8 = external global %union.anon, align 1
@seg_400388__init = internal constant %seg_400388__init_type <{ [23 x i8] c"H\83\EC\08H\8B\05e\0C \00H\85\C0t\02\FF\D0H\83\C4\08\C3" }>
@seg_4003a0__text = internal constant %seg_4003a0__text_type <{ [354 x i8] c"1\EDI\89\D1^H\89\E2H\83\E4\F0PTI\C7\C0\00\05@\00H\C7\C1\90\04@\00H\C7\C7\88\04@\00\FF\15&\0C \00\F4\0F\1FD\00\00\F3\C3f.\0F\1F\84\00\00\00\00\00\0F\1F@\00U\B8(\10`\00H=(\10`\00H\89\E5t\17\B8\00\00\00\00H\85\C0t\0D]\BF(\10`\00\FF\E0\0F\1FD\00\00]\C3f\0F\1FD\00\00\BE(\10`\00UH\81\EE(\10`\00H\89\E5H\C1\FE\03H\89\F0H\C1\E8?H\01\C6H\D1\FEt\15\B8\00\00\00\00H\85\C0t\0B]\BF(\10`\00\FF\E0\0F\1F\00]\C3f\0F\1FD\00\00\80=\D1\0B \00\00u\17UH\89\E5\E8~\FF\FF\FF\C6\05\BF\0B \00\01]\C3\0F\1FD\00\00\F3\C3\0F\1F@\00f.\0F\1F\84\00\00\00\00\00UH\89\E5]\EB\89\90U\C3f\0F\1FD\00\00AWAVI\89\D7AUATL\8D%\9E\09 \00UH\8D-\9E\09 \00SA\89\FDI\89\F6L)\E5H\83\EC\08H\C1\FD\03\E8\C7\FE\FF\FFH\85\EDt 1\DB\0F\1F\84\00\00\00\00\00L\89\FAL\89\F6D\89\EFA\FF\14\DCH\83\C3\01H9\DDu\EAH\83\C4\08[]A\5CA]A^A_\C3\90f.\0F\1F\84\00\00\00\00\00\F3\C3" }>
@seg_400504__fini = internal constant %seg_400504__fini_type <{ [9 x i8] c"H\83\EC\08H\83\C4\08\C3" }>
@seg_400510__rodata = internal constant %seg_400510__rodata_type <{ [4 x i8] c"\01\00\02\00" }>
@seg_400514__eh_frame_hdr = internal constant %seg_400514__eh_frame_hdr_type <{ [52 x i8] c"\01\1B\03;0\00\00\00\05\00\00\00\8C\FE\FF\FFL\00\00\00\BC\FE\FF\FFx\00\00\00t\FF\FF\FF\8C\00\00\00|\FF\FF\FF\A4\00\00\00\EC\FF\FF\FF\EC\00\00\00" }>
@seg_400548__eh_frame = internal constant %seg_400548__eh_frame_type <{ [208 x i8] c"\14\00\00\00\00\00\00\00\01zR\00\01x\10\01\1B\0C\07\08\90\01\07\10\10\00\00\00\1C\00\00\008\FE\FF\FF+\00\00\00\00\00\00\00\14\00\00\00\00\00\00\00\01zR\00\01x\10\01\1B\0C\07\08\90\01\00\00\10\00\00\00\1C\00\00\00<\FE\FF\FF\02\00\00\00\00\00\00\00\14\00\00\000\00\00\00\E0\FE\FF\FF\02\00\00\00\00\00\00\00\00\00\00\00D\00\00\00H\00\00\00\D0\FE\FF\FFe\00\00\00\00B\0E\10\8F\02B\0E\18\8E\03E\0E \8D\04B\0E(\8C\05H\0E0\86\06H\0E8\83\07M\0E@r\0E8A\0E0A\0E(B\0E B\0E\18B\0E\10B\0E\08\00\10\00\00\00\90\00\00\00\F8\FE\FF\FF\02\00\00\00\00\00\00\00\00\00\00\00" }>
@seg_601018__data = internal global %seg_601018__data_type zeroinitializer
@__bss_start = global %__bss_start_type zeroinitializer
@0 = internal global i1 false

; Function Attrs: nounwind readnone
declare i32 @llvm.ctpop.i32(i32) #0

declare %struct.Memory* @__remill_error(%struct.State* dereferenceable(3376), i64, %struct.Memory*)

declare %struct.Memory* @sub_400e00._Z11start_timerv(%struct.State* dereferenceable(3376), i64, %struct.Memory*)

declare %struct.Memory* @sub_401680._ZN15loop_inner_bodyILi30EdE7do_workERdPKdi(%struct.State* dereferenceable(3376), i64, %struct.Memory*)

declare %struct.Memory* @sub_4014b0._Z18complete_hash_funcIdET_S0_(%struct.State* dereferenceable(3376), i64, %struct.Memory*)

declare %struct.Memory* @sub_4014e0._Z9check_sumIdEvT_(%struct.State* dereferenceable(3376), i64, %struct.Memory*)

declare %struct.Memory* @sub_400e20._Z5timerv(%struct.State* dereferenceable(3376), i64, %struct.Memory*)

declare %struct.Memory* @sub_4007c0._Z13record_resultdPKc(%struct.State* dereferenceable(3376), i64, %struct.Memory*)

; Function Attrs: alwaysinline
define %struct.Memory* @_Z29test_while_loop_unroll_factorILi30EdEvPKT0_iPKc(%struct.State* noalias, i64, %struct.Memory* noalias) #1 {
entry:
  %3 = getelementptr inbounds %struct.State, %struct.State* %0, i64 0, i32 6, i32 33, i32 0, i32 0
  store i64 %1, i64* %3, align 8
  %BRANCH_TAKEN = alloca i8, align 1
  store i8 0, i8* %BRANCH_TAKEN, align 1
  %MEMORY = alloca %struct.Memory*, align 8
  store %struct.Memory* %2, %struct.Memory** %MEMORY, align 8
  %loadMem_4076a0 = load %struct.Memory*, %struct.Memory** %MEMORY
  %4 = getelementptr inbounds %struct.State, %struct.State* %0, i32 0, i32 6
  %5 = getelementptr inbounds %struct.GPR, %struct.GPR* %4, i32 0, i32 33
  %6 = getelementptr inbounds %struct.Reg, %struct.Reg* %5, i32 0, i32 0
  %PC.i = bitcast %union.anon* %6 to i64*
  %7 = getelementptr inbounds %struct.State, %struct.State* %0, i32 0, i32 6
  %8 = getelementptr inbounds %struct.GPR, %struct.GPR* %7, i32 0, i32 15
  %9 = getelementptr inbounds %struct.Reg, %struct.Reg* %8, i32 0, i32 0
  %RBP.i = bitcast %union.anon* %9 to i64*
  %10 = load i64, i64* %RBP.i
  %11 = load i64, i64* %PC.i
  %12 = add i64 %11, 1
  store i64 %12, i64* %PC.i
  %13 = getelementptr inbounds %struct.State, %struct.State* %0, i64 0, i32 6, i32 13, i32 0, i32 0
  %14 = load i64, i64* %13, align 8
  %15 = add i64 %14, -8
  %16 = inttoptr i64 %15 to i64*
  store i64 %10, i64* %16
  store i64 %15, i64* %13, align 8
  store %struct.Memory* %loadMem_4076a0, %struct.Memory** %MEMORY
  %loadMem_4076a1 = load %struct.Memory*, %struct.Memory** %MEMORY
  %17 = getelementptr inbounds %struct.State, %struct.State* %0, i32 0, i32 6
  %18 = getelementptr inbounds %struct.GPR, %struct.GPR* %17, i32 0, i32 33
  %19 = getelementptr inbounds %struct.Reg, %struct.Reg* %18, i32 0, i32 0
  %PC.i105 = bitcast %union.anon* %19 to i64*
  %20 = getelementptr inbounds %struct.State, %struct.State* %0, i32 0, i32 6
  %21 = getelementptr inbounds %struct.GPR, %struct.GPR* %20, i32 0, i32 13
  %22 = getelementptr inbounds %struct.Reg, %struct.Reg* %21, i32 0, i32 0
  %RSP.i106 = bitcast %union.anon* %22 to i64*
  %23 = getelementptr inbounds %struct.State, %struct.State* %0, i32 0, i32 6
  %24 = getelementptr inbounds %struct.GPR, %struct.GPR* %23, i32 0, i32 15
  %25 = getelementptr inbounds %struct.Reg, %struct.Reg* %24, i32 0, i32 0
  %RBP.i107 = bitcast %union.anon* %25 to i64*
  %26 = load i64, i64* %RSP.i106
  %27 = load i64, i64* %PC.i105
  %28 = add i64 %27, 3
  store i64 %28, i64* %PC.i105
  store i64 %26, i64* %RBP.i107, align 8
  store %struct.Memory* %loadMem_4076a1, %struct.Memory** %MEMORY
  %loadMem_4076a4 = load %struct.Memory*, %struct.Memory** %MEMORY
  %29 = getelementptr inbounds %struct.State, %struct.State* %0, i32 0, i32 6
  %30 = getelementptr inbounds %struct.GPR, %struct.GPR* %29, i32 0, i32 33
  %31 = getelementptr inbounds %struct.Reg, %struct.Reg* %30, i32 0, i32 0
  %PC.i103 = bitcast %union.anon* %31 to i64*
  %32 = getelementptr inbounds %struct.State, %struct.State* %0, i32 0, i32 6
  %33 = getelementptr inbounds %struct.GPR, %struct.GPR* %32, i32 0, i32 13
  %34 = getelementptr inbounds %struct.Reg, %struct.Reg* %33, i32 0, i32 0
  %RSP.i104 = bitcast %union.anon* %34 to i64*
  %35 = load i64, i64* %RSP.i104
  %36 = load i64, i64* %PC.i103
  %37 = add i64 %36, 4
  store i64 %37, i64* %PC.i103
  %38 = sub i64 %35, 48
  store i64 %38, i64* %RSP.i104, align 8
  %39 = icmp ult i64 %35, 48
  %40 = zext i1 %39 to i8
  %41 = getelementptr inbounds %struct.State, %struct.State* %0, i64 0, i32 2, i32 1
  store i8 %40, i8* %41, align 1
  %42 = trunc i64 %38 to i32
  %43 = and i32 %42, 255
  %44 = call i32 @llvm.ctpop.i32(i32 %43)
  %45 = trunc i32 %44 to i8
  %46 = and i8 %45, 1
  %47 = xor i8 %46, 1
  %48 = getelementptr inbounds %struct.State, %struct.State* %0, i64 0, i32 2, i32 3
  store i8 %47, i8* %48, align 1
  %49 = xor i64 48, %35
  %50 = xor i64 %49, %38
  %51 = lshr i64 %50, 4
  %52 = trunc i64 %51 to i8
  %53 = and i8 %52, 1
  %54 = getelementptr inbounds %struct.State, %struct.State* %0, i64 0, i32 2, i32 5
  store i8 %53, i8* %54, align 1
  %55 = icmp eq i64 %38, 0
  %56 = zext i1 %55 to i8
  %57 = getelementptr inbounds %struct.State, %struct.State* %0, i64 0, i32 2, i32 7
  store i8 %56, i8* %57, align 1
  %58 = lshr i64 %38, 63
  %59 = trunc i64 %58 to i8
  %60 = getelementptr inbounds %struct.State, %struct.State* %0, i64 0, i32 2, i32 9
  store i8 %59, i8* %60, align 1
  %61 = lshr i64 %35, 63
  %62 = xor i64 %58, %61
  %63 = add i64 %62, %61
  %64 = icmp eq i64 %63, 2
  %65 = zext i1 %64 to i8
  %66 = getelementptr inbounds %struct.State, %struct.State* %0, i64 0, i32 2, i32 13
  store i8 %65, i8* %66, align 1
  store %struct.Memory* %loadMem_4076a4, %struct.Memory** %MEMORY
  %loadMem_4076a8 = load %struct.Memory*, %struct.Memory** %MEMORY
  %67 = getelementptr inbounds %struct.State, %struct.State* %0, i32 0, i32 6
  %68 = getelementptr inbounds %struct.GPR, %struct.GPR* %67, i32 0, i32 33
  %69 = getelementptr inbounds %struct.Reg, %struct.Reg* %68, i32 0, i32 0
  %PC.i100 = bitcast %union.anon* %69 to i64*
  %70 = getelementptr inbounds %struct.State, %struct.State* %0, i32 0, i32 6
  %71 = getelementptr inbounds %struct.GPR, %struct.GPR* %70, i32 0, i32 11
  %72 = getelementptr inbounds %struct.Reg, %struct.Reg* %71, i32 0, i32 0
  %RDI.i101 = bitcast %union.anon* %72 to i64*
  %73 = getelementptr inbounds %struct.State, %struct.State* %0, i32 0, i32 6
  %74 = getelementptr inbounds %struct.GPR, %struct.GPR* %73, i32 0, i32 15
  %75 = getelementptr inbounds %struct.Reg, %struct.Reg* %74, i32 0, i32 0
  %RBP.i102 = bitcast %union.anon* %75 to i64*
  %76 = load i64, i64* %RBP.i102
  %77 = sub i64 %76, 8
  %78 = load i64, i64* %RDI.i101
  %79 = load i64, i64* %PC.i100
  %80 = add i64 %79, 4
  store i64 %80, i64* %PC.i100
  %81 = inttoptr i64 %77 to i64*
  store i64 %78, i64* %81
  store %struct.Memory* %loadMem_4076a8, %struct.Memory** %MEMORY
  %loadMem_4076ac = load %struct.Memory*, %struct.Memory** %MEMORY
  %82 = getelementptr inbounds %struct.State, %struct.State* %0, i32 0, i32 6
  %83 = getelementptr inbounds %struct.GPR, %struct.GPR* %82, i32 0, i32 33
  %84 = getelementptr inbounds %struct.Reg, %struct.Reg* %83, i32 0, i32 0
  %PC.i98 = bitcast %union.anon* %84 to i64*
  %85 = getelementptr inbounds %struct.State, %struct.State* %0, i32 0, i32 6
  %86 = getelementptr inbounds %struct.GPR, %struct.GPR* %85, i32 0, i32 9
  %87 = getelementptr inbounds %struct.Reg, %struct.Reg* %86, i32 0, i32 0
  %ESI.i = bitcast %union.anon* %87 to i32*
  %88 = getelementptr inbounds %struct.State, %struct.State* %0, i32 0, i32 6
  %89 = getelementptr inbounds %struct.GPR, %struct.GPR* %88, i32 0, i32 15
  %90 = getelementptr inbounds %struct.Reg, %struct.Reg* %89, i32 0, i32 0
  %RBP.i99 = bitcast %union.anon* %90 to i64*
  %91 = load i64, i64* %RBP.i99
  %92 = sub i64 %91, 12
  %93 = load i32, i32* %ESI.i
  %94 = zext i32 %93 to i64
  %95 = load i64, i64* %PC.i98
  %96 = add i64 %95, 3
  store i64 %96, i64* %PC.i98
  %97 = inttoptr i64 %92 to i32*
  store i32 %93, i32* %97
  store %struct.Memory* %loadMem_4076ac, %struct.Memory** %MEMORY
  %loadMem_4076af = load %struct.Memory*, %struct.Memory** %MEMORY
  %98 = getelementptr inbounds %struct.State, %struct.State* %0, i32 0, i32 6
  %99 = getelementptr inbounds %struct.GPR, %struct.GPR* %98, i32 0, i32 33
  %100 = getelementptr inbounds %struct.Reg, %struct.Reg* %99, i32 0, i32 0
  %PC.i95 = bitcast %union.anon* %100 to i64*
  %101 = getelementptr inbounds %struct.State, %struct.State* %0, i32 0, i32 6
  %102 = getelementptr inbounds %struct.GPR, %struct.GPR* %101, i32 0, i32 7
  %103 = getelementptr inbounds %struct.Reg, %struct.Reg* %102, i32 0, i32 0
  %RDX.i96 = bitcast %union.anon* %103 to i64*
  %104 = getelementptr inbounds %struct.State, %struct.State* %0, i32 0, i32 6
  %105 = getelementptr inbounds %struct.GPR, %struct.GPR* %104, i32 0, i32 15
  %106 = getelementptr inbounds %struct.Reg, %struct.Reg* %105, i32 0, i32 0
  %RBP.i97 = bitcast %union.anon* %106 to i64*
  %107 = load i64, i64* %RBP.i97
  %108 = sub i64 %107, 24
  %109 = load i64, i64* %RDX.i96
  %110 = load i64, i64* %PC.i95
  %111 = add i64 %110, 4
  store i64 %111, i64* %PC.i95
  %112 = inttoptr i64 %108 to i64*
  store i64 %109, i64* %112
  store %struct.Memory* %loadMem_4076af, %struct.Memory** %MEMORY
  %loadMem1_4076b3 = load %struct.Memory*, %struct.Memory** %MEMORY
  %113 = getelementptr inbounds %struct.State, %struct.State* %0, i32 0, i32 6
  %114 = getelementptr inbounds %struct.GPR, %struct.GPR* %113, i32 0, i32 33
  %115 = getelementptr inbounds %struct.Reg, %struct.Reg* %114, i32 0, i32 0
  %PC.i94 = bitcast %union.anon* %115 to i64*
  %116 = load i64, i64* %PC.i94
  %117 = add i64 %116, -26803
  %118 = load i64, i64* %PC.i94
  %119 = add i64 %118, 5
  %120 = load i64, i64* %PC.i94
  %121 = add i64 %120, 5
  store i64 %121, i64* %PC.i94
  %122 = getelementptr inbounds %struct.State, %struct.State* %0, i64 0, i32 6, i32 13, i32 0, i32 0
  %123 = load i64, i64* %122, align 8
  %124 = add i64 %123, -8
  %125 = inttoptr i64 %124 to i64*
  store i64 %119, i64* %125
  store i64 %124, i64* %122, align 8
  %126 = getelementptr inbounds %struct.State, %struct.State* %0, i64 0, i32 6, i32 33, i32 0, i32 0
  store i64 %117, i64* %126, align 8
  store %struct.Memory* %loadMem1_4076b3, %struct.Memory** %MEMORY
  %loadMem2_4076b3 = load %struct.Memory*, %struct.Memory** %MEMORY
  %loadPC_4076b3 = load i64, i64* %3
  %call2_4076b3 = call %struct.Memory* @sub_400e00._Z11start_timerv(%struct.State* %0, i64 %loadPC_4076b3, %struct.Memory* %loadMem2_4076b3)
  store %struct.Memory* %call2_4076b3, %struct.Memory** %MEMORY
  %loadMem_4076b8 = load %struct.Memory*, %struct.Memory** %MEMORY
  %127 = getelementptr inbounds %struct.State, %struct.State* %0, i32 0, i32 6
  %128 = getelementptr inbounds %struct.GPR, %struct.GPR* %127, i32 0, i32 33
  %129 = getelementptr inbounds %struct.Reg, %struct.Reg* %128, i32 0, i32 0
  %PC.i92 = bitcast %union.anon* %129 to i64*
  %130 = getelementptr inbounds %struct.State, %struct.State* %0, i32 0, i32 6
  %131 = getelementptr inbounds %struct.GPR, %struct.GPR* %130, i32 0, i32 15
  %132 = getelementptr inbounds %struct.Reg, %struct.Reg* %131, i32 0, i32 0
  %RBP.i93 = bitcast %union.anon* %132 to i64*
  %133 = load i64, i64* %RBP.i93
  %134 = sub i64 %133, 28
  %135 = load i64, i64* %PC.i92
  %136 = add i64 %135, 7
  store i64 %136, i64* %PC.i92
  %137 = inttoptr i64 %134 to i32*
  store i32 0, i32* %137
  store %struct.Memory* %loadMem_4076b8, %struct.Memory** %MEMORY
  br label %block_.L_4076bf

block_.L_4076bf:                                  ; preds = %block_.L_407748, %entry
  %loadMem_4076bf = load %struct.Memory*, %struct.Memory** %MEMORY
  %138 = getelementptr inbounds %struct.State, %struct.State* %0, i32 0, i32 6
  %139 = getelementptr inbounds %struct.GPR, %struct.GPR* %138, i32 0, i32 33
  %140 = getelementptr inbounds %struct.Reg, %struct.Reg* %139, i32 0, i32 0
  %PC.i89 = bitcast %union.anon* %140 to i64*
  %141 = getelementptr inbounds %struct.State, %struct.State* %0, i32 0, i32 6
  %142 = getelementptr inbounds %struct.GPR, %struct.GPR* %141, i32 0, i32 1
  %143 = getelementptr inbounds %struct.Reg, %struct.Reg* %142, i32 0, i32 0
  %RAX.i90 = bitcast %union.anon* %143 to i64*
  %144 = getelementptr inbounds %struct.State, %struct.State* %0, i32 0, i32 6
  %145 = getelementptr inbounds %struct.GPR, %struct.GPR* %144, i32 0, i32 15
  %146 = getelementptr inbounds %struct.Reg, %struct.Reg* %145, i32 0, i32 0
  %RBP.i91 = bitcast %union.anon* %146 to i64*
  %147 = load i64, i64* %RBP.i91
  %148 = sub i64 %147, 28
  %149 = load i64, i64* %PC.i89
  %150 = add i64 %149, 3
  store i64 %150, i64* %PC.i89
  %151 = inttoptr i64 %148 to i32*
  %152 = load i32, i32* %151
  %153 = zext i32 %152 to i64
  store i64 %153, i64* %RAX.i90, align 8
  store %struct.Memory* %loadMem_4076bf, %struct.Memory** %MEMORY
  %loadMem_4076c2 = load %struct.Memory*, %struct.Memory** %MEMORY
  %154 = getelementptr inbounds %struct.State, %struct.State* %0, i32 0, i32 6
  %155 = getelementptr inbounds %struct.GPR, %struct.GPR* %154, i32 0, i32 33
  %156 = getelementptr inbounds %struct.Reg, %struct.Reg* %155, i32 0, i32 0
  %PC.i87 = bitcast %union.anon* %156 to i64*
  %157 = getelementptr inbounds %struct.State, %struct.State* %0, i32 0, i32 6
  %158 = getelementptr inbounds %struct.GPR, %struct.GPR* %157, i32 0, i32 1
  %159 = getelementptr inbounds %struct.Reg, %struct.Reg* %158, i32 0, i32 0
  %EAX.i88 = bitcast %union.anon* %159 to i32*
  %160 = load i32, i32* %EAX.i88
  %161 = zext i32 %160 to i64
  %162 = load i64, i64* %PC.i87
  %163 = add i64 %162, 7
  store i64 %163, i64* %PC.i87
  %164 = load i32, i32* inttoptr (i64 6406264 to i32*)
  %165 = sub i32 %160, %164
  %166 = icmp ult i32 %160, %164
  %167 = zext i1 %166 to i8
  %168 = getelementptr inbounds %struct.State, %struct.State* %0, i64 0, i32 2, i32 1
  store i8 %167, i8* %168, align 1
  %169 = and i32 %165, 255
  %170 = call i32 @llvm.ctpop.i32(i32 %169)
  %171 = trunc i32 %170 to i8
  %172 = and i8 %171, 1
  %173 = xor i8 %172, 1
  %174 = getelementptr inbounds %struct.State, %struct.State* %0, i64 0, i32 2, i32 3
  store i8 %173, i8* %174, align 1
  %175 = xor i32 %164, %160
  %176 = xor i32 %175, %165
  %177 = lshr i32 %176, 4
  %178 = trunc i32 %177 to i8
  %179 = and i8 %178, 1
  %180 = getelementptr inbounds %struct.State, %struct.State* %0, i64 0, i32 2, i32 5
  store i8 %179, i8* %180, align 1
  %181 = icmp eq i32 %165, 0
  %182 = zext i1 %181 to i8
  %183 = getelementptr inbounds %struct.State, %struct.State* %0, i64 0, i32 2, i32 7
  store i8 %182, i8* %183, align 1
  %184 = lshr i32 %165, 31
  %185 = trunc i32 %184 to i8
  %186 = getelementptr inbounds %struct.State, %struct.State* %0, i64 0, i32 2, i32 9
  store i8 %185, i8* %186, align 1
  %187 = lshr i32 %160, 31
  %188 = lshr i32 %164, 31
  %189 = xor i32 %188, %187
  %190 = xor i32 %184, %187
  %191 = add i32 %190, %189
  %192 = icmp eq i32 %191, 2
  %193 = zext i1 %192 to i8
  %194 = getelementptr inbounds %struct.State, %struct.State* %0, i64 0, i32 2, i32 13
  store i8 %193, i8* %194, align 1
  store %struct.Memory* %loadMem_4076c2, %struct.Memory** %MEMORY
  %loadMem_4076c9 = load %struct.Memory*, %struct.Memory** %MEMORY
  %195 = getelementptr inbounds %struct.State, %struct.State* %0, i32 0, i32 6
  %196 = getelementptr inbounds %struct.GPR, %struct.GPR* %195, i32 0, i32 33
  %197 = getelementptr inbounds %struct.Reg, %struct.Reg* %196, i32 0, i32 0
  %PC.i86 = bitcast %union.anon* %197 to i64*
  %198 = load i64, i64* %PC.i86
  %199 = add i64 %198, 151
  %200 = load i64, i64* %PC.i86
  %201 = add i64 %200, 6
  %202 = load i64, i64* %PC.i86
  %203 = add i64 %202, 6
  store i64 %203, i64* %PC.i86
  %204 = getelementptr inbounds %struct.State, %struct.State* %0, i64 0, i32 2, i32 9
  %205 = load i8, i8* %204, align 1
  %206 = icmp ne i8 %205, 0
  %207 = getelementptr inbounds %struct.State, %struct.State* %0, i64 0, i32 2, i32 13
  %208 = load i8, i8* %207, align 1
  %209 = icmp ne i8 %208, 0
  %210 = xor i1 %206, %209
  %211 = xor i1 %210, true
  %212 = zext i1 %211 to i8
  store i8 %212, i8* %BRANCH_TAKEN, align 1
  %213 = getelementptr inbounds %struct.State, %struct.State* %0, i64 0, i32 6, i32 33, i32 0, i32 0
  %214 = select i1 %210, i64 %201, i64 %199
  store i64 %214, i64* %213, align 8
  store %struct.Memory* %loadMem_4076c9, %struct.Memory** %MEMORY
  %loadBr_4076c9 = load i8, i8* %BRANCH_TAKEN
  %cmpBr_4076c9 = icmp eq i8 %loadBr_4076c9, 1
  br i1 %cmpBr_4076c9, label %block_.L_407760, label %block_4076cf

block_4076cf:                                     ; preds = %block_.L_4076bf
  %loadMem_4076cf = load %struct.Memory*, %struct.Memory** %MEMORY
  %215 = getelementptr inbounds %struct.State, %struct.State* %0, i32 0, i32 6
  %216 = getelementptr inbounds %struct.GPR, %struct.GPR* %215, i32 0, i32 33
  %217 = getelementptr inbounds %struct.Reg, %struct.Reg* %216, i32 0, i32 0
  %PC.i83 = bitcast %union.anon* %217 to i64*
  %218 = getelementptr inbounds %struct.State, %struct.State* %0, i32 0, i32 1
  %219 = getelementptr inbounds [32 x %union.VectorReg], [32 x %union.VectorReg]* %218, i64 0, i64 0
  %YMM0.i84 = bitcast %union.VectorReg* %219 to %"class.std::bitset"*
  %220 = getelementptr inbounds %struct.State, %struct.State* %0, i32 0, i32 1
  %221 = getelementptr inbounds [32 x %union.VectorReg], [32 x %union.VectorReg]* %220, i64 0, i64 0
  %XMM0.i85 = bitcast %union.VectorReg* %221 to %union.vec128_t*
  %222 = bitcast %"class.std::bitset"* %YMM0.i84 to i8*
  %223 = bitcast %"class.std::bitset"* %YMM0.i84 to i8*
  %224 = bitcast %union.vec128_t* %XMM0.i85 to i8*
  %225 = load i64, i64* %PC.i83
  %226 = add i64 %225, 3
  store i64 %226, i64* %PC.i83
  %227 = bitcast i8* %223 to i64*
  %228 = load i64, i64* %227, align 1
  %229 = getelementptr inbounds i8, i8* %223, i64 8
  %230 = bitcast i8* %229 to i64*
  %231 = load i64, i64* %230, align 1
  %232 = bitcast i8* %224 to i64*
  %233 = load i64, i64* %232, align 1
  %234 = getelementptr inbounds i8, i8* %224, i64 8
  %235 = bitcast i8* %234 to i64*
  %236 = load i64, i64* %235, align 1
  %237 = xor i64 %233, %228
  %238 = xor i64 %236, %231
  %239 = trunc i64 %237 to i32
  %240 = lshr i64 %237, 32
  %241 = trunc i64 %240 to i32
  %242 = bitcast i8* %222 to i32*
  store i32 %239, i32* %242, align 1
  %243 = getelementptr inbounds i8, i8* %222, i64 4
  %244 = bitcast i8* %243 to i32*
  store i32 %241, i32* %244, align 1
  %245 = trunc i64 %238 to i32
  %246 = getelementptr inbounds i8, i8* %222, i64 8
  %247 = bitcast i8* %246 to i32*
  store i32 %245, i32* %247, align 1
  %248 = lshr i64 %238, 32
  %249 = trunc i64 %248 to i32
  %250 = getelementptr inbounds i8, i8* %222, i64 12
  %251 = bitcast i8* %250 to i32*
  store i32 %249, i32* %251, align 1
  store %struct.Memory* %loadMem_4076cf, %struct.Memory** %MEMORY
  %loadMem_4076d2 = load %struct.Memory*, %struct.Memory** %MEMORY
  %252 = getelementptr inbounds %struct.State, %struct.State* %0, i32 0, i32 6
  %253 = getelementptr inbounds %struct.GPR, %struct.GPR* %252, i32 0, i32 33
  %254 = getelementptr inbounds %struct.Reg, %struct.Reg* %253, i32 0, i32 0
  %PC.i80 = bitcast %union.anon* %254 to i64*
  %255 = getelementptr inbounds %struct.State, %struct.State* %0, i32 0, i32 6
  %256 = getelementptr inbounds %struct.GPR, %struct.GPR* %255, i32 0, i32 15
  %257 = getelementptr inbounds %struct.Reg, %struct.Reg* %256, i32 0, i32 0
  %RBP.i81 = bitcast %union.anon* %257 to i64*
  %258 = getelementptr inbounds %struct.State, %struct.State* %0, i32 0, i32 1
  %259 = getelementptr inbounds [32 x %union.VectorReg], [32 x %union.VectorReg]* %258, i64 0, i64 0
  %XMM0.i82 = bitcast %union.VectorReg* %259 to %union.vec128_t*
  %260 = load i64, i64* %RBP.i81
  %261 = sub i64 %260, 40
  %262 = bitcast %union.vec128_t* %XMM0.i82 to i8*
  %263 = load i64, i64* %PC.i80
  %264 = add i64 %263, 5
  store i64 %264, i64* %PC.i80
  %265 = bitcast i8* %262 to double*
  %266 = load double, double* %265, align 1
  %267 = inttoptr i64 %261 to double*
  store double %266, double* %267
  store %struct.Memory* %loadMem_4076d2, %struct.Memory** %MEMORY
  %loadMem_4076d7 = load %struct.Memory*, %struct.Memory** %MEMORY
  %268 = getelementptr inbounds %struct.State, %struct.State* %0, i32 0, i32 6
  %269 = getelementptr inbounds %struct.GPR, %struct.GPR* %268, i32 0, i32 33
  %270 = getelementptr inbounds %struct.Reg, %struct.Reg* %269, i32 0, i32 0
  %PC.i78 = bitcast %union.anon* %270 to i64*
  %271 = getelementptr inbounds %struct.State, %struct.State* %0, i32 0, i32 6
  %272 = getelementptr inbounds %struct.GPR, %struct.GPR* %271, i32 0, i32 15
  %273 = getelementptr inbounds %struct.Reg, %struct.Reg* %272, i32 0, i32 0
  %RBP.i79 = bitcast %union.anon* %273 to i64*
  %274 = load i64, i64* %RBP.i79
  %275 = sub i64 %274, 44
  %276 = load i64, i64* %PC.i78
  %277 = add i64 %276, 7
  store i64 %277, i64* %PC.i78
  %278 = inttoptr i64 %275 to i32*
  store i32 0, i32* %278
  store %struct.Memory* %loadMem_4076d7, %struct.Memory** %MEMORY
  br label %block_.L_4076de

block_.L_4076de:                                  ; preds = %block_4076ef, %block_4076cf
  %loadMem_4076de = load %struct.Memory*, %struct.Memory** %MEMORY
  %279 = getelementptr inbounds %struct.State, %struct.State* %0, i32 0, i32 6
  %280 = getelementptr inbounds %struct.GPR, %struct.GPR* %279, i32 0, i32 33
  %281 = getelementptr inbounds %struct.Reg, %struct.Reg* %280, i32 0, i32 0
  %PC.i75 = bitcast %union.anon* %281 to i64*
  %282 = getelementptr inbounds %struct.State, %struct.State* %0, i32 0, i32 6
  %283 = getelementptr inbounds %struct.GPR, %struct.GPR* %282, i32 0, i32 1
  %284 = getelementptr inbounds %struct.Reg, %struct.Reg* %283, i32 0, i32 0
  %RAX.i76 = bitcast %union.anon* %284 to i64*
  %285 = getelementptr inbounds %struct.State, %struct.State* %0, i32 0, i32 6
  %286 = getelementptr inbounds %struct.GPR, %struct.GPR* %285, i32 0, i32 15
  %287 = getelementptr inbounds %struct.Reg, %struct.Reg* %286, i32 0, i32 0
  %RBP.i77 = bitcast %union.anon* %287 to i64*
  %288 = load i64, i64* %RBP.i77
  %289 = sub i64 %288, 44
  %290 = load i64, i64* %PC.i75
  %291 = add i64 %290, 3
  store i64 %291, i64* %PC.i75
  %292 = inttoptr i64 %289 to i32*
  %293 = load i32, i32* %292
  %294 = zext i32 %293 to i64
  store i64 %294, i64* %RAX.i76, align 8
  store %struct.Memory* %loadMem_4076de, %struct.Memory** %MEMORY
  %loadMem_4076e1 = load %struct.Memory*, %struct.Memory** %MEMORY
  %295 = getelementptr inbounds %struct.State, %struct.State* %0, i32 0, i32 6
  %296 = getelementptr inbounds %struct.GPR, %struct.GPR* %295, i32 0, i32 33
  %297 = getelementptr inbounds %struct.Reg, %struct.Reg* %296, i32 0, i32 0
  %PC.i72 = bitcast %union.anon* %297 to i64*
  %298 = getelementptr inbounds %struct.State, %struct.State* %0, i32 0, i32 6
  %299 = getelementptr inbounds %struct.GPR, %struct.GPR* %298, i32 0, i32 5
  %300 = getelementptr inbounds %struct.Reg, %struct.Reg* %299, i32 0, i32 0
  %RCX.i73 = bitcast %union.anon* %300 to i64*
  %301 = getelementptr inbounds %struct.State, %struct.State* %0, i32 0, i32 6
  %302 = getelementptr inbounds %struct.GPR, %struct.GPR* %301, i32 0, i32 15
  %303 = getelementptr inbounds %struct.Reg, %struct.Reg* %302, i32 0, i32 0
  %RBP.i74 = bitcast %union.anon* %303 to i64*
  %304 = load i64, i64* %RBP.i74
  %305 = sub i64 %304, 12
  %306 = load i64, i64* %PC.i72
  %307 = add i64 %306, 3
  store i64 %307, i64* %PC.i72
  %308 = inttoptr i64 %305 to i32*
  %309 = load i32, i32* %308
  %310 = zext i32 %309 to i64
  store i64 %310, i64* %RCX.i73, align 8
  store %struct.Memory* %loadMem_4076e1, %struct.Memory** %MEMORY
  %loadMem_4076e4 = load %struct.Memory*, %struct.Memory** %MEMORY
  %311 = getelementptr inbounds %struct.State, %struct.State* %0, i32 0, i32 6
  %312 = getelementptr inbounds %struct.GPR, %struct.GPR* %311, i32 0, i32 33
  %313 = getelementptr inbounds %struct.Reg, %struct.Reg* %312, i32 0, i32 0
  %PC.i70 = bitcast %union.anon* %313 to i64*
  %314 = getelementptr inbounds %struct.State, %struct.State* %0, i32 0, i32 6
  %315 = getelementptr inbounds %struct.GPR, %struct.GPR* %314, i32 0, i32 5
  %316 = getelementptr inbounds %struct.Reg, %struct.Reg* %315, i32 0, i32 0
  %RCX.i71 = bitcast %union.anon* %316 to i64*
  %317 = load i64, i64* %RCX.i71
  %318 = load i64, i64* %PC.i70
  %319 = add i64 %318, 3
  store i64 %319, i64* %PC.i70
  %320 = trunc i64 %317 to i32
  %321 = sub i32 %320, 29
  %322 = zext i32 %321 to i64
  store i64 %322, i64* %RCX.i71, align 8
  %323 = icmp ult i32 %320, 29
  %324 = zext i1 %323 to i8
  %325 = getelementptr inbounds %struct.State, %struct.State* %0, i64 0, i32 2, i32 1
  store i8 %324, i8* %325, align 1
  %326 = and i32 %321, 255
  %327 = call i32 @llvm.ctpop.i32(i32 %326)
  %328 = trunc i32 %327 to i8
  %329 = and i8 %328, 1
  %330 = xor i8 %329, 1
  %331 = getelementptr inbounds %struct.State, %struct.State* %0, i64 0, i32 2, i32 3
  store i8 %330, i8* %331, align 1
  %332 = xor i64 29, %317
  %333 = trunc i64 %332 to i32
  %334 = xor i32 %333, %321
  %335 = lshr i32 %334, 4
  %336 = trunc i32 %335 to i8
  %337 = and i8 %336, 1
  %338 = getelementptr inbounds %struct.State, %struct.State* %0, i64 0, i32 2, i32 5
  store i8 %337, i8* %338, align 1
  %339 = icmp eq i32 %321, 0
  %340 = zext i1 %339 to i8
  %341 = getelementptr inbounds %struct.State, %struct.State* %0, i64 0, i32 2, i32 7
  store i8 %340, i8* %341, align 1
  %342 = lshr i32 %321, 31
  %343 = trunc i32 %342 to i8
  %344 = getelementptr inbounds %struct.State, %struct.State* %0, i64 0, i32 2, i32 9
  store i8 %343, i8* %344, align 1
  %345 = lshr i32 %320, 31
  %346 = xor i32 %342, %345
  %347 = add i32 %346, %345
  %348 = icmp eq i32 %347, 2
  %349 = zext i1 %348 to i8
  %350 = getelementptr inbounds %struct.State, %struct.State* %0, i64 0, i32 2, i32 13
  store i8 %349, i8* %350, align 1
  store %struct.Memory* %loadMem_4076e4, %struct.Memory** %MEMORY
  %loadMem_4076e7 = load %struct.Memory*, %struct.Memory** %MEMORY
  %351 = getelementptr inbounds %struct.State, %struct.State* %0, i32 0, i32 6
  %352 = getelementptr inbounds %struct.GPR, %struct.GPR* %351, i32 0, i32 33
  %353 = getelementptr inbounds %struct.Reg, %struct.Reg* %352, i32 0, i32 0
  %PC.i68 = bitcast %union.anon* %353 to i64*
  %354 = getelementptr inbounds %struct.State, %struct.State* %0, i32 0, i32 6
  %355 = getelementptr inbounds %struct.GPR, %struct.GPR* %354, i32 0, i32 1
  %356 = getelementptr inbounds %struct.Reg, %struct.Reg* %355, i32 0, i32 0
  %EAX.i69 = bitcast %union.anon* %356 to i32*
  %357 = getelementptr inbounds %struct.State, %struct.State* %0, i32 0, i32 6
  %358 = getelementptr inbounds %struct.GPR, %struct.GPR* %357, i32 0, i32 5
  %359 = getelementptr inbounds %struct.Reg, %struct.Reg* %358, i32 0, i32 0
  %ECX.i = bitcast %union.anon* %359 to i32*
  %360 = load i32, i32* %EAX.i69
  %361 = zext i32 %360 to i64
  %362 = load i32, i32* %ECX.i
  %363 = zext i32 %362 to i64
  %364 = load i64, i64* %PC.i68
  %365 = add i64 %364, 2
  store i64 %365, i64* %PC.i68
  %366 = sub i32 %360, %362
  %367 = icmp ult i32 %360, %362
  %368 = zext i1 %367 to i8
  %369 = getelementptr inbounds %struct.State, %struct.State* %0, i64 0, i32 2, i32 1
  store i8 %368, i8* %369, align 1
  %370 = and i32 %366, 255
  %371 = call i32 @llvm.ctpop.i32(i32 %370)
  %372 = trunc i32 %371 to i8
  %373 = and i8 %372, 1
  %374 = xor i8 %373, 1
  %375 = getelementptr inbounds %struct.State, %struct.State* %0, i64 0, i32 2, i32 3
  store i8 %374, i8* %375, align 1
  %376 = xor i64 %363, %361
  %377 = trunc i64 %376 to i32
  %378 = xor i32 %377, %366
  %379 = lshr i32 %378, 4
  %380 = trunc i32 %379 to i8
  %381 = and i8 %380, 1
  %382 = getelementptr inbounds %struct.State, %struct.State* %0, i64 0, i32 2, i32 5
  store i8 %381, i8* %382, align 1
  %383 = icmp eq i32 %366, 0
  %384 = zext i1 %383 to i8
  %385 = getelementptr inbounds %struct.State, %struct.State* %0, i64 0, i32 2, i32 7
  store i8 %384, i8* %385, align 1
  %386 = lshr i32 %366, 31
  %387 = trunc i32 %386 to i8
  %388 = getelementptr inbounds %struct.State, %struct.State* %0, i64 0, i32 2, i32 9
  store i8 %387, i8* %388, align 1
  %389 = lshr i32 %360, 31
  %390 = lshr i32 %362, 31
  %391 = xor i32 %390, %389
  %392 = xor i32 %386, %389
  %393 = add i32 %392, %391
  %394 = icmp eq i32 %393, 2
  %395 = zext i1 %394 to i8
  %396 = getelementptr inbounds %struct.State, %struct.State* %0, i64 0, i32 2, i32 13
  store i8 %395, i8* %396, align 1
  store %struct.Memory* %loadMem_4076e7, %struct.Memory** %MEMORY
  %loadMem_4076e9 = load %struct.Memory*, %struct.Memory** %MEMORY
  %397 = getelementptr inbounds %struct.State, %struct.State* %0, i32 0, i32 6
  %398 = getelementptr inbounds %struct.GPR, %struct.GPR* %397, i32 0, i32 33
  %399 = getelementptr inbounds %struct.Reg, %struct.Reg* %398, i32 0, i32 0
  %PC.i67 = bitcast %union.anon* %399 to i64*
  %400 = load i64, i64* %PC.i67
  %401 = add i64 %400, 36
  %402 = load i64, i64* %PC.i67
  %403 = add i64 %402, 6
  %404 = load i64, i64* %PC.i67
  %405 = add i64 %404, 6
  store i64 %405, i64* %PC.i67
  %406 = getelementptr inbounds %struct.State, %struct.State* %0, i64 0, i32 2, i32 9
  %407 = load i8, i8* %406, align 1
  %408 = icmp ne i8 %407, 0
  %409 = getelementptr inbounds %struct.State, %struct.State* %0, i64 0, i32 2, i32 13
  %410 = load i8, i8* %409, align 1
  %411 = icmp ne i8 %410, 0
  %412 = xor i1 %408, %411
  %413 = xor i1 %412, true
  %414 = zext i1 %413 to i8
  store i8 %414, i8* %BRANCH_TAKEN, align 1
  %415 = getelementptr inbounds %struct.State, %struct.State* %0, i64 0, i32 6, i32 33, i32 0, i32 0
  %416 = select i1 %412, i64 %403, i64 %401
  store i64 %416, i64* %415, align 8
  store %struct.Memory* %loadMem_4076e9, %struct.Memory** %MEMORY
  %loadBr_4076e9 = load i8, i8* %BRANCH_TAKEN
  %cmpBr_4076e9 = icmp eq i8 %loadBr_4076e9, 1
  br i1 %cmpBr_4076e9, label %block_.L_40770d, label %block_4076ef

block_4076ef:                                     ; preds = %block_.L_4076de
  %loadMem_4076ef = load %struct.Memory*, %struct.Memory** %MEMORY
  %417 = getelementptr inbounds %struct.State, %struct.State* %0, i32 0, i32 6
  %418 = getelementptr inbounds %struct.GPR, %struct.GPR* %417, i32 0, i32 33
  %419 = getelementptr inbounds %struct.Reg, %struct.Reg* %418, i32 0, i32 0
  %PC.i64 = bitcast %union.anon* %419 to i64*
  %420 = getelementptr inbounds %struct.State, %struct.State* %0, i32 0, i32 6
  %421 = getelementptr inbounds %struct.GPR, %struct.GPR* %420, i32 0, i32 11
  %422 = getelementptr inbounds %struct.Reg, %struct.Reg* %421, i32 0, i32 0
  %RDI.i65 = bitcast %union.anon* %422 to i64*
  %423 = getelementptr inbounds %struct.State, %struct.State* %0, i32 0, i32 6
  %424 = getelementptr inbounds %struct.GPR, %struct.GPR* %423, i32 0, i32 15
  %425 = getelementptr inbounds %struct.Reg, %struct.Reg* %424, i32 0, i32 0
  %RBP.i66 = bitcast %union.anon* %425 to i64*
  %426 = load i64, i64* %RBP.i66
  %427 = sub i64 %426, 40
  %428 = load i64, i64* %PC.i64
  %429 = add i64 %428, 4
  store i64 %429, i64* %PC.i64
  store i64 %427, i64* %RDI.i65, align 8
  store %struct.Memory* %loadMem_4076ef, %struct.Memory** %MEMORY
  %loadMem_4076f3 = load %struct.Memory*, %struct.Memory** %MEMORY
  %430 = getelementptr inbounds %struct.State, %struct.State* %0, i32 0, i32 6
  %431 = getelementptr inbounds %struct.GPR, %struct.GPR* %430, i32 0, i32 33
  %432 = getelementptr inbounds %struct.Reg, %struct.Reg* %431, i32 0, i32 0
  %PC.i62 = bitcast %union.anon* %432 to i64*
  %433 = getelementptr inbounds %struct.State, %struct.State* %0, i32 0, i32 6
  %434 = getelementptr inbounds %struct.GPR, %struct.GPR* %433, i32 0, i32 9
  %435 = getelementptr inbounds %struct.Reg, %struct.Reg* %434, i32 0, i32 0
  %RSI.i = bitcast %union.anon* %435 to i64*
  %436 = getelementptr inbounds %struct.State, %struct.State* %0, i32 0, i32 6
  %437 = getelementptr inbounds %struct.GPR, %struct.GPR* %436, i32 0, i32 15
  %438 = getelementptr inbounds %struct.Reg, %struct.Reg* %437, i32 0, i32 0
  %RBP.i63 = bitcast %union.anon* %438 to i64*
  %439 = load i64, i64* %RBP.i63
  %440 = sub i64 %439, 8
  %441 = load i64, i64* %PC.i62
  %442 = add i64 %441, 4
  store i64 %442, i64* %PC.i62
  %443 = inttoptr i64 %440 to i64*
  %444 = load i64, i64* %443
  store i64 %444, i64* %RSI.i, align 8
  store %struct.Memory* %loadMem_4076f3, %struct.Memory** %MEMORY
  %loadMem_4076f7 = load %struct.Memory*, %struct.Memory** %MEMORY
  %445 = getelementptr inbounds %struct.State, %struct.State* %0, i32 0, i32 6
  %446 = getelementptr inbounds %struct.GPR, %struct.GPR* %445, i32 0, i32 33
  %447 = getelementptr inbounds %struct.Reg, %struct.Reg* %446, i32 0, i32 0
  %PC.i59 = bitcast %union.anon* %447 to i64*
  %448 = getelementptr inbounds %struct.State, %struct.State* %0, i32 0, i32 6
  %449 = getelementptr inbounds %struct.GPR, %struct.GPR* %448, i32 0, i32 7
  %450 = getelementptr inbounds %struct.Reg, %struct.Reg* %449, i32 0, i32 0
  %RDX.i60 = bitcast %union.anon* %450 to i64*
  %451 = getelementptr inbounds %struct.State, %struct.State* %0, i32 0, i32 6
  %452 = getelementptr inbounds %struct.GPR, %struct.GPR* %451, i32 0, i32 15
  %453 = getelementptr inbounds %struct.Reg, %struct.Reg* %452, i32 0, i32 0
  %RBP.i61 = bitcast %union.anon* %453 to i64*
  %454 = load i64, i64* %RBP.i61
  %455 = sub i64 %454, 44
  %456 = load i64, i64* %PC.i59
  %457 = add i64 %456, 3
  store i64 %457, i64* %PC.i59
  %458 = inttoptr i64 %455 to i32*
  %459 = load i32, i32* %458
  %460 = zext i32 %459 to i64
  store i64 %460, i64* %RDX.i60, align 8
  store %struct.Memory* %loadMem_4076f7, %struct.Memory** %MEMORY
  %loadMem1_4076fa = load %struct.Memory*, %struct.Memory** %MEMORY
  %461 = getelementptr inbounds %struct.State, %struct.State* %0, i32 0, i32 6
  %462 = getelementptr inbounds %struct.GPR, %struct.GPR* %461, i32 0, i32 33
  %463 = getelementptr inbounds %struct.Reg, %struct.Reg* %462, i32 0, i32 0
  %PC.i58 = bitcast %union.anon* %463 to i64*
  %464 = load i64, i64* %PC.i58
  %465 = add i64 %464, -24698
  %466 = load i64, i64* %PC.i58
  %467 = add i64 %466, 5
  %468 = load i64, i64* %PC.i58
  %469 = add i64 %468, 5
  store i64 %469, i64* %PC.i58
  %470 = getelementptr inbounds %struct.State, %struct.State* %0, i64 0, i32 6, i32 13, i32 0, i32 0
  %471 = load i64, i64* %470, align 8
  %472 = add i64 %471, -8
  %473 = inttoptr i64 %472 to i64*
  store i64 %467, i64* %473
  store i64 %472, i64* %470, align 8
  %474 = getelementptr inbounds %struct.State, %struct.State* %0, i64 0, i32 6, i32 33, i32 0, i32 0
  store i64 %465, i64* %474, align 8
  store %struct.Memory* %loadMem1_4076fa, %struct.Memory** %MEMORY
  %loadMem2_4076fa = load %struct.Memory*, %struct.Memory** %MEMORY
  %loadPC_4076fa = load i64, i64* %3
  %call2_4076fa = call %struct.Memory* @sub_401680._ZN15loop_inner_bodyILi30EdE7do_workERdPKdi(%struct.State* %0, i64 %loadPC_4076fa, %struct.Memory* %loadMem2_4076fa)
  store %struct.Memory* %call2_4076fa, %struct.Memory** %MEMORY
  %loadMem_4076ff = load %struct.Memory*, %struct.Memory** %MEMORY
  %475 = getelementptr inbounds %struct.State, %struct.State* %0, i32 0, i32 6
  %476 = getelementptr inbounds %struct.GPR, %struct.GPR* %475, i32 0, i32 33
  %477 = getelementptr inbounds %struct.Reg, %struct.Reg* %476, i32 0, i32 0
  %PC.i55 = bitcast %union.anon* %477 to i64*
  %478 = getelementptr inbounds %struct.State, %struct.State* %0, i32 0, i32 6
  %479 = getelementptr inbounds %struct.GPR, %struct.GPR* %478, i32 0, i32 7
  %480 = getelementptr inbounds %struct.Reg, %struct.Reg* %479, i32 0, i32 0
  %RDX.i56 = bitcast %union.anon* %480 to i64*
  %481 = getelementptr inbounds %struct.State, %struct.State* %0, i32 0, i32 6
  %482 = getelementptr inbounds %struct.GPR, %struct.GPR* %481, i32 0, i32 15
  %483 = getelementptr inbounds %struct.Reg, %struct.Reg* %482, i32 0, i32 0
  %RBP.i57 = bitcast %union.anon* %483 to i64*
  %484 = load i64, i64* %RBP.i57
  %485 = sub i64 %484, 44
  %486 = load i64, i64* %PC.i55
  %487 = add i64 %486, 3
  store i64 %487, i64* %PC.i55
  %488 = inttoptr i64 %485 to i32*
  %489 = load i32, i32* %488
  %490 = zext i32 %489 to i64
  store i64 %490, i64* %RDX.i56, align 8
  store %struct.Memory* %loadMem_4076ff, %struct.Memory** %MEMORY
  %loadMem_407702 = load %struct.Memory*, %struct.Memory** %MEMORY
  %491 = getelementptr inbounds %struct.State, %struct.State* %0, i32 0, i32 6
  %492 = getelementptr inbounds %struct.GPR, %struct.GPR* %491, i32 0, i32 33
  %493 = getelementptr inbounds %struct.Reg, %struct.Reg* %492, i32 0, i32 0
  %PC.i53 = bitcast %union.anon* %493 to i64*
  %494 = getelementptr inbounds %struct.State, %struct.State* %0, i32 0, i32 6
  %495 = getelementptr inbounds %struct.GPR, %struct.GPR* %494, i32 0, i32 7
  %496 = getelementptr inbounds %struct.Reg, %struct.Reg* %495, i32 0, i32 0
  %RDX.i54 = bitcast %union.anon* %496 to i64*
  %497 = load i64, i64* %RDX.i54
  %498 = load i64, i64* %PC.i53
  %499 = add i64 %498, 3
  store i64 %499, i64* %PC.i53
  %500 = trunc i64 %497 to i32
  %501 = add i32 30, %500
  %502 = zext i32 %501 to i64
  store i64 %502, i64* %RDX.i54, align 8
  %503 = icmp ult i32 %501, %500
  %504 = icmp ult i32 %501, 30
  %505 = or i1 %503, %504
  %506 = zext i1 %505 to i8
  %507 = getelementptr inbounds %struct.State, %struct.State* %0, i64 0, i32 2, i32 1
  store i8 %506, i8* %507, align 1
  %508 = and i32 %501, 255
  %509 = call i32 @llvm.ctpop.i32(i32 %508)
  %510 = trunc i32 %509 to i8
  %511 = and i8 %510, 1
  %512 = xor i8 %511, 1
  %513 = getelementptr inbounds %struct.State, %struct.State* %0, i64 0, i32 2, i32 3
  store i8 %512, i8* %513, align 1
  %514 = xor i64 30, %497
  %515 = trunc i64 %514 to i32
  %516 = xor i32 %515, %501
  %517 = lshr i32 %516, 4
  %518 = trunc i32 %517 to i8
  %519 = and i8 %518, 1
  %520 = getelementptr inbounds %struct.State, %struct.State* %0, i64 0, i32 2, i32 5
  store i8 %519, i8* %520, align 1
  %521 = icmp eq i32 %501, 0
  %522 = zext i1 %521 to i8
  %523 = getelementptr inbounds %struct.State, %struct.State* %0, i64 0, i32 2, i32 7
  store i8 %522, i8* %523, align 1
  %524 = lshr i32 %501, 31
  %525 = trunc i32 %524 to i8
  %526 = getelementptr inbounds %struct.State, %struct.State* %0, i64 0, i32 2, i32 9
  store i8 %525, i8* %526, align 1
  %527 = lshr i32 %500, 31
  %528 = xor i32 %524, %527
  %529 = add i32 %528, %524
  %530 = icmp eq i32 %529, 2
  %531 = zext i1 %530 to i8
  %532 = getelementptr inbounds %struct.State, %struct.State* %0, i64 0, i32 2, i32 13
  store i8 %531, i8* %532, align 1
  store %struct.Memory* %loadMem_407702, %struct.Memory** %MEMORY
  %loadMem_407705 = load %struct.Memory*, %struct.Memory** %MEMORY
  %533 = getelementptr inbounds %struct.State, %struct.State* %0, i32 0, i32 6
  %534 = getelementptr inbounds %struct.GPR, %struct.GPR* %533, i32 0, i32 33
  %535 = getelementptr inbounds %struct.Reg, %struct.Reg* %534, i32 0, i32 0
  %PC.i50 = bitcast %union.anon* %535 to i64*
  %536 = getelementptr inbounds %struct.State, %struct.State* %0, i32 0, i32 6
  %537 = getelementptr inbounds %struct.GPR, %struct.GPR* %536, i32 0, i32 7
  %538 = getelementptr inbounds %struct.Reg, %struct.Reg* %537, i32 0, i32 0
  %EDX.i51 = bitcast %union.anon* %538 to i32*
  %539 = getelementptr inbounds %struct.State, %struct.State* %0, i32 0, i32 6
  %540 = getelementptr inbounds %struct.GPR, %struct.GPR* %539, i32 0, i32 15
  %541 = getelementptr inbounds %struct.Reg, %struct.Reg* %540, i32 0, i32 0
  %RBP.i52 = bitcast %union.anon* %541 to i64*
  %542 = load i64, i64* %RBP.i52
  %543 = sub i64 %542, 44
  %544 = load i32, i32* %EDX.i51
  %545 = zext i32 %544 to i64
  %546 = load i64, i64* %PC.i50
  %547 = add i64 %546, 3
  store i64 %547, i64* %PC.i50
  %548 = inttoptr i64 %543 to i32*
  store i32 %544, i32* %548
  store %struct.Memory* %loadMem_407705, %struct.Memory** %MEMORY
  %loadMem_407708 = load %struct.Memory*, %struct.Memory** %MEMORY
  %549 = getelementptr inbounds %struct.State, %struct.State* %0, i32 0, i32 6
  %550 = getelementptr inbounds %struct.GPR, %struct.GPR* %549, i32 0, i32 33
  %551 = getelementptr inbounds %struct.Reg, %struct.Reg* %550, i32 0, i32 0
  %PC.i49 = bitcast %union.anon* %551 to i64*
  %552 = load i64, i64* %PC.i49
  %553 = add i64 %552, -42
  %554 = load i64, i64* %PC.i49
  %555 = add i64 %554, 5
  store i64 %555, i64* %PC.i49
  %556 = getelementptr inbounds %struct.State, %struct.State* %0, i64 0, i32 6, i32 33, i32 0, i32 0
  store i64 %553, i64* %556, align 8
  store %struct.Memory* %loadMem_407708, %struct.Memory** %MEMORY
  br label %block_.L_4076de

block_.L_40770d:                                  ; preds = %block_.L_4076de
  %loadMem_40770d = load %struct.Memory*, %struct.Memory** %MEMORY
  %557 = getelementptr inbounds %struct.State, %struct.State* %0, i32 0, i32 6
  %558 = getelementptr inbounds %struct.GPR, %struct.GPR* %557, i32 0, i32 33
  %559 = getelementptr inbounds %struct.Reg, %struct.Reg* %558, i32 0, i32 0
  %PC.i48 = bitcast %union.anon* %559 to i64*
  %560 = load i64, i64* %PC.i48
  %561 = add i64 %560, 5
  %562 = load i64, i64* %PC.i48
  %563 = add i64 %562, 5
  store i64 %563, i64* %PC.i48
  %564 = getelementptr inbounds %struct.State, %struct.State* %0, i64 0, i32 6, i32 33, i32 0, i32 0
  store i64 %561, i64* %564, align 8
  store %struct.Memory* %loadMem_40770d, %struct.Memory** %MEMORY
  br label %block_.L_407712

block_.L_407712:                                  ; preds = %block_40771e, %block_.L_40770d
  %loadMem_407712 = load %struct.Memory*, %struct.Memory** %MEMORY
  %565 = getelementptr inbounds %struct.State, %struct.State* %0, i32 0, i32 6
  %566 = getelementptr inbounds %struct.GPR, %struct.GPR* %565, i32 0, i32 33
  %567 = getelementptr inbounds %struct.Reg, %struct.Reg* %566, i32 0, i32 0
  %PC.i45 = bitcast %union.anon* %567 to i64*
  %568 = getelementptr inbounds %struct.State, %struct.State* %0, i32 0, i32 6
  %569 = getelementptr inbounds %struct.GPR, %struct.GPR* %568, i32 0, i32 1
  %570 = getelementptr inbounds %struct.Reg, %struct.Reg* %569, i32 0, i32 0
  %RAX.i46 = bitcast %union.anon* %570 to i64*
  %571 = getelementptr inbounds %struct.State, %struct.State* %0, i32 0, i32 6
  %572 = getelementptr inbounds %struct.GPR, %struct.GPR* %571, i32 0, i32 15
  %573 = getelementptr inbounds %struct.Reg, %struct.Reg* %572, i32 0, i32 0
  %RBP.i47 = bitcast %union.anon* %573 to i64*
  %574 = load i64, i64* %RBP.i47
  %575 = sub i64 %574, 44
  %576 = load i64, i64* %PC.i45
  %577 = add i64 %576, 3
  store i64 %577, i64* %PC.i45
  %578 = inttoptr i64 %575 to i32*
  %579 = load i32, i32* %578
  %580 = zext i32 %579 to i64
  store i64 %580, i64* %RAX.i46, align 8
  store %struct.Memory* %loadMem_407712, %struct.Memory** %MEMORY
  %loadMem_407715 = load %struct.Memory*, %struct.Memory** %MEMORY
  %581 = getelementptr inbounds %struct.State, %struct.State* %0, i32 0, i32 6
  %582 = getelementptr inbounds %struct.GPR, %struct.GPR* %581, i32 0, i32 33
  %583 = getelementptr inbounds %struct.Reg, %struct.Reg* %582, i32 0, i32 0
  %PC.i42 = bitcast %union.anon* %583 to i64*
  %584 = getelementptr inbounds %struct.State, %struct.State* %0, i32 0, i32 6
  %585 = getelementptr inbounds %struct.GPR, %struct.GPR* %584, i32 0, i32 1
  %586 = getelementptr inbounds %struct.Reg, %struct.Reg* %585, i32 0, i32 0
  %EAX.i43 = bitcast %union.anon* %586 to i32*
  %587 = getelementptr inbounds %struct.State, %struct.State* %0, i32 0, i32 6
  %588 = getelementptr inbounds %struct.GPR, %struct.GPR* %587, i32 0, i32 15
  %589 = getelementptr inbounds %struct.Reg, %struct.Reg* %588, i32 0, i32 0
  %RBP.i44 = bitcast %union.anon* %589 to i64*
  %590 = load i32, i32* %EAX.i43
  %591 = zext i32 %590 to i64
  %592 = load i64, i64* %RBP.i44
  %593 = sub i64 %592, 12
  %594 = load i64, i64* %PC.i42
  %595 = add i64 %594, 3
  store i64 %595, i64* %PC.i42
  %596 = inttoptr i64 %593 to i32*
  %597 = load i32, i32* %596
  %598 = sub i32 %590, %597
  %599 = icmp ult i32 %590, %597
  %600 = zext i1 %599 to i8
  %601 = getelementptr inbounds %struct.State, %struct.State* %0, i64 0, i32 2, i32 1
  store i8 %600, i8* %601, align 1
  %602 = and i32 %598, 255
  %603 = call i32 @llvm.ctpop.i32(i32 %602)
  %604 = trunc i32 %603 to i8
  %605 = and i8 %604, 1
  %606 = xor i8 %605, 1
  %607 = getelementptr inbounds %struct.State, %struct.State* %0, i64 0, i32 2, i32 3
  store i8 %606, i8* %607, align 1
  %608 = xor i32 %597, %590
  %609 = xor i32 %608, %598
  %610 = lshr i32 %609, 4
  %611 = trunc i32 %610 to i8
  %612 = and i8 %611, 1
  %613 = getelementptr inbounds %struct.State, %struct.State* %0, i64 0, i32 2, i32 5
  store i8 %612, i8* %613, align 1
  %614 = icmp eq i32 %598, 0
  %615 = zext i1 %614 to i8
  %616 = getelementptr inbounds %struct.State, %struct.State* %0, i64 0, i32 2, i32 7
  store i8 %615, i8* %616, align 1
  %617 = lshr i32 %598, 31
  %618 = trunc i32 %617 to i8
  %619 = getelementptr inbounds %struct.State, %struct.State* %0, i64 0, i32 2, i32 9
  store i8 %618, i8* %619, align 1
  %620 = lshr i32 %590, 31
  %621 = lshr i32 %597, 31
  %622 = xor i32 %621, %620
  %623 = xor i32 %617, %620
  %624 = add i32 %623, %622
  %625 = icmp eq i32 %624, 2
  %626 = zext i1 %625 to i8
  %627 = getelementptr inbounds %struct.State, %struct.State* %0, i64 0, i32 2, i32 13
  store i8 %626, i8* %627, align 1
  store %struct.Memory* %loadMem_407715, %struct.Memory** %MEMORY
  %loadMem_407718 = load %struct.Memory*, %struct.Memory** %MEMORY
  %628 = getelementptr inbounds %struct.State, %struct.State* %0, i32 0, i32 6
  %629 = getelementptr inbounds %struct.GPR, %struct.GPR* %628, i32 0, i32 33
  %630 = getelementptr inbounds %struct.Reg, %struct.Reg* %629, i32 0, i32 0
  %PC.i41 = bitcast %union.anon* %630 to i64*
  %631 = load i64, i64* %PC.i41
  %632 = add i64 %631, 48
  %633 = load i64, i64* %PC.i41
  %634 = add i64 %633, 6
  %635 = load i64, i64* %PC.i41
  %636 = add i64 %635, 6
  store i64 %636, i64* %PC.i41
  %637 = getelementptr inbounds %struct.State, %struct.State* %0, i64 0, i32 2, i32 9
  %638 = load i8, i8* %637, align 1
  %639 = icmp ne i8 %638, 0
  %640 = getelementptr inbounds %struct.State, %struct.State* %0, i64 0, i32 2, i32 13
  %641 = load i8, i8* %640, align 1
  %642 = icmp ne i8 %641, 0
  %643 = xor i1 %639, %642
  %644 = xor i1 %643, true
  %645 = zext i1 %644 to i8
  store i8 %645, i8* %BRANCH_TAKEN, align 1
  %646 = getelementptr inbounds %struct.State, %struct.State* %0, i64 0, i32 6, i32 33, i32 0, i32 0
  %647 = select i1 %643, i64 %634, i64 %632
  store i64 %647, i64* %646, align 8
  store %struct.Memory* %loadMem_407718, %struct.Memory** %MEMORY
  %loadBr_407718 = load i8, i8* %BRANCH_TAKEN
  %cmpBr_407718 = icmp eq i8 %loadBr_407718, 1
  br i1 %cmpBr_407718, label %block_.L_407748, label %block_40771e

block_40771e:                                     ; preds = %block_.L_407712
  %loadMem_40771e = load %struct.Memory*, %struct.Memory** %MEMORY
  %648 = getelementptr inbounds %struct.State, %struct.State* %0, i32 0, i32 6
  %649 = getelementptr inbounds %struct.GPR, %struct.GPR* %648, i32 0, i32 33
  %650 = getelementptr inbounds %struct.Reg, %struct.Reg* %649, i32 0, i32 0
  %PC.i38 = bitcast %union.anon* %650 to i64*
  %651 = getelementptr inbounds %struct.State, %struct.State* %0, i32 0, i32 6
  %652 = getelementptr inbounds %struct.GPR, %struct.GPR* %651, i32 0, i32 1
  %653 = getelementptr inbounds %struct.Reg, %struct.Reg* %652, i32 0, i32 0
  %RAX.i39 = bitcast %union.anon* %653 to i64*
  %654 = getelementptr inbounds %struct.State, %struct.State* %0, i32 0, i32 6
  %655 = getelementptr inbounds %struct.GPR, %struct.GPR* %654, i32 0, i32 15
  %656 = getelementptr inbounds %struct.Reg, %struct.Reg* %655, i32 0, i32 0
  %RBP.i40 = bitcast %union.anon* %656 to i64*
  %657 = load i64, i64* %RBP.i40
  %658 = sub i64 %657, 8
  %659 = load i64, i64* %PC.i38
  %660 = add i64 %659, 4
  store i64 %660, i64* %PC.i38
  %661 = inttoptr i64 %658 to i64*
  %662 = load i64, i64* %661
  store i64 %662, i64* %RAX.i39, align 8
  store %struct.Memory* %loadMem_40771e, %struct.Memory** %MEMORY
  %loadMem_407722 = load %struct.Memory*, %struct.Memory** %MEMORY
  %663 = getelementptr inbounds %struct.State, %struct.State* %0, i32 0, i32 6
  %664 = getelementptr inbounds %struct.GPR, %struct.GPR* %663, i32 0, i32 33
  %665 = getelementptr inbounds %struct.Reg, %struct.Reg* %664, i32 0, i32 0
  %PC.i35 = bitcast %union.anon* %665 to i64*
  %666 = getelementptr inbounds %struct.State, %struct.State* %0, i32 0, i32 6
  %667 = getelementptr inbounds %struct.GPR, %struct.GPR* %666, i32 0, i32 5
  %668 = getelementptr inbounds %struct.Reg, %struct.Reg* %667, i32 0, i32 0
  %RCX.i36 = bitcast %union.anon* %668 to i64*
  %669 = getelementptr inbounds %struct.State, %struct.State* %0, i32 0, i32 6
  %670 = getelementptr inbounds %struct.GPR, %struct.GPR* %669, i32 0, i32 15
  %671 = getelementptr inbounds %struct.Reg, %struct.Reg* %670, i32 0, i32 0
  %RBP.i37 = bitcast %union.anon* %671 to i64*
  %672 = load i64, i64* %RBP.i37
  %673 = sub i64 %672, 44
  %674 = load i64, i64* %PC.i35
  %675 = add i64 %674, 4
  store i64 %675, i64* %PC.i35
  %676 = inttoptr i64 %673 to i32*
  %677 = load i32, i32* %676
  %678 = sext i32 %677 to i64
  store i64 %678, i64* %RCX.i36, align 8
  store %struct.Memory* %loadMem_407722, %struct.Memory** %MEMORY
  %loadMem_407726 = load %struct.Memory*, %struct.Memory** %MEMORY
  %679 = getelementptr inbounds %struct.State, %struct.State* %0, i32 0, i32 6
  %680 = getelementptr inbounds %struct.GPR, %struct.GPR* %679, i32 0, i32 33
  %681 = getelementptr inbounds %struct.Reg, %struct.Reg* %680, i32 0, i32 0
  %PC.i32 = bitcast %union.anon* %681 to i64*
  %682 = getelementptr inbounds %struct.State, %struct.State* %0, i32 0, i32 6
  %683 = getelementptr inbounds %struct.GPR, %struct.GPR* %682, i32 0, i32 1
  %684 = getelementptr inbounds %struct.Reg, %struct.Reg* %683, i32 0, i32 0
  %RAX.i33 = bitcast %union.anon* %684 to i64*
  %685 = getelementptr inbounds %struct.State, %struct.State* %0, i32 0, i32 6
  %686 = getelementptr inbounds %struct.GPR, %struct.GPR* %685, i32 0, i32 5
  %687 = getelementptr inbounds %struct.Reg, %struct.Reg* %686, i32 0, i32 0
  %RCX.i = bitcast %union.anon* %687 to i64*
  %688 = getelementptr inbounds %struct.State, %struct.State* %0, i32 0, i32 1
  %689 = getelementptr inbounds [32 x %union.VectorReg], [32 x %union.VectorReg]* %688, i64 0, i64 0
  %YMM0.i34 = bitcast %union.VectorReg* %689 to %"class.std::bitset"*
  %690 = bitcast %"class.std::bitset"* %YMM0.i34 to i8*
  %691 = load i64, i64* %RAX.i33
  %692 = load i64, i64* %RCX.i
  %693 = mul i64 %692, 8
  %694 = add i64 %693, %691
  %695 = load i64, i64* %PC.i32
  %696 = add i64 %695, 5
  store i64 %696, i64* %PC.i32
  %697 = inttoptr i64 %694 to double*
  %698 = load double, double* %697
  %699 = bitcast i8* %690 to double*
  store double %698, double* %699, align 1
  %700 = getelementptr inbounds i8, i8* %690, i64 8
  %701 = bitcast i8* %700 to double*
  store double 0.000000e+00, double* %701, align 1
  store %struct.Memory* %loadMem_407726, %struct.Memory** %MEMORY
  %loadMem1_40772b = load %struct.Memory*, %struct.Memory** %MEMORY
  %702 = getelementptr inbounds %struct.State, %struct.State* %0, i32 0, i32 6
  %703 = getelementptr inbounds %struct.GPR, %struct.GPR* %702, i32 0, i32 33
  %704 = getelementptr inbounds %struct.Reg, %struct.Reg* %703, i32 0, i32 0
  %PC.i31 = bitcast %union.anon* %704 to i64*
  %705 = load i64, i64* %PC.i31
  %706 = add i64 %705, -25211
  %707 = load i64, i64* %PC.i31
  %708 = add i64 %707, 5
  %709 = load i64, i64* %PC.i31
  %710 = add i64 %709, 5
  store i64 %710, i64* %PC.i31
  %711 = getelementptr inbounds %struct.State, %struct.State* %0, i64 0, i32 6, i32 13, i32 0, i32 0
  %712 = load i64, i64* %711, align 8
  %713 = add i64 %712, -8
  %714 = inttoptr i64 %713 to i64*
  store i64 %708, i64* %714
  store i64 %713, i64* %711, align 8
  %715 = getelementptr inbounds %struct.State, %struct.State* %0, i64 0, i32 6, i32 33, i32 0, i32 0
  store i64 %706, i64* %715, align 8
  store %struct.Memory* %loadMem1_40772b, %struct.Memory** %MEMORY
  %loadMem2_40772b = load %struct.Memory*, %struct.Memory** %MEMORY
  %loadPC_40772b = load i64, i64* %3
  %call2_40772b = call %struct.Memory* @sub_4014b0._Z18complete_hash_funcIdET_S0_(%struct.State* %0, i64 %loadPC_40772b, %struct.Memory* %loadMem2_40772b)
  store %struct.Memory* %call2_40772b, %struct.Memory** %MEMORY
  %loadMem_407730 = load %struct.Memory*, %struct.Memory** %MEMORY
  %716 = getelementptr inbounds %struct.State, %struct.State* %0, i32 0, i32 6
  %717 = getelementptr inbounds %struct.GPR, %struct.GPR* %716, i32 0, i32 33
  %718 = getelementptr inbounds %struct.Reg, %struct.Reg* %717, i32 0, i32 0
  %PC.i28 = bitcast %union.anon* %718 to i64*
  %719 = getelementptr inbounds %struct.State, %struct.State* %0, i32 0, i32 6
  %720 = getelementptr inbounds %struct.GPR, %struct.GPR* %719, i32 0, i32 15
  %721 = getelementptr inbounds %struct.Reg, %struct.Reg* %720, i32 0, i32 0
  %RBP.i29 = bitcast %union.anon* %721 to i64*
  %722 = getelementptr inbounds %struct.State, %struct.State* %0, i32 0, i32 1
  %723 = getelementptr inbounds [32 x %union.VectorReg], [32 x %union.VectorReg]* %722, i64 0, i64 0
  %YMM0.i30 = bitcast %union.VectorReg* %723 to %"class.std::bitset"*
  %724 = bitcast %"class.std::bitset"* %YMM0.i30 to i8*
  %725 = bitcast %"class.std::bitset"* %YMM0.i30 to i8*
  %726 = load i64, i64* %RBP.i29
  %727 = sub i64 %726, 40
  %728 = load i64, i64* %PC.i28
  %729 = add i64 %728, 5
  store i64 %729, i64* %PC.i28
  %730 = bitcast i8* %725 to double*
  %731 = load double, double* %730, align 1
  %732 = getelementptr inbounds i8, i8* %725, i64 8
  %733 = bitcast i8* %732 to i64*
  %734 = load i64, i64* %733, align 1
  %735 = inttoptr i64 %727 to double*
  %736 = load double, double* %735
  %737 = fadd double %731, %736
  %738 = bitcast i8* %724 to double*
  store double %737, double* %738, align 1
  %739 = getelementptr inbounds i8, i8* %724, i64 8
  %740 = bitcast i8* %739 to i64*
  store i64 %734, i64* %740, align 1
  store %struct.Memory* %loadMem_407730, %struct.Memory** %MEMORY
  %loadMem_407735 = load %struct.Memory*, %struct.Memory** %MEMORY
  %741 = getelementptr inbounds %struct.State, %struct.State* %0, i32 0, i32 6
  %742 = getelementptr inbounds %struct.GPR, %struct.GPR* %741, i32 0, i32 33
  %743 = getelementptr inbounds %struct.Reg, %struct.Reg* %742, i32 0, i32 0
  %PC.i26 = bitcast %union.anon* %743 to i64*
  %744 = getelementptr inbounds %struct.State, %struct.State* %0, i32 0, i32 6
  %745 = getelementptr inbounds %struct.GPR, %struct.GPR* %744, i32 0, i32 15
  %746 = getelementptr inbounds %struct.Reg, %struct.Reg* %745, i32 0, i32 0
  %RBP.i27 = bitcast %union.anon* %746 to i64*
  %747 = getelementptr inbounds %struct.State, %struct.State* %0, i32 0, i32 1
  %748 = getelementptr inbounds [32 x %union.VectorReg], [32 x %union.VectorReg]* %747, i64 0, i64 0
  %XMM0.i = bitcast %union.VectorReg* %748 to %union.vec128_t*
  %749 = load i64, i64* %RBP.i27
  %750 = sub i64 %749, 40
  %751 = bitcast %union.vec128_t* %XMM0.i to i8*
  %752 = load i64, i64* %PC.i26
  %753 = add i64 %752, 5
  store i64 %753, i64* %PC.i26
  %754 = bitcast i8* %751 to double*
  %755 = load double, double* %754, align 1
  %756 = inttoptr i64 %750 to double*
  store double %755, double* %756
  store %struct.Memory* %loadMem_407735, %struct.Memory** %MEMORY
  %loadMem_40773a = load %struct.Memory*, %struct.Memory** %MEMORY
  %757 = getelementptr inbounds %struct.State, %struct.State* %0, i32 0, i32 6
  %758 = getelementptr inbounds %struct.GPR, %struct.GPR* %757, i32 0, i32 33
  %759 = getelementptr inbounds %struct.Reg, %struct.Reg* %758, i32 0, i32 0
  %PC.i23 = bitcast %union.anon* %759 to i64*
  %760 = getelementptr inbounds %struct.State, %struct.State* %0, i32 0, i32 6
  %761 = getelementptr inbounds %struct.GPR, %struct.GPR* %760, i32 0, i32 7
  %762 = getelementptr inbounds %struct.Reg, %struct.Reg* %761, i32 0, i32 0
  %RDX.i24 = bitcast %union.anon* %762 to i64*
  %763 = getelementptr inbounds %struct.State, %struct.State* %0, i32 0, i32 6
  %764 = getelementptr inbounds %struct.GPR, %struct.GPR* %763, i32 0, i32 15
  %765 = getelementptr inbounds %struct.Reg, %struct.Reg* %764, i32 0, i32 0
  %RBP.i25 = bitcast %union.anon* %765 to i64*
  %766 = load i64, i64* %RBP.i25
  %767 = sub i64 %766, 44
  %768 = load i64, i64* %PC.i23
  %769 = add i64 %768, 3
  store i64 %769, i64* %PC.i23
  %770 = inttoptr i64 %767 to i32*
  %771 = load i32, i32* %770
  %772 = zext i32 %771 to i64
  store i64 %772, i64* %RDX.i24, align 8
  store %struct.Memory* %loadMem_40773a, %struct.Memory** %MEMORY
  %loadMem_40773d = load %struct.Memory*, %struct.Memory** %MEMORY
  %773 = getelementptr inbounds %struct.State, %struct.State* %0, i32 0, i32 6
  %774 = getelementptr inbounds %struct.GPR, %struct.GPR* %773, i32 0, i32 33
  %775 = getelementptr inbounds %struct.Reg, %struct.Reg* %774, i32 0, i32 0
  %PC.i22 = bitcast %union.anon* %775 to i64*
  %776 = getelementptr inbounds %struct.State, %struct.State* %0, i32 0, i32 6
  %777 = getelementptr inbounds %struct.GPR, %struct.GPR* %776, i32 0, i32 7
  %778 = getelementptr inbounds %struct.Reg, %struct.Reg* %777, i32 0, i32 0
  %RDX.i = bitcast %union.anon* %778 to i64*
  %779 = load i64, i64* %RDX.i
  %780 = load i64, i64* %PC.i22
  %781 = add i64 %780, 3
  store i64 %781, i64* %PC.i22
  %782 = trunc i64 %779 to i32
  %783 = add i32 1, %782
  %784 = zext i32 %783 to i64
  store i64 %784, i64* %RDX.i, align 8
  %785 = icmp ult i32 %783, %782
  %786 = icmp ult i32 %783, 1
  %787 = or i1 %785, %786
  %788 = zext i1 %787 to i8
  %789 = getelementptr inbounds %struct.State, %struct.State* %0, i64 0, i32 2, i32 1
  store i8 %788, i8* %789, align 1
  %790 = and i32 %783, 255
  %791 = call i32 @llvm.ctpop.i32(i32 %790)
  %792 = trunc i32 %791 to i8
  %793 = and i8 %792, 1
  %794 = xor i8 %793, 1
  %795 = getelementptr inbounds %struct.State, %struct.State* %0, i64 0, i32 2, i32 3
  store i8 %794, i8* %795, align 1
  %796 = xor i64 1, %779
  %797 = trunc i64 %796 to i32
  %798 = xor i32 %797, %783
  %799 = lshr i32 %798, 4
  %800 = trunc i32 %799 to i8
  %801 = and i8 %800, 1
  %802 = getelementptr inbounds %struct.State, %struct.State* %0, i64 0, i32 2, i32 5
  store i8 %801, i8* %802, align 1
  %803 = icmp eq i32 %783, 0
  %804 = zext i1 %803 to i8
  %805 = getelementptr inbounds %struct.State, %struct.State* %0, i64 0, i32 2, i32 7
  store i8 %804, i8* %805, align 1
  %806 = lshr i32 %783, 31
  %807 = trunc i32 %806 to i8
  %808 = getelementptr inbounds %struct.State, %struct.State* %0, i64 0, i32 2, i32 9
  store i8 %807, i8* %808, align 1
  %809 = lshr i32 %782, 31
  %810 = xor i32 %806, %809
  %811 = add i32 %810, %806
  %812 = icmp eq i32 %811, 2
  %813 = zext i1 %812 to i8
  %814 = getelementptr inbounds %struct.State, %struct.State* %0, i64 0, i32 2, i32 13
  store i8 %813, i8* %814, align 1
  store %struct.Memory* %loadMem_40773d, %struct.Memory** %MEMORY
  %loadMem_407740 = load %struct.Memory*, %struct.Memory** %MEMORY
  %815 = getelementptr inbounds %struct.State, %struct.State* %0, i32 0, i32 6
  %816 = getelementptr inbounds %struct.GPR, %struct.GPR* %815, i32 0, i32 33
  %817 = getelementptr inbounds %struct.Reg, %struct.Reg* %816, i32 0, i32 0
  %PC.i20 = bitcast %union.anon* %817 to i64*
  %818 = getelementptr inbounds %struct.State, %struct.State* %0, i32 0, i32 6
  %819 = getelementptr inbounds %struct.GPR, %struct.GPR* %818, i32 0, i32 7
  %820 = getelementptr inbounds %struct.Reg, %struct.Reg* %819, i32 0, i32 0
  %EDX.i = bitcast %union.anon* %820 to i32*
  %821 = getelementptr inbounds %struct.State, %struct.State* %0, i32 0, i32 6
  %822 = getelementptr inbounds %struct.GPR, %struct.GPR* %821, i32 0, i32 15
  %823 = getelementptr inbounds %struct.Reg, %struct.Reg* %822, i32 0, i32 0
  %RBP.i21 = bitcast %union.anon* %823 to i64*
  %824 = load i64, i64* %RBP.i21
  %825 = sub i64 %824, 44
  %826 = load i32, i32* %EDX.i
  %827 = zext i32 %826 to i64
  %828 = load i64, i64* %PC.i20
  %829 = add i64 %828, 3
  store i64 %829, i64* %PC.i20
  %830 = inttoptr i64 %825 to i32*
  store i32 %826, i32* %830
  store %struct.Memory* %loadMem_407740, %struct.Memory** %MEMORY
  %loadMem_407743 = load %struct.Memory*, %struct.Memory** %MEMORY
  %831 = getelementptr inbounds %struct.State, %struct.State* %0, i32 0, i32 6
  %832 = getelementptr inbounds %struct.GPR, %struct.GPR* %831, i32 0, i32 33
  %833 = getelementptr inbounds %struct.Reg, %struct.Reg* %832, i32 0, i32 0
  %PC.i19 = bitcast %union.anon* %833 to i64*
  %834 = load i64, i64* %PC.i19
  %835 = add i64 %834, -49
  %836 = load i64, i64* %PC.i19
  %837 = add i64 %836, 5
  store i64 %837, i64* %PC.i19
  %838 = getelementptr inbounds %struct.State, %struct.State* %0, i64 0, i32 6, i32 33, i32 0, i32 0
  store i64 %835, i64* %838, align 8
  store %struct.Memory* %loadMem_407743, %struct.Memory** %MEMORY
  br label %block_.L_407712

block_.L_407748:                                  ; preds = %block_.L_407712
  %loadMem_407748 = load %struct.Memory*, %struct.Memory** %MEMORY
  %839 = getelementptr inbounds %struct.State, %struct.State* %0, i32 0, i32 6
  %840 = getelementptr inbounds %struct.GPR, %struct.GPR* %839, i32 0, i32 33
  %841 = getelementptr inbounds %struct.Reg, %struct.Reg* %840, i32 0, i32 0
  %PC.i17 = bitcast %union.anon* %841 to i64*
  %842 = getelementptr inbounds %struct.State, %struct.State* %0, i32 0, i32 6
  %843 = getelementptr inbounds %struct.GPR, %struct.GPR* %842, i32 0, i32 15
  %844 = getelementptr inbounds %struct.Reg, %struct.Reg* %843, i32 0, i32 0
  %RBP.i18 = bitcast %union.anon* %844 to i64*
  %845 = getelementptr inbounds %struct.State, %struct.State* %0, i32 0, i32 1
  %846 = getelementptr inbounds [32 x %union.VectorReg], [32 x %union.VectorReg]* %845, i64 0, i64 0
  %YMM0.i = bitcast %union.VectorReg* %846 to %"class.std::bitset"*
  %847 = bitcast %"class.std::bitset"* %YMM0.i to i8*
  %848 = load i64, i64* %RBP.i18
  %849 = sub i64 %848, 40
  %850 = load i64, i64* %PC.i17
  %851 = add i64 %850, 5
  store i64 %851, i64* %PC.i17
  %852 = inttoptr i64 %849 to double*
  %853 = load double, double* %852
  %854 = bitcast i8* %847 to double*
  store double %853, double* %854, align 1
  %855 = getelementptr inbounds i8, i8* %847, i64 8
  %856 = bitcast i8* %855 to double*
  store double 0.000000e+00, double* %856, align 1
  store %struct.Memory* %loadMem_407748, %struct.Memory** %MEMORY
  %loadMem1_40774d = load %struct.Memory*, %struct.Memory** %MEMORY
  %857 = getelementptr inbounds %struct.State, %struct.State* %0, i32 0, i32 6
  %858 = getelementptr inbounds %struct.GPR, %struct.GPR* %857, i32 0, i32 33
  %859 = getelementptr inbounds %struct.Reg, %struct.Reg* %858, i32 0, i32 0
  %PC.i16 = bitcast %union.anon* %859 to i64*
  %860 = load i64, i64* %PC.i16
  %861 = add i64 %860, -25197
  %862 = load i64, i64* %PC.i16
  %863 = add i64 %862, 5
  %864 = load i64, i64* %PC.i16
  %865 = add i64 %864, 5
  store i64 %865, i64* %PC.i16
  %866 = getelementptr inbounds %struct.State, %struct.State* %0, i64 0, i32 6, i32 13, i32 0, i32 0
  %867 = load i64, i64* %866, align 8
  %868 = add i64 %867, -8
  %869 = inttoptr i64 %868 to i64*
  store i64 %863, i64* %869
  store i64 %868, i64* %866, align 8
  %870 = getelementptr inbounds %struct.State, %struct.State* %0, i64 0, i32 6, i32 33, i32 0, i32 0
  store i64 %861, i64* %870, align 8
  store %struct.Memory* %loadMem1_40774d, %struct.Memory** %MEMORY
  %loadMem2_40774d = load %struct.Memory*, %struct.Memory** %MEMORY
  %loadPC_40774d = load i64, i64* %3
  %call2_40774d = call %struct.Memory* @sub_4014e0._Z9check_sumIdEvT_(%struct.State* %0, i64 %loadPC_40774d, %struct.Memory* %loadMem2_40774d)
  store %struct.Memory* %call2_40774d, %struct.Memory** %MEMORY
  %loadMem_407752 = load %struct.Memory*, %struct.Memory** %MEMORY
  %871 = getelementptr inbounds %struct.State, %struct.State* %0, i32 0, i32 6
  %872 = getelementptr inbounds %struct.GPR, %struct.GPR* %871, i32 0, i32 33
  %873 = getelementptr inbounds %struct.Reg, %struct.Reg* %872, i32 0, i32 0
  %PC.i13 = bitcast %union.anon* %873 to i64*
  %874 = getelementptr inbounds %struct.State, %struct.State* %0, i32 0, i32 6
  %875 = getelementptr inbounds %struct.GPR, %struct.GPR* %874, i32 0, i32 1
  %876 = getelementptr inbounds %struct.Reg, %struct.Reg* %875, i32 0, i32 0
  %RAX.i14 = bitcast %union.anon* %876 to i64*
  %877 = getelementptr inbounds %struct.State, %struct.State* %0, i32 0, i32 6
  %878 = getelementptr inbounds %struct.GPR, %struct.GPR* %877, i32 0, i32 15
  %879 = getelementptr inbounds %struct.Reg, %struct.Reg* %878, i32 0, i32 0
  %RBP.i15 = bitcast %union.anon* %879 to i64*
  %880 = load i64, i64* %RBP.i15
  %881 = sub i64 %880, 28
  %882 = load i64, i64* %PC.i13
  %883 = add i64 %882, 3
  store i64 %883, i64* %PC.i13
  %884 = inttoptr i64 %881 to i32*
  %885 = load i32, i32* %884
  %886 = zext i32 %885 to i64
  store i64 %886, i64* %RAX.i14, align 8
  store %struct.Memory* %loadMem_407752, %struct.Memory** %MEMORY
  %loadMem_407755 = load %struct.Memory*, %struct.Memory** %MEMORY
  %887 = getelementptr inbounds %struct.State, %struct.State* %0, i32 0, i32 6
  %888 = getelementptr inbounds %struct.GPR, %struct.GPR* %887, i32 0, i32 33
  %889 = getelementptr inbounds %struct.Reg, %struct.Reg* %888, i32 0, i32 0
  %PC.i12 = bitcast %union.anon* %889 to i64*
  %890 = getelementptr inbounds %struct.State, %struct.State* %0, i32 0, i32 6
  %891 = getelementptr inbounds %struct.GPR, %struct.GPR* %890, i32 0, i32 1
  %892 = getelementptr inbounds %struct.Reg, %struct.Reg* %891, i32 0, i32 0
  %RAX.i = bitcast %union.anon* %892 to i64*
  %893 = load i64, i64* %RAX.i
  %894 = load i64, i64* %PC.i12
  %895 = add i64 %894, 3
  store i64 %895, i64* %PC.i12
  %896 = trunc i64 %893 to i32
  %897 = add i32 1, %896
  %898 = zext i32 %897 to i64
  store i64 %898, i64* %RAX.i, align 8
  %899 = icmp ult i32 %897, %896
  %900 = icmp ult i32 %897, 1
  %901 = or i1 %899, %900
  %902 = zext i1 %901 to i8
  %903 = getelementptr inbounds %struct.State, %struct.State* %0, i64 0, i32 2, i32 1
  store i8 %902, i8* %903, align 1
  %904 = and i32 %897, 255
  %905 = call i32 @llvm.ctpop.i32(i32 %904)
  %906 = trunc i32 %905 to i8
  %907 = and i8 %906, 1
  %908 = xor i8 %907, 1
  %909 = getelementptr inbounds %struct.State, %struct.State* %0, i64 0, i32 2, i32 3
  store i8 %908, i8* %909, align 1
  %910 = xor i64 1, %893
  %911 = trunc i64 %910 to i32
  %912 = xor i32 %911, %897
  %913 = lshr i32 %912, 4
  %914 = trunc i32 %913 to i8
  %915 = and i8 %914, 1
  %916 = getelementptr inbounds %struct.State, %struct.State* %0, i64 0, i32 2, i32 5
  store i8 %915, i8* %916, align 1
  %917 = icmp eq i32 %897, 0
  %918 = zext i1 %917 to i8
  %919 = getelementptr inbounds %struct.State, %struct.State* %0, i64 0, i32 2, i32 7
  store i8 %918, i8* %919, align 1
  %920 = lshr i32 %897, 31
  %921 = trunc i32 %920 to i8
  %922 = getelementptr inbounds %struct.State, %struct.State* %0, i64 0, i32 2, i32 9
  store i8 %921, i8* %922, align 1
  %923 = lshr i32 %896, 31
  %924 = xor i32 %920, %923
  %925 = add i32 %924, %920
  %926 = icmp eq i32 %925, 2
  %927 = zext i1 %926 to i8
  %928 = getelementptr inbounds %struct.State, %struct.State* %0, i64 0, i32 2, i32 13
  store i8 %927, i8* %928, align 1
  store %struct.Memory* %loadMem_407755, %struct.Memory** %MEMORY
  %loadMem_407758 = load %struct.Memory*, %struct.Memory** %MEMORY
  %929 = getelementptr inbounds %struct.State, %struct.State* %0, i32 0, i32 6
  %930 = getelementptr inbounds %struct.GPR, %struct.GPR* %929, i32 0, i32 33
  %931 = getelementptr inbounds %struct.Reg, %struct.Reg* %930, i32 0, i32 0
  %PC.i10 = bitcast %union.anon* %931 to i64*
  %932 = getelementptr inbounds %struct.State, %struct.State* %0, i32 0, i32 6
  %933 = getelementptr inbounds %struct.GPR, %struct.GPR* %932, i32 0, i32 1
  %934 = getelementptr inbounds %struct.Reg, %struct.Reg* %933, i32 0, i32 0
  %EAX.i = bitcast %union.anon* %934 to i32*
  %935 = getelementptr inbounds %struct.State, %struct.State* %0, i32 0, i32 6
  %936 = getelementptr inbounds %struct.GPR, %struct.GPR* %935, i32 0, i32 15
  %937 = getelementptr inbounds %struct.Reg, %struct.Reg* %936, i32 0, i32 0
  %RBP.i11 = bitcast %union.anon* %937 to i64*
  %938 = load i64, i64* %RBP.i11
  %939 = sub i64 %938, 28
  %940 = load i32, i32* %EAX.i
  %941 = zext i32 %940 to i64
  %942 = load i64, i64* %PC.i10
  %943 = add i64 %942, 3
  store i64 %943, i64* %PC.i10
  %944 = inttoptr i64 %939 to i32*
  store i32 %940, i32* %944
  store %struct.Memory* %loadMem_407758, %struct.Memory** %MEMORY
  %loadMem_40775b = load %struct.Memory*, %struct.Memory** %MEMORY
  %945 = getelementptr inbounds %struct.State, %struct.State* %0, i32 0, i32 6
  %946 = getelementptr inbounds %struct.GPR, %struct.GPR* %945, i32 0, i32 33
  %947 = getelementptr inbounds %struct.Reg, %struct.Reg* %946, i32 0, i32 0
  %PC.i9 = bitcast %union.anon* %947 to i64*
  %948 = load i64, i64* %PC.i9
  %949 = add i64 %948, -156
  %950 = load i64, i64* %PC.i9
  %951 = add i64 %950, 5
  store i64 %951, i64* %PC.i9
  %952 = getelementptr inbounds %struct.State, %struct.State* %0, i64 0, i32 6, i32 33, i32 0, i32 0
  store i64 %949, i64* %952, align 8
  store %struct.Memory* %loadMem_40775b, %struct.Memory** %MEMORY
  br label %block_.L_4076bf

block_.L_407760:                                  ; preds = %block_.L_4076bf
  %loadMem1_407760 = load %struct.Memory*, %struct.Memory** %MEMORY
  %953 = getelementptr inbounds %struct.State, %struct.State* %0, i32 0, i32 6
  %954 = getelementptr inbounds %struct.GPR, %struct.GPR* %953, i32 0, i32 33
  %955 = getelementptr inbounds %struct.Reg, %struct.Reg* %954, i32 0, i32 0
  %PC.i8 = bitcast %union.anon* %955 to i64*
  %956 = load i64, i64* %PC.i8
  %957 = add i64 %956, -26944
  %958 = load i64, i64* %PC.i8
  %959 = add i64 %958, 5
  %960 = load i64, i64* %PC.i8
  %961 = add i64 %960, 5
  store i64 %961, i64* %PC.i8
  %962 = getelementptr inbounds %struct.State, %struct.State* %0, i64 0, i32 6, i32 13, i32 0, i32 0
  %963 = load i64, i64* %962, align 8
  %964 = add i64 %963, -8
  %965 = inttoptr i64 %964 to i64*
  store i64 %959, i64* %965
  store i64 %964, i64* %962, align 8
  %966 = getelementptr inbounds %struct.State, %struct.State* %0, i64 0, i32 6, i32 33, i32 0, i32 0
  store i64 %957, i64* %966, align 8
  store %struct.Memory* %loadMem1_407760, %struct.Memory** %MEMORY
  %loadMem2_407760 = load %struct.Memory*, %struct.Memory** %MEMORY
  %loadPC_407760 = load i64, i64* %3
  %call2_407760 = call %struct.Memory* @sub_400e20._Z5timerv(%struct.State* %0, i64 %loadPC_407760, %struct.Memory* %loadMem2_407760)
  store %struct.Memory* %call2_407760, %struct.Memory** %MEMORY
  %loadMem_407765 = load %struct.Memory*, %struct.Memory** %MEMORY
  %967 = getelementptr inbounds %struct.State, %struct.State* %0, i32 0, i32 6
  %968 = getelementptr inbounds %struct.GPR, %struct.GPR* %967, i32 0, i32 33
  %969 = getelementptr inbounds %struct.Reg, %struct.Reg* %968, i32 0, i32 0
  %PC.i6 = bitcast %union.anon* %969 to i64*
  %970 = getelementptr inbounds %struct.State, %struct.State* %0, i32 0, i32 6
  %971 = getelementptr inbounds %struct.GPR, %struct.GPR* %970, i32 0, i32 11
  %972 = getelementptr inbounds %struct.Reg, %struct.Reg* %971, i32 0, i32 0
  %RDI.i = bitcast %union.anon* %972 to i64*
  %973 = getelementptr inbounds %struct.State, %struct.State* %0, i32 0, i32 6
  %974 = getelementptr inbounds %struct.GPR, %struct.GPR* %973, i32 0, i32 15
  %975 = getelementptr inbounds %struct.Reg, %struct.Reg* %974, i32 0, i32 0
  %RBP.i7 = bitcast %union.anon* %975 to i64*
  %976 = load i64, i64* %RBP.i7
  %977 = sub i64 %976, 24
  %978 = load i64, i64* %PC.i6
  %979 = add i64 %978, 4
  store i64 %979, i64* %PC.i6
  %980 = inttoptr i64 %977 to i64*
  %981 = load i64, i64* %980
  store i64 %981, i64* %RDI.i, align 8
  store %struct.Memory* %loadMem_407765, %struct.Memory** %MEMORY
  %loadMem1_407769 = load %struct.Memory*, %struct.Memory** %MEMORY
  %982 = getelementptr inbounds %struct.State, %struct.State* %0, i32 0, i32 6
  %983 = getelementptr inbounds %struct.GPR, %struct.GPR* %982, i32 0, i32 33
  %984 = getelementptr inbounds %struct.Reg, %struct.Reg* %983, i32 0, i32 0
  %PC.i5 = bitcast %union.anon* %984 to i64*
  %985 = load i64, i64* %PC.i5
  %986 = add i64 %985, -28585
  %987 = load i64, i64* %PC.i5
  %988 = add i64 %987, 5
  %989 = load i64, i64* %PC.i5
  %990 = add i64 %989, 5
  store i64 %990, i64* %PC.i5
  %991 = getelementptr inbounds %struct.State, %struct.State* %0, i64 0, i32 6, i32 13, i32 0, i32 0
  %992 = load i64, i64* %991, align 8
  %993 = add i64 %992, -8
  %994 = inttoptr i64 %993 to i64*
  store i64 %988, i64* %994
  store i64 %993, i64* %991, align 8
  %995 = getelementptr inbounds %struct.State, %struct.State* %0, i64 0, i32 6, i32 33, i32 0, i32 0
  store i64 %986, i64* %995, align 8
  store %struct.Memory* %loadMem1_407769, %struct.Memory** %MEMORY
  %loadMem2_407769 = load %struct.Memory*, %struct.Memory** %MEMORY
  %loadPC_407769 = load i64, i64* %3
  %call2_407769 = call %struct.Memory* @sub_4007c0._Z13record_resultdPKc(%struct.State* %0, i64 %loadPC_407769, %struct.Memory* %loadMem2_407769)
  store %struct.Memory* %call2_407769, %struct.Memory** %MEMORY
  %loadMem_40776e = load %struct.Memory*, %struct.Memory** %MEMORY
  %996 = getelementptr inbounds %struct.State, %struct.State* %0, i32 0, i32 6
  %997 = getelementptr inbounds %struct.GPR, %struct.GPR* %996, i32 0, i32 33
  %998 = getelementptr inbounds %struct.Reg, %struct.Reg* %997, i32 0, i32 0
  %PC.i4 = bitcast %union.anon* %998 to i64*
  %999 = getelementptr inbounds %struct.State, %struct.State* %0, i32 0, i32 6
  %1000 = getelementptr inbounds %struct.GPR, %struct.GPR* %999, i32 0, i32 13
  %1001 = getelementptr inbounds %struct.Reg, %struct.Reg* %1000, i32 0, i32 0
  %RSP.i = bitcast %union.anon* %1001 to i64*
  %1002 = load i64, i64* %RSP.i
  %1003 = load i64, i64* %PC.i4
  %1004 = add i64 %1003, 4
  store i64 %1004, i64* %PC.i4
  %1005 = add i64 48, %1002
  store i64 %1005, i64* %RSP.i, align 8
  %1006 = icmp ult i64 %1005, %1002
  %1007 = icmp ult i64 %1005, 48
  %1008 = or i1 %1006, %1007
  %1009 = zext i1 %1008 to i8
  %1010 = getelementptr inbounds %struct.State, %struct.State* %0, i64 0, i32 2, i32 1
  store i8 %1009, i8* %1010, align 1
  %1011 = trunc i64 %1005 to i32
  %1012 = and i32 %1011, 255
  %1013 = call i32 @llvm.ctpop.i32(i32 %1012)
  %1014 = trunc i32 %1013 to i8
  %1015 = and i8 %1014, 1
  %1016 = xor i8 %1015, 1
  %1017 = getelementptr inbounds %struct.State, %struct.State* %0, i64 0, i32 2, i32 3
  store i8 %1016, i8* %1017, align 1
  %1018 = xor i64 48, %1002
  %1019 = xor i64 %1018, %1005
  %1020 = lshr i64 %1019, 4
  %1021 = trunc i64 %1020 to i8
  %1022 = and i8 %1021, 1
  %1023 = getelementptr inbounds %struct.State, %struct.State* %0, i64 0, i32 2, i32 5
  store i8 %1022, i8* %1023, align 1
  %1024 = icmp eq i64 %1005, 0
  %1025 = zext i1 %1024 to i8
  %1026 = getelementptr inbounds %struct.State, %struct.State* %0, i64 0, i32 2, i32 7
  store i8 %1025, i8* %1026, align 1
  %1027 = lshr i64 %1005, 63
  %1028 = trunc i64 %1027 to i8
  %1029 = getelementptr inbounds %struct.State, %struct.State* %0, i64 0, i32 2, i32 9
  store i8 %1028, i8* %1029, align 1
  %1030 = lshr i64 %1002, 63
  %1031 = xor i64 %1027, %1030
  %1032 = add i64 %1031, %1027
  %1033 = icmp eq i64 %1032, 2
  %1034 = zext i1 %1033 to i8
  %1035 = getelementptr inbounds %struct.State, %struct.State* %0, i64 0, i32 2, i32 13
  store i8 %1034, i8* %1035, align 1
  store %struct.Memory* %loadMem_40776e, %struct.Memory** %MEMORY
  %loadMem_407772 = load %struct.Memory*, %struct.Memory** %MEMORY
  %1036 = getelementptr inbounds %struct.State, %struct.State* %0, i32 0, i32 6
  %1037 = getelementptr inbounds %struct.GPR, %struct.GPR* %1036, i32 0, i32 33
  %1038 = getelementptr inbounds %struct.Reg, %struct.Reg* %1037, i32 0, i32 0
  %PC.i2 = bitcast %union.anon* %1038 to i64*
  %1039 = getelementptr inbounds %struct.State, %struct.State* %0, i32 0, i32 6
  %1040 = getelementptr inbounds %struct.GPR, %struct.GPR* %1039, i32 0, i32 15
  %1041 = getelementptr inbounds %struct.Reg, %struct.Reg* %1040, i32 0, i32 0
  %RBP.i3 = bitcast %union.anon* %1041 to i64*
  %1042 = load i64, i64* %PC.i2
  %1043 = add i64 %1042, 1
  store i64 %1043, i64* %PC.i2
  %1044 = getelementptr inbounds %struct.State, %struct.State* %0, i64 0, i32 6, i32 13, i32 0, i32 0
  %1045 = load i64, i64* %1044, align 8
  %1046 = add i64 %1045, 8
  %1047 = inttoptr i64 %1045 to i64*
  %1048 = load i64, i64* %1047
  store i64 %1048, i64* %RBP.i3, align 8
  store i64 %1046, i64* %1044, align 8
  store %struct.Memory* %loadMem_407772, %struct.Memory** %MEMORY
  %loadMem_407773 = load %struct.Memory*, %struct.Memory** %MEMORY
  %1049 = getelementptr inbounds %struct.State, %struct.State* %0, i32 0, i32 6
  %1050 = getelementptr inbounds %struct.GPR, %struct.GPR* %1049, i32 0, i32 33
  %1051 = getelementptr inbounds %struct.Reg, %struct.Reg* %1050, i32 0, i32 0
  %PC.i1 = bitcast %union.anon* %1051 to i64*
  %1052 = load i64, i64* %PC.i1
  %1053 = add i64 %1052, 1
  store i64 %1053, i64* %PC.i1
  %1054 = getelementptr inbounds %struct.State, %struct.State* %0, i64 0, i32 6, i32 33, i32 0, i32 0
  %1055 = getelementptr inbounds %struct.State, %struct.State* %0, i64 0, i32 6, i32 13, i32 0, i32 0
  %1056 = load i64, i64* %1055, align 8
  %1057 = inttoptr i64 %1056 to i64*
  %1058 = load i64, i64* %1057
  store i64 %1058, i64* %1054, align 8
  %1059 = add i64 %1056, 8
  store i64 %1059, i64* %1055, align 8
  store %struct.Memory* %loadMem_407773, %struct.Memory** %MEMORY
  ret %struct.Memory* %loadMem_407773
}

define %struct.Memory* @routine_pushq__rbp(%struct.State* dereferenceable(3376), i64, %struct.Memory*) {
block_400488:
  %3 = getelementptr inbounds %struct.State, %struct.State* %0, i32 0, i32 6
  %4 = getelementptr inbounds %struct.GPR, %struct.GPR* %3, i32 0, i32 33
  %5 = getelementptr inbounds %struct.Reg, %struct.Reg* %4, i32 0, i32 0
  %PC = bitcast %union.anon* %5 to i64*
  %6 = getelementptr inbounds %struct.State, %struct.State* %0, i32 0, i32 6
  %7 = getelementptr inbounds %struct.GPR, %struct.GPR* %6, i32 0, i32 15
  %8 = getelementptr inbounds %struct.Reg, %struct.Reg* %7, i32 0, i32 0
  %RBP = bitcast %union.anon* %8 to i64*
  %9 = load i64, i64* %RBP
  %10 = load i64, i64* %PC
  %11 = add i64 %10, 1
  store i64 %11, i64* %PC
  %12 = getelementptr inbounds %struct.State, %struct.State* %0, i64 0, i32 6, i32 13, i32 0, i32 0
  %13 = load i64, i64* %12, align 8
  %14 = add i64 %13, -8
  %15 = inttoptr i64 %14 to i64*
  store i64 %9, i64* %15
  store i64 %14, i64* %12, align 8
  ret %struct.Memory* %2
}

define %struct.Memory* @routine_movq__rsp___rbp(%struct.State* dereferenceable(3376), i64, %struct.Memory*) {
block_400488:
  %3 = getelementptr inbounds %struct.State, %struct.State* %0, i32 0, i32 6
  %4 = getelementptr inbounds %struct.GPR, %struct.GPR* %3, i32 0, i32 33
  %5 = getelementptr inbounds %struct.Reg, %struct.Reg* %4, i32 0, i32 0
  %PC = bitcast %union.anon* %5 to i64*
  %6 = getelementptr inbounds %struct.State, %struct.State* %0, i32 0, i32 6
  %7 = getelementptr inbounds %struct.GPR, %struct.GPR* %6, i32 0, i32 13
  %8 = getelementptr inbounds %struct.Reg, %struct.Reg* %7, i32 0, i32 0
  %RSP = bitcast %union.anon* %8 to i64*
  %9 = getelementptr inbounds %struct.State, %struct.State* %0, i32 0, i32 6
  %10 = getelementptr inbounds %struct.GPR, %struct.GPR* %9, i32 0, i32 15
  %11 = getelementptr inbounds %struct.Reg, %struct.Reg* %10, i32 0, i32 0
  %RBP = bitcast %union.anon* %11 to i64*
  %12 = load i64, i64* %RSP
  %13 = load i64, i64* %PC
  %14 = add i64 %13, 3
  store i64 %14, i64* %PC
  store i64 %12, i64* %RBP, align 8
  ret %struct.Memory* %2
}

define %struct.Memory* @routine_subq__0x30___rsp(%struct.State* dereferenceable(3376), i64, %struct.Memory*) {
block_400488:
  %3 = getelementptr inbounds %struct.State, %struct.State* %0, i32 0, i32 6
  %4 = getelementptr inbounds %struct.GPR, %struct.GPR* %3, i32 0, i32 33
  %5 = getelementptr inbounds %struct.Reg, %struct.Reg* %4, i32 0, i32 0
  %PC = bitcast %union.anon* %5 to i64*
  %6 = getelementptr inbounds %struct.State, %struct.State* %0, i32 0, i32 6
  %7 = getelementptr inbounds %struct.GPR, %struct.GPR* %6, i32 0, i32 13
  %8 = getelementptr inbounds %struct.Reg, %struct.Reg* %7, i32 0, i32 0
  %RSP = bitcast %union.anon* %8 to i64*
  %9 = load i64, i64* %RSP
  %10 = load i64, i64* %PC
  %11 = add i64 %10, 4
  store i64 %11, i64* %PC
  %12 = sub i64 %9, 48
  store i64 %12, i64* %RSP, align 8
  %13 = icmp ult i64 %9, 48
  %14 = zext i1 %13 to i8
  %15 = getelementptr inbounds %struct.State, %struct.State* %0, i64 0, i32 2, i32 1
  store i8 %14, i8* %15, align 1
  %16 = trunc i64 %12 to i32
  %17 = and i32 %16, 255
  %18 = call i32 @llvm.ctpop.i32(i32 %17)
  %19 = trunc i32 %18 to i8
  %20 = and i8 %19, 1
  %21 = xor i8 %20, 1
  %22 = getelementptr inbounds %struct.State, %struct.State* %0, i64 0, i32 2, i32 3
  store i8 %21, i8* %22, align 1
  %23 = xor i64 48, %9
  %24 = xor i64 %23, %12
  %25 = lshr i64 %24, 4
  %26 = trunc i64 %25 to i8
  %27 = and i8 %26, 1
  %28 = getelementptr inbounds %struct.State, %struct.State* %0, i64 0, i32 2, i32 5
  store i8 %27, i8* %28, align 1
  %29 = icmp eq i64 %12, 0
  %30 = zext i1 %29 to i8
  %31 = getelementptr inbounds %struct.State, %struct.State* %0, i64 0, i32 2, i32 7
  store i8 %30, i8* %31, align 1
  %32 = lshr i64 %12, 63
  %33 = trunc i64 %32 to i8
  %34 = getelementptr inbounds %struct.State, %struct.State* %0, i64 0, i32 2, i32 9
  store i8 %33, i8* %34, align 1
  %35 = lshr i64 %9, 63
  %36 = xor i64 %32, %35
  %37 = add i64 %36, %35
  %38 = icmp eq i64 %37, 2
  %39 = zext i1 %38 to i8
  %40 = getelementptr inbounds %struct.State, %struct.State* %0, i64 0, i32 2, i32 13
  store i8 %39, i8* %40, align 1
  ret %struct.Memory* %2
}

define %struct.Memory* @routine_movq__rdi__MINUS0x8__rbp_(%struct.State* dereferenceable(3376), i64, %struct.Memory*) {
block_400488:
  %3 = getelementptr inbounds %struct.State, %struct.State* %0, i32 0, i32 6
  %4 = getelementptr inbounds %struct.GPR, %struct.GPR* %3, i32 0, i32 33
  %5 = getelementptr inbounds %struct.Reg, %struct.Reg* %4, i32 0, i32 0
  %PC = bitcast %union.anon* %5 to i64*
  %6 = getelementptr inbounds %struct.State, %struct.State* %0, i32 0, i32 6
  %7 = getelementptr inbounds %struct.GPR, %struct.GPR* %6, i32 0, i32 11
  %8 = getelementptr inbounds %struct.Reg, %struct.Reg* %7, i32 0, i32 0
  %RDI = bitcast %union.anon* %8 to i64*
  %9 = getelementptr inbounds %struct.State, %struct.State* %0, i32 0, i32 6
  %10 = getelementptr inbounds %struct.GPR, %struct.GPR* %9, i32 0, i32 15
  %11 = getelementptr inbounds %struct.Reg, %struct.Reg* %10, i32 0, i32 0
  %RBP = bitcast %union.anon* %11 to i64*
  %12 = load i64, i64* %RBP
  %13 = sub i64 %12, 8
  %14 = load i64, i64* %RDI
  %15 = load i64, i64* %PC
  %16 = add i64 %15, 4
  store i64 %16, i64* %PC
  %17 = inttoptr i64 %13 to i64*
  store i64 %14, i64* %17
  ret %struct.Memory* %2
}

define %struct.Memory* @routine_movl__esi__MINUS0xc__rbp_(%struct.State* dereferenceable(3376), i64, %struct.Memory*) {
block_400488:
  %3 = getelementptr inbounds %struct.State, %struct.State* %0, i32 0, i32 6
  %4 = getelementptr inbounds %struct.GPR, %struct.GPR* %3, i32 0, i32 33
  %5 = getelementptr inbounds %struct.Reg, %struct.Reg* %4, i32 0, i32 0
  %PC = bitcast %union.anon* %5 to i64*
  %6 = getelementptr inbounds %struct.State, %struct.State* %0, i32 0, i32 6
  %7 = getelementptr inbounds %struct.GPR, %struct.GPR* %6, i32 0, i32 9
  %8 = getelementptr inbounds %struct.Reg, %struct.Reg* %7, i32 0, i32 0
  %ESI = bitcast %union.anon* %8 to i32*
  %9 = getelementptr inbounds %struct.State, %struct.State* %0, i32 0, i32 6
  %10 = getelementptr inbounds %struct.GPR, %struct.GPR* %9, i32 0, i32 15
  %11 = getelementptr inbounds %struct.Reg, %struct.Reg* %10, i32 0, i32 0
  %RBP = bitcast %union.anon* %11 to i64*
  %12 = load i64, i64* %RBP
  %13 = sub i64 %12, 12
  %14 = load i32, i32* %ESI
  %15 = zext i32 %14 to i64
  %16 = load i64, i64* %PC
  %17 = add i64 %16, 3
  store i64 %17, i64* %PC
  %18 = inttoptr i64 %13 to i32*
  store i32 %14, i32* %18
  ret %struct.Memory* %2
}

define %struct.Memory* @routine_movq__rdx__MINUS0x18__rbp_(%struct.State* dereferenceable(3376), i64, %struct.Memory*) {
block_400488:
  %3 = getelementptr inbounds %struct.State, %struct.State* %0, i32 0, i32 6
  %4 = getelementptr inbounds %struct.GPR, %struct.GPR* %3, i32 0, i32 33
  %5 = getelementptr inbounds %struct.Reg, %struct.Reg* %4, i32 0, i32 0
  %PC = bitcast %union.anon* %5 to i64*
  %6 = getelementptr inbounds %struct.State, %struct.State* %0, i32 0, i32 6
  %7 = getelementptr inbounds %struct.GPR, %struct.GPR* %6, i32 0, i32 7
  %8 = getelementptr inbounds %struct.Reg, %struct.Reg* %7, i32 0, i32 0
  %RDX = bitcast %union.anon* %8 to i64*
  %9 = getelementptr inbounds %struct.State, %struct.State* %0, i32 0, i32 6
  %10 = getelementptr inbounds %struct.GPR, %struct.GPR* %9, i32 0, i32 15
  %11 = getelementptr inbounds %struct.Reg, %struct.Reg* %10, i32 0, i32 0
  %RBP = bitcast %union.anon* %11 to i64*
  %12 = load i64, i64* %RBP
  %13 = sub i64 %12, 24
  %14 = load i64, i64* %RDX
  %15 = load i64, i64* %PC
  %16 = add i64 %15, 4
  store i64 %16, i64* %PC
  %17 = inttoptr i64 %13 to i64*
  store i64 %14, i64* %17
  ret %struct.Memory* %2
}

define %struct.Memory* @routine_callq_._Z11start_timerv(%struct.State* dereferenceable(3376), i64, %struct.Memory*, i64 %rel_off1, i64 %rel_off2, i64 %rel_off3) {
block_400488:
  %3 = getelementptr inbounds %struct.State, %struct.State* %0, i32 0, i32 6
  %4 = getelementptr inbounds %struct.GPR, %struct.GPR* %3, i32 0, i32 33
  %5 = getelementptr inbounds %struct.Reg, %struct.Reg* %4, i32 0, i32 0
  %PC = bitcast %union.anon* %5 to i64*
  %6 = load i64, i64* %PC
  %7 = add i64 %6, %rel_off1
  %8 = load i64, i64* %PC
  %9 = add i64 %8, %rel_off2
  %10 = load i64, i64* %PC
  %11 = add i64 %10, %rel_off3
  store i64 %11, i64* %PC
  %12 = getelementptr inbounds %struct.State, %struct.State* %0, i64 0, i32 6, i32 13, i32 0, i32 0
  %13 = load i64, i64* %12, align 8
  %14 = add i64 %13, -8
  %15 = inttoptr i64 %14 to i64*
  store i64 %9, i64* %15
  store i64 %14, i64* %12, align 8
  %16 = getelementptr inbounds %struct.State, %struct.State* %0, i64 0, i32 6, i32 33, i32 0, i32 0
  store i64 %7, i64* %16, align 8
  ret %struct.Memory* %2
}

define %struct.Memory* @routine_movl__0x0__MINUS0x1c__rbp_(%struct.State* dereferenceable(3376), i64, %struct.Memory*) {
block_400488:
  %3 = getelementptr inbounds %struct.State, %struct.State* %0, i32 0, i32 6
  %4 = getelementptr inbounds %struct.GPR, %struct.GPR* %3, i32 0, i32 33
  %5 = getelementptr inbounds %struct.Reg, %struct.Reg* %4, i32 0, i32 0
  %PC = bitcast %union.anon* %5 to i64*
  %6 = getelementptr inbounds %struct.State, %struct.State* %0, i32 0, i32 6
  %7 = getelementptr inbounds %struct.GPR, %struct.GPR* %6, i32 0, i32 15
  %8 = getelementptr inbounds %struct.Reg, %struct.Reg* %7, i32 0, i32 0
  %RBP = bitcast %union.anon* %8 to i64*
  %9 = load i64, i64* %RBP
  %10 = sub i64 %9, 28
  %11 = load i64, i64* %PC
  %12 = add i64 %11, 7
  store i64 %12, i64* %PC
  %13 = inttoptr i64 %10 to i32*
  store i32 0, i32* %13
  ret %struct.Memory* %2
}

define %struct.Memory* @routine_movl_MINUS0x1c__rbp____eax(%struct.State* dereferenceable(3376), i64, %struct.Memory*) {
block_400488:
  %3 = getelementptr inbounds %struct.State, %struct.State* %0, i32 0, i32 6
  %4 = getelementptr inbounds %struct.GPR, %struct.GPR* %3, i32 0, i32 33
  %5 = getelementptr inbounds %struct.Reg, %struct.Reg* %4, i32 0, i32 0
  %PC = bitcast %union.anon* %5 to i64*
  %6 = getelementptr inbounds %struct.State, %struct.State* %0, i32 0, i32 6
  %7 = getelementptr inbounds %struct.GPR, %struct.GPR* %6, i32 0, i32 1
  %8 = getelementptr inbounds %struct.Reg, %struct.Reg* %7, i32 0, i32 0
  %RAX = bitcast %union.anon* %8 to i64*
  %9 = getelementptr inbounds %struct.State, %struct.State* %0, i32 0, i32 6
  %10 = getelementptr inbounds %struct.GPR, %struct.GPR* %9, i32 0, i32 15
  %11 = getelementptr inbounds %struct.Reg, %struct.Reg* %10, i32 0, i32 0
  %RBP = bitcast %union.anon* %11 to i64*
  %12 = load i64, i64* %RBP
  %13 = sub i64 %12, 28
  %14 = load i64, i64* %PC
  %15 = add i64 %14, 3
  store i64 %15, i64* %PC
  %16 = inttoptr i64 %13 to i32*
  %17 = load i32, i32* %16
  %18 = zext i32 %17 to i64
  store i64 %18, i64* %RAX, align 8
  ret %struct.Memory* %2
}

define %struct.Memory* @routine_cmpl_0x61c078___eax(%struct.State* dereferenceable(3376), i64, %struct.Memory*) {
block_400488:
  %3 = getelementptr inbounds %struct.State, %struct.State* %0, i32 0, i32 6
  %4 = getelementptr inbounds %struct.GPR, %struct.GPR* %3, i32 0, i32 33
  %5 = getelementptr inbounds %struct.Reg, %struct.Reg* %4, i32 0, i32 0
  %PC = bitcast %union.anon* %5 to i64*
  %6 = getelementptr inbounds %struct.State, %struct.State* %0, i32 0, i32 6
  %7 = getelementptr inbounds %struct.GPR, %struct.GPR* %6, i32 0, i32 1
  %8 = getelementptr inbounds %struct.Reg, %struct.Reg* %7, i32 0, i32 0
  %EAX = bitcast %union.anon* %8 to i32*
  %9 = load i32, i32* %EAX
  %10 = zext i32 %9 to i64
  %11 = load i64, i64* %PC
  %12 = add i64 %11, 7
  store i64 %12, i64* %PC
  %13 = load i32, i32* inttoptr (i64 6406264 to i32*)
  %14 = sub i32 %9, %13
  %15 = icmp ult i32 %9, %13
  %16 = zext i1 %15 to i8
  %17 = getelementptr inbounds %struct.State, %struct.State* %0, i64 0, i32 2, i32 1
  store i8 %16, i8* %17, align 1
  %18 = and i32 %14, 255
  %19 = call i32 @llvm.ctpop.i32(i32 %18)
  %20 = trunc i32 %19 to i8
  %21 = and i8 %20, 1
  %22 = xor i8 %21, 1
  %23 = getelementptr inbounds %struct.State, %struct.State* %0, i64 0, i32 2, i32 3
  store i8 %22, i8* %23, align 1
  %24 = xor i32 %13, %9
  %25 = xor i32 %24, %14
  %26 = lshr i32 %25, 4
  %27 = trunc i32 %26 to i8
  %28 = and i8 %27, 1
  %29 = getelementptr inbounds %struct.State, %struct.State* %0, i64 0, i32 2, i32 5
  store i8 %28, i8* %29, align 1
  %30 = icmp eq i32 %14, 0
  %31 = zext i1 %30 to i8
  %32 = getelementptr inbounds %struct.State, %struct.State* %0, i64 0, i32 2, i32 7
  store i8 %31, i8* %32, align 1
  %33 = lshr i32 %14, 31
  %34 = trunc i32 %33 to i8
  %35 = getelementptr inbounds %struct.State, %struct.State* %0, i64 0, i32 2, i32 9
  store i8 %34, i8* %35, align 1
  %36 = lshr i32 %9, 31
  %37 = lshr i32 %13, 31
  %38 = xor i32 %37, %36
  %39 = xor i32 %33, %36
  %40 = add i32 %39, %38
  %41 = icmp eq i32 %40, 2
  %42 = zext i1 %41 to i8
  %43 = getelementptr inbounds %struct.State, %struct.State* %0, i64 0, i32 2, i32 13
  store i8 %42, i8* %43, align 1
  ret %struct.Memory* %2
}

define %struct.Memory* @routine_jge_.L_407760(%struct.State* dereferenceable(3376), i64, %struct.Memory*, i8* %BRANCH_TAKEN, i64 %rel_off1, i64 %rel_off2, i64 %rel_off3) {
block_400488:
  %3 = getelementptr inbounds %struct.State, %struct.State* %0, i32 0, i32 6
  %4 = getelementptr inbounds %struct.GPR, %struct.GPR* %3, i32 0, i32 33
  %5 = getelementptr inbounds %struct.Reg, %struct.Reg* %4, i32 0, i32 0
  %PC = bitcast %union.anon* %5 to i64*
  %6 = load i64, i64* %PC
  %7 = add i64 %6, %rel_off1
  %8 = load i64, i64* %PC
  %9 = add i64 %8, %rel_off2
  %10 = load i64, i64* %PC
  %11 = add i64 %10, %rel_off3
  store i64 %11, i64* %PC
  %12 = getelementptr inbounds %struct.State, %struct.State* %0, i64 0, i32 2, i32 9
  %13 = load i8, i8* %12, align 1
  %14 = icmp ne i8 %13, 0
  %15 = getelementptr inbounds %struct.State, %struct.State* %0, i64 0, i32 2, i32 13
  %16 = load i8, i8* %15, align 1
  %17 = icmp ne i8 %16, 0
  %18 = xor i1 %14, %17
  %19 = xor i1 %18, true
  %20 = zext i1 %19 to i8
  store i8 %20, i8* %BRANCH_TAKEN, align 1
  %21 = getelementptr inbounds %struct.State, %struct.State* %0, i64 0, i32 6, i32 33, i32 0, i32 0
  %22 = select i1 %18, i64 %9, i64 %7
  store i64 %22, i64* %21, align 8
  ret %struct.Memory* %2
}

define %struct.Memory* @routine_xorps__xmm0___xmm0(%struct.State* dereferenceable(3376), i64, %struct.Memory*) {
block_400488:
  %3 = getelementptr inbounds %struct.State, %struct.State* %0, i32 0, i32 6
  %4 = getelementptr inbounds %struct.GPR, %struct.GPR* %3, i32 0, i32 33
  %5 = getelementptr inbounds %struct.Reg, %struct.Reg* %4, i32 0, i32 0
  %PC = bitcast %union.anon* %5 to i64*
  %6 = getelementptr inbounds %struct.State, %struct.State* %0, i32 0, i32 1
  %7 = getelementptr inbounds [32 x %union.VectorReg], [32 x %union.VectorReg]* %6, i64 0, i64 0
  %YMM0 = bitcast %union.VectorReg* %7 to %"class.std::bitset"*
  %8 = getelementptr inbounds %struct.State, %struct.State* %0, i32 0, i32 1
  %9 = getelementptr inbounds [32 x %union.VectorReg], [32 x %union.VectorReg]* %8, i64 0, i64 0
  %XMM0 = bitcast %union.VectorReg* %9 to %union.vec128_t*
  %10 = bitcast %"class.std::bitset"* %YMM0 to i8*
  %11 = bitcast %"class.std::bitset"* %YMM0 to i8*
  %12 = bitcast %union.vec128_t* %XMM0 to i8*
  %13 = load i64, i64* %PC
  %14 = add i64 %13, 3
  store i64 %14, i64* %PC
  %15 = bitcast i8* %11 to i64*
  %16 = load i64, i64* %15, align 1
  %17 = getelementptr inbounds i8, i8* %11, i64 8
  %18 = bitcast i8* %17 to i64*
  %19 = load i64, i64* %18, align 1
  %20 = bitcast i8* %12 to i64*
  %21 = load i64, i64* %20, align 1
  %22 = getelementptr inbounds i8, i8* %12, i64 8
  %23 = bitcast i8* %22 to i64*
  %24 = load i64, i64* %23, align 1
  %25 = xor i64 %21, %16
  %26 = xor i64 %24, %19
  %27 = trunc i64 %25 to i32
  %28 = lshr i64 %25, 32
  %29 = trunc i64 %28 to i32
  %30 = bitcast i8* %10 to i32*
  store i32 %27, i32* %30, align 1
  %31 = getelementptr inbounds i8, i8* %10, i64 4
  %32 = bitcast i8* %31 to i32*
  store i32 %29, i32* %32, align 1
  %33 = trunc i64 %26 to i32
  %34 = getelementptr inbounds i8, i8* %10, i64 8
  %35 = bitcast i8* %34 to i32*
  store i32 %33, i32* %35, align 1
  %36 = lshr i64 %26, 32
  %37 = trunc i64 %36 to i32
  %38 = getelementptr inbounds i8, i8* %10, i64 12
  %39 = bitcast i8* %38 to i32*
  store i32 %37, i32* %39, align 1
  ret %struct.Memory* %2
}

define %struct.Memory* @routine_movsd__xmm0__MINUS0x28__rbp_(%struct.State* dereferenceable(3376), i64, %struct.Memory*) {
block_400488:
  %3 = getelementptr inbounds %struct.State, %struct.State* %0, i32 0, i32 6
  %4 = getelementptr inbounds %struct.GPR, %struct.GPR* %3, i32 0, i32 33
  %5 = getelementptr inbounds %struct.Reg, %struct.Reg* %4, i32 0, i32 0
  %PC = bitcast %union.anon* %5 to i64*
  %6 = getelementptr inbounds %struct.State, %struct.State* %0, i32 0, i32 6
  %7 = getelementptr inbounds %struct.GPR, %struct.GPR* %6, i32 0, i32 15
  %8 = getelementptr inbounds %struct.Reg, %struct.Reg* %7, i32 0, i32 0
  %RBP = bitcast %union.anon* %8 to i64*
  %9 = getelementptr inbounds %struct.State, %struct.State* %0, i32 0, i32 1
  %10 = getelementptr inbounds [32 x %union.VectorReg], [32 x %union.VectorReg]* %9, i64 0, i64 0
  %XMM0 = bitcast %union.VectorReg* %10 to %union.vec128_t*
  %11 = load i64, i64* %RBP
  %12 = sub i64 %11, 40
  %13 = bitcast %union.vec128_t* %XMM0 to i8*
  %14 = load i64, i64* %PC
  %15 = add i64 %14, 5
  store i64 %15, i64* %PC
  %16 = bitcast i8* %13 to double*
  %17 = load double, double* %16, align 1
  %18 = inttoptr i64 %12 to double*
  store double %17, double* %18
  ret %struct.Memory* %2
}

define %struct.Memory* @routine_movl__0x0__MINUS0x2c__rbp_(%struct.State* dereferenceable(3376), i64, %struct.Memory*) {
block_400488:
  %3 = getelementptr inbounds %struct.State, %struct.State* %0, i32 0, i32 6
  %4 = getelementptr inbounds %struct.GPR, %struct.GPR* %3, i32 0, i32 33
  %5 = getelementptr inbounds %struct.Reg, %struct.Reg* %4, i32 0, i32 0
  %PC = bitcast %union.anon* %5 to i64*
  %6 = getelementptr inbounds %struct.State, %struct.State* %0, i32 0, i32 6
  %7 = getelementptr inbounds %struct.GPR, %struct.GPR* %6, i32 0, i32 15
  %8 = getelementptr inbounds %struct.Reg, %struct.Reg* %7, i32 0, i32 0
  %RBP = bitcast %union.anon* %8 to i64*
  %9 = load i64, i64* %RBP
  %10 = sub i64 %9, 44
  %11 = load i64, i64* %PC
  %12 = add i64 %11, 7
  store i64 %12, i64* %PC
  %13 = inttoptr i64 %10 to i32*
  store i32 0, i32* %13
  ret %struct.Memory* %2
}

define %struct.Memory* @routine_movl_MINUS0x2c__rbp____eax(%struct.State* dereferenceable(3376), i64, %struct.Memory*) {
block_400488:
  %3 = getelementptr inbounds %struct.State, %struct.State* %0, i32 0, i32 6
  %4 = getelementptr inbounds %struct.GPR, %struct.GPR* %3, i32 0, i32 33
  %5 = getelementptr inbounds %struct.Reg, %struct.Reg* %4, i32 0, i32 0
  %PC = bitcast %union.anon* %5 to i64*
  %6 = getelementptr inbounds %struct.State, %struct.State* %0, i32 0, i32 6
  %7 = getelementptr inbounds %struct.GPR, %struct.GPR* %6, i32 0, i32 1
  %8 = getelementptr inbounds %struct.Reg, %struct.Reg* %7, i32 0, i32 0
  %RAX = bitcast %union.anon* %8 to i64*
  %9 = getelementptr inbounds %struct.State, %struct.State* %0, i32 0, i32 6
  %10 = getelementptr inbounds %struct.GPR, %struct.GPR* %9, i32 0, i32 15
  %11 = getelementptr inbounds %struct.Reg, %struct.Reg* %10, i32 0, i32 0
  %RBP = bitcast %union.anon* %11 to i64*
  %12 = load i64, i64* %RBP
  %13 = sub i64 %12, 44
  %14 = load i64, i64* %PC
  %15 = add i64 %14, 3
  store i64 %15, i64* %PC
  %16 = inttoptr i64 %13 to i32*
  %17 = load i32, i32* %16
  %18 = zext i32 %17 to i64
  store i64 %18, i64* %RAX, align 8
  ret %struct.Memory* %2
}

define %struct.Memory* @routine_movl_MINUS0xc__rbp____ecx(%struct.State* dereferenceable(3376), i64, %struct.Memory*) {
block_400488:
  %3 = getelementptr inbounds %struct.State, %struct.State* %0, i32 0, i32 6
  %4 = getelementptr inbounds %struct.GPR, %struct.GPR* %3, i32 0, i32 33
  %5 = getelementptr inbounds %struct.Reg, %struct.Reg* %4, i32 0, i32 0
  %PC = bitcast %union.anon* %5 to i64*
  %6 = getelementptr inbounds %struct.State, %struct.State* %0, i32 0, i32 6
  %7 = getelementptr inbounds %struct.GPR, %struct.GPR* %6, i32 0, i32 5
  %8 = getelementptr inbounds %struct.Reg, %struct.Reg* %7, i32 0, i32 0
  %RCX = bitcast %union.anon* %8 to i64*
  %9 = getelementptr inbounds %struct.State, %struct.State* %0, i32 0, i32 6
  %10 = getelementptr inbounds %struct.GPR, %struct.GPR* %9, i32 0, i32 15
  %11 = getelementptr inbounds %struct.Reg, %struct.Reg* %10, i32 0, i32 0
  %RBP = bitcast %union.anon* %11 to i64*
  %12 = load i64, i64* %RBP
  %13 = sub i64 %12, 12
  %14 = load i64, i64* %PC
  %15 = add i64 %14, 3
  store i64 %15, i64* %PC
  %16 = inttoptr i64 %13 to i32*
  %17 = load i32, i32* %16
  %18 = zext i32 %17 to i64
  store i64 %18, i64* %RCX, align 8
  ret %struct.Memory* %2
}

define %struct.Memory* @routine_subl__0x1d___ecx(%struct.State* dereferenceable(3376), i64, %struct.Memory*) {
block_400488:
  %3 = getelementptr inbounds %struct.State, %struct.State* %0, i32 0, i32 6
  %4 = getelementptr inbounds %struct.GPR, %struct.GPR* %3, i32 0, i32 33
  %5 = getelementptr inbounds %struct.Reg, %struct.Reg* %4, i32 0, i32 0
  %PC = bitcast %union.anon* %5 to i64*
  %6 = getelementptr inbounds %struct.State, %struct.State* %0, i32 0, i32 6
  %7 = getelementptr inbounds %struct.GPR, %struct.GPR* %6, i32 0, i32 5
  %8 = getelementptr inbounds %struct.Reg, %struct.Reg* %7, i32 0, i32 0
  %RCX = bitcast %union.anon* %8 to i64*
  %9 = load i64, i64* %RCX
  %10 = load i64, i64* %PC
  %11 = add i64 %10, 3
  store i64 %11, i64* %PC
  %12 = trunc i64 %9 to i32
  %13 = sub i32 %12, 29
  %14 = zext i32 %13 to i64
  store i64 %14, i64* %RCX, align 8
  %15 = icmp ult i32 %12, 29
  %16 = zext i1 %15 to i8
  %17 = getelementptr inbounds %struct.State, %struct.State* %0, i64 0, i32 2, i32 1
  store i8 %16, i8* %17, align 1
  %18 = and i32 %13, 255
  %19 = call i32 @llvm.ctpop.i32(i32 %18)
  %20 = trunc i32 %19 to i8
  %21 = and i8 %20, 1
  %22 = xor i8 %21, 1
  %23 = getelementptr inbounds %struct.State, %struct.State* %0, i64 0, i32 2, i32 3
  store i8 %22, i8* %23, align 1
  %24 = xor i64 29, %9
  %25 = trunc i64 %24 to i32
  %26 = xor i32 %25, %13
  %27 = lshr i32 %26, 4
  %28 = trunc i32 %27 to i8
  %29 = and i8 %28, 1
  %30 = getelementptr inbounds %struct.State, %struct.State* %0, i64 0, i32 2, i32 5
  store i8 %29, i8* %30, align 1
  %31 = icmp eq i32 %13, 0
  %32 = zext i1 %31 to i8
  %33 = getelementptr inbounds %struct.State, %struct.State* %0, i64 0, i32 2, i32 7
  store i8 %32, i8* %33, align 1
  %34 = lshr i32 %13, 31
  %35 = trunc i32 %34 to i8
  %36 = getelementptr inbounds %struct.State, %struct.State* %0, i64 0, i32 2, i32 9
  store i8 %35, i8* %36, align 1
  %37 = lshr i32 %12, 31
  %38 = xor i32 %34, %37
  %39 = add i32 %38, %37
  %40 = icmp eq i32 %39, 2
  %41 = zext i1 %40 to i8
  %42 = getelementptr inbounds %struct.State, %struct.State* %0, i64 0, i32 2, i32 13
  store i8 %41, i8* %42, align 1
  ret %struct.Memory* %2
}

define %struct.Memory* @routine_cmpl__ecx___eax(%struct.State* dereferenceable(3376), i64, %struct.Memory*) {
block_400488:
  %3 = getelementptr inbounds %struct.State, %struct.State* %0, i32 0, i32 6
  %4 = getelementptr inbounds %struct.GPR, %struct.GPR* %3, i32 0, i32 33
  %5 = getelementptr inbounds %struct.Reg, %struct.Reg* %4, i32 0, i32 0
  %PC = bitcast %union.anon* %5 to i64*
  %6 = getelementptr inbounds %struct.State, %struct.State* %0, i32 0, i32 6
  %7 = getelementptr inbounds %struct.GPR, %struct.GPR* %6, i32 0, i32 1
  %8 = getelementptr inbounds %struct.Reg, %struct.Reg* %7, i32 0, i32 0
  %EAX = bitcast %union.anon* %8 to i32*
  %9 = getelementptr inbounds %struct.State, %struct.State* %0, i32 0, i32 6
  %10 = getelementptr inbounds %struct.GPR, %struct.GPR* %9, i32 0, i32 5
  %11 = getelementptr inbounds %struct.Reg, %struct.Reg* %10, i32 0, i32 0
  %ECX = bitcast %union.anon* %11 to i32*
  %12 = load i32, i32* %EAX
  %13 = zext i32 %12 to i64
  %14 = load i32, i32* %ECX
  %15 = zext i32 %14 to i64
  %16 = load i64, i64* %PC
  %17 = add i64 %16, 2
  store i64 %17, i64* %PC
  %18 = sub i32 %12, %14
  %19 = icmp ult i32 %12, %14
  %20 = zext i1 %19 to i8
  %21 = getelementptr inbounds %struct.State, %struct.State* %0, i64 0, i32 2, i32 1
  store i8 %20, i8* %21, align 1
  %22 = and i32 %18, 255
  %23 = call i32 @llvm.ctpop.i32(i32 %22)
  %24 = trunc i32 %23 to i8
  %25 = and i8 %24, 1
  %26 = xor i8 %25, 1
  %27 = getelementptr inbounds %struct.State, %struct.State* %0, i64 0, i32 2, i32 3
  store i8 %26, i8* %27, align 1
  %28 = xor i64 %15, %13
  %29 = trunc i64 %28 to i32
  %30 = xor i32 %29, %18
  %31 = lshr i32 %30, 4
  %32 = trunc i32 %31 to i8
  %33 = and i8 %32, 1
  %34 = getelementptr inbounds %struct.State, %struct.State* %0, i64 0, i32 2, i32 5
  store i8 %33, i8* %34, align 1
  %35 = icmp eq i32 %18, 0
  %36 = zext i1 %35 to i8
  %37 = getelementptr inbounds %struct.State, %struct.State* %0, i64 0, i32 2, i32 7
  store i8 %36, i8* %37, align 1
  %38 = lshr i32 %18, 31
  %39 = trunc i32 %38 to i8
  %40 = getelementptr inbounds %struct.State, %struct.State* %0, i64 0, i32 2, i32 9
  store i8 %39, i8* %40, align 1
  %41 = lshr i32 %12, 31
  %42 = lshr i32 %14, 31
  %43 = xor i32 %42, %41
  %44 = xor i32 %38, %41
  %45 = add i32 %44, %43
  %46 = icmp eq i32 %45, 2
  %47 = zext i1 %46 to i8
  %48 = getelementptr inbounds %struct.State, %struct.State* %0, i64 0, i32 2, i32 13
  store i8 %47, i8* %48, align 1
  ret %struct.Memory* %2
}

define %struct.Memory* @routine_jge_.L_40770d(%struct.State* dereferenceable(3376), i64, %struct.Memory*, i8* %BRANCH_TAKEN, i64 %rel_off1, i64 %rel_off2, i64 %rel_off3) {
block_400488:
  %3 = getelementptr inbounds %struct.State, %struct.State* %0, i32 0, i32 6
  %4 = getelementptr inbounds %struct.GPR, %struct.GPR* %3, i32 0, i32 33
  %5 = getelementptr inbounds %struct.Reg, %struct.Reg* %4, i32 0, i32 0
  %PC = bitcast %union.anon* %5 to i64*
  %6 = load i64, i64* %PC
  %7 = add i64 %6, %rel_off1
  %8 = load i64, i64* %PC
  %9 = add i64 %8, %rel_off2
  %10 = load i64, i64* %PC
  %11 = add i64 %10, %rel_off3
  store i64 %11, i64* %PC
  %12 = getelementptr inbounds %struct.State, %struct.State* %0, i64 0, i32 2, i32 9
  %13 = load i8, i8* %12, align 1
  %14 = icmp ne i8 %13, 0
  %15 = getelementptr inbounds %struct.State, %struct.State* %0, i64 0, i32 2, i32 13
  %16 = load i8, i8* %15, align 1
  %17 = icmp ne i8 %16, 0
  %18 = xor i1 %14, %17
  %19 = xor i1 %18, true
  %20 = zext i1 %19 to i8
  store i8 %20, i8* %BRANCH_TAKEN, align 1
  %21 = getelementptr inbounds %struct.State, %struct.State* %0, i64 0, i32 6, i32 33, i32 0, i32 0
  %22 = select i1 %18, i64 %9, i64 %7
  store i64 %22, i64* %21, align 8
  ret %struct.Memory* %2
}

define %struct.Memory* @routine_leaq_MINUS0x28__rbp____rdi(%struct.State* dereferenceable(3376), i64, %struct.Memory*) {
block_400488:
  %3 = getelementptr inbounds %struct.State, %struct.State* %0, i32 0, i32 6
  %4 = getelementptr inbounds %struct.GPR, %struct.GPR* %3, i32 0, i32 33
  %5 = getelementptr inbounds %struct.Reg, %struct.Reg* %4, i32 0, i32 0
  %PC = bitcast %union.anon* %5 to i64*
  %6 = getelementptr inbounds %struct.State, %struct.State* %0, i32 0, i32 6
  %7 = getelementptr inbounds %struct.GPR, %struct.GPR* %6, i32 0, i32 11
  %8 = getelementptr inbounds %struct.Reg, %struct.Reg* %7, i32 0, i32 0
  %RDI = bitcast %union.anon* %8 to i64*
  %9 = getelementptr inbounds %struct.State, %struct.State* %0, i32 0, i32 6
  %10 = getelementptr inbounds %struct.GPR, %struct.GPR* %9, i32 0, i32 15
  %11 = getelementptr inbounds %struct.Reg, %struct.Reg* %10, i32 0, i32 0
  %RBP = bitcast %union.anon* %11 to i64*
  %12 = load i64, i64* %RBP
  %13 = sub i64 %12, 40
  %14 = load i64, i64* %PC
  %15 = add i64 %14, 4
  store i64 %15, i64* %PC
  store i64 %13, i64* %RDI, align 8
  ret %struct.Memory* %2
}

define %struct.Memory* @routine_movq_MINUS0x8__rbp____rsi(%struct.State* dereferenceable(3376), i64, %struct.Memory*) {
block_400488:
  %3 = getelementptr inbounds %struct.State, %struct.State* %0, i32 0, i32 6
  %4 = getelementptr inbounds %struct.GPR, %struct.GPR* %3, i32 0, i32 33
  %5 = getelementptr inbounds %struct.Reg, %struct.Reg* %4, i32 0, i32 0
  %PC = bitcast %union.anon* %5 to i64*
  %6 = getelementptr inbounds %struct.State, %struct.State* %0, i32 0, i32 6
  %7 = getelementptr inbounds %struct.GPR, %struct.GPR* %6, i32 0, i32 9
  %8 = getelementptr inbounds %struct.Reg, %struct.Reg* %7, i32 0, i32 0
  %RSI = bitcast %union.anon* %8 to i64*
  %9 = getelementptr inbounds %struct.State, %struct.State* %0, i32 0, i32 6
  %10 = getelementptr inbounds %struct.GPR, %struct.GPR* %9, i32 0, i32 15
  %11 = getelementptr inbounds %struct.Reg, %struct.Reg* %10, i32 0, i32 0
  %RBP = bitcast %union.anon* %11 to i64*
  %12 = load i64, i64* %RBP
  %13 = sub i64 %12, 8
  %14 = load i64, i64* %PC
  %15 = add i64 %14, 4
  store i64 %15, i64* %PC
  %16 = inttoptr i64 %13 to i64*
  %17 = load i64, i64* %16
  store i64 %17, i64* %RSI, align 8
  ret %struct.Memory* %2
}

define %struct.Memory* @routine_movl_MINUS0x2c__rbp____edx(%struct.State* dereferenceable(3376), i64, %struct.Memory*) {
block_400488:
  %3 = getelementptr inbounds %struct.State, %struct.State* %0, i32 0, i32 6
  %4 = getelementptr inbounds %struct.GPR, %struct.GPR* %3, i32 0, i32 33
  %5 = getelementptr inbounds %struct.Reg, %struct.Reg* %4, i32 0, i32 0
  %PC = bitcast %union.anon* %5 to i64*
  %6 = getelementptr inbounds %struct.State, %struct.State* %0, i32 0, i32 6
  %7 = getelementptr inbounds %struct.GPR, %struct.GPR* %6, i32 0, i32 7
  %8 = getelementptr inbounds %struct.Reg, %struct.Reg* %7, i32 0, i32 0
  %RDX = bitcast %union.anon* %8 to i64*
  %9 = getelementptr inbounds %struct.State, %struct.State* %0, i32 0, i32 6
  %10 = getelementptr inbounds %struct.GPR, %struct.GPR* %9, i32 0, i32 15
  %11 = getelementptr inbounds %struct.Reg, %struct.Reg* %10, i32 0, i32 0
  %RBP = bitcast %union.anon* %11 to i64*
  %12 = load i64, i64* %RBP
  %13 = sub i64 %12, 44
  %14 = load i64, i64* %PC
  %15 = add i64 %14, 3
  store i64 %15, i64* %PC
  %16 = inttoptr i64 %13 to i32*
  %17 = load i32, i32* %16
  %18 = zext i32 %17 to i64
  store i64 %18, i64* %RDX, align 8
  ret %struct.Memory* %2
}

define %struct.Memory* @routine_callq_._ZN15loop_inner_bodyILi30EdE7do_workERdPKdi(%struct.State* dereferenceable(3376), i64, %struct.Memory*, i64 %rel_off1, i64 %rel_off2, i64 %rel_off3) {
block_400488:
  %3 = getelementptr inbounds %struct.State, %struct.State* %0, i32 0, i32 6
  %4 = getelementptr inbounds %struct.GPR, %struct.GPR* %3, i32 0, i32 33
  %5 = getelementptr inbounds %struct.Reg, %struct.Reg* %4, i32 0, i32 0
  %PC = bitcast %union.anon* %5 to i64*
  %6 = load i64, i64* %PC
  %7 = add i64 %6, %rel_off1
  %8 = load i64, i64* %PC
  %9 = add i64 %8, %rel_off2
  %10 = load i64, i64* %PC
  %11 = add i64 %10, %rel_off3
  store i64 %11, i64* %PC
  %12 = getelementptr inbounds %struct.State, %struct.State* %0, i64 0, i32 6, i32 13, i32 0, i32 0
  %13 = load i64, i64* %12, align 8
  %14 = add i64 %13, -8
  %15 = inttoptr i64 %14 to i64*
  store i64 %9, i64* %15
  store i64 %14, i64* %12, align 8
  %16 = getelementptr inbounds %struct.State, %struct.State* %0, i64 0, i32 6, i32 33, i32 0, i32 0
  store i64 %7, i64* %16, align 8
  ret %struct.Memory* %2
}

define %struct.Memory* @routine_addl__0x1e___edx(%struct.State* dereferenceable(3376), i64, %struct.Memory*) {
block_400488:
  %3 = getelementptr inbounds %struct.State, %struct.State* %0, i32 0, i32 6
  %4 = getelementptr inbounds %struct.GPR, %struct.GPR* %3, i32 0, i32 33
  %5 = getelementptr inbounds %struct.Reg, %struct.Reg* %4, i32 0, i32 0
  %PC = bitcast %union.anon* %5 to i64*
  %6 = getelementptr inbounds %struct.State, %struct.State* %0, i32 0, i32 6
  %7 = getelementptr inbounds %struct.GPR, %struct.GPR* %6, i32 0, i32 7
  %8 = getelementptr inbounds %struct.Reg, %struct.Reg* %7, i32 0, i32 0
  %RDX = bitcast %union.anon* %8 to i64*
  %9 = load i64, i64* %RDX
  %10 = load i64, i64* %PC
  %11 = add i64 %10, 3
  store i64 %11, i64* %PC
  %12 = trunc i64 %9 to i32
  %13 = add i32 30, %12
  %14 = zext i32 %13 to i64
  store i64 %14, i64* %RDX, align 8
  %15 = icmp ult i32 %13, %12
  %16 = icmp ult i32 %13, 30
  %17 = or i1 %15, %16
  %18 = zext i1 %17 to i8
  %19 = getelementptr inbounds %struct.State, %struct.State* %0, i64 0, i32 2, i32 1
  store i8 %18, i8* %19, align 1
  %20 = and i32 %13, 255
  %21 = call i32 @llvm.ctpop.i32(i32 %20)
  %22 = trunc i32 %21 to i8
  %23 = and i8 %22, 1
  %24 = xor i8 %23, 1
  %25 = getelementptr inbounds %struct.State, %struct.State* %0, i64 0, i32 2, i32 3
  store i8 %24, i8* %25, align 1
  %26 = xor i64 30, %9
  %27 = trunc i64 %26 to i32
  %28 = xor i32 %27, %13
  %29 = lshr i32 %28, 4
  %30 = trunc i32 %29 to i8
  %31 = and i8 %30, 1
  %32 = getelementptr inbounds %struct.State, %struct.State* %0, i64 0, i32 2, i32 5
  store i8 %31, i8* %32, align 1
  %33 = icmp eq i32 %13, 0
  %34 = zext i1 %33 to i8
  %35 = getelementptr inbounds %struct.State, %struct.State* %0, i64 0, i32 2, i32 7
  store i8 %34, i8* %35, align 1
  %36 = lshr i32 %13, 31
  %37 = trunc i32 %36 to i8
  %38 = getelementptr inbounds %struct.State, %struct.State* %0, i64 0, i32 2, i32 9
  store i8 %37, i8* %38, align 1
  %39 = lshr i32 %12, 31
  %40 = xor i32 %36, %39
  %41 = add i32 %40, %36
  %42 = icmp eq i32 %41, 2
  %43 = zext i1 %42 to i8
  %44 = getelementptr inbounds %struct.State, %struct.State* %0, i64 0, i32 2, i32 13
  store i8 %43, i8* %44, align 1
  ret %struct.Memory* %2
}

define %struct.Memory* @routine_movl__edx__MINUS0x2c__rbp_(%struct.State* dereferenceable(3376), i64, %struct.Memory*) {
block_400488:
  %3 = getelementptr inbounds %struct.State, %struct.State* %0, i32 0, i32 6
  %4 = getelementptr inbounds %struct.GPR, %struct.GPR* %3, i32 0, i32 33
  %5 = getelementptr inbounds %struct.Reg, %struct.Reg* %4, i32 0, i32 0
  %PC = bitcast %union.anon* %5 to i64*
  %6 = getelementptr inbounds %struct.State, %struct.State* %0, i32 0, i32 6
  %7 = getelementptr inbounds %struct.GPR, %struct.GPR* %6, i32 0, i32 7
  %8 = getelementptr inbounds %struct.Reg, %struct.Reg* %7, i32 0, i32 0
  %EDX = bitcast %union.anon* %8 to i32*
  %9 = getelementptr inbounds %struct.State, %struct.State* %0, i32 0, i32 6
  %10 = getelementptr inbounds %struct.GPR, %struct.GPR* %9, i32 0, i32 15
  %11 = getelementptr inbounds %struct.Reg, %struct.Reg* %10, i32 0, i32 0
  %RBP = bitcast %union.anon* %11 to i64*
  %12 = load i64, i64* %RBP
  %13 = sub i64 %12, 44
  %14 = load i32, i32* %EDX
  %15 = zext i32 %14 to i64
  %16 = load i64, i64* %PC
  %17 = add i64 %16, 3
  store i64 %17, i64* %PC
  %18 = inttoptr i64 %13 to i32*
  store i32 %14, i32* %18
  ret %struct.Memory* %2
}

define %struct.Memory* @routine_jmpq_.L_4076de(%struct.State* dereferenceable(3376), i64, %struct.Memory*, i64 %rel_off1, i64 %rel_off2) {
block_400488:
  %3 = getelementptr inbounds %struct.State, %struct.State* %0, i32 0, i32 6
  %4 = getelementptr inbounds %struct.GPR, %struct.GPR* %3, i32 0, i32 33
  %5 = getelementptr inbounds %struct.Reg, %struct.Reg* %4, i32 0, i32 0
  %PC = bitcast %union.anon* %5 to i64*
  %6 = load i64, i64* %PC
  %7 = add i64 %6, %rel_off1
  %8 = load i64, i64* %PC
  %9 = add i64 %8, %rel_off2
  store i64 %9, i64* %PC
  %10 = getelementptr inbounds %struct.State, %struct.State* %0, i64 0, i32 6, i32 33, i32 0, i32 0
  store i64 %7, i64* %10, align 8
  ret %struct.Memory* %2
}

define %struct.Memory* @routine_jmpq_.L_407712(%struct.State* dereferenceable(3376), i64, %struct.Memory*, i64 %rel_off1, i64 %rel_off2) {
block_400488:
  %3 = getelementptr inbounds %struct.State, %struct.State* %0, i32 0, i32 6
  %4 = getelementptr inbounds %struct.GPR, %struct.GPR* %3, i32 0, i32 33
  %5 = getelementptr inbounds %struct.Reg, %struct.Reg* %4, i32 0, i32 0
  %PC = bitcast %union.anon* %5 to i64*
  %6 = load i64, i64* %PC
  %7 = add i64 %6, %rel_off1
  %8 = load i64, i64* %PC
  %9 = add i64 %8, %rel_off2
  store i64 %9, i64* %PC
  %10 = getelementptr inbounds %struct.State, %struct.State* %0, i64 0, i32 6, i32 33, i32 0, i32 0
  store i64 %7, i64* %10, align 8
  ret %struct.Memory* %2
}

define %struct.Memory* @routine_cmpl_MINUS0xc__rbp____eax(%struct.State* dereferenceable(3376), i64, %struct.Memory*) {
block_400488:
  %3 = getelementptr inbounds %struct.State, %struct.State* %0, i32 0, i32 6
  %4 = getelementptr inbounds %struct.GPR, %struct.GPR* %3, i32 0, i32 33
  %5 = getelementptr inbounds %struct.Reg, %struct.Reg* %4, i32 0, i32 0
  %PC = bitcast %union.anon* %5 to i64*
  %6 = getelementptr inbounds %struct.State, %struct.State* %0, i32 0, i32 6
  %7 = getelementptr inbounds %struct.GPR, %struct.GPR* %6, i32 0, i32 1
  %8 = getelementptr inbounds %struct.Reg, %struct.Reg* %7, i32 0, i32 0
  %EAX = bitcast %union.anon* %8 to i32*
  %9 = getelementptr inbounds %struct.State, %struct.State* %0, i32 0, i32 6
  %10 = getelementptr inbounds %struct.GPR, %struct.GPR* %9, i32 0, i32 15
  %11 = getelementptr inbounds %struct.Reg, %struct.Reg* %10, i32 0, i32 0
  %RBP = bitcast %union.anon* %11 to i64*
  %12 = load i32, i32* %EAX
  %13 = zext i32 %12 to i64
  %14 = load i64, i64* %RBP
  %15 = sub i64 %14, 12
  %16 = load i64, i64* %PC
  %17 = add i64 %16, 3
  store i64 %17, i64* %PC
  %18 = inttoptr i64 %15 to i32*
  %19 = load i32, i32* %18
  %20 = sub i32 %12, %19
  %21 = icmp ult i32 %12, %19
  %22 = zext i1 %21 to i8
  %23 = getelementptr inbounds %struct.State, %struct.State* %0, i64 0, i32 2, i32 1
  store i8 %22, i8* %23, align 1
  %24 = and i32 %20, 255
  %25 = call i32 @llvm.ctpop.i32(i32 %24)
  %26 = trunc i32 %25 to i8
  %27 = and i8 %26, 1
  %28 = xor i8 %27, 1
  %29 = getelementptr inbounds %struct.State, %struct.State* %0, i64 0, i32 2, i32 3
  store i8 %28, i8* %29, align 1
  %30 = xor i32 %19, %12
  %31 = xor i32 %30, %20
  %32 = lshr i32 %31, 4
  %33 = trunc i32 %32 to i8
  %34 = and i8 %33, 1
  %35 = getelementptr inbounds %struct.State, %struct.State* %0, i64 0, i32 2, i32 5
  store i8 %34, i8* %35, align 1
  %36 = icmp eq i32 %20, 0
  %37 = zext i1 %36 to i8
  %38 = getelementptr inbounds %struct.State, %struct.State* %0, i64 0, i32 2, i32 7
  store i8 %37, i8* %38, align 1
  %39 = lshr i32 %20, 31
  %40 = trunc i32 %39 to i8
  %41 = getelementptr inbounds %struct.State, %struct.State* %0, i64 0, i32 2, i32 9
  store i8 %40, i8* %41, align 1
  %42 = lshr i32 %12, 31
  %43 = lshr i32 %19, 31
  %44 = xor i32 %43, %42
  %45 = xor i32 %39, %42
  %46 = add i32 %45, %44
  %47 = icmp eq i32 %46, 2
  %48 = zext i1 %47 to i8
  %49 = getelementptr inbounds %struct.State, %struct.State* %0, i64 0, i32 2, i32 13
  store i8 %48, i8* %49, align 1
  ret %struct.Memory* %2
}

define %struct.Memory* @routine_jge_.L_407748(%struct.State* dereferenceable(3376), i64, %struct.Memory*, i8* %BRANCH_TAKEN, i64 %rel_off1, i64 %rel_off2, i64 %rel_off3) {
block_400488:
  %3 = getelementptr inbounds %struct.State, %struct.State* %0, i32 0, i32 6
  %4 = getelementptr inbounds %struct.GPR, %struct.GPR* %3, i32 0, i32 33
  %5 = getelementptr inbounds %struct.Reg, %struct.Reg* %4, i32 0, i32 0
  %PC = bitcast %union.anon* %5 to i64*
  %6 = load i64, i64* %PC
  %7 = add i64 %6, %rel_off1
  %8 = load i64, i64* %PC
  %9 = add i64 %8, %rel_off2
  %10 = load i64, i64* %PC
  %11 = add i64 %10, %rel_off3
  store i64 %11, i64* %PC
  %12 = getelementptr inbounds %struct.State, %struct.State* %0, i64 0, i32 2, i32 9
  %13 = load i8, i8* %12, align 1
  %14 = icmp ne i8 %13, 0
  %15 = getelementptr inbounds %struct.State, %struct.State* %0, i64 0, i32 2, i32 13
  %16 = load i8, i8* %15, align 1
  %17 = icmp ne i8 %16, 0
  %18 = xor i1 %14, %17
  %19 = xor i1 %18, true
  %20 = zext i1 %19 to i8
  store i8 %20, i8* %BRANCH_TAKEN, align 1
  %21 = getelementptr inbounds %struct.State, %struct.State* %0, i64 0, i32 6, i32 33, i32 0, i32 0
  %22 = select i1 %18, i64 %9, i64 %7
  store i64 %22, i64* %21, align 8
  ret %struct.Memory* %2
}

define %struct.Memory* @routine_movq_MINUS0x8__rbp____rax(%struct.State* dereferenceable(3376), i64, %struct.Memory*) {
block_400488:
  %3 = getelementptr inbounds %struct.State, %struct.State* %0, i32 0, i32 6
  %4 = getelementptr inbounds %struct.GPR, %struct.GPR* %3, i32 0, i32 33
  %5 = getelementptr inbounds %struct.Reg, %struct.Reg* %4, i32 0, i32 0
  %PC = bitcast %union.anon* %5 to i64*
  %6 = getelementptr inbounds %struct.State, %struct.State* %0, i32 0, i32 6
  %7 = getelementptr inbounds %struct.GPR, %struct.GPR* %6, i32 0, i32 1
  %8 = getelementptr inbounds %struct.Reg, %struct.Reg* %7, i32 0, i32 0
  %RAX = bitcast %union.anon* %8 to i64*
  %9 = getelementptr inbounds %struct.State, %struct.State* %0, i32 0, i32 6
  %10 = getelementptr inbounds %struct.GPR, %struct.GPR* %9, i32 0, i32 15
  %11 = getelementptr inbounds %struct.Reg, %struct.Reg* %10, i32 0, i32 0
  %RBP = bitcast %union.anon* %11 to i64*
  %12 = load i64, i64* %RBP
  %13 = sub i64 %12, 8
  %14 = load i64, i64* %PC
  %15 = add i64 %14, 4
  store i64 %15, i64* %PC
  %16 = inttoptr i64 %13 to i64*
  %17 = load i64, i64* %16
  store i64 %17, i64* %RAX, align 8
  ret %struct.Memory* %2
}

define %struct.Memory* @routine_movslq_MINUS0x2c__rbp____rcx(%struct.State* dereferenceable(3376), i64, %struct.Memory*) {
block_400488:
  %3 = getelementptr inbounds %struct.State, %struct.State* %0, i32 0, i32 6
  %4 = getelementptr inbounds %struct.GPR, %struct.GPR* %3, i32 0, i32 33
  %5 = getelementptr inbounds %struct.Reg, %struct.Reg* %4, i32 0, i32 0
  %PC = bitcast %union.anon* %5 to i64*
  %6 = getelementptr inbounds %struct.State, %struct.State* %0, i32 0, i32 6
  %7 = getelementptr inbounds %struct.GPR, %struct.GPR* %6, i32 0, i32 5
  %8 = getelementptr inbounds %struct.Reg, %struct.Reg* %7, i32 0, i32 0
  %RCX = bitcast %union.anon* %8 to i64*
  %9 = getelementptr inbounds %struct.State, %struct.State* %0, i32 0, i32 6
  %10 = getelementptr inbounds %struct.GPR, %struct.GPR* %9, i32 0, i32 15
  %11 = getelementptr inbounds %struct.Reg, %struct.Reg* %10, i32 0, i32 0
  %RBP = bitcast %union.anon* %11 to i64*
  %12 = load i64, i64* %RBP
  %13 = sub i64 %12, 44
  %14 = load i64, i64* %PC
  %15 = add i64 %14, 4
  store i64 %15, i64* %PC
  %16 = inttoptr i64 %13 to i32*
  %17 = load i32, i32* %16
  %18 = sext i32 %17 to i64
  store i64 %18, i64* %RCX, align 8
  ret %struct.Memory* %2
}

define %struct.Memory* @routine_movsd___rax__rcx_8____xmm0(%struct.State* dereferenceable(3376), i64, %struct.Memory*) {
block_400488:
  %3 = getelementptr inbounds %struct.State, %struct.State* %0, i32 0, i32 6
  %4 = getelementptr inbounds %struct.GPR, %struct.GPR* %3, i32 0, i32 33
  %5 = getelementptr inbounds %struct.Reg, %struct.Reg* %4, i32 0, i32 0
  %PC = bitcast %union.anon* %5 to i64*
  %6 = getelementptr inbounds %struct.State, %struct.State* %0, i32 0, i32 6
  %7 = getelementptr inbounds %struct.GPR, %struct.GPR* %6, i32 0, i32 1
  %8 = getelementptr inbounds %struct.Reg, %struct.Reg* %7, i32 0, i32 0
  %RAX = bitcast %union.anon* %8 to i64*
  %9 = getelementptr inbounds %struct.State, %struct.State* %0, i32 0, i32 6
  %10 = getelementptr inbounds %struct.GPR, %struct.GPR* %9, i32 0, i32 5
  %11 = getelementptr inbounds %struct.Reg, %struct.Reg* %10, i32 0, i32 0
  %RCX = bitcast %union.anon* %11 to i64*
  %12 = getelementptr inbounds %struct.State, %struct.State* %0, i32 0, i32 1
  %13 = getelementptr inbounds [32 x %union.VectorReg], [32 x %union.VectorReg]* %12, i64 0, i64 0
  %YMM0 = bitcast %union.VectorReg* %13 to %"class.std::bitset"*
  %14 = bitcast %"class.std::bitset"* %YMM0 to i8*
  %15 = load i64, i64* %RAX
  %16 = load i64, i64* %RCX
  %17 = mul i64 %16, 8
  %18 = add i64 %17, %15
  %19 = load i64, i64* %PC
  %20 = add i64 %19, 5
  store i64 %20, i64* %PC
  %21 = inttoptr i64 %18 to double*
  %22 = load double, double* %21
  %23 = bitcast i8* %14 to double*
  store double %22, double* %23, align 1
  %24 = getelementptr inbounds i8, i8* %14, i64 8
  %25 = bitcast i8* %24 to double*
  store double 0.000000e+00, double* %25, align 1
  ret %struct.Memory* %2
}

define %struct.Memory* @routine_callq_._Z18complete_hash_funcIdET_S0_(%struct.State* dereferenceable(3376), i64, %struct.Memory*, i64 %rel_off1, i64 %rel_off2, i64 %rel_off3) {
block_400488:
  %3 = getelementptr inbounds %struct.State, %struct.State* %0, i32 0, i32 6
  %4 = getelementptr inbounds %struct.GPR, %struct.GPR* %3, i32 0, i32 33
  %5 = getelementptr inbounds %struct.Reg, %struct.Reg* %4, i32 0, i32 0
  %PC = bitcast %union.anon* %5 to i64*
  %6 = load i64, i64* %PC
  %7 = add i64 %6, %rel_off1
  %8 = load i64, i64* %PC
  %9 = add i64 %8, %rel_off2
  %10 = load i64, i64* %PC
  %11 = add i64 %10, %rel_off3
  store i64 %11, i64* %PC
  %12 = getelementptr inbounds %struct.State, %struct.State* %0, i64 0, i32 6, i32 13, i32 0, i32 0
  %13 = load i64, i64* %12, align 8
  %14 = add i64 %13, -8
  %15 = inttoptr i64 %14 to i64*
  store i64 %9, i64* %15
  store i64 %14, i64* %12, align 8
  %16 = getelementptr inbounds %struct.State, %struct.State* %0, i64 0, i32 6, i32 33, i32 0, i32 0
  store i64 %7, i64* %16, align 8
  ret %struct.Memory* %2
}

define %struct.Memory* @routine_addsd_MINUS0x28__rbp____xmm0(%struct.State* dereferenceable(3376), i64, %struct.Memory*) {
block_400488:
  %3 = getelementptr inbounds %struct.State, %struct.State* %0, i32 0, i32 6
  %4 = getelementptr inbounds %struct.GPR, %struct.GPR* %3, i32 0, i32 33
  %5 = getelementptr inbounds %struct.Reg, %struct.Reg* %4, i32 0, i32 0
  %PC = bitcast %union.anon* %5 to i64*
  %6 = getelementptr inbounds %struct.State, %struct.State* %0, i32 0, i32 6
  %7 = getelementptr inbounds %struct.GPR, %struct.GPR* %6, i32 0, i32 15
  %8 = getelementptr inbounds %struct.Reg, %struct.Reg* %7, i32 0, i32 0
  %RBP = bitcast %union.anon* %8 to i64*
  %9 = getelementptr inbounds %struct.State, %struct.State* %0, i32 0, i32 1
  %10 = getelementptr inbounds [32 x %union.VectorReg], [32 x %union.VectorReg]* %9, i64 0, i64 0
  %YMM0 = bitcast %union.VectorReg* %10 to %"class.std::bitset"*
  %11 = bitcast %"class.std::bitset"* %YMM0 to i8*
  %12 = bitcast %"class.std::bitset"* %YMM0 to i8*
  %13 = load i64, i64* %RBP
  %14 = sub i64 %13, 40
  %15 = load i64, i64* %PC
  %16 = add i64 %15, 5
  store i64 %16, i64* %PC
  %17 = bitcast i8* %12 to double*
  %18 = load double, double* %17, align 1
  %19 = getelementptr inbounds i8, i8* %12, i64 8
  %20 = bitcast i8* %19 to i64*
  %21 = load i64, i64* %20, align 1
  %22 = inttoptr i64 %14 to double*
  %23 = load double, double* %22
  %24 = fadd double %18, %23
  %25 = bitcast i8* %11 to double*
  store double %24, double* %25, align 1
  %26 = getelementptr inbounds i8, i8* %11, i64 8
  %27 = bitcast i8* %26 to i64*
  store i64 %21, i64* %27, align 1
  ret %struct.Memory* %2
}

define %struct.Memory* @routine_addl__0x1___edx(%struct.State* dereferenceable(3376), i64, %struct.Memory*) {
block_400488:
  %3 = getelementptr inbounds %struct.State, %struct.State* %0, i32 0, i32 6
  %4 = getelementptr inbounds %struct.GPR, %struct.GPR* %3, i32 0, i32 33
  %5 = getelementptr inbounds %struct.Reg, %struct.Reg* %4, i32 0, i32 0
  %PC = bitcast %union.anon* %5 to i64*
  %6 = getelementptr inbounds %struct.State, %struct.State* %0, i32 0, i32 6
  %7 = getelementptr inbounds %struct.GPR, %struct.GPR* %6, i32 0, i32 7
  %8 = getelementptr inbounds %struct.Reg, %struct.Reg* %7, i32 0, i32 0
  %RDX = bitcast %union.anon* %8 to i64*
  %9 = load i64, i64* %RDX
  %10 = load i64, i64* %PC
  %11 = add i64 %10, 3
  store i64 %11, i64* %PC
  %12 = trunc i64 %9 to i32
  %13 = add i32 1, %12
  %14 = zext i32 %13 to i64
  store i64 %14, i64* %RDX, align 8
  %15 = icmp ult i32 %13, %12
  %16 = icmp ult i32 %13, 1
  %17 = or i1 %15, %16
  %18 = zext i1 %17 to i8
  %19 = getelementptr inbounds %struct.State, %struct.State* %0, i64 0, i32 2, i32 1
  store i8 %18, i8* %19, align 1
  %20 = and i32 %13, 255
  %21 = call i32 @llvm.ctpop.i32(i32 %20)
  %22 = trunc i32 %21 to i8
  %23 = and i8 %22, 1
  %24 = xor i8 %23, 1
  %25 = getelementptr inbounds %struct.State, %struct.State* %0, i64 0, i32 2, i32 3
  store i8 %24, i8* %25, align 1
  %26 = xor i64 1, %9
  %27 = trunc i64 %26 to i32
  %28 = xor i32 %27, %13
  %29 = lshr i32 %28, 4
  %30 = trunc i32 %29 to i8
  %31 = and i8 %30, 1
  %32 = getelementptr inbounds %struct.State, %struct.State* %0, i64 0, i32 2, i32 5
  store i8 %31, i8* %32, align 1
  %33 = icmp eq i32 %13, 0
  %34 = zext i1 %33 to i8
  %35 = getelementptr inbounds %struct.State, %struct.State* %0, i64 0, i32 2, i32 7
  store i8 %34, i8* %35, align 1
  %36 = lshr i32 %13, 31
  %37 = trunc i32 %36 to i8
  %38 = getelementptr inbounds %struct.State, %struct.State* %0, i64 0, i32 2, i32 9
  store i8 %37, i8* %38, align 1
  %39 = lshr i32 %12, 31
  %40 = xor i32 %36, %39
  %41 = add i32 %40, %36
  %42 = icmp eq i32 %41, 2
  %43 = zext i1 %42 to i8
  %44 = getelementptr inbounds %struct.State, %struct.State* %0, i64 0, i32 2, i32 13
  store i8 %43, i8* %44, align 1
  ret %struct.Memory* %2
}

define %struct.Memory* @routine_movsd_MINUS0x28__rbp____xmm0(%struct.State* dereferenceable(3376), i64, %struct.Memory*) {
block_400488:
  %3 = getelementptr inbounds %struct.State, %struct.State* %0, i32 0, i32 6
  %4 = getelementptr inbounds %struct.GPR, %struct.GPR* %3, i32 0, i32 33
  %5 = getelementptr inbounds %struct.Reg, %struct.Reg* %4, i32 0, i32 0
  %PC = bitcast %union.anon* %5 to i64*
  %6 = getelementptr inbounds %struct.State, %struct.State* %0, i32 0, i32 6
  %7 = getelementptr inbounds %struct.GPR, %struct.GPR* %6, i32 0, i32 15
  %8 = getelementptr inbounds %struct.Reg, %struct.Reg* %7, i32 0, i32 0
  %RBP = bitcast %union.anon* %8 to i64*
  %9 = getelementptr inbounds %struct.State, %struct.State* %0, i32 0, i32 1
  %10 = getelementptr inbounds [32 x %union.VectorReg], [32 x %union.VectorReg]* %9, i64 0, i64 0
  %YMM0 = bitcast %union.VectorReg* %10 to %"class.std::bitset"*
  %11 = bitcast %"class.std::bitset"* %YMM0 to i8*
  %12 = load i64, i64* %RBP
  %13 = sub i64 %12, 40
  %14 = load i64, i64* %PC
  %15 = add i64 %14, 5
  store i64 %15, i64* %PC
  %16 = inttoptr i64 %13 to double*
  %17 = load double, double* %16
  %18 = bitcast i8* %11 to double*
  store double %17, double* %18, align 1
  %19 = getelementptr inbounds i8, i8* %11, i64 8
  %20 = bitcast i8* %19 to double*
  store double 0.000000e+00, double* %20, align 1
  ret %struct.Memory* %2
}

define %struct.Memory* @routine_callq_._Z9check_sumIdEvT_(%struct.State* dereferenceable(3376), i64, %struct.Memory*, i64 %rel_off1, i64 %rel_off2, i64 %rel_off3) {
block_400488:
  %3 = getelementptr inbounds %struct.State, %struct.State* %0, i32 0, i32 6
  %4 = getelementptr inbounds %struct.GPR, %struct.GPR* %3, i32 0, i32 33
  %5 = getelementptr inbounds %struct.Reg, %struct.Reg* %4, i32 0, i32 0
  %PC = bitcast %union.anon* %5 to i64*
  %6 = load i64, i64* %PC
  %7 = add i64 %6, %rel_off1
  %8 = load i64, i64* %PC
  %9 = add i64 %8, %rel_off2
  %10 = load i64, i64* %PC
  %11 = add i64 %10, %rel_off3
  store i64 %11, i64* %PC
  %12 = getelementptr inbounds %struct.State, %struct.State* %0, i64 0, i32 6, i32 13, i32 0, i32 0
  %13 = load i64, i64* %12, align 8
  %14 = add i64 %13, -8
  %15 = inttoptr i64 %14 to i64*
  store i64 %9, i64* %15
  store i64 %14, i64* %12, align 8
  %16 = getelementptr inbounds %struct.State, %struct.State* %0, i64 0, i32 6, i32 33, i32 0, i32 0
  store i64 %7, i64* %16, align 8
  ret %struct.Memory* %2
}

define %struct.Memory* @routine_addl__0x1___eax(%struct.State* dereferenceable(3376), i64, %struct.Memory*) {
block_400488:
  %3 = getelementptr inbounds %struct.State, %struct.State* %0, i32 0, i32 6
  %4 = getelementptr inbounds %struct.GPR, %struct.GPR* %3, i32 0, i32 33
  %5 = getelementptr inbounds %struct.Reg, %struct.Reg* %4, i32 0, i32 0
  %PC = bitcast %union.anon* %5 to i64*
  %6 = getelementptr inbounds %struct.State, %struct.State* %0, i32 0, i32 6
  %7 = getelementptr inbounds %struct.GPR, %struct.GPR* %6, i32 0, i32 1
  %8 = getelementptr inbounds %struct.Reg, %struct.Reg* %7, i32 0, i32 0
  %RAX = bitcast %union.anon* %8 to i64*
  %9 = load i64, i64* %RAX
  %10 = load i64, i64* %PC
  %11 = add i64 %10, 3
  store i64 %11, i64* %PC
  %12 = trunc i64 %9 to i32
  %13 = add i32 1, %12
  %14 = zext i32 %13 to i64
  store i64 %14, i64* %RAX, align 8
  %15 = icmp ult i32 %13, %12
  %16 = icmp ult i32 %13, 1
  %17 = or i1 %15, %16
  %18 = zext i1 %17 to i8
  %19 = getelementptr inbounds %struct.State, %struct.State* %0, i64 0, i32 2, i32 1
  store i8 %18, i8* %19, align 1
  %20 = and i32 %13, 255
  %21 = call i32 @llvm.ctpop.i32(i32 %20)
  %22 = trunc i32 %21 to i8
  %23 = and i8 %22, 1
  %24 = xor i8 %23, 1
  %25 = getelementptr inbounds %struct.State, %struct.State* %0, i64 0, i32 2, i32 3
  store i8 %24, i8* %25, align 1
  %26 = xor i64 1, %9
  %27 = trunc i64 %26 to i32
  %28 = xor i32 %27, %13
  %29 = lshr i32 %28, 4
  %30 = trunc i32 %29 to i8
  %31 = and i8 %30, 1
  %32 = getelementptr inbounds %struct.State, %struct.State* %0, i64 0, i32 2, i32 5
  store i8 %31, i8* %32, align 1
  %33 = icmp eq i32 %13, 0
  %34 = zext i1 %33 to i8
  %35 = getelementptr inbounds %struct.State, %struct.State* %0, i64 0, i32 2, i32 7
  store i8 %34, i8* %35, align 1
  %36 = lshr i32 %13, 31
  %37 = trunc i32 %36 to i8
  %38 = getelementptr inbounds %struct.State, %struct.State* %0, i64 0, i32 2, i32 9
  store i8 %37, i8* %38, align 1
  %39 = lshr i32 %12, 31
  %40 = xor i32 %36, %39
  %41 = add i32 %40, %36
  %42 = icmp eq i32 %41, 2
  %43 = zext i1 %42 to i8
  %44 = getelementptr inbounds %struct.State, %struct.State* %0, i64 0, i32 2, i32 13
  store i8 %43, i8* %44, align 1
  ret %struct.Memory* %2
}

define %struct.Memory* @routine_movl__eax__MINUS0x1c__rbp_(%struct.State* dereferenceable(3376), i64, %struct.Memory*) {
block_400488:
  %3 = getelementptr inbounds %struct.State, %struct.State* %0, i32 0, i32 6
  %4 = getelementptr inbounds %struct.GPR, %struct.GPR* %3, i32 0, i32 33
  %5 = getelementptr inbounds %struct.Reg, %struct.Reg* %4, i32 0, i32 0
  %PC = bitcast %union.anon* %5 to i64*
  %6 = getelementptr inbounds %struct.State, %struct.State* %0, i32 0, i32 6
  %7 = getelementptr inbounds %struct.GPR, %struct.GPR* %6, i32 0, i32 1
  %8 = getelementptr inbounds %struct.Reg, %struct.Reg* %7, i32 0, i32 0
  %EAX = bitcast %union.anon* %8 to i32*
  %9 = getelementptr inbounds %struct.State, %struct.State* %0, i32 0, i32 6
  %10 = getelementptr inbounds %struct.GPR, %struct.GPR* %9, i32 0, i32 15
  %11 = getelementptr inbounds %struct.Reg, %struct.Reg* %10, i32 0, i32 0
  %RBP = bitcast %union.anon* %11 to i64*
  %12 = load i64, i64* %RBP
  %13 = sub i64 %12, 28
  %14 = load i32, i32* %EAX
  %15 = zext i32 %14 to i64
  %16 = load i64, i64* %PC
  %17 = add i64 %16, 3
  store i64 %17, i64* %PC
  %18 = inttoptr i64 %13 to i32*
  store i32 %14, i32* %18
  ret %struct.Memory* %2
}

define %struct.Memory* @routine_jmpq_.L_4076bf(%struct.State* dereferenceable(3376), i64, %struct.Memory*, i64 %rel_off1, i64 %rel_off2) {
block_400488:
  %3 = getelementptr inbounds %struct.State, %struct.State* %0, i32 0, i32 6
  %4 = getelementptr inbounds %struct.GPR, %struct.GPR* %3, i32 0, i32 33
  %5 = getelementptr inbounds %struct.Reg, %struct.Reg* %4, i32 0, i32 0
  %PC = bitcast %union.anon* %5 to i64*
  %6 = load i64, i64* %PC
  %7 = add i64 %6, %rel_off1
  %8 = load i64, i64* %PC
  %9 = add i64 %8, %rel_off2
  store i64 %9, i64* %PC
  %10 = getelementptr inbounds %struct.State, %struct.State* %0, i64 0, i32 6, i32 33, i32 0, i32 0
  store i64 %7, i64* %10, align 8
  ret %struct.Memory* %2
}

define %struct.Memory* @routine_callq_._Z5timerv(%struct.State* dereferenceable(3376), i64, %struct.Memory*, i64 %rel_off1, i64 %rel_off2, i64 %rel_off3) {
block_400488:
  %3 = getelementptr inbounds %struct.State, %struct.State* %0, i32 0, i32 6
  %4 = getelementptr inbounds %struct.GPR, %struct.GPR* %3, i32 0, i32 33
  %5 = getelementptr inbounds %struct.Reg, %struct.Reg* %4, i32 0, i32 0
  %PC = bitcast %union.anon* %5 to i64*
  %6 = load i64, i64* %PC
  %7 = add i64 %6, %rel_off1
  %8 = load i64, i64* %PC
  %9 = add i64 %8, %rel_off2
  %10 = load i64, i64* %PC
  %11 = add i64 %10, %rel_off3
  store i64 %11, i64* %PC
  %12 = getelementptr inbounds %struct.State, %struct.State* %0, i64 0, i32 6, i32 13, i32 0, i32 0
  %13 = load i64, i64* %12, align 8
  %14 = add i64 %13, -8
  %15 = inttoptr i64 %14 to i64*
  store i64 %9, i64* %15
  store i64 %14, i64* %12, align 8
  %16 = getelementptr inbounds %struct.State, %struct.State* %0, i64 0, i32 6, i32 33, i32 0, i32 0
  store i64 %7, i64* %16, align 8
  ret %struct.Memory* %2
}

define %struct.Memory* @routine_movq_MINUS0x18__rbp____rdi(%struct.State* dereferenceable(3376), i64, %struct.Memory*) {
block_400488:
  %3 = getelementptr inbounds %struct.State, %struct.State* %0, i32 0, i32 6
  %4 = getelementptr inbounds %struct.GPR, %struct.GPR* %3, i32 0, i32 33
  %5 = getelementptr inbounds %struct.Reg, %struct.Reg* %4, i32 0, i32 0
  %PC = bitcast %union.anon* %5 to i64*
  %6 = getelementptr inbounds %struct.State, %struct.State* %0, i32 0, i32 6
  %7 = getelementptr inbounds %struct.GPR, %struct.GPR* %6, i32 0, i32 11
  %8 = getelementptr inbounds %struct.Reg, %struct.Reg* %7, i32 0, i32 0
  %RDI = bitcast %union.anon* %8 to i64*
  %9 = getelementptr inbounds %struct.State, %struct.State* %0, i32 0, i32 6
  %10 = getelementptr inbounds %struct.GPR, %struct.GPR* %9, i32 0, i32 15
  %11 = getelementptr inbounds %struct.Reg, %struct.Reg* %10, i32 0, i32 0
  %RBP = bitcast %union.anon* %11 to i64*
  %12 = load i64, i64* %RBP
  %13 = sub i64 %12, 24
  %14 = load i64, i64* %PC
  %15 = add i64 %14, 4
  store i64 %15, i64* %PC
  %16 = inttoptr i64 %13 to i64*
  %17 = load i64, i64* %16
  store i64 %17, i64* %RDI, align 8
  ret %struct.Memory* %2
}

define %struct.Memory* @routine_callq_._Z13record_resultdPKc(%struct.State* dereferenceable(3376), i64, %struct.Memory*, i64 %rel_off1, i64 %rel_off2, i64 %rel_off3) {
block_400488:
  %3 = getelementptr inbounds %struct.State, %struct.State* %0, i32 0, i32 6
  %4 = getelementptr inbounds %struct.GPR, %struct.GPR* %3, i32 0, i32 33
  %5 = getelementptr inbounds %struct.Reg, %struct.Reg* %4, i32 0, i32 0
  %PC = bitcast %union.anon* %5 to i64*
  %6 = load i64, i64* %PC
  %7 = add i64 %6, %rel_off1
  %8 = load i64, i64* %PC
  %9 = add i64 %8, %rel_off2
  %10 = load i64, i64* %PC
  %11 = add i64 %10, %rel_off3
  store i64 %11, i64* %PC
  %12 = getelementptr inbounds %struct.State, %struct.State* %0, i64 0, i32 6, i32 13, i32 0, i32 0
  %13 = load i64, i64* %12, align 8
  %14 = add i64 %13, -8
  %15 = inttoptr i64 %14 to i64*
  store i64 %9, i64* %15
  store i64 %14, i64* %12, align 8
  %16 = getelementptr inbounds %struct.State, %struct.State* %0, i64 0, i32 6, i32 33, i32 0, i32 0
  store i64 %7, i64* %16, align 8
  ret %struct.Memory* %2
}

define %struct.Memory* @routine_addq__0x30___rsp(%struct.State* dereferenceable(3376), i64, %struct.Memory*) {
block_400488:
  %3 = getelementptr inbounds %struct.State, %struct.State* %0, i32 0, i32 6
  %4 = getelementptr inbounds %struct.GPR, %struct.GPR* %3, i32 0, i32 33
  %5 = getelementptr inbounds %struct.Reg, %struct.Reg* %4, i32 0, i32 0
  %PC = bitcast %union.anon* %5 to i64*
  %6 = getelementptr inbounds %struct.State, %struct.State* %0, i32 0, i32 6
  %7 = getelementptr inbounds %struct.GPR, %struct.GPR* %6, i32 0, i32 13
  %8 = getelementptr inbounds %struct.Reg, %struct.Reg* %7, i32 0, i32 0
  %RSP = bitcast %union.anon* %8 to i64*
  %9 = load i64, i64* %RSP
  %10 = load i64, i64* %PC
  %11 = add i64 %10, 4
  store i64 %11, i64* %PC
  %12 = add i64 48, %9
  store i64 %12, i64* %RSP, align 8
  %13 = icmp ult i64 %12, %9
  %14 = icmp ult i64 %12, 48
  %15 = or i1 %13, %14
  %16 = zext i1 %15 to i8
  %17 = getelementptr inbounds %struct.State, %struct.State* %0, i64 0, i32 2, i32 1
  store i8 %16, i8* %17, align 1
  %18 = trunc i64 %12 to i32
  %19 = and i32 %18, 255
  %20 = call i32 @llvm.ctpop.i32(i32 %19)
  %21 = trunc i32 %20 to i8
  %22 = and i8 %21, 1
  %23 = xor i8 %22, 1
  %24 = getelementptr inbounds %struct.State, %struct.State* %0, i64 0, i32 2, i32 3
  store i8 %23, i8* %24, align 1
  %25 = xor i64 48, %9
  %26 = xor i64 %25, %12
  %27 = lshr i64 %26, 4
  %28 = trunc i64 %27 to i8
  %29 = and i8 %28, 1
  %30 = getelementptr inbounds %struct.State, %struct.State* %0, i64 0, i32 2, i32 5
  store i8 %29, i8* %30, align 1
  %31 = icmp eq i64 %12, 0
  %32 = zext i1 %31 to i8
  %33 = getelementptr inbounds %struct.State, %struct.State* %0, i64 0, i32 2, i32 7
  store i8 %32, i8* %33, align 1
  %34 = lshr i64 %12, 63
  %35 = trunc i64 %34 to i8
  %36 = getelementptr inbounds %struct.State, %struct.State* %0, i64 0, i32 2, i32 9
  store i8 %35, i8* %36, align 1
  %37 = lshr i64 %9, 63
  %38 = xor i64 %34, %37
  %39 = add i64 %38, %34
  %40 = icmp eq i64 %39, 2
  %41 = zext i1 %40 to i8
  %42 = getelementptr inbounds %struct.State, %struct.State* %0, i64 0, i32 2, i32 13
  store i8 %41, i8* %42, align 1
  ret %struct.Memory* %2
}

define %struct.Memory* @routine_popq__rbp(%struct.State* dereferenceable(3376), i64, %struct.Memory*) {
block_400488:
  %3 = getelementptr inbounds %struct.State, %struct.State* %0, i32 0, i32 6
  %4 = getelementptr inbounds %struct.GPR, %struct.GPR* %3, i32 0, i32 33
  %5 = getelementptr inbounds %struct.Reg, %struct.Reg* %4, i32 0, i32 0
  %PC = bitcast %union.anon* %5 to i64*
  %6 = getelementptr inbounds %struct.State, %struct.State* %0, i32 0, i32 6
  %7 = getelementptr inbounds %struct.GPR, %struct.GPR* %6, i32 0, i32 15
  %8 = getelementptr inbounds %struct.Reg, %struct.Reg* %7, i32 0, i32 0
  %RBP = bitcast %union.anon* %8 to i64*
  %9 = load i64, i64* %PC
  %10 = add i64 %9, 1
  store i64 %10, i64* %PC
  %11 = getelementptr inbounds %struct.State, %struct.State* %0, i64 0, i32 6, i32 13, i32 0, i32 0
  %12 = load i64, i64* %11, align 8
  %13 = add i64 %12, 8
  %14 = inttoptr i64 %12 to i64*
  %15 = load i64, i64* %14
  store i64 %15, i64* %RBP, align 8
  store i64 %13, i64* %11, align 8
  ret %struct.Memory* %2
}

define %struct.Memory* @routine_retq(%struct.State* dereferenceable(3376), i64, %struct.Memory*) {
block_400488:
  %3 = getelementptr inbounds %struct.State, %struct.State* %0, i32 0, i32 6
  %4 = getelementptr inbounds %struct.GPR, %struct.GPR* %3, i32 0, i32 33
  %5 = getelementptr inbounds %struct.Reg, %struct.Reg* %4, i32 0, i32 0
  %PC = bitcast %union.anon* %5 to i64*
  %6 = load i64, i64* %PC
  %7 = add i64 %6, 1
  store i64 %7, i64* %PC
  %8 = getelementptr inbounds %struct.State, %struct.State* %0, i64 0, i32 6, i32 33, i32 0, i32 0
  %9 = getelementptr inbounds %struct.State, %struct.State* %0, i64 0, i32 6, i32 13, i32 0, i32 0
  %10 = load i64, i64* %9, align 8
  %11 = inttoptr i64 %10 to i64*
  %12 = load i64, i64* %11
  store i64 %12, i64* %8, align 8
  %13 = add i64 %10, 8
  store i64 %13, i64* %9, align 8
  ret %struct.Memory* %2
}

attributes #0 = { nounwind readnone }
attributes #1 = { alwaysinline }
