; ModuleID = 'test.bc'
source_filename = "llvm-link"
target datalayout = "e-m:e-i64:64-f80:128-n8:16:32:64-S128"
target triple = "x86_64-pc-linux-gnu-elf"
%union.anon = type { i64 }
%seg_400388__init_type = type <{ [23 x i8] }>
%seg_4003a0__text_type = type <{ [354 x i8] }>
%seg_400504__fini_type = type <{ [9 x i8] }>
%seg_400510__rodata_type = type <{ [4 x i8] }>
%seg_400514__eh_frame_hdr_type = type <{ [52 x i8] }>
%seg_400548__eh_frame_type = type <{ [208 x i8] }>
%seg_600e40__init_array_type = type <{ i64, i64 }>
%seg_601018__data_type = type <{ [16 x i8] }>
%__bss_start_type = type <{ [8 x i8] }>
%struct.State = type { %struct.ArchState, [32 x %union.VectorReg], %struct.ArithFlags, %union.anon, %struct.Segments, %struct.AddressSpace, %struct.GPR, %struct.X87Stack, %struct.MMX, %struct.FPUStatusFlags, %union.anon, %union.FPU, %struct.SegmentCaches }
%struct.ArchState = type { i32, i32, %union.anon }
%union.VectorReg = type { %union.vec512_t }
%union.vec512_t = type { %struct.uint64v8_t }
%struct.uint64v8_t = type { [8 x i64] }
%struct.ArithFlags = type { i8, i8, i8, i8, i8, i8, i8, i8, i8, i8, i8, i8, i8, i8, i8, i8 }
%struct.Segments = type { i16, %union.SegmentSelector, i16, %union.SegmentSelector, i16, %union.SegmentSelector, i16, %union.SegmentSelector, i16, %union.SegmentSelector, i16, %union.SegmentSelector }
%union.SegmentSelector = type { i16 }
%struct.AddressSpace = type { i64, %struct.Reg, i64, %struct.Reg, i64, %struct.Reg, i64, %struct.Reg, i64, %struct.Reg, i64, %struct.Reg }
%struct.Reg = type { %union.anon }
%struct.GPR = type { i64, %struct.Reg, i64, %struct.Reg, i64, %struct.Reg, i64, %struct.Reg, i64, %struct.Reg, i64, %struct.Reg, i64, %struct.Reg, i64, %struct.Reg, i64, %struct.Reg, i64, %struct.Reg, i64, %struct.Reg, i64, %struct.Reg, i64, %struct.Reg, i64, %struct.Reg, i64, %struct.Reg, i64, %struct.Reg, i64, %struct.Reg }
%struct.X87Stack = type { [8 x %struct.anon.3] }
%struct.anon.3 = type { i64, double }
%struct.MMX = type { [8 x %struct.anon.4] }
%struct.anon.4 = type { i64, %union.vec64_t }
%union.vec64_t = type { %struct.uint64v1_t }
%struct.uint64v1_t = type { [1 x i64] }
%struct.FPUStatusFlags = type { i8, i8, i8, i8, i8, i8, i8, i8, i8, i8, i8, i8, i8, i8, i8, i8, i8, i8, i8, i8, [4 x i8] }
%union.FPU = type { %struct.anon.13 }
%struct.anon.13 = type { %struct.FpuFXSAVE, [96 x i8] }
%struct.FpuFXSAVE = type { %union.SegmentSelector, %union.SegmentSelector, %union.FPUAbridgedTagWord, i8, i16, i32, %union.SegmentSelector, i16, i32, %union.SegmentSelector, i16, %union.FPUControlStatus, %union.FPUControlStatus, [8 x %struct.FPUStackElem], [16 x %union.vec128_t] }
%union.FPUAbridgedTagWord = type { i8 }
%union.FPUControlStatus = type { i32 }
%struct.FPUStackElem = type { %union.anon.11, [6 x i8] }
%union.anon.11 = type { %struct.float80_t }
%struct.float80_t = type { [10 x i8] }
%union.vec128_t = type { %struct.uint128v1_t }
%struct.uint128v1_t = type { [1 x i128] }
%struct.SegmentCaches = type { %struct.SegmentShadow, %struct.SegmentShadow, %struct.SegmentShadow, %struct.SegmentShadow, %struct.SegmentShadow, %struct.SegmentShadow }
%struct.SegmentShadow = type { %union.anon, i32, i32 }
%struct.Memory = type opaque
%struct.uint8v32_t = type { [32 x i8] }
%struct.anon.2 = type { i8, i8 }
%struct.int32v8_t = type { [8 x i32] }
%struct.float32v8_t = type { [8 x float] }
%struct.uint8v8_t = type { [8 x i8] }
%struct.uint8v16_t = type { [16 x i8] }
%struct.uint16v8_t = type { [8 x i16] }
%struct.uint8v4_t = type { [4 x i8] }
%struct.int16v4_t = type { [4 x i16] }
%struct.int32v4_t = type { [4 x i32] }
%struct.uint64v2_t = type { [2 x i64] }
%struct.uint64v4_t = type { [4 x i64] }
%struct.uint128v2_t = type { [2 x i128] }
%struct.uint16v16_t = type { [16 x i16] }
%struct.float64v4_t = type { [4 x double] }
%"class.(anonymous namespace)::BitMatrix" = type { %"class.std::bitset", [16 x [16 x i8]] }
%"class.std::bitset" = type { %struct.uint64v4_t }
%struct.bcd80_t = type { [9 x %union.FPUAbridgedTagWord], %union.FPUAbridgedTagWord }
%struct.FpuFSAVE = type { %union.SegmentSelector, i16, %union.SegmentSelector, i16, %union.SegmentSelector, i16, i32, %union.SegmentSelector, i16, i32, %union.SegmentSelector, i16, [8 x %struct.FPUStackElem] }
%struct.anon.5 = type { i32, i32 }
@switch.table = private unnamed_addr constant [4 x i32] [i32 2048, i32 3072, i32 0, i32 1024]
@DR0 = external global i64, align 8
@DR1 = external global i64, align 8
@DR2 = external global i64, align 8
@DR3 = external global i64, align 8
@DR4 = external global i64, align 8
@DR5 = external global i64, align 8
@DR6 = external global i64, align 8
@DR7 = external global i64, align 8
@gCR0 = external global %union.anon, align 1
@gCR1 = external global %union.anon, align 1
@gCR2 = external global %union.anon, align 1
@gCR3 = external global %union.anon, align 1
@gCR4 = external global %union.anon, align 1
@gCR8 = external global %union.anon, align 1
@seg_400388__init = internal constant %seg_400388__init_type <{ [23 x i8] c"H\83\EC\08H\8B\05e\0C \00H\85\C0t\02\FF\D0H\83\C4\08\C3" }>
@seg_4003a0__text = internal constant %seg_4003a0__text_type <{ [354 x i8] c"1\EDI\89\D1^H\89\E2H\83\E4\F0PTI\C7\C0\00\05@\00H\C7\C1\90\04@\00H\C7\C7\88\04@\00\FF\15&\0C \00\F4\0F\1FD\00\00\F3\C3f.\0F\1F\84\00\00\00\00\00\0F\1F@\00U\B8(\10`\00H=(\10`\00H\89\E5t\17\B8\00\00\00\00H\85\C0t\0D]\BF(\10`\00\FF\E0\0F\1FD\00\00]\C3f\0F\1FD\00\00\BE(\10`\00UH\81\EE(\10`\00H\89\E5H\C1\FE\03H\89\F0H\C1\E8?H\01\C6H\D1\FEt\15\B8\00\00\00\00H\85\C0t\0B]\BF(\10`\00\FF\E0\0F\1F\00]\C3f\0F\1FD\00\00\80=\D1\0B \00\00u\17UH\89\E5\E8~\FF\FF\FF\C6\05\BF\0B \00\01]\C3\0F\1FD\00\00\F3\C3\0F\1F@\00f.\0F\1F\84\00\00\00\00\00UH\89\E5]\EB\89\90U\C3f\0F\1FD\00\00AWAVI\89\D7AUATL\8D%\9E\09 \00UH\8D-\9E\09 \00SA\89\FDI\89\F6L)\E5H\83\EC\08H\C1\FD\03\E8\C7\FE\FF\FFH\85\EDt 1\DB\0F\1F\84\00\00\00\00\00L\89\FAL\89\F6D\89\EFA\FF\14\DCH\83\C3\01H9\DDu\EAH\83\C4\08[]A\5CA]A^A_\C3\90f.\0F\1F\84\00\00\00\00\00\F3\C3" }>
@seg_400504__fini = internal constant %seg_400504__fini_type <{ [9 x i8] c"H\83\EC\08H\83\C4\08\C3" }>
@seg_400510__rodata = internal constant %seg_400510__rodata_type <{ [4 x i8] c"\01\00\02\00" }>
@seg_400514__eh_frame_hdr = internal constant %seg_400514__eh_frame_hdr_type <{ [52 x i8] c"\01\1B\03;0\00\00\00\05\00\00\00\8C\FE\FF\FFL\00\00\00\BC\FE\FF\FFx\00\00\00t\FF\FF\FF\8C\00\00\00|\FF\FF\FF\A4\00\00\00\EC\FF\FF\FF\EC\00\00\00" }>
@seg_400548__eh_frame = internal constant %seg_400548__eh_frame_type <{ [208 x i8] c"\14\00\00\00\00\00\00\00\01zR\00\01x\10\01\1B\0C\07\08\90\01\07\10\10\00\00\00\1C\00\00\008\FE\FF\FF+\00\00\00\00\00\00\00\14\00\00\00\00\00\00\00\01zR\00\01x\10\01\1B\0C\07\08\90\01\00\00\10\00\00\00\1C\00\00\00<\FE\FF\FF\02\00\00\00\00\00\00\00\14\00\00\000\00\00\00\E0\FE\FF\FF\02\00\00\00\00\00\00\00\00\00\00\00D\00\00\00H\00\00\00\D0\FE\FF\FFe\00\00\00\00B\0E\10\8F\02B\0E\18\8E\03E\0E \8D\04B\0E(\8C\05H\0E0\86\06H\0E8\83\07M\0E@r\0E8A\0E0A\0E(B\0E B\0E\18B\0E\10B\0E\08\00\10\00\00\00\90\00\00\00\F8\FE\FF\FF\02\00\00\00\00\00\00\00\00\00\00\00" }>
@seg_601018__data = internal global %seg_601018__data_type zeroinitializer
@__bss_start = global %__bss_start_type zeroinitializer
@0 = internal global i1 false
%seg_400514__fini_type = type <{ [9 x i8] }>
%seg_400520__rodata_type = type <{ [4 x i8] }>
%seg_400524__eh_frame_hdr_type = type <{ [52 x i8] }>
%seg_400558__eh_frame_type = type <{ [208 x i8] }>
@seg_400514__fini = internal constant %seg_400514__fini_type <{ [9 x i8] c"H\83\EC\08H\83\C4\08\C3" }>
@seg_400520__rodata = internal constant %seg_400520__rodata_type <{ [4 x i8] c"\01\00\02\00" }>
@seg_400524__eh_frame_hdr = internal constant %seg_400524__eh_frame_hdr_type <{ [52 x i8] c"\01\1B\03;0\00\00\00\05\00\00\00|\FE\FF\FFL\00\00\00\AC\FE\FF\FFx\00\00\00d\FF\FF\FF\8C\00\00\00|\FF\FF\FF\A4\00\00\00\EC\FF\FF\FF\EC\00\00\00" }>
@seg_400558__eh_frame = internal constant %seg_400558__eh_frame_type <{ [208 x i8] c"\14\00\00\00\00\00\00\00\01zR\00\01x\10\01\1B\0C\07\08\90\01\07\10\10\00\00\00\1C\00\00\00(\FE\FF\FF+\00\00\00\00\00\00\00\14\00\00\00\00\00\00\00\01zR\00\01x\10\01\1B\0C\07\08\90\01\00\00\10\00\00\00\1C\00\00\00,\FE\FF\FF\02\00\00\00\00\00\00\00\14\00\00\000\00\00\00\D0\FE\FF\FF\09\00\00\00\00\00\00\00\00\00\00\00D\00\00\00H\00\00\00\D0\FE\FF\FFe\00\00\00\00B\0E\10\8F\02B\0E\18\8E\03E\0E \8D\04B\0E(\8C\05H\0E0\86\06H\0E8\83\07M\0E@r\0E8A\0E0A\0E(B\0E B\0E\18B\0E\10B\0E\08\00\10\00\00\00\90\00\00\00\F8\FE\FF\FF\02\00\00\00\00\00\00\00\00\00\00\00" }>

; Function Declaraions
declare i32 @llvm.ctpop.i32(i32) #2
declare %struct.Memory* @__remill_error(%struct.State* dereferenceable(3376), i64, %struct.Memory*)

declare %struct.Memory* @sub_4006d0.sqrt_plt(%struct.State* dereferenceable(3376), i64, %struct.Memory*)

; Data Access Globals


define %struct.Memory* @kernel_cholesky_StrictFP(%struct.State* noalias , i64, %struct.Memory* noalias) alwaysinline  {
entry:
  %3 = getelementptr inbounds %struct.State, %struct.State* %0, i64 0, i32 6, i32 33, i32 0, i32 0
  store i64 %1, i64* %3, align 8
  %BRANCH_TAKEN = alloca i8, align 1
  store i8 0, i8* %BRANCH_TAKEN, align 1
  %MEMORY = alloca %struct.Memory*, align 8
  store %struct.Memory* %2, %struct.Memory** %MEMORY, align 8

  ; Code: .kernel_cholesky_StrictFP:	 RIP: 400d30	 Bytes: 0
  ; Code: pushq %rbp	 RIP: 400d30	 Bytes: 1
  %loadMem_400d30 = load %struct.Memory*, %struct.Memory** %MEMORY
  %call_400d30 = call %struct.Memory* @routine_pushq__rbp(%struct.State* %0, i64  0, %struct.Memory* %loadMem_400d30)
  store %struct.Memory* %call_400d30, %struct.Memory** %MEMORY

  ; Code: movq %rsp, %rbp	 RIP: 400d31	 Bytes: 3
  %loadMem_400d31 = load %struct.Memory*, %struct.Memory** %MEMORY
  %call_400d31 = call %struct.Memory* @routine_movq__rsp___rbp(%struct.State* %0, i64  0, %struct.Memory* %loadMem_400d31)
  store %struct.Memory* %call_400d31, %struct.Memory** %MEMORY

  ; Code: subq $0x40, %rsp	 RIP: 400d34	 Bytes: 4
  %loadMem_400d34 = load %struct.Memory*, %struct.Memory** %MEMORY
  %call_400d34 = call %struct.Memory* @routine_subq__0x40___rsp(%struct.State* %0, i64  0, %struct.Memory* %loadMem_400d34)
  store %struct.Memory* %call_400d34, %struct.Memory** %MEMORY

  ; Code: movl %edi, -0x4(%rbp)	 RIP: 400d38	 Bytes: 3
  %loadMem_400d38 = load %struct.Memory*, %struct.Memory** %MEMORY
  %call_400d38 = call %struct.Memory* @routine_movl__edi__MINUS0x4__rbp_(%struct.State* %0, i64  0, %struct.Memory* %loadMem_400d38)
  store %struct.Memory* %call_400d38, %struct.Memory** %MEMORY

  ; Code: movq %rsi, -0x10(%rbp)	 RIP: 400d3b	 Bytes: 4
  %loadMem_400d3b = load %struct.Memory*, %struct.Memory** %MEMORY
  %call_400d3b = call %struct.Memory* @routine_movq__rsi__MINUS0x10__rbp_(%struct.State* %0, i64  0, %struct.Memory* %loadMem_400d3b)
  store %struct.Memory* %call_400d3b, %struct.Memory** %MEMORY

  ; Code: movq %rdx, -0x18(%rbp)	 RIP: 400d3f	 Bytes: 4
  %loadMem_400d3f = load %struct.Memory*, %struct.Memory** %MEMORY
  %call_400d3f = call %struct.Memory* @routine_movq__rdx__MINUS0x18__rbp_(%struct.State* %0, i64  0, %struct.Memory* %loadMem_400d3f)
  store %struct.Memory* %call_400d3f, %struct.Memory** %MEMORY

  ; Code: movl $0x0, -0x1c(%rbp)	 RIP: 400d43	 Bytes: 7
  %loadMem_400d43 = load %struct.Memory*, %struct.Memory** %MEMORY
  %call_400d43 = call %struct.Memory* @routine_movl__0x0__MINUS0x1c__rbp_(%struct.State* %0, i64  0, %struct.Memory* %loadMem_400d43)
  store %struct.Memory* %call_400d43, %struct.Memory** %MEMORY

  ; Code: .L_400d4a:	 RIP: 400d4a	 Bytes: 0
  br label %block_.L_400d4a
block_.L_400d4a:

  ; Code: movl -0x1c(%rbp), %eax	 RIP: 400d4a	 Bytes: 3
  %loadMem_400d4a = load %struct.Memory*, %struct.Memory** %MEMORY
  %call_400d4a = call %struct.Memory* @routine_movl_MINUS0x1c__rbp____eax(%struct.State* %0, i64  0, %struct.Memory* %loadMem_400d4a)
  store %struct.Memory* %call_400d4a, %struct.Memory** %MEMORY

  ; Code: cmpl -0x4(%rbp), %eax	 RIP: 400d4d	 Bytes: 3
  %loadMem_400d4d = load %struct.Memory*, %struct.Memory** %MEMORY
  %call_400d4d = call %struct.Memory* @routine_cmpl_MINUS0x4__rbp____eax(%struct.State* %0, i64  0, %struct.Memory* %loadMem_400d4d)
  store %struct.Memory* %call_400d4d, %struct.Memory** %MEMORY

  ; Code: jge .L_400ef1	 RIP: 400d50	 Bytes: 6
  %loadMem_400d50 = load %struct.Memory*, %struct.Memory** %MEMORY
  %call_400d50 = call %struct.Memory* @routine_jge_.L_400ef1(%struct.State* %0, i64  0, %struct.Memory* %loadMem_400d50, i8* %BRANCH_TAKEN, i64 417, i64 6, i64 6)
  store %struct.Memory* %call_400d50, %struct.Memory** %MEMORY

  %loadBr_400d50 = load i8, i8* %BRANCH_TAKEN
  %cmpBr_400d50 = icmp eq i8 %loadBr_400d50, 1
  br i1 %cmpBr_400d50, label %block_.L_400ef1, label %block_400d56

block_400d56:
  ; Code: movq -0x18(%rbp), %rax	 RIP: 400d56	 Bytes: 4
  %loadMem_400d56 = load %struct.Memory*, %struct.Memory** %MEMORY
  %call_400d56 = call %struct.Memory* @routine_movq_MINUS0x18__rbp____rax(%struct.State* %0, i64  0, %struct.Memory* %loadMem_400d56)
  store %struct.Memory* %call_400d56, %struct.Memory** %MEMORY

  ; Code: movslq -0x1c(%rbp), %rcx	 RIP: 400d5a	 Bytes: 4
  %loadMem_400d5a = load %struct.Memory*, %struct.Memory** %MEMORY
  %call_400d5a = call %struct.Memory* @routine_movslq_MINUS0x1c__rbp____rcx(%struct.State* %0, i64  0, %struct.Memory* %loadMem_400d5a)
  store %struct.Memory* %call_400d5a, %struct.Memory** %MEMORY

  ; Code: shlq $0xd, %rcx	 RIP: 400d5e	 Bytes: 4
  %loadMem_400d5e = load %struct.Memory*, %struct.Memory** %MEMORY
  %call_400d5e = call %struct.Memory* @routine_shlq__0xd___rcx(%struct.State* %0, i64  0, %struct.Memory* %loadMem_400d5e)
  store %struct.Memory* %call_400d5e, %struct.Memory** %MEMORY

  ; Code: addq %rcx, %rax	 RIP: 400d62	 Bytes: 3
  %loadMem_400d62 = load %struct.Memory*, %struct.Memory** %MEMORY
  %call_400d62 = call %struct.Memory* @routine_addq__rcx___rax(%struct.State* %0, i64  0, %struct.Memory* %loadMem_400d62)
  store %struct.Memory* %call_400d62, %struct.Memory** %MEMORY

  ; Code: movslq -0x1c(%rbp), %rcx	 RIP: 400d65	 Bytes: 4
  %loadMem_400d65 = load %struct.Memory*, %struct.Memory** %MEMORY
  %call_400d65 = call %struct.Memory* @routine_movslq_MINUS0x1c__rbp____rcx(%struct.State* %0, i64  0, %struct.Memory* %loadMem_400d65)
  store %struct.Memory* %call_400d65, %struct.Memory** %MEMORY

  ; Code: movsd (%rax,%rcx,8), %xmm0	 RIP: 400d69	 Bytes: 5
  %loadMem_400d69 = load %struct.Memory*, %struct.Memory** %MEMORY
  %call_400d69 = call %struct.Memory* @routine_movsd___rax__rcx_8____xmm0(%struct.State* %0, i64  0, %struct.Memory* %loadMem_400d69)
  store %struct.Memory* %call_400d69, %struct.Memory** %MEMORY

  ; Code: cvtsi2sdl -0x4(%rbp), %xmm1	 RIP: 400d6e	 Bytes: 5
  %loadMem_400d6e = load %struct.Memory*, %struct.Memory** %MEMORY
  %call_400d6e = call %struct.Memory* @routine_cvtsi2sdl_MINUS0x4__rbp____xmm1(%struct.State* %0, i64  0, %struct.Memory* %loadMem_400d6e)
  store %struct.Memory* %call_400d6e, %struct.Memory** %MEMORY

  ; Code: mulsd %xmm1, %xmm0	 RIP: 400d73	 Bytes: 4
  %loadMem_400d73 = load %struct.Memory*, %struct.Memory** %MEMORY
  %call_400d73 = call %struct.Memory* @routine_mulsd__xmm1___xmm0(%struct.State* %0, i64  0, %struct.Memory* %loadMem_400d73)
  store %struct.Memory* %call_400d73, %struct.Memory** %MEMORY

  ; Code: movsd %xmm0, -0x30(%rbp)	 RIP: 400d77	 Bytes: 5
  %loadMem_400d77 = load %struct.Memory*, %struct.Memory** %MEMORY
  %call_400d77 = call %struct.Memory* @routine_movsd__xmm0__MINUS0x30__rbp_(%struct.State* %0, i64  0, %struct.Memory* %loadMem_400d77)
  store %struct.Memory* %call_400d77, %struct.Memory** %MEMORY

  ; Code: movl $0x0, -0x20(%rbp)	 RIP: 400d7c	 Bytes: 7
  %loadMem_400d7c = load %struct.Memory*, %struct.Memory** %MEMORY
  %call_400d7c = call %struct.Memory* @routine_movl__0x0__MINUS0x20__rbp_(%struct.State* %0, i64  0, %struct.Memory* %loadMem_400d7c)
  store %struct.Memory* %call_400d7c, %struct.Memory** %MEMORY

  ; Code: .L_400d83:	 RIP: 400d83	 Bytes: 0
  br label %block_.L_400d83
block_.L_400d83:

  ; Code: movl -0x20(%rbp), %eax	 RIP: 400d83	 Bytes: 3
  %loadMem_400d83 = load %struct.Memory*, %struct.Memory** %MEMORY
  %call_400d83 = call %struct.Memory* @routine_movl_MINUS0x20__rbp____eax(%struct.State* %0, i64  0, %struct.Memory* %loadMem_400d83)
  store %struct.Memory* %call_400d83, %struct.Memory** %MEMORY

  ; Code: movl -0x1c(%rbp), %ecx	 RIP: 400d86	 Bytes: 3
  %loadMem_400d86 = load %struct.Memory*, %struct.Memory** %MEMORY
  %call_400d86 = call %struct.Memory* @routine_movl_MINUS0x1c__rbp____ecx(%struct.State* %0, i64  0, %struct.Memory* %loadMem_400d86)
  store %struct.Memory* %call_400d86, %struct.Memory** %MEMORY

  ; Code: subl $0x1, %ecx	 RIP: 400d89	 Bytes: 3
  %loadMem_400d89 = load %struct.Memory*, %struct.Memory** %MEMORY
  %call_400d89 = call %struct.Memory* @routine_subl__0x1___ecx(%struct.State* %0, i64  0, %struct.Memory* %loadMem_400d89)
  store %struct.Memory* %call_400d89, %struct.Memory** %MEMORY

  ; Code: cmpl %ecx, %eax	 RIP: 400d8c	 Bytes: 2
  %loadMem_400d8c = load %struct.Memory*, %struct.Memory** %MEMORY
  %call_400d8c = call %struct.Memory* @routine_cmpl__ecx___eax(%struct.State* %0, i64  0, %struct.Memory* %loadMem_400d8c)
  store %struct.Memory* %call_400d8c, %struct.Memory** %MEMORY

  ; Code: jg .L_400de0	 RIP: 400d8e	 Bytes: 6
  %loadMem_400d8e = load %struct.Memory*, %struct.Memory** %MEMORY
  %call_400d8e = call %struct.Memory* @routine_jg_.L_400de0(%struct.State* %0, i64  0, %struct.Memory* %loadMem_400d8e, i8* %BRANCH_TAKEN, i64 82, i64 6, i64 6)
  store %struct.Memory* %call_400d8e, %struct.Memory** %MEMORY

  %loadBr_400d8e = load i8, i8* %BRANCH_TAKEN
  %cmpBr_400d8e = icmp eq i8 %loadBr_400d8e, 1
  br i1 %cmpBr_400d8e, label %block_.L_400de0, label %block_400d94

block_400d94:
  ; Code: movsd -0x30(%rbp), %xmm0	 RIP: 400d94	 Bytes: 5
  %loadMem_400d94 = load %struct.Memory*, %struct.Memory** %MEMORY
  %call_400d94 = call %struct.Memory* @routine_movsd_MINUS0x30__rbp____xmm0(%struct.State* %0, i64  0, %struct.Memory* %loadMem_400d94)
  store %struct.Memory* %call_400d94, %struct.Memory** %MEMORY

  ; Code: movq -0x18(%rbp), %rax	 RIP: 400d99	 Bytes: 4
  %loadMem_400d99 = load %struct.Memory*, %struct.Memory** %MEMORY
  %call_400d99 = call %struct.Memory* @routine_movq_MINUS0x18__rbp____rax(%struct.State* %0, i64  0, %struct.Memory* %loadMem_400d99)
  store %struct.Memory* %call_400d99, %struct.Memory** %MEMORY

  ; Code: movslq -0x1c(%rbp), %rcx	 RIP: 400d9d	 Bytes: 4
  %loadMem_400d9d = load %struct.Memory*, %struct.Memory** %MEMORY
  %call_400d9d = call %struct.Memory* @routine_movslq_MINUS0x1c__rbp____rcx(%struct.State* %0, i64  0, %struct.Memory* %loadMem_400d9d)
  store %struct.Memory* %call_400d9d, %struct.Memory** %MEMORY

  ; Code: shlq $0xd, %rcx	 RIP: 400da1	 Bytes: 4
  %loadMem_400da1 = load %struct.Memory*, %struct.Memory** %MEMORY
  %call_400da1 = call %struct.Memory* @routine_shlq__0xd___rcx(%struct.State* %0, i64  0, %struct.Memory* %loadMem_400da1)
  store %struct.Memory* %call_400da1, %struct.Memory** %MEMORY

  ; Code: addq %rcx, %rax	 RIP: 400da5	 Bytes: 3
  %loadMem_400da5 = load %struct.Memory*, %struct.Memory** %MEMORY
  %call_400da5 = call %struct.Memory* @routine_addq__rcx___rax(%struct.State* %0, i64  0, %struct.Memory* %loadMem_400da5)
  store %struct.Memory* %call_400da5, %struct.Memory** %MEMORY

  ; Code: movslq -0x20(%rbp), %rcx	 RIP: 400da8	 Bytes: 4
  %loadMem_400da8 = load %struct.Memory*, %struct.Memory** %MEMORY
  %call_400da8 = call %struct.Memory* @routine_movslq_MINUS0x20__rbp____rcx(%struct.State* %0, i64  0, %struct.Memory* %loadMem_400da8)
  store %struct.Memory* %call_400da8, %struct.Memory** %MEMORY

  ; Code: movsd (%rax,%rcx,8), %xmm1	 RIP: 400dac	 Bytes: 5
  %loadMem_400dac = load %struct.Memory*, %struct.Memory** %MEMORY
  %call_400dac = call %struct.Memory* @routine_movsd___rax__rcx_8____xmm1(%struct.State* %0, i64  0, %struct.Memory* %loadMem_400dac)
  store %struct.Memory* %call_400dac, %struct.Memory** %MEMORY

  ; Code: movq -0x18(%rbp), %rax	 RIP: 400db1	 Bytes: 4
  %loadMem_400db1 = load %struct.Memory*, %struct.Memory** %MEMORY
  %call_400db1 = call %struct.Memory* @routine_movq_MINUS0x18__rbp____rax(%struct.State* %0, i64  0, %struct.Memory* %loadMem_400db1)
  store %struct.Memory* %call_400db1, %struct.Memory** %MEMORY

  ; Code: movslq -0x1c(%rbp), %rcx	 RIP: 400db5	 Bytes: 4
  %loadMem_400db5 = load %struct.Memory*, %struct.Memory** %MEMORY
  %call_400db5 = call %struct.Memory* @routine_movslq_MINUS0x1c__rbp____rcx(%struct.State* %0, i64  0, %struct.Memory* %loadMem_400db5)
  store %struct.Memory* %call_400db5, %struct.Memory** %MEMORY

  ; Code: shlq $0xd, %rcx	 RIP: 400db9	 Bytes: 4
  %loadMem_400db9 = load %struct.Memory*, %struct.Memory** %MEMORY
  %call_400db9 = call %struct.Memory* @routine_shlq__0xd___rcx(%struct.State* %0, i64  0, %struct.Memory* %loadMem_400db9)
  store %struct.Memory* %call_400db9, %struct.Memory** %MEMORY

  ; Code: addq %rcx, %rax	 RIP: 400dbd	 Bytes: 3
  %loadMem_400dbd = load %struct.Memory*, %struct.Memory** %MEMORY
  %call_400dbd = call %struct.Memory* @routine_addq__rcx___rax(%struct.State* %0, i64  0, %struct.Memory* %loadMem_400dbd)
  store %struct.Memory* %call_400dbd, %struct.Memory** %MEMORY

  ; Code: movslq -0x20(%rbp), %rcx	 RIP: 400dc0	 Bytes: 4
  %loadMem_400dc0 = load %struct.Memory*, %struct.Memory** %MEMORY
  %call_400dc0 = call %struct.Memory* @routine_movslq_MINUS0x20__rbp____rcx(%struct.State* %0, i64  0, %struct.Memory* %loadMem_400dc0)
  store %struct.Memory* %call_400dc0, %struct.Memory** %MEMORY

  ; Code: mulsd (%rax,%rcx,8), %xmm1	 RIP: 400dc4	 Bytes: 5
  %loadMem_400dc4 = load %struct.Memory*, %struct.Memory** %MEMORY
  %call_400dc4 = call %struct.Memory* @routine_mulsd___rax__rcx_8____xmm1(%struct.State* %0, i64  0, %struct.Memory* %loadMem_400dc4)
  store %struct.Memory* %call_400dc4, %struct.Memory** %MEMORY

  ; Code: subsd %xmm1, %xmm0	 RIP: 400dc9	 Bytes: 4
  %loadMem_400dc9 = load %struct.Memory*, %struct.Memory** %MEMORY
  %call_400dc9 = call %struct.Memory* @routine_subsd__xmm1___xmm0(%struct.State* %0, i64  0, %struct.Memory* %loadMem_400dc9)
  store %struct.Memory* %call_400dc9, %struct.Memory** %MEMORY

  ; Code: movsd %xmm0, -0x30(%rbp)	 RIP: 400dcd	 Bytes: 5
  %loadMem_400dcd = load %struct.Memory*, %struct.Memory** %MEMORY
  %call_400dcd = call %struct.Memory* @routine_movsd__xmm0__MINUS0x30__rbp_(%struct.State* %0, i64  0, %struct.Memory* %loadMem_400dcd)
  store %struct.Memory* %call_400dcd, %struct.Memory** %MEMORY

  ; Code: movl -0x20(%rbp), %eax	 RIP: 400dd2	 Bytes: 3
  %loadMem_400dd2 = load %struct.Memory*, %struct.Memory** %MEMORY
  %call_400dd2 = call %struct.Memory* @routine_movl_MINUS0x20__rbp____eax(%struct.State* %0, i64  0, %struct.Memory* %loadMem_400dd2)
  store %struct.Memory* %call_400dd2, %struct.Memory** %MEMORY

  ; Code: addl $0x1, %eax	 RIP: 400dd5	 Bytes: 3
  %loadMem_400dd5 = load %struct.Memory*, %struct.Memory** %MEMORY
  %call_400dd5 = call %struct.Memory* @routine_addl__0x1___eax(%struct.State* %0, i64  0, %struct.Memory* %loadMem_400dd5)
  store %struct.Memory* %call_400dd5, %struct.Memory** %MEMORY

  ; Code: movl %eax, -0x20(%rbp)	 RIP: 400dd8	 Bytes: 3
  %loadMem_400dd8 = load %struct.Memory*, %struct.Memory** %MEMORY
  %call_400dd8 = call %struct.Memory* @routine_movl__eax__MINUS0x20__rbp_(%struct.State* %0, i64  0, %struct.Memory* %loadMem_400dd8)
  store %struct.Memory* %call_400dd8, %struct.Memory** %MEMORY

  ; Code: jmpq .L_400d83	 RIP: 400ddb	 Bytes: 5
  %loadMem_400ddb = load %struct.Memory*, %struct.Memory** %MEMORY
  %call_400ddb = call %struct.Memory* @routine_jmpq_.L_400d83(%struct.State* %0, i64  0, %struct.Memory* %loadMem_400ddb, i64 -88, i64 5)
  store %struct.Memory* %call_400ddb, %struct.Memory** %MEMORY

  br label %block_.L_400d83

  ; Code: .L_400de0:	 RIP: 400de0	 Bytes: 0
block_.L_400de0:

  ; Code: movsd 0x550(%rip), %xmm0	 RIP: 400de0	 Bytes: 8
  %loadMem_400de0 = load %struct.Memory*, %struct.Memory** %MEMORY
  %call_400de0 = call %struct.Memory* @routine_movsd_0x550__rip____xmm0(%struct.State* %0, i64  0, %struct.Memory* %loadMem_400de0)
  store %struct.Memory* %call_400de0, %struct.Memory** %MEMORY

  ; Code: movsd -0x30(%rbp), %xmm1	 RIP: 400de8	 Bytes: 5
  %loadMem_400de8 = load %struct.Memory*, %struct.Memory** %MEMORY
  %call_400de8 = call %struct.Memory* @routine_movsd_MINUS0x30__rbp____xmm1(%struct.State* %0, i64  0, %struct.Memory* %loadMem_400de8)
  store %struct.Memory* %call_400de8, %struct.Memory** %MEMORY

  ; Code: movsd %xmm0, -0x38(%rbp)	 RIP: 400ded	 Bytes: 5
  %loadMem_400ded = load %struct.Memory*, %struct.Memory** %MEMORY
  %call_400ded = call %struct.Memory* @routine_movsd__xmm0__MINUS0x38__rbp_(%struct.State* %0, i64  0, %struct.Memory* %loadMem_400ded)
  store %struct.Memory* %call_400ded, %struct.Memory** %MEMORY

  ; Code: movaps %xmm1, %xmm0	 RIP: 400df2	 Bytes: 3
  %loadMem_400df2 = load %struct.Memory*, %struct.Memory** %MEMORY
  %call_400df2 = call %struct.Memory* @routine_movaps__xmm1___xmm0(%struct.State* %0, i64  0, %struct.Memory* %loadMem_400df2)
  store %struct.Memory* %call_400df2, %struct.Memory** %MEMORY

  ; Code: callq .sqrt_plt	 RIP: 400df5	 Bytes: 5
  %loadMem1_400df5 = load %struct.Memory*, %struct.Memory** %MEMORY
  %call1_400df5 = call %struct.Memory* @routine_callq_.sqrt_plt(%struct.State* %0, i64  0, %struct.Memory* %loadMem1_400df5, i64 -1829, i64 5, i64 5)
  store %struct.Memory* %call1_400df5, %struct.Memory** %MEMORY

  %loadMem2_400df5 = load %struct.Memory*, %struct.Memory** %MEMORY
  %loadPC_400df5 = load i64, i64* %3
  %call2_400df5 = call %struct.Memory* @sub_4006d0.sqrt_plt(%struct.State* %0, i64  %loadPC_400df5, %struct.Memory* %loadMem2_400df5)
  store %struct.Memory* %call2_400df5, %struct.Memory** %MEMORY

  ; Code: movsd -0x38(%rbp), %xmm1	 RIP: 400dfa	 Bytes: 5
  %loadMem_400dfa = load %struct.Memory*, %struct.Memory** %MEMORY
  %call_400dfa = call %struct.Memory* @routine_movsd_MINUS0x38__rbp____xmm1(%struct.State* %0, i64  0, %struct.Memory* %loadMem_400dfa)
  store %struct.Memory* %call_400dfa, %struct.Memory** %MEMORY

  ; Code: divsd %xmm0, %xmm1	 RIP: 400dff	 Bytes: 4
  %loadMem_400dff = load %struct.Memory*, %struct.Memory** %MEMORY
  %call_400dff = call %struct.Memory* @routine_divsd__xmm0___xmm1(%struct.State* %0, i64  0, %struct.Memory* %loadMem_400dff)
  store %struct.Memory* %call_400dff, %struct.Memory** %MEMORY

  ; Code: movq -0x10(%rbp), %rax	 RIP: 400e03	 Bytes: 4
  %loadMem_400e03 = load %struct.Memory*, %struct.Memory** %MEMORY
  %call_400e03 = call %struct.Memory* @routine_movq_MINUS0x10__rbp____rax(%struct.State* %0, i64  0, %struct.Memory* %loadMem_400e03)
  store %struct.Memory* %call_400e03, %struct.Memory** %MEMORY

  ; Code: movslq -0x1c(%rbp), %rcx	 RIP: 400e07	 Bytes: 4
  %loadMem_400e07 = load %struct.Memory*, %struct.Memory** %MEMORY
  %call_400e07 = call %struct.Memory* @routine_movslq_MINUS0x1c__rbp____rcx(%struct.State* %0, i64  0, %struct.Memory* %loadMem_400e07)
  store %struct.Memory* %call_400e07, %struct.Memory** %MEMORY

  ; Code: movsd %xmm1, (%rax,%rcx,8)	 RIP: 400e0b	 Bytes: 5
  %loadMem_400e0b = load %struct.Memory*, %struct.Memory** %MEMORY
  %call_400e0b = call %struct.Memory* @routine_movsd__xmm1____rax__rcx_8_(%struct.State* %0, i64  0, %struct.Memory* %loadMem_400e0b)
  store %struct.Memory* %call_400e0b, %struct.Memory** %MEMORY

  ; Code: movl -0x1c(%rbp), %edx	 RIP: 400e10	 Bytes: 3
  %loadMem_400e10 = load %struct.Memory*, %struct.Memory** %MEMORY
  %call_400e10 = call %struct.Memory* @routine_movl_MINUS0x1c__rbp____edx(%struct.State* %0, i64  0, %struct.Memory* %loadMem_400e10)
  store %struct.Memory* %call_400e10, %struct.Memory** %MEMORY

  ; Code: addl $0x1, %edx	 RIP: 400e13	 Bytes: 3
  %loadMem_400e13 = load %struct.Memory*, %struct.Memory** %MEMORY
  %call_400e13 = call %struct.Memory* @routine_addl__0x1___edx(%struct.State* %0, i64  0, %struct.Memory* %loadMem_400e13)
  store %struct.Memory* %call_400e13, %struct.Memory** %MEMORY

  ; Code: movl %edx, -0x20(%rbp)	 RIP: 400e16	 Bytes: 3
  %loadMem_400e16 = load %struct.Memory*, %struct.Memory** %MEMORY
  %call_400e16 = call %struct.Memory* @routine_movl__edx__MINUS0x20__rbp_(%struct.State* %0, i64  0, %struct.Memory* %loadMem_400e16)
  store %struct.Memory* %call_400e16, %struct.Memory** %MEMORY

  ; Code: .L_400e19:	 RIP: 400e19	 Bytes: 0
  br label %block_.L_400e19
block_.L_400e19:

  ; Code: movl -0x20(%rbp), %eax	 RIP: 400e19	 Bytes: 3
  %loadMem_400e19 = load %struct.Memory*, %struct.Memory** %MEMORY
  %call_400e19 = call %struct.Memory* @routine_movl_MINUS0x20__rbp____eax(%struct.State* %0, i64  0, %struct.Memory* %loadMem_400e19)
  store %struct.Memory* %call_400e19, %struct.Memory** %MEMORY

  ; Code: cmpl -0x4(%rbp), %eax	 RIP: 400e1c	 Bytes: 3
  %loadMem_400e1c = load %struct.Memory*, %struct.Memory** %MEMORY
  %call_400e1c = call %struct.Memory* @routine_cmpl_MINUS0x4__rbp____eax(%struct.State* %0, i64  0, %struct.Memory* %loadMem_400e1c)
  store %struct.Memory* %call_400e1c, %struct.Memory** %MEMORY

  ; Code: jge .L_400ede	 RIP: 400e1f	 Bytes: 6
  %loadMem_400e1f = load %struct.Memory*, %struct.Memory** %MEMORY
  %call_400e1f = call %struct.Memory* @routine_jge_.L_400ede(%struct.State* %0, i64  0, %struct.Memory* %loadMem_400e1f, i8* %BRANCH_TAKEN, i64 191, i64 6, i64 6)
  store %struct.Memory* %call_400e1f, %struct.Memory** %MEMORY

  %loadBr_400e1f = load i8, i8* %BRANCH_TAKEN
  %cmpBr_400e1f = icmp eq i8 %loadBr_400e1f, 1
  br i1 %cmpBr_400e1f, label %block_.L_400ede, label %block_400e25

block_400e25:
  ; Code: movq -0x18(%rbp), %rax	 RIP: 400e25	 Bytes: 4
  %loadMem_400e25 = load %struct.Memory*, %struct.Memory** %MEMORY
  %call_400e25 = call %struct.Memory* @routine_movq_MINUS0x18__rbp____rax(%struct.State* %0, i64  0, %struct.Memory* %loadMem_400e25)
  store %struct.Memory* %call_400e25, %struct.Memory** %MEMORY

  ; Code: movslq -0x1c(%rbp), %rcx	 RIP: 400e29	 Bytes: 4
  %loadMem_400e29 = load %struct.Memory*, %struct.Memory** %MEMORY
  %call_400e29 = call %struct.Memory* @routine_movslq_MINUS0x1c__rbp____rcx(%struct.State* %0, i64  0, %struct.Memory* %loadMem_400e29)
  store %struct.Memory* %call_400e29, %struct.Memory** %MEMORY

  ; Code: shlq $0xd, %rcx	 RIP: 400e2d	 Bytes: 4
  %loadMem_400e2d = load %struct.Memory*, %struct.Memory** %MEMORY
  %call_400e2d = call %struct.Memory* @routine_shlq__0xd___rcx(%struct.State* %0, i64  0, %struct.Memory* %loadMem_400e2d)
  store %struct.Memory* %call_400e2d, %struct.Memory** %MEMORY

  ; Code: addq %rcx, %rax	 RIP: 400e31	 Bytes: 3
  %loadMem_400e31 = load %struct.Memory*, %struct.Memory** %MEMORY
  %call_400e31 = call %struct.Memory* @routine_addq__rcx___rax(%struct.State* %0, i64  0, %struct.Memory* %loadMem_400e31)
  store %struct.Memory* %call_400e31, %struct.Memory** %MEMORY

  ; Code: movslq -0x20(%rbp), %rcx	 RIP: 400e34	 Bytes: 4
  %loadMem_400e34 = load %struct.Memory*, %struct.Memory** %MEMORY
  %call_400e34 = call %struct.Memory* @routine_movslq_MINUS0x20__rbp____rcx(%struct.State* %0, i64  0, %struct.Memory* %loadMem_400e34)
  store %struct.Memory* %call_400e34, %struct.Memory** %MEMORY

  ; Code: movsd (%rax,%rcx,8), %xmm0	 RIP: 400e38	 Bytes: 5
  %loadMem_400e38 = load %struct.Memory*, %struct.Memory** %MEMORY
  %call_400e38 = call %struct.Memory* @routine_movsd___rax__rcx_8____xmm0(%struct.State* %0, i64  0, %struct.Memory* %loadMem_400e38)
  store %struct.Memory* %call_400e38, %struct.Memory** %MEMORY

  ; Code: movsd %xmm0, -0x30(%rbp)	 RIP: 400e3d	 Bytes: 5
  %loadMem_400e3d = load %struct.Memory*, %struct.Memory** %MEMORY
  %call_400e3d = call %struct.Memory* @routine_movsd__xmm0__MINUS0x30__rbp_(%struct.State* %0, i64  0, %struct.Memory* %loadMem_400e3d)
  store %struct.Memory* %call_400e3d, %struct.Memory** %MEMORY

  ; Code: movl $0x0, -0x24(%rbp)	 RIP: 400e42	 Bytes: 7
  %loadMem_400e42 = load %struct.Memory*, %struct.Memory** %MEMORY
  %call_400e42 = call %struct.Memory* @routine_movl__0x0__MINUS0x24__rbp_(%struct.State* %0, i64  0, %struct.Memory* %loadMem_400e42)
  store %struct.Memory* %call_400e42, %struct.Memory** %MEMORY

  ; Code: .L_400e49:	 RIP: 400e49	 Bytes: 0
  br label %block_.L_400e49
block_.L_400e49:

  ; Code: movl -0x24(%rbp), %eax	 RIP: 400e49	 Bytes: 3
  %loadMem_400e49 = load %struct.Memory*, %struct.Memory** %MEMORY
  %call_400e49 = call %struct.Memory* @routine_movl_MINUS0x24__rbp____eax(%struct.State* %0, i64  0, %struct.Memory* %loadMem_400e49)
  store %struct.Memory* %call_400e49, %struct.Memory** %MEMORY

  ; Code: movl -0x1c(%rbp), %ecx	 RIP: 400e4c	 Bytes: 3
  %loadMem_400e4c = load %struct.Memory*, %struct.Memory** %MEMORY
  %call_400e4c = call %struct.Memory* @routine_movl_MINUS0x1c__rbp____ecx(%struct.State* %0, i64  0, %struct.Memory* %loadMem_400e4c)
  store %struct.Memory* %call_400e4c, %struct.Memory** %MEMORY

  ; Code: subl $0x1, %ecx	 RIP: 400e4f	 Bytes: 3
  %loadMem_400e4f = load %struct.Memory*, %struct.Memory** %MEMORY
  %call_400e4f = call %struct.Memory* @routine_subl__0x1___ecx(%struct.State* %0, i64  0, %struct.Memory* %loadMem_400e4f)
  store %struct.Memory* %call_400e4f, %struct.Memory** %MEMORY

  ; Code: cmpl %ecx, %eax	 RIP: 400e52	 Bytes: 2
  %loadMem_400e52 = load %struct.Memory*, %struct.Memory** %MEMORY
  %call_400e52 = call %struct.Memory* @routine_cmpl__ecx___eax(%struct.State* %0, i64  0, %struct.Memory* %loadMem_400e52)
  store %struct.Memory* %call_400e52, %struct.Memory** %MEMORY

  ; Code: jg .L_400ea6	 RIP: 400e54	 Bytes: 6
  %loadMem_400e54 = load %struct.Memory*, %struct.Memory** %MEMORY
  %call_400e54 = call %struct.Memory* @routine_jg_.L_400ea6(%struct.State* %0, i64  0, %struct.Memory* %loadMem_400e54, i8* %BRANCH_TAKEN, i64 82, i64 6, i64 6)
  store %struct.Memory* %call_400e54, %struct.Memory** %MEMORY

  %loadBr_400e54 = load i8, i8* %BRANCH_TAKEN
  %cmpBr_400e54 = icmp eq i8 %loadBr_400e54, 1
  br i1 %cmpBr_400e54, label %block_.L_400ea6, label %block_400e5a

block_400e5a:
  ; Code: movsd -0x30(%rbp), %xmm0	 RIP: 400e5a	 Bytes: 5
  %loadMem_400e5a = load %struct.Memory*, %struct.Memory** %MEMORY
  %call_400e5a = call %struct.Memory* @routine_movsd_MINUS0x30__rbp____xmm0(%struct.State* %0, i64  0, %struct.Memory* %loadMem_400e5a)
  store %struct.Memory* %call_400e5a, %struct.Memory** %MEMORY

  ; Code: movq -0x18(%rbp), %rax	 RIP: 400e5f	 Bytes: 4
  %loadMem_400e5f = load %struct.Memory*, %struct.Memory** %MEMORY
  %call_400e5f = call %struct.Memory* @routine_movq_MINUS0x18__rbp____rax(%struct.State* %0, i64  0, %struct.Memory* %loadMem_400e5f)
  store %struct.Memory* %call_400e5f, %struct.Memory** %MEMORY

  ; Code: movslq -0x20(%rbp), %rcx	 RIP: 400e63	 Bytes: 4
  %loadMem_400e63 = load %struct.Memory*, %struct.Memory** %MEMORY
  %call_400e63 = call %struct.Memory* @routine_movslq_MINUS0x20__rbp____rcx(%struct.State* %0, i64  0, %struct.Memory* %loadMem_400e63)
  store %struct.Memory* %call_400e63, %struct.Memory** %MEMORY

  ; Code: shlq $0xd, %rcx	 RIP: 400e67	 Bytes: 4
  %loadMem_400e67 = load %struct.Memory*, %struct.Memory** %MEMORY
  %call_400e67 = call %struct.Memory* @routine_shlq__0xd___rcx(%struct.State* %0, i64  0, %struct.Memory* %loadMem_400e67)
  store %struct.Memory* %call_400e67, %struct.Memory** %MEMORY

  ; Code: addq %rcx, %rax	 RIP: 400e6b	 Bytes: 3
  %loadMem_400e6b = load %struct.Memory*, %struct.Memory** %MEMORY
  %call_400e6b = call %struct.Memory* @routine_addq__rcx___rax(%struct.State* %0, i64  0, %struct.Memory* %loadMem_400e6b)
  store %struct.Memory* %call_400e6b, %struct.Memory** %MEMORY

  ; Code: movslq -0x24(%rbp), %rcx	 RIP: 400e6e	 Bytes: 4
  %loadMem_400e6e = load %struct.Memory*, %struct.Memory** %MEMORY
  %call_400e6e = call %struct.Memory* @routine_movslq_MINUS0x24__rbp____rcx(%struct.State* %0, i64  0, %struct.Memory* %loadMem_400e6e)
  store %struct.Memory* %call_400e6e, %struct.Memory** %MEMORY

  ; Code: movsd (%rax,%rcx,8), %xmm1	 RIP: 400e72	 Bytes: 5
  %loadMem_400e72 = load %struct.Memory*, %struct.Memory** %MEMORY
  %call_400e72 = call %struct.Memory* @routine_movsd___rax__rcx_8____xmm1(%struct.State* %0, i64  0, %struct.Memory* %loadMem_400e72)
  store %struct.Memory* %call_400e72, %struct.Memory** %MEMORY

  ; Code: movq -0x18(%rbp), %rax	 RIP: 400e77	 Bytes: 4
  %loadMem_400e77 = load %struct.Memory*, %struct.Memory** %MEMORY
  %call_400e77 = call %struct.Memory* @routine_movq_MINUS0x18__rbp____rax(%struct.State* %0, i64  0, %struct.Memory* %loadMem_400e77)
  store %struct.Memory* %call_400e77, %struct.Memory** %MEMORY

  ; Code: movslq -0x1c(%rbp), %rcx	 RIP: 400e7b	 Bytes: 4
  %loadMem_400e7b = load %struct.Memory*, %struct.Memory** %MEMORY
  %call_400e7b = call %struct.Memory* @routine_movslq_MINUS0x1c__rbp____rcx(%struct.State* %0, i64  0, %struct.Memory* %loadMem_400e7b)
  store %struct.Memory* %call_400e7b, %struct.Memory** %MEMORY

  ; Code: shlq $0xd, %rcx	 RIP: 400e7f	 Bytes: 4
  %loadMem_400e7f = load %struct.Memory*, %struct.Memory** %MEMORY
  %call_400e7f = call %struct.Memory* @routine_shlq__0xd___rcx(%struct.State* %0, i64  0, %struct.Memory* %loadMem_400e7f)
  store %struct.Memory* %call_400e7f, %struct.Memory** %MEMORY

  ; Code: addq %rcx, %rax	 RIP: 400e83	 Bytes: 3
  %loadMem_400e83 = load %struct.Memory*, %struct.Memory** %MEMORY
  %call_400e83 = call %struct.Memory* @routine_addq__rcx___rax(%struct.State* %0, i64  0, %struct.Memory* %loadMem_400e83)
  store %struct.Memory* %call_400e83, %struct.Memory** %MEMORY

  ; Code: movslq -0x24(%rbp), %rcx	 RIP: 400e86	 Bytes: 4
  %loadMem_400e86 = load %struct.Memory*, %struct.Memory** %MEMORY
  %call_400e86 = call %struct.Memory* @routine_movslq_MINUS0x24__rbp____rcx(%struct.State* %0, i64  0, %struct.Memory* %loadMem_400e86)
  store %struct.Memory* %call_400e86, %struct.Memory** %MEMORY

  ; Code: mulsd (%rax,%rcx,8), %xmm1	 RIP: 400e8a	 Bytes: 5
  %loadMem_400e8a = load %struct.Memory*, %struct.Memory** %MEMORY
  %call_400e8a = call %struct.Memory* @routine_mulsd___rax__rcx_8____xmm1(%struct.State* %0, i64  0, %struct.Memory* %loadMem_400e8a)
  store %struct.Memory* %call_400e8a, %struct.Memory** %MEMORY

  ; Code: subsd %xmm1, %xmm0	 RIP: 400e8f	 Bytes: 4
  %loadMem_400e8f = load %struct.Memory*, %struct.Memory** %MEMORY
  %call_400e8f = call %struct.Memory* @routine_subsd__xmm1___xmm0(%struct.State* %0, i64  0, %struct.Memory* %loadMem_400e8f)
  store %struct.Memory* %call_400e8f, %struct.Memory** %MEMORY

  ; Code: movsd %xmm0, -0x30(%rbp)	 RIP: 400e93	 Bytes: 5
  %loadMem_400e93 = load %struct.Memory*, %struct.Memory** %MEMORY
  %call_400e93 = call %struct.Memory* @routine_movsd__xmm0__MINUS0x30__rbp_(%struct.State* %0, i64  0, %struct.Memory* %loadMem_400e93)
  store %struct.Memory* %call_400e93, %struct.Memory** %MEMORY

  ; Code: movl -0x24(%rbp), %eax	 RIP: 400e98	 Bytes: 3
  %loadMem_400e98 = load %struct.Memory*, %struct.Memory** %MEMORY
  %call_400e98 = call %struct.Memory* @routine_movl_MINUS0x24__rbp____eax(%struct.State* %0, i64  0, %struct.Memory* %loadMem_400e98)
  store %struct.Memory* %call_400e98, %struct.Memory** %MEMORY

  ; Code: addl $0x1, %eax	 RIP: 400e9b	 Bytes: 3
  %loadMem_400e9b = load %struct.Memory*, %struct.Memory** %MEMORY
  %call_400e9b = call %struct.Memory* @routine_addl__0x1___eax(%struct.State* %0, i64  0, %struct.Memory* %loadMem_400e9b)
  store %struct.Memory* %call_400e9b, %struct.Memory** %MEMORY

  ; Code: movl %eax, -0x24(%rbp)	 RIP: 400e9e	 Bytes: 3
  %loadMem_400e9e = load %struct.Memory*, %struct.Memory** %MEMORY
  %call_400e9e = call %struct.Memory* @routine_movl__eax__MINUS0x24__rbp_(%struct.State* %0, i64  0, %struct.Memory* %loadMem_400e9e)
  store %struct.Memory* %call_400e9e, %struct.Memory** %MEMORY

  ; Code: jmpq .L_400e49	 RIP: 400ea1	 Bytes: 5
  %loadMem_400ea1 = load %struct.Memory*, %struct.Memory** %MEMORY
  %call_400ea1 = call %struct.Memory* @routine_jmpq_.L_400e49(%struct.State* %0, i64  0, %struct.Memory* %loadMem_400ea1, i64 -88, i64 5)
  store %struct.Memory* %call_400ea1, %struct.Memory** %MEMORY

  br label %block_.L_400e49

  ; Code: .L_400ea6:	 RIP: 400ea6	 Bytes: 0
block_.L_400ea6:

  ; Code: movsd -0x30(%rbp), %xmm0	 RIP: 400ea6	 Bytes: 5
  %loadMem_400ea6 = load %struct.Memory*, %struct.Memory** %MEMORY
  %call_400ea6 = call %struct.Memory* @routine_movsd_MINUS0x30__rbp____xmm0(%struct.State* %0, i64  0, %struct.Memory* %loadMem_400ea6)
  store %struct.Memory* %call_400ea6, %struct.Memory** %MEMORY

  ; Code: movq -0x10(%rbp), %rax	 RIP: 400eab	 Bytes: 4
  %loadMem_400eab = load %struct.Memory*, %struct.Memory** %MEMORY
  %call_400eab = call %struct.Memory* @routine_movq_MINUS0x10__rbp____rax(%struct.State* %0, i64  0, %struct.Memory* %loadMem_400eab)
  store %struct.Memory* %call_400eab, %struct.Memory** %MEMORY

  ; Code: movslq -0x1c(%rbp), %rcx	 RIP: 400eaf	 Bytes: 4
  %loadMem_400eaf = load %struct.Memory*, %struct.Memory** %MEMORY
  %call_400eaf = call %struct.Memory* @routine_movslq_MINUS0x1c__rbp____rcx(%struct.State* %0, i64  0, %struct.Memory* %loadMem_400eaf)
  store %struct.Memory* %call_400eaf, %struct.Memory** %MEMORY

  ; Code: mulsd (%rax,%rcx,8), %xmm0	 RIP: 400eb3	 Bytes: 5
  %loadMem_400eb3 = load %struct.Memory*, %struct.Memory** %MEMORY
  %call_400eb3 = call %struct.Memory* @routine_mulsd___rax__rcx_8____xmm0(%struct.State* %0, i64  0, %struct.Memory* %loadMem_400eb3)
  store %struct.Memory* %call_400eb3, %struct.Memory** %MEMORY

  ; Code: movq -0x18(%rbp), %rax	 RIP: 400eb8	 Bytes: 4
  %loadMem_400eb8 = load %struct.Memory*, %struct.Memory** %MEMORY
  %call_400eb8 = call %struct.Memory* @routine_movq_MINUS0x18__rbp____rax(%struct.State* %0, i64  0, %struct.Memory* %loadMem_400eb8)
  store %struct.Memory* %call_400eb8, %struct.Memory** %MEMORY

  ; Code: movslq -0x20(%rbp), %rcx	 RIP: 400ebc	 Bytes: 4
  %loadMem_400ebc = load %struct.Memory*, %struct.Memory** %MEMORY
  %call_400ebc = call %struct.Memory* @routine_movslq_MINUS0x20__rbp____rcx(%struct.State* %0, i64  0, %struct.Memory* %loadMem_400ebc)
  store %struct.Memory* %call_400ebc, %struct.Memory** %MEMORY

  ; Code: shlq $0xd, %rcx	 RIP: 400ec0	 Bytes: 4
  %loadMem_400ec0 = load %struct.Memory*, %struct.Memory** %MEMORY
  %call_400ec0 = call %struct.Memory* @routine_shlq__0xd___rcx(%struct.State* %0, i64  0, %struct.Memory* %loadMem_400ec0)
  store %struct.Memory* %call_400ec0, %struct.Memory** %MEMORY

  ; Code: addq %rcx, %rax	 RIP: 400ec4	 Bytes: 3
  %loadMem_400ec4 = load %struct.Memory*, %struct.Memory** %MEMORY
  %call_400ec4 = call %struct.Memory* @routine_addq__rcx___rax(%struct.State* %0, i64  0, %struct.Memory* %loadMem_400ec4)
  store %struct.Memory* %call_400ec4, %struct.Memory** %MEMORY

  ; Code: movslq -0x1c(%rbp), %rcx	 RIP: 400ec7	 Bytes: 4
  %loadMem_400ec7 = load %struct.Memory*, %struct.Memory** %MEMORY
  %call_400ec7 = call %struct.Memory* @routine_movslq_MINUS0x1c__rbp____rcx(%struct.State* %0, i64  0, %struct.Memory* %loadMem_400ec7)
  store %struct.Memory* %call_400ec7, %struct.Memory** %MEMORY

  ; Code: movsd %xmm0, (%rax,%rcx,8)	 RIP: 400ecb	 Bytes: 5
  %loadMem_400ecb = load %struct.Memory*, %struct.Memory** %MEMORY
  %call_400ecb = call %struct.Memory* @routine_movsd__xmm0____rax__rcx_8_(%struct.State* %0, i64  0, %struct.Memory* %loadMem_400ecb)
  store %struct.Memory* %call_400ecb, %struct.Memory** %MEMORY

  ; Code: movl -0x20(%rbp), %eax	 RIP: 400ed0	 Bytes: 3
  %loadMem_400ed0 = load %struct.Memory*, %struct.Memory** %MEMORY
  %call_400ed0 = call %struct.Memory* @routine_movl_MINUS0x20__rbp____eax(%struct.State* %0, i64  0, %struct.Memory* %loadMem_400ed0)
  store %struct.Memory* %call_400ed0, %struct.Memory** %MEMORY

  ; Code: addl $0x1, %eax	 RIP: 400ed3	 Bytes: 3
  %loadMem_400ed3 = load %struct.Memory*, %struct.Memory** %MEMORY
  %call_400ed3 = call %struct.Memory* @routine_addl__0x1___eax(%struct.State* %0, i64  0, %struct.Memory* %loadMem_400ed3)
  store %struct.Memory* %call_400ed3, %struct.Memory** %MEMORY

  ; Code: movl %eax, -0x20(%rbp)	 RIP: 400ed6	 Bytes: 3
  %loadMem_400ed6 = load %struct.Memory*, %struct.Memory** %MEMORY
  %call_400ed6 = call %struct.Memory* @routine_movl__eax__MINUS0x20__rbp_(%struct.State* %0, i64  0, %struct.Memory* %loadMem_400ed6)
  store %struct.Memory* %call_400ed6, %struct.Memory** %MEMORY

  ; Code: jmpq .L_400e19	 RIP: 400ed9	 Bytes: 5
  %loadMem_400ed9 = load %struct.Memory*, %struct.Memory** %MEMORY
  %call_400ed9 = call %struct.Memory* @routine_jmpq_.L_400e19(%struct.State* %0, i64  0, %struct.Memory* %loadMem_400ed9, i64 -192, i64 5)
  store %struct.Memory* %call_400ed9, %struct.Memory** %MEMORY

  br label %block_.L_400e19

  ; Code: .L_400ede:	 RIP: 400ede	 Bytes: 0
block_.L_400ede:

  ; Code: jmpq .L_400ee3	 RIP: 400ede	 Bytes: 5
  %loadMem_400ede = load %struct.Memory*, %struct.Memory** %MEMORY
  %call_400ede = call %struct.Memory* @routine_jmpq_.L_400ee3(%struct.State* %0, i64  0, %struct.Memory* %loadMem_400ede, i64 5, i64 5)
  store %struct.Memory* %call_400ede, %struct.Memory** %MEMORY

  br label %block_.L_400ee3

  ; Code: .L_400ee3:	 RIP: 400ee3	 Bytes: 0
block_.L_400ee3:

  ; Code: movl -0x1c(%rbp), %eax	 RIP: 400ee3	 Bytes: 3
  %loadMem_400ee3 = load %struct.Memory*, %struct.Memory** %MEMORY
  %call_400ee3 = call %struct.Memory* @routine_movl_MINUS0x1c__rbp____eax(%struct.State* %0, i64  0, %struct.Memory* %loadMem_400ee3)
  store %struct.Memory* %call_400ee3, %struct.Memory** %MEMORY

  ; Code: addl $0x1, %eax	 RIP: 400ee6	 Bytes: 3
  %loadMem_400ee6 = load %struct.Memory*, %struct.Memory** %MEMORY
  %call_400ee6 = call %struct.Memory* @routine_addl__0x1___eax(%struct.State* %0, i64  0, %struct.Memory* %loadMem_400ee6)
  store %struct.Memory* %call_400ee6, %struct.Memory** %MEMORY

  ; Code: movl %eax, -0x1c(%rbp)	 RIP: 400ee9	 Bytes: 3
  %loadMem_400ee9 = load %struct.Memory*, %struct.Memory** %MEMORY
  %call_400ee9 = call %struct.Memory* @routine_movl__eax__MINUS0x1c__rbp_(%struct.State* %0, i64  0, %struct.Memory* %loadMem_400ee9)
  store %struct.Memory* %call_400ee9, %struct.Memory** %MEMORY

  ; Code: jmpq .L_400d4a	 RIP: 400eec	 Bytes: 5
  %loadMem_400eec = load %struct.Memory*, %struct.Memory** %MEMORY
  %call_400eec = call %struct.Memory* @routine_jmpq_.L_400d4a(%struct.State* %0, i64  0, %struct.Memory* %loadMem_400eec, i64 -418, i64 5)
  store %struct.Memory* %call_400eec, %struct.Memory** %MEMORY

  br label %block_.L_400d4a

  ; Code: .L_400ef1:	 RIP: 400ef1	 Bytes: 0
block_.L_400ef1:

  ; Code: addq $0x40, %rsp	 RIP: 400ef1	 Bytes: 4
  %loadMem_400ef1 = load %struct.Memory*, %struct.Memory** %MEMORY
  %call_400ef1 = call %struct.Memory* @routine_addq__0x40___rsp(%struct.State* %0, i64  0, %struct.Memory* %loadMem_400ef1)
  store %struct.Memory* %call_400ef1, %struct.Memory** %MEMORY

  ; Code: popq %rbp	 RIP: 400ef5	 Bytes: 1
  %loadMem_400ef5 = load %struct.Memory*, %struct.Memory** %MEMORY
  %call_400ef5 = call %struct.Memory* @routine_popq__rbp(%struct.State* %0, i64  0, %struct.Memory* %loadMem_400ef5)
  store %struct.Memory* %call_400ef5, %struct.Memory** %MEMORY

  ; Code: retq	 RIP: 400ef6	 Bytes: 1
  %loadMem_400ef6 = load %struct.Memory*, %struct.Memory** %MEMORY
  %call_400ef6 = call %struct.Memory* @routine_retq(%struct.State* %0, i64  0, %struct.Memory* %loadMem_400ef6)
  store %struct.Memory* %call_400ef6, %struct.Memory** %MEMORY

  ret %struct.Memory* %call_400ef6
}

define internal %struct.Memory* @_ZN12_GLOBAL__N_1L4PUSHI2InImEEEP6MemoryS4_R5StateT_(%struct.Memory*, %struct.State* nocapture dereferenceable(3376), i64) #0 {
  %4 = getelementptr inbounds %struct.State, %struct.State* %1, i64 0, i32 6, i32 13, i32 0, i32 0
  %5 = load i64, i64* %4, align 8
  %6 = add i64 %5, -8
  %7 = inttoptr i64 %6 to i64*
  store i64 %2, i64* %7
  store i64 %6, i64* %4, align 8
  ret %struct.Memory* %0
}

define %struct.Memory* @routine_pushq__rbp(%struct.State*  dereferenceable(3376), i64, %struct.Memory* ) #19 {
block_400488:
  %3 = getelementptr inbounds %struct.State, %struct.State* %0, i32 0, i32 6
  %4 = getelementptr inbounds %struct.GPR, %struct.GPR* %3, i32 0, i32 33
  %5 = getelementptr inbounds %struct.Reg, %struct.Reg* %4, i32 0, i32 0
  %PC = bitcast %union.anon* %5 to i64*
  %6 = getelementptr inbounds %struct.State, %struct.State* %0, i32 0, i32 6
  %7 = getelementptr inbounds %struct.GPR, %struct.GPR* %6, i32 0, i32 15
  %8 = getelementptr inbounds %struct.Reg, %struct.Reg* %7, i32 0, i32 0
  %RBP = bitcast %union.anon* %8 to i64*
  %9 = load i64, i64* %RBP
  %10 = load i64, i64* %PC
  %11 = add i64 %10, 1
  store i64 %11, i64* %PC
  %12 = call %struct.Memory* @_ZN12_GLOBAL__N_1L4PUSHI2InImEEEP6MemoryS4_R5StateT_(%struct.Memory* %2, %struct.State* %0, i64 %9)
  ret %struct.Memory* %12
}

define internal %struct.Memory* @_ZN12_GLOBAL__N_1L3MOVI3RnWImE2RnImEEEP6MemoryS6_R5StateT_T0_(%struct.Memory* readnone returned, %struct.State* nocapture readnone dereferenceable(3376), i64* nocapture, i64) #2 {
  store i64 %3, i64* %2, align 8
  ret %struct.Memory* %0
}

define %struct.Memory* @routine_movq__rsp___rbp(%struct.State*  dereferenceable(3376), i64, %struct.Memory* ) #19 {
block_400488:
  %3 = getelementptr inbounds %struct.State, %struct.State* %0, i32 0, i32 6
  %4 = getelementptr inbounds %struct.GPR, %struct.GPR* %3, i32 0, i32 33
  %5 = getelementptr inbounds %struct.Reg, %struct.Reg* %4, i32 0, i32 0
  %PC = bitcast %union.anon* %5 to i64*
  %6 = getelementptr inbounds %struct.State, %struct.State* %0, i32 0, i32 6
  %7 = getelementptr inbounds %struct.GPR, %struct.GPR* %6, i32 0, i32 13
  %8 = getelementptr inbounds %struct.Reg, %struct.Reg* %7, i32 0, i32 0
  %RSP = bitcast %union.anon* %8 to i64*
  %9 = getelementptr inbounds %struct.State, %struct.State* %0, i32 0, i32 6
  %10 = getelementptr inbounds %struct.GPR, %struct.GPR* %9, i32 0, i32 15
  %11 = getelementptr inbounds %struct.Reg, %struct.Reg* %10, i32 0, i32 0
  %RBP = bitcast %union.anon* %11 to i64*
  %12 = load i64, i64* %RSP
  %13 = load i64, i64* %PC
  %14 = add i64 %13, 3
  store i64 %14, i64* %PC
  %15 = call %struct.Memory* @_ZN12_GLOBAL__N_1L3MOVI3RnWImE2RnImEEEP6MemoryS6_R5StateT_T0_(%struct.Memory* %2, %struct.State* %0, i64* %RBP, i64 %12)
  ret %struct.Memory* %15
}

define internal %struct.Memory* @_ZN12_GLOBAL__N_1L3SUBI3RnWImE2RnImE2InImEEEP6MemoryS8_R5StateT_T0_T1_(%struct.Memory* readnone returned, %struct.State* nocapture dereferenceable(3376), i64* nocapture, i64, i64) #0 {
  %6 = sub i64 %3, %4
  store i64 %6, i64* %2, align 8
  %7 = icmp ult i64 %3, %4
  %8 = zext i1 %7 to i8
  %9 = getelementptr inbounds %struct.State, %struct.State* %1, i64 0, i32 2, i32 1
  store i8 %8, i8* %9, align 1
  %10 = trunc i64 %6 to i32
  %11 = and i32 %10, 255
  %12 = tail call i32 @llvm.ctpop.i32(i32 %11) #22
  %13 = trunc i32 %12 to i8
  %14 = and i8 %13, 1
  %15 = xor i8 %14, 1
  %16 = getelementptr inbounds %struct.State, %struct.State* %1, i64 0, i32 2, i32 3
  store i8 %15, i8* %16, align 1
  %17 = xor i64 %4, %3
  %18 = xor i64 %17, %6
  %19 = lshr i64 %18, 4
  %20 = trunc i64 %19 to i8
  %21 = and i8 %20, 1
  %22 = getelementptr inbounds %struct.State, %struct.State* %1, i64 0, i32 2, i32 5
  store i8 %21, i8* %22, align 1
  %23 = icmp eq i64 %6, 0
  %24 = zext i1 %23 to i8
  %25 = getelementptr inbounds %struct.State, %struct.State* %1, i64 0, i32 2, i32 7
  store i8 %24, i8* %25, align 1
  %26 = lshr i64 %6, 63
  %27 = trunc i64 %26 to i8
  %28 = getelementptr inbounds %struct.State, %struct.State* %1, i64 0, i32 2, i32 9
  store i8 %27, i8* %28, align 1
  %29 = lshr i64 %3, 63
  %30 = lshr i64 %4, 63
  %31 = xor i64 %30, %29
  %32 = xor i64 %26, %29
  %33 = add   i64 %32, %31
  %34 = icmp eq i64 %33, 2
  %35 = zext i1 %34 to i8
  %36 = getelementptr inbounds %struct.State, %struct.State* %1, i64 0, i32 2, i32 13
  store i8 %35, i8* %36, align 1
  ret %struct.Memory* %0
}

define %struct.Memory* @routine_subq__0x40___rsp(%struct.State*  dereferenceable(3376), i64, %struct.Memory* ) #19 {
block_400488:
  %3 = getelementptr inbounds %struct.State, %struct.State* %0, i32 0, i32 6
  %4 = getelementptr inbounds %struct.GPR, %struct.GPR* %3, i32 0, i32 33
  %5 = getelementptr inbounds %struct.Reg, %struct.Reg* %4, i32 0, i32 0
  %PC = bitcast %union.anon* %5 to i64*
  %6 = getelementptr inbounds %struct.State, %struct.State* %0, i32 0, i32 6
  %7 = getelementptr inbounds %struct.GPR, %struct.GPR* %6, i32 0, i32 13
  %8 = getelementptr inbounds %struct.Reg, %struct.Reg* %7, i32 0, i32 0
  %RSP = bitcast %union.anon* %8 to i64*
  %9 = load i64, i64* %RSP
  %10 = load i64, i64* %PC
  %11 = add i64 %10, 4
  store i64 %11, i64* %PC
  %12 = call %struct.Memory* @_ZN12_GLOBAL__N_1L3SUBI3RnWImE2RnImE2InImEEEP6MemoryS8_R5StateT_T0_T1_(%struct.Memory* %2, %struct.State* %0, i64* %RSP, i64 %9, i64 64)
  ret %struct.Memory* %12
}

define internal %struct.Memory* @_ZN12_GLOBAL__N_1L3MOVI3MnWIjE2RnIjEEEP6MemoryS6_R5StateT_T0_(%struct.Memory* readnone, %struct.State* nocapture readnone dereferenceable(3376), i64, i64) #8 {
  %5 = trunc i64 %3 to i32
  %6 = inttoptr i64 %2 to i32*
  store i32 %5, i32* %6
  ret %struct.Memory* %0
}

define %struct.Memory* @routine_movl__edi__MINUS0x4__rbp_(%struct.State*  dereferenceable(3376), i64, %struct.Memory* ) #19 {
block_400488:
  %3 = getelementptr inbounds %struct.State, %struct.State* %0, i32 0, i32 6
  %4 = getelementptr inbounds %struct.GPR, %struct.GPR* %3, i32 0, i32 33
  %5 = getelementptr inbounds %struct.Reg, %struct.Reg* %4, i32 0, i32 0
  %PC = bitcast %union.anon* %5 to i64*
  %6 = getelementptr inbounds %struct.State, %struct.State* %0, i32 0, i32 6
  %7 = getelementptr inbounds %struct.GPR, %struct.GPR* %6, i32 0, i32 11
  %8 = getelementptr inbounds %struct.Reg, %struct.Reg* %7, i32 0, i32 0
  %EDI = bitcast %union.anon* %8 to i32*
  %9 = getelementptr inbounds %struct.State, %struct.State* %0, i32 0, i32 6
  %10 = getelementptr inbounds %struct.GPR, %struct.GPR* %9, i32 0, i32 15
  %11 = getelementptr inbounds %struct.Reg, %struct.Reg* %10, i32 0, i32 0
  %RBP = bitcast %union.anon* %11 to i64*
  %12 = load i64, i64* %RBP
  %13 = sub i64 %12, 4
  %14 = load i32, i32* %EDI
  %15 = zext i32 %14 to i64
  %16 = load i64, i64* %PC
  %17 = add i64 %16, 3
  store i64 %17, i64* %PC
  %18 = call %struct.Memory* @_ZN12_GLOBAL__N_1L3MOVI3MnWIjE2RnIjEEEP6MemoryS6_R5StateT_T0_(%struct.Memory* %2, %struct.State* %0, i64 %13, i64 %15)
  ret %struct.Memory* %18
}

define internal %struct.Memory* @_ZN12_GLOBAL__N_1L3MOVI3MnWImE2RnImEEEP6MemoryS6_R5StateT_T0_(%struct.Memory* readnone, %struct.State* nocapture readnone dereferenceable(3376), i64, i64) #8 {
  %5 = inttoptr i64 %2 to i64*
  store i64 %3, i64* %5
  ret %struct.Memory* %0
}

define %struct.Memory* @routine_movq__rsi__MINUS0x10__rbp_(%struct.State*  dereferenceable(3376), i64, %struct.Memory* ) #19 {
block_400488:
  %3 = getelementptr inbounds %struct.State, %struct.State* %0, i32 0, i32 6
  %4 = getelementptr inbounds %struct.GPR, %struct.GPR* %3, i32 0, i32 33
  %5 = getelementptr inbounds %struct.Reg, %struct.Reg* %4, i32 0, i32 0
  %PC = bitcast %union.anon* %5 to i64*
  %6 = getelementptr inbounds %struct.State, %struct.State* %0, i32 0, i32 6
  %7 = getelementptr inbounds %struct.GPR, %struct.GPR* %6, i32 0, i32 9
  %8 = getelementptr inbounds %struct.Reg, %struct.Reg* %7, i32 0, i32 0
  %RSI = bitcast %union.anon* %8 to i64*
  %9 = getelementptr inbounds %struct.State, %struct.State* %0, i32 0, i32 6
  %10 = getelementptr inbounds %struct.GPR, %struct.GPR* %9, i32 0, i32 15
  %11 = getelementptr inbounds %struct.Reg, %struct.Reg* %10, i32 0, i32 0
  %RBP = bitcast %union.anon* %11 to i64*
  %12 = load i64, i64* %RBP
  %13 = sub i64 %12, 16
  %14 = load i64, i64* %RSI
  %15 = load i64, i64* %PC
  %16 = add i64 %15, 4
  store i64 %16, i64* %PC
  %17 = call %struct.Memory* @_ZN12_GLOBAL__N_1L3MOVI3MnWImE2RnImEEEP6MemoryS6_R5StateT_T0_(%struct.Memory* %2, %struct.State* %0, i64 %13, i64 %14)
  ret %struct.Memory* %17
}


define %struct.Memory* @routine_movq__rdx__MINUS0x18__rbp_(%struct.State*  dereferenceable(3376), i64, %struct.Memory* ) #19 {
block_400488:
  %3 = getelementptr inbounds %struct.State, %struct.State* %0, i32 0, i32 6
  %4 = getelementptr inbounds %struct.GPR, %struct.GPR* %3, i32 0, i32 33
  %5 = getelementptr inbounds %struct.Reg, %struct.Reg* %4, i32 0, i32 0
  %PC = bitcast %union.anon* %5 to i64*
  %6 = getelementptr inbounds %struct.State, %struct.State* %0, i32 0, i32 6
  %7 = getelementptr inbounds %struct.GPR, %struct.GPR* %6, i32 0, i32 7
  %8 = getelementptr inbounds %struct.Reg, %struct.Reg* %7, i32 0, i32 0
  %RDX = bitcast %union.anon* %8 to i64*
  %9 = getelementptr inbounds %struct.State, %struct.State* %0, i32 0, i32 6
  %10 = getelementptr inbounds %struct.GPR, %struct.GPR* %9, i32 0, i32 15
  %11 = getelementptr inbounds %struct.Reg, %struct.Reg* %10, i32 0, i32 0
  %RBP = bitcast %union.anon* %11 to i64*
  %12 = load i64, i64* %RBP
  %13 = sub i64 %12, 24
  %14 = load i64, i64* %RDX
  %15 = load i64, i64* %PC
  %16 = add i64 %15, 4
  store i64 %16, i64* %PC
  %17 = call %struct.Memory* @_ZN12_GLOBAL__N_1L3MOVI3MnWImE2RnImEEEP6MemoryS6_R5StateT_T0_(%struct.Memory* %2, %struct.State* %0, i64 %13, i64 %14)
  ret %struct.Memory* %17
}

define internal %struct.Memory* @_ZN12_GLOBAL__N_1L3MOVI3MnWIjE2InIjEEEP6MemoryS6_R5StateT_T0_(%struct.Memory* readnone, %struct.State* nocapture readnone dereferenceable(3376), i64, i64) #8 {
  %5 = trunc i64 %3 to i32
  %6 = inttoptr i64 %2 to i32*
  store i32 %5, i32* %6
  ret %struct.Memory* %0
}

define %struct.Memory* @routine_movl__0x0__MINUS0x1c__rbp_(%struct.State*  dereferenceable(3376), i64, %struct.Memory* ) #19 {
block_400488:
  %3 = getelementptr inbounds %struct.State, %struct.State* %0, i32 0, i32 6
  %4 = getelementptr inbounds %struct.GPR, %struct.GPR* %3, i32 0, i32 33
  %5 = getelementptr inbounds %struct.Reg, %struct.Reg* %4, i32 0, i32 0
  %PC = bitcast %union.anon* %5 to i64*
  %6 = getelementptr inbounds %struct.State, %struct.State* %0, i32 0, i32 6
  %7 = getelementptr inbounds %struct.GPR, %struct.GPR* %6, i32 0, i32 15
  %8 = getelementptr inbounds %struct.Reg, %struct.Reg* %7, i32 0, i32 0
  %RBP = bitcast %union.anon* %8 to i64*
  %9 = load i64, i64* %RBP
  %10 = sub i64 %9, 28
  %11 = load i64, i64* %PC
  %12 = add i64 %11, 7
  store i64 %12, i64* %PC
  %13 = call %struct.Memory* @_ZN12_GLOBAL__N_1L3MOVI3MnWIjE2InIjEEEP6MemoryS6_R5StateT_T0_(%struct.Memory* %2, %struct.State* %0, i64 %10, i64 0)
  ret %struct.Memory* %13
}

define internal %struct.Memory* @_ZN12_GLOBAL__N_1L3MOVI3RnWImE2MnIjEEEP6MemoryS6_R5StateT_T0_(%struct.Memory* returned, %struct.State* nocapture readnone dereferenceable(3376), i64* nocapture, i64) #0 {
  %5 = inttoptr i64 %3 to i32*
  %6 = load i32, i32* %5
  %7 = zext i32 %6 to i64
  store i64 %7, i64* %2, align 8
  ret %struct.Memory* %0
}

define %struct.Memory* @routine_movl_MINUS0x1c__rbp____eax(%struct.State*  dereferenceable(3376), i64, %struct.Memory* ) #19 {
block_400488:
  %3 = getelementptr inbounds %struct.State, %struct.State* %0, i32 0, i32 6
  %4 = getelementptr inbounds %struct.GPR, %struct.GPR* %3, i32 0, i32 33
  %5 = getelementptr inbounds %struct.Reg, %struct.Reg* %4, i32 0, i32 0
  %PC = bitcast %union.anon* %5 to i64*
  %6 = getelementptr inbounds %struct.State, %struct.State* %0, i32 0, i32 6
  %7 = getelementptr inbounds %struct.GPR, %struct.GPR* %6, i32 0, i32 1
  %8 = getelementptr inbounds %struct.Reg, %struct.Reg* %7, i32 0, i32 0
  %RAX = bitcast %union.anon* %8 to i64*
  %9 = getelementptr inbounds %struct.State, %struct.State* %0, i32 0, i32 6
  %10 = getelementptr inbounds %struct.GPR, %struct.GPR* %9, i32 0, i32 15
  %11 = getelementptr inbounds %struct.Reg, %struct.Reg* %10, i32 0, i32 0
  %RBP = bitcast %union.anon* %11 to i64*
  %12 = load i64, i64* %RBP
  %13 = sub i64 %12, 28
  %14 = load i64, i64* %PC
  %15 = add i64 %14, 3
  store i64 %15, i64* %PC
  %16 = call %struct.Memory* @_ZN12_GLOBAL__N_1L3MOVI3RnWImE2MnIjEEEP6MemoryS6_R5StateT_T0_(%struct.Memory* %2, %struct.State* %0, i64* %RAX, i64 %13)
  ret %struct.Memory* %16
}

define internal %struct.Memory* @_ZN12_GLOBAL__N_1L3CMPI2RnIjE2MnIjEEEP6MemoryS6_R5StateT_T0_(%struct.Memory*, %struct.State* nocapture dereferenceable(3376), i64, i64) #0 {
  %5 = trunc i64 %2 to i32
  %6 = inttoptr i64 %3 to i32*
  %7 = load i32, i32* %6
  %8 = sub i32 %5, %7
  %9 = icmp ult i32 %5, %7
  %10 = zext i1 %9 to i8
  %11 = getelementptr inbounds %struct.State, %struct.State* %1, i64 0, i32 2, i32 1
  store i8 %10, i8* %11, align 1
  %12 = and i32 %8, 255
  %13 = tail call i32 @llvm.ctpop.i32(i32 %12) #22
  %14 = trunc i32 %13 to i8
  %15 = and i8 %14, 1
  %16 = xor i8 %15, 1
  %17 = getelementptr inbounds %struct.State, %struct.State* %1, i64 0, i32 2, i32 3
  store i8 %16, i8* %17, align 1
  %18 = xor i32 %7, %5
  %19 = xor i32 %18, %8
  %20 = lshr i32 %19, 4
  %21 = trunc i32 %20 to i8
  %22 = and i8 %21, 1
  %23 = getelementptr inbounds %struct.State, %struct.State* %1, i64 0, i32 2, i32 5
  store i8 %22, i8* %23, align 1
  %24 = icmp eq i32 %8, 0
  %25 = zext i1 %24 to i8
  %26 = getelementptr inbounds %struct.State, %struct.State* %1, i64 0, i32 2, i32 7
  store i8 %25, i8* %26, align 1
  %27 = lshr i32 %8, 31
  %28 = trunc i32 %27 to i8
  %29 = getelementptr inbounds %struct.State, %struct.State* %1, i64 0, i32 2, i32 9
  store i8 %28, i8* %29, align 1
  %30 = lshr i32 %5, 31
  %31 = lshr i32 %7, 31
  %32 = xor i32 %31, %30
  %33 = xor i32 %27, %30
  %34 = add   i32 %33, %32
  %35 = icmp eq i32 %34, 2
  %36 = zext i1 %35 to i8
  %37 = getelementptr inbounds %struct.State, %struct.State* %1, i64 0, i32 2, i32 13
  store i8 %36, i8* %37, align 1
  ret %struct.Memory* %0
}

define %struct.Memory* @routine_cmpl_MINUS0x4__rbp____eax(%struct.State*  dereferenceable(3376), i64, %struct.Memory* ) #19 {
block_400488:
  %3 = getelementptr inbounds %struct.State, %struct.State* %0, i32 0, i32 6
  %4 = getelementptr inbounds %struct.GPR, %struct.GPR* %3, i32 0, i32 33
  %5 = getelementptr inbounds %struct.Reg, %struct.Reg* %4, i32 0, i32 0
  %PC = bitcast %union.anon* %5 to i64*
  %6 = getelementptr inbounds %struct.State, %struct.State* %0, i32 0, i32 6
  %7 = getelementptr inbounds %struct.GPR, %struct.GPR* %6, i32 0, i32 1
  %8 = getelementptr inbounds %struct.Reg, %struct.Reg* %7, i32 0, i32 0
  %EAX = bitcast %union.anon* %8 to i32*
  %9 = getelementptr inbounds %struct.State, %struct.State* %0, i32 0, i32 6
  %10 = getelementptr inbounds %struct.GPR, %struct.GPR* %9, i32 0, i32 15
  %11 = getelementptr inbounds %struct.Reg, %struct.Reg* %10, i32 0, i32 0
  %RBP = bitcast %union.anon* %11 to i64*
  %12 = load i32, i32* %EAX
  %13 = zext i32 %12 to i64
  %14 = load i64, i64* %RBP
  %15 = sub i64 %14, 4
  %16 = load i64, i64* %PC
  %17 = add i64 %16, 3
  store i64 %17, i64* %PC
  %18 = call %struct.Memory* @_ZN12_GLOBAL__N_1L3CMPI2RnIjE2MnIjEEEP6MemoryS6_R5StateT_T0_(%struct.Memory* %2, %struct.State* %0, i64 %13, i64 %15)
  ret %struct.Memory* %18
}

define internal %struct.Memory* @_ZN12_GLOBAL__N_1L3JNLEP6MemoryR5State3RnWIhE2InImES7_(%struct.Memory* readnone returned, %struct.State* nocapture dereferenceable(3376), i8* nocapture, i64, i64) #2 {
  %6 = getelementptr inbounds %struct.State, %struct.State* %1, i64 0, i32 2, i32 9
  %7 = load i8, i8* %6, align 1
  %8 = icmp ne i8 %7, 0
  %9 = getelementptr inbounds %struct.State, %struct.State* %1, i64 0, i32 2, i32 13
  %10 = load i8, i8* %9, align 1
  %11 = icmp ne i8 %10, 0
  %12 = xor i1 %8, %11
  %13 = xor i1 %12, true
  %14 = zext i1 %13 to i8
  store i8 %14, i8* %2, align 1
  %15 = getelementptr inbounds %struct.State, %struct.State* %1, i64 0, i32 6, i32 33, i32 0, i32 0
  %16 = select i1 %12, i64 %4, i64 %3
  store i64 %16, i64* %15, align 8
  ret %struct.Memory* %0
}

define %struct.Memory* @routine_jge_.L_400ef1(%struct.State*  dereferenceable(3376), i64, %struct.Memory*, i8* %BRANCH_TAKEN, i64 %rel_off1, i64 %rel_off2, i64 %rel_off3) {
block_400488:
  %3 = getelementptr inbounds %struct.State, %struct.State* %0, i32 0, i32 6
  %4 = getelementptr inbounds %struct.GPR, %struct.GPR* %3, i32 0, i32 33
  %5 = getelementptr inbounds %struct.Reg, %struct.Reg* %4, i32 0, i32 0
  %PC = bitcast %union.anon* %5 to i64*
  %6 = load i64, i64* %PC
  %7 = add i64 %6, %rel_off1
  %8 = load i64, i64* %PC
  %9 = add i64 %8, %rel_off2
  %10 = load i64, i64* %PC
  %11 = add i64 %10, %rel_off3
  store i64 %11, i64* %PC
  %12 = call %struct.Memory* @_ZN12_GLOBAL__N_1L3JNLEP6MemoryR5State3RnWIhE2InImES7_(%struct.Memory* %2, %struct.State* %0, i8* %BRANCH_TAKEN, i64 %7, i64 %9)
  ret %struct.Memory* %12
}

define internal %struct.Memory* @_ZN12_GLOBAL__N_1L3MOVI3RnWImE2MnImEEEP6MemoryS6_R5StateT_T0_(%struct.Memory* returned, %struct.State* nocapture readnone dereferenceable(3376), i64* nocapture, i64) #0 {
  %5 = inttoptr i64 %3 to i64*
  %6 = load i64, i64* %5
  store i64 %6, i64* %2, align 8
  ret %struct.Memory* %0
}

define %struct.Memory* @routine_movq_MINUS0x18__rbp____rax(%struct.State*  dereferenceable(3376), i64, %struct.Memory* ) #19 {
block_400488:
  %3 = getelementptr inbounds %struct.State, %struct.State* %0, i32 0, i32 6
  %4 = getelementptr inbounds %struct.GPR, %struct.GPR* %3, i32 0, i32 33
  %5 = getelementptr inbounds %struct.Reg, %struct.Reg* %4, i32 0, i32 0
  %PC = bitcast %union.anon* %5 to i64*
  %6 = getelementptr inbounds %struct.State, %struct.State* %0, i32 0, i32 6
  %7 = getelementptr inbounds %struct.GPR, %struct.GPR* %6, i32 0, i32 1
  %8 = getelementptr inbounds %struct.Reg, %struct.Reg* %7, i32 0, i32 0
  %RAX = bitcast %union.anon* %8 to i64*
  %9 = getelementptr inbounds %struct.State, %struct.State* %0, i32 0, i32 6
  %10 = getelementptr inbounds %struct.GPR, %struct.GPR* %9, i32 0, i32 15
  %11 = getelementptr inbounds %struct.Reg, %struct.Reg* %10, i32 0, i32 0
  %RBP = bitcast %union.anon* %11 to i64*
  %12 = load i64, i64* %RBP
  %13 = sub i64 %12, 24
  %14 = load i64, i64* %PC
  %15 = add i64 %14, 4
  store i64 %15, i64* %PC
  %16 = call %struct.Memory* @_ZN12_GLOBAL__N_1L3MOVI3RnWImE2MnImEEEP6MemoryS6_R5StateT_T0_(%struct.Memory* %2, %struct.State* %0, i64* %RAX, i64 %13)
  ret %struct.Memory* %16
}

define internal %struct.Memory* @_ZN12_GLOBAL__N_1L5MOVSXI3RnWImE2MnIjElEEP6MemoryS6_R5StateT_T0_(%struct.Memory* returned, %struct.State* nocapture readnone dereferenceable(3376), i64* nocapture, i64) #0 {
  %5 = inttoptr i64 %3 to i32*
  %6 = load i32, i32* %5
  %7 = sext i32 %6 to i64
  store i64 %7, i64* %2, align 8
  ret %struct.Memory* %0
}

define %struct.Memory* @routine_movslq_MINUS0x1c__rbp____rcx(%struct.State*  dereferenceable(3376), i64, %struct.Memory* ) #19 {
block_400488:
  %3 = getelementptr inbounds %struct.State, %struct.State* %0, i32 0, i32 6
  %4 = getelementptr inbounds %struct.GPR, %struct.GPR* %3, i32 0, i32 33
  %5 = getelementptr inbounds %struct.Reg, %struct.Reg* %4, i32 0, i32 0
  %PC = bitcast %union.anon* %5 to i64*
  %6 = getelementptr inbounds %struct.State, %struct.State* %0, i32 0, i32 6
  %7 = getelementptr inbounds %struct.GPR, %struct.GPR* %6, i32 0, i32 5
  %8 = getelementptr inbounds %struct.Reg, %struct.Reg* %7, i32 0, i32 0
  %RCX = bitcast %union.anon* %8 to i64*
  %9 = getelementptr inbounds %struct.State, %struct.State* %0, i32 0, i32 6
  %10 = getelementptr inbounds %struct.GPR, %struct.GPR* %9, i32 0, i32 15
  %11 = getelementptr inbounds %struct.Reg, %struct.Reg* %10, i32 0, i32 0
  %RBP = bitcast %union.anon* %11 to i64*
  %12 = load i64, i64* %RBP
  %13 = sub i64 %12, 28
  %14 = load i64, i64* %PC
  %15 = add i64 %14, 4
  store i64 %15, i64* %PC
  %16 = call %struct.Memory* @_ZN12_GLOBAL__N_1L5MOVSXI3RnWImE2MnIjElEEP6MemoryS6_R5StateT_T0_(%struct.Memory* %2, %struct.State* %0, i64* %RCX, i64 %13)
  ret %struct.Memory* %16
}

define internal %struct.Memory* @_ZN12_GLOBAL__N_1L3SHLI3RnWImE2RnImE2InImEEEP6MemoryS8_R5StateT_T0_T1_(%struct.Memory* readnone, %struct.State* nocapture dereferenceable(3376), i64* nocapture, i64, i64) #0 {
  %6 = trunc i64 %4 to i6
  switch i6 %6, label %12 [
    i6 0, label %41
    i6 1, label %7
  ]

; <label>:7:                                      ; preds = %5
  %8 = shl i64 %3, 1
  %9 = icmp slt i64 %3, 0
  %10 = icmp slt i64 %8, 0
  %11 = xor i1 %9, %10
  br label %19

; <label>:12:                                     ; preds = %5
  %13 = and i64 %4, 63
  %14 = add  i64 %13, -1
  %15 = shl i64 %3, %14
  %16 = icmp slt i64 %15, 0
  %17 = icmp ne i8 0, 0
  %18 = shl i64 %15, 1
  br label %19

; <label>:19:                                     ; preds = %12, %7
  %20 = phi i1 [ %9, %7 ], [ %16, %12 ]
  %21 = phi i1 [ %11, %7 ], [ %17, %12 ]
  %22 = phi i64 [ %8, %7 ], [ %18, %12 ]
  store i64 %22, i64* %2, align 8
  %23 = getelementptr inbounds %struct.State, %struct.State* %1, i64 0, i32 2, i32 1
  %24 = zext i1 %20 to i8
  store i8 %24, i8* %23, align 1
  %25 = getelementptr inbounds %struct.State, %struct.State* %1, i64 0, i32 2, i32 3
  %26 = trunc i64 %22 to i32
  %27 = and i32 %26, 254
  %28 = tail call i32 @llvm.ctpop.i32(i32 %27) #22
  %29 = trunc i32 %28 to i8
  %30 = and i8 %29, 1
  %31 = xor i8 %30, 1
  store i8 %31, i8* %25, align 1
  %32 = getelementptr inbounds %struct.State, %struct.State* %1, i64 0, i32 2, i32 5
  store i8 0, i8* %32, align 1
  %33 = getelementptr inbounds %struct.State, %struct.State* %1, i64 0, i32 2, i32 7
  %34 = icmp eq i64 %22, 0
  %35 = zext i1 %34 to i8
  store i8 %35, i8* %33, align 1
  %36 = getelementptr inbounds %struct.State, %struct.State* %1, i64 0, i32 2, i32 9
  %37 = lshr i64 %22, 63
  %38 = trunc i64 %37 to i8
  store i8 %38, i8* %36, align 1
  %39 = getelementptr inbounds %struct.State, %struct.State* %1, i64 0, i32 2, i32 13
  %40 = zext i1 %21 to i8
  store i8 %40, i8* %39, align 1
  br label %41

; <label>:41:                                     ; preds = %19, %5
  ret %struct.Memory* %0
}

define %struct.Memory* @routine_shlq__0xd___rcx(%struct.State*  dereferenceable(3376), i64, %struct.Memory* ) #19 {
block_400488:
  %3 = getelementptr inbounds %struct.State, %struct.State* %0, i32 0, i32 6
  %4 = getelementptr inbounds %struct.GPR, %struct.GPR* %3, i32 0, i32 33
  %5 = getelementptr inbounds %struct.Reg, %struct.Reg* %4, i32 0, i32 0
  %PC = bitcast %union.anon* %5 to i64*
  %6 = getelementptr inbounds %struct.State, %struct.State* %0, i32 0, i32 6
  %7 = getelementptr inbounds %struct.GPR, %struct.GPR* %6, i32 0, i32 5
  %8 = getelementptr inbounds %struct.Reg, %struct.Reg* %7, i32 0, i32 0
  %RCX = bitcast %union.anon* %8 to i64*
  %9 = load i64, i64* %RCX
  %10 = load i64, i64* %PC
  %11 = add i64 %10, 4
  store i64 %11, i64* %PC
  %12 = call %struct.Memory* @_ZN12_GLOBAL__N_1L3SHLI3RnWImE2RnImE2InImEEEP6MemoryS8_R5StateT_T0_T1_(%struct.Memory* %2, %struct.State* %0, i64* %RCX, i64 %9, i64 13)
  ret %struct.Memory* %12
}

define internal %struct.Memory* @_ZN12_GLOBAL__N_1L3ADDI3RnWImE2RnImES4_EEP6MemoryS6_R5StateT_T0_T1_(%struct.Memory* readnone returned, %struct.State* nocapture dereferenceable(3376), i64* nocapture, i64, i64) #0 {
  %6 = add i64 %4, %3
  store i64 %6, i64* %2, align 8
  %7 = icmp ult i64 %6, %3
  %8 = icmp ult i64 %6, %4
  %9 = or i1 %7, %8
  %10 = zext i1 %9 to i8
  %11 = getelementptr inbounds %struct.State, %struct.State* %1, i64 0, i32 2, i32 1
  store i8 %10, i8* %11, align 1
  %12 = trunc i64 %6 to i32
  %13 = and i32 %12, 255
  %14 = tail call i32 @llvm.ctpop.i32(i32 %13) #22
  %15 = trunc i32 %14 to i8
  %16 = and i8 %15, 1
  %17 = xor i8 %16, 1
  %18 = getelementptr inbounds %struct.State, %struct.State* %1, i64 0, i32 2, i32 3
  store i8 %17, i8* %18, align 1
  %19 = xor i64 %4, %3
  %20 = xor i64 %19, %6
  %21 = lshr i64 %20, 4
  %22 = trunc i64 %21 to i8
  %23 = and i8 %22, 1
  %24 = getelementptr inbounds %struct.State, %struct.State* %1, i64 0, i32 2, i32 5
  store i8 %23, i8* %24, align 1
  %25 = icmp eq i64 %6, 0
  %26 = zext i1 %25 to i8
  %27 = getelementptr inbounds %struct.State, %struct.State* %1, i64 0, i32 2, i32 7
  store i8 %26, i8* %27, align 1
  %28 = lshr i64 %6, 63
  %29 = trunc i64 %28 to i8
  %30 = getelementptr inbounds %struct.State, %struct.State* %1, i64 0, i32 2, i32 9
  store i8 %29, i8* %30, align 1
  %31 = lshr i64 %3, 63
  %32 = lshr i64 %4, 63
  %33 = xor i64 %28, %31
  %34 = xor i64 %28, %32
  %35 = add   i64 %33, %34
  %36 = icmp eq i64 %35, 2
  %37 = zext i1 %36 to i8
  %38 = getelementptr inbounds %struct.State, %struct.State* %1, i64 0, i32 2, i32 13
  store i8 %37, i8* %38, align 1
  ret %struct.Memory* %0
}

define %struct.Memory* @routine_addq__rcx___rax(%struct.State*  dereferenceable(3376), i64, %struct.Memory* ) #19 {
block_400488:
  %3 = getelementptr inbounds %struct.State, %struct.State* %0, i32 0, i32 6
  %4 = getelementptr inbounds %struct.GPR, %struct.GPR* %3, i32 0, i32 33
  %5 = getelementptr inbounds %struct.Reg, %struct.Reg* %4, i32 0, i32 0
  %PC = bitcast %union.anon* %5 to i64*
  %6 = getelementptr inbounds %struct.State, %struct.State* %0, i32 0, i32 6
  %7 = getelementptr inbounds %struct.GPR, %struct.GPR* %6, i32 0, i32 1
  %8 = getelementptr inbounds %struct.Reg, %struct.Reg* %7, i32 0, i32 0
  %RAX = bitcast %union.anon* %8 to i64*
  %9 = getelementptr inbounds %struct.State, %struct.State* %0, i32 0, i32 6
  %10 = getelementptr inbounds %struct.GPR, %struct.GPR* %9, i32 0, i32 5
  %11 = getelementptr inbounds %struct.Reg, %struct.Reg* %10, i32 0, i32 0
  %RCX = bitcast %union.anon* %11 to i64*
  %12 = load i64, i64* %RAX
  %13 = load i64, i64* %RCX
  %14 = load i64, i64* %PC
  %15 = add i64 %14, 3
  store i64 %15, i64* %PC
  %16 = call %struct.Memory* @_ZN12_GLOBAL__N_1L3ADDI3RnWImE2RnImES4_EEP6MemoryS6_R5StateT_T0_T1_(%struct.Memory* %2, %struct.State* %0, i64* %RAX, i64 %12, i64 %13)
  ret %struct.Memory* %16
}



define internal %struct.Memory* @_ZN12_GLOBAL__N_1L9MOVSD_MEMI3VnWI8vec128_tE3MVnI7vec64_tEEEP6MemoryS8_R5StateT_T0_(%struct.Memory* returned, %struct.State* nocapture readnone dereferenceable(3376), i8* nocapture, i64) #0 {
  %5 = inttoptr i64 %3 to double*
  %6 = load double, double* %5
  %7 = bitcast i8* %2 to double*
  store double %6, double* %7, align 1
  %8 = getelementptr inbounds i8, i8* %2, i64 8
  %9 = bitcast i8* %8 to double*
  store double 0.000000e+00, double* %9, align 1
  ret %struct.Memory* %0
}

define %struct.Memory* @routine_movsd___rax__rcx_8____xmm0(%struct.State*  dereferenceable(3376), i64, %struct.Memory* ) #19 {
block_400488:
  %3 = getelementptr inbounds %struct.State, %struct.State* %0, i32 0, i32 6
  %4 = getelementptr inbounds %struct.GPR, %struct.GPR* %3, i32 0, i32 33
  %5 = getelementptr inbounds %struct.Reg, %struct.Reg* %4, i32 0, i32 0
  %PC = bitcast %union.anon* %5 to i64*
  %6 = getelementptr inbounds %struct.State, %struct.State* %0, i32 0, i32 6
  %7 = getelementptr inbounds %struct.GPR, %struct.GPR* %6, i32 0, i32 1
  %8 = getelementptr inbounds %struct.Reg, %struct.Reg* %7, i32 0, i32 0
  %RAX = bitcast %union.anon* %8 to i64*
  %9 = getelementptr inbounds %struct.State, %struct.State* %0, i32 0, i32 6
  %10 = getelementptr inbounds %struct.GPR, %struct.GPR* %9, i32 0, i32 5
  %11 = getelementptr inbounds %struct.Reg, %struct.Reg* %10, i32 0, i32 0
  %RCX = bitcast %union.anon* %11 to i64*
  %12 = getelementptr inbounds %struct.State, %struct.State* %0, i32 0, i32 1
  %13 = getelementptr inbounds [32 x %union.VectorReg], [32 x %union.VectorReg]* %12, i64 0, i64 0
  %YMM0 = bitcast %union.VectorReg* %13 to %"class.std::bitset"*
  %14 = bitcast %"class.std::bitset"* %YMM0 to i8*
  %15 = load i64, i64* %RAX
  %16 = load i64, i64* %RCX
  %17 = mul i64 %16, 8
  %18 = add i64 %17, %15
  %19 = load i64, i64* %PC
  %20 = add i64 %19, 5
  store i64 %20, i64* %PC
  %21 = call %struct.Memory* @_ZN12_GLOBAL__N_1L9MOVSD_MEMI3VnWI8vec128_tE3MVnI7vec64_tEEEP6MemoryS8_R5StateT_T0_(%struct.Memory* %2, %struct.State* %0, i8* %14, i64 %18)
  ret %struct.Memory* %21
}

define internal %struct.Memory* @_ZN12_GLOBAL__N_1L8CVTSI2SDI2MnIjEEEP6MemoryS4_R5State3VnWI8vec128_tET_(%struct.Memory*, %struct.State* nocapture readnone dereferenceable(3376), i8* nocapture, i64) #0 {
  %5 = inttoptr i64 %3 to i32*
  %6 = load i32, i32* %5
  %7 = sitofp i32 %6 to double
  %8 = bitcast i8* %2 to double*
  store double %7, double* %8, align 1
  ret %struct.Memory* %0
}

define %struct.Memory* @routine_cvtsi2sdl_MINUS0x4__rbp____xmm1(%struct.State*  dereferenceable(3376), i64, %struct.Memory* ) #19 {
block_400488:
  %3 = getelementptr inbounds %struct.State, %struct.State* %0, i32 0, i32 6
  %4 = getelementptr inbounds %struct.GPR, %struct.GPR* %3, i32 0, i32 33
  %5 = getelementptr inbounds %struct.Reg, %struct.Reg* %4, i32 0, i32 0
  %PC = bitcast %union.anon* %5 to i64*
  %6 = getelementptr inbounds %struct.State, %struct.State* %0, i32 0, i32 6
  %7 = getelementptr inbounds %struct.GPR, %struct.GPR* %6, i32 0, i32 15
  %8 = getelementptr inbounds %struct.Reg, %struct.Reg* %7, i32 0, i32 0
  %RBP = bitcast %union.anon* %8 to i64*
  %9 = getelementptr inbounds %struct.State, %struct.State* %0, i32 0, i32 1
  %10 = getelementptr inbounds [32 x %union.VectorReg], [32 x %union.VectorReg]* %9, i64 0, i64 1
  %YMM1 = bitcast %union.VectorReg* %10 to %"class.std::bitset"*
  %11 = bitcast %"class.std::bitset"* %YMM1 to i8*
  %12 = load i64, i64* %RBP
  %13 = sub i64 %12, 4
  %14 = load i64, i64* %PC
  %15 = add i64 %14, 5
  store i64 %15, i64* %PC
  %16 = call %struct.Memory* @_ZN12_GLOBAL__N_1L8CVTSI2SDI2MnIjEEEP6MemoryS4_R5State3VnWI8vec128_tET_(%struct.Memory* %2, %struct.State* %0, i8* %11, i64 %13)
  ret %struct.Memory* %16
}

define internal %struct.Memory* @_ZN12_GLOBAL__N_1L5MULSDI3VnWI8vec128_tE2VnIS2_ES5_EEP6MemoryS7_R5StateT_T0_T1_(%struct.Memory* readnone returned, %struct.State* nocapture readnone dereferenceable(3376), i8* nocapture, i8* nocapture readonly, i8* nocapture readonly) #0 {
  %6 = bitcast i8* %3 to double*
  %7 = load double, double* %6, align 1
  %8 = getelementptr inbounds i8, i8* %3, i64 8
  %9 = bitcast i8* %8 to i64*
  %10 = load i64, i64* %9, align 1
  %11 = bitcast i8* %4 to double*
  %12 = load double, double* %11, align 1
  %13 = fmul double %7, %12
  %14 = bitcast i8* %2 to double*
  store double %13, double* %14, align 1
  %15 = getelementptr inbounds i8, i8* %2, i64 8
  %16 = bitcast i8* %15 to i64*
  store i64 %10, i64* %16, align 1
  ret %struct.Memory* %0
}

define %struct.Memory* @routine_mulsd__xmm1___xmm0(%struct.State*  dereferenceable(3376), i64, %struct.Memory* ) #19 {
block_400488:
  %3 = getelementptr inbounds %struct.State, %struct.State* %0, i32 0, i32 6
  %4 = getelementptr inbounds %struct.GPR, %struct.GPR* %3, i32 0, i32 33
  %5 = getelementptr inbounds %struct.Reg, %struct.Reg* %4, i32 0, i32 0
  %PC = bitcast %union.anon* %5 to i64*
  %6 = getelementptr inbounds %struct.State, %struct.State* %0, i32 0, i32 1
  %7 = getelementptr inbounds [32 x %union.VectorReg], [32 x %union.VectorReg]* %6, i64 0, i64 0
  %YMM0 = bitcast %union.VectorReg* %7 to %"class.std::bitset"*
  %8 = getelementptr inbounds %struct.State, %struct.State* %0, i32 0, i32 1
  %9 = getelementptr inbounds [32 x %union.VectorReg], [32 x %union.VectorReg]* %8, i64 0, i64 1
  %XMM1 = bitcast %union.VectorReg* %9 to %union.vec128_t*
  %10 = bitcast %"class.std::bitset"* %YMM0 to i8*
  %11 = bitcast %"class.std::bitset"* %YMM0 to i8*
  %12 = bitcast %union.vec128_t* %XMM1 to i8*
  %13 = load i64, i64* %PC
  %14 = add i64 %13, 4
  store i64 %14, i64* %PC
  %15 = call %struct.Memory* @_ZN12_GLOBAL__N_1L5MULSDI3VnWI8vec128_tE2VnIS2_ES5_EEP6MemoryS7_R5StateT_T0_T1_(%struct.Memory* %2, %struct.State* %0, i8* %10, i8* %11, i8* %12)
  ret %struct.Memory* %15
}

define internal %struct.Memory* @_ZN12_GLOBAL__N_1L9MOVSD_MEMI4MVnWI7vec64_tE2VnI8vec128_tEEEP6MemoryS8_R5StateT_T0_(%struct.Memory* readnone, %struct.State* nocapture readnone dereferenceable(3376), i64, i8* nocapture readonly) #7 {
  %5 = bitcast i8* %3 to double*
  %6 = load double, double* %5, align 1
  %7 = inttoptr i64 %2 to double*
  store double %6, double* %7
  ret %struct.Memory* %0
}

define %struct.Memory* @routine_movsd__xmm0__MINUS0x30__rbp_(%struct.State*  dereferenceable(3376), i64, %struct.Memory* ) #19 {
block_400488:
  %3 = getelementptr inbounds %struct.State, %struct.State* %0, i32 0, i32 6
  %4 = getelementptr inbounds %struct.GPR, %struct.GPR* %3, i32 0, i32 33
  %5 = getelementptr inbounds %struct.Reg, %struct.Reg* %4, i32 0, i32 0
  %PC = bitcast %union.anon* %5 to i64*
  %6 = getelementptr inbounds %struct.State, %struct.State* %0, i32 0, i32 6
  %7 = getelementptr inbounds %struct.GPR, %struct.GPR* %6, i32 0, i32 15
  %8 = getelementptr inbounds %struct.Reg, %struct.Reg* %7, i32 0, i32 0
  %RBP = bitcast %union.anon* %8 to i64*
  %9 = getelementptr inbounds %struct.State, %struct.State* %0, i32 0, i32 1
  %10 = getelementptr inbounds [32 x %union.VectorReg], [32 x %union.VectorReg]* %9, i64 0, i64 0
  %XMM0 = bitcast %union.VectorReg* %10 to %union.vec128_t*
  %11 = load i64, i64* %RBP
  %12 = sub i64 %11, 48
  %13 = bitcast %union.vec128_t* %XMM0 to i8*
  %14 = load i64, i64* %PC
  %15 = add i64 %14, 5
  store i64 %15, i64* %PC
  %16 = call %struct.Memory* @_ZN12_GLOBAL__N_1L9MOVSD_MEMI4MVnWI7vec64_tE2VnI8vec128_tEEEP6MemoryS8_R5StateT_T0_(%struct.Memory* %2, %struct.State* %0, i64 %12, i8* %13)
  ret %struct.Memory* %16
}


define %struct.Memory* @routine_movl__0x0__MINUS0x20__rbp_(%struct.State*  dereferenceable(3376), i64, %struct.Memory* ) #19 {
block_400488:
  %3 = getelementptr inbounds %struct.State, %struct.State* %0, i32 0, i32 6
  %4 = getelementptr inbounds %struct.GPR, %struct.GPR* %3, i32 0, i32 33
  %5 = getelementptr inbounds %struct.Reg, %struct.Reg* %4, i32 0, i32 0
  %PC = bitcast %union.anon* %5 to i64*
  %6 = getelementptr inbounds %struct.State, %struct.State* %0, i32 0, i32 6
  %7 = getelementptr inbounds %struct.GPR, %struct.GPR* %6, i32 0, i32 15
  %8 = getelementptr inbounds %struct.Reg, %struct.Reg* %7, i32 0, i32 0
  %RBP = bitcast %union.anon* %8 to i64*
  %9 = load i64, i64* %RBP
  %10 = sub i64 %9, 32
  %11 = load i64, i64* %PC
  %12 = add i64 %11, 7
  store i64 %12, i64* %PC
  %13 = call %struct.Memory* @_ZN12_GLOBAL__N_1L3MOVI3MnWIjE2InIjEEEP6MemoryS6_R5StateT_T0_(%struct.Memory* %2, %struct.State* %0, i64 %10, i64 0)
  ret %struct.Memory* %13
}


define %struct.Memory* @routine_movl_MINUS0x20__rbp____eax(%struct.State*  dereferenceable(3376), i64, %struct.Memory* ) #19 {
block_400488:
  %3 = getelementptr inbounds %struct.State, %struct.State* %0, i32 0, i32 6
  %4 = getelementptr inbounds %struct.GPR, %struct.GPR* %3, i32 0, i32 33
  %5 = getelementptr inbounds %struct.Reg, %struct.Reg* %4, i32 0, i32 0
  %PC = bitcast %union.anon* %5 to i64*
  %6 = getelementptr inbounds %struct.State, %struct.State* %0, i32 0, i32 6
  %7 = getelementptr inbounds %struct.GPR, %struct.GPR* %6, i32 0, i32 1
  %8 = getelementptr inbounds %struct.Reg, %struct.Reg* %7, i32 0, i32 0
  %RAX = bitcast %union.anon* %8 to i64*
  %9 = getelementptr inbounds %struct.State, %struct.State* %0, i32 0, i32 6
  %10 = getelementptr inbounds %struct.GPR, %struct.GPR* %9, i32 0, i32 15
  %11 = getelementptr inbounds %struct.Reg, %struct.Reg* %10, i32 0, i32 0
  %RBP = bitcast %union.anon* %11 to i64*
  %12 = load i64, i64* %RBP
  %13 = sub i64 %12, 32
  %14 = load i64, i64* %PC
  %15 = add i64 %14, 3
  store i64 %15, i64* %PC
  %16 = call %struct.Memory* @_ZN12_GLOBAL__N_1L3MOVI3RnWImE2MnIjEEEP6MemoryS6_R5StateT_T0_(%struct.Memory* %2, %struct.State* %0, i64* %RAX, i64 %13)
  ret %struct.Memory* %16
}


define %struct.Memory* @routine_movl_MINUS0x1c__rbp____ecx(%struct.State*  dereferenceable(3376), i64, %struct.Memory* ) #19 {
block_400488:
  %3 = getelementptr inbounds %struct.State, %struct.State* %0, i32 0, i32 6
  %4 = getelementptr inbounds %struct.GPR, %struct.GPR* %3, i32 0, i32 33
  %5 = getelementptr inbounds %struct.Reg, %struct.Reg* %4, i32 0, i32 0
  %PC = bitcast %union.anon* %5 to i64*
  %6 = getelementptr inbounds %struct.State, %struct.State* %0, i32 0, i32 6
  %7 = getelementptr inbounds %struct.GPR, %struct.GPR* %6, i32 0, i32 5
  %8 = getelementptr inbounds %struct.Reg, %struct.Reg* %7, i32 0, i32 0
  %RCX = bitcast %union.anon* %8 to i64*
  %9 = getelementptr inbounds %struct.State, %struct.State* %0, i32 0, i32 6
  %10 = getelementptr inbounds %struct.GPR, %struct.GPR* %9, i32 0, i32 15
  %11 = getelementptr inbounds %struct.Reg, %struct.Reg* %10, i32 0, i32 0
  %RBP = bitcast %union.anon* %11 to i64*
  %12 = load i64, i64* %RBP
  %13 = sub i64 %12, 28
  %14 = load i64, i64* %PC
  %15 = add i64 %14, 3
  store i64 %15, i64* %PC
  %16 = call %struct.Memory* @_ZN12_GLOBAL__N_1L3MOVI3RnWImE2MnIjEEEP6MemoryS6_R5StateT_T0_(%struct.Memory* %2, %struct.State* %0, i64* %RCX, i64 %13)
  ret %struct.Memory* %16
}

define internal %struct.Memory* @_ZN12_GLOBAL__N_1L3SUBI3RnWImE2RnIjE2InIjEEEP6MemoryS8_R5StateT_T0_T1_(%struct.Memory* readnone returned, %struct.State* nocapture dereferenceable(3376), i64* nocapture, i64, i64) #0 {
  %6 = trunc i64 %3 to i32
  %7 = trunc i64 %4 to i32
  %8 = sub i32 %6, %7
  %9 = zext i32 %8 to i64
  store i64 %9, i64* %2, align 8
  %10 = icmp ult i32 %6, %7
  %11 = zext i1 %10 to i8
  %12 = getelementptr inbounds %struct.State, %struct.State* %1, i64 0, i32 2, i32 1
  store i8 %11, i8* %12, align 1
  %13 = and i32 %8, 255
  %14 = tail call i32 @llvm.ctpop.i32(i32 %13) #22
  %15 = trunc i32 %14 to i8
  %16 = and i8 %15, 1
  %17 = xor i8 %16, 1
  %18 = getelementptr inbounds %struct.State, %struct.State* %1, i64 0, i32 2, i32 3
  store i8 %17, i8* %18, align 1
  %19 = xor i64 %4, %3
  %20 = trunc i64 %19 to i32
  %21 = xor i32 %20, %8
  %22 = lshr i32 %21, 4
  %23 = trunc i32 %22 to i8
  %24 = and i8 %23, 1
  %25 = getelementptr inbounds %struct.State, %struct.State* %1, i64 0, i32 2, i32 5
  store i8 %24, i8* %25, align 1
  %26 = icmp eq i32 %8, 0
  %27 = zext i1 %26 to i8
  %28 = getelementptr inbounds %struct.State, %struct.State* %1, i64 0, i32 2, i32 7
  store i8 %27, i8* %28, align 1
  %29 = lshr i32 %8, 31
  %30 = trunc i32 %29 to i8
  %31 = getelementptr inbounds %struct.State, %struct.State* %1, i64 0, i32 2, i32 9
  store i8 %30, i8* %31, align 1
  %32 = lshr i32 %6, 31
  %33 = lshr i32 %7, 31
  %34 = xor i32 %33, %32
  %35 = xor i32 %29, %32
  %36 = add   i32 %35, %34
  %37 = icmp eq i32 %36, 2
  %38 = zext i1 %37 to i8
  %39 = getelementptr inbounds %struct.State, %struct.State* %1, i64 0, i32 2, i32 13
  store i8 %38, i8* %39, align 1
  ret %struct.Memory* %0
}

define %struct.Memory* @routine_subl__0x1___ecx(%struct.State*  dereferenceable(3376), i64, %struct.Memory* ) #19 {
block_400488:
  %3 = getelementptr inbounds %struct.State, %struct.State* %0, i32 0, i32 6
  %4 = getelementptr inbounds %struct.GPR, %struct.GPR* %3, i32 0, i32 33
  %5 = getelementptr inbounds %struct.Reg, %struct.Reg* %4, i32 0, i32 0
  %PC = bitcast %union.anon* %5 to i64*
  %6 = getelementptr inbounds %struct.State, %struct.State* %0, i32 0, i32 6
  %7 = getelementptr inbounds %struct.GPR, %struct.GPR* %6, i32 0, i32 5
  %8 = getelementptr inbounds %struct.Reg, %struct.Reg* %7, i32 0, i32 0
  %RCX = bitcast %union.anon* %8 to i64*
  %9 = load i64, i64* %RCX
  %10 = load i64, i64* %PC
  %11 = add i64 %10, 3
  store i64 %11, i64* %PC
  %12 = call %struct.Memory* @_ZN12_GLOBAL__N_1L3SUBI3RnWImE2RnIjE2InIjEEEP6MemoryS8_R5StateT_T0_T1_(%struct.Memory* %2, %struct.State* %0, i64* %RCX, i64 %9, i64 1)
  ret %struct.Memory* %12
}

define internal %struct.Memory* @_ZN12_GLOBAL__N_1L3CMPI2RnIjES2_EEP6MemoryS4_R5StateT_T0_(%struct.Memory* readnone returned, %struct.State* nocapture dereferenceable(3376), i64, i64) #0 {
  %5 = trunc i64 %2 to i32
  %6 = trunc i64 %3 to i32
  %7 = sub i32 %5, %6
  %8 = icmp ult i32 %5, %6
  %9 = zext i1 %8 to i8
  %10 = getelementptr inbounds %struct.State, %struct.State* %1, i64 0, i32 2, i32 1
  store i8 %9, i8* %10, align 1
  %11 = and i32 %7, 255
  %12 = tail call i32 @llvm.ctpop.i32(i32 %11) #22
  %13 = trunc i32 %12 to i8
  %14 = and i8 %13, 1
  %15 = xor i8 %14, 1
  %16 = getelementptr inbounds %struct.State, %struct.State* %1, i64 0, i32 2, i32 3
  store i8 %15, i8* %16, align 1
  %17 = xor i64 %3, %2
  %18 = trunc i64 %17 to i32
  %19 = xor i32 %18, %7
  %20 = lshr i32 %19, 4
  %21 = trunc i32 %20 to i8
  %22 = and i8 %21, 1
  %23 = getelementptr inbounds %struct.State, %struct.State* %1, i64 0, i32 2, i32 5
  store i8 %22, i8* %23, align 1
  %24 = icmp eq i32 %7, 0
  %25 = zext i1 %24 to i8
  %26 = getelementptr inbounds %struct.State, %struct.State* %1, i64 0, i32 2, i32 7
  store i8 %25, i8* %26, align 1
  %27 = lshr i32 %7, 31
  %28 = trunc i32 %27 to i8
  %29 = getelementptr inbounds %struct.State, %struct.State* %1, i64 0, i32 2, i32 9
  store i8 %28, i8* %29, align 1
  %30 = lshr i32 %5, 31
  %31 = lshr i32 %6, 31
  %32 = xor i32 %31, %30
  %33 = xor i32 %27, %30
  %34 = add   i32 %33, %32
  %35 = icmp eq i32 %34, 2
  %36 = zext i1 %35 to i8
  %37 = getelementptr inbounds %struct.State, %struct.State* %1, i64 0, i32 2, i32 13
  store i8 %36, i8* %37, align 1
  ret %struct.Memory* %0
}

define %struct.Memory* @routine_cmpl__ecx___eax(%struct.State*  dereferenceable(3376), i64, %struct.Memory* ) #19 {
block_400488:
  %3 = getelementptr inbounds %struct.State, %struct.State* %0, i32 0, i32 6
  %4 = getelementptr inbounds %struct.GPR, %struct.GPR* %3, i32 0, i32 33
  %5 = getelementptr inbounds %struct.Reg, %struct.Reg* %4, i32 0, i32 0
  %PC = bitcast %union.anon* %5 to i64*
  %6 = getelementptr inbounds %struct.State, %struct.State* %0, i32 0, i32 6
  %7 = getelementptr inbounds %struct.GPR, %struct.GPR* %6, i32 0, i32 1
  %8 = getelementptr inbounds %struct.Reg, %struct.Reg* %7, i32 0, i32 0
  %EAX = bitcast %union.anon* %8 to i32*
  %9 = getelementptr inbounds %struct.State, %struct.State* %0, i32 0, i32 6
  %10 = getelementptr inbounds %struct.GPR, %struct.GPR* %9, i32 0, i32 5
  %11 = getelementptr inbounds %struct.Reg, %struct.Reg* %10, i32 0, i32 0
  %ECX = bitcast %union.anon* %11 to i32*
  %12 = load i32, i32* %EAX
  %13 = zext i32 %12 to i64
  %14 = load i32, i32* %ECX
  %15 = zext i32 %14 to i64
  %16 = load i64, i64* %PC
  %17 = add i64 %16, 2
  store i64 %17, i64* %PC
  %18 = call %struct.Memory* @_ZN12_GLOBAL__N_1L3CMPI2RnIjES2_EEP6MemoryS4_R5StateT_T0_(%struct.Memory* %2, %struct.State* %0, i64 %13, i64 %15)
  ret %struct.Memory* %18
}

define internal %struct.Memory* @_ZN12_GLOBAL__N_1L4JNLEEP6MemoryR5State3RnWIhE2InImES7_(%struct.Memory* readnone returned, %struct.State* nocapture dereferenceable(3376), i8* nocapture, i64, i64) #2 {
  %6 = getelementptr inbounds %struct.State, %struct.State* %1, i64 0, i32 2, i32 7
  %7 = load i8, i8* %6, align 1
  %8 = icmp eq i8 %7, 0
  %9 = getelementptr inbounds %struct.State, %struct.State* %1, i64 0, i32 2, i32 9
  %10 = load i8, i8* %9, align 1
  %11 = icmp ne i8 %10, 0
  %12 = getelementptr inbounds %struct.State, %struct.State* %1, i64 0, i32 2, i32 13
  %13 = load i8, i8* %12, align 1
  %14 = icmp ne i8 %13, 0
  %15 = xor i1 %11, %14
  %16 = xor i1 %15, true
  %17 = and i1 %8, %16
  %18 = zext i1 %17 to i8
  store i8 %18, i8* %2, align 1
  %19 = getelementptr inbounds %struct.State, %struct.State* %1, i64 0, i32 6, i32 33, i32 0, i32 0
  %20 = select i1 %17, i64 %3, i64 %4
  store i64 %20, i64* %19, align 8
  ret %struct.Memory* %0
}

define %struct.Memory* @routine_jg_.L_400de0(%struct.State*  dereferenceable(3376), i64, %struct.Memory*, i8* %BRANCH_TAKEN, i64 %rel_off1, i64 %rel_off2, i64 %rel_off3) {
block_400488:
  %3 = getelementptr inbounds %struct.State, %struct.State* %0, i32 0, i32 6
  %4 = getelementptr inbounds %struct.GPR, %struct.GPR* %3, i32 0, i32 33
  %5 = getelementptr inbounds %struct.Reg, %struct.Reg* %4, i32 0, i32 0
  %PC = bitcast %union.anon* %5 to i64*
  %6 = load i64, i64* %PC
  %7 = add i64 %6, %rel_off1
  %8 = load i64, i64* %PC
  %9 = add i64 %8, %rel_off2
  %10 = load i64, i64* %PC
  %11 = add i64 %10, %rel_off3
  store i64 %11, i64* %PC
  %12 = call %struct.Memory* @_ZN12_GLOBAL__N_1L4JNLEEP6MemoryR5State3RnWIhE2InImES7_(%struct.Memory* %2, %struct.State* %0, i8* %BRANCH_TAKEN, i64 %7, i64 %9)
  ret %struct.Memory* %12
}


define %struct.Memory* @routine_movsd_MINUS0x30__rbp____xmm0(%struct.State*  dereferenceable(3376), i64, %struct.Memory* ) #19 {
block_400488:
  %3 = getelementptr inbounds %struct.State, %struct.State* %0, i32 0, i32 6
  %4 = getelementptr inbounds %struct.GPR, %struct.GPR* %3, i32 0, i32 33
  %5 = getelementptr inbounds %struct.Reg, %struct.Reg* %4, i32 0, i32 0
  %PC = bitcast %union.anon* %5 to i64*
  %6 = getelementptr inbounds %struct.State, %struct.State* %0, i32 0, i32 6
  %7 = getelementptr inbounds %struct.GPR, %struct.GPR* %6, i32 0, i32 15
  %8 = getelementptr inbounds %struct.Reg, %struct.Reg* %7, i32 0, i32 0
  %RBP = bitcast %union.anon* %8 to i64*
  %9 = getelementptr inbounds %struct.State, %struct.State* %0, i32 0, i32 1
  %10 = getelementptr inbounds [32 x %union.VectorReg], [32 x %union.VectorReg]* %9, i64 0, i64 0
  %YMM0 = bitcast %union.VectorReg* %10 to %"class.std::bitset"*
  %11 = bitcast %"class.std::bitset"* %YMM0 to i8*
  %12 = load i64, i64* %RBP
  %13 = sub i64 %12, 48
  %14 = load i64, i64* %PC
  %15 = add i64 %14, 5
  store i64 %15, i64* %PC
  %16 = call %struct.Memory* @_ZN12_GLOBAL__N_1L9MOVSD_MEMI3VnWI8vec128_tE3MVnI7vec64_tEEEP6MemoryS8_R5StateT_T0_(%struct.Memory* %2, %struct.State* %0, i8* %11, i64 %13)
  ret %struct.Memory* %16
}










define %struct.Memory* @routine_movslq_MINUS0x20__rbp____rcx(%struct.State*  dereferenceable(3376), i64, %struct.Memory* ) #19 {
block_400488:
  %3 = getelementptr inbounds %struct.State, %struct.State* %0, i32 0, i32 6
  %4 = getelementptr inbounds %struct.GPR, %struct.GPR* %3, i32 0, i32 33
  %5 = getelementptr inbounds %struct.Reg, %struct.Reg* %4, i32 0, i32 0
  %PC = bitcast %union.anon* %5 to i64*
  %6 = getelementptr inbounds %struct.State, %struct.State* %0, i32 0, i32 6
  %7 = getelementptr inbounds %struct.GPR, %struct.GPR* %6, i32 0, i32 5
  %8 = getelementptr inbounds %struct.Reg, %struct.Reg* %7, i32 0, i32 0
  %RCX = bitcast %union.anon* %8 to i64*
  %9 = getelementptr inbounds %struct.State, %struct.State* %0, i32 0, i32 6
  %10 = getelementptr inbounds %struct.GPR, %struct.GPR* %9, i32 0, i32 15
  %11 = getelementptr inbounds %struct.Reg, %struct.Reg* %10, i32 0, i32 0
  %RBP = bitcast %union.anon* %11 to i64*
  %12 = load i64, i64* %RBP
  %13 = sub i64 %12, 32
  %14 = load i64, i64* %PC
  %15 = add i64 %14, 4
  store i64 %15, i64* %PC
  %16 = call %struct.Memory* @_ZN12_GLOBAL__N_1L5MOVSXI3RnWImE2MnIjElEEP6MemoryS6_R5StateT_T0_(%struct.Memory* %2, %struct.State* %0, i64* %RCX, i64 %13)
  ret %struct.Memory* %16
}


define %struct.Memory* @routine_movsd___rax__rcx_8____xmm1(%struct.State*  dereferenceable(3376), i64, %struct.Memory* ) #19 {
block_400488:
  %3 = getelementptr inbounds %struct.State, %struct.State* %0, i32 0, i32 6
  %4 = getelementptr inbounds %struct.GPR, %struct.GPR* %3, i32 0, i32 33
  %5 = getelementptr inbounds %struct.Reg, %struct.Reg* %4, i32 0, i32 0
  %PC = bitcast %union.anon* %5 to i64*
  %6 = getelementptr inbounds %struct.State, %struct.State* %0, i32 0, i32 6
  %7 = getelementptr inbounds %struct.GPR, %struct.GPR* %6, i32 0, i32 1
  %8 = getelementptr inbounds %struct.Reg, %struct.Reg* %7, i32 0, i32 0
  %RAX = bitcast %union.anon* %8 to i64*
  %9 = getelementptr inbounds %struct.State, %struct.State* %0, i32 0, i32 6
  %10 = getelementptr inbounds %struct.GPR, %struct.GPR* %9, i32 0, i32 5
  %11 = getelementptr inbounds %struct.Reg, %struct.Reg* %10, i32 0, i32 0
  %RCX = bitcast %union.anon* %11 to i64*
  %12 = getelementptr inbounds %struct.State, %struct.State* %0, i32 0, i32 1
  %13 = getelementptr inbounds [32 x %union.VectorReg], [32 x %union.VectorReg]* %12, i64 0, i64 1
  %YMM1 = bitcast %union.VectorReg* %13 to %"class.std::bitset"*
  %14 = bitcast %"class.std::bitset"* %YMM1 to i8*
  %15 = load i64, i64* %RAX
  %16 = load i64, i64* %RCX
  %17 = mul i64 %16, 8
  %18 = add i64 %17, %15
  %19 = load i64, i64* %PC
  %20 = add i64 %19, 5
  store i64 %20, i64* %PC
  %21 = call %struct.Memory* @_ZN12_GLOBAL__N_1L9MOVSD_MEMI3VnWI8vec128_tE3MVnI7vec64_tEEEP6MemoryS8_R5StateT_T0_(%struct.Memory* %2, %struct.State* %0, i8* %14, i64 %18)
  ret %struct.Memory* %21
}











define internal %struct.Memory* @_ZN12_GLOBAL__N_1L5MULSDI3VnWI8vec128_tE2VnIS2_E3MVnIS2_EEEP6MemoryS9_R5StateT_T0_T1_(%struct.Memory* returned, %struct.State* nocapture readnone dereferenceable(3376), i8* nocapture, i8* nocapture readonly, i64) #0 {
  %6 = bitcast i8* %3 to double*
  %7 = load double, double* %6, align 1
  %8 = getelementptr inbounds i8, i8* %3, i64 8
  %9 = bitcast i8* %8 to i64*
  %10 = load i64, i64* %9, align 1
  %11 = inttoptr i64 %4 to double*
  %12 = load double, double* %11
  %13 = fmul double %7, %12
  %14 = bitcast i8* %2 to double*
  store double %13, double* %14, align 1
  %15 = getelementptr inbounds i8, i8* %2, i64 8
  %16 = bitcast i8* %15 to i64*
  store i64 %10, i64* %16, align 1
  ret %struct.Memory* %0
}

define %struct.Memory* @routine_mulsd___rax__rcx_8____xmm1(%struct.State*  dereferenceable(3376), i64, %struct.Memory* ) #19 {
block_400488:
  %3 = getelementptr inbounds %struct.State, %struct.State* %0, i32 0, i32 6
  %4 = getelementptr inbounds %struct.GPR, %struct.GPR* %3, i32 0, i32 33
  %5 = getelementptr inbounds %struct.Reg, %struct.Reg* %4, i32 0, i32 0
  %PC = bitcast %union.anon* %5 to i64*
  %6 = getelementptr inbounds %struct.State, %struct.State* %0, i32 0, i32 6
  %7 = getelementptr inbounds %struct.GPR, %struct.GPR* %6, i32 0, i32 1
  %8 = getelementptr inbounds %struct.Reg, %struct.Reg* %7, i32 0, i32 0
  %RAX = bitcast %union.anon* %8 to i64*
  %9 = getelementptr inbounds %struct.State, %struct.State* %0, i32 0, i32 6
  %10 = getelementptr inbounds %struct.GPR, %struct.GPR* %9, i32 0, i32 5
  %11 = getelementptr inbounds %struct.Reg, %struct.Reg* %10, i32 0, i32 0
  %RCX = bitcast %union.anon* %11 to i64*
  %12 = getelementptr inbounds %struct.State, %struct.State* %0, i32 0, i32 1
  %13 = getelementptr inbounds [32 x %union.VectorReg], [32 x %union.VectorReg]* %12, i64 0, i64 1
  %YMM1 = bitcast %union.VectorReg* %13 to %"class.std::bitset"*
  %14 = bitcast %"class.std::bitset"* %YMM1 to i8*
  %15 = bitcast %"class.std::bitset"* %YMM1 to i8*
  %16 = load i64, i64* %RAX
  %17 = load i64, i64* %RCX
  %18 = mul i64 %17, 8
  %19 = add i64 %18, %16
  %20 = load i64, i64* %PC
  %21 = add i64 %20, 5
  store i64 %21, i64* %PC
  %22 = call %struct.Memory* @_ZN12_GLOBAL__N_1L5MULSDI3VnWI8vec128_tE2VnIS2_E3MVnIS2_EEEP6MemoryS9_R5StateT_T0_T1_(%struct.Memory* %2, %struct.State* %0, i8* %14, i8* %15, i64 %19)
  ret %struct.Memory* %22
}

define internal %struct.Memory* @_ZN12_GLOBAL__N_1L5SUBSDI3VnWI8vec128_tE2VnIS2_ES5_EEP6MemoryS7_R5StateT_T0_T1_(%struct.Memory* readnone returned, %struct.State* nocapture readnone dereferenceable(3376), i8* nocapture, i8* nocapture readonly, i8* nocapture readonly) #0 {
  %6 = bitcast i8* %3 to double*
  %7 = load double, double* %6, align 1
  %8 = getelementptr inbounds i8, i8* %3, i64 8
  %9 = bitcast i8* %8 to i64*
  %10 = load i64, i64* %9, align 1
  %11 = bitcast i8* %4 to double*
  %12 = load double, double* %11, align 1
  %13 = fsub double %7, %12
  %14 = bitcast i8* %2 to double*
  store double %13, double* %14, align 1
  %15 = getelementptr inbounds i8, i8* %2, i64 8
  %16 = bitcast i8* %15 to i64*
  store i64 %10, i64* %16, align 1
  ret %struct.Memory* %0
}

define %struct.Memory* @routine_subsd__xmm1___xmm0(%struct.State*  dereferenceable(3376), i64, %struct.Memory* ) #19 {
block_400488:
  %3 = getelementptr inbounds %struct.State, %struct.State* %0, i32 0, i32 6
  %4 = getelementptr inbounds %struct.GPR, %struct.GPR* %3, i32 0, i32 33
  %5 = getelementptr inbounds %struct.Reg, %struct.Reg* %4, i32 0, i32 0
  %PC = bitcast %union.anon* %5 to i64*
  %6 = getelementptr inbounds %struct.State, %struct.State* %0, i32 0, i32 1
  %7 = getelementptr inbounds [32 x %union.VectorReg], [32 x %union.VectorReg]* %6, i64 0, i64 0
  %YMM0 = bitcast %union.VectorReg* %7 to %"class.std::bitset"*
  %8 = getelementptr inbounds %struct.State, %struct.State* %0, i32 0, i32 1
  %9 = getelementptr inbounds [32 x %union.VectorReg], [32 x %union.VectorReg]* %8, i64 0, i64 1
  %XMM1 = bitcast %union.VectorReg* %9 to %union.vec128_t*
  %10 = bitcast %"class.std::bitset"* %YMM0 to i8*
  %11 = bitcast %"class.std::bitset"* %YMM0 to i8*
  %12 = bitcast %union.vec128_t* %XMM1 to i8*
  %13 = load i64, i64* %PC
  %14 = add i64 %13, 4
  store i64 %14, i64* %PC
  %15 = call %struct.Memory* @_ZN12_GLOBAL__N_1L5SUBSDI3VnWI8vec128_tE2VnIS2_ES5_EEP6MemoryS7_R5StateT_T0_T1_(%struct.Memory* %2, %struct.State* %0, i8* %10, i8* %11, i8* %12)
  ret %struct.Memory* %15
}





define internal %struct.Memory* @_ZN12_GLOBAL__N_1L3ADDI3RnWImE2RnIjE2InIjEEEP6MemoryS8_R5StateT_T0_T1_(%struct.Memory* readnone returned, %struct.State* nocapture dereferenceable(3376), i64* nocapture, i64, i64) #0 {
  %6 = trunc i64 %3 to i32
  %7 = trunc i64 %4 to i32
  %8 = add i32 %7, %6
  %9 = zext i32 %8 to i64
  store i64 %9, i64* %2, align 8
  %10 = icmp ult i32 %8, %6
  %11 = icmp ult i32 %8, %7
  %12 = or i1 %10, %11
  %13 = zext i1 %12 to i8
  %14 = getelementptr inbounds %struct.State, %struct.State* %1, i64 0, i32 2, i32 1
  store i8 %13, i8* %14, align 1
  %15 = and i32 %8, 255
  %16 = tail call i32 @llvm.ctpop.i32(i32 %15) #22
  %17 = trunc i32 %16 to i8
  %18 = and i8 %17, 1
  %19 = xor i8 %18, 1
  %20 = getelementptr inbounds %struct.State, %struct.State* %1, i64 0, i32 2, i32 3
  store i8 %19, i8* %20, align 1
  %21 = xor i64 %4, %3
  %22 = trunc i64 %21 to i32
  %23 = xor i32 %22, %8
  %24 = lshr i32 %23, 4
  %25 = trunc i32 %24 to i8
  %26 = and i8 %25, 1
  %27 = getelementptr inbounds %struct.State, %struct.State* %1, i64 0, i32 2, i32 5
  store i8 %26, i8* %27, align 1
  %28 = icmp eq i32 %8, 0
  %29 = zext i1 %28 to i8
  %30 = getelementptr inbounds %struct.State, %struct.State* %1, i64 0, i32 2, i32 7
  store i8 %29, i8* %30, align 1
  %31 = lshr i32 %8, 31
  %32 = trunc i32 %31 to i8
  %33 = getelementptr inbounds %struct.State, %struct.State* %1, i64 0, i32 2, i32 9
  store i8 %32, i8* %33, align 1
  %34 = lshr i32 %6, 31
  %35 = lshr i32 %7, 31
  %36 = xor i32 %31, %34
  %37 = xor i32 %31, %35
  %38 = add   i32 %36, %37
  %39 = icmp eq i32 %38, 2
  %40 = zext i1 %39 to i8
  %41 = getelementptr inbounds %struct.State, %struct.State* %1, i64 0, i32 2, i32 13
  store i8 %40, i8* %41, align 1
  ret %struct.Memory* %0
}

define %struct.Memory* @routine_addl__0x1___eax(%struct.State*  dereferenceable(3376), i64, %struct.Memory* ) #19 {
block_400488:
  %3 = getelementptr inbounds %struct.State, %struct.State* %0, i32 0, i32 6
  %4 = getelementptr inbounds %struct.GPR, %struct.GPR* %3, i32 0, i32 33
  %5 = getelementptr inbounds %struct.Reg, %struct.Reg* %4, i32 0, i32 0
  %PC = bitcast %union.anon* %5 to i64*
  %6 = getelementptr inbounds %struct.State, %struct.State* %0, i32 0, i32 6
  %7 = getelementptr inbounds %struct.GPR, %struct.GPR* %6, i32 0, i32 1
  %8 = getelementptr inbounds %struct.Reg, %struct.Reg* %7, i32 0, i32 0
  %RAX = bitcast %union.anon* %8 to i64*
  %9 = load i64, i64* %RAX
  %10 = load i64, i64* %PC
  %11 = add i64 %10, 3
  store i64 %11, i64* %PC
  %12 = call %struct.Memory* @_ZN12_GLOBAL__N_1L3ADDI3RnWImE2RnIjE2InIjEEEP6MemoryS8_R5StateT_T0_T1_(%struct.Memory* %2, %struct.State* %0, i64* %RAX, i64 %9, i64 1)
  ret %struct.Memory* %12
}


define %struct.Memory* @routine_movl__eax__MINUS0x20__rbp_(%struct.State*  dereferenceable(3376), i64, %struct.Memory* ) #19 {
block_400488:
  %3 = getelementptr inbounds %struct.State, %struct.State* %0, i32 0, i32 6
  %4 = getelementptr inbounds %struct.GPR, %struct.GPR* %3, i32 0, i32 33
  %5 = getelementptr inbounds %struct.Reg, %struct.Reg* %4, i32 0, i32 0
  %PC = bitcast %union.anon* %5 to i64*
  %6 = getelementptr inbounds %struct.State, %struct.State* %0, i32 0, i32 6
  %7 = getelementptr inbounds %struct.GPR, %struct.GPR* %6, i32 0, i32 1
  %8 = getelementptr inbounds %struct.Reg, %struct.Reg* %7, i32 0, i32 0
  %EAX = bitcast %union.anon* %8 to i32*
  %9 = getelementptr inbounds %struct.State, %struct.State* %0, i32 0, i32 6
  %10 = getelementptr inbounds %struct.GPR, %struct.GPR* %9, i32 0, i32 15
  %11 = getelementptr inbounds %struct.Reg, %struct.Reg* %10, i32 0, i32 0
  %RBP = bitcast %union.anon* %11 to i64*
  %12 = load i64, i64* %RBP
  %13 = sub i64 %12, 32
  %14 = load i32, i32* %EAX
  %15 = zext i32 %14 to i64
  %16 = load i64, i64* %PC
  %17 = add i64 %16, 3
  store i64 %17, i64* %PC
  %18 = call %struct.Memory* @_ZN12_GLOBAL__N_1L3MOVI3MnWIjE2RnIjEEEP6MemoryS6_R5StateT_T0_(%struct.Memory* %2, %struct.State* %0, i64 %13, i64 %15)
  ret %struct.Memory* %18
}

define internal %struct.Memory* @_ZN12_GLOBAL__N_1L3JMPI2InImEEEP6MemoryS4_R5StateT_(%struct.Memory* readnone returned, %struct.State* nocapture dereferenceable(3376), i64) #2 {
  %4 = getelementptr inbounds %struct.State, %struct.State* %1, i64 0, i32 6, i32 33, i32 0, i32 0
  store i64 %2, i64* %4, align 8
  ret %struct.Memory* %0
}

define %struct.Memory* @routine_jmpq_.L_400d83(%struct.State*  dereferenceable(3376), i64, %struct.Memory*, i64 %rel_off1, i64 %rel_off2) {
block_400488:
  %3 = getelementptr inbounds %struct.State, %struct.State* %0, i32 0, i32 6
  %4 = getelementptr inbounds %struct.GPR, %struct.GPR* %3, i32 0, i32 33
  %5 = getelementptr inbounds %struct.Reg, %struct.Reg* %4, i32 0, i32 0
  %PC = bitcast %union.anon* %5 to i64*
  %6 = load i64, i64* %PC
  %7 = add i64 %6, %rel_off1
  %8 = load i64, i64* %PC
  %9 = add i64 %8, %rel_off2
  store i64 %9, i64* %PC
  %10 = call %struct.Memory* @_ZN12_GLOBAL__N_1L3JMPI2InImEEEP6MemoryS4_R5StateT_(%struct.Memory* %2, %struct.State* %0, i64 %7)
  ret %struct.Memory* %10
}


define %struct.Memory* @routine_movsd_0x550__rip____xmm0(%struct.State*  dereferenceable(3376), i64, %struct.Memory* ) #19 {
block_400488:
  %3 = getelementptr inbounds %struct.State, %struct.State* %0, i32 0, i32 6
  %4 = getelementptr inbounds %struct.GPR, %struct.GPR* %3, i32 0, i32 33
  %5 = getelementptr inbounds %struct.Reg, %struct.Reg* %4, i32 0, i32 0
  %PC = bitcast %union.anon* %5 to i64*
  %6 = getelementptr inbounds %struct.State, %struct.State* %0, i32 0, i32 1
  %7 = getelementptr inbounds [32 x %union.VectorReg], [32 x %union.VectorReg]* %6, i64 0, i64 0
  %YMM0 = bitcast %union.VectorReg* %7 to %"class.std::bitset"*
  %8 = bitcast %"class.std::bitset"* %YMM0 to i8*
  %9 = load i64, i64* %PC
  %10 = add i64 %9, 1368
  %11 = load i64, i64* %PC
  %12 = add i64 %11, 8
  store i64 %12, i64* %PC
  %13 = call %struct.Memory* @_ZN12_GLOBAL__N_1L9MOVSD_MEMI3VnWI8vec128_tE3MVnI7vec64_tEEEP6MemoryS8_R5StateT_T0_(%struct.Memory* %2, %struct.State* %0, i8* %8, i64 %10)
  ret %struct.Memory* %13
}


define %struct.Memory* @routine_movsd_MINUS0x30__rbp____xmm1(%struct.State*  dereferenceable(3376), i64, %struct.Memory* ) #19 {
block_400488:
  %3 = getelementptr inbounds %struct.State, %struct.State* %0, i32 0, i32 6
  %4 = getelementptr inbounds %struct.GPR, %struct.GPR* %3, i32 0, i32 33
  %5 = getelementptr inbounds %struct.Reg, %struct.Reg* %4, i32 0, i32 0
  %PC = bitcast %union.anon* %5 to i64*
  %6 = getelementptr inbounds %struct.State, %struct.State* %0, i32 0, i32 6
  %7 = getelementptr inbounds %struct.GPR, %struct.GPR* %6, i32 0, i32 15
  %8 = getelementptr inbounds %struct.Reg, %struct.Reg* %7, i32 0, i32 0
  %RBP = bitcast %union.anon* %8 to i64*
  %9 = getelementptr inbounds %struct.State, %struct.State* %0, i32 0, i32 1
  %10 = getelementptr inbounds [32 x %union.VectorReg], [32 x %union.VectorReg]* %9, i64 0, i64 1
  %YMM1 = bitcast %union.VectorReg* %10 to %"class.std::bitset"*
  %11 = bitcast %"class.std::bitset"* %YMM1 to i8*
  %12 = load i64, i64* %RBP
  %13 = sub i64 %12, 48
  %14 = load i64, i64* %PC
  %15 = add i64 %14, 5
  store i64 %15, i64* %PC
  %16 = call %struct.Memory* @_ZN12_GLOBAL__N_1L9MOVSD_MEMI3VnWI8vec128_tE3MVnI7vec64_tEEEP6MemoryS8_R5StateT_T0_(%struct.Memory* %2, %struct.State* %0, i8* %11, i64 %13)
  ret %struct.Memory* %16
}


define %struct.Memory* @routine_movsd__xmm0__MINUS0x38__rbp_(%struct.State*  dereferenceable(3376), i64, %struct.Memory* ) #19 {
block_400488:
  %3 = getelementptr inbounds %struct.State, %struct.State* %0, i32 0, i32 6
  %4 = getelementptr inbounds %struct.GPR, %struct.GPR* %3, i32 0, i32 33
  %5 = getelementptr inbounds %struct.Reg, %struct.Reg* %4, i32 0, i32 0
  %PC = bitcast %union.anon* %5 to i64*
  %6 = getelementptr inbounds %struct.State, %struct.State* %0, i32 0, i32 6
  %7 = getelementptr inbounds %struct.GPR, %struct.GPR* %6, i32 0, i32 15
  %8 = getelementptr inbounds %struct.Reg, %struct.Reg* %7, i32 0, i32 0
  %RBP = bitcast %union.anon* %8 to i64*
  %9 = getelementptr inbounds %struct.State, %struct.State* %0, i32 0, i32 1
  %10 = getelementptr inbounds [32 x %union.VectorReg], [32 x %union.VectorReg]* %9, i64 0, i64 0
  %XMM0 = bitcast %union.VectorReg* %10 to %union.vec128_t*
  %11 = load i64, i64* %RBP
  %12 = sub i64 %11, 56
  %13 = bitcast %union.vec128_t* %XMM0 to i8*
  %14 = load i64, i64* %PC
  %15 = add i64 %14, 5
  store i64 %15, i64* %PC
  %16 = call %struct.Memory* @_ZN12_GLOBAL__N_1L9MOVSD_MEMI4MVnWI7vec64_tE2VnI8vec128_tEEEP6MemoryS8_R5StateT_T0_(%struct.Memory* %2, %struct.State* %0, i64 %12, i8* %13)
  ret %struct.Memory* %16
}

define internal %struct.Memory* @_ZN12_GLOBAL__N_1L6MOVxPSI3VnWI8vec128_tE2VnIS2_EEEP6MemoryS7_R5StateT_T0_(%struct.Memory* readnone returned, %struct.State* nocapture readnone dereferenceable(3376), i8* nocapture, i8* nocapture readonly) #0 {
  %5 = bitcast i8* %3 to <2 x i32>*
  %6 = load <2 x i32>, <2 x i32>* %5, align 1
  %7 = getelementptr inbounds i8, i8* %3, i64 8
  %8 = bitcast i8* %7 to <2 x i32>*
  %9 = load <2 x i32>, <2 x i32>* %8, align 1
  %10 = extractelement <2 x i32> %6, i32 0
  %11 = bitcast i8* %2 to i32*
  store i32 %10, i32* %11, align 1
  %12 = extractelement <2 x i32> %6, i32 1
  %13 = getelementptr inbounds i8, i8* %2, i64 4
  %14 = bitcast i8* %13 to i32*
  store i32 %12, i32* %14, align 1
  %15 = extractelement <2 x i32> %9, i32 0
  %16 = getelementptr inbounds i8, i8* %2, i64 8
  %17 = bitcast i8* %16 to i32*
  store i32 %15, i32* %17, align 1
  %18 = extractelement <2 x i32> %9, i32 1
  %19 = getelementptr inbounds i8, i8* %2, i64 12
  %20 = bitcast i8* %19 to i32*
  store i32 %18, i32* %20, align 1
  ret %struct.Memory* %0
}

define %struct.Memory* @routine_movaps__xmm1___xmm0(%struct.State*  dereferenceable(3376), i64, %struct.Memory* ) #19 {
block_400488:
  %3 = getelementptr inbounds %struct.State, %struct.State* %0, i32 0, i32 6
  %4 = getelementptr inbounds %struct.GPR, %struct.GPR* %3, i32 0, i32 33
  %5 = getelementptr inbounds %struct.Reg, %struct.Reg* %4, i32 0, i32 0
  %PC = bitcast %union.anon* %5 to i64*
  %6 = getelementptr inbounds %struct.State, %struct.State* %0, i32 0, i32 1
  %7 = getelementptr inbounds [32 x %union.VectorReg], [32 x %union.VectorReg]* %6, i64 0, i64 0
  %YMM0 = bitcast %union.VectorReg* %7 to %"class.std::bitset"*
  %8 = getelementptr inbounds %struct.State, %struct.State* %0, i32 0, i32 1
  %9 = getelementptr inbounds [32 x %union.VectorReg], [32 x %union.VectorReg]* %8, i64 0, i64 1
  %XMM1 = bitcast %union.VectorReg* %9 to %union.vec128_t*
  %10 = bitcast %"class.std::bitset"* %YMM0 to i8*
  %11 = bitcast %union.vec128_t* %XMM1 to i8*
  %12 = load i64, i64* %PC
  %13 = add i64 %12, 3
  store i64 %13, i64* %PC
  %14 = call %struct.Memory* @_ZN12_GLOBAL__N_1L6MOVxPSI3VnWI8vec128_tE2VnIS2_EEEP6MemoryS7_R5StateT_T0_(%struct.Memory* %2, %struct.State* %0, i8* %10, i8* %11)
  ret %struct.Memory* %14
}

define internal %struct.Memory* @_ZN12_GLOBAL__N_1L4CALLI2InImEEEP6MemoryS4_R5StateT_S2_(%struct.Memory* readnone, %struct.State* nocapture dereferenceable(3376), i64, i64) #0 {
  %5 = getelementptr inbounds %struct.State, %struct.State* %1, i64 0, i32 6, i32 13, i32 0, i32 0
  %6 = load i64, i64* %5, align 8
  %7 = add i64 %6, -8
  %8 = inttoptr i64 %7 to i64*
  store i64 %3, i64* %8
  store i64 %7, i64* %5, align 8
  %9 = getelementptr inbounds %struct.State, %struct.State* %1, i64 0, i32 6, i32 33, i32 0, i32 0
  store i64 %2, i64* %9, align 8
  ret %struct.Memory* %0
}

define %struct.Memory* @routine_callq_.sqrt_plt(%struct.State*  dereferenceable(3376), i64, %struct.Memory*, i64 %rel_off1, i64 %rel_off2, i64 %rel_off3) {
block_400488:
  %3 = getelementptr inbounds %struct.State, %struct.State* %0, i32 0, i32 6
  %4 = getelementptr inbounds %struct.GPR, %struct.GPR* %3, i32 0, i32 33
  %5 = getelementptr inbounds %struct.Reg, %struct.Reg* %4, i32 0, i32 0
  %PC = bitcast %union.anon* %5 to i64*
  %6 = load i64, i64* %PC
  %7 = add i64 %6, %rel_off1
  %8 = load i64, i64* %PC
  %9 = add i64 %8, %rel_off2
  %10 = load i64, i64* %PC
  %11 = add i64 %10, %rel_off3
  store i64 %11, i64* %PC
  %12 = call %struct.Memory* @_ZN12_GLOBAL__N_1L4CALLI2InImEEEP6MemoryS4_R5StateT_S2_(%struct.Memory* %2, %struct.State* %0, i64 %7, i64 %9)
  ret %struct.Memory* %12
}


define %struct.Memory* @routine_movsd_MINUS0x38__rbp____xmm1(%struct.State*  dereferenceable(3376), i64, %struct.Memory* ) #19 {
block_400488:
  %3 = getelementptr inbounds %struct.State, %struct.State* %0, i32 0, i32 6
  %4 = getelementptr inbounds %struct.GPR, %struct.GPR* %3, i32 0, i32 33
  %5 = getelementptr inbounds %struct.Reg, %struct.Reg* %4, i32 0, i32 0
  %PC = bitcast %union.anon* %5 to i64*
  %6 = getelementptr inbounds %struct.State, %struct.State* %0, i32 0, i32 6
  %7 = getelementptr inbounds %struct.GPR, %struct.GPR* %6, i32 0, i32 15
  %8 = getelementptr inbounds %struct.Reg, %struct.Reg* %7, i32 0, i32 0
  %RBP = bitcast %union.anon* %8 to i64*
  %9 = getelementptr inbounds %struct.State, %struct.State* %0, i32 0, i32 1
  %10 = getelementptr inbounds [32 x %union.VectorReg], [32 x %union.VectorReg]* %9, i64 0, i64 1
  %YMM1 = bitcast %union.VectorReg* %10 to %"class.std::bitset"*
  %11 = bitcast %"class.std::bitset"* %YMM1 to i8*
  %12 = load i64, i64* %RBP
  %13 = sub i64 %12, 56
  %14 = load i64, i64* %PC
  %15 = add i64 %14, 5
  store i64 %15, i64* %PC
  %16 = call %struct.Memory* @_ZN12_GLOBAL__N_1L9MOVSD_MEMI3VnWI8vec128_tE3MVnI7vec64_tEEEP6MemoryS8_R5StateT_T0_(%struct.Memory* %2, %struct.State* %0, i8* %11, i64 %13)
  ret %struct.Memory* %16
}

define internal %struct.Memory* @_ZN12_GLOBAL__N_1L5DIVSDI3VnWI8vec128_tE2VnIS2_ES5_EEP6MemoryS7_R5StateT_T0_T1_(%struct.Memory* readnone returned, %struct.State* nocapture readnone dereferenceable(3376), i8* nocapture, i8* nocapture readonly, i8* nocapture readonly) #0 {
  %6 = bitcast i8* %3 to double*
  %7 = load double, double* %6, align 1
  %8 = getelementptr inbounds i8, i8* %3, i64 8
  %9 = bitcast i8* %8 to i64*
  %10 = load i64, i64* %9, align 1
  %11 = bitcast i8* %4 to double*
  %12 = load double, double* %11, align 1
  %13 = fdiv double %7, %12
  %14 = bitcast i8* %2 to double*
  store double %13, double* %14, align 1
  %15 = getelementptr inbounds i8, i8* %2, i64 8
  %16 = bitcast i8* %15 to i64*
  store i64 %10, i64* %16, align 1
  ret %struct.Memory* %0
}

define %struct.Memory* @routine_divsd__xmm0___xmm1(%struct.State*  dereferenceable(3376), i64, %struct.Memory* ) #19 {
block_400488:
  %3 = getelementptr inbounds %struct.State, %struct.State* %0, i32 0, i32 6
  %4 = getelementptr inbounds %struct.GPR, %struct.GPR* %3, i32 0, i32 33
  %5 = getelementptr inbounds %struct.Reg, %struct.Reg* %4, i32 0, i32 0
  %PC = bitcast %union.anon* %5 to i64*
  %6 = getelementptr inbounds %struct.State, %struct.State* %0, i32 0, i32 1
  %7 = getelementptr inbounds [32 x %union.VectorReg], [32 x %union.VectorReg]* %6, i64 0, i64 1
  %YMM1 = bitcast %union.VectorReg* %7 to %"class.std::bitset"*
  %8 = getelementptr inbounds %struct.State, %struct.State* %0, i32 0, i32 1
  %9 = getelementptr inbounds [32 x %union.VectorReg], [32 x %union.VectorReg]* %8, i64 0, i64 0
  %XMM0 = bitcast %union.VectorReg* %9 to %union.vec128_t*
  %10 = bitcast %"class.std::bitset"* %YMM1 to i8*
  %11 = bitcast %"class.std::bitset"* %YMM1 to i8*
  %12 = bitcast %union.vec128_t* %XMM0 to i8*
  %13 = load i64, i64* %PC
  %14 = add i64 %13, 4
  store i64 %14, i64* %PC
  %15 = call %struct.Memory* @_ZN12_GLOBAL__N_1L5DIVSDI3VnWI8vec128_tE2VnIS2_ES5_EEP6MemoryS7_R5StateT_T0_T1_(%struct.Memory* %2, %struct.State* %0, i8* %10, i8* %11, i8* %12)
  ret %struct.Memory* %15
}


define %struct.Memory* @routine_movq_MINUS0x10__rbp____rax(%struct.State*  dereferenceable(3376), i64, %struct.Memory* ) #19 {
block_400488:
  %3 = getelementptr inbounds %struct.State, %struct.State* %0, i32 0, i32 6
  %4 = getelementptr inbounds %struct.GPR, %struct.GPR* %3, i32 0, i32 33
  %5 = getelementptr inbounds %struct.Reg, %struct.Reg* %4, i32 0, i32 0
  %PC = bitcast %union.anon* %5 to i64*
  %6 = getelementptr inbounds %struct.State, %struct.State* %0, i32 0, i32 6
  %7 = getelementptr inbounds %struct.GPR, %struct.GPR* %6, i32 0, i32 1
  %8 = getelementptr inbounds %struct.Reg, %struct.Reg* %7, i32 0, i32 0
  %RAX = bitcast %union.anon* %8 to i64*
  %9 = getelementptr inbounds %struct.State, %struct.State* %0, i32 0, i32 6
  %10 = getelementptr inbounds %struct.GPR, %struct.GPR* %9, i32 0, i32 15
  %11 = getelementptr inbounds %struct.Reg, %struct.Reg* %10, i32 0, i32 0
  %RBP = bitcast %union.anon* %11 to i64*
  %12 = load i64, i64* %RBP
  %13 = sub i64 %12, 16
  %14 = load i64, i64* %PC
  %15 = add i64 %14, 4
  store i64 %15, i64* %PC
  %16 = call %struct.Memory* @_ZN12_GLOBAL__N_1L3MOVI3RnWImE2MnImEEEP6MemoryS6_R5StateT_T0_(%struct.Memory* %2, %struct.State* %0, i64* %RAX, i64 %13)
  ret %struct.Memory* %16
}




define %struct.Memory* @routine_movsd__xmm1____rax__rcx_8_(%struct.State*  dereferenceable(3376), i64, %struct.Memory* ) #19 {
block_400488:
  %3 = getelementptr inbounds %struct.State, %struct.State* %0, i32 0, i32 6
  %4 = getelementptr inbounds %struct.GPR, %struct.GPR* %3, i32 0, i32 33
  %5 = getelementptr inbounds %struct.Reg, %struct.Reg* %4, i32 0, i32 0
  %PC = bitcast %union.anon* %5 to i64*
  %6 = getelementptr inbounds %struct.State, %struct.State* %0, i32 0, i32 6
  %7 = getelementptr inbounds %struct.GPR, %struct.GPR* %6, i32 0, i32 1
  %8 = getelementptr inbounds %struct.Reg, %struct.Reg* %7, i32 0, i32 0
  %RAX = bitcast %union.anon* %8 to i64*
  %9 = getelementptr inbounds %struct.State, %struct.State* %0, i32 0, i32 6
  %10 = getelementptr inbounds %struct.GPR, %struct.GPR* %9, i32 0, i32 5
  %11 = getelementptr inbounds %struct.Reg, %struct.Reg* %10, i32 0, i32 0
  %RCX = bitcast %union.anon* %11 to i64*
  %12 = getelementptr inbounds %struct.State, %struct.State* %0, i32 0, i32 1
  %13 = getelementptr inbounds [32 x %union.VectorReg], [32 x %union.VectorReg]* %12, i64 0, i64 1
  %XMM1 = bitcast %union.VectorReg* %13 to %union.vec128_t*
  %14 = load i64, i64* %RAX
  %15 = load i64, i64* %RCX
  %16 = mul i64 %15, 8
  %17 = add i64 %16, %14
  %18 = bitcast %union.vec128_t* %XMM1 to i8*
  %19 = load i64, i64* %PC
  %20 = add i64 %19, 5
  store i64 %20, i64* %PC
  %21 = call %struct.Memory* @_ZN12_GLOBAL__N_1L9MOVSD_MEMI4MVnWI7vec64_tE2VnI8vec128_tEEEP6MemoryS8_R5StateT_T0_(%struct.Memory* %2, %struct.State* %0, i64 %17, i8* %18)
  ret %struct.Memory* %21
}


define %struct.Memory* @routine_movl_MINUS0x1c__rbp____edx(%struct.State*  dereferenceable(3376), i64, %struct.Memory* ) #19 {
block_400488:
  %3 = getelementptr inbounds %struct.State, %struct.State* %0, i32 0, i32 6
  %4 = getelementptr inbounds %struct.GPR, %struct.GPR* %3, i32 0, i32 33
  %5 = getelementptr inbounds %struct.Reg, %struct.Reg* %4, i32 0, i32 0
  %PC = bitcast %union.anon* %5 to i64*
  %6 = getelementptr inbounds %struct.State, %struct.State* %0, i32 0, i32 6
  %7 = getelementptr inbounds %struct.GPR, %struct.GPR* %6, i32 0, i32 7
  %8 = getelementptr inbounds %struct.Reg, %struct.Reg* %7, i32 0, i32 0
  %RDX = bitcast %union.anon* %8 to i64*
  %9 = getelementptr inbounds %struct.State, %struct.State* %0, i32 0, i32 6
  %10 = getelementptr inbounds %struct.GPR, %struct.GPR* %9, i32 0, i32 15
  %11 = getelementptr inbounds %struct.Reg, %struct.Reg* %10, i32 0, i32 0
  %RBP = bitcast %union.anon* %11 to i64*
  %12 = load i64, i64* %RBP
  %13 = sub i64 %12, 28
  %14 = load i64, i64* %PC
  %15 = add i64 %14, 3
  store i64 %15, i64* %PC
  %16 = call %struct.Memory* @_ZN12_GLOBAL__N_1L3MOVI3RnWImE2MnIjEEEP6MemoryS6_R5StateT_T0_(%struct.Memory* %2, %struct.State* %0, i64* %RDX, i64 %13)
  ret %struct.Memory* %16
}


define %struct.Memory* @routine_addl__0x1___edx(%struct.State*  dereferenceable(3376), i64, %struct.Memory* ) #19 {
block_400488:
  %3 = getelementptr inbounds %struct.State, %struct.State* %0, i32 0, i32 6
  %4 = getelementptr inbounds %struct.GPR, %struct.GPR* %3, i32 0, i32 33
  %5 = getelementptr inbounds %struct.Reg, %struct.Reg* %4, i32 0, i32 0
  %PC = bitcast %union.anon* %5 to i64*
  %6 = getelementptr inbounds %struct.State, %struct.State* %0, i32 0, i32 6
  %7 = getelementptr inbounds %struct.GPR, %struct.GPR* %6, i32 0, i32 7
  %8 = getelementptr inbounds %struct.Reg, %struct.Reg* %7, i32 0, i32 0
  %RDX = bitcast %union.anon* %8 to i64*
  %9 = load i64, i64* %RDX
  %10 = load i64, i64* %PC
  %11 = add i64 %10, 3
  store i64 %11, i64* %PC
  %12 = call %struct.Memory* @_ZN12_GLOBAL__N_1L3ADDI3RnWImE2RnIjE2InIjEEEP6MemoryS8_R5StateT_T0_T1_(%struct.Memory* %2, %struct.State* %0, i64* %RDX, i64 %9, i64 1)
  ret %struct.Memory* %12
}


define %struct.Memory* @routine_movl__edx__MINUS0x20__rbp_(%struct.State*  dereferenceable(3376), i64, %struct.Memory* ) #19 {
block_400488:
  %3 = getelementptr inbounds %struct.State, %struct.State* %0, i32 0, i32 6
  %4 = getelementptr inbounds %struct.GPR, %struct.GPR* %3, i32 0, i32 33
  %5 = getelementptr inbounds %struct.Reg, %struct.Reg* %4, i32 0, i32 0
  %PC = bitcast %union.anon* %5 to i64*
  %6 = getelementptr inbounds %struct.State, %struct.State* %0, i32 0, i32 6
  %7 = getelementptr inbounds %struct.GPR, %struct.GPR* %6, i32 0, i32 7
  %8 = getelementptr inbounds %struct.Reg, %struct.Reg* %7, i32 0, i32 0
  %EDX = bitcast %union.anon* %8 to i32*
  %9 = getelementptr inbounds %struct.State, %struct.State* %0, i32 0, i32 6
  %10 = getelementptr inbounds %struct.GPR, %struct.GPR* %9, i32 0, i32 15
  %11 = getelementptr inbounds %struct.Reg, %struct.Reg* %10, i32 0, i32 0
  %RBP = bitcast %union.anon* %11 to i64*
  %12 = load i64, i64* %RBP
  %13 = sub i64 %12, 32
  %14 = load i32, i32* %EDX
  %15 = zext i32 %14 to i64
  %16 = load i64, i64* %PC
  %17 = add i64 %16, 3
  store i64 %17, i64* %PC
  %18 = call %struct.Memory* @_ZN12_GLOBAL__N_1L3MOVI3MnWIjE2RnIjEEEP6MemoryS6_R5StateT_T0_(%struct.Memory* %2, %struct.State* %0, i64 %13, i64 %15)
  ret %struct.Memory* %18
}






define %struct.Memory* @routine_jge_.L_400ede(%struct.State*  dereferenceable(3376), i64, %struct.Memory*, i8* %BRANCH_TAKEN, i64 %rel_off1, i64 %rel_off2, i64 %rel_off3) {
block_400488:
  %3 = getelementptr inbounds %struct.State, %struct.State* %0, i32 0, i32 6
  %4 = getelementptr inbounds %struct.GPR, %struct.GPR* %3, i32 0, i32 33
  %5 = getelementptr inbounds %struct.Reg, %struct.Reg* %4, i32 0, i32 0
  %PC = bitcast %union.anon* %5 to i64*
  %6 = load i64, i64* %PC
  %7 = add i64 %6, %rel_off1
  %8 = load i64, i64* %PC
  %9 = add i64 %8, %rel_off2
  %10 = load i64, i64* %PC
  %11 = add i64 %10, %rel_off3
  store i64 %11, i64* %PC
  %12 = call %struct.Memory* @_ZN12_GLOBAL__N_1L3JNLEP6MemoryR5State3RnWIhE2InImES7_(%struct.Memory* %2, %struct.State* %0, i8* %BRANCH_TAKEN, i64 %7, i64 %9)
  ret %struct.Memory* %12
}
















define %struct.Memory* @routine_movl__0x0__MINUS0x24__rbp_(%struct.State*  dereferenceable(3376), i64, %struct.Memory* ) #19 {
block_400488:
  %3 = getelementptr inbounds %struct.State, %struct.State* %0, i32 0, i32 6
  %4 = getelementptr inbounds %struct.GPR, %struct.GPR* %3, i32 0, i32 33
  %5 = getelementptr inbounds %struct.Reg, %struct.Reg* %4, i32 0, i32 0
  %PC = bitcast %union.anon* %5 to i64*
  %6 = getelementptr inbounds %struct.State, %struct.State* %0, i32 0, i32 6
  %7 = getelementptr inbounds %struct.GPR, %struct.GPR* %6, i32 0, i32 15
  %8 = getelementptr inbounds %struct.Reg, %struct.Reg* %7, i32 0, i32 0
  %RBP = bitcast %union.anon* %8 to i64*
  %9 = load i64, i64* %RBP
  %10 = sub i64 %9, 36
  %11 = load i64, i64* %PC
  %12 = add i64 %11, 7
  store i64 %12, i64* %PC
  %13 = call %struct.Memory* @_ZN12_GLOBAL__N_1L3MOVI3MnWIjE2InIjEEEP6MemoryS6_R5StateT_T0_(%struct.Memory* %2, %struct.State* %0, i64 %10, i64 0)
  ret %struct.Memory* %13
}


define %struct.Memory* @routine_movl_MINUS0x24__rbp____eax(%struct.State*  dereferenceable(3376), i64, %struct.Memory* ) #19 {
block_400488:
  %3 = getelementptr inbounds %struct.State, %struct.State* %0, i32 0, i32 6
  %4 = getelementptr inbounds %struct.GPR, %struct.GPR* %3, i32 0, i32 33
  %5 = getelementptr inbounds %struct.Reg, %struct.Reg* %4, i32 0, i32 0
  %PC = bitcast %union.anon* %5 to i64*
  %6 = getelementptr inbounds %struct.State, %struct.State* %0, i32 0, i32 6
  %7 = getelementptr inbounds %struct.GPR, %struct.GPR* %6, i32 0, i32 1
  %8 = getelementptr inbounds %struct.Reg, %struct.Reg* %7, i32 0, i32 0
  %RAX = bitcast %union.anon* %8 to i64*
  %9 = getelementptr inbounds %struct.State, %struct.State* %0, i32 0, i32 6
  %10 = getelementptr inbounds %struct.GPR, %struct.GPR* %9, i32 0, i32 15
  %11 = getelementptr inbounds %struct.Reg, %struct.Reg* %10, i32 0, i32 0
  %RBP = bitcast %union.anon* %11 to i64*
  %12 = load i64, i64* %RBP
  %13 = sub i64 %12, 36
  %14 = load i64, i64* %PC
  %15 = add i64 %14, 3
  store i64 %15, i64* %PC
  %16 = call %struct.Memory* @_ZN12_GLOBAL__N_1L3MOVI3RnWImE2MnIjEEEP6MemoryS6_R5StateT_T0_(%struct.Memory* %2, %struct.State* %0, i64* %RAX, i64 %13)
  ret %struct.Memory* %16
}








define %struct.Memory* @routine_jg_.L_400ea6(%struct.State*  dereferenceable(3376), i64, %struct.Memory*, i8* %BRANCH_TAKEN, i64 %rel_off1, i64 %rel_off2, i64 %rel_off3) {
block_400488:
  %3 = getelementptr inbounds %struct.State, %struct.State* %0, i32 0, i32 6
  %4 = getelementptr inbounds %struct.GPR, %struct.GPR* %3, i32 0, i32 33
  %5 = getelementptr inbounds %struct.Reg, %struct.Reg* %4, i32 0, i32 0
  %PC = bitcast %union.anon* %5 to i64*
  %6 = load i64, i64* %PC
  %7 = add i64 %6, %rel_off1
  %8 = load i64, i64* %PC
  %9 = add i64 %8, %rel_off2
  %10 = load i64, i64* %PC
  %11 = add i64 %10, %rel_off3
  store i64 %11, i64* %PC
  %12 = call %struct.Memory* @_ZN12_GLOBAL__N_1L4JNLEEP6MemoryR5State3RnWIhE2InImES7_(%struct.Memory* %2, %struct.State* %0, i8* %BRANCH_TAKEN, i64 %7, i64 %9)
  ret %struct.Memory* %12
}












define %struct.Memory* @routine_movslq_MINUS0x24__rbp____rcx(%struct.State*  dereferenceable(3376), i64, %struct.Memory* ) #19 {
block_400488:
  %3 = getelementptr inbounds %struct.State, %struct.State* %0, i32 0, i32 6
  %4 = getelementptr inbounds %struct.GPR, %struct.GPR* %3, i32 0, i32 33
  %5 = getelementptr inbounds %struct.Reg, %struct.Reg* %4, i32 0, i32 0
  %PC = bitcast %union.anon* %5 to i64*
  %6 = getelementptr inbounds %struct.State, %struct.State* %0, i32 0, i32 6
  %7 = getelementptr inbounds %struct.GPR, %struct.GPR* %6, i32 0, i32 5
  %8 = getelementptr inbounds %struct.Reg, %struct.Reg* %7, i32 0, i32 0
  %RCX = bitcast %union.anon* %8 to i64*
  %9 = getelementptr inbounds %struct.State, %struct.State* %0, i32 0, i32 6
  %10 = getelementptr inbounds %struct.GPR, %struct.GPR* %9, i32 0, i32 15
  %11 = getelementptr inbounds %struct.Reg, %struct.Reg* %10, i32 0, i32 0
  %RBP = bitcast %union.anon* %11 to i64*
  %12 = load i64, i64* %RBP
  %13 = sub i64 %12, 36
  %14 = load i64, i64* %PC
  %15 = add i64 %14, 4
  store i64 %15, i64* %PC
  %16 = call %struct.Memory* @_ZN12_GLOBAL__N_1L5MOVSXI3RnWImE2MnIjElEEP6MemoryS6_R5StateT_T0_(%struct.Memory* %2, %struct.State* %0, i64* %RCX, i64 %13)
  ret %struct.Memory* %16
}
























define %struct.Memory* @routine_movl__eax__MINUS0x24__rbp_(%struct.State*  dereferenceable(3376), i64, %struct.Memory* ) #19 {
block_400488:
  %3 = getelementptr inbounds %struct.State, %struct.State* %0, i32 0, i32 6
  %4 = getelementptr inbounds %struct.GPR, %struct.GPR* %3, i32 0, i32 33
  %5 = getelementptr inbounds %struct.Reg, %struct.Reg* %4, i32 0, i32 0
  %PC = bitcast %union.anon* %5 to i64*
  %6 = getelementptr inbounds %struct.State, %struct.State* %0, i32 0, i32 6
  %7 = getelementptr inbounds %struct.GPR, %struct.GPR* %6, i32 0, i32 1
  %8 = getelementptr inbounds %struct.Reg, %struct.Reg* %7, i32 0, i32 0
  %EAX = bitcast %union.anon* %8 to i32*
  %9 = getelementptr inbounds %struct.State, %struct.State* %0, i32 0, i32 6
  %10 = getelementptr inbounds %struct.GPR, %struct.GPR* %9, i32 0, i32 15
  %11 = getelementptr inbounds %struct.Reg, %struct.Reg* %10, i32 0, i32 0
  %RBP = bitcast %union.anon* %11 to i64*
  %12 = load i64, i64* %RBP
  %13 = sub i64 %12, 36
  %14 = load i32, i32* %EAX
  %15 = zext i32 %14 to i64
  %16 = load i64, i64* %PC
  %17 = add i64 %16, 3
  store i64 %17, i64* %PC
  %18 = call %struct.Memory* @_ZN12_GLOBAL__N_1L3MOVI3MnWIjE2RnIjEEEP6MemoryS6_R5StateT_T0_(%struct.Memory* %2, %struct.State* %0, i64 %13, i64 %15)
  ret %struct.Memory* %18
}


define %struct.Memory* @routine_jmpq_.L_400e49(%struct.State*  dereferenceable(3376), i64, %struct.Memory*, i64 %rel_off1, i64 %rel_off2) {
block_400488:
  %3 = getelementptr inbounds %struct.State, %struct.State* %0, i32 0, i32 6
  %4 = getelementptr inbounds %struct.GPR, %struct.GPR* %3, i32 0, i32 33
  %5 = getelementptr inbounds %struct.Reg, %struct.Reg* %4, i32 0, i32 0
  %PC = bitcast %union.anon* %5 to i64*
  %6 = load i64, i64* %PC
  %7 = add i64 %6, %rel_off1
  %8 = load i64, i64* %PC
  %9 = add i64 %8, %rel_off2
  store i64 %9, i64* %PC
  %10 = call %struct.Memory* @_ZN12_GLOBAL__N_1L3JMPI2InImEEEP6MemoryS4_R5StateT_(%struct.Memory* %2, %struct.State* %0, i64 %7)
  ret %struct.Memory* %10
}








define %struct.Memory* @routine_mulsd___rax__rcx_8____xmm0(%struct.State*  dereferenceable(3376), i64, %struct.Memory* ) #19 {
block_400488:
  %3 = getelementptr inbounds %struct.State, %struct.State* %0, i32 0, i32 6
  %4 = getelementptr inbounds %struct.GPR, %struct.GPR* %3, i32 0, i32 33
  %5 = getelementptr inbounds %struct.Reg, %struct.Reg* %4, i32 0, i32 0
  %PC = bitcast %union.anon* %5 to i64*
  %6 = getelementptr inbounds %struct.State, %struct.State* %0, i32 0, i32 6
  %7 = getelementptr inbounds %struct.GPR, %struct.GPR* %6, i32 0, i32 1
  %8 = getelementptr inbounds %struct.Reg, %struct.Reg* %7, i32 0, i32 0
  %RAX = bitcast %union.anon* %8 to i64*
  %9 = getelementptr inbounds %struct.State, %struct.State* %0, i32 0, i32 6
  %10 = getelementptr inbounds %struct.GPR, %struct.GPR* %9, i32 0, i32 5
  %11 = getelementptr inbounds %struct.Reg, %struct.Reg* %10, i32 0, i32 0
  %RCX = bitcast %union.anon* %11 to i64*
  %12 = getelementptr inbounds %struct.State, %struct.State* %0, i32 0, i32 1
  %13 = getelementptr inbounds [32 x %union.VectorReg], [32 x %union.VectorReg]* %12, i64 0, i64 0
  %YMM0 = bitcast %union.VectorReg* %13 to %"class.std::bitset"*
  %14 = bitcast %"class.std::bitset"* %YMM0 to i8*
  %15 = bitcast %"class.std::bitset"* %YMM0 to i8*
  %16 = load i64, i64* %RAX
  %17 = load i64, i64* %RCX
  %18 = mul i64 %17, 8
  %19 = add i64 %18, %16
  %20 = load i64, i64* %PC
  %21 = add i64 %20, 5
  store i64 %21, i64* %PC
  %22 = call %struct.Memory* @_ZN12_GLOBAL__N_1L5MULSDI3VnWI8vec128_tE2VnIS2_E3MVnIS2_EEEP6MemoryS9_R5StateT_T0_T1_(%struct.Memory* %2, %struct.State* %0, i8* %14, i8* %15, i64 %19)
  ret %struct.Memory* %22
}












define %struct.Memory* @routine_movsd__xmm0____rax__rcx_8_(%struct.State*  dereferenceable(3376), i64, %struct.Memory* ) #19 {
block_400488:
  %3 = getelementptr inbounds %struct.State, %struct.State* %0, i32 0, i32 6
  %4 = getelementptr inbounds %struct.GPR, %struct.GPR* %3, i32 0, i32 33
  %5 = getelementptr inbounds %struct.Reg, %struct.Reg* %4, i32 0, i32 0
  %PC = bitcast %union.anon* %5 to i64*
  %6 = getelementptr inbounds %struct.State, %struct.State* %0, i32 0, i32 6
  %7 = getelementptr inbounds %struct.GPR, %struct.GPR* %6, i32 0, i32 1
  %8 = getelementptr inbounds %struct.Reg, %struct.Reg* %7, i32 0, i32 0
  %RAX = bitcast %union.anon* %8 to i64*
  %9 = getelementptr inbounds %struct.State, %struct.State* %0, i32 0, i32 6
  %10 = getelementptr inbounds %struct.GPR, %struct.GPR* %9, i32 0, i32 5
  %11 = getelementptr inbounds %struct.Reg, %struct.Reg* %10, i32 0, i32 0
  %RCX = bitcast %union.anon* %11 to i64*
  %12 = getelementptr inbounds %struct.State, %struct.State* %0, i32 0, i32 1
  %13 = getelementptr inbounds [32 x %union.VectorReg], [32 x %union.VectorReg]* %12, i64 0, i64 0
  %XMM0 = bitcast %union.VectorReg* %13 to %union.vec128_t*
  %14 = load i64, i64* %RAX
  %15 = load i64, i64* %RCX
  %16 = mul i64 %15, 8
  %17 = add i64 %16, %14
  %18 = bitcast %union.vec128_t* %XMM0 to i8*
  %19 = load i64, i64* %PC
  %20 = add i64 %19, 5
  store i64 %20, i64* %PC
  %21 = call %struct.Memory* @_ZN12_GLOBAL__N_1L9MOVSD_MEMI4MVnWI7vec64_tE2VnI8vec128_tEEEP6MemoryS8_R5StateT_T0_(%struct.Memory* %2, %struct.State* %0, i64 %17, i8* %18)
  ret %struct.Memory* %21
}








define %struct.Memory* @routine_jmpq_.L_400e19(%struct.State*  dereferenceable(3376), i64, %struct.Memory*, i64 %rel_off1, i64 %rel_off2) {
block_400488:
  %3 = getelementptr inbounds %struct.State, %struct.State* %0, i32 0, i32 6
  %4 = getelementptr inbounds %struct.GPR, %struct.GPR* %3, i32 0, i32 33
  %5 = getelementptr inbounds %struct.Reg, %struct.Reg* %4, i32 0, i32 0
  %PC = bitcast %union.anon* %5 to i64*
  %6 = load i64, i64* %PC
  %7 = add i64 %6, %rel_off1
  %8 = load i64, i64* %PC
  %9 = add i64 %8, %rel_off2
  store i64 %9, i64* %PC
  %10 = call %struct.Memory* @_ZN12_GLOBAL__N_1L3JMPI2InImEEEP6MemoryS4_R5StateT_(%struct.Memory* %2, %struct.State* %0, i64 %7)
  ret %struct.Memory* %10
}


define %struct.Memory* @routine_jmpq_.L_400ee3(%struct.State*  dereferenceable(3376), i64, %struct.Memory*, i64 %rel_off1, i64 %rel_off2) {
block_400488:
  %3 = getelementptr inbounds %struct.State, %struct.State* %0, i32 0, i32 6
  %4 = getelementptr inbounds %struct.GPR, %struct.GPR* %3, i32 0, i32 33
  %5 = getelementptr inbounds %struct.Reg, %struct.Reg* %4, i32 0, i32 0
  %PC = bitcast %union.anon* %5 to i64*
  %6 = load i64, i64* %PC
  %7 = add i64 %6, %rel_off1
  %8 = load i64, i64* %PC
  %9 = add i64 %8, %rel_off2
  store i64 %9, i64* %PC
  %10 = call %struct.Memory* @_ZN12_GLOBAL__N_1L3JMPI2InImEEEP6MemoryS4_R5StateT_(%struct.Memory* %2, %struct.State* %0, i64 %7)
  ret %struct.Memory* %10
}






define %struct.Memory* @routine_movl__eax__MINUS0x1c__rbp_(%struct.State*  dereferenceable(3376), i64, %struct.Memory* ) #19 {
block_400488:
  %3 = getelementptr inbounds %struct.State, %struct.State* %0, i32 0, i32 6
  %4 = getelementptr inbounds %struct.GPR, %struct.GPR* %3, i32 0, i32 33
  %5 = getelementptr inbounds %struct.Reg, %struct.Reg* %4, i32 0, i32 0
  %PC = bitcast %union.anon* %5 to i64*
  %6 = getelementptr inbounds %struct.State, %struct.State* %0, i32 0, i32 6
  %7 = getelementptr inbounds %struct.GPR, %struct.GPR* %6, i32 0, i32 1
  %8 = getelementptr inbounds %struct.Reg, %struct.Reg* %7, i32 0, i32 0
  %EAX = bitcast %union.anon* %8 to i32*
  %9 = getelementptr inbounds %struct.State, %struct.State* %0, i32 0, i32 6
  %10 = getelementptr inbounds %struct.GPR, %struct.GPR* %9, i32 0, i32 15
  %11 = getelementptr inbounds %struct.Reg, %struct.Reg* %10, i32 0, i32 0
  %RBP = bitcast %union.anon* %11 to i64*
  %12 = load i64, i64* %RBP
  %13 = sub i64 %12, 28
  %14 = load i32, i32* %EAX
  %15 = zext i32 %14 to i64
  %16 = load i64, i64* %PC
  %17 = add i64 %16, 3
  store i64 %17, i64* %PC
  %18 = call %struct.Memory* @_ZN12_GLOBAL__N_1L3MOVI3MnWIjE2RnIjEEEP6MemoryS6_R5StateT_T0_(%struct.Memory* %2, %struct.State* %0, i64 %13, i64 %15)
  ret %struct.Memory* %18
}


define %struct.Memory* @routine_jmpq_.L_400d4a(%struct.State*  dereferenceable(3376), i64, %struct.Memory*, i64 %rel_off1, i64 %rel_off2) {
block_400488:
  %3 = getelementptr inbounds %struct.State, %struct.State* %0, i32 0, i32 6
  %4 = getelementptr inbounds %struct.GPR, %struct.GPR* %3, i32 0, i32 33
  %5 = getelementptr inbounds %struct.Reg, %struct.Reg* %4, i32 0, i32 0
  %PC = bitcast %union.anon* %5 to i64*
  %6 = load i64, i64* %PC
  %7 = add i64 %6, %rel_off1
  %8 = load i64, i64* %PC
  %9 = add i64 %8, %rel_off2
  store i64 %9, i64* %PC
  %10 = call %struct.Memory* @_ZN12_GLOBAL__N_1L3JMPI2InImEEEP6MemoryS4_R5StateT_(%struct.Memory* %2, %struct.State* %0, i64 %7)
  ret %struct.Memory* %10
}

define internal %struct.Memory* @_ZN12_GLOBAL__N_1L3ADDI3RnWImE2RnImE2InImEEEP6MemoryS8_R5StateT_T0_T1_(%struct.Memory* readnone returned, %struct.State* nocapture dereferenceable(3376), i64* nocapture, i64, i64) #0 {
  %6 = add i64 %4, %3
  store i64 %6, i64* %2, align 8
  %7 = icmp ult i64 %6, %3
  %8 = icmp ult i64 %6, %4
  %9 = or i1 %7, %8
  %10 = zext i1 %9 to i8
  %11 = getelementptr inbounds %struct.State, %struct.State* %1, i64 0, i32 2, i32 1
  store i8 %10, i8* %11, align 1
  %12 = trunc i64 %6 to i32
  %13 = and i32 %12, 255
  %14 = tail call i32 @llvm.ctpop.i32(i32 %13) #22
  %15 = trunc i32 %14 to i8
  %16 = and i8 %15, 1
  %17 = xor i8 %16, 1
  %18 = getelementptr inbounds %struct.State, %struct.State* %1, i64 0, i32 2, i32 3
  store i8 %17, i8* %18, align 1
  %19 = xor i64 %4, %3
  %20 = xor i64 %19, %6
  %21 = lshr i64 %20, 4
  %22 = trunc i64 %21 to i8
  %23 = and i8 %22, 1
  %24 = getelementptr inbounds %struct.State, %struct.State* %1, i64 0, i32 2, i32 5
  store i8 %23, i8* %24, align 1
  %25 = icmp eq i64 %6, 0
  %26 = zext i1 %25 to i8
  %27 = getelementptr inbounds %struct.State, %struct.State* %1, i64 0, i32 2, i32 7
  store i8 %26, i8* %27, align 1
  %28 = lshr i64 %6, 63
  %29 = trunc i64 %28 to i8
  %30 = getelementptr inbounds %struct.State, %struct.State* %1, i64 0, i32 2, i32 9
  store i8 %29, i8* %30, align 1
  %31 = lshr i64 %3, 63
  %32 = lshr i64 %4, 63
  %33 = xor i64 %28, %31
  %34 = xor i64 %28, %32
  %35 = add   i64 %33, %34
  %36 = icmp eq i64 %35, 2
  %37 = zext i1 %36 to i8
  %38 = getelementptr inbounds %struct.State, %struct.State* %1, i64 0, i32 2, i32 13
  store i8 %37, i8* %38, align 1
  ret %struct.Memory* %0
}

define %struct.Memory* @routine_addq__0x40___rsp(%struct.State*  dereferenceable(3376), i64, %struct.Memory* ) #19 {
block_400488:
  %3 = getelementptr inbounds %struct.State, %struct.State* %0, i32 0, i32 6
  %4 = getelementptr inbounds %struct.GPR, %struct.GPR* %3, i32 0, i32 33
  %5 = getelementptr inbounds %struct.Reg, %struct.Reg* %4, i32 0, i32 0
  %PC = bitcast %union.anon* %5 to i64*
  %6 = getelementptr inbounds %struct.State, %struct.State* %0, i32 0, i32 6
  %7 = getelementptr inbounds %struct.GPR, %struct.GPR* %6, i32 0, i32 13
  %8 = getelementptr inbounds %struct.Reg, %struct.Reg* %7, i32 0, i32 0
  %RSP = bitcast %union.anon* %8 to i64*
  %9 = load i64, i64* %RSP
  %10 = load i64, i64* %PC
  %11 = add i64 %10, 4
  store i64 %11, i64* %PC
  %12 = call %struct.Memory* @_ZN12_GLOBAL__N_1L3ADDI3RnWImE2RnImE2InImEEEP6MemoryS8_R5StateT_T0_T1_(%struct.Memory* %2, %struct.State* %0, i64* %RSP, i64 %9, i64 64)
  ret %struct.Memory* %12
}

define internal %struct.Memory* @_ZN12_GLOBAL__N_1L3POPI3RnWImEEEP6MemoryS4_R5StateT_(%struct.Memory*, %struct.State* nocapture dereferenceable(3376), i64* nocapture) #0 {
  %4 = getelementptr inbounds %struct.State, %struct.State* %1, i64 0, i32 6, i32 13, i32 0, i32 0
  %5 = load i64, i64* %4, align 8
  %6 = add i64 %5, 8
  %7 = inttoptr i64 %5 to i64*
  %8 = load i64, i64* %7
  store i64 %8, i64* %2, align 8
  store i64 %6, i64* %4, align 8
  ret %struct.Memory* %0
}

define %struct.Memory* @routine_popq__rbp(%struct.State*  dereferenceable(3376), i64, %struct.Memory* ) #19 {
block_400488:
  %3 = getelementptr inbounds %struct.State, %struct.State* %0, i32 0, i32 6
  %4 = getelementptr inbounds %struct.GPR, %struct.GPR* %3, i32 0, i32 33
  %5 = getelementptr inbounds %struct.Reg, %struct.Reg* %4, i32 0, i32 0
  %PC = bitcast %union.anon* %5 to i64*
  %6 = getelementptr inbounds %struct.State, %struct.State* %0, i32 0, i32 6
  %7 = getelementptr inbounds %struct.GPR, %struct.GPR* %6, i32 0, i32 15
  %8 = getelementptr inbounds %struct.Reg, %struct.Reg* %7, i32 0, i32 0
  %RBP = bitcast %union.anon* %8 to i64*
  %9 = load i64, i64* %PC
  %10 = add i64 %9, 1
  store i64 %10, i64* %PC
  %11 = call %struct.Memory* @_ZN12_GLOBAL__N_1L3POPI3RnWImEEEP6MemoryS4_R5StateT_(%struct.Memory* %2, %struct.State* %0, i64* %RBP)
  ret %struct.Memory* %11
}

define internal %struct.Memory* @_ZN12_GLOBAL__N_1L3RETEP6MemoryR5State(%struct.Memory* returned, %struct.State* nocapture dereferenceable(3376)) #0 {
  %3 = getelementptr inbounds %struct.State, %struct.State* %1, i64 0, i32 6, i32 33, i32 0, i32 0
  %4 = getelementptr inbounds %struct.State, %struct.State* %1, i64 0, i32 6, i32 13, i32 0, i32 0
  %5 = load i64, i64* %4, align 8
  %6 = inttoptr i64 %5 to i64*
  %7 = load i64, i64* %6
  store i64 %7, i64* %3, align 8
  %8 = add i64 %5, 8
  store i64 %8, i64* %4, align 8
  ret %struct.Memory* %0
}

define %struct.Memory* @routine_retq(%struct.State*  dereferenceable(3376), i64, %struct.Memory* ) #19 {
block_400488:
  %3 = getelementptr inbounds %struct.State, %struct.State* %0, i32 0, i32 6
  %4 = getelementptr inbounds %struct.GPR, %struct.GPR* %3, i32 0, i32 33
  %5 = getelementptr inbounds %struct.Reg, %struct.Reg* %4, i32 0, i32 0
  %PC = bitcast %union.anon* %5 to i64*
  %6 = load i64, i64* %PC
  %7 = add i64 %6, 1
  store i64 %7, i64* %PC
  %8 = call %struct.Memory* @_ZN12_GLOBAL__N_1L3RETEP6MemoryR5State(%struct.Memory* %2, %struct.State* %0)
  ret %struct.Memory* %8
}

