; ModuleID = 'mcsema/test.proposed.ll'
source_filename = "llvm-link"
target datalayout = "e-m:e-i64:64-f80:128-n8:16:32:64-S128"
target triple = "x86_64-pc-linux-gnu-elf"

%union.anon = type { i64 }
%seg_400388__init_type = type <{ [23 x i8] }>
%seg_4003a0__text_type = type <{ [354 x i8] }>
%seg_400504__fini_type = type <{ [9 x i8] }>
%seg_400510__rodata_type = type <{ [4 x i8] }>
%seg_400514__eh_frame_hdr_type = type <{ [52 x i8] }>
%seg_400548__eh_frame_type = type <{ [208 x i8] }>
%seg_601018__data_type = type <{ [16 x i8] }>
%__bss_start_type = type <{ [8 x i8] }>
%struct.State = type { %struct.ArchState, [32 x %union.VectorReg], %struct.ArithFlags, %union.anon, %struct.Segments, %struct.AddressSpace, %struct.GPR, %struct.X87Stack, %struct.MMX, %struct.FPUStatusFlags, %union.anon, %union.FPU, %struct.SegmentCaches }
%struct.ArchState = type { i32, i32, %union.anon }
%union.VectorReg = type { %union.vec512_t }
%union.vec512_t = type { %struct.uint64v8_t }
%struct.uint64v8_t = type { [8 x i64] }
%struct.ArithFlags = type { i8, i8, i8, i8, i8, i8, i8, i8, i8, i8, i8, i8, i8, i8, i8, i8 }
%struct.Segments = type { i16, %union.SegmentSelector, i16, %union.SegmentSelector, i16, %union.SegmentSelector, i16, %union.SegmentSelector, i16, %union.SegmentSelector, i16, %union.SegmentSelector }
%union.SegmentSelector = type { i16 }
%struct.AddressSpace = type { i64, %struct.Reg, i64, %struct.Reg, i64, %struct.Reg, i64, %struct.Reg, i64, %struct.Reg, i64, %struct.Reg }
%struct.Reg = type { %union.anon }
%struct.GPR = type { i64, %struct.Reg, i64, %struct.Reg, i64, %struct.Reg, i64, %struct.Reg, i64, %struct.Reg, i64, %struct.Reg, i64, %struct.Reg, i64, %struct.Reg, i64, %struct.Reg, i64, %struct.Reg, i64, %struct.Reg, i64, %struct.Reg, i64, %struct.Reg, i64, %struct.Reg, i64, %struct.Reg, i64, %struct.Reg, i64, %struct.Reg }
%struct.X87Stack = type { [8 x %struct.anon.3] }
%struct.anon.3 = type { i64, double }
%struct.MMX = type { [8 x %struct.anon.4] }
%struct.anon.4 = type { i64, %union.vec64_t }
%union.vec64_t = type { %struct.uint64v1_t }
%struct.uint64v1_t = type { [1 x i64] }
%struct.FPUStatusFlags = type { i8, i8, i8, i8, i8, i8, i8, i8, i8, i8, i8, i8, i8, i8, i8, i8, i8, i8, i8, i8, [4 x i8] }
%union.FPU = type { %struct.anon.13 }
%struct.anon.13 = type { %struct.FpuFXSAVE, [96 x i8] }
%struct.FpuFXSAVE = type { %union.SegmentSelector, %union.SegmentSelector, %union.FPUAbridgedTagWord, i8, i16, i32, %union.SegmentSelector, i16, i32, %union.SegmentSelector, i16, %union.FPUControlStatus, %union.FPUControlStatus, [8 x %struct.FPUStackElem], [16 x %union.vec128_t] }
%union.FPUAbridgedTagWord = type { i8 }
%union.FPUControlStatus = type { i32 }
%struct.FPUStackElem = type { %union.anon.11, [6 x i8] }
%union.anon.11 = type { %struct.float80_t }
%struct.float80_t = type { [10 x i8] }
%union.vec128_t = type { %struct.uint128v1_t }
%struct.uint128v1_t = type { [1 x i128] }
%struct.SegmentCaches = type { %struct.SegmentShadow, %struct.SegmentShadow, %struct.SegmentShadow, %struct.SegmentShadow, %struct.SegmentShadow, %struct.SegmentShadow }
%struct.SegmentShadow = type { %union.anon, i32, i32 }
%struct.Memory = type opaque

@switch.table = private unnamed_addr constant [4 x i32] [i32 2048, i32 3072, i32 0, i32 1024]
@DR0 = external global i64, align 8
@DR1 = external global i64, align 8
@DR2 = external global i64, align 8
@DR3 = external global i64, align 8
@DR4 = external global i64, align 8
@DR5 = external global i64, align 8
@DR6 = external global i64, align 8
@DR7 = external global i64, align 8
@gCR0 = external global %union.anon, align 1
@gCR1 = external global %union.anon, align 1
@gCR2 = external global %union.anon, align 1
@gCR3 = external global %union.anon, align 1
@gCR4 = external global %union.anon, align 1
@gCR8 = external global %union.anon, align 1
@seg_400388__init = internal constant %seg_400388__init_type <{ [23 x i8] c"H\83\EC\08H\8B\05e\0C \00H\85\C0t\02\FF\D0H\83\C4\08\C3" }>
@seg_4003a0__text = internal constant %seg_4003a0__text_type <{ [354 x i8] c"1\EDI\89\D1^H\89\E2H\83\E4\F0PTI\C7\C0\00\05@\00H\C7\C1\90\04@\00H\C7\C7\88\04@\00\FF\15&\0C \00\F4\0F\1FD\00\00\F3\C3f.\0F\1F\84\00\00\00\00\00\0F\1F@\00U\B8(\10`\00H=(\10`\00H\89\E5t\17\B8\00\00\00\00H\85\C0t\0D]\BF(\10`\00\FF\E0\0F\1FD\00\00]\C3f\0F\1FD\00\00\BE(\10`\00UH\81\EE(\10`\00H\89\E5H\C1\FE\03H\89\F0H\C1\E8?H\01\C6H\D1\FEt\15\B8\00\00\00\00H\85\C0t\0B]\BF(\10`\00\FF\E0\0F\1F\00]\C3f\0F\1FD\00\00\80=\D1\0B \00\00u\17UH\89\E5\E8~\FF\FF\FF\C6\05\BF\0B \00\01]\C3\0F\1FD\00\00\F3\C3\0F\1F@\00f.\0F\1F\84\00\00\00\00\00UH\89\E5]\EB\89\90U\C3f\0F\1FD\00\00AWAVI\89\D7AUATL\8D%\9E\09 \00UH\8D-\9E\09 \00SA\89\FDI\89\F6L)\E5H\83\EC\08H\C1\FD\03\E8\C7\FE\FF\FFH\85\EDt 1\DB\0F\1F\84\00\00\00\00\00L\89\FAL\89\F6D\89\EFA\FF\14\DCH\83\C3\01H9\DDu\EAH\83\C4\08[]A\5CA]A^A_\C3\90f.\0F\1F\84\00\00\00\00\00\F3\C3" }>
@seg_400504__fini = internal constant %seg_400504__fini_type <{ [9 x i8] c"H\83\EC\08H\83\C4\08\C3" }>
@seg_400510__rodata = internal constant %seg_400510__rodata_type <{ [4 x i8] c"\01\00\02\00" }>
@seg_400514__eh_frame_hdr = internal constant %seg_400514__eh_frame_hdr_type <{ [52 x i8] c"\01\1B\03;0\00\00\00\05\00\00\00\8C\FE\FF\FFL\00\00\00\BC\FE\FF\FFx\00\00\00t\FF\FF\FF\8C\00\00\00|\FF\FF\FF\A4\00\00\00\EC\FF\FF\FF\EC\00\00\00" }>
@seg_400548__eh_frame = internal constant %seg_400548__eh_frame_type <{ [208 x i8] c"\14\00\00\00\00\00\00\00\01zR\00\01x\10\01\1B\0C\07\08\90\01\07\10\10\00\00\00\1C\00\00\008\FE\FF\FF+\00\00\00\00\00\00\00\14\00\00\00\00\00\00\00\01zR\00\01x\10\01\1B\0C\07\08\90\01\00\00\10\00\00\00\1C\00\00\00<\FE\FF\FF\02\00\00\00\00\00\00\00\14\00\00\000\00\00\00\E0\FE\FF\FF\02\00\00\00\00\00\00\00\00\00\00\00D\00\00\00H\00\00\00\D0\FE\FF\FFe\00\00\00\00B\0E\10\8F\02B\0E\18\8E\03E\0E \8D\04B\0E(\8C\05H\0E0\86\06H\0E8\83\07M\0E@r\0E8A\0E0A\0E(B\0E B\0E\18B\0E\10B\0E\08\00\10\00\00\00\90\00\00\00\F8\FE\FF\FF\02\00\00\00\00\00\00\00\00\00\00\00" }>
@seg_601018__data = internal global %seg_601018__data_type zeroinitializer
@__bss_start = global %__bss_start_type zeroinitializer
@0 = internal global i1 false

; Function Attrs: nounwind readnone
declare i32 @llvm.ctpop.i32(i32) #0

declare %struct.Memory* @__remill_error(%struct.State* dereferenceable(3376), i64, %struct.Memory*)

declare %struct.Memory* @sub_400e50._Z11start_timerv(%struct.State* dereferenceable(3376), i64, %struct.Memory*)

declare %struct.Memory* @sub_4120e0._Z26check_shifted_variable_sumIs19custom_add_variableIsEEvT_S2_(%struct.State* dereferenceable(3376), i64, %struct.Memory*)

declare %struct.Memory* @sub_400e70._Z5timerv(%struct.State* dereferenceable(3376), i64, %struct.Memory*)

declare %struct.Memory* @sub_400810._Z13record_resultdPKc(%struct.State* dereferenceable(3376), i64, %struct.Memory*)

; Function Attrs: alwaysinline
define %struct.Memory* @_Z22test_hoisted_variable1Is19custom_add_variableIsEEvPT_iS2_PKc(%struct.State* noalias, i64, %struct.Memory* noalias) #1 {
entry:
  %3 = getelementptr inbounds %struct.State, %struct.State* %0, i64 0, i32 6, i32 33, i32 0, i32 0
  store i64 %1, i64* %3, align 8
  %BRANCH_TAKEN = alloca i8, align 1
  store i8 0, i8* %BRANCH_TAKEN, align 1
  %MEMORY = alloca %struct.Memory*, align 8
  store %struct.Memory* %2, %struct.Memory** %MEMORY, align 8
  %loadMem_4051a0 = load %struct.Memory*, %struct.Memory** %MEMORY
  %4 = getelementptr inbounds %struct.State, %struct.State* %0, i32 0, i32 6
  %5 = getelementptr inbounds %struct.GPR, %struct.GPR* %4, i32 0, i32 33
  %6 = getelementptr inbounds %struct.Reg, %struct.Reg* %5, i32 0, i32 0
  %PC.i = bitcast %union.anon* %6 to i64*
  %7 = getelementptr inbounds %struct.State, %struct.State* %0, i32 0, i32 6
  %8 = getelementptr inbounds %struct.GPR, %struct.GPR* %7, i32 0, i32 15
  %9 = getelementptr inbounds %struct.Reg, %struct.Reg* %8, i32 0, i32 0
  %RBP.i = bitcast %union.anon* %9 to i64*
  %10 = load i64, i64* %RBP.i
  %11 = load i64, i64* %PC.i
  %12 = add i64 %11, 1
  store i64 %12, i64* %PC.i
  %13 = getelementptr inbounds %struct.State, %struct.State* %0, i64 0, i32 6, i32 13, i32 0, i32 0
  %14 = load i64, i64* %13, align 8
  %15 = add i64 %14, -8
  %16 = inttoptr i64 %15 to i64*
  store i64 %10, i64* %16
  store i64 %15, i64* %13, align 8
  store %struct.Memory* %loadMem_4051a0, %struct.Memory** %MEMORY
  %loadMem_4051a1 = load %struct.Memory*, %struct.Memory** %MEMORY
  %17 = getelementptr inbounds %struct.State, %struct.State* %0, i32 0, i32 6
  %18 = getelementptr inbounds %struct.GPR, %struct.GPR* %17, i32 0, i32 33
  %19 = getelementptr inbounds %struct.Reg, %struct.Reg* %18, i32 0, i32 0
  %PC.i104 = bitcast %union.anon* %19 to i64*
  %20 = getelementptr inbounds %struct.State, %struct.State* %0, i32 0, i32 6
  %21 = getelementptr inbounds %struct.GPR, %struct.GPR* %20, i32 0, i32 13
  %22 = getelementptr inbounds %struct.Reg, %struct.Reg* %21, i32 0, i32 0
  %RSP.i105 = bitcast %union.anon* %22 to i64*
  %23 = getelementptr inbounds %struct.State, %struct.State* %0, i32 0, i32 6
  %24 = getelementptr inbounds %struct.GPR, %struct.GPR* %23, i32 0, i32 15
  %25 = getelementptr inbounds %struct.Reg, %struct.Reg* %24, i32 0, i32 0
  %RBP.i106 = bitcast %union.anon* %25 to i64*
  %26 = load i64, i64* %RSP.i105
  %27 = load i64, i64* %PC.i104
  %28 = add i64 %27, 3
  store i64 %28, i64* %PC.i104
  store i64 %26, i64* %RBP.i106, align 8
  store %struct.Memory* %loadMem_4051a1, %struct.Memory** %MEMORY
  %loadMem_4051a4 = load %struct.Memory*, %struct.Memory** %MEMORY
  %29 = getelementptr inbounds %struct.State, %struct.State* %0, i32 0, i32 6
  %30 = getelementptr inbounds %struct.GPR, %struct.GPR* %29, i32 0, i32 33
  %31 = getelementptr inbounds %struct.Reg, %struct.Reg* %30, i32 0, i32 0
  %PC.i102 = bitcast %union.anon* %31 to i64*
  %32 = getelementptr inbounds %struct.State, %struct.State* %0, i32 0, i32 6
  %33 = getelementptr inbounds %struct.GPR, %struct.GPR* %32, i32 0, i32 13
  %34 = getelementptr inbounds %struct.Reg, %struct.Reg* %33, i32 0, i32 0
  %RSP.i103 = bitcast %union.anon* %34 to i64*
  %35 = load i64, i64* %RSP.i103
  %36 = load i64, i64* %PC.i102
  %37 = add i64 %36, 4
  store i64 %37, i64* %PC.i102
  %38 = sub i64 %35, 48
  store i64 %38, i64* %RSP.i103, align 8
  %39 = icmp ult i64 %35, 48
  %40 = zext i1 %39 to i8
  %41 = getelementptr inbounds %struct.State, %struct.State* %0, i64 0, i32 2, i32 1
  store i8 %40, i8* %41, align 1
  %42 = trunc i64 %38 to i32
  %43 = and i32 %42, 255
  %44 = call i32 @llvm.ctpop.i32(i32 %43)
  %45 = trunc i32 %44 to i8
  %46 = and i8 %45, 1
  %47 = xor i8 %46, 1
  %48 = getelementptr inbounds %struct.State, %struct.State* %0, i64 0, i32 2, i32 3
  store i8 %47, i8* %48, align 1
  %49 = xor i64 48, %35
  %50 = xor i64 %49, %38
  %51 = lshr i64 %50, 4
  %52 = trunc i64 %51 to i8
  %53 = and i8 %52, 1
  %54 = getelementptr inbounds %struct.State, %struct.State* %0, i64 0, i32 2, i32 5
  store i8 %53, i8* %54, align 1
  %55 = icmp eq i64 %38, 0
  %56 = zext i1 %55 to i8
  %57 = getelementptr inbounds %struct.State, %struct.State* %0, i64 0, i32 2, i32 7
  store i8 %56, i8* %57, align 1
  %58 = lshr i64 %38, 63
  %59 = trunc i64 %58 to i8
  %60 = getelementptr inbounds %struct.State, %struct.State* %0, i64 0, i32 2, i32 9
  store i8 %59, i8* %60, align 1
  %61 = lshr i64 %35, 63
  %62 = xor i64 %58, %61
  %63 = add i64 %62, %61
  %64 = icmp eq i64 %63, 2
  %65 = zext i1 %64 to i8
  %66 = getelementptr inbounds %struct.State, %struct.State* %0, i64 0, i32 2, i32 13
  store i8 %65, i8* %66, align 1
  store %struct.Memory* %loadMem_4051a4, %struct.Memory** %MEMORY
  %loadMem_4051a8 = load %struct.Memory*, %struct.Memory** %MEMORY
  %67 = getelementptr inbounds %struct.State, %struct.State* %0, i32 0, i32 6
  %68 = getelementptr inbounds %struct.GPR, %struct.GPR* %67, i32 0, i32 33
  %69 = getelementptr inbounds %struct.Reg, %struct.Reg* %68, i32 0, i32 0
  %PC.i99 = bitcast %union.anon* %69 to i64*
  %70 = getelementptr inbounds %struct.State, %struct.State* %0, i32 0, i32 6
  %71 = getelementptr inbounds %struct.GPR, %struct.GPR* %70, i32 0, i32 1
  %72 = getelementptr inbounds %struct.Reg, %struct.Reg* %71, i32 0, i32 0
  %AX.i100 = bitcast %union.anon* %72 to i16*
  %73 = getelementptr inbounds %struct.State, %struct.State* %0, i32 0, i32 6
  %74 = getelementptr inbounds %struct.GPR, %struct.GPR* %73, i32 0, i32 7
  %75 = getelementptr inbounds %struct.Reg, %struct.Reg* %74, i32 0, i32 0
  %DX.i101 = bitcast %union.anon* %75 to i16*
  %76 = load i16, i16* %DX.i101
  %77 = zext i16 %76 to i64
  %78 = load i64, i64* %PC.i99
  %79 = add i64 %78, 3
  store i64 %79, i64* %PC.i99
  store i16 %76, i16* %AX.i100, align 2
  store %struct.Memory* %loadMem_4051a8, %struct.Memory** %MEMORY
  %loadMem_4051ab = load %struct.Memory*, %struct.Memory** %MEMORY
  %80 = getelementptr inbounds %struct.State, %struct.State* %0, i32 0, i32 6
  %81 = getelementptr inbounds %struct.GPR, %struct.GPR* %80, i32 0, i32 33
  %82 = getelementptr inbounds %struct.Reg, %struct.Reg* %81, i32 0, i32 0
  %PC.i96 = bitcast %union.anon* %82 to i64*
  %83 = getelementptr inbounds %struct.State, %struct.State* %0, i32 0, i32 6
  %84 = getelementptr inbounds %struct.GPR, %struct.GPR* %83, i32 0, i32 11
  %85 = getelementptr inbounds %struct.Reg, %struct.Reg* %84, i32 0, i32 0
  %RDI.i97 = bitcast %union.anon* %85 to i64*
  %86 = getelementptr inbounds %struct.State, %struct.State* %0, i32 0, i32 6
  %87 = getelementptr inbounds %struct.GPR, %struct.GPR* %86, i32 0, i32 15
  %88 = getelementptr inbounds %struct.Reg, %struct.Reg* %87, i32 0, i32 0
  %RBP.i98 = bitcast %union.anon* %88 to i64*
  %89 = load i64, i64* %RBP.i98
  %90 = sub i64 %89, 8
  %91 = load i64, i64* %RDI.i97
  %92 = load i64, i64* %PC.i96
  %93 = add i64 %92, 4
  store i64 %93, i64* %PC.i96
  %94 = inttoptr i64 %90 to i64*
  store i64 %91, i64* %94
  store %struct.Memory* %loadMem_4051ab, %struct.Memory** %MEMORY
  %loadMem_4051af = load %struct.Memory*, %struct.Memory** %MEMORY
  %95 = getelementptr inbounds %struct.State, %struct.State* %0, i32 0, i32 6
  %96 = getelementptr inbounds %struct.GPR, %struct.GPR* %95, i32 0, i32 33
  %97 = getelementptr inbounds %struct.Reg, %struct.Reg* %96, i32 0, i32 0
  %PC.i94 = bitcast %union.anon* %97 to i64*
  %98 = getelementptr inbounds %struct.State, %struct.State* %0, i32 0, i32 6
  %99 = getelementptr inbounds %struct.GPR, %struct.GPR* %98, i32 0, i32 9
  %100 = getelementptr inbounds %struct.Reg, %struct.Reg* %99, i32 0, i32 0
  %ESI.i = bitcast %union.anon* %100 to i32*
  %101 = getelementptr inbounds %struct.State, %struct.State* %0, i32 0, i32 6
  %102 = getelementptr inbounds %struct.GPR, %struct.GPR* %101, i32 0, i32 15
  %103 = getelementptr inbounds %struct.Reg, %struct.Reg* %102, i32 0, i32 0
  %RBP.i95 = bitcast %union.anon* %103 to i64*
  %104 = load i64, i64* %RBP.i95
  %105 = sub i64 %104, 12
  %106 = load i32, i32* %ESI.i
  %107 = zext i32 %106 to i64
  %108 = load i64, i64* %PC.i94
  %109 = add i64 %108, 3
  store i64 %109, i64* %PC.i94
  %110 = inttoptr i64 %105 to i32*
  store i32 %106, i32* %110
  store %struct.Memory* %loadMem_4051af, %struct.Memory** %MEMORY
  %loadMem_4051b2 = load %struct.Memory*, %struct.Memory** %MEMORY
  %111 = getelementptr inbounds %struct.State, %struct.State* %0, i32 0, i32 6
  %112 = getelementptr inbounds %struct.GPR, %struct.GPR* %111, i32 0, i32 33
  %113 = getelementptr inbounds %struct.Reg, %struct.Reg* %112, i32 0, i32 0
  %PC.i92 = bitcast %union.anon* %113 to i64*
  %114 = getelementptr inbounds %struct.State, %struct.State* %0, i32 0, i32 6
  %115 = getelementptr inbounds %struct.GPR, %struct.GPR* %114, i32 0, i32 1
  %116 = getelementptr inbounds %struct.Reg, %struct.Reg* %115, i32 0, i32 0
  %AX.i = bitcast %union.anon* %116 to i16*
  %117 = getelementptr inbounds %struct.State, %struct.State* %0, i32 0, i32 6
  %118 = getelementptr inbounds %struct.GPR, %struct.GPR* %117, i32 0, i32 15
  %119 = getelementptr inbounds %struct.Reg, %struct.Reg* %118, i32 0, i32 0
  %RBP.i93 = bitcast %union.anon* %119 to i64*
  %120 = load i64, i64* %RBP.i93
  %121 = sub i64 %120, 14
  %122 = load i16, i16* %AX.i
  %123 = zext i16 %122 to i64
  %124 = load i64, i64* %PC.i92
  %125 = add i64 %124, 4
  store i64 %125, i64* %PC.i92
  %126 = inttoptr i64 %121 to i16*
  store i16 %122, i16* %126
  store %struct.Memory* %loadMem_4051b2, %struct.Memory** %MEMORY
  %loadMem_4051b6 = load %struct.Memory*, %struct.Memory** %MEMORY
  %127 = getelementptr inbounds %struct.State, %struct.State* %0, i32 0, i32 6
  %128 = getelementptr inbounds %struct.GPR, %struct.GPR* %127, i32 0, i32 33
  %129 = getelementptr inbounds %struct.Reg, %struct.Reg* %128, i32 0, i32 0
  %PC.i89 = bitcast %union.anon* %129 to i64*
  %130 = getelementptr inbounds %struct.State, %struct.State* %0, i32 0, i32 6
  %131 = getelementptr inbounds %struct.GPR, %struct.GPR* %130, i32 0, i32 5
  %132 = getelementptr inbounds %struct.Reg, %struct.Reg* %131, i32 0, i32 0
  %RCX.i90 = bitcast %union.anon* %132 to i64*
  %133 = getelementptr inbounds %struct.State, %struct.State* %0, i32 0, i32 6
  %134 = getelementptr inbounds %struct.GPR, %struct.GPR* %133, i32 0, i32 15
  %135 = getelementptr inbounds %struct.Reg, %struct.Reg* %134, i32 0, i32 0
  %RBP.i91 = bitcast %union.anon* %135 to i64*
  %136 = load i64, i64* %RBP.i91
  %137 = sub i64 %136, 24
  %138 = load i64, i64* %RCX.i90
  %139 = load i64, i64* %PC.i89
  %140 = add i64 %139, 4
  store i64 %140, i64* %PC.i89
  %141 = inttoptr i64 %137 to i64*
  store i64 %138, i64* %141
  store %struct.Memory* %loadMem_4051b6, %struct.Memory** %MEMORY
  %loadMem1_4051ba = load %struct.Memory*, %struct.Memory** %MEMORY
  %142 = getelementptr inbounds %struct.State, %struct.State* %0, i32 0, i32 6
  %143 = getelementptr inbounds %struct.GPR, %struct.GPR* %142, i32 0, i32 33
  %144 = getelementptr inbounds %struct.Reg, %struct.Reg* %143, i32 0, i32 0
  %PC.i88 = bitcast %union.anon* %144 to i64*
  %145 = load i64, i64* %PC.i88
  %146 = add i64 %145, -17258
  %147 = load i64, i64* %PC.i88
  %148 = add i64 %147, 5
  %149 = load i64, i64* %PC.i88
  %150 = add i64 %149, 5
  store i64 %150, i64* %PC.i88
  %151 = getelementptr inbounds %struct.State, %struct.State* %0, i64 0, i32 6, i32 13, i32 0, i32 0
  %152 = load i64, i64* %151, align 8
  %153 = add i64 %152, -8
  %154 = inttoptr i64 %153 to i64*
  store i64 %148, i64* %154
  store i64 %153, i64* %151, align 8
  %155 = getelementptr inbounds %struct.State, %struct.State* %0, i64 0, i32 6, i32 33, i32 0, i32 0
  store i64 %146, i64* %155, align 8
  store %struct.Memory* %loadMem1_4051ba, %struct.Memory** %MEMORY
  %loadMem2_4051ba = load %struct.Memory*, %struct.Memory** %MEMORY
  %loadPC_4051ba = load i64, i64* %3
  %call2_4051ba = call %struct.Memory* @sub_400e50._Z11start_timerv(%struct.State* %0, i64 %loadPC_4051ba, %struct.Memory* %loadMem2_4051ba)
  store %struct.Memory* %call2_4051ba, %struct.Memory** %MEMORY
  %loadMem_4051bf = load %struct.Memory*, %struct.Memory** %MEMORY
  %156 = getelementptr inbounds %struct.State, %struct.State* %0, i32 0, i32 6
  %157 = getelementptr inbounds %struct.GPR, %struct.GPR* %156, i32 0, i32 33
  %158 = getelementptr inbounds %struct.Reg, %struct.Reg* %157, i32 0, i32 0
  %PC.i86 = bitcast %union.anon* %158 to i64*
  %159 = getelementptr inbounds %struct.State, %struct.State* %0, i32 0, i32 6
  %160 = getelementptr inbounds %struct.GPR, %struct.GPR* %159, i32 0, i32 15
  %161 = getelementptr inbounds %struct.Reg, %struct.Reg* %160, i32 0, i32 0
  %RBP.i87 = bitcast %union.anon* %161 to i64*
  %162 = load i64, i64* %RBP.i87
  %163 = sub i64 %162, 28
  %164 = load i64, i64* %PC.i86
  %165 = add i64 %164, 7
  store i64 %165, i64* %PC.i86
  %166 = inttoptr i64 %163 to i32*
  store i32 0, i32* %166
  store %struct.Memory* %loadMem_4051bf, %struct.Memory** %MEMORY
  br label %block_.L_4051c6

block_.L_4051c6:                                  ; preds = %block_.L_405216, %entry
  %loadMem_4051c6 = load %struct.Memory*, %struct.Memory** %MEMORY
  %167 = getelementptr inbounds %struct.State, %struct.State* %0, i32 0, i32 6
  %168 = getelementptr inbounds %struct.GPR, %struct.GPR* %167, i32 0, i32 33
  %169 = getelementptr inbounds %struct.Reg, %struct.Reg* %168, i32 0, i32 0
  %PC.i83 = bitcast %union.anon* %169 to i64*
  %170 = getelementptr inbounds %struct.State, %struct.State* %0, i32 0, i32 6
  %171 = getelementptr inbounds %struct.GPR, %struct.GPR* %170, i32 0, i32 1
  %172 = getelementptr inbounds %struct.Reg, %struct.Reg* %171, i32 0, i32 0
  %RAX.i84 = bitcast %union.anon* %172 to i64*
  %173 = getelementptr inbounds %struct.State, %struct.State* %0, i32 0, i32 6
  %174 = getelementptr inbounds %struct.GPR, %struct.GPR* %173, i32 0, i32 15
  %175 = getelementptr inbounds %struct.Reg, %struct.Reg* %174, i32 0, i32 0
  %RBP.i85 = bitcast %union.anon* %175 to i64*
  %176 = load i64, i64* %RBP.i85
  %177 = sub i64 %176, 28
  %178 = load i64, i64* %PC.i83
  %179 = add i64 %178, 3
  store i64 %179, i64* %PC.i83
  %180 = inttoptr i64 %177 to i32*
  %181 = load i32, i32* %180
  %182 = zext i32 %181 to i64
  store i64 %182, i64* %RAX.i84, align 8
  store %struct.Memory* %loadMem_4051c6, %struct.Memory** %MEMORY
  %loadMem_4051c9 = load %struct.Memory*, %struct.Memory** %MEMORY
  %183 = getelementptr inbounds %struct.State, %struct.State* %0, i32 0, i32 6
  %184 = getelementptr inbounds %struct.GPR, %struct.GPR* %183, i32 0, i32 33
  %185 = getelementptr inbounds %struct.Reg, %struct.Reg* %184, i32 0, i32 0
  %PC.i81 = bitcast %union.anon* %185 to i64*
  %186 = getelementptr inbounds %struct.State, %struct.State* %0, i32 0, i32 6
  %187 = getelementptr inbounds %struct.GPR, %struct.GPR* %186, i32 0, i32 1
  %188 = getelementptr inbounds %struct.Reg, %struct.Reg* %187, i32 0, i32 0
  %EAX.i82 = bitcast %union.anon* %188 to i32*
  %189 = load i32, i32* %EAX.i82
  %190 = zext i32 %189 to i64
  %191 = load i64, i64* %PC.i81
  %192 = add i64 %191, 7
  store i64 %192, i64* %PC.i81
  %193 = load i32, i32* inttoptr (i64 6398080 to i32*)
  %194 = sub i32 %189, %193
  %195 = icmp ult i32 %189, %193
  %196 = zext i1 %195 to i8
  %197 = getelementptr inbounds %struct.State, %struct.State* %0, i64 0, i32 2, i32 1
  store i8 %196, i8* %197, align 1
  %198 = and i32 %194, 255
  %199 = call i32 @llvm.ctpop.i32(i32 %198)
  %200 = trunc i32 %199 to i8
  %201 = and i8 %200, 1
  %202 = xor i8 %201, 1
  %203 = getelementptr inbounds %struct.State, %struct.State* %0, i64 0, i32 2, i32 3
  store i8 %202, i8* %203, align 1
  %204 = xor i32 %193, %189
  %205 = xor i32 %204, %194
  %206 = lshr i32 %205, 4
  %207 = trunc i32 %206 to i8
  %208 = and i8 %207, 1
  %209 = getelementptr inbounds %struct.State, %struct.State* %0, i64 0, i32 2, i32 5
  store i8 %208, i8* %209, align 1
  %210 = icmp eq i32 %194, 0
  %211 = zext i1 %210 to i8
  %212 = getelementptr inbounds %struct.State, %struct.State* %0, i64 0, i32 2, i32 7
  store i8 %211, i8* %212, align 1
  %213 = lshr i32 %194, 31
  %214 = trunc i32 %213 to i8
  %215 = getelementptr inbounds %struct.State, %struct.State* %0, i64 0, i32 2, i32 9
  store i8 %214, i8* %215, align 1
  %216 = lshr i32 %189, 31
  %217 = lshr i32 %193, 31
  %218 = xor i32 %217, %216
  %219 = xor i32 %213, %216
  %220 = add i32 %219, %218
  %221 = icmp eq i32 %220, 2
  %222 = zext i1 %221 to i8
  %223 = getelementptr inbounds %struct.State, %struct.State* %0, i64 0, i32 2, i32 13
  store i8 %222, i8* %223, align 1
  store %struct.Memory* %loadMem_4051c9, %struct.Memory** %MEMORY
  %loadMem_4051d0 = load %struct.Memory*, %struct.Memory** %MEMORY
  %224 = getelementptr inbounds %struct.State, %struct.State* %0, i32 0, i32 6
  %225 = getelementptr inbounds %struct.GPR, %struct.GPR* %224, i32 0, i32 33
  %226 = getelementptr inbounds %struct.Reg, %struct.Reg* %225, i32 0, i32 0
  %PC.i80 = bitcast %union.anon* %226 to i64*
  %227 = load i64, i64* %PC.i80
  %228 = add i64 %227, 123
  %229 = load i64, i64* %PC.i80
  %230 = add i64 %229, 6
  %231 = load i64, i64* %PC.i80
  %232 = add i64 %231, 6
  store i64 %232, i64* %PC.i80
  %233 = getelementptr inbounds %struct.State, %struct.State* %0, i64 0, i32 2, i32 9
  %234 = load i8, i8* %233, align 1
  %235 = icmp ne i8 %234, 0
  %236 = getelementptr inbounds %struct.State, %struct.State* %0, i64 0, i32 2, i32 13
  %237 = load i8, i8* %236, align 1
  %238 = icmp ne i8 %237, 0
  %239 = xor i1 %235, %238
  %240 = xor i1 %239, true
  %241 = zext i1 %240 to i8
  store i8 %241, i8* %BRANCH_TAKEN, align 1
  %242 = getelementptr inbounds %struct.State, %struct.State* %0, i64 0, i32 6, i32 33, i32 0, i32 0
  %243 = select i1 %239, i64 %230, i64 %228
  store i64 %243, i64* %242, align 8
  store %struct.Memory* %loadMem_4051d0, %struct.Memory** %MEMORY
  %loadBr_4051d0 = load i8, i8* %BRANCH_TAKEN
  %cmpBr_4051d0 = icmp eq i8 %loadBr_4051d0, 1
  br i1 %cmpBr_4051d0, label %block_.L_40524b, label %block_4051d6

block_4051d6:                                     ; preds = %block_.L_4051c6
  %loadMem_4051d6 = load %struct.Memory*, %struct.Memory** %MEMORY
  %244 = getelementptr inbounds %struct.State, %struct.State* %0, i32 0, i32 6
  %245 = getelementptr inbounds %struct.GPR, %struct.GPR* %244, i32 0, i32 33
  %246 = getelementptr inbounds %struct.Reg, %struct.Reg* %245, i32 0, i32 0
  %PC.i78 = bitcast %union.anon* %246 to i64*
  %247 = getelementptr inbounds %struct.State, %struct.State* %0, i32 0, i32 6
  %248 = getelementptr inbounds %struct.GPR, %struct.GPR* %247, i32 0, i32 15
  %249 = getelementptr inbounds %struct.Reg, %struct.Reg* %248, i32 0, i32 0
  %RBP.i79 = bitcast %union.anon* %249 to i64*
  %250 = load i64, i64* %RBP.i79
  %251 = sub i64 %250, 30
  %252 = load i64, i64* %PC.i78
  %253 = add i64 %252, 6
  store i64 %253, i64* %PC.i78
  %254 = inttoptr i64 %251 to i16*
  store i16 0, i16* %254
  store %struct.Memory* %loadMem_4051d6, %struct.Memory** %MEMORY
  %loadMem_4051dc = load %struct.Memory*, %struct.Memory** %MEMORY
  %255 = getelementptr inbounds %struct.State, %struct.State* %0, i32 0, i32 6
  %256 = getelementptr inbounds %struct.GPR, %struct.GPR* %255, i32 0, i32 33
  %257 = getelementptr inbounds %struct.Reg, %struct.Reg* %256, i32 0, i32 0
  %PC.i76 = bitcast %union.anon* %257 to i64*
  %258 = getelementptr inbounds %struct.State, %struct.State* %0, i32 0, i32 6
  %259 = getelementptr inbounds %struct.GPR, %struct.GPR* %258, i32 0, i32 15
  %260 = getelementptr inbounds %struct.Reg, %struct.Reg* %259, i32 0, i32 0
  %RBP.i77 = bitcast %union.anon* %260 to i64*
  %261 = load i64, i64* %RBP.i77
  %262 = sub i64 %261, 36
  %263 = load i64, i64* %PC.i76
  %264 = add i64 %263, 7
  store i64 %264, i64* %PC.i76
  %265 = inttoptr i64 %262 to i32*
  store i32 0, i32* %265
  store %struct.Memory* %loadMem_4051dc, %struct.Memory** %MEMORY
  br label %block_.L_4051e3

block_.L_4051e3:                                  ; preds = %block_4051ef, %block_4051d6
  %loadMem_4051e3 = load %struct.Memory*, %struct.Memory** %MEMORY
  %266 = getelementptr inbounds %struct.State, %struct.State* %0, i32 0, i32 6
  %267 = getelementptr inbounds %struct.GPR, %struct.GPR* %266, i32 0, i32 33
  %268 = getelementptr inbounds %struct.Reg, %struct.Reg* %267, i32 0, i32 0
  %PC.i73 = bitcast %union.anon* %268 to i64*
  %269 = getelementptr inbounds %struct.State, %struct.State* %0, i32 0, i32 6
  %270 = getelementptr inbounds %struct.GPR, %struct.GPR* %269, i32 0, i32 1
  %271 = getelementptr inbounds %struct.Reg, %struct.Reg* %270, i32 0, i32 0
  %RAX.i74 = bitcast %union.anon* %271 to i64*
  %272 = getelementptr inbounds %struct.State, %struct.State* %0, i32 0, i32 6
  %273 = getelementptr inbounds %struct.GPR, %struct.GPR* %272, i32 0, i32 15
  %274 = getelementptr inbounds %struct.Reg, %struct.Reg* %273, i32 0, i32 0
  %RBP.i75 = bitcast %union.anon* %274 to i64*
  %275 = load i64, i64* %RBP.i75
  %276 = sub i64 %275, 36
  %277 = load i64, i64* %PC.i73
  %278 = add i64 %277, 3
  store i64 %278, i64* %PC.i73
  %279 = inttoptr i64 %276 to i32*
  %280 = load i32, i32* %279
  %281 = zext i32 %280 to i64
  store i64 %281, i64* %RAX.i74, align 8
  store %struct.Memory* %loadMem_4051e3, %struct.Memory** %MEMORY
  %loadMem_4051e6 = load %struct.Memory*, %struct.Memory** %MEMORY
  %282 = getelementptr inbounds %struct.State, %struct.State* %0, i32 0, i32 6
  %283 = getelementptr inbounds %struct.GPR, %struct.GPR* %282, i32 0, i32 33
  %284 = getelementptr inbounds %struct.Reg, %struct.Reg* %283, i32 0, i32 0
  %PC.i70 = bitcast %union.anon* %284 to i64*
  %285 = getelementptr inbounds %struct.State, %struct.State* %0, i32 0, i32 6
  %286 = getelementptr inbounds %struct.GPR, %struct.GPR* %285, i32 0, i32 1
  %287 = getelementptr inbounds %struct.Reg, %struct.Reg* %286, i32 0, i32 0
  %EAX.i71 = bitcast %union.anon* %287 to i32*
  %288 = getelementptr inbounds %struct.State, %struct.State* %0, i32 0, i32 6
  %289 = getelementptr inbounds %struct.GPR, %struct.GPR* %288, i32 0, i32 15
  %290 = getelementptr inbounds %struct.Reg, %struct.Reg* %289, i32 0, i32 0
  %RBP.i72 = bitcast %union.anon* %290 to i64*
  %291 = load i32, i32* %EAX.i71
  %292 = zext i32 %291 to i64
  %293 = load i64, i64* %RBP.i72
  %294 = sub i64 %293, 12
  %295 = load i64, i64* %PC.i70
  %296 = add i64 %295, 3
  store i64 %296, i64* %PC.i70
  %297 = inttoptr i64 %294 to i32*
  %298 = load i32, i32* %297
  %299 = sub i32 %291, %298
  %300 = icmp ult i32 %291, %298
  %301 = zext i1 %300 to i8
  %302 = getelementptr inbounds %struct.State, %struct.State* %0, i64 0, i32 2, i32 1
  store i8 %301, i8* %302, align 1
  %303 = and i32 %299, 255
  %304 = call i32 @llvm.ctpop.i32(i32 %303)
  %305 = trunc i32 %304 to i8
  %306 = and i8 %305, 1
  %307 = xor i8 %306, 1
  %308 = getelementptr inbounds %struct.State, %struct.State* %0, i64 0, i32 2, i32 3
  store i8 %307, i8* %308, align 1
  %309 = xor i32 %298, %291
  %310 = xor i32 %309, %299
  %311 = lshr i32 %310, 4
  %312 = trunc i32 %311 to i8
  %313 = and i8 %312, 1
  %314 = getelementptr inbounds %struct.State, %struct.State* %0, i64 0, i32 2, i32 5
  store i8 %313, i8* %314, align 1
  %315 = icmp eq i32 %299, 0
  %316 = zext i1 %315 to i8
  %317 = getelementptr inbounds %struct.State, %struct.State* %0, i64 0, i32 2, i32 7
  store i8 %316, i8* %317, align 1
  %318 = lshr i32 %299, 31
  %319 = trunc i32 %318 to i8
  %320 = getelementptr inbounds %struct.State, %struct.State* %0, i64 0, i32 2, i32 9
  store i8 %319, i8* %320, align 1
  %321 = lshr i32 %291, 31
  %322 = lshr i32 %298, 31
  %323 = xor i32 %322, %321
  %324 = xor i32 %318, %321
  %325 = add i32 %324, %323
  %326 = icmp eq i32 %325, 2
  %327 = zext i1 %326 to i8
  %328 = getelementptr inbounds %struct.State, %struct.State* %0, i64 0, i32 2, i32 13
  store i8 %327, i8* %328, align 1
  store %struct.Memory* %loadMem_4051e6, %struct.Memory** %MEMORY
  %loadMem_4051e9 = load %struct.Memory*, %struct.Memory** %MEMORY
  %329 = getelementptr inbounds %struct.State, %struct.State* %0, i32 0, i32 6
  %330 = getelementptr inbounds %struct.GPR, %struct.GPR* %329, i32 0, i32 33
  %331 = getelementptr inbounds %struct.Reg, %struct.Reg* %330, i32 0, i32 0
  %PC.i69 = bitcast %union.anon* %331 to i64*
  %332 = load i64, i64* %PC.i69
  %333 = add i64 %332, 45
  %334 = load i64, i64* %PC.i69
  %335 = add i64 %334, 6
  %336 = load i64, i64* %PC.i69
  %337 = add i64 %336, 6
  store i64 %337, i64* %PC.i69
  %338 = getelementptr inbounds %struct.State, %struct.State* %0, i64 0, i32 2, i32 9
  %339 = load i8, i8* %338, align 1
  %340 = icmp ne i8 %339, 0
  %341 = getelementptr inbounds %struct.State, %struct.State* %0, i64 0, i32 2, i32 13
  %342 = load i8, i8* %341, align 1
  %343 = icmp ne i8 %342, 0
  %344 = xor i1 %340, %343
  %345 = xor i1 %344, true
  %346 = zext i1 %345 to i8
  store i8 %346, i8* %BRANCH_TAKEN, align 1
  %347 = getelementptr inbounds %struct.State, %struct.State* %0, i64 0, i32 6, i32 33, i32 0, i32 0
  %348 = select i1 %344, i64 %335, i64 %333
  store i64 %348, i64* %347, align 8
  store %struct.Memory* %loadMem_4051e9, %struct.Memory** %MEMORY
  %loadBr_4051e9 = load i8, i8* %BRANCH_TAKEN
  %cmpBr_4051e9 = icmp eq i8 %loadBr_4051e9, 1
  br i1 %cmpBr_4051e9, label %block_.L_405216, label %block_4051ef

block_4051ef:                                     ; preds = %block_.L_4051e3
  %loadMem_4051ef = load %struct.Memory*, %struct.Memory** %MEMORY
  %349 = getelementptr inbounds %struct.State, %struct.State* %0, i32 0, i32 6
  %350 = getelementptr inbounds %struct.GPR, %struct.GPR* %349, i32 0, i32 33
  %351 = getelementptr inbounds %struct.Reg, %struct.Reg* %350, i32 0, i32 0
  %PC.i66 = bitcast %union.anon* %351 to i64*
  %352 = getelementptr inbounds %struct.State, %struct.State* %0, i32 0, i32 6
  %353 = getelementptr inbounds %struct.GPR, %struct.GPR* %352, i32 0, i32 1
  %354 = getelementptr inbounds %struct.Reg, %struct.Reg* %353, i32 0, i32 0
  %RAX.i67 = bitcast %union.anon* %354 to i64*
  %355 = getelementptr inbounds %struct.State, %struct.State* %0, i32 0, i32 6
  %356 = getelementptr inbounds %struct.GPR, %struct.GPR* %355, i32 0, i32 15
  %357 = getelementptr inbounds %struct.Reg, %struct.Reg* %356, i32 0, i32 0
  %RBP.i68 = bitcast %union.anon* %357 to i64*
  %358 = load i64, i64* %RBP.i68
  %359 = sub i64 %358, 8
  %360 = load i64, i64* %PC.i66
  %361 = add i64 %360, 4
  store i64 %361, i64* %PC.i66
  %362 = inttoptr i64 %359 to i64*
  %363 = load i64, i64* %362
  store i64 %363, i64* %RAX.i67, align 8
  store %struct.Memory* %loadMem_4051ef, %struct.Memory** %MEMORY
  %loadMem_4051f3 = load %struct.Memory*, %struct.Memory** %MEMORY
  %364 = getelementptr inbounds %struct.State, %struct.State* %0, i32 0, i32 6
  %365 = getelementptr inbounds %struct.GPR, %struct.GPR* %364, i32 0, i32 33
  %366 = getelementptr inbounds %struct.Reg, %struct.Reg* %365, i32 0, i32 0
  %PC.i63 = bitcast %union.anon* %366 to i64*
  %367 = getelementptr inbounds %struct.State, %struct.State* %0, i32 0, i32 6
  %368 = getelementptr inbounds %struct.GPR, %struct.GPR* %367, i32 0, i32 5
  %369 = getelementptr inbounds %struct.Reg, %struct.Reg* %368, i32 0, i32 0
  %RCX.i64 = bitcast %union.anon* %369 to i64*
  %370 = getelementptr inbounds %struct.State, %struct.State* %0, i32 0, i32 6
  %371 = getelementptr inbounds %struct.GPR, %struct.GPR* %370, i32 0, i32 15
  %372 = getelementptr inbounds %struct.Reg, %struct.Reg* %371, i32 0, i32 0
  %RBP.i65 = bitcast %union.anon* %372 to i64*
  %373 = load i64, i64* %RBP.i65
  %374 = sub i64 %373, 36
  %375 = load i64, i64* %PC.i63
  %376 = add i64 %375, 4
  store i64 %376, i64* %PC.i63
  %377 = inttoptr i64 %374 to i32*
  %378 = load i32, i32* %377
  %379 = sext i32 %378 to i64
  store i64 %379, i64* %RCX.i64, align 8
  store %struct.Memory* %loadMem_4051f3, %struct.Memory** %MEMORY
  %loadMem_4051f7 = load %struct.Memory*, %struct.Memory** %MEMORY
  %380 = getelementptr inbounds %struct.State, %struct.State* %0, i32 0, i32 6
  %381 = getelementptr inbounds %struct.GPR, %struct.GPR* %380, i32 0, i32 33
  %382 = getelementptr inbounds %struct.Reg, %struct.Reg* %381, i32 0, i32 0
  %PC.i60 = bitcast %union.anon* %382 to i64*
  %383 = getelementptr inbounds %struct.State, %struct.State* %0, i32 0, i32 6
  %384 = getelementptr inbounds %struct.GPR, %struct.GPR* %383, i32 0, i32 1
  %385 = getelementptr inbounds %struct.Reg, %struct.Reg* %384, i32 0, i32 0
  %RAX.i61 = bitcast %union.anon* %385 to i64*
  %386 = getelementptr inbounds %struct.State, %struct.State* %0, i32 0, i32 6
  %387 = getelementptr inbounds %struct.GPR, %struct.GPR* %386, i32 0, i32 5
  %388 = getelementptr inbounds %struct.Reg, %struct.Reg* %387, i32 0, i32 0
  %RCX.i62 = bitcast %union.anon* %388 to i64*
  %389 = getelementptr inbounds %struct.State, %struct.State* %0, i32 0, i32 6
  %390 = getelementptr inbounds %struct.GPR, %struct.GPR* %389, i32 0, i32 7
  %391 = getelementptr inbounds %struct.Reg, %struct.Reg* %390, i32 0, i32 0
  %RDX.i = bitcast %union.anon* %391 to i64*
  %392 = load i64, i64* %RAX.i61
  %393 = load i64, i64* %RCX.i62
  %394 = mul i64 %393, 2
  %395 = add i64 %394, %392
  %396 = load i64, i64* %PC.i60
  %397 = add i64 %396, 4
  store i64 %397, i64* %PC.i60
  %398 = inttoptr i64 %395 to i16*
  %399 = load i16, i16* %398
  %400 = sext i16 %399 to i64
  %401 = and i64 %400, 4294967295
  store i64 %401, i64* %RDX.i, align 8
  store %struct.Memory* %loadMem_4051f7, %struct.Memory** %MEMORY
  %loadMem_4051fb = load %struct.Memory*, %struct.Memory** %MEMORY
  %402 = getelementptr inbounds %struct.State, %struct.State* %0, i32 0, i32 6
  %403 = getelementptr inbounds %struct.GPR, %struct.GPR* %402, i32 0, i32 33
  %404 = getelementptr inbounds %struct.Reg, %struct.Reg* %403, i32 0, i32 0
  %PC.i57 = bitcast %union.anon* %404 to i64*
  %405 = getelementptr inbounds %struct.State, %struct.State* %0, i32 0, i32 6
  %406 = getelementptr inbounds %struct.GPR, %struct.GPR* %405, i32 0, i32 9
  %407 = getelementptr inbounds %struct.Reg, %struct.Reg* %406, i32 0, i32 0
  %RSI.i58 = bitcast %union.anon* %407 to i64*
  %408 = getelementptr inbounds %struct.State, %struct.State* %0, i32 0, i32 6
  %409 = getelementptr inbounds %struct.GPR, %struct.GPR* %408, i32 0, i32 15
  %410 = getelementptr inbounds %struct.Reg, %struct.Reg* %409, i32 0, i32 0
  %RBP.i59 = bitcast %union.anon* %410 to i64*
  %411 = load i64, i64* %RBP.i59
  %412 = sub i64 %411, 30
  %413 = load i64, i64* %PC.i57
  %414 = add i64 %413, 4
  store i64 %414, i64* %PC.i57
  %415 = inttoptr i64 %412 to i16*
  %416 = load i16, i16* %415
  %417 = sext i16 %416 to i64
  %418 = and i64 %417, 4294967295
  store i64 %418, i64* %RSI.i58, align 8
  store %struct.Memory* %loadMem_4051fb, %struct.Memory** %MEMORY
  %loadMem_4051ff = load %struct.Memory*, %struct.Memory** %MEMORY
  %419 = getelementptr inbounds %struct.State, %struct.State* %0, i32 0, i32 6
  %420 = getelementptr inbounds %struct.GPR, %struct.GPR* %419, i32 0, i32 33
  %421 = getelementptr inbounds %struct.Reg, %struct.Reg* %420, i32 0, i32 0
  %PC.i55 = bitcast %union.anon* %421 to i64*
  %422 = getelementptr inbounds %struct.State, %struct.State* %0, i32 0, i32 6
  %423 = getelementptr inbounds %struct.GPR, %struct.GPR* %422, i32 0, i32 7
  %424 = getelementptr inbounds %struct.Reg, %struct.Reg* %423, i32 0, i32 0
  %EDX.i = bitcast %union.anon* %424 to i32*
  %425 = getelementptr inbounds %struct.State, %struct.State* %0, i32 0, i32 6
  %426 = getelementptr inbounds %struct.GPR, %struct.GPR* %425, i32 0, i32 9
  %427 = getelementptr inbounds %struct.Reg, %struct.Reg* %426, i32 0, i32 0
  %RSI.i56 = bitcast %union.anon* %427 to i64*
  %428 = load i64, i64* %RSI.i56
  %429 = load i32, i32* %EDX.i
  %430 = zext i32 %429 to i64
  %431 = load i64, i64* %PC.i55
  %432 = add i64 %431, 2
  store i64 %432, i64* %PC.i55
  %433 = trunc i64 %428 to i32
  %434 = add i32 %429, %433
  %435 = zext i32 %434 to i64
  store i64 %435, i64* %RSI.i56, align 8
  %436 = icmp ult i32 %434, %433
  %437 = icmp ult i32 %434, %429
  %438 = or i1 %436, %437
  %439 = zext i1 %438 to i8
  %440 = getelementptr inbounds %struct.State, %struct.State* %0, i64 0, i32 2, i32 1
  store i8 %439, i8* %440, align 1
  %441 = and i32 %434, 255
  %442 = call i32 @llvm.ctpop.i32(i32 %441)
  %443 = trunc i32 %442 to i8
  %444 = and i8 %443, 1
  %445 = xor i8 %444, 1
  %446 = getelementptr inbounds %struct.State, %struct.State* %0, i64 0, i32 2, i32 3
  store i8 %445, i8* %446, align 1
  %447 = xor i64 %430, %428
  %448 = trunc i64 %447 to i32
  %449 = xor i32 %448, %434
  %450 = lshr i32 %449, 4
  %451 = trunc i32 %450 to i8
  %452 = and i8 %451, 1
  %453 = getelementptr inbounds %struct.State, %struct.State* %0, i64 0, i32 2, i32 5
  store i8 %452, i8* %453, align 1
  %454 = icmp eq i32 %434, 0
  %455 = zext i1 %454 to i8
  %456 = getelementptr inbounds %struct.State, %struct.State* %0, i64 0, i32 2, i32 7
  store i8 %455, i8* %456, align 1
  %457 = lshr i32 %434, 31
  %458 = trunc i32 %457 to i8
  %459 = getelementptr inbounds %struct.State, %struct.State* %0, i64 0, i32 2, i32 9
  store i8 %458, i8* %459, align 1
  %460 = lshr i32 %433, 31
  %461 = lshr i32 %429, 31
  %462 = xor i32 %457, %460
  %463 = xor i32 %457, %461
  %464 = add i32 %462, %463
  %465 = icmp eq i32 %464, 2
  %466 = zext i1 %465 to i8
  %467 = getelementptr inbounds %struct.State, %struct.State* %0, i64 0, i32 2, i32 13
  store i8 %466, i8* %467, align 1
  store %struct.Memory* %loadMem_4051ff, %struct.Memory** %MEMORY
  %loadMem_405201 = load %struct.Memory*, %struct.Memory** %MEMORY
  %468 = getelementptr inbounds %struct.State, %struct.State* %0, i32 0, i32 6
  %469 = getelementptr inbounds %struct.GPR, %struct.GPR* %468, i32 0, i32 33
  %470 = getelementptr inbounds %struct.Reg, %struct.Reg* %469, i32 0, i32 0
  %PC.i53 = bitcast %union.anon* %470 to i64*
  %471 = getelementptr inbounds %struct.State, %struct.State* %0, i32 0, i32 6
  %472 = getelementptr inbounds %struct.GPR, %struct.GPR* %471, i32 0, i32 9
  %473 = getelementptr inbounds %struct.Reg, %struct.Reg* %472, i32 0, i32 0
  %SI.i = bitcast %union.anon* %473 to i16*
  %474 = getelementptr inbounds %struct.State, %struct.State* %0, i32 0, i32 6
  %475 = getelementptr inbounds %struct.GPR, %struct.GPR* %474, i32 0, i32 11
  %476 = getelementptr inbounds %struct.Reg, %struct.Reg* %475, i32 0, i32 0
  %DI.i54 = bitcast %union.anon* %476 to i16*
  %477 = load i16, i16* %SI.i
  %478 = zext i16 %477 to i64
  %479 = load i64, i64* %PC.i53
  %480 = add i64 %479, 3
  store i64 %480, i64* %PC.i53
  store i16 %477, i16* %DI.i54, align 2
  store %struct.Memory* %loadMem_405201, %struct.Memory** %MEMORY
  %loadMem_405204 = load %struct.Memory*, %struct.Memory** %MEMORY
  %481 = getelementptr inbounds %struct.State, %struct.State* %0, i32 0, i32 6
  %482 = getelementptr inbounds %struct.GPR, %struct.GPR* %481, i32 0, i32 33
  %483 = getelementptr inbounds %struct.Reg, %struct.Reg* %482, i32 0, i32 0
  %PC.i51 = bitcast %union.anon* %483 to i64*
  %484 = getelementptr inbounds %struct.State, %struct.State* %0, i32 0, i32 6
  %485 = getelementptr inbounds %struct.GPR, %struct.GPR* %484, i32 0, i32 11
  %486 = getelementptr inbounds %struct.Reg, %struct.Reg* %485, i32 0, i32 0
  %DI.i = bitcast %union.anon* %486 to i16*
  %487 = getelementptr inbounds %struct.State, %struct.State* %0, i32 0, i32 6
  %488 = getelementptr inbounds %struct.GPR, %struct.GPR* %487, i32 0, i32 15
  %489 = getelementptr inbounds %struct.Reg, %struct.Reg* %488, i32 0, i32 0
  %RBP.i52 = bitcast %union.anon* %489 to i64*
  %490 = load i64, i64* %RBP.i52
  %491 = sub i64 %490, 30
  %492 = load i16, i16* %DI.i
  %493 = zext i16 %492 to i64
  %494 = load i64, i64* %PC.i51
  %495 = add i64 %494, 4
  store i64 %495, i64* %PC.i51
  %496 = inttoptr i64 %491 to i16*
  store i16 %492, i16* %496
  store %struct.Memory* %loadMem_405204, %struct.Memory** %MEMORY
  %loadMem_405208 = load %struct.Memory*, %struct.Memory** %MEMORY
  %497 = getelementptr inbounds %struct.State, %struct.State* %0, i32 0, i32 6
  %498 = getelementptr inbounds %struct.GPR, %struct.GPR* %497, i32 0, i32 33
  %499 = getelementptr inbounds %struct.Reg, %struct.Reg* %498, i32 0, i32 0
  %PC.i48 = bitcast %union.anon* %499 to i64*
  %500 = getelementptr inbounds %struct.State, %struct.State* %0, i32 0, i32 6
  %501 = getelementptr inbounds %struct.GPR, %struct.GPR* %500, i32 0, i32 1
  %502 = getelementptr inbounds %struct.Reg, %struct.Reg* %501, i32 0, i32 0
  %RAX.i49 = bitcast %union.anon* %502 to i64*
  %503 = getelementptr inbounds %struct.State, %struct.State* %0, i32 0, i32 6
  %504 = getelementptr inbounds %struct.GPR, %struct.GPR* %503, i32 0, i32 15
  %505 = getelementptr inbounds %struct.Reg, %struct.Reg* %504, i32 0, i32 0
  %RBP.i50 = bitcast %union.anon* %505 to i64*
  %506 = load i64, i64* %RBP.i50
  %507 = sub i64 %506, 36
  %508 = load i64, i64* %PC.i48
  %509 = add i64 %508, 3
  store i64 %509, i64* %PC.i48
  %510 = inttoptr i64 %507 to i32*
  %511 = load i32, i32* %510
  %512 = zext i32 %511 to i64
  store i64 %512, i64* %RAX.i49, align 8
  store %struct.Memory* %loadMem_405208, %struct.Memory** %MEMORY
  %loadMem_40520b = load %struct.Memory*, %struct.Memory** %MEMORY
  %513 = getelementptr inbounds %struct.State, %struct.State* %0, i32 0, i32 6
  %514 = getelementptr inbounds %struct.GPR, %struct.GPR* %513, i32 0, i32 33
  %515 = getelementptr inbounds %struct.Reg, %struct.Reg* %514, i32 0, i32 0
  %PC.i46 = bitcast %union.anon* %515 to i64*
  %516 = getelementptr inbounds %struct.State, %struct.State* %0, i32 0, i32 6
  %517 = getelementptr inbounds %struct.GPR, %struct.GPR* %516, i32 0, i32 1
  %518 = getelementptr inbounds %struct.Reg, %struct.Reg* %517, i32 0, i32 0
  %RAX.i47 = bitcast %union.anon* %518 to i64*
  %519 = load i64, i64* %RAX.i47
  %520 = load i64, i64* %PC.i46
  %521 = add i64 %520, 3
  store i64 %521, i64* %PC.i46
  %522 = trunc i64 %519 to i32
  %523 = add i32 1, %522
  %524 = zext i32 %523 to i64
  store i64 %524, i64* %RAX.i47, align 8
  %525 = icmp ult i32 %523, %522
  %526 = icmp ult i32 %523, 1
  %527 = or i1 %525, %526
  %528 = zext i1 %527 to i8
  %529 = getelementptr inbounds %struct.State, %struct.State* %0, i64 0, i32 2, i32 1
  store i8 %528, i8* %529, align 1
  %530 = and i32 %523, 255
  %531 = call i32 @llvm.ctpop.i32(i32 %530)
  %532 = trunc i32 %531 to i8
  %533 = and i8 %532, 1
  %534 = xor i8 %533, 1
  %535 = getelementptr inbounds %struct.State, %struct.State* %0, i64 0, i32 2, i32 3
  store i8 %534, i8* %535, align 1
  %536 = xor i64 1, %519
  %537 = trunc i64 %536 to i32
  %538 = xor i32 %537, %523
  %539 = lshr i32 %538, 4
  %540 = trunc i32 %539 to i8
  %541 = and i8 %540, 1
  %542 = getelementptr inbounds %struct.State, %struct.State* %0, i64 0, i32 2, i32 5
  store i8 %541, i8* %542, align 1
  %543 = icmp eq i32 %523, 0
  %544 = zext i1 %543 to i8
  %545 = getelementptr inbounds %struct.State, %struct.State* %0, i64 0, i32 2, i32 7
  store i8 %544, i8* %545, align 1
  %546 = lshr i32 %523, 31
  %547 = trunc i32 %546 to i8
  %548 = getelementptr inbounds %struct.State, %struct.State* %0, i64 0, i32 2, i32 9
  store i8 %547, i8* %548, align 1
  %549 = lshr i32 %522, 31
  %550 = xor i32 %546, %549
  %551 = add i32 %550, %546
  %552 = icmp eq i32 %551, 2
  %553 = zext i1 %552 to i8
  %554 = getelementptr inbounds %struct.State, %struct.State* %0, i64 0, i32 2, i32 13
  store i8 %553, i8* %554, align 1
  store %struct.Memory* %loadMem_40520b, %struct.Memory** %MEMORY
  %loadMem_40520e = load %struct.Memory*, %struct.Memory** %MEMORY
  %555 = getelementptr inbounds %struct.State, %struct.State* %0, i32 0, i32 6
  %556 = getelementptr inbounds %struct.GPR, %struct.GPR* %555, i32 0, i32 33
  %557 = getelementptr inbounds %struct.Reg, %struct.Reg* %556, i32 0, i32 0
  %PC.i43 = bitcast %union.anon* %557 to i64*
  %558 = getelementptr inbounds %struct.State, %struct.State* %0, i32 0, i32 6
  %559 = getelementptr inbounds %struct.GPR, %struct.GPR* %558, i32 0, i32 1
  %560 = getelementptr inbounds %struct.Reg, %struct.Reg* %559, i32 0, i32 0
  %EAX.i44 = bitcast %union.anon* %560 to i32*
  %561 = getelementptr inbounds %struct.State, %struct.State* %0, i32 0, i32 6
  %562 = getelementptr inbounds %struct.GPR, %struct.GPR* %561, i32 0, i32 15
  %563 = getelementptr inbounds %struct.Reg, %struct.Reg* %562, i32 0, i32 0
  %RBP.i45 = bitcast %union.anon* %563 to i64*
  %564 = load i64, i64* %RBP.i45
  %565 = sub i64 %564, 36
  %566 = load i32, i32* %EAX.i44
  %567 = zext i32 %566 to i64
  %568 = load i64, i64* %PC.i43
  %569 = add i64 %568, 3
  store i64 %569, i64* %PC.i43
  %570 = inttoptr i64 %565 to i32*
  store i32 %566, i32* %570
  store %struct.Memory* %loadMem_40520e, %struct.Memory** %MEMORY
  %loadMem_405211 = load %struct.Memory*, %struct.Memory** %MEMORY
  %571 = getelementptr inbounds %struct.State, %struct.State* %0, i32 0, i32 6
  %572 = getelementptr inbounds %struct.GPR, %struct.GPR* %571, i32 0, i32 33
  %573 = getelementptr inbounds %struct.Reg, %struct.Reg* %572, i32 0, i32 0
  %PC.i42 = bitcast %union.anon* %573 to i64*
  %574 = load i64, i64* %PC.i42
  %575 = add i64 %574, -46
  %576 = load i64, i64* %PC.i42
  %577 = add i64 %576, 5
  store i64 %577, i64* %PC.i42
  %578 = getelementptr inbounds %struct.State, %struct.State* %0, i64 0, i32 6, i32 33, i32 0, i32 0
  store i64 %575, i64* %578, align 8
  store %struct.Memory* %loadMem_405211, %struct.Memory** %MEMORY
  br label %block_.L_4051e3

block_.L_405216:                                  ; preds = %block_.L_4051e3
  %loadMem_405216 = load %struct.Memory*, %struct.Memory** %MEMORY
  %579 = getelementptr inbounds %struct.State, %struct.State* %0, i32 0, i32 6
  %580 = getelementptr inbounds %struct.GPR, %struct.GPR* %579, i32 0, i32 33
  %581 = getelementptr inbounds %struct.Reg, %struct.Reg* %580, i32 0, i32 0
  %PC.i39 = bitcast %union.anon* %581 to i64*
  %582 = getelementptr inbounds %struct.State, %struct.State* %0, i32 0, i32 6
  %583 = getelementptr inbounds %struct.GPR, %struct.GPR* %582, i32 0, i32 1
  %584 = getelementptr inbounds %struct.Reg, %struct.Reg* %583, i32 0, i32 0
  %RAX.i40 = bitcast %union.anon* %584 to i64*
  %585 = getelementptr inbounds %struct.State, %struct.State* %0, i32 0, i32 6
  %586 = getelementptr inbounds %struct.GPR, %struct.GPR* %585, i32 0, i32 15
  %587 = getelementptr inbounds %struct.Reg, %struct.Reg* %586, i32 0, i32 0
  %RBP.i41 = bitcast %union.anon* %587 to i64*
  %588 = load i64, i64* %RBP.i41
  %589 = sub i64 %588, 12
  %590 = load i64, i64* %PC.i39
  %591 = add i64 %590, 3
  store i64 %591, i64* %PC.i39
  %592 = inttoptr i64 %589 to i32*
  %593 = load i32, i32* %592
  %594 = zext i32 %593 to i64
  store i64 %594, i64* %RAX.i40, align 8
  store %struct.Memory* %loadMem_405216, %struct.Memory** %MEMORY
  %loadMem_405219 = load %struct.Memory*, %struct.Memory** %MEMORY
  %595 = getelementptr inbounds %struct.State, %struct.State* %0, i32 0, i32 6
  %596 = getelementptr inbounds %struct.GPR, %struct.GPR* %595, i32 0, i32 33
  %597 = getelementptr inbounds %struct.Reg, %struct.Reg* %596, i32 0, i32 0
  %PC.i36 = bitcast %union.anon* %597 to i64*
  %598 = getelementptr inbounds %struct.State, %struct.State* %0, i32 0, i32 6
  %599 = getelementptr inbounds %struct.GPR, %struct.GPR* %598, i32 0, i32 5
  %600 = getelementptr inbounds %struct.Reg, %struct.Reg* %599, i32 0, i32 0
  %RCX.i37 = bitcast %union.anon* %600 to i64*
  %601 = getelementptr inbounds %struct.State, %struct.State* %0, i32 0, i32 6
  %602 = getelementptr inbounds %struct.GPR, %struct.GPR* %601, i32 0, i32 15
  %603 = getelementptr inbounds %struct.Reg, %struct.Reg* %602, i32 0, i32 0
  %RBP.i38 = bitcast %union.anon* %603 to i64*
  %604 = load i64, i64* %RBP.i38
  %605 = sub i64 %604, 14
  %606 = load i64, i64* %PC.i36
  %607 = add i64 %606, 4
  store i64 %607, i64* %PC.i36
  %608 = inttoptr i64 %605 to i16*
  %609 = load i16, i16* %608
  %610 = sext i16 %609 to i64
  %611 = and i64 %610, 4294967295
  store i64 %611, i64* %RCX.i37, align 8
  store %struct.Memory* %loadMem_405219, %struct.Memory** %MEMORY
  %loadMem_40521d = load %struct.Memory*, %struct.Memory** %MEMORY
  %612 = getelementptr inbounds %struct.State, %struct.State* %0, i32 0, i32 6
  %613 = getelementptr inbounds %struct.GPR, %struct.GPR* %612, i32 0, i32 33
  %614 = getelementptr inbounds %struct.Reg, %struct.Reg* %613, i32 0, i32 0
  %PC.i34 = bitcast %union.anon* %614 to i64*
  %615 = getelementptr inbounds %struct.State, %struct.State* %0, i32 0, i32 6
  %616 = getelementptr inbounds %struct.GPR, %struct.GPR* %615, i32 0, i32 5
  %617 = getelementptr inbounds %struct.Reg, %struct.Reg* %616, i32 0, i32 0
  %ECX.i = bitcast %union.anon* %617 to i32*
  %618 = getelementptr inbounds %struct.State, %struct.State* %0, i32 0, i32 6
  %619 = getelementptr inbounds %struct.GPR, %struct.GPR* %618, i32 0, i32 1
  %620 = getelementptr inbounds %struct.Reg, %struct.Reg* %619, i32 0, i32 0
  %RAX.i35 = bitcast %union.anon* %620 to i64*
  %621 = load i64, i64* %RAX.i35
  %622 = load i32, i32* %ECX.i
  %623 = zext i32 %622 to i64
  %624 = load i64, i64* %PC.i34
  %625 = add i64 %624, 3
  store i64 %625, i64* %PC.i34
  %626 = shl i64 %621, 32
  %627 = ashr exact i64 %626, 32
  %628 = shl i64 %623, 32
  %629 = ashr exact i64 %628, 32
  %630 = mul i64 %629, %627
  %631 = trunc i64 %630 to i32
  %632 = and i64 %630, 4294967295
  store i64 %632, i64* %RAX.i35, align 8
  %633 = shl i64 %630, 32
  %634 = ashr exact i64 %633, 32
  %635 = icmp ne i64 %634, %630
  %636 = zext i1 %635 to i8
  %637 = getelementptr inbounds %struct.State, %struct.State* %0, i64 0, i32 2, i32 1
  store i8 %636, i8* %637, align 1
  %638 = and i32 %631, 255
  %639 = call i32 @llvm.ctpop.i32(i32 %638)
  %640 = trunc i32 %639 to i8
  %641 = and i8 %640, 1
  %642 = xor i8 %641, 1
  %643 = getelementptr inbounds %struct.State, %struct.State* %0, i64 0, i32 2, i32 3
  store i8 %642, i8* %643, align 1
  %644 = getelementptr inbounds %struct.State, %struct.State* %0, i64 0, i32 2, i32 5
  store i8 0, i8* %644, align 1
  %645 = getelementptr inbounds %struct.State, %struct.State* %0, i64 0, i32 2, i32 7
  store i8 0, i8* %645, align 1
  %646 = lshr i32 %631, 31
  %647 = trunc i32 %646 to i8
  %648 = getelementptr inbounds %struct.State, %struct.State* %0, i64 0, i32 2, i32 9
  store i8 %647, i8* %648, align 1
  %649 = getelementptr inbounds %struct.State, %struct.State* %0, i64 0, i32 2, i32 13
  store i8 %636, i8* %649, align 1
  store %struct.Memory* %loadMem_40521d, %struct.Memory** %MEMORY
  %loadMem_405220 = load %struct.Memory*, %struct.Memory** %MEMORY
  %650 = getelementptr inbounds %struct.State, %struct.State* %0, i32 0, i32 6
  %651 = getelementptr inbounds %struct.GPR, %struct.GPR* %650, i32 0, i32 33
  %652 = getelementptr inbounds %struct.Reg, %struct.Reg* %651, i32 0, i32 0
  %PC.i31 = bitcast %union.anon* %652 to i64*
  %653 = getelementptr inbounds %struct.State, %struct.State* %0, i32 0, i32 6
  %654 = getelementptr inbounds %struct.GPR, %struct.GPR* %653, i32 0, i32 5
  %655 = getelementptr inbounds %struct.Reg, %struct.Reg* %654, i32 0, i32 0
  %RCX.i32 = bitcast %union.anon* %655 to i64*
  %656 = getelementptr inbounds %struct.State, %struct.State* %0, i32 0, i32 6
  %657 = getelementptr inbounds %struct.GPR, %struct.GPR* %656, i32 0, i32 15
  %658 = getelementptr inbounds %struct.Reg, %struct.Reg* %657, i32 0, i32 0
  %RBP.i33 = bitcast %union.anon* %658 to i64*
  %659 = load i64, i64* %RBP.i33
  %660 = sub i64 %659, 30
  %661 = load i64, i64* %PC.i31
  %662 = add i64 %661, 4
  store i64 %662, i64* %PC.i31
  %663 = inttoptr i64 %660 to i16*
  %664 = load i16, i16* %663
  %665 = sext i16 %664 to i64
  %666 = and i64 %665, 4294967295
  store i64 %666, i64* %RCX.i32, align 8
  store %struct.Memory* %loadMem_405220, %struct.Memory** %MEMORY
  %loadMem_405224 = load %struct.Memory*, %struct.Memory** %MEMORY
  %667 = getelementptr inbounds %struct.State, %struct.State* %0, i32 0, i32 6
  %668 = getelementptr inbounds %struct.GPR, %struct.GPR* %667, i32 0, i32 33
  %669 = getelementptr inbounds %struct.Reg, %struct.Reg* %668, i32 0, i32 0
  %PC.i29 = bitcast %union.anon* %669 to i64*
  %670 = getelementptr inbounds %struct.State, %struct.State* %0, i32 0, i32 6
  %671 = getelementptr inbounds %struct.GPR, %struct.GPR* %670, i32 0, i32 1
  %672 = getelementptr inbounds %struct.Reg, %struct.Reg* %671, i32 0, i32 0
  %EAX.i30 = bitcast %union.anon* %672 to i32*
  %673 = getelementptr inbounds %struct.State, %struct.State* %0, i32 0, i32 6
  %674 = getelementptr inbounds %struct.GPR, %struct.GPR* %673, i32 0, i32 5
  %675 = getelementptr inbounds %struct.Reg, %struct.Reg* %674, i32 0, i32 0
  %RCX.i = bitcast %union.anon* %675 to i64*
  %676 = load i64, i64* %RCX.i
  %677 = load i32, i32* %EAX.i30
  %678 = zext i32 %677 to i64
  %679 = load i64, i64* %PC.i29
  %680 = add i64 %679, 2
  store i64 %680, i64* %PC.i29
  %681 = trunc i64 %676 to i32
  %682 = add i32 %677, %681
  %683 = zext i32 %682 to i64
  store i64 %683, i64* %RCX.i, align 8
  %684 = icmp ult i32 %682, %681
  %685 = icmp ult i32 %682, %677
  %686 = or i1 %684, %685
  %687 = zext i1 %686 to i8
  %688 = getelementptr inbounds %struct.State, %struct.State* %0, i64 0, i32 2, i32 1
  store i8 %687, i8* %688, align 1
  %689 = and i32 %682, 255
  %690 = call i32 @llvm.ctpop.i32(i32 %689)
  %691 = trunc i32 %690 to i8
  %692 = and i8 %691, 1
  %693 = xor i8 %692, 1
  %694 = getelementptr inbounds %struct.State, %struct.State* %0, i64 0, i32 2, i32 3
  store i8 %693, i8* %694, align 1
  %695 = xor i64 %678, %676
  %696 = trunc i64 %695 to i32
  %697 = xor i32 %696, %682
  %698 = lshr i32 %697, 4
  %699 = trunc i32 %698 to i8
  %700 = and i8 %699, 1
  %701 = getelementptr inbounds %struct.State, %struct.State* %0, i64 0, i32 2, i32 5
  store i8 %700, i8* %701, align 1
  %702 = icmp eq i32 %682, 0
  %703 = zext i1 %702 to i8
  %704 = getelementptr inbounds %struct.State, %struct.State* %0, i64 0, i32 2, i32 7
  store i8 %703, i8* %704, align 1
  %705 = lshr i32 %682, 31
  %706 = trunc i32 %705 to i8
  %707 = getelementptr inbounds %struct.State, %struct.State* %0, i64 0, i32 2, i32 9
  store i8 %706, i8* %707, align 1
  %708 = lshr i32 %681, 31
  %709 = lshr i32 %677, 31
  %710 = xor i32 %705, %708
  %711 = xor i32 %705, %709
  %712 = add i32 %710, %711
  %713 = icmp eq i32 %712, 2
  %714 = zext i1 %713 to i8
  %715 = getelementptr inbounds %struct.State, %struct.State* %0, i64 0, i32 2, i32 13
  store i8 %714, i8* %715, align 1
  store %struct.Memory* %loadMem_405224, %struct.Memory** %MEMORY
  %loadMem_405226 = load %struct.Memory*, %struct.Memory** %MEMORY
  %716 = getelementptr inbounds %struct.State, %struct.State* %0, i32 0, i32 6
  %717 = getelementptr inbounds %struct.GPR, %struct.GPR* %716, i32 0, i32 33
  %718 = getelementptr inbounds %struct.Reg, %struct.Reg* %717, i32 0, i32 0
  %PC.i27 = bitcast %union.anon* %718 to i64*
  %719 = getelementptr inbounds %struct.State, %struct.State* %0, i32 0, i32 6
  %720 = getelementptr inbounds %struct.GPR, %struct.GPR* %719, i32 0, i32 5
  %721 = getelementptr inbounds %struct.Reg, %struct.Reg* %720, i32 0, i32 0
  %CX.i = bitcast %union.anon* %721 to i16*
  %722 = getelementptr inbounds %struct.State, %struct.State* %0, i32 0, i32 6
  %723 = getelementptr inbounds %struct.GPR, %struct.GPR* %722, i32 0, i32 7
  %724 = getelementptr inbounds %struct.Reg, %struct.Reg* %723, i32 0, i32 0
  %DX.i28 = bitcast %union.anon* %724 to i16*
  %725 = load i16, i16* %CX.i
  %726 = zext i16 %725 to i64
  %727 = load i64, i64* %PC.i27
  %728 = add i64 %727, 3
  store i64 %728, i64* %PC.i27
  store i16 %725, i16* %DX.i28, align 2
  store %struct.Memory* %loadMem_405226, %struct.Memory** %MEMORY
  %loadMem_405229 = load %struct.Memory*, %struct.Memory** %MEMORY
  %729 = getelementptr inbounds %struct.State, %struct.State* %0, i32 0, i32 6
  %730 = getelementptr inbounds %struct.GPR, %struct.GPR* %729, i32 0, i32 33
  %731 = getelementptr inbounds %struct.Reg, %struct.Reg* %730, i32 0, i32 0
  %PC.i24 = bitcast %union.anon* %731 to i64*
  %732 = getelementptr inbounds %struct.State, %struct.State* %0, i32 0, i32 6
  %733 = getelementptr inbounds %struct.GPR, %struct.GPR* %732, i32 0, i32 7
  %734 = getelementptr inbounds %struct.Reg, %struct.Reg* %733, i32 0, i32 0
  %DX.i25 = bitcast %union.anon* %734 to i16*
  %735 = getelementptr inbounds %struct.State, %struct.State* %0, i32 0, i32 6
  %736 = getelementptr inbounds %struct.GPR, %struct.GPR* %735, i32 0, i32 15
  %737 = getelementptr inbounds %struct.Reg, %struct.Reg* %736, i32 0, i32 0
  %RBP.i26 = bitcast %union.anon* %737 to i64*
  %738 = load i64, i64* %RBP.i26
  %739 = sub i64 %738, 30
  %740 = load i16, i16* %DX.i25
  %741 = zext i16 %740 to i64
  %742 = load i64, i64* %PC.i24
  %743 = add i64 %742, 4
  store i64 %743, i64* %PC.i24
  %744 = inttoptr i64 %739 to i16*
  store i16 %740, i16* %744
  store %struct.Memory* %loadMem_405229, %struct.Memory** %MEMORY
  %loadMem_40522d = load %struct.Memory*, %struct.Memory** %MEMORY
  %745 = getelementptr inbounds %struct.State, %struct.State* %0, i32 0, i32 6
  %746 = getelementptr inbounds %struct.GPR, %struct.GPR* %745, i32 0, i32 33
  %747 = getelementptr inbounds %struct.Reg, %struct.Reg* %746, i32 0, i32 0
  %PC.i21 = bitcast %union.anon* %747 to i64*
  %748 = getelementptr inbounds %struct.State, %struct.State* %0, i32 0, i32 6
  %749 = getelementptr inbounds %struct.GPR, %struct.GPR* %748, i32 0, i32 7
  %750 = getelementptr inbounds %struct.Reg, %struct.Reg* %749, i32 0, i32 0
  %DX.i22 = bitcast %union.anon* %750 to i16*
  %751 = getelementptr inbounds %struct.State, %struct.State* %0, i32 0, i32 6
  %752 = getelementptr inbounds %struct.GPR, %struct.GPR* %751, i32 0, i32 15
  %753 = getelementptr inbounds %struct.Reg, %struct.Reg* %752, i32 0, i32 0
  %RBP.i23 = bitcast %union.anon* %753 to i64*
  %754 = load i64, i64* %RBP.i23
  %755 = sub i64 %754, 30
  %756 = load i64, i64* %PC.i21
  %757 = add i64 %756, 4
  store i64 %757, i64* %PC.i21
  %758 = inttoptr i64 %755 to i16*
  %759 = load i16, i16* %758
  store i16 %759, i16* %DX.i22, align 2
  store %struct.Memory* %loadMem_40522d, %struct.Memory** %MEMORY
  %loadMem_405231 = load %struct.Memory*, %struct.Memory** %MEMORY
  %760 = getelementptr inbounds %struct.State, %struct.State* %0, i32 0, i32 6
  %761 = getelementptr inbounds %struct.GPR, %struct.GPR* %760, i32 0, i32 33
  %762 = getelementptr inbounds %struct.Reg, %struct.Reg* %761, i32 0, i32 0
  %PC.i19 = bitcast %union.anon* %762 to i64*
  %763 = getelementptr inbounds %struct.State, %struct.State* %0, i32 0, i32 6
  %764 = getelementptr inbounds %struct.GPR, %struct.GPR* %763, i32 0, i32 7
  %765 = getelementptr inbounds %struct.Reg, %struct.Reg* %764, i32 0, i32 0
  %DX.i = bitcast %union.anon* %765 to i16*
  %766 = getelementptr inbounds %struct.State, %struct.State* %0, i32 0, i32 6
  %767 = getelementptr inbounds %struct.GPR, %struct.GPR* %766, i32 0, i32 11
  %768 = getelementptr inbounds %struct.Reg, %struct.Reg* %767, i32 0, i32 0
  %RDI.i20 = bitcast %union.anon* %768 to i64*
  %769 = load i16, i16* %DX.i
  %770 = zext i16 %769 to i64
  %771 = load i64, i64* %PC.i19
  %772 = add i64 %771, 3
  store i64 %772, i64* %PC.i19
  %773 = trunc i64 %770 to i32
  %774 = shl i32 %773, 16
  %775 = ashr exact i32 %774, 16
  %776 = zext i32 %775 to i64
  store i64 %776, i64* %RDI.i20, align 8
  store %struct.Memory* %loadMem_405231, %struct.Memory** %MEMORY
  %loadMem_405234 = load %struct.Memory*, %struct.Memory** %MEMORY
  %777 = getelementptr inbounds %struct.State, %struct.State* %0, i32 0, i32 6
  %778 = getelementptr inbounds %struct.GPR, %struct.GPR* %777, i32 0, i32 33
  %779 = getelementptr inbounds %struct.Reg, %struct.Reg* %778, i32 0, i32 0
  %PC.i17 = bitcast %union.anon* %779 to i64*
  %780 = getelementptr inbounds %struct.State, %struct.State* %0, i32 0, i32 6
  %781 = getelementptr inbounds %struct.GPR, %struct.GPR* %780, i32 0, i32 9
  %782 = getelementptr inbounds %struct.Reg, %struct.Reg* %781, i32 0, i32 0
  %RSI.i = bitcast %union.anon* %782 to i64*
  %783 = getelementptr inbounds %struct.State, %struct.State* %0, i32 0, i32 6
  %784 = getelementptr inbounds %struct.GPR, %struct.GPR* %783, i32 0, i32 15
  %785 = getelementptr inbounds %struct.Reg, %struct.Reg* %784, i32 0, i32 0
  %RBP.i18 = bitcast %union.anon* %785 to i64*
  %786 = load i64, i64* %RBP.i18
  %787 = sub i64 %786, 14
  %788 = load i64, i64* %PC.i17
  %789 = add i64 %788, 4
  store i64 %789, i64* %PC.i17
  %790 = inttoptr i64 %787 to i16*
  %791 = load i16, i16* %790
  %792 = sext i16 %791 to i64
  %793 = and i64 %792, 4294967295
  store i64 %793, i64* %RSI.i, align 8
  store %struct.Memory* %loadMem_405234, %struct.Memory** %MEMORY
  %loadMem1_405238 = load %struct.Memory*, %struct.Memory** %MEMORY
  %794 = getelementptr inbounds %struct.State, %struct.State* %0, i32 0, i32 6
  %795 = getelementptr inbounds %struct.GPR, %struct.GPR* %794, i32 0, i32 33
  %796 = getelementptr inbounds %struct.Reg, %struct.Reg* %795, i32 0, i32 0
  %PC.i16 = bitcast %union.anon* %796 to i64*
  %797 = load i64, i64* %PC.i16
  %798 = add i64 %797, 52904
  %799 = load i64, i64* %PC.i16
  %800 = add i64 %799, 5
  %801 = load i64, i64* %PC.i16
  %802 = add i64 %801, 5
  store i64 %802, i64* %PC.i16
  %803 = getelementptr inbounds %struct.State, %struct.State* %0, i64 0, i32 6, i32 13, i32 0, i32 0
  %804 = load i64, i64* %803, align 8
  %805 = add i64 %804, -8
  %806 = inttoptr i64 %805 to i64*
  store i64 %800, i64* %806
  store i64 %805, i64* %803, align 8
  %807 = getelementptr inbounds %struct.State, %struct.State* %0, i64 0, i32 6, i32 33, i32 0, i32 0
  store i64 %798, i64* %807, align 8
  store %struct.Memory* %loadMem1_405238, %struct.Memory** %MEMORY
  %loadMem2_405238 = load %struct.Memory*, %struct.Memory** %MEMORY
  %loadPC_405238 = load i64, i64* %3
  %call2_405238 = call %struct.Memory* @sub_4120e0._Z26check_shifted_variable_sumIs19custom_add_variableIsEEvT_S2_(%struct.State* %0, i64 %loadPC_405238, %struct.Memory* %loadMem2_405238)
  store %struct.Memory* %call2_405238, %struct.Memory** %MEMORY
  %loadMem_40523d = load %struct.Memory*, %struct.Memory** %MEMORY
  %808 = getelementptr inbounds %struct.State, %struct.State* %0, i32 0, i32 6
  %809 = getelementptr inbounds %struct.GPR, %struct.GPR* %808, i32 0, i32 33
  %810 = getelementptr inbounds %struct.Reg, %struct.Reg* %809, i32 0, i32 0
  %PC.i13 = bitcast %union.anon* %810 to i64*
  %811 = getelementptr inbounds %struct.State, %struct.State* %0, i32 0, i32 6
  %812 = getelementptr inbounds %struct.GPR, %struct.GPR* %811, i32 0, i32 1
  %813 = getelementptr inbounds %struct.Reg, %struct.Reg* %812, i32 0, i32 0
  %RAX.i14 = bitcast %union.anon* %813 to i64*
  %814 = getelementptr inbounds %struct.State, %struct.State* %0, i32 0, i32 6
  %815 = getelementptr inbounds %struct.GPR, %struct.GPR* %814, i32 0, i32 15
  %816 = getelementptr inbounds %struct.Reg, %struct.Reg* %815, i32 0, i32 0
  %RBP.i15 = bitcast %union.anon* %816 to i64*
  %817 = load i64, i64* %RBP.i15
  %818 = sub i64 %817, 28
  %819 = load i64, i64* %PC.i13
  %820 = add i64 %819, 3
  store i64 %820, i64* %PC.i13
  %821 = inttoptr i64 %818 to i32*
  %822 = load i32, i32* %821
  %823 = zext i32 %822 to i64
  store i64 %823, i64* %RAX.i14, align 8
  store %struct.Memory* %loadMem_40523d, %struct.Memory** %MEMORY
  %loadMem_405240 = load %struct.Memory*, %struct.Memory** %MEMORY
  %824 = getelementptr inbounds %struct.State, %struct.State* %0, i32 0, i32 6
  %825 = getelementptr inbounds %struct.GPR, %struct.GPR* %824, i32 0, i32 33
  %826 = getelementptr inbounds %struct.Reg, %struct.Reg* %825, i32 0, i32 0
  %PC.i12 = bitcast %union.anon* %826 to i64*
  %827 = getelementptr inbounds %struct.State, %struct.State* %0, i32 0, i32 6
  %828 = getelementptr inbounds %struct.GPR, %struct.GPR* %827, i32 0, i32 1
  %829 = getelementptr inbounds %struct.Reg, %struct.Reg* %828, i32 0, i32 0
  %RAX.i = bitcast %union.anon* %829 to i64*
  %830 = load i64, i64* %RAX.i
  %831 = load i64, i64* %PC.i12
  %832 = add i64 %831, 3
  store i64 %832, i64* %PC.i12
  %833 = trunc i64 %830 to i32
  %834 = add i32 1, %833
  %835 = zext i32 %834 to i64
  store i64 %835, i64* %RAX.i, align 8
  %836 = icmp ult i32 %834, %833
  %837 = icmp ult i32 %834, 1
  %838 = or i1 %836, %837
  %839 = zext i1 %838 to i8
  %840 = getelementptr inbounds %struct.State, %struct.State* %0, i64 0, i32 2, i32 1
  store i8 %839, i8* %840, align 1
  %841 = and i32 %834, 255
  %842 = call i32 @llvm.ctpop.i32(i32 %841)
  %843 = trunc i32 %842 to i8
  %844 = and i8 %843, 1
  %845 = xor i8 %844, 1
  %846 = getelementptr inbounds %struct.State, %struct.State* %0, i64 0, i32 2, i32 3
  store i8 %845, i8* %846, align 1
  %847 = xor i64 1, %830
  %848 = trunc i64 %847 to i32
  %849 = xor i32 %848, %834
  %850 = lshr i32 %849, 4
  %851 = trunc i32 %850 to i8
  %852 = and i8 %851, 1
  %853 = getelementptr inbounds %struct.State, %struct.State* %0, i64 0, i32 2, i32 5
  store i8 %852, i8* %853, align 1
  %854 = icmp eq i32 %834, 0
  %855 = zext i1 %854 to i8
  %856 = getelementptr inbounds %struct.State, %struct.State* %0, i64 0, i32 2, i32 7
  store i8 %855, i8* %856, align 1
  %857 = lshr i32 %834, 31
  %858 = trunc i32 %857 to i8
  %859 = getelementptr inbounds %struct.State, %struct.State* %0, i64 0, i32 2, i32 9
  store i8 %858, i8* %859, align 1
  %860 = lshr i32 %833, 31
  %861 = xor i32 %857, %860
  %862 = add i32 %861, %857
  %863 = icmp eq i32 %862, 2
  %864 = zext i1 %863 to i8
  %865 = getelementptr inbounds %struct.State, %struct.State* %0, i64 0, i32 2, i32 13
  store i8 %864, i8* %865, align 1
  store %struct.Memory* %loadMem_405240, %struct.Memory** %MEMORY
  %loadMem_405243 = load %struct.Memory*, %struct.Memory** %MEMORY
  %866 = getelementptr inbounds %struct.State, %struct.State* %0, i32 0, i32 6
  %867 = getelementptr inbounds %struct.GPR, %struct.GPR* %866, i32 0, i32 33
  %868 = getelementptr inbounds %struct.Reg, %struct.Reg* %867, i32 0, i32 0
  %PC.i10 = bitcast %union.anon* %868 to i64*
  %869 = getelementptr inbounds %struct.State, %struct.State* %0, i32 0, i32 6
  %870 = getelementptr inbounds %struct.GPR, %struct.GPR* %869, i32 0, i32 1
  %871 = getelementptr inbounds %struct.Reg, %struct.Reg* %870, i32 0, i32 0
  %EAX.i = bitcast %union.anon* %871 to i32*
  %872 = getelementptr inbounds %struct.State, %struct.State* %0, i32 0, i32 6
  %873 = getelementptr inbounds %struct.GPR, %struct.GPR* %872, i32 0, i32 15
  %874 = getelementptr inbounds %struct.Reg, %struct.Reg* %873, i32 0, i32 0
  %RBP.i11 = bitcast %union.anon* %874 to i64*
  %875 = load i64, i64* %RBP.i11
  %876 = sub i64 %875, 28
  %877 = load i32, i32* %EAX.i
  %878 = zext i32 %877 to i64
  %879 = load i64, i64* %PC.i10
  %880 = add i64 %879, 3
  store i64 %880, i64* %PC.i10
  %881 = inttoptr i64 %876 to i32*
  store i32 %877, i32* %881
  store %struct.Memory* %loadMem_405243, %struct.Memory** %MEMORY
  %loadMem_405246 = load %struct.Memory*, %struct.Memory** %MEMORY
  %882 = getelementptr inbounds %struct.State, %struct.State* %0, i32 0, i32 6
  %883 = getelementptr inbounds %struct.GPR, %struct.GPR* %882, i32 0, i32 33
  %884 = getelementptr inbounds %struct.Reg, %struct.Reg* %883, i32 0, i32 0
  %PC.i9 = bitcast %union.anon* %884 to i64*
  %885 = load i64, i64* %PC.i9
  %886 = add i64 %885, -128
  %887 = load i64, i64* %PC.i9
  %888 = add i64 %887, 5
  store i64 %888, i64* %PC.i9
  %889 = getelementptr inbounds %struct.State, %struct.State* %0, i64 0, i32 6, i32 33, i32 0, i32 0
  store i64 %886, i64* %889, align 8
  store %struct.Memory* %loadMem_405246, %struct.Memory** %MEMORY
  br label %block_.L_4051c6

block_.L_40524b:                                  ; preds = %block_.L_4051c6
  %loadMem1_40524b = load %struct.Memory*, %struct.Memory** %MEMORY
  %890 = getelementptr inbounds %struct.State, %struct.State* %0, i32 0, i32 6
  %891 = getelementptr inbounds %struct.GPR, %struct.GPR* %890, i32 0, i32 33
  %892 = getelementptr inbounds %struct.Reg, %struct.Reg* %891, i32 0, i32 0
  %PC.i8 = bitcast %union.anon* %892 to i64*
  %893 = load i64, i64* %PC.i8
  %894 = add i64 %893, -17371
  %895 = load i64, i64* %PC.i8
  %896 = add i64 %895, 5
  %897 = load i64, i64* %PC.i8
  %898 = add i64 %897, 5
  store i64 %898, i64* %PC.i8
  %899 = getelementptr inbounds %struct.State, %struct.State* %0, i64 0, i32 6, i32 13, i32 0, i32 0
  %900 = load i64, i64* %899, align 8
  %901 = add i64 %900, -8
  %902 = inttoptr i64 %901 to i64*
  store i64 %896, i64* %902
  store i64 %901, i64* %899, align 8
  %903 = getelementptr inbounds %struct.State, %struct.State* %0, i64 0, i32 6, i32 33, i32 0, i32 0
  store i64 %894, i64* %903, align 8
  store %struct.Memory* %loadMem1_40524b, %struct.Memory** %MEMORY
  %loadMem2_40524b = load %struct.Memory*, %struct.Memory** %MEMORY
  %loadPC_40524b = load i64, i64* %3
  %call2_40524b = call %struct.Memory* @sub_400e70._Z5timerv(%struct.State* %0, i64 %loadPC_40524b, %struct.Memory* %loadMem2_40524b)
  store %struct.Memory* %call2_40524b, %struct.Memory** %MEMORY
  %loadMem_405250 = load %struct.Memory*, %struct.Memory** %MEMORY
  %904 = getelementptr inbounds %struct.State, %struct.State* %0, i32 0, i32 6
  %905 = getelementptr inbounds %struct.GPR, %struct.GPR* %904, i32 0, i32 33
  %906 = getelementptr inbounds %struct.Reg, %struct.Reg* %905, i32 0, i32 0
  %PC.i6 = bitcast %union.anon* %906 to i64*
  %907 = getelementptr inbounds %struct.State, %struct.State* %0, i32 0, i32 6
  %908 = getelementptr inbounds %struct.GPR, %struct.GPR* %907, i32 0, i32 11
  %909 = getelementptr inbounds %struct.Reg, %struct.Reg* %908, i32 0, i32 0
  %RDI.i = bitcast %union.anon* %909 to i64*
  %910 = getelementptr inbounds %struct.State, %struct.State* %0, i32 0, i32 6
  %911 = getelementptr inbounds %struct.GPR, %struct.GPR* %910, i32 0, i32 15
  %912 = getelementptr inbounds %struct.Reg, %struct.Reg* %911, i32 0, i32 0
  %RBP.i7 = bitcast %union.anon* %912 to i64*
  %913 = load i64, i64* %RBP.i7
  %914 = sub i64 %913, 24
  %915 = load i64, i64* %PC.i6
  %916 = add i64 %915, 4
  store i64 %916, i64* %PC.i6
  %917 = inttoptr i64 %914 to i64*
  %918 = load i64, i64* %917
  store i64 %918, i64* %RDI.i, align 8
  store %struct.Memory* %loadMem_405250, %struct.Memory** %MEMORY
  %loadMem1_405254 = load %struct.Memory*, %struct.Memory** %MEMORY
  %919 = getelementptr inbounds %struct.State, %struct.State* %0, i32 0, i32 6
  %920 = getelementptr inbounds %struct.GPR, %struct.GPR* %919, i32 0, i32 33
  %921 = getelementptr inbounds %struct.Reg, %struct.Reg* %920, i32 0, i32 0
  %PC.i5 = bitcast %union.anon* %921 to i64*
  %922 = load i64, i64* %PC.i5
  %923 = add i64 %922, -19012
  %924 = load i64, i64* %PC.i5
  %925 = add i64 %924, 5
  %926 = load i64, i64* %PC.i5
  %927 = add i64 %926, 5
  store i64 %927, i64* %PC.i5
  %928 = getelementptr inbounds %struct.State, %struct.State* %0, i64 0, i32 6, i32 13, i32 0, i32 0
  %929 = load i64, i64* %928, align 8
  %930 = add i64 %929, -8
  %931 = inttoptr i64 %930 to i64*
  store i64 %925, i64* %931
  store i64 %930, i64* %928, align 8
  %932 = getelementptr inbounds %struct.State, %struct.State* %0, i64 0, i32 6, i32 33, i32 0, i32 0
  store i64 %923, i64* %932, align 8
  store %struct.Memory* %loadMem1_405254, %struct.Memory** %MEMORY
  %loadMem2_405254 = load %struct.Memory*, %struct.Memory** %MEMORY
  %loadPC_405254 = load i64, i64* %3
  %call2_405254 = call %struct.Memory* @sub_400810._Z13record_resultdPKc(%struct.State* %0, i64 %loadPC_405254, %struct.Memory* %loadMem2_405254)
  store %struct.Memory* %call2_405254, %struct.Memory** %MEMORY
  %loadMem_405259 = load %struct.Memory*, %struct.Memory** %MEMORY
  %933 = getelementptr inbounds %struct.State, %struct.State* %0, i32 0, i32 6
  %934 = getelementptr inbounds %struct.GPR, %struct.GPR* %933, i32 0, i32 33
  %935 = getelementptr inbounds %struct.Reg, %struct.Reg* %934, i32 0, i32 0
  %PC.i4 = bitcast %union.anon* %935 to i64*
  %936 = getelementptr inbounds %struct.State, %struct.State* %0, i32 0, i32 6
  %937 = getelementptr inbounds %struct.GPR, %struct.GPR* %936, i32 0, i32 13
  %938 = getelementptr inbounds %struct.Reg, %struct.Reg* %937, i32 0, i32 0
  %RSP.i = bitcast %union.anon* %938 to i64*
  %939 = load i64, i64* %RSP.i
  %940 = load i64, i64* %PC.i4
  %941 = add i64 %940, 4
  store i64 %941, i64* %PC.i4
  %942 = add i64 48, %939
  store i64 %942, i64* %RSP.i, align 8
  %943 = icmp ult i64 %942, %939
  %944 = icmp ult i64 %942, 48
  %945 = or i1 %943, %944
  %946 = zext i1 %945 to i8
  %947 = getelementptr inbounds %struct.State, %struct.State* %0, i64 0, i32 2, i32 1
  store i8 %946, i8* %947, align 1
  %948 = trunc i64 %942 to i32
  %949 = and i32 %948, 255
  %950 = call i32 @llvm.ctpop.i32(i32 %949)
  %951 = trunc i32 %950 to i8
  %952 = and i8 %951, 1
  %953 = xor i8 %952, 1
  %954 = getelementptr inbounds %struct.State, %struct.State* %0, i64 0, i32 2, i32 3
  store i8 %953, i8* %954, align 1
  %955 = xor i64 48, %939
  %956 = xor i64 %955, %942
  %957 = lshr i64 %956, 4
  %958 = trunc i64 %957 to i8
  %959 = and i8 %958, 1
  %960 = getelementptr inbounds %struct.State, %struct.State* %0, i64 0, i32 2, i32 5
  store i8 %959, i8* %960, align 1
  %961 = icmp eq i64 %942, 0
  %962 = zext i1 %961 to i8
  %963 = getelementptr inbounds %struct.State, %struct.State* %0, i64 0, i32 2, i32 7
  store i8 %962, i8* %963, align 1
  %964 = lshr i64 %942, 63
  %965 = trunc i64 %964 to i8
  %966 = getelementptr inbounds %struct.State, %struct.State* %0, i64 0, i32 2, i32 9
  store i8 %965, i8* %966, align 1
  %967 = lshr i64 %939, 63
  %968 = xor i64 %964, %967
  %969 = add i64 %968, %964
  %970 = icmp eq i64 %969, 2
  %971 = zext i1 %970 to i8
  %972 = getelementptr inbounds %struct.State, %struct.State* %0, i64 0, i32 2, i32 13
  store i8 %971, i8* %972, align 1
  store %struct.Memory* %loadMem_405259, %struct.Memory** %MEMORY
  %loadMem_40525d = load %struct.Memory*, %struct.Memory** %MEMORY
  %973 = getelementptr inbounds %struct.State, %struct.State* %0, i32 0, i32 6
  %974 = getelementptr inbounds %struct.GPR, %struct.GPR* %973, i32 0, i32 33
  %975 = getelementptr inbounds %struct.Reg, %struct.Reg* %974, i32 0, i32 0
  %PC.i2 = bitcast %union.anon* %975 to i64*
  %976 = getelementptr inbounds %struct.State, %struct.State* %0, i32 0, i32 6
  %977 = getelementptr inbounds %struct.GPR, %struct.GPR* %976, i32 0, i32 15
  %978 = getelementptr inbounds %struct.Reg, %struct.Reg* %977, i32 0, i32 0
  %RBP.i3 = bitcast %union.anon* %978 to i64*
  %979 = load i64, i64* %PC.i2
  %980 = add i64 %979, 1
  store i64 %980, i64* %PC.i2
  %981 = getelementptr inbounds %struct.State, %struct.State* %0, i64 0, i32 6, i32 13, i32 0, i32 0
  %982 = load i64, i64* %981, align 8
  %983 = add i64 %982, 8
  %984 = inttoptr i64 %982 to i64*
  %985 = load i64, i64* %984
  store i64 %985, i64* %RBP.i3, align 8
  store i64 %983, i64* %981, align 8
  store %struct.Memory* %loadMem_40525d, %struct.Memory** %MEMORY
  %loadMem_40525e = load %struct.Memory*, %struct.Memory** %MEMORY
  %986 = getelementptr inbounds %struct.State, %struct.State* %0, i32 0, i32 6
  %987 = getelementptr inbounds %struct.GPR, %struct.GPR* %986, i32 0, i32 33
  %988 = getelementptr inbounds %struct.Reg, %struct.Reg* %987, i32 0, i32 0
  %PC.i1 = bitcast %union.anon* %988 to i64*
  %989 = load i64, i64* %PC.i1
  %990 = add i64 %989, 1
  store i64 %990, i64* %PC.i1
  %991 = getelementptr inbounds %struct.State, %struct.State* %0, i64 0, i32 6, i32 33, i32 0, i32 0
  %992 = getelementptr inbounds %struct.State, %struct.State* %0, i64 0, i32 6, i32 13, i32 0, i32 0
  %993 = load i64, i64* %992, align 8
  %994 = inttoptr i64 %993 to i64*
  %995 = load i64, i64* %994
  store i64 %995, i64* %991, align 8
  %996 = add i64 %993, 8
  store i64 %996, i64* %992, align 8
  store %struct.Memory* %loadMem_40525e, %struct.Memory** %MEMORY
  ret %struct.Memory* %loadMem_40525e
}

define %struct.Memory* @routine_pushq__rbp(%struct.State* dereferenceable(3376), i64, %struct.Memory*) {
block_400488:
  %3 = getelementptr inbounds %struct.State, %struct.State* %0, i32 0, i32 6
  %4 = getelementptr inbounds %struct.GPR, %struct.GPR* %3, i32 0, i32 33
  %5 = getelementptr inbounds %struct.Reg, %struct.Reg* %4, i32 0, i32 0
  %PC = bitcast %union.anon* %5 to i64*
  %6 = getelementptr inbounds %struct.State, %struct.State* %0, i32 0, i32 6
  %7 = getelementptr inbounds %struct.GPR, %struct.GPR* %6, i32 0, i32 15
  %8 = getelementptr inbounds %struct.Reg, %struct.Reg* %7, i32 0, i32 0
  %RBP = bitcast %union.anon* %8 to i64*
  %9 = load i64, i64* %RBP
  %10 = load i64, i64* %PC
  %11 = add i64 %10, 1
  store i64 %11, i64* %PC
  %12 = getelementptr inbounds %struct.State, %struct.State* %0, i64 0, i32 6, i32 13, i32 0, i32 0
  %13 = load i64, i64* %12, align 8
  %14 = add i64 %13, -8
  %15 = inttoptr i64 %14 to i64*
  store i64 %9, i64* %15
  store i64 %14, i64* %12, align 8
  ret %struct.Memory* %2
}

define %struct.Memory* @routine_movq__rsp___rbp(%struct.State* dereferenceable(3376), i64, %struct.Memory*) {
block_400488:
  %3 = getelementptr inbounds %struct.State, %struct.State* %0, i32 0, i32 6
  %4 = getelementptr inbounds %struct.GPR, %struct.GPR* %3, i32 0, i32 33
  %5 = getelementptr inbounds %struct.Reg, %struct.Reg* %4, i32 0, i32 0
  %PC = bitcast %union.anon* %5 to i64*
  %6 = getelementptr inbounds %struct.State, %struct.State* %0, i32 0, i32 6
  %7 = getelementptr inbounds %struct.GPR, %struct.GPR* %6, i32 0, i32 13
  %8 = getelementptr inbounds %struct.Reg, %struct.Reg* %7, i32 0, i32 0
  %RSP = bitcast %union.anon* %8 to i64*
  %9 = getelementptr inbounds %struct.State, %struct.State* %0, i32 0, i32 6
  %10 = getelementptr inbounds %struct.GPR, %struct.GPR* %9, i32 0, i32 15
  %11 = getelementptr inbounds %struct.Reg, %struct.Reg* %10, i32 0, i32 0
  %RBP = bitcast %union.anon* %11 to i64*
  %12 = load i64, i64* %RSP
  %13 = load i64, i64* %PC
  %14 = add i64 %13, 3
  store i64 %14, i64* %PC
  store i64 %12, i64* %RBP, align 8
  ret %struct.Memory* %2
}

define %struct.Memory* @routine_subq__0x30___rsp(%struct.State* dereferenceable(3376), i64, %struct.Memory*) {
block_400488:
  %3 = getelementptr inbounds %struct.State, %struct.State* %0, i32 0, i32 6
  %4 = getelementptr inbounds %struct.GPR, %struct.GPR* %3, i32 0, i32 33
  %5 = getelementptr inbounds %struct.Reg, %struct.Reg* %4, i32 0, i32 0
  %PC = bitcast %union.anon* %5 to i64*
  %6 = getelementptr inbounds %struct.State, %struct.State* %0, i32 0, i32 6
  %7 = getelementptr inbounds %struct.GPR, %struct.GPR* %6, i32 0, i32 13
  %8 = getelementptr inbounds %struct.Reg, %struct.Reg* %7, i32 0, i32 0
  %RSP = bitcast %union.anon* %8 to i64*
  %9 = load i64, i64* %RSP
  %10 = load i64, i64* %PC
  %11 = add i64 %10, 4
  store i64 %11, i64* %PC
  %12 = sub i64 %9, 48
  store i64 %12, i64* %RSP, align 8
  %13 = icmp ult i64 %9, 48
  %14 = zext i1 %13 to i8
  %15 = getelementptr inbounds %struct.State, %struct.State* %0, i64 0, i32 2, i32 1
  store i8 %14, i8* %15, align 1
  %16 = trunc i64 %12 to i32
  %17 = and i32 %16, 255
  %18 = call i32 @llvm.ctpop.i32(i32 %17)
  %19 = trunc i32 %18 to i8
  %20 = and i8 %19, 1
  %21 = xor i8 %20, 1
  %22 = getelementptr inbounds %struct.State, %struct.State* %0, i64 0, i32 2, i32 3
  store i8 %21, i8* %22, align 1
  %23 = xor i64 48, %9
  %24 = xor i64 %23, %12
  %25 = lshr i64 %24, 4
  %26 = trunc i64 %25 to i8
  %27 = and i8 %26, 1
  %28 = getelementptr inbounds %struct.State, %struct.State* %0, i64 0, i32 2, i32 5
  store i8 %27, i8* %28, align 1
  %29 = icmp eq i64 %12, 0
  %30 = zext i1 %29 to i8
  %31 = getelementptr inbounds %struct.State, %struct.State* %0, i64 0, i32 2, i32 7
  store i8 %30, i8* %31, align 1
  %32 = lshr i64 %12, 63
  %33 = trunc i64 %32 to i8
  %34 = getelementptr inbounds %struct.State, %struct.State* %0, i64 0, i32 2, i32 9
  store i8 %33, i8* %34, align 1
  %35 = lshr i64 %9, 63
  %36 = xor i64 %32, %35
  %37 = add i64 %36, %35
  %38 = icmp eq i64 %37, 2
  %39 = zext i1 %38 to i8
  %40 = getelementptr inbounds %struct.State, %struct.State* %0, i64 0, i32 2, i32 13
  store i8 %39, i8* %40, align 1
  ret %struct.Memory* %2
}

define %struct.Memory* @routine_movw__dx___ax(%struct.State* dereferenceable(3376), i64, %struct.Memory*) {
block_400488:
  %3 = getelementptr inbounds %struct.State, %struct.State* %0, i32 0, i32 6
  %4 = getelementptr inbounds %struct.GPR, %struct.GPR* %3, i32 0, i32 33
  %5 = getelementptr inbounds %struct.Reg, %struct.Reg* %4, i32 0, i32 0
  %PC = bitcast %union.anon* %5 to i64*
  %6 = getelementptr inbounds %struct.State, %struct.State* %0, i32 0, i32 6
  %7 = getelementptr inbounds %struct.GPR, %struct.GPR* %6, i32 0, i32 1
  %8 = getelementptr inbounds %struct.Reg, %struct.Reg* %7, i32 0, i32 0
  %AX = bitcast %union.anon* %8 to i16*
  %9 = getelementptr inbounds %struct.State, %struct.State* %0, i32 0, i32 6
  %10 = getelementptr inbounds %struct.GPR, %struct.GPR* %9, i32 0, i32 7
  %11 = getelementptr inbounds %struct.Reg, %struct.Reg* %10, i32 0, i32 0
  %DX = bitcast %union.anon* %11 to i16*
  %12 = load i16, i16* %DX
  %13 = zext i16 %12 to i64
  %14 = load i64, i64* %PC
  %15 = add i64 %14, 3
  store i64 %15, i64* %PC
  store i16 %12, i16* %AX, align 2
  ret %struct.Memory* %2
}

define %struct.Memory* @routine_movq__rdi__MINUS0x8__rbp_(%struct.State* dereferenceable(3376), i64, %struct.Memory*) {
block_400488:
  %3 = getelementptr inbounds %struct.State, %struct.State* %0, i32 0, i32 6
  %4 = getelementptr inbounds %struct.GPR, %struct.GPR* %3, i32 0, i32 33
  %5 = getelementptr inbounds %struct.Reg, %struct.Reg* %4, i32 0, i32 0
  %PC = bitcast %union.anon* %5 to i64*
  %6 = getelementptr inbounds %struct.State, %struct.State* %0, i32 0, i32 6
  %7 = getelementptr inbounds %struct.GPR, %struct.GPR* %6, i32 0, i32 11
  %8 = getelementptr inbounds %struct.Reg, %struct.Reg* %7, i32 0, i32 0
  %RDI = bitcast %union.anon* %8 to i64*
  %9 = getelementptr inbounds %struct.State, %struct.State* %0, i32 0, i32 6
  %10 = getelementptr inbounds %struct.GPR, %struct.GPR* %9, i32 0, i32 15
  %11 = getelementptr inbounds %struct.Reg, %struct.Reg* %10, i32 0, i32 0
  %RBP = bitcast %union.anon* %11 to i64*
  %12 = load i64, i64* %RBP
  %13 = sub i64 %12, 8
  %14 = load i64, i64* %RDI
  %15 = load i64, i64* %PC
  %16 = add i64 %15, 4
  store i64 %16, i64* %PC
  %17 = inttoptr i64 %13 to i64*
  store i64 %14, i64* %17
  ret %struct.Memory* %2
}

define %struct.Memory* @routine_movl__esi__MINUS0xc__rbp_(%struct.State* dereferenceable(3376), i64, %struct.Memory*) {
block_400488:
  %3 = getelementptr inbounds %struct.State, %struct.State* %0, i32 0, i32 6
  %4 = getelementptr inbounds %struct.GPR, %struct.GPR* %3, i32 0, i32 33
  %5 = getelementptr inbounds %struct.Reg, %struct.Reg* %4, i32 0, i32 0
  %PC = bitcast %union.anon* %5 to i64*
  %6 = getelementptr inbounds %struct.State, %struct.State* %0, i32 0, i32 6
  %7 = getelementptr inbounds %struct.GPR, %struct.GPR* %6, i32 0, i32 9
  %8 = getelementptr inbounds %struct.Reg, %struct.Reg* %7, i32 0, i32 0
  %ESI = bitcast %union.anon* %8 to i32*
  %9 = getelementptr inbounds %struct.State, %struct.State* %0, i32 0, i32 6
  %10 = getelementptr inbounds %struct.GPR, %struct.GPR* %9, i32 0, i32 15
  %11 = getelementptr inbounds %struct.Reg, %struct.Reg* %10, i32 0, i32 0
  %RBP = bitcast %union.anon* %11 to i64*
  %12 = load i64, i64* %RBP
  %13 = sub i64 %12, 12
  %14 = load i32, i32* %ESI
  %15 = zext i32 %14 to i64
  %16 = load i64, i64* %PC
  %17 = add i64 %16, 3
  store i64 %17, i64* %PC
  %18 = inttoptr i64 %13 to i32*
  store i32 %14, i32* %18
  ret %struct.Memory* %2
}

define %struct.Memory* @routine_movw__ax__MINUS0xe__rbp_(%struct.State* dereferenceable(3376), i64, %struct.Memory*) {
block_400488:
  %3 = getelementptr inbounds %struct.State, %struct.State* %0, i32 0, i32 6
  %4 = getelementptr inbounds %struct.GPR, %struct.GPR* %3, i32 0, i32 33
  %5 = getelementptr inbounds %struct.Reg, %struct.Reg* %4, i32 0, i32 0
  %PC = bitcast %union.anon* %5 to i64*
  %6 = getelementptr inbounds %struct.State, %struct.State* %0, i32 0, i32 6
  %7 = getelementptr inbounds %struct.GPR, %struct.GPR* %6, i32 0, i32 1
  %8 = getelementptr inbounds %struct.Reg, %struct.Reg* %7, i32 0, i32 0
  %AX = bitcast %union.anon* %8 to i16*
  %9 = getelementptr inbounds %struct.State, %struct.State* %0, i32 0, i32 6
  %10 = getelementptr inbounds %struct.GPR, %struct.GPR* %9, i32 0, i32 15
  %11 = getelementptr inbounds %struct.Reg, %struct.Reg* %10, i32 0, i32 0
  %RBP = bitcast %union.anon* %11 to i64*
  %12 = load i64, i64* %RBP
  %13 = sub i64 %12, 14
  %14 = load i16, i16* %AX
  %15 = zext i16 %14 to i64
  %16 = load i64, i64* %PC
  %17 = add i64 %16, 4
  store i64 %17, i64* %PC
  %18 = inttoptr i64 %13 to i16*
  store i16 %14, i16* %18
  ret %struct.Memory* %2
}

define %struct.Memory* @routine_movq__rcx__MINUS0x18__rbp_(%struct.State* dereferenceable(3376), i64, %struct.Memory*) {
block_400488:
  %3 = getelementptr inbounds %struct.State, %struct.State* %0, i32 0, i32 6
  %4 = getelementptr inbounds %struct.GPR, %struct.GPR* %3, i32 0, i32 33
  %5 = getelementptr inbounds %struct.Reg, %struct.Reg* %4, i32 0, i32 0
  %PC = bitcast %union.anon* %5 to i64*
  %6 = getelementptr inbounds %struct.State, %struct.State* %0, i32 0, i32 6
  %7 = getelementptr inbounds %struct.GPR, %struct.GPR* %6, i32 0, i32 5
  %8 = getelementptr inbounds %struct.Reg, %struct.Reg* %7, i32 0, i32 0
  %RCX = bitcast %union.anon* %8 to i64*
  %9 = getelementptr inbounds %struct.State, %struct.State* %0, i32 0, i32 6
  %10 = getelementptr inbounds %struct.GPR, %struct.GPR* %9, i32 0, i32 15
  %11 = getelementptr inbounds %struct.Reg, %struct.Reg* %10, i32 0, i32 0
  %RBP = bitcast %union.anon* %11 to i64*
  %12 = load i64, i64* %RBP
  %13 = sub i64 %12, 24
  %14 = load i64, i64* %RCX
  %15 = load i64, i64* %PC
  %16 = add i64 %15, 4
  store i64 %16, i64* %PC
  %17 = inttoptr i64 %13 to i64*
  store i64 %14, i64* %17
  ret %struct.Memory* %2
}

define %struct.Memory* @routine_callq_._Z11start_timerv(%struct.State* dereferenceable(3376), i64, %struct.Memory*, i64 %rel_off1, i64 %rel_off2, i64 %rel_off3) {
block_400488:
  %3 = getelementptr inbounds %struct.State, %struct.State* %0, i32 0, i32 6
  %4 = getelementptr inbounds %struct.GPR, %struct.GPR* %3, i32 0, i32 33
  %5 = getelementptr inbounds %struct.Reg, %struct.Reg* %4, i32 0, i32 0
  %PC = bitcast %union.anon* %5 to i64*
  %6 = load i64, i64* %PC
  %7 = add i64 %6, %rel_off1
  %8 = load i64, i64* %PC
  %9 = add i64 %8, %rel_off2
  %10 = load i64, i64* %PC
  %11 = add i64 %10, %rel_off3
  store i64 %11, i64* %PC
  %12 = getelementptr inbounds %struct.State, %struct.State* %0, i64 0, i32 6, i32 13, i32 0, i32 0
  %13 = load i64, i64* %12, align 8
  %14 = add i64 %13, -8
  %15 = inttoptr i64 %14 to i64*
  store i64 %9, i64* %15
  store i64 %14, i64* %12, align 8
  %16 = getelementptr inbounds %struct.State, %struct.State* %0, i64 0, i32 6, i32 33, i32 0, i32 0
  store i64 %7, i64* %16, align 8
  ret %struct.Memory* %2
}

define %struct.Memory* @routine_movl__0x0__MINUS0x1c__rbp_(%struct.State* dereferenceable(3376), i64, %struct.Memory*) {
block_400488:
  %3 = getelementptr inbounds %struct.State, %struct.State* %0, i32 0, i32 6
  %4 = getelementptr inbounds %struct.GPR, %struct.GPR* %3, i32 0, i32 33
  %5 = getelementptr inbounds %struct.Reg, %struct.Reg* %4, i32 0, i32 0
  %PC = bitcast %union.anon* %5 to i64*
  %6 = getelementptr inbounds %struct.State, %struct.State* %0, i32 0, i32 6
  %7 = getelementptr inbounds %struct.GPR, %struct.GPR* %6, i32 0, i32 15
  %8 = getelementptr inbounds %struct.Reg, %struct.Reg* %7, i32 0, i32 0
  %RBP = bitcast %union.anon* %8 to i64*
  %9 = load i64, i64* %RBP
  %10 = sub i64 %9, 28
  %11 = load i64, i64* %PC
  %12 = add i64 %11, 7
  store i64 %12, i64* %PC
  %13 = inttoptr i64 %10 to i32*
  store i32 0, i32* %13
  ret %struct.Memory* %2
}

define %struct.Memory* @routine_movl_MINUS0x1c__rbp____eax(%struct.State* dereferenceable(3376), i64, %struct.Memory*) {
block_400488:
  %3 = getelementptr inbounds %struct.State, %struct.State* %0, i32 0, i32 6
  %4 = getelementptr inbounds %struct.GPR, %struct.GPR* %3, i32 0, i32 33
  %5 = getelementptr inbounds %struct.Reg, %struct.Reg* %4, i32 0, i32 0
  %PC = bitcast %union.anon* %5 to i64*
  %6 = getelementptr inbounds %struct.State, %struct.State* %0, i32 0, i32 6
  %7 = getelementptr inbounds %struct.GPR, %struct.GPR* %6, i32 0, i32 1
  %8 = getelementptr inbounds %struct.Reg, %struct.Reg* %7, i32 0, i32 0
  %RAX = bitcast %union.anon* %8 to i64*
  %9 = getelementptr inbounds %struct.State, %struct.State* %0, i32 0, i32 6
  %10 = getelementptr inbounds %struct.GPR, %struct.GPR* %9, i32 0, i32 15
  %11 = getelementptr inbounds %struct.Reg, %struct.Reg* %10, i32 0, i32 0
  %RBP = bitcast %union.anon* %11 to i64*
  %12 = load i64, i64* %RBP
  %13 = sub i64 %12, 28
  %14 = load i64, i64* %PC
  %15 = add i64 %14, 3
  store i64 %15, i64* %PC
  %16 = inttoptr i64 %13 to i32*
  %17 = load i32, i32* %16
  %18 = zext i32 %17 to i64
  store i64 %18, i64* %RAX, align 8
  ret %struct.Memory* %2
}

define %struct.Memory* @routine_cmpl_0x61a080___eax(%struct.State* dereferenceable(3376), i64, %struct.Memory*) {
block_400488:
  %3 = getelementptr inbounds %struct.State, %struct.State* %0, i32 0, i32 6
  %4 = getelementptr inbounds %struct.GPR, %struct.GPR* %3, i32 0, i32 33
  %5 = getelementptr inbounds %struct.Reg, %struct.Reg* %4, i32 0, i32 0
  %PC = bitcast %union.anon* %5 to i64*
  %6 = getelementptr inbounds %struct.State, %struct.State* %0, i32 0, i32 6
  %7 = getelementptr inbounds %struct.GPR, %struct.GPR* %6, i32 0, i32 1
  %8 = getelementptr inbounds %struct.Reg, %struct.Reg* %7, i32 0, i32 0
  %EAX = bitcast %union.anon* %8 to i32*
  %9 = load i32, i32* %EAX
  %10 = zext i32 %9 to i64
  %11 = load i64, i64* %PC
  %12 = add i64 %11, 7
  store i64 %12, i64* %PC
  %13 = load i32, i32* inttoptr (i64 6398080 to i32*)
  %14 = sub i32 %9, %13
  %15 = icmp ult i32 %9, %13
  %16 = zext i1 %15 to i8
  %17 = getelementptr inbounds %struct.State, %struct.State* %0, i64 0, i32 2, i32 1
  store i8 %16, i8* %17, align 1
  %18 = and i32 %14, 255
  %19 = call i32 @llvm.ctpop.i32(i32 %18)
  %20 = trunc i32 %19 to i8
  %21 = and i8 %20, 1
  %22 = xor i8 %21, 1
  %23 = getelementptr inbounds %struct.State, %struct.State* %0, i64 0, i32 2, i32 3
  store i8 %22, i8* %23, align 1
  %24 = xor i32 %13, %9
  %25 = xor i32 %24, %14
  %26 = lshr i32 %25, 4
  %27 = trunc i32 %26 to i8
  %28 = and i8 %27, 1
  %29 = getelementptr inbounds %struct.State, %struct.State* %0, i64 0, i32 2, i32 5
  store i8 %28, i8* %29, align 1
  %30 = icmp eq i32 %14, 0
  %31 = zext i1 %30 to i8
  %32 = getelementptr inbounds %struct.State, %struct.State* %0, i64 0, i32 2, i32 7
  store i8 %31, i8* %32, align 1
  %33 = lshr i32 %14, 31
  %34 = trunc i32 %33 to i8
  %35 = getelementptr inbounds %struct.State, %struct.State* %0, i64 0, i32 2, i32 9
  store i8 %34, i8* %35, align 1
  %36 = lshr i32 %9, 31
  %37 = lshr i32 %13, 31
  %38 = xor i32 %37, %36
  %39 = xor i32 %33, %36
  %40 = add i32 %39, %38
  %41 = icmp eq i32 %40, 2
  %42 = zext i1 %41 to i8
  %43 = getelementptr inbounds %struct.State, %struct.State* %0, i64 0, i32 2, i32 13
  store i8 %42, i8* %43, align 1
  ret %struct.Memory* %2
}

define %struct.Memory* @routine_jge_.L_40524b(%struct.State* dereferenceable(3376), i64, %struct.Memory*, i8* %BRANCH_TAKEN, i64 %rel_off1, i64 %rel_off2, i64 %rel_off3) {
block_400488:
  %3 = getelementptr inbounds %struct.State, %struct.State* %0, i32 0, i32 6
  %4 = getelementptr inbounds %struct.GPR, %struct.GPR* %3, i32 0, i32 33
  %5 = getelementptr inbounds %struct.Reg, %struct.Reg* %4, i32 0, i32 0
  %PC = bitcast %union.anon* %5 to i64*
  %6 = load i64, i64* %PC
  %7 = add i64 %6, %rel_off1
  %8 = load i64, i64* %PC
  %9 = add i64 %8, %rel_off2
  %10 = load i64, i64* %PC
  %11 = add i64 %10, %rel_off3
  store i64 %11, i64* %PC
  %12 = getelementptr inbounds %struct.State, %struct.State* %0, i64 0, i32 2, i32 9
  %13 = load i8, i8* %12, align 1
  %14 = icmp ne i8 %13, 0
  %15 = getelementptr inbounds %struct.State, %struct.State* %0, i64 0, i32 2, i32 13
  %16 = load i8, i8* %15, align 1
  %17 = icmp ne i8 %16, 0
  %18 = xor i1 %14, %17
  %19 = xor i1 %18, true
  %20 = zext i1 %19 to i8
  store i8 %20, i8* %BRANCH_TAKEN, align 1
  %21 = getelementptr inbounds %struct.State, %struct.State* %0, i64 0, i32 6, i32 33, i32 0, i32 0
  %22 = select i1 %18, i64 %9, i64 %7
  store i64 %22, i64* %21, align 8
  ret %struct.Memory* %2
}

define %struct.Memory* @routine_movw__0x0__MINUS0x1e__rbp_(%struct.State* dereferenceable(3376), i64, %struct.Memory*) {
block_400488:
  %3 = getelementptr inbounds %struct.State, %struct.State* %0, i32 0, i32 6
  %4 = getelementptr inbounds %struct.GPR, %struct.GPR* %3, i32 0, i32 33
  %5 = getelementptr inbounds %struct.Reg, %struct.Reg* %4, i32 0, i32 0
  %PC = bitcast %union.anon* %5 to i64*
  %6 = getelementptr inbounds %struct.State, %struct.State* %0, i32 0, i32 6
  %7 = getelementptr inbounds %struct.GPR, %struct.GPR* %6, i32 0, i32 15
  %8 = getelementptr inbounds %struct.Reg, %struct.Reg* %7, i32 0, i32 0
  %RBP = bitcast %union.anon* %8 to i64*
  %9 = load i64, i64* %RBP
  %10 = sub i64 %9, 30
  %11 = load i64, i64* %PC
  %12 = add i64 %11, 6
  store i64 %12, i64* %PC
  %13 = inttoptr i64 %10 to i16*
  store i16 0, i16* %13
  ret %struct.Memory* %2
}

define %struct.Memory* @routine_movl__0x0__MINUS0x24__rbp_(%struct.State* dereferenceable(3376), i64, %struct.Memory*) {
block_400488:
  %3 = getelementptr inbounds %struct.State, %struct.State* %0, i32 0, i32 6
  %4 = getelementptr inbounds %struct.GPR, %struct.GPR* %3, i32 0, i32 33
  %5 = getelementptr inbounds %struct.Reg, %struct.Reg* %4, i32 0, i32 0
  %PC = bitcast %union.anon* %5 to i64*
  %6 = getelementptr inbounds %struct.State, %struct.State* %0, i32 0, i32 6
  %7 = getelementptr inbounds %struct.GPR, %struct.GPR* %6, i32 0, i32 15
  %8 = getelementptr inbounds %struct.Reg, %struct.Reg* %7, i32 0, i32 0
  %RBP = bitcast %union.anon* %8 to i64*
  %9 = load i64, i64* %RBP
  %10 = sub i64 %9, 36
  %11 = load i64, i64* %PC
  %12 = add i64 %11, 7
  store i64 %12, i64* %PC
  %13 = inttoptr i64 %10 to i32*
  store i32 0, i32* %13
  ret %struct.Memory* %2
}

define %struct.Memory* @routine_movl_MINUS0x24__rbp____eax(%struct.State* dereferenceable(3376), i64, %struct.Memory*) {
block_400488:
  %3 = getelementptr inbounds %struct.State, %struct.State* %0, i32 0, i32 6
  %4 = getelementptr inbounds %struct.GPR, %struct.GPR* %3, i32 0, i32 33
  %5 = getelementptr inbounds %struct.Reg, %struct.Reg* %4, i32 0, i32 0
  %PC = bitcast %union.anon* %5 to i64*
  %6 = getelementptr inbounds %struct.State, %struct.State* %0, i32 0, i32 6
  %7 = getelementptr inbounds %struct.GPR, %struct.GPR* %6, i32 0, i32 1
  %8 = getelementptr inbounds %struct.Reg, %struct.Reg* %7, i32 0, i32 0
  %RAX = bitcast %union.anon* %8 to i64*
  %9 = getelementptr inbounds %struct.State, %struct.State* %0, i32 0, i32 6
  %10 = getelementptr inbounds %struct.GPR, %struct.GPR* %9, i32 0, i32 15
  %11 = getelementptr inbounds %struct.Reg, %struct.Reg* %10, i32 0, i32 0
  %RBP = bitcast %union.anon* %11 to i64*
  %12 = load i64, i64* %RBP
  %13 = sub i64 %12, 36
  %14 = load i64, i64* %PC
  %15 = add i64 %14, 3
  store i64 %15, i64* %PC
  %16 = inttoptr i64 %13 to i32*
  %17 = load i32, i32* %16
  %18 = zext i32 %17 to i64
  store i64 %18, i64* %RAX, align 8
  ret %struct.Memory* %2
}

define %struct.Memory* @routine_cmpl_MINUS0xc__rbp____eax(%struct.State* dereferenceable(3376), i64, %struct.Memory*) {
block_400488:
  %3 = getelementptr inbounds %struct.State, %struct.State* %0, i32 0, i32 6
  %4 = getelementptr inbounds %struct.GPR, %struct.GPR* %3, i32 0, i32 33
  %5 = getelementptr inbounds %struct.Reg, %struct.Reg* %4, i32 0, i32 0
  %PC = bitcast %union.anon* %5 to i64*
  %6 = getelementptr inbounds %struct.State, %struct.State* %0, i32 0, i32 6
  %7 = getelementptr inbounds %struct.GPR, %struct.GPR* %6, i32 0, i32 1
  %8 = getelementptr inbounds %struct.Reg, %struct.Reg* %7, i32 0, i32 0
  %EAX = bitcast %union.anon* %8 to i32*
  %9 = getelementptr inbounds %struct.State, %struct.State* %0, i32 0, i32 6
  %10 = getelementptr inbounds %struct.GPR, %struct.GPR* %9, i32 0, i32 15
  %11 = getelementptr inbounds %struct.Reg, %struct.Reg* %10, i32 0, i32 0
  %RBP = bitcast %union.anon* %11 to i64*
  %12 = load i32, i32* %EAX
  %13 = zext i32 %12 to i64
  %14 = load i64, i64* %RBP
  %15 = sub i64 %14, 12
  %16 = load i64, i64* %PC
  %17 = add i64 %16, 3
  store i64 %17, i64* %PC
  %18 = inttoptr i64 %15 to i32*
  %19 = load i32, i32* %18
  %20 = sub i32 %12, %19
  %21 = icmp ult i32 %12, %19
  %22 = zext i1 %21 to i8
  %23 = getelementptr inbounds %struct.State, %struct.State* %0, i64 0, i32 2, i32 1
  store i8 %22, i8* %23, align 1
  %24 = and i32 %20, 255
  %25 = call i32 @llvm.ctpop.i32(i32 %24)
  %26 = trunc i32 %25 to i8
  %27 = and i8 %26, 1
  %28 = xor i8 %27, 1
  %29 = getelementptr inbounds %struct.State, %struct.State* %0, i64 0, i32 2, i32 3
  store i8 %28, i8* %29, align 1
  %30 = xor i32 %19, %12
  %31 = xor i32 %30, %20
  %32 = lshr i32 %31, 4
  %33 = trunc i32 %32 to i8
  %34 = and i8 %33, 1
  %35 = getelementptr inbounds %struct.State, %struct.State* %0, i64 0, i32 2, i32 5
  store i8 %34, i8* %35, align 1
  %36 = icmp eq i32 %20, 0
  %37 = zext i1 %36 to i8
  %38 = getelementptr inbounds %struct.State, %struct.State* %0, i64 0, i32 2, i32 7
  store i8 %37, i8* %38, align 1
  %39 = lshr i32 %20, 31
  %40 = trunc i32 %39 to i8
  %41 = getelementptr inbounds %struct.State, %struct.State* %0, i64 0, i32 2, i32 9
  store i8 %40, i8* %41, align 1
  %42 = lshr i32 %12, 31
  %43 = lshr i32 %19, 31
  %44 = xor i32 %43, %42
  %45 = xor i32 %39, %42
  %46 = add i32 %45, %44
  %47 = icmp eq i32 %46, 2
  %48 = zext i1 %47 to i8
  %49 = getelementptr inbounds %struct.State, %struct.State* %0, i64 0, i32 2, i32 13
  store i8 %48, i8* %49, align 1
  ret %struct.Memory* %2
}

define %struct.Memory* @routine_jge_.L_405216(%struct.State* dereferenceable(3376), i64, %struct.Memory*, i8* %BRANCH_TAKEN, i64 %rel_off1, i64 %rel_off2, i64 %rel_off3) {
block_400488:
  %3 = getelementptr inbounds %struct.State, %struct.State* %0, i32 0, i32 6
  %4 = getelementptr inbounds %struct.GPR, %struct.GPR* %3, i32 0, i32 33
  %5 = getelementptr inbounds %struct.Reg, %struct.Reg* %4, i32 0, i32 0
  %PC = bitcast %union.anon* %5 to i64*
  %6 = load i64, i64* %PC
  %7 = add i64 %6, %rel_off1
  %8 = load i64, i64* %PC
  %9 = add i64 %8, %rel_off2
  %10 = load i64, i64* %PC
  %11 = add i64 %10, %rel_off3
  store i64 %11, i64* %PC
  %12 = getelementptr inbounds %struct.State, %struct.State* %0, i64 0, i32 2, i32 9
  %13 = load i8, i8* %12, align 1
  %14 = icmp ne i8 %13, 0
  %15 = getelementptr inbounds %struct.State, %struct.State* %0, i64 0, i32 2, i32 13
  %16 = load i8, i8* %15, align 1
  %17 = icmp ne i8 %16, 0
  %18 = xor i1 %14, %17
  %19 = xor i1 %18, true
  %20 = zext i1 %19 to i8
  store i8 %20, i8* %BRANCH_TAKEN, align 1
  %21 = getelementptr inbounds %struct.State, %struct.State* %0, i64 0, i32 6, i32 33, i32 0, i32 0
  %22 = select i1 %18, i64 %9, i64 %7
  store i64 %22, i64* %21, align 8
  ret %struct.Memory* %2
}

define %struct.Memory* @routine_movq_MINUS0x8__rbp____rax(%struct.State* dereferenceable(3376), i64, %struct.Memory*) {
block_400488:
  %3 = getelementptr inbounds %struct.State, %struct.State* %0, i32 0, i32 6
  %4 = getelementptr inbounds %struct.GPR, %struct.GPR* %3, i32 0, i32 33
  %5 = getelementptr inbounds %struct.Reg, %struct.Reg* %4, i32 0, i32 0
  %PC = bitcast %union.anon* %5 to i64*
  %6 = getelementptr inbounds %struct.State, %struct.State* %0, i32 0, i32 6
  %7 = getelementptr inbounds %struct.GPR, %struct.GPR* %6, i32 0, i32 1
  %8 = getelementptr inbounds %struct.Reg, %struct.Reg* %7, i32 0, i32 0
  %RAX = bitcast %union.anon* %8 to i64*
  %9 = getelementptr inbounds %struct.State, %struct.State* %0, i32 0, i32 6
  %10 = getelementptr inbounds %struct.GPR, %struct.GPR* %9, i32 0, i32 15
  %11 = getelementptr inbounds %struct.Reg, %struct.Reg* %10, i32 0, i32 0
  %RBP = bitcast %union.anon* %11 to i64*
  %12 = load i64, i64* %RBP
  %13 = sub i64 %12, 8
  %14 = load i64, i64* %PC
  %15 = add i64 %14, 4
  store i64 %15, i64* %PC
  %16 = inttoptr i64 %13 to i64*
  %17 = load i64, i64* %16
  store i64 %17, i64* %RAX, align 8
  ret %struct.Memory* %2
}

define %struct.Memory* @routine_movslq_MINUS0x24__rbp____rcx(%struct.State* dereferenceable(3376), i64, %struct.Memory*) {
block_400488:
  %3 = getelementptr inbounds %struct.State, %struct.State* %0, i32 0, i32 6
  %4 = getelementptr inbounds %struct.GPR, %struct.GPR* %3, i32 0, i32 33
  %5 = getelementptr inbounds %struct.Reg, %struct.Reg* %4, i32 0, i32 0
  %PC = bitcast %union.anon* %5 to i64*
  %6 = getelementptr inbounds %struct.State, %struct.State* %0, i32 0, i32 6
  %7 = getelementptr inbounds %struct.GPR, %struct.GPR* %6, i32 0, i32 5
  %8 = getelementptr inbounds %struct.Reg, %struct.Reg* %7, i32 0, i32 0
  %RCX = bitcast %union.anon* %8 to i64*
  %9 = getelementptr inbounds %struct.State, %struct.State* %0, i32 0, i32 6
  %10 = getelementptr inbounds %struct.GPR, %struct.GPR* %9, i32 0, i32 15
  %11 = getelementptr inbounds %struct.Reg, %struct.Reg* %10, i32 0, i32 0
  %RBP = bitcast %union.anon* %11 to i64*
  %12 = load i64, i64* %RBP
  %13 = sub i64 %12, 36
  %14 = load i64, i64* %PC
  %15 = add i64 %14, 4
  store i64 %15, i64* %PC
  %16 = inttoptr i64 %13 to i32*
  %17 = load i32, i32* %16
  %18 = sext i32 %17 to i64
  store i64 %18, i64* %RCX, align 8
  ret %struct.Memory* %2
}

define %struct.Memory* @routine_movswl___rax__rcx_2____edx(%struct.State* dereferenceable(3376), i64, %struct.Memory*) {
block_400488:
  %3 = getelementptr inbounds %struct.State, %struct.State* %0, i32 0, i32 6
  %4 = getelementptr inbounds %struct.GPR, %struct.GPR* %3, i32 0, i32 33
  %5 = getelementptr inbounds %struct.Reg, %struct.Reg* %4, i32 0, i32 0
  %PC = bitcast %union.anon* %5 to i64*
  %6 = getelementptr inbounds %struct.State, %struct.State* %0, i32 0, i32 6
  %7 = getelementptr inbounds %struct.GPR, %struct.GPR* %6, i32 0, i32 1
  %8 = getelementptr inbounds %struct.Reg, %struct.Reg* %7, i32 0, i32 0
  %RAX = bitcast %union.anon* %8 to i64*
  %9 = getelementptr inbounds %struct.State, %struct.State* %0, i32 0, i32 6
  %10 = getelementptr inbounds %struct.GPR, %struct.GPR* %9, i32 0, i32 5
  %11 = getelementptr inbounds %struct.Reg, %struct.Reg* %10, i32 0, i32 0
  %RCX = bitcast %union.anon* %11 to i64*
  %12 = getelementptr inbounds %struct.State, %struct.State* %0, i32 0, i32 6
  %13 = getelementptr inbounds %struct.GPR, %struct.GPR* %12, i32 0, i32 7
  %14 = getelementptr inbounds %struct.Reg, %struct.Reg* %13, i32 0, i32 0
  %RDX = bitcast %union.anon* %14 to i64*
  %15 = load i64, i64* %RAX
  %16 = load i64, i64* %RCX
  %17 = mul i64 %16, 2
  %18 = add i64 %17, %15
  %19 = load i64, i64* %PC
  %20 = add i64 %19, 4
  store i64 %20, i64* %PC
  %21 = inttoptr i64 %18 to i16*
  %22 = load i16, i16* %21
  %23 = sext i16 %22 to i64
  %24 = and i64 %23, 4294967295
  store i64 %24, i64* %RDX, align 8
  ret %struct.Memory* %2
}

define %struct.Memory* @routine_movswl_MINUS0x1e__rbp____esi(%struct.State* dereferenceable(3376), i64, %struct.Memory*) {
block_400488:
  %3 = getelementptr inbounds %struct.State, %struct.State* %0, i32 0, i32 6
  %4 = getelementptr inbounds %struct.GPR, %struct.GPR* %3, i32 0, i32 33
  %5 = getelementptr inbounds %struct.Reg, %struct.Reg* %4, i32 0, i32 0
  %PC = bitcast %union.anon* %5 to i64*
  %6 = getelementptr inbounds %struct.State, %struct.State* %0, i32 0, i32 6
  %7 = getelementptr inbounds %struct.GPR, %struct.GPR* %6, i32 0, i32 9
  %8 = getelementptr inbounds %struct.Reg, %struct.Reg* %7, i32 0, i32 0
  %RSI = bitcast %union.anon* %8 to i64*
  %9 = getelementptr inbounds %struct.State, %struct.State* %0, i32 0, i32 6
  %10 = getelementptr inbounds %struct.GPR, %struct.GPR* %9, i32 0, i32 15
  %11 = getelementptr inbounds %struct.Reg, %struct.Reg* %10, i32 0, i32 0
  %RBP = bitcast %union.anon* %11 to i64*
  %12 = load i64, i64* %RBP
  %13 = sub i64 %12, 30
  %14 = load i64, i64* %PC
  %15 = add i64 %14, 4
  store i64 %15, i64* %PC
  %16 = inttoptr i64 %13 to i16*
  %17 = load i16, i16* %16
  %18 = sext i16 %17 to i64
  %19 = and i64 %18, 4294967295
  store i64 %19, i64* %RSI, align 8
  ret %struct.Memory* %2
}

define %struct.Memory* @routine_addl__edx___esi(%struct.State* dereferenceable(3376), i64, %struct.Memory*) {
block_400488:
  %3 = getelementptr inbounds %struct.State, %struct.State* %0, i32 0, i32 6
  %4 = getelementptr inbounds %struct.GPR, %struct.GPR* %3, i32 0, i32 33
  %5 = getelementptr inbounds %struct.Reg, %struct.Reg* %4, i32 0, i32 0
  %PC = bitcast %union.anon* %5 to i64*
  %6 = getelementptr inbounds %struct.State, %struct.State* %0, i32 0, i32 6
  %7 = getelementptr inbounds %struct.GPR, %struct.GPR* %6, i32 0, i32 7
  %8 = getelementptr inbounds %struct.Reg, %struct.Reg* %7, i32 0, i32 0
  %EDX = bitcast %union.anon* %8 to i32*
  %9 = getelementptr inbounds %struct.State, %struct.State* %0, i32 0, i32 6
  %10 = getelementptr inbounds %struct.GPR, %struct.GPR* %9, i32 0, i32 9
  %11 = getelementptr inbounds %struct.Reg, %struct.Reg* %10, i32 0, i32 0
  %RSI = bitcast %union.anon* %11 to i64*
  %12 = load i64, i64* %RSI
  %13 = load i32, i32* %EDX
  %14 = zext i32 %13 to i64
  %15 = load i64, i64* %PC
  %16 = add i64 %15, 2
  store i64 %16, i64* %PC
  %17 = trunc i64 %12 to i32
  %18 = add i32 %13, %17
  %19 = zext i32 %18 to i64
  store i64 %19, i64* %RSI, align 8
  %20 = icmp ult i32 %18, %17
  %21 = icmp ult i32 %18, %13
  %22 = or i1 %20, %21
  %23 = zext i1 %22 to i8
  %24 = getelementptr inbounds %struct.State, %struct.State* %0, i64 0, i32 2, i32 1
  store i8 %23, i8* %24, align 1
  %25 = and i32 %18, 255
  %26 = call i32 @llvm.ctpop.i32(i32 %25)
  %27 = trunc i32 %26 to i8
  %28 = and i8 %27, 1
  %29 = xor i8 %28, 1
  %30 = getelementptr inbounds %struct.State, %struct.State* %0, i64 0, i32 2, i32 3
  store i8 %29, i8* %30, align 1
  %31 = xor i64 %14, %12
  %32 = trunc i64 %31 to i32
  %33 = xor i32 %32, %18
  %34 = lshr i32 %33, 4
  %35 = trunc i32 %34 to i8
  %36 = and i8 %35, 1
  %37 = getelementptr inbounds %struct.State, %struct.State* %0, i64 0, i32 2, i32 5
  store i8 %36, i8* %37, align 1
  %38 = icmp eq i32 %18, 0
  %39 = zext i1 %38 to i8
  %40 = getelementptr inbounds %struct.State, %struct.State* %0, i64 0, i32 2, i32 7
  store i8 %39, i8* %40, align 1
  %41 = lshr i32 %18, 31
  %42 = trunc i32 %41 to i8
  %43 = getelementptr inbounds %struct.State, %struct.State* %0, i64 0, i32 2, i32 9
  store i8 %42, i8* %43, align 1
  %44 = lshr i32 %17, 31
  %45 = lshr i32 %13, 31
  %46 = xor i32 %41, %44
  %47 = xor i32 %41, %45
  %48 = add i32 %46, %47
  %49 = icmp eq i32 %48, 2
  %50 = zext i1 %49 to i8
  %51 = getelementptr inbounds %struct.State, %struct.State* %0, i64 0, i32 2, i32 13
  store i8 %50, i8* %51, align 1
  ret %struct.Memory* %2
}

define %struct.Memory* @routine_movw__si___di(%struct.State* dereferenceable(3376), i64, %struct.Memory*) {
block_400488:
  %3 = getelementptr inbounds %struct.State, %struct.State* %0, i32 0, i32 6
  %4 = getelementptr inbounds %struct.GPR, %struct.GPR* %3, i32 0, i32 33
  %5 = getelementptr inbounds %struct.Reg, %struct.Reg* %4, i32 0, i32 0
  %PC = bitcast %union.anon* %5 to i64*
  %6 = getelementptr inbounds %struct.State, %struct.State* %0, i32 0, i32 6
  %7 = getelementptr inbounds %struct.GPR, %struct.GPR* %6, i32 0, i32 9
  %8 = getelementptr inbounds %struct.Reg, %struct.Reg* %7, i32 0, i32 0
  %SI = bitcast %union.anon* %8 to i16*
  %9 = getelementptr inbounds %struct.State, %struct.State* %0, i32 0, i32 6
  %10 = getelementptr inbounds %struct.GPR, %struct.GPR* %9, i32 0, i32 11
  %11 = getelementptr inbounds %struct.Reg, %struct.Reg* %10, i32 0, i32 0
  %DI = bitcast %union.anon* %11 to i16*
  %12 = load i16, i16* %SI
  %13 = zext i16 %12 to i64
  %14 = load i64, i64* %PC
  %15 = add i64 %14, 3
  store i64 %15, i64* %PC
  store i16 %12, i16* %DI, align 2
  ret %struct.Memory* %2
}

define %struct.Memory* @routine_movw__di__MINUS0x1e__rbp_(%struct.State* dereferenceable(3376), i64, %struct.Memory*) {
block_400488:
  %3 = getelementptr inbounds %struct.State, %struct.State* %0, i32 0, i32 6
  %4 = getelementptr inbounds %struct.GPR, %struct.GPR* %3, i32 0, i32 33
  %5 = getelementptr inbounds %struct.Reg, %struct.Reg* %4, i32 0, i32 0
  %PC = bitcast %union.anon* %5 to i64*
  %6 = getelementptr inbounds %struct.State, %struct.State* %0, i32 0, i32 6
  %7 = getelementptr inbounds %struct.GPR, %struct.GPR* %6, i32 0, i32 11
  %8 = getelementptr inbounds %struct.Reg, %struct.Reg* %7, i32 0, i32 0
  %DI = bitcast %union.anon* %8 to i16*
  %9 = getelementptr inbounds %struct.State, %struct.State* %0, i32 0, i32 6
  %10 = getelementptr inbounds %struct.GPR, %struct.GPR* %9, i32 0, i32 15
  %11 = getelementptr inbounds %struct.Reg, %struct.Reg* %10, i32 0, i32 0
  %RBP = bitcast %union.anon* %11 to i64*
  %12 = load i64, i64* %RBP
  %13 = sub i64 %12, 30
  %14 = load i16, i16* %DI
  %15 = zext i16 %14 to i64
  %16 = load i64, i64* %PC
  %17 = add i64 %16, 4
  store i64 %17, i64* %PC
  %18 = inttoptr i64 %13 to i16*
  store i16 %14, i16* %18
  ret %struct.Memory* %2
}

define %struct.Memory* @routine_addl__0x1___eax(%struct.State* dereferenceable(3376), i64, %struct.Memory*) {
block_400488:
  %3 = getelementptr inbounds %struct.State, %struct.State* %0, i32 0, i32 6
  %4 = getelementptr inbounds %struct.GPR, %struct.GPR* %3, i32 0, i32 33
  %5 = getelementptr inbounds %struct.Reg, %struct.Reg* %4, i32 0, i32 0
  %PC = bitcast %union.anon* %5 to i64*
  %6 = getelementptr inbounds %struct.State, %struct.State* %0, i32 0, i32 6
  %7 = getelementptr inbounds %struct.GPR, %struct.GPR* %6, i32 0, i32 1
  %8 = getelementptr inbounds %struct.Reg, %struct.Reg* %7, i32 0, i32 0
  %RAX = bitcast %union.anon* %8 to i64*
  %9 = load i64, i64* %RAX
  %10 = load i64, i64* %PC
  %11 = add i64 %10, 3
  store i64 %11, i64* %PC
  %12 = trunc i64 %9 to i32
  %13 = add i32 1, %12
  %14 = zext i32 %13 to i64
  store i64 %14, i64* %RAX, align 8
  %15 = icmp ult i32 %13, %12
  %16 = icmp ult i32 %13, 1
  %17 = or i1 %15, %16
  %18 = zext i1 %17 to i8
  %19 = getelementptr inbounds %struct.State, %struct.State* %0, i64 0, i32 2, i32 1
  store i8 %18, i8* %19, align 1
  %20 = and i32 %13, 255
  %21 = call i32 @llvm.ctpop.i32(i32 %20)
  %22 = trunc i32 %21 to i8
  %23 = and i8 %22, 1
  %24 = xor i8 %23, 1
  %25 = getelementptr inbounds %struct.State, %struct.State* %0, i64 0, i32 2, i32 3
  store i8 %24, i8* %25, align 1
  %26 = xor i64 1, %9
  %27 = trunc i64 %26 to i32
  %28 = xor i32 %27, %13
  %29 = lshr i32 %28, 4
  %30 = trunc i32 %29 to i8
  %31 = and i8 %30, 1
  %32 = getelementptr inbounds %struct.State, %struct.State* %0, i64 0, i32 2, i32 5
  store i8 %31, i8* %32, align 1
  %33 = icmp eq i32 %13, 0
  %34 = zext i1 %33 to i8
  %35 = getelementptr inbounds %struct.State, %struct.State* %0, i64 0, i32 2, i32 7
  store i8 %34, i8* %35, align 1
  %36 = lshr i32 %13, 31
  %37 = trunc i32 %36 to i8
  %38 = getelementptr inbounds %struct.State, %struct.State* %0, i64 0, i32 2, i32 9
  store i8 %37, i8* %38, align 1
  %39 = lshr i32 %12, 31
  %40 = xor i32 %36, %39
  %41 = add i32 %40, %36
  %42 = icmp eq i32 %41, 2
  %43 = zext i1 %42 to i8
  %44 = getelementptr inbounds %struct.State, %struct.State* %0, i64 0, i32 2, i32 13
  store i8 %43, i8* %44, align 1
  ret %struct.Memory* %2
}

define %struct.Memory* @routine_movl__eax__MINUS0x24__rbp_(%struct.State* dereferenceable(3376), i64, %struct.Memory*) {
block_400488:
  %3 = getelementptr inbounds %struct.State, %struct.State* %0, i32 0, i32 6
  %4 = getelementptr inbounds %struct.GPR, %struct.GPR* %3, i32 0, i32 33
  %5 = getelementptr inbounds %struct.Reg, %struct.Reg* %4, i32 0, i32 0
  %PC = bitcast %union.anon* %5 to i64*
  %6 = getelementptr inbounds %struct.State, %struct.State* %0, i32 0, i32 6
  %7 = getelementptr inbounds %struct.GPR, %struct.GPR* %6, i32 0, i32 1
  %8 = getelementptr inbounds %struct.Reg, %struct.Reg* %7, i32 0, i32 0
  %EAX = bitcast %union.anon* %8 to i32*
  %9 = getelementptr inbounds %struct.State, %struct.State* %0, i32 0, i32 6
  %10 = getelementptr inbounds %struct.GPR, %struct.GPR* %9, i32 0, i32 15
  %11 = getelementptr inbounds %struct.Reg, %struct.Reg* %10, i32 0, i32 0
  %RBP = bitcast %union.anon* %11 to i64*
  %12 = load i64, i64* %RBP
  %13 = sub i64 %12, 36
  %14 = load i32, i32* %EAX
  %15 = zext i32 %14 to i64
  %16 = load i64, i64* %PC
  %17 = add i64 %16, 3
  store i64 %17, i64* %PC
  %18 = inttoptr i64 %13 to i32*
  store i32 %14, i32* %18
  ret %struct.Memory* %2
}

define %struct.Memory* @routine_jmpq_.L_4051e3(%struct.State* dereferenceable(3376), i64, %struct.Memory*, i64 %rel_off1, i64 %rel_off2) {
block_400488:
  %3 = getelementptr inbounds %struct.State, %struct.State* %0, i32 0, i32 6
  %4 = getelementptr inbounds %struct.GPR, %struct.GPR* %3, i32 0, i32 33
  %5 = getelementptr inbounds %struct.Reg, %struct.Reg* %4, i32 0, i32 0
  %PC = bitcast %union.anon* %5 to i64*
  %6 = load i64, i64* %PC
  %7 = add i64 %6, %rel_off1
  %8 = load i64, i64* %PC
  %9 = add i64 %8, %rel_off2
  store i64 %9, i64* %PC
  %10 = getelementptr inbounds %struct.State, %struct.State* %0, i64 0, i32 6, i32 33, i32 0, i32 0
  store i64 %7, i64* %10, align 8
  ret %struct.Memory* %2
}

define %struct.Memory* @routine_movl_MINUS0xc__rbp____eax(%struct.State* dereferenceable(3376), i64, %struct.Memory*) {
block_400488:
  %3 = getelementptr inbounds %struct.State, %struct.State* %0, i32 0, i32 6
  %4 = getelementptr inbounds %struct.GPR, %struct.GPR* %3, i32 0, i32 33
  %5 = getelementptr inbounds %struct.Reg, %struct.Reg* %4, i32 0, i32 0
  %PC = bitcast %union.anon* %5 to i64*
  %6 = getelementptr inbounds %struct.State, %struct.State* %0, i32 0, i32 6
  %7 = getelementptr inbounds %struct.GPR, %struct.GPR* %6, i32 0, i32 1
  %8 = getelementptr inbounds %struct.Reg, %struct.Reg* %7, i32 0, i32 0
  %RAX = bitcast %union.anon* %8 to i64*
  %9 = getelementptr inbounds %struct.State, %struct.State* %0, i32 0, i32 6
  %10 = getelementptr inbounds %struct.GPR, %struct.GPR* %9, i32 0, i32 15
  %11 = getelementptr inbounds %struct.Reg, %struct.Reg* %10, i32 0, i32 0
  %RBP = bitcast %union.anon* %11 to i64*
  %12 = load i64, i64* %RBP
  %13 = sub i64 %12, 12
  %14 = load i64, i64* %PC
  %15 = add i64 %14, 3
  store i64 %15, i64* %PC
  %16 = inttoptr i64 %13 to i32*
  %17 = load i32, i32* %16
  %18 = zext i32 %17 to i64
  store i64 %18, i64* %RAX, align 8
  ret %struct.Memory* %2
}

define %struct.Memory* @routine_movswl_MINUS0xe__rbp____ecx(%struct.State* dereferenceable(3376), i64, %struct.Memory*) {
block_400488:
  %3 = getelementptr inbounds %struct.State, %struct.State* %0, i32 0, i32 6
  %4 = getelementptr inbounds %struct.GPR, %struct.GPR* %3, i32 0, i32 33
  %5 = getelementptr inbounds %struct.Reg, %struct.Reg* %4, i32 0, i32 0
  %PC = bitcast %union.anon* %5 to i64*
  %6 = getelementptr inbounds %struct.State, %struct.State* %0, i32 0, i32 6
  %7 = getelementptr inbounds %struct.GPR, %struct.GPR* %6, i32 0, i32 5
  %8 = getelementptr inbounds %struct.Reg, %struct.Reg* %7, i32 0, i32 0
  %RCX = bitcast %union.anon* %8 to i64*
  %9 = getelementptr inbounds %struct.State, %struct.State* %0, i32 0, i32 6
  %10 = getelementptr inbounds %struct.GPR, %struct.GPR* %9, i32 0, i32 15
  %11 = getelementptr inbounds %struct.Reg, %struct.Reg* %10, i32 0, i32 0
  %RBP = bitcast %union.anon* %11 to i64*
  %12 = load i64, i64* %RBP
  %13 = sub i64 %12, 14
  %14 = load i64, i64* %PC
  %15 = add i64 %14, 4
  store i64 %15, i64* %PC
  %16 = inttoptr i64 %13 to i16*
  %17 = load i16, i16* %16
  %18 = sext i16 %17 to i64
  %19 = and i64 %18, 4294967295
  store i64 %19, i64* %RCX, align 8
  ret %struct.Memory* %2
}

define %struct.Memory* @routine_imull__ecx___eax(%struct.State* dereferenceable(3376), i64, %struct.Memory*) {
block_400488:
  %3 = getelementptr inbounds %struct.State, %struct.State* %0, i32 0, i32 6
  %4 = getelementptr inbounds %struct.GPR, %struct.GPR* %3, i32 0, i32 33
  %5 = getelementptr inbounds %struct.Reg, %struct.Reg* %4, i32 0, i32 0
  %PC = bitcast %union.anon* %5 to i64*
  %6 = getelementptr inbounds %struct.State, %struct.State* %0, i32 0, i32 6
  %7 = getelementptr inbounds %struct.GPR, %struct.GPR* %6, i32 0, i32 5
  %8 = getelementptr inbounds %struct.Reg, %struct.Reg* %7, i32 0, i32 0
  %ECX = bitcast %union.anon* %8 to i32*
  %9 = getelementptr inbounds %struct.State, %struct.State* %0, i32 0, i32 6
  %10 = getelementptr inbounds %struct.GPR, %struct.GPR* %9, i32 0, i32 1
  %11 = getelementptr inbounds %struct.Reg, %struct.Reg* %10, i32 0, i32 0
  %RAX = bitcast %union.anon* %11 to i64*
  %12 = load i64, i64* %RAX
  %13 = load i32, i32* %ECX
  %14 = zext i32 %13 to i64
  %15 = load i64, i64* %PC
  %16 = add i64 %15, 3
  store i64 %16, i64* %PC
  %17 = shl i64 %12, 32
  %18 = ashr exact i64 %17, 32
  %19 = shl i64 %14, 32
  %20 = ashr exact i64 %19, 32
  %21 = mul i64 %20, %18
  %22 = trunc i64 %21 to i32
  %23 = and i64 %21, 4294967295
  store i64 %23, i64* %RAX, align 8
  %24 = shl i64 %21, 32
  %25 = ashr exact i64 %24, 32
  %26 = icmp ne i64 %25, %21
  %27 = zext i1 %26 to i8
  %28 = getelementptr inbounds %struct.State, %struct.State* %0, i64 0, i32 2, i32 1
  store i8 %27, i8* %28, align 1
  %29 = and i32 %22, 255
  %30 = call i32 @llvm.ctpop.i32(i32 %29)
  %31 = trunc i32 %30 to i8
  %32 = and i8 %31, 1
  %33 = xor i8 %32, 1
  %34 = getelementptr inbounds %struct.State, %struct.State* %0, i64 0, i32 2, i32 3
  store i8 %33, i8* %34, align 1
  %35 = getelementptr inbounds %struct.State, %struct.State* %0, i64 0, i32 2, i32 5
  store i8 0, i8* %35, align 1
  %36 = getelementptr inbounds %struct.State, %struct.State* %0, i64 0, i32 2, i32 7
  store i8 0, i8* %36, align 1
  %37 = lshr i32 %22, 31
  %38 = trunc i32 %37 to i8
  %39 = getelementptr inbounds %struct.State, %struct.State* %0, i64 0, i32 2, i32 9
  store i8 %38, i8* %39, align 1
  %40 = getelementptr inbounds %struct.State, %struct.State* %0, i64 0, i32 2, i32 13
  store i8 %27, i8* %40, align 1
  ret %struct.Memory* %2
}

define %struct.Memory* @routine_movswl_MINUS0x1e__rbp____ecx(%struct.State* dereferenceable(3376), i64, %struct.Memory*) {
block_400488:
  %3 = getelementptr inbounds %struct.State, %struct.State* %0, i32 0, i32 6
  %4 = getelementptr inbounds %struct.GPR, %struct.GPR* %3, i32 0, i32 33
  %5 = getelementptr inbounds %struct.Reg, %struct.Reg* %4, i32 0, i32 0
  %PC = bitcast %union.anon* %5 to i64*
  %6 = getelementptr inbounds %struct.State, %struct.State* %0, i32 0, i32 6
  %7 = getelementptr inbounds %struct.GPR, %struct.GPR* %6, i32 0, i32 5
  %8 = getelementptr inbounds %struct.Reg, %struct.Reg* %7, i32 0, i32 0
  %RCX = bitcast %union.anon* %8 to i64*
  %9 = getelementptr inbounds %struct.State, %struct.State* %0, i32 0, i32 6
  %10 = getelementptr inbounds %struct.GPR, %struct.GPR* %9, i32 0, i32 15
  %11 = getelementptr inbounds %struct.Reg, %struct.Reg* %10, i32 0, i32 0
  %RBP = bitcast %union.anon* %11 to i64*
  %12 = load i64, i64* %RBP
  %13 = sub i64 %12, 30
  %14 = load i64, i64* %PC
  %15 = add i64 %14, 4
  store i64 %15, i64* %PC
  %16 = inttoptr i64 %13 to i16*
  %17 = load i16, i16* %16
  %18 = sext i16 %17 to i64
  %19 = and i64 %18, 4294967295
  store i64 %19, i64* %RCX, align 8
  ret %struct.Memory* %2
}

define %struct.Memory* @routine_addl__eax___ecx(%struct.State* dereferenceable(3376), i64, %struct.Memory*) {
block_400488:
  %3 = getelementptr inbounds %struct.State, %struct.State* %0, i32 0, i32 6
  %4 = getelementptr inbounds %struct.GPR, %struct.GPR* %3, i32 0, i32 33
  %5 = getelementptr inbounds %struct.Reg, %struct.Reg* %4, i32 0, i32 0
  %PC = bitcast %union.anon* %5 to i64*
  %6 = getelementptr inbounds %struct.State, %struct.State* %0, i32 0, i32 6
  %7 = getelementptr inbounds %struct.GPR, %struct.GPR* %6, i32 0, i32 1
  %8 = getelementptr inbounds %struct.Reg, %struct.Reg* %7, i32 0, i32 0
  %EAX = bitcast %union.anon* %8 to i32*
  %9 = getelementptr inbounds %struct.State, %struct.State* %0, i32 0, i32 6
  %10 = getelementptr inbounds %struct.GPR, %struct.GPR* %9, i32 0, i32 5
  %11 = getelementptr inbounds %struct.Reg, %struct.Reg* %10, i32 0, i32 0
  %RCX = bitcast %union.anon* %11 to i64*
  %12 = load i64, i64* %RCX
  %13 = load i32, i32* %EAX
  %14 = zext i32 %13 to i64
  %15 = load i64, i64* %PC
  %16 = add i64 %15, 2
  store i64 %16, i64* %PC
  %17 = trunc i64 %12 to i32
  %18 = add i32 %13, %17
  %19 = zext i32 %18 to i64
  store i64 %19, i64* %RCX, align 8
  %20 = icmp ult i32 %18, %17
  %21 = icmp ult i32 %18, %13
  %22 = or i1 %20, %21
  %23 = zext i1 %22 to i8
  %24 = getelementptr inbounds %struct.State, %struct.State* %0, i64 0, i32 2, i32 1
  store i8 %23, i8* %24, align 1
  %25 = and i32 %18, 255
  %26 = call i32 @llvm.ctpop.i32(i32 %25)
  %27 = trunc i32 %26 to i8
  %28 = and i8 %27, 1
  %29 = xor i8 %28, 1
  %30 = getelementptr inbounds %struct.State, %struct.State* %0, i64 0, i32 2, i32 3
  store i8 %29, i8* %30, align 1
  %31 = xor i64 %14, %12
  %32 = trunc i64 %31 to i32
  %33 = xor i32 %32, %18
  %34 = lshr i32 %33, 4
  %35 = trunc i32 %34 to i8
  %36 = and i8 %35, 1
  %37 = getelementptr inbounds %struct.State, %struct.State* %0, i64 0, i32 2, i32 5
  store i8 %36, i8* %37, align 1
  %38 = icmp eq i32 %18, 0
  %39 = zext i1 %38 to i8
  %40 = getelementptr inbounds %struct.State, %struct.State* %0, i64 0, i32 2, i32 7
  store i8 %39, i8* %40, align 1
  %41 = lshr i32 %18, 31
  %42 = trunc i32 %41 to i8
  %43 = getelementptr inbounds %struct.State, %struct.State* %0, i64 0, i32 2, i32 9
  store i8 %42, i8* %43, align 1
  %44 = lshr i32 %17, 31
  %45 = lshr i32 %13, 31
  %46 = xor i32 %41, %44
  %47 = xor i32 %41, %45
  %48 = add i32 %46, %47
  %49 = icmp eq i32 %48, 2
  %50 = zext i1 %49 to i8
  %51 = getelementptr inbounds %struct.State, %struct.State* %0, i64 0, i32 2, i32 13
  store i8 %50, i8* %51, align 1
  ret %struct.Memory* %2
}

define %struct.Memory* @routine_movw__cx___dx(%struct.State* dereferenceable(3376), i64, %struct.Memory*) {
block_400488:
  %3 = getelementptr inbounds %struct.State, %struct.State* %0, i32 0, i32 6
  %4 = getelementptr inbounds %struct.GPR, %struct.GPR* %3, i32 0, i32 33
  %5 = getelementptr inbounds %struct.Reg, %struct.Reg* %4, i32 0, i32 0
  %PC = bitcast %union.anon* %5 to i64*
  %6 = getelementptr inbounds %struct.State, %struct.State* %0, i32 0, i32 6
  %7 = getelementptr inbounds %struct.GPR, %struct.GPR* %6, i32 0, i32 5
  %8 = getelementptr inbounds %struct.Reg, %struct.Reg* %7, i32 0, i32 0
  %CX = bitcast %union.anon* %8 to i16*
  %9 = getelementptr inbounds %struct.State, %struct.State* %0, i32 0, i32 6
  %10 = getelementptr inbounds %struct.GPR, %struct.GPR* %9, i32 0, i32 7
  %11 = getelementptr inbounds %struct.Reg, %struct.Reg* %10, i32 0, i32 0
  %DX = bitcast %union.anon* %11 to i16*
  %12 = load i16, i16* %CX
  %13 = zext i16 %12 to i64
  %14 = load i64, i64* %PC
  %15 = add i64 %14, 3
  store i64 %15, i64* %PC
  store i16 %12, i16* %DX, align 2
  ret %struct.Memory* %2
}

define %struct.Memory* @routine_movw__dx__MINUS0x1e__rbp_(%struct.State* dereferenceable(3376), i64, %struct.Memory*) {
block_400488:
  %3 = getelementptr inbounds %struct.State, %struct.State* %0, i32 0, i32 6
  %4 = getelementptr inbounds %struct.GPR, %struct.GPR* %3, i32 0, i32 33
  %5 = getelementptr inbounds %struct.Reg, %struct.Reg* %4, i32 0, i32 0
  %PC = bitcast %union.anon* %5 to i64*
  %6 = getelementptr inbounds %struct.State, %struct.State* %0, i32 0, i32 6
  %7 = getelementptr inbounds %struct.GPR, %struct.GPR* %6, i32 0, i32 7
  %8 = getelementptr inbounds %struct.Reg, %struct.Reg* %7, i32 0, i32 0
  %DX = bitcast %union.anon* %8 to i16*
  %9 = getelementptr inbounds %struct.State, %struct.State* %0, i32 0, i32 6
  %10 = getelementptr inbounds %struct.GPR, %struct.GPR* %9, i32 0, i32 15
  %11 = getelementptr inbounds %struct.Reg, %struct.Reg* %10, i32 0, i32 0
  %RBP = bitcast %union.anon* %11 to i64*
  %12 = load i64, i64* %RBP
  %13 = sub i64 %12, 30
  %14 = load i16, i16* %DX
  %15 = zext i16 %14 to i64
  %16 = load i64, i64* %PC
  %17 = add i64 %16, 4
  store i64 %17, i64* %PC
  %18 = inttoptr i64 %13 to i16*
  store i16 %14, i16* %18
  ret %struct.Memory* %2
}

define %struct.Memory* @routine_movw_MINUS0x1e__rbp____dx(%struct.State* dereferenceable(3376), i64, %struct.Memory*) {
block_400488:
  %3 = getelementptr inbounds %struct.State, %struct.State* %0, i32 0, i32 6
  %4 = getelementptr inbounds %struct.GPR, %struct.GPR* %3, i32 0, i32 33
  %5 = getelementptr inbounds %struct.Reg, %struct.Reg* %4, i32 0, i32 0
  %PC = bitcast %union.anon* %5 to i64*
  %6 = getelementptr inbounds %struct.State, %struct.State* %0, i32 0, i32 6
  %7 = getelementptr inbounds %struct.GPR, %struct.GPR* %6, i32 0, i32 7
  %8 = getelementptr inbounds %struct.Reg, %struct.Reg* %7, i32 0, i32 0
  %DX = bitcast %union.anon* %8 to i16*
  %9 = getelementptr inbounds %struct.State, %struct.State* %0, i32 0, i32 6
  %10 = getelementptr inbounds %struct.GPR, %struct.GPR* %9, i32 0, i32 15
  %11 = getelementptr inbounds %struct.Reg, %struct.Reg* %10, i32 0, i32 0
  %RBP = bitcast %union.anon* %11 to i64*
  %12 = load i64, i64* %RBP
  %13 = sub i64 %12, 30
  %14 = load i64, i64* %PC
  %15 = add i64 %14, 4
  store i64 %15, i64* %PC
  %16 = inttoptr i64 %13 to i16*
  %17 = load i16, i16* %16
  store i16 %17, i16* %DX, align 2
  ret %struct.Memory* %2
}

define %struct.Memory* @routine_movswl__dx___edi(%struct.State* dereferenceable(3376), i64, %struct.Memory*) {
block_400488:
  %3 = getelementptr inbounds %struct.State, %struct.State* %0, i32 0, i32 6
  %4 = getelementptr inbounds %struct.GPR, %struct.GPR* %3, i32 0, i32 33
  %5 = getelementptr inbounds %struct.Reg, %struct.Reg* %4, i32 0, i32 0
  %PC = bitcast %union.anon* %5 to i64*
  %6 = getelementptr inbounds %struct.State, %struct.State* %0, i32 0, i32 6
  %7 = getelementptr inbounds %struct.GPR, %struct.GPR* %6, i32 0, i32 7
  %8 = getelementptr inbounds %struct.Reg, %struct.Reg* %7, i32 0, i32 0
  %DX = bitcast %union.anon* %8 to i16*
  %9 = getelementptr inbounds %struct.State, %struct.State* %0, i32 0, i32 6
  %10 = getelementptr inbounds %struct.GPR, %struct.GPR* %9, i32 0, i32 11
  %11 = getelementptr inbounds %struct.Reg, %struct.Reg* %10, i32 0, i32 0
  %RDI = bitcast %union.anon* %11 to i64*
  %12 = load i16, i16* %DX
  %13 = zext i16 %12 to i64
  %14 = load i64, i64* %PC
  %15 = add i64 %14, 3
  store i64 %15, i64* %PC
  %16 = trunc i64 %13 to i32
  %17 = shl i32 %16, 16
  %18 = ashr exact i32 %17, 16
  %19 = zext i32 %18 to i64
  store i64 %19, i64* %RDI, align 8
  ret %struct.Memory* %2
}

define %struct.Memory* @routine_movswl_MINUS0xe__rbp____esi(%struct.State* dereferenceable(3376), i64, %struct.Memory*) {
block_400488:
  %3 = getelementptr inbounds %struct.State, %struct.State* %0, i32 0, i32 6
  %4 = getelementptr inbounds %struct.GPR, %struct.GPR* %3, i32 0, i32 33
  %5 = getelementptr inbounds %struct.Reg, %struct.Reg* %4, i32 0, i32 0
  %PC = bitcast %union.anon* %5 to i64*
  %6 = getelementptr inbounds %struct.State, %struct.State* %0, i32 0, i32 6
  %7 = getelementptr inbounds %struct.GPR, %struct.GPR* %6, i32 0, i32 9
  %8 = getelementptr inbounds %struct.Reg, %struct.Reg* %7, i32 0, i32 0
  %RSI = bitcast %union.anon* %8 to i64*
  %9 = getelementptr inbounds %struct.State, %struct.State* %0, i32 0, i32 6
  %10 = getelementptr inbounds %struct.GPR, %struct.GPR* %9, i32 0, i32 15
  %11 = getelementptr inbounds %struct.Reg, %struct.Reg* %10, i32 0, i32 0
  %RBP = bitcast %union.anon* %11 to i64*
  %12 = load i64, i64* %RBP
  %13 = sub i64 %12, 14
  %14 = load i64, i64* %PC
  %15 = add i64 %14, 4
  store i64 %15, i64* %PC
  %16 = inttoptr i64 %13 to i16*
  %17 = load i16, i16* %16
  %18 = sext i16 %17 to i64
  %19 = and i64 %18, 4294967295
  store i64 %19, i64* %RSI, align 8
  ret %struct.Memory* %2
}

define %struct.Memory* @routine_callq_._Z26check_shifted_variable_sumIs19custom_add_variableIsEEvT_S2_(%struct.State* dereferenceable(3376), i64, %struct.Memory*, i64 %rel_off1, i64 %rel_off2, i64 %rel_off3) {
block_400488:
  %3 = getelementptr inbounds %struct.State, %struct.State* %0, i32 0, i32 6
  %4 = getelementptr inbounds %struct.GPR, %struct.GPR* %3, i32 0, i32 33
  %5 = getelementptr inbounds %struct.Reg, %struct.Reg* %4, i32 0, i32 0
  %PC = bitcast %union.anon* %5 to i64*
  %6 = load i64, i64* %PC
  %7 = add i64 %6, %rel_off1
  %8 = load i64, i64* %PC
  %9 = add i64 %8, %rel_off2
  %10 = load i64, i64* %PC
  %11 = add i64 %10, %rel_off3
  store i64 %11, i64* %PC
  %12 = getelementptr inbounds %struct.State, %struct.State* %0, i64 0, i32 6, i32 13, i32 0, i32 0
  %13 = load i64, i64* %12, align 8
  %14 = add i64 %13, -8
  %15 = inttoptr i64 %14 to i64*
  store i64 %9, i64* %15
  store i64 %14, i64* %12, align 8
  %16 = getelementptr inbounds %struct.State, %struct.State* %0, i64 0, i32 6, i32 33, i32 0, i32 0
  store i64 %7, i64* %16, align 8
  ret %struct.Memory* %2
}

define %struct.Memory* @routine_movl__eax__MINUS0x1c__rbp_(%struct.State* dereferenceable(3376), i64, %struct.Memory*) {
block_400488:
  %3 = getelementptr inbounds %struct.State, %struct.State* %0, i32 0, i32 6
  %4 = getelementptr inbounds %struct.GPR, %struct.GPR* %3, i32 0, i32 33
  %5 = getelementptr inbounds %struct.Reg, %struct.Reg* %4, i32 0, i32 0
  %PC = bitcast %union.anon* %5 to i64*
  %6 = getelementptr inbounds %struct.State, %struct.State* %0, i32 0, i32 6
  %7 = getelementptr inbounds %struct.GPR, %struct.GPR* %6, i32 0, i32 1
  %8 = getelementptr inbounds %struct.Reg, %struct.Reg* %7, i32 0, i32 0
  %EAX = bitcast %union.anon* %8 to i32*
  %9 = getelementptr inbounds %struct.State, %struct.State* %0, i32 0, i32 6
  %10 = getelementptr inbounds %struct.GPR, %struct.GPR* %9, i32 0, i32 15
  %11 = getelementptr inbounds %struct.Reg, %struct.Reg* %10, i32 0, i32 0
  %RBP = bitcast %union.anon* %11 to i64*
  %12 = load i64, i64* %RBP
  %13 = sub i64 %12, 28
  %14 = load i32, i32* %EAX
  %15 = zext i32 %14 to i64
  %16 = load i64, i64* %PC
  %17 = add i64 %16, 3
  store i64 %17, i64* %PC
  %18 = inttoptr i64 %13 to i32*
  store i32 %14, i32* %18
  ret %struct.Memory* %2
}

define %struct.Memory* @routine_jmpq_.L_4051c6(%struct.State* dereferenceable(3376), i64, %struct.Memory*, i64 %rel_off1, i64 %rel_off2) {
block_400488:
  %3 = getelementptr inbounds %struct.State, %struct.State* %0, i32 0, i32 6
  %4 = getelementptr inbounds %struct.GPR, %struct.GPR* %3, i32 0, i32 33
  %5 = getelementptr inbounds %struct.Reg, %struct.Reg* %4, i32 0, i32 0
  %PC = bitcast %union.anon* %5 to i64*
  %6 = load i64, i64* %PC
  %7 = add i64 %6, %rel_off1
  %8 = load i64, i64* %PC
  %9 = add i64 %8, %rel_off2
  store i64 %9, i64* %PC
  %10 = getelementptr inbounds %struct.State, %struct.State* %0, i64 0, i32 6, i32 33, i32 0, i32 0
  store i64 %7, i64* %10, align 8
  ret %struct.Memory* %2
}

define %struct.Memory* @routine_callq_._Z5timerv(%struct.State* dereferenceable(3376), i64, %struct.Memory*, i64 %rel_off1, i64 %rel_off2, i64 %rel_off3) {
block_400488:
  %3 = getelementptr inbounds %struct.State, %struct.State* %0, i32 0, i32 6
  %4 = getelementptr inbounds %struct.GPR, %struct.GPR* %3, i32 0, i32 33
  %5 = getelementptr inbounds %struct.Reg, %struct.Reg* %4, i32 0, i32 0
  %PC = bitcast %union.anon* %5 to i64*
  %6 = load i64, i64* %PC
  %7 = add i64 %6, %rel_off1
  %8 = load i64, i64* %PC
  %9 = add i64 %8, %rel_off2
  %10 = load i64, i64* %PC
  %11 = add i64 %10, %rel_off3
  store i64 %11, i64* %PC
  %12 = getelementptr inbounds %struct.State, %struct.State* %0, i64 0, i32 6, i32 13, i32 0, i32 0
  %13 = load i64, i64* %12, align 8
  %14 = add i64 %13, -8
  %15 = inttoptr i64 %14 to i64*
  store i64 %9, i64* %15
  store i64 %14, i64* %12, align 8
  %16 = getelementptr inbounds %struct.State, %struct.State* %0, i64 0, i32 6, i32 33, i32 0, i32 0
  store i64 %7, i64* %16, align 8
  ret %struct.Memory* %2
}

define %struct.Memory* @routine_movq_MINUS0x18__rbp____rdi(%struct.State* dereferenceable(3376), i64, %struct.Memory*) {
block_400488:
  %3 = getelementptr inbounds %struct.State, %struct.State* %0, i32 0, i32 6
  %4 = getelementptr inbounds %struct.GPR, %struct.GPR* %3, i32 0, i32 33
  %5 = getelementptr inbounds %struct.Reg, %struct.Reg* %4, i32 0, i32 0
  %PC = bitcast %union.anon* %5 to i64*
  %6 = getelementptr inbounds %struct.State, %struct.State* %0, i32 0, i32 6
  %7 = getelementptr inbounds %struct.GPR, %struct.GPR* %6, i32 0, i32 11
  %8 = getelementptr inbounds %struct.Reg, %struct.Reg* %7, i32 0, i32 0
  %RDI = bitcast %union.anon* %8 to i64*
  %9 = getelementptr inbounds %struct.State, %struct.State* %0, i32 0, i32 6
  %10 = getelementptr inbounds %struct.GPR, %struct.GPR* %9, i32 0, i32 15
  %11 = getelementptr inbounds %struct.Reg, %struct.Reg* %10, i32 0, i32 0
  %RBP = bitcast %union.anon* %11 to i64*
  %12 = load i64, i64* %RBP
  %13 = sub i64 %12, 24
  %14 = load i64, i64* %PC
  %15 = add i64 %14, 4
  store i64 %15, i64* %PC
  %16 = inttoptr i64 %13 to i64*
  %17 = load i64, i64* %16
  store i64 %17, i64* %RDI, align 8
  ret %struct.Memory* %2
}

define %struct.Memory* @routine_callq_._Z13record_resultdPKc(%struct.State* dereferenceable(3376), i64, %struct.Memory*, i64 %rel_off1, i64 %rel_off2, i64 %rel_off3) {
block_400488:
  %3 = getelementptr inbounds %struct.State, %struct.State* %0, i32 0, i32 6
  %4 = getelementptr inbounds %struct.GPR, %struct.GPR* %3, i32 0, i32 33
  %5 = getelementptr inbounds %struct.Reg, %struct.Reg* %4, i32 0, i32 0
  %PC = bitcast %union.anon* %5 to i64*
  %6 = load i64, i64* %PC
  %7 = add i64 %6, %rel_off1
  %8 = load i64, i64* %PC
  %9 = add i64 %8, %rel_off2
  %10 = load i64, i64* %PC
  %11 = add i64 %10, %rel_off3
  store i64 %11, i64* %PC
  %12 = getelementptr inbounds %struct.State, %struct.State* %0, i64 0, i32 6, i32 13, i32 0, i32 0
  %13 = load i64, i64* %12, align 8
  %14 = add i64 %13, -8
  %15 = inttoptr i64 %14 to i64*
  store i64 %9, i64* %15
  store i64 %14, i64* %12, align 8
  %16 = getelementptr inbounds %struct.State, %struct.State* %0, i64 0, i32 6, i32 33, i32 0, i32 0
  store i64 %7, i64* %16, align 8
  ret %struct.Memory* %2
}

define %struct.Memory* @routine_addq__0x30___rsp(%struct.State* dereferenceable(3376), i64, %struct.Memory*) {
block_400488:
  %3 = getelementptr inbounds %struct.State, %struct.State* %0, i32 0, i32 6
  %4 = getelementptr inbounds %struct.GPR, %struct.GPR* %3, i32 0, i32 33
  %5 = getelementptr inbounds %struct.Reg, %struct.Reg* %4, i32 0, i32 0
  %PC = bitcast %union.anon* %5 to i64*
  %6 = getelementptr inbounds %struct.State, %struct.State* %0, i32 0, i32 6
  %7 = getelementptr inbounds %struct.GPR, %struct.GPR* %6, i32 0, i32 13
  %8 = getelementptr inbounds %struct.Reg, %struct.Reg* %7, i32 0, i32 0
  %RSP = bitcast %union.anon* %8 to i64*
  %9 = load i64, i64* %RSP
  %10 = load i64, i64* %PC
  %11 = add i64 %10, 4
  store i64 %11, i64* %PC
  %12 = add i64 48, %9
  store i64 %12, i64* %RSP, align 8
  %13 = icmp ult i64 %12, %9
  %14 = icmp ult i64 %12, 48
  %15 = or i1 %13, %14
  %16 = zext i1 %15 to i8
  %17 = getelementptr inbounds %struct.State, %struct.State* %0, i64 0, i32 2, i32 1
  store i8 %16, i8* %17, align 1
  %18 = trunc i64 %12 to i32
  %19 = and i32 %18, 255
  %20 = call i32 @llvm.ctpop.i32(i32 %19)
  %21 = trunc i32 %20 to i8
  %22 = and i8 %21, 1
  %23 = xor i8 %22, 1
  %24 = getelementptr inbounds %struct.State, %struct.State* %0, i64 0, i32 2, i32 3
  store i8 %23, i8* %24, align 1
  %25 = xor i64 48, %9
  %26 = xor i64 %25, %12
  %27 = lshr i64 %26, 4
  %28 = trunc i64 %27 to i8
  %29 = and i8 %28, 1
  %30 = getelementptr inbounds %struct.State, %struct.State* %0, i64 0, i32 2, i32 5
  store i8 %29, i8* %30, align 1
  %31 = icmp eq i64 %12, 0
  %32 = zext i1 %31 to i8
  %33 = getelementptr inbounds %struct.State, %struct.State* %0, i64 0, i32 2, i32 7
  store i8 %32, i8* %33, align 1
  %34 = lshr i64 %12, 63
  %35 = trunc i64 %34 to i8
  %36 = getelementptr inbounds %struct.State, %struct.State* %0, i64 0, i32 2, i32 9
  store i8 %35, i8* %36, align 1
  %37 = lshr i64 %9, 63
  %38 = xor i64 %34, %37
  %39 = add i64 %38, %34
  %40 = icmp eq i64 %39, 2
  %41 = zext i1 %40 to i8
  %42 = getelementptr inbounds %struct.State, %struct.State* %0, i64 0, i32 2, i32 13
  store i8 %41, i8* %42, align 1
  ret %struct.Memory* %2
}

define %struct.Memory* @routine_popq__rbp(%struct.State* dereferenceable(3376), i64, %struct.Memory*) {
block_400488:
  %3 = getelementptr inbounds %struct.State, %struct.State* %0, i32 0, i32 6
  %4 = getelementptr inbounds %struct.GPR, %struct.GPR* %3, i32 0, i32 33
  %5 = getelementptr inbounds %struct.Reg, %struct.Reg* %4, i32 0, i32 0
  %PC = bitcast %union.anon* %5 to i64*
  %6 = getelementptr inbounds %struct.State, %struct.State* %0, i32 0, i32 6
  %7 = getelementptr inbounds %struct.GPR, %struct.GPR* %6, i32 0, i32 15
  %8 = getelementptr inbounds %struct.Reg, %struct.Reg* %7, i32 0, i32 0
  %RBP = bitcast %union.anon* %8 to i64*
  %9 = load i64, i64* %PC
  %10 = add i64 %9, 1
  store i64 %10, i64* %PC
  %11 = getelementptr inbounds %struct.State, %struct.State* %0, i64 0, i32 6, i32 13, i32 0, i32 0
  %12 = load i64, i64* %11, align 8
  %13 = add i64 %12, 8
  %14 = inttoptr i64 %12 to i64*
  %15 = load i64, i64* %14
  store i64 %15, i64* %RBP, align 8
  store i64 %13, i64* %11, align 8
  ret %struct.Memory* %2
}

define %struct.Memory* @routine_retq(%struct.State* dereferenceable(3376), i64, %struct.Memory*) {
block_400488:
  %3 = getelementptr inbounds %struct.State, %struct.State* %0, i32 0, i32 6
  %4 = getelementptr inbounds %struct.GPR, %struct.GPR* %3, i32 0, i32 33
  %5 = getelementptr inbounds %struct.Reg, %struct.Reg* %4, i32 0, i32 0
  %PC = bitcast %union.anon* %5 to i64*
  %6 = load i64, i64* %PC
  %7 = add i64 %6, 1
  store i64 %7, i64* %PC
  %8 = getelementptr inbounds %struct.State, %struct.State* %0, i64 0, i32 6, i32 33, i32 0, i32 0
  %9 = getelementptr inbounds %struct.State, %struct.State* %0, i64 0, i32 6, i32 13, i32 0, i32 0
  %10 = load i64, i64* %9, align 8
  %11 = inttoptr i64 %10 to i64*
  %12 = load i64, i64* %11
  store i64 %12, i64* %8, align 8
  %13 = add i64 %10, 8
  store i64 %13, i64* %9, align 8
  ret %struct.Memory* %2
}

attributes #0 = { nounwind readnone }
attributes #1 = { alwaysinline }
