; ModuleID = 'mcsema/test.proposed.ll'
source_filename = "llvm-link"
target datalayout = "e-m:e-i64:64-f80:128-n8:16:32:64-S128"
target triple = "x86_64-pc-linux-gnu-elf"

%union.anon = type { i64 }
%seg_400388__init_type = type <{ [23 x i8] }>
%seg_4003a0__text_type = type <{ [354 x i8] }>
%seg_400504__fini_type = type <{ [9 x i8] }>
%seg_400510__rodata_type = type <{ [4 x i8] }>
%seg_400514__eh_frame_hdr_type = type <{ [52 x i8] }>
%seg_400548__eh_frame_type = type <{ [208 x i8] }>
%seg_601018__data_type = type <{ [16 x i8] }>
%__bss_start_type = type <{ [8 x i8] }>
%struct.State = type { %struct.ArchState, [32 x %union.VectorReg], %struct.ArithFlags, %union.anon, %struct.Segments, %struct.AddressSpace, %struct.GPR, %struct.X87Stack, %struct.MMX, %struct.FPUStatusFlags, %union.anon, %union.FPU, %struct.SegmentCaches }
%struct.ArchState = type { i32, i32, %union.anon }
%union.VectorReg = type { %union.vec512_t }
%union.vec512_t = type { %struct.uint64v8_t }
%struct.uint64v8_t = type { [8 x i64] }
%struct.ArithFlags = type { i8, i8, i8, i8, i8, i8, i8, i8, i8, i8, i8, i8, i8, i8, i8, i8 }
%struct.Segments = type { i16, %union.SegmentSelector, i16, %union.SegmentSelector, i16, %union.SegmentSelector, i16, %union.SegmentSelector, i16, %union.SegmentSelector, i16, %union.SegmentSelector }
%union.SegmentSelector = type { i16 }
%struct.AddressSpace = type { i64, %struct.Reg, i64, %struct.Reg, i64, %struct.Reg, i64, %struct.Reg, i64, %struct.Reg, i64, %struct.Reg }
%struct.Reg = type { %union.anon }
%struct.GPR = type { i64, %struct.Reg, i64, %struct.Reg, i64, %struct.Reg, i64, %struct.Reg, i64, %struct.Reg, i64, %struct.Reg, i64, %struct.Reg, i64, %struct.Reg, i64, %struct.Reg, i64, %struct.Reg, i64, %struct.Reg, i64, %struct.Reg, i64, %struct.Reg, i64, %struct.Reg, i64, %struct.Reg, i64, %struct.Reg, i64, %struct.Reg }
%struct.X87Stack = type { [8 x %struct.anon.3] }
%struct.anon.3 = type { i64, double }
%struct.MMX = type { [8 x %struct.anon.4] }
%struct.anon.4 = type { i64, %union.vec64_t }
%union.vec64_t = type { %struct.uint64v1_t }
%struct.uint64v1_t = type { [1 x i64] }
%struct.FPUStatusFlags = type { i8, i8, i8, i8, i8, i8, i8, i8, i8, i8, i8, i8, i8, i8, i8, i8, i8, i8, i8, i8, [4 x i8] }
%union.FPU = type { %struct.anon.13 }
%struct.anon.13 = type { %struct.FpuFXSAVE, [96 x i8] }
%struct.FpuFXSAVE = type { %union.SegmentSelector, %union.SegmentSelector, %union.FPUAbridgedTagWord, i8, i16, i32, %union.SegmentSelector, i16, i32, %union.SegmentSelector, i16, %union.FPUControlStatus, %union.FPUControlStatus, [8 x %struct.FPUStackElem], [16 x %union.vec128_t] }
%union.FPUAbridgedTagWord = type { i8 }
%union.FPUControlStatus = type { i32 }
%struct.FPUStackElem = type { %union.anon.11, [6 x i8] }
%union.anon.11 = type { %struct.float80_t }
%struct.float80_t = type { [10 x i8] }
%union.vec128_t = type { %struct.uint128v1_t }
%struct.uint128v1_t = type { [1 x i128] }
%struct.SegmentCaches = type { %struct.SegmentShadow, %struct.SegmentShadow, %struct.SegmentShadow, %struct.SegmentShadow, %struct.SegmentShadow, %struct.SegmentShadow }
%struct.SegmentShadow = type { %union.anon, i32, i32 }
%struct.Memory = type opaque
%struct.anon.2 = type { i8, i8 }

@switch.table = private unnamed_addr constant [4 x i32] [i32 2048, i32 3072, i32 0, i32 1024]
@DR0 = external global i64, align 8
@DR1 = external global i64, align 8
@DR2 = external global i64, align 8
@DR3 = external global i64, align 8
@DR4 = external global i64, align 8
@DR5 = external global i64, align 8
@DR6 = external global i64, align 8
@DR7 = external global i64, align 8
@gCR0 = external global %union.anon, align 1
@gCR1 = external global %union.anon, align 1
@gCR2 = external global %union.anon, align 1
@gCR3 = external global %union.anon, align 1
@gCR4 = external global %union.anon, align 1
@gCR8 = external global %union.anon, align 1
@seg_400388__init = internal constant %seg_400388__init_type <{ [23 x i8] c"H\83\EC\08H\8B\05e\0C \00H\85\C0t\02\FF\D0H\83\C4\08\C3" }>
@seg_4003a0__text = internal constant %seg_4003a0__text_type <{ [354 x i8] c"1\EDI\89\D1^H\89\E2H\83\E4\F0PTI\C7\C0\00\05@\00H\C7\C1\90\04@\00H\C7\C7\88\04@\00\FF\15&\0C \00\F4\0F\1FD\00\00\F3\C3f.\0F\1F\84\00\00\00\00\00\0F\1F@\00U\B8(\10`\00H=(\10`\00H\89\E5t\17\B8\00\00\00\00H\85\C0t\0D]\BF(\10`\00\FF\E0\0F\1FD\00\00]\C3f\0F\1FD\00\00\BE(\10`\00UH\81\EE(\10`\00H\89\E5H\C1\FE\03H\89\F0H\C1\E8?H\01\C6H\D1\FEt\15\B8\00\00\00\00H\85\C0t\0B]\BF(\10`\00\FF\E0\0F\1F\00]\C3f\0F\1FD\00\00\80=\D1\0B \00\00u\17UH\89\E5\E8~\FF\FF\FF\C6\05\BF\0B \00\01]\C3\0F\1FD\00\00\F3\C3\0F\1F@\00f.\0F\1F\84\00\00\00\00\00UH\89\E5]\EB\89\90U\C3f\0F\1FD\00\00AWAVI\89\D7AUATL\8D%\9E\09 \00UH\8D-\9E\09 \00SA\89\FDI\89\F6L)\E5H\83\EC\08H\C1\FD\03\E8\C7\FE\FF\FFH\85\EDt 1\DB\0F\1F\84\00\00\00\00\00L\89\FAL\89\F6D\89\EFA\FF\14\DCH\83\C3\01H9\DDu\EAH\83\C4\08[]A\5CA]A^A_\C3\90f.\0F\1F\84\00\00\00\00\00\F3\C3" }>
@seg_400504__fini = internal constant %seg_400504__fini_type <{ [9 x i8] c"H\83\EC\08H\83\C4\08\C3" }>
@seg_400510__rodata = internal constant %seg_400510__rodata_type <{ [4 x i8] c"\01\00\02\00" }>
@seg_400514__eh_frame_hdr = internal constant %seg_400514__eh_frame_hdr_type <{ [52 x i8] c"\01\1B\03;0\00\00\00\05\00\00\00\8C\FE\FF\FFL\00\00\00\BC\FE\FF\FFx\00\00\00t\FF\FF\FF\8C\00\00\00|\FF\FF\FF\A4\00\00\00\EC\FF\FF\FF\EC\00\00\00" }>
@seg_400548__eh_frame = internal constant %seg_400548__eh_frame_type <{ [208 x i8] c"\14\00\00\00\00\00\00\00\01zR\00\01x\10\01\1B\0C\07\08\90\01\07\10\10\00\00\00\1C\00\00\008\FE\FF\FF+\00\00\00\00\00\00\00\14\00\00\00\00\00\00\00\01zR\00\01x\10\01\1B\0C\07\08\90\01\00\00\10\00\00\00\1C\00\00\00<\FE\FF\FF\02\00\00\00\00\00\00\00\14\00\00\000\00\00\00\E0\FE\FF\FF\02\00\00\00\00\00\00\00\00\00\00\00D\00\00\00H\00\00\00\D0\FE\FF\FFe\00\00\00\00B\0E\10\8F\02B\0E\18\8E\03E\0E \8D\04B\0E(\8C\05H\0E0\86\06H\0E8\83\07M\0E@r\0E8A\0E0A\0E(B\0E B\0E\18B\0E\10B\0E\08\00\10\00\00\00\90\00\00\00\F8\FE\FF\FF\02\00\00\00\00\00\00\00\00\00\00\00" }>
@seg_601018__data = internal global %seg_601018__data_type zeroinitializer
@__bss_start = global %__bss_start_type zeroinitializer
@0 = internal global i1 false

; Function Attrs: nounwind readnone
declare i32 @llvm.ctpop.i32(i32) #0

declare %struct.Memory* @__remill_error(%struct.State* dereferenceable(3376), i64, %struct.Memory*)

declare %struct.Memory* @sub_400e50._Z11start_timerv(%struct.State* dereferenceable(3376), i64, %struct.Memory*)

declare %struct.Memory* @sub_413d30._Z26check_shifted_variable_sumIa19custom_add_variableIaEEvT_S2_(%struct.State* dereferenceable(3376), i64, %struct.Memory*)

declare %struct.Memory* @sub_400e70._Z5timerv(%struct.State* dereferenceable(3376), i64, %struct.Memory*)

declare %struct.Memory* @sub_400810._Z13record_resultdPKc(%struct.State* dereferenceable(3376), i64, %struct.Memory*)

; Function Attrs: alwaysinline
define %struct.Memory* @_Z22test_hoisted_variable1Ia19custom_add_variableIaEEvPT_iS2_PKc(%struct.State* noalias, i64, %struct.Memory* noalias) #1 {
entry:
  %3 = getelementptr inbounds %struct.State, %struct.State* %0, i64 0, i32 6, i32 33, i32 0, i32 0
  store i64 %1, i64* %3, align 8
  %BRANCH_TAKEN = alloca i8, align 1
  store i8 0, i8* %BRANCH_TAKEN, align 1
  %MEMORY = alloca %struct.Memory*, align 8
  store %struct.Memory* %2, %struct.Memory** %MEMORY, align 8
  %loadMem_4030b0 = load %struct.Memory*, %struct.Memory** %MEMORY
  %4 = getelementptr inbounds %struct.State, %struct.State* %0, i32 0, i32 6
  %5 = getelementptr inbounds %struct.GPR, %struct.GPR* %4, i32 0, i32 33
  %6 = getelementptr inbounds %struct.Reg, %struct.Reg* %5, i32 0, i32 0
  %PC.i = bitcast %union.anon* %6 to i64*
  %7 = getelementptr inbounds %struct.State, %struct.State* %0, i32 0, i32 6
  %8 = getelementptr inbounds %struct.GPR, %struct.GPR* %7, i32 0, i32 15
  %9 = getelementptr inbounds %struct.Reg, %struct.Reg* %8, i32 0, i32 0
  %RBP.i = bitcast %union.anon* %9 to i64*
  %10 = load i64, i64* %RBP.i
  %11 = load i64, i64* %PC.i
  %12 = add i64 %11, 1
  store i64 %12, i64* %PC.i
  %13 = getelementptr inbounds %struct.State, %struct.State* %0, i64 0, i32 6, i32 13, i32 0, i32 0
  %14 = load i64, i64* %13, align 8
  %15 = add i64 %14, -8
  %16 = inttoptr i64 %15 to i64*
  store i64 %10, i64* %16
  store i64 %15, i64* %13, align 8
  store %struct.Memory* %loadMem_4030b0, %struct.Memory** %MEMORY
  %loadMem_4030b1 = load %struct.Memory*, %struct.Memory** %MEMORY
  %17 = getelementptr inbounds %struct.State, %struct.State* %0, i32 0, i32 6
  %18 = getelementptr inbounds %struct.GPR, %struct.GPR* %17, i32 0, i32 33
  %19 = getelementptr inbounds %struct.Reg, %struct.Reg* %18, i32 0, i32 0
  %PC.i104 = bitcast %union.anon* %19 to i64*
  %20 = getelementptr inbounds %struct.State, %struct.State* %0, i32 0, i32 6
  %21 = getelementptr inbounds %struct.GPR, %struct.GPR* %20, i32 0, i32 13
  %22 = getelementptr inbounds %struct.Reg, %struct.Reg* %21, i32 0, i32 0
  %RSP.i105 = bitcast %union.anon* %22 to i64*
  %23 = getelementptr inbounds %struct.State, %struct.State* %0, i32 0, i32 6
  %24 = getelementptr inbounds %struct.GPR, %struct.GPR* %23, i32 0, i32 15
  %25 = getelementptr inbounds %struct.Reg, %struct.Reg* %24, i32 0, i32 0
  %RBP.i106 = bitcast %union.anon* %25 to i64*
  %26 = load i64, i64* %RSP.i105
  %27 = load i64, i64* %PC.i104
  %28 = add i64 %27, 3
  store i64 %28, i64* %PC.i104
  store i64 %26, i64* %RBP.i106, align 8
  store %struct.Memory* %loadMem_4030b1, %struct.Memory** %MEMORY
  %loadMem_4030b4 = load %struct.Memory*, %struct.Memory** %MEMORY
  %29 = getelementptr inbounds %struct.State, %struct.State* %0, i32 0, i32 6
  %30 = getelementptr inbounds %struct.GPR, %struct.GPR* %29, i32 0, i32 33
  %31 = getelementptr inbounds %struct.Reg, %struct.Reg* %30, i32 0, i32 0
  %PC.i102 = bitcast %union.anon* %31 to i64*
  %32 = getelementptr inbounds %struct.State, %struct.State* %0, i32 0, i32 6
  %33 = getelementptr inbounds %struct.GPR, %struct.GPR* %32, i32 0, i32 13
  %34 = getelementptr inbounds %struct.Reg, %struct.Reg* %33, i32 0, i32 0
  %RSP.i103 = bitcast %union.anon* %34 to i64*
  %35 = load i64, i64* %RSP.i103
  %36 = load i64, i64* %PC.i102
  %37 = add i64 %36, 4
  store i64 %37, i64* %PC.i102
  %38 = sub i64 %35, 48
  store i64 %38, i64* %RSP.i103, align 8
  %39 = icmp ult i64 %35, 48
  %40 = zext i1 %39 to i8
  %41 = getelementptr inbounds %struct.State, %struct.State* %0, i64 0, i32 2, i32 1
  store i8 %40, i8* %41, align 1
  %42 = trunc i64 %38 to i32
  %43 = and i32 %42, 255
  %44 = call i32 @llvm.ctpop.i32(i32 %43)
  %45 = trunc i32 %44 to i8
  %46 = and i8 %45, 1
  %47 = xor i8 %46, 1
  %48 = getelementptr inbounds %struct.State, %struct.State* %0, i64 0, i32 2, i32 3
  store i8 %47, i8* %48, align 1
  %49 = xor i64 48, %35
  %50 = xor i64 %49, %38
  %51 = lshr i64 %50, 4
  %52 = trunc i64 %51 to i8
  %53 = and i8 %52, 1
  %54 = getelementptr inbounds %struct.State, %struct.State* %0, i64 0, i32 2, i32 5
  store i8 %53, i8* %54, align 1
  %55 = icmp eq i64 %38, 0
  %56 = zext i1 %55 to i8
  %57 = getelementptr inbounds %struct.State, %struct.State* %0, i64 0, i32 2, i32 7
  store i8 %56, i8* %57, align 1
  %58 = lshr i64 %38, 63
  %59 = trunc i64 %58 to i8
  %60 = getelementptr inbounds %struct.State, %struct.State* %0, i64 0, i32 2, i32 9
  store i8 %59, i8* %60, align 1
  %61 = lshr i64 %35, 63
  %62 = xor i64 %58, %61
  %63 = add i64 %62, %61
  %64 = icmp eq i64 %63, 2
  %65 = zext i1 %64 to i8
  %66 = getelementptr inbounds %struct.State, %struct.State* %0, i64 0, i32 2, i32 13
  store i8 %65, i8* %66, align 1
  store %struct.Memory* %loadMem_4030b4, %struct.Memory** %MEMORY
  %loadMem_4030b8 = load %struct.Memory*, %struct.Memory** %MEMORY
  %67 = getelementptr inbounds %struct.State, %struct.State* %0, i32 0, i32 6
  %68 = getelementptr inbounds %struct.GPR, %struct.GPR* %67, i32 0, i32 33
  %69 = getelementptr inbounds %struct.Reg, %struct.Reg* %68, i32 0, i32 0
  %PC.i99 = bitcast %union.anon* %69 to i64*
  %70 = getelementptr inbounds %struct.State, %struct.State* %0, i32 0, i32 6
  %71 = getelementptr inbounds %struct.GPR, %struct.GPR* %70, i32 0, i32 1
  %72 = getelementptr inbounds %struct.Reg, %struct.Reg* %71, i32 0, i32 0
  %73 = bitcast %union.anon* %72 to %struct.anon.2*
  %AL.i100 = getelementptr inbounds %struct.anon.2, %struct.anon.2* %73, i32 0, i32 0
  %74 = getelementptr inbounds %struct.State, %struct.State* %0, i32 0, i32 6
  %75 = getelementptr inbounds %struct.GPR, %struct.GPR* %74, i32 0, i32 7
  %76 = getelementptr inbounds %struct.Reg, %struct.Reg* %75, i32 0, i32 0
  %77 = bitcast %union.anon* %76 to %struct.anon.2*
  %DL.i101 = getelementptr inbounds %struct.anon.2, %struct.anon.2* %77, i32 0, i32 0
  %78 = load i8, i8* %DL.i101
  %79 = zext i8 %78 to i64
  %80 = load i64, i64* %PC.i99
  %81 = add i64 %80, 2
  store i64 %81, i64* %PC.i99
  store i8 %78, i8* %AL.i100, align 1
  store %struct.Memory* %loadMem_4030b8, %struct.Memory** %MEMORY
  %loadMem_4030ba = load %struct.Memory*, %struct.Memory** %MEMORY
  %82 = getelementptr inbounds %struct.State, %struct.State* %0, i32 0, i32 6
  %83 = getelementptr inbounds %struct.GPR, %struct.GPR* %82, i32 0, i32 33
  %84 = getelementptr inbounds %struct.Reg, %struct.Reg* %83, i32 0, i32 0
  %PC.i96 = bitcast %union.anon* %84 to i64*
  %85 = getelementptr inbounds %struct.State, %struct.State* %0, i32 0, i32 6
  %86 = getelementptr inbounds %struct.GPR, %struct.GPR* %85, i32 0, i32 11
  %87 = getelementptr inbounds %struct.Reg, %struct.Reg* %86, i32 0, i32 0
  %RDI.i97 = bitcast %union.anon* %87 to i64*
  %88 = getelementptr inbounds %struct.State, %struct.State* %0, i32 0, i32 6
  %89 = getelementptr inbounds %struct.GPR, %struct.GPR* %88, i32 0, i32 15
  %90 = getelementptr inbounds %struct.Reg, %struct.Reg* %89, i32 0, i32 0
  %RBP.i98 = bitcast %union.anon* %90 to i64*
  %91 = load i64, i64* %RBP.i98
  %92 = sub i64 %91, 8
  %93 = load i64, i64* %RDI.i97
  %94 = load i64, i64* %PC.i96
  %95 = add i64 %94, 4
  store i64 %95, i64* %PC.i96
  %96 = inttoptr i64 %92 to i64*
  store i64 %93, i64* %96
  store %struct.Memory* %loadMem_4030ba, %struct.Memory** %MEMORY
  %loadMem_4030be = load %struct.Memory*, %struct.Memory** %MEMORY
  %97 = getelementptr inbounds %struct.State, %struct.State* %0, i32 0, i32 6
  %98 = getelementptr inbounds %struct.GPR, %struct.GPR* %97, i32 0, i32 33
  %99 = getelementptr inbounds %struct.Reg, %struct.Reg* %98, i32 0, i32 0
  %PC.i94 = bitcast %union.anon* %99 to i64*
  %100 = getelementptr inbounds %struct.State, %struct.State* %0, i32 0, i32 6
  %101 = getelementptr inbounds %struct.GPR, %struct.GPR* %100, i32 0, i32 9
  %102 = getelementptr inbounds %struct.Reg, %struct.Reg* %101, i32 0, i32 0
  %ESI.i = bitcast %union.anon* %102 to i32*
  %103 = getelementptr inbounds %struct.State, %struct.State* %0, i32 0, i32 6
  %104 = getelementptr inbounds %struct.GPR, %struct.GPR* %103, i32 0, i32 15
  %105 = getelementptr inbounds %struct.Reg, %struct.Reg* %104, i32 0, i32 0
  %RBP.i95 = bitcast %union.anon* %105 to i64*
  %106 = load i64, i64* %RBP.i95
  %107 = sub i64 %106, 12
  %108 = load i32, i32* %ESI.i
  %109 = zext i32 %108 to i64
  %110 = load i64, i64* %PC.i94
  %111 = add i64 %110, 3
  store i64 %111, i64* %PC.i94
  %112 = inttoptr i64 %107 to i32*
  store i32 %108, i32* %112
  store %struct.Memory* %loadMem_4030be, %struct.Memory** %MEMORY
  %loadMem_4030c1 = load %struct.Memory*, %struct.Memory** %MEMORY
  %113 = getelementptr inbounds %struct.State, %struct.State* %0, i32 0, i32 6
  %114 = getelementptr inbounds %struct.GPR, %struct.GPR* %113, i32 0, i32 33
  %115 = getelementptr inbounds %struct.Reg, %struct.Reg* %114, i32 0, i32 0
  %PC.i92 = bitcast %union.anon* %115 to i64*
  %116 = getelementptr inbounds %struct.State, %struct.State* %0, i32 0, i32 6
  %117 = getelementptr inbounds %struct.GPR, %struct.GPR* %116, i32 0, i32 1
  %118 = getelementptr inbounds %struct.Reg, %struct.Reg* %117, i32 0, i32 0
  %119 = bitcast %union.anon* %118 to %struct.anon.2*
  %AL.i = getelementptr inbounds %struct.anon.2, %struct.anon.2* %119, i32 0, i32 0
  %120 = getelementptr inbounds %struct.State, %struct.State* %0, i32 0, i32 6
  %121 = getelementptr inbounds %struct.GPR, %struct.GPR* %120, i32 0, i32 15
  %122 = getelementptr inbounds %struct.Reg, %struct.Reg* %121, i32 0, i32 0
  %RBP.i93 = bitcast %union.anon* %122 to i64*
  %123 = load i64, i64* %RBP.i93
  %124 = sub i64 %123, 13
  %125 = load i8, i8* %AL.i
  %126 = zext i8 %125 to i64
  %127 = load i64, i64* %PC.i92
  %128 = add i64 %127, 3
  store i64 %128, i64* %PC.i92
  %129 = inttoptr i64 %124 to i8*
  store i8 %125, i8* %129
  store %struct.Memory* %loadMem_4030c1, %struct.Memory** %MEMORY
  %loadMem_4030c4 = load %struct.Memory*, %struct.Memory** %MEMORY
  %130 = getelementptr inbounds %struct.State, %struct.State* %0, i32 0, i32 6
  %131 = getelementptr inbounds %struct.GPR, %struct.GPR* %130, i32 0, i32 33
  %132 = getelementptr inbounds %struct.Reg, %struct.Reg* %131, i32 0, i32 0
  %PC.i89 = bitcast %union.anon* %132 to i64*
  %133 = getelementptr inbounds %struct.State, %struct.State* %0, i32 0, i32 6
  %134 = getelementptr inbounds %struct.GPR, %struct.GPR* %133, i32 0, i32 5
  %135 = getelementptr inbounds %struct.Reg, %struct.Reg* %134, i32 0, i32 0
  %RCX.i90 = bitcast %union.anon* %135 to i64*
  %136 = getelementptr inbounds %struct.State, %struct.State* %0, i32 0, i32 6
  %137 = getelementptr inbounds %struct.GPR, %struct.GPR* %136, i32 0, i32 15
  %138 = getelementptr inbounds %struct.Reg, %struct.Reg* %137, i32 0, i32 0
  %RBP.i91 = bitcast %union.anon* %138 to i64*
  %139 = load i64, i64* %RBP.i91
  %140 = sub i64 %139, 24
  %141 = load i64, i64* %RCX.i90
  %142 = load i64, i64* %PC.i89
  %143 = add i64 %142, 4
  store i64 %143, i64* %PC.i89
  %144 = inttoptr i64 %140 to i64*
  store i64 %141, i64* %144
  store %struct.Memory* %loadMem_4030c4, %struct.Memory** %MEMORY
  %loadMem1_4030c8 = load %struct.Memory*, %struct.Memory** %MEMORY
  %145 = getelementptr inbounds %struct.State, %struct.State* %0, i32 0, i32 6
  %146 = getelementptr inbounds %struct.GPR, %struct.GPR* %145, i32 0, i32 33
  %147 = getelementptr inbounds %struct.Reg, %struct.Reg* %146, i32 0, i32 0
  %PC.i88 = bitcast %union.anon* %147 to i64*
  %148 = load i64, i64* %PC.i88
  %149 = add i64 %148, -8824
  %150 = load i64, i64* %PC.i88
  %151 = add i64 %150, 5
  %152 = load i64, i64* %PC.i88
  %153 = add i64 %152, 5
  store i64 %153, i64* %PC.i88
  %154 = getelementptr inbounds %struct.State, %struct.State* %0, i64 0, i32 6, i32 13, i32 0, i32 0
  %155 = load i64, i64* %154, align 8
  %156 = add i64 %155, -8
  %157 = inttoptr i64 %156 to i64*
  store i64 %151, i64* %157
  store i64 %156, i64* %154, align 8
  %158 = getelementptr inbounds %struct.State, %struct.State* %0, i64 0, i32 6, i32 33, i32 0, i32 0
  store i64 %149, i64* %158, align 8
  store %struct.Memory* %loadMem1_4030c8, %struct.Memory** %MEMORY
  %loadMem2_4030c8 = load %struct.Memory*, %struct.Memory** %MEMORY
  %loadPC_4030c8 = load i64, i64* %3
  %call2_4030c8 = call %struct.Memory* @sub_400e50._Z11start_timerv(%struct.State* %0, i64 %loadPC_4030c8, %struct.Memory* %loadMem2_4030c8)
  store %struct.Memory* %call2_4030c8, %struct.Memory** %MEMORY
  %loadMem_4030cd = load %struct.Memory*, %struct.Memory** %MEMORY
  %159 = getelementptr inbounds %struct.State, %struct.State* %0, i32 0, i32 6
  %160 = getelementptr inbounds %struct.GPR, %struct.GPR* %159, i32 0, i32 33
  %161 = getelementptr inbounds %struct.Reg, %struct.Reg* %160, i32 0, i32 0
  %PC.i86 = bitcast %union.anon* %161 to i64*
  %162 = getelementptr inbounds %struct.State, %struct.State* %0, i32 0, i32 6
  %163 = getelementptr inbounds %struct.GPR, %struct.GPR* %162, i32 0, i32 15
  %164 = getelementptr inbounds %struct.Reg, %struct.Reg* %163, i32 0, i32 0
  %RBP.i87 = bitcast %union.anon* %164 to i64*
  %165 = load i64, i64* %RBP.i87
  %166 = sub i64 %165, 28
  %167 = load i64, i64* %PC.i86
  %168 = add i64 %167, 7
  store i64 %168, i64* %PC.i86
  %169 = inttoptr i64 %166 to i32*
  store i32 0, i32* %169
  store %struct.Memory* %loadMem_4030cd, %struct.Memory** %MEMORY
  br label %block_.L_4030d4

block_.L_4030d4:                                  ; preds = %block_.L_403122, %entry
  %loadMem_4030d4 = load %struct.Memory*, %struct.Memory** %MEMORY
  %170 = getelementptr inbounds %struct.State, %struct.State* %0, i32 0, i32 6
  %171 = getelementptr inbounds %struct.GPR, %struct.GPR* %170, i32 0, i32 33
  %172 = getelementptr inbounds %struct.Reg, %struct.Reg* %171, i32 0, i32 0
  %PC.i83 = bitcast %union.anon* %172 to i64*
  %173 = getelementptr inbounds %struct.State, %struct.State* %0, i32 0, i32 6
  %174 = getelementptr inbounds %struct.GPR, %struct.GPR* %173, i32 0, i32 1
  %175 = getelementptr inbounds %struct.Reg, %struct.Reg* %174, i32 0, i32 0
  %RAX.i84 = bitcast %union.anon* %175 to i64*
  %176 = getelementptr inbounds %struct.State, %struct.State* %0, i32 0, i32 6
  %177 = getelementptr inbounds %struct.GPR, %struct.GPR* %176, i32 0, i32 15
  %178 = getelementptr inbounds %struct.Reg, %struct.Reg* %177, i32 0, i32 0
  %RBP.i85 = bitcast %union.anon* %178 to i64*
  %179 = load i64, i64* %RBP.i85
  %180 = sub i64 %179, 28
  %181 = load i64, i64* %PC.i83
  %182 = add i64 %181, 3
  store i64 %182, i64* %PC.i83
  %183 = inttoptr i64 %180 to i32*
  %184 = load i32, i32* %183
  %185 = zext i32 %184 to i64
  store i64 %185, i64* %RAX.i84, align 8
  store %struct.Memory* %loadMem_4030d4, %struct.Memory** %MEMORY
  %loadMem_4030d7 = load %struct.Memory*, %struct.Memory** %MEMORY
  %186 = getelementptr inbounds %struct.State, %struct.State* %0, i32 0, i32 6
  %187 = getelementptr inbounds %struct.GPR, %struct.GPR* %186, i32 0, i32 33
  %188 = getelementptr inbounds %struct.Reg, %struct.Reg* %187, i32 0, i32 0
  %PC.i81 = bitcast %union.anon* %188 to i64*
  %189 = getelementptr inbounds %struct.State, %struct.State* %0, i32 0, i32 6
  %190 = getelementptr inbounds %struct.GPR, %struct.GPR* %189, i32 0, i32 1
  %191 = getelementptr inbounds %struct.Reg, %struct.Reg* %190, i32 0, i32 0
  %EAX.i82 = bitcast %union.anon* %191 to i32*
  %192 = load i32, i32* %EAX.i82
  %193 = zext i32 %192 to i64
  %194 = load i64, i64* %PC.i81
  %195 = add i64 %194, 7
  store i64 %195, i64* %PC.i81
  %196 = load i32, i32* inttoptr (i64 6398080 to i32*)
  %197 = sub i32 %192, %196
  %198 = icmp ult i32 %192, %196
  %199 = zext i1 %198 to i8
  %200 = getelementptr inbounds %struct.State, %struct.State* %0, i64 0, i32 2, i32 1
  store i8 %199, i8* %200, align 1
  %201 = and i32 %197, 255
  %202 = call i32 @llvm.ctpop.i32(i32 %201)
  %203 = trunc i32 %202 to i8
  %204 = and i8 %203, 1
  %205 = xor i8 %204, 1
  %206 = getelementptr inbounds %struct.State, %struct.State* %0, i64 0, i32 2, i32 3
  store i8 %205, i8* %206, align 1
  %207 = xor i32 %196, %192
  %208 = xor i32 %207, %197
  %209 = lshr i32 %208, 4
  %210 = trunc i32 %209 to i8
  %211 = and i8 %210, 1
  %212 = getelementptr inbounds %struct.State, %struct.State* %0, i64 0, i32 2, i32 5
  store i8 %211, i8* %212, align 1
  %213 = icmp eq i32 %197, 0
  %214 = zext i1 %213 to i8
  %215 = getelementptr inbounds %struct.State, %struct.State* %0, i64 0, i32 2, i32 7
  store i8 %214, i8* %215, align 1
  %216 = lshr i32 %197, 31
  %217 = trunc i32 %216 to i8
  %218 = getelementptr inbounds %struct.State, %struct.State* %0, i64 0, i32 2, i32 9
  store i8 %217, i8* %218, align 1
  %219 = lshr i32 %192, 31
  %220 = lshr i32 %196, 31
  %221 = xor i32 %220, %219
  %222 = xor i32 %216, %219
  %223 = add i32 %222, %221
  %224 = icmp eq i32 %223, 2
  %225 = zext i1 %224 to i8
  %226 = getelementptr inbounds %struct.State, %struct.State* %0, i64 0, i32 2, i32 13
  store i8 %225, i8* %226, align 1
  store %struct.Memory* %loadMem_4030d7, %struct.Memory** %MEMORY
  %loadMem_4030de = load %struct.Memory*, %struct.Memory** %MEMORY
  %227 = getelementptr inbounds %struct.State, %struct.State* %0, i32 0, i32 6
  %228 = getelementptr inbounds %struct.GPR, %struct.GPR* %227, i32 0, i32 33
  %229 = getelementptr inbounds %struct.Reg, %struct.Reg* %228, i32 0, i32 0
  %PC.i80 = bitcast %union.anon* %229 to i64*
  %230 = load i64, i64* %PC.i80
  %231 = add i64 %230, 118
  %232 = load i64, i64* %PC.i80
  %233 = add i64 %232, 6
  %234 = load i64, i64* %PC.i80
  %235 = add i64 %234, 6
  store i64 %235, i64* %PC.i80
  %236 = getelementptr inbounds %struct.State, %struct.State* %0, i64 0, i32 2, i32 9
  %237 = load i8, i8* %236, align 1
  %238 = icmp ne i8 %237, 0
  %239 = getelementptr inbounds %struct.State, %struct.State* %0, i64 0, i32 2, i32 13
  %240 = load i8, i8* %239, align 1
  %241 = icmp ne i8 %240, 0
  %242 = xor i1 %238, %241
  %243 = xor i1 %242, true
  %244 = zext i1 %243 to i8
  store i8 %244, i8* %BRANCH_TAKEN, align 1
  %245 = getelementptr inbounds %struct.State, %struct.State* %0, i64 0, i32 6, i32 33, i32 0, i32 0
  %246 = select i1 %242, i64 %233, i64 %231
  store i64 %246, i64* %245, align 8
  store %struct.Memory* %loadMem_4030de, %struct.Memory** %MEMORY
  %loadBr_4030de = load i8, i8* %BRANCH_TAKEN
  %cmpBr_4030de = icmp eq i8 %loadBr_4030de, 1
  br i1 %cmpBr_4030de, label %block_.L_403154, label %block_4030e4

block_4030e4:                                     ; preds = %block_.L_4030d4
  %loadMem_4030e4 = load %struct.Memory*, %struct.Memory** %MEMORY
  %247 = getelementptr inbounds %struct.State, %struct.State* %0, i32 0, i32 6
  %248 = getelementptr inbounds %struct.GPR, %struct.GPR* %247, i32 0, i32 33
  %249 = getelementptr inbounds %struct.Reg, %struct.Reg* %248, i32 0, i32 0
  %PC.i78 = bitcast %union.anon* %249 to i64*
  %250 = getelementptr inbounds %struct.State, %struct.State* %0, i32 0, i32 6
  %251 = getelementptr inbounds %struct.GPR, %struct.GPR* %250, i32 0, i32 15
  %252 = getelementptr inbounds %struct.Reg, %struct.Reg* %251, i32 0, i32 0
  %RBP.i79 = bitcast %union.anon* %252 to i64*
  %253 = load i64, i64* %RBP.i79
  %254 = sub i64 %253, 29
  %255 = load i64, i64* %PC.i78
  %256 = add i64 %255, 4
  store i64 %256, i64* %PC.i78
  %257 = inttoptr i64 %254 to i8*
  store i8 0, i8* %257
  store %struct.Memory* %loadMem_4030e4, %struct.Memory** %MEMORY
  %loadMem_4030e8 = load %struct.Memory*, %struct.Memory** %MEMORY
  %258 = getelementptr inbounds %struct.State, %struct.State* %0, i32 0, i32 6
  %259 = getelementptr inbounds %struct.GPR, %struct.GPR* %258, i32 0, i32 33
  %260 = getelementptr inbounds %struct.Reg, %struct.Reg* %259, i32 0, i32 0
  %PC.i76 = bitcast %union.anon* %260 to i64*
  %261 = getelementptr inbounds %struct.State, %struct.State* %0, i32 0, i32 6
  %262 = getelementptr inbounds %struct.GPR, %struct.GPR* %261, i32 0, i32 15
  %263 = getelementptr inbounds %struct.Reg, %struct.Reg* %262, i32 0, i32 0
  %RBP.i77 = bitcast %union.anon* %263 to i64*
  %264 = load i64, i64* %RBP.i77
  %265 = sub i64 %264, 36
  %266 = load i64, i64* %PC.i76
  %267 = add i64 %266, 7
  store i64 %267, i64* %PC.i76
  %268 = inttoptr i64 %265 to i32*
  store i32 0, i32* %268
  store %struct.Memory* %loadMem_4030e8, %struct.Memory** %MEMORY
  br label %block_.L_4030ef

block_.L_4030ef:                                  ; preds = %block_4030fb, %block_4030e4
  %loadMem_4030ef = load %struct.Memory*, %struct.Memory** %MEMORY
  %269 = getelementptr inbounds %struct.State, %struct.State* %0, i32 0, i32 6
  %270 = getelementptr inbounds %struct.GPR, %struct.GPR* %269, i32 0, i32 33
  %271 = getelementptr inbounds %struct.Reg, %struct.Reg* %270, i32 0, i32 0
  %PC.i73 = bitcast %union.anon* %271 to i64*
  %272 = getelementptr inbounds %struct.State, %struct.State* %0, i32 0, i32 6
  %273 = getelementptr inbounds %struct.GPR, %struct.GPR* %272, i32 0, i32 1
  %274 = getelementptr inbounds %struct.Reg, %struct.Reg* %273, i32 0, i32 0
  %RAX.i74 = bitcast %union.anon* %274 to i64*
  %275 = getelementptr inbounds %struct.State, %struct.State* %0, i32 0, i32 6
  %276 = getelementptr inbounds %struct.GPR, %struct.GPR* %275, i32 0, i32 15
  %277 = getelementptr inbounds %struct.Reg, %struct.Reg* %276, i32 0, i32 0
  %RBP.i75 = bitcast %union.anon* %277 to i64*
  %278 = load i64, i64* %RBP.i75
  %279 = sub i64 %278, 36
  %280 = load i64, i64* %PC.i73
  %281 = add i64 %280, 3
  store i64 %281, i64* %PC.i73
  %282 = inttoptr i64 %279 to i32*
  %283 = load i32, i32* %282
  %284 = zext i32 %283 to i64
  store i64 %284, i64* %RAX.i74, align 8
  store %struct.Memory* %loadMem_4030ef, %struct.Memory** %MEMORY
  %loadMem_4030f2 = load %struct.Memory*, %struct.Memory** %MEMORY
  %285 = getelementptr inbounds %struct.State, %struct.State* %0, i32 0, i32 6
  %286 = getelementptr inbounds %struct.GPR, %struct.GPR* %285, i32 0, i32 33
  %287 = getelementptr inbounds %struct.Reg, %struct.Reg* %286, i32 0, i32 0
  %PC.i70 = bitcast %union.anon* %287 to i64*
  %288 = getelementptr inbounds %struct.State, %struct.State* %0, i32 0, i32 6
  %289 = getelementptr inbounds %struct.GPR, %struct.GPR* %288, i32 0, i32 1
  %290 = getelementptr inbounds %struct.Reg, %struct.Reg* %289, i32 0, i32 0
  %EAX.i71 = bitcast %union.anon* %290 to i32*
  %291 = getelementptr inbounds %struct.State, %struct.State* %0, i32 0, i32 6
  %292 = getelementptr inbounds %struct.GPR, %struct.GPR* %291, i32 0, i32 15
  %293 = getelementptr inbounds %struct.Reg, %struct.Reg* %292, i32 0, i32 0
  %RBP.i72 = bitcast %union.anon* %293 to i64*
  %294 = load i32, i32* %EAX.i71
  %295 = zext i32 %294 to i64
  %296 = load i64, i64* %RBP.i72
  %297 = sub i64 %296, 12
  %298 = load i64, i64* %PC.i70
  %299 = add i64 %298, 3
  store i64 %299, i64* %PC.i70
  %300 = inttoptr i64 %297 to i32*
  %301 = load i32, i32* %300
  %302 = sub i32 %294, %301
  %303 = icmp ult i32 %294, %301
  %304 = zext i1 %303 to i8
  %305 = getelementptr inbounds %struct.State, %struct.State* %0, i64 0, i32 2, i32 1
  store i8 %304, i8* %305, align 1
  %306 = and i32 %302, 255
  %307 = call i32 @llvm.ctpop.i32(i32 %306)
  %308 = trunc i32 %307 to i8
  %309 = and i8 %308, 1
  %310 = xor i8 %309, 1
  %311 = getelementptr inbounds %struct.State, %struct.State* %0, i64 0, i32 2, i32 3
  store i8 %310, i8* %311, align 1
  %312 = xor i32 %301, %294
  %313 = xor i32 %312, %302
  %314 = lshr i32 %313, 4
  %315 = trunc i32 %314 to i8
  %316 = and i8 %315, 1
  %317 = getelementptr inbounds %struct.State, %struct.State* %0, i64 0, i32 2, i32 5
  store i8 %316, i8* %317, align 1
  %318 = icmp eq i32 %302, 0
  %319 = zext i1 %318 to i8
  %320 = getelementptr inbounds %struct.State, %struct.State* %0, i64 0, i32 2, i32 7
  store i8 %319, i8* %320, align 1
  %321 = lshr i32 %302, 31
  %322 = trunc i32 %321 to i8
  %323 = getelementptr inbounds %struct.State, %struct.State* %0, i64 0, i32 2, i32 9
  store i8 %322, i8* %323, align 1
  %324 = lshr i32 %294, 31
  %325 = lshr i32 %301, 31
  %326 = xor i32 %325, %324
  %327 = xor i32 %321, %324
  %328 = add i32 %327, %326
  %329 = icmp eq i32 %328, 2
  %330 = zext i1 %329 to i8
  %331 = getelementptr inbounds %struct.State, %struct.State* %0, i64 0, i32 2, i32 13
  store i8 %330, i8* %331, align 1
  store %struct.Memory* %loadMem_4030f2, %struct.Memory** %MEMORY
  %loadMem_4030f5 = load %struct.Memory*, %struct.Memory** %MEMORY
  %332 = getelementptr inbounds %struct.State, %struct.State* %0, i32 0, i32 6
  %333 = getelementptr inbounds %struct.GPR, %struct.GPR* %332, i32 0, i32 33
  %334 = getelementptr inbounds %struct.Reg, %struct.Reg* %333, i32 0, i32 0
  %PC.i69 = bitcast %union.anon* %334 to i64*
  %335 = load i64, i64* %PC.i69
  %336 = add i64 %335, 45
  %337 = load i64, i64* %PC.i69
  %338 = add i64 %337, 6
  %339 = load i64, i64* %PC.i69
  %340 = add i64 %339, 6
  store i64 %340, i64* %PC.i69
  %341 = getelementptr inbounds %struct.State, %struct.State* %0, i64 0, i32 2, i32 9
  %342 = load i8, i8* %341, align 1
  %343 = icmp ne i8 %342, 0
  %344 = getelementptr inbounds %struct.State, %struct.State* %0, i64 0, i32 2, i32 13
  %345 = load i8, i8* %344, align 1
  %346 = icmp ne i8 %345, 0
  %347 = xor i1 %343, %346
  %348 = xor i1 %347, true
  %349 = zext i1 %348 to i8
  store i8 %349, i8* %BRANCH_TAKEN, align 1
  %350 = getelementptr inbounds %struct.State, %struct.State* %0, i64 0, i32 6, i32 33, i32 0, i32 0
  %351 = select i1 %347, i64 %338, i64 %336
  store i64 %351, i64* %350, align 8
  store %struct.Memory* %loadMem_4030f5, %struct.Memory** %MEMORY
  %loadBr_4030f5 = load i8, i8* %BRANCH_TAKEN
  %cmpBr_4030f5 = icmp eq i8 %loadBr_4030f5, 1
  br i1 %cmpBr_4030f5, label %block_.L_403122, label %block_4030fb

block_4030fb:                                     ; preds = %block_.L_4030ef
  %loadMem_4030fb = load %struct.Memory*, %struct.Memory** %MEMORY
  %352 = getelementptr inbounds %struct.State, %struct.State* %0, i32 0, i32 6
  %353 = getelementptr inbounds %struct.GPR, %struct.GPR* %352, i32 0, i32 33
  %354 = getelementptr inbounds %struct.Reg, %struct.Reg* %353, i32 0, i32 0
  %PC.i66 = bitcast %union.anon* %354 to i64*
  %355 = getelementptr inbounds %struct.State, %struct.State* %0, i32 0, i32 6
  %356 = getelementptr inbounds %struct.GPR, %struct.GPR* %355, i32 0, i32 1
  %357 = getelementptr inbounds %struct.Reg, %struct.Reg* %356, i32 0, i32 0
  %RAX.i67 = bitcast %union.anon* %357 to i64*
  %358 = getelementptr inbounds %struct.State, %struct.State* %0, i32 0, i32 6
  %359 = getelementptr inbounds %struct.GPR, %struct.GPR* %358, i32 0, i32 15
  %360 = getelementptr inbounds %struct.Reg, %struct.Reg* %359, i32 0, i32 0
  %RBP.i68 = bitcast %union.anon* %360 to i64*
  %361 = load i64, i64* %RBP.i68
  %362 = sub i64 %361, 8
  %363 = load i64, i64* %PC.i66
  %364 = add i64 %363, 4
  store i64 %364, i64* %PC.i66
  %365 = inttoptr i64 %362 to i64*
  %366 = load i64, i64* %365
  store i64 %366, i64* %RAX.i67, align 8
  store %struct.Memory* %loadMem_4030fb, %struct.Memory** %MEMORY
  %loadMem_4030ff = load %struct.Memory*, %struct.Memory** %MEMORY
  %367 = getelementptr inbounds %struct.State, %struct.State* %0, i32 0, i32 6
  %368 = getelementptr inbounds %struct.GPR, %struct.GPR* %367, i32 0, i32 33
  %369 = getelementptr inbounds %struct.Reg, %struct.Reg* %368, i32 0, i32 0
  %PC.i63 = bitcast %union.anon* %369 to i64*
  %370 = getelementptr inbounds %struct.State, %struct.State* %0, i32 0, i32 6
  %371 = getelementptr inbounds %struct.GPR, %struct.GPR* %370, i32 0, i32 5
  %372 = getelementptr inbounds %struct.Reg, %struct.Reg* %371, i32 0, i32 0
  %RCX.i64 = bitcast %union.anon* %372 to i64*
  %373 = getelementptr inbounds %struct.State, %struct.State* %0, i32 0, i32 6
  %374 = getelementptr inbounds %struct.GPR, %struct.GPR* %373, i32 0, i32 15
  %375 = getelementptr inbounds %struct.Reg, %struct.Reg* %374, i32 0, i32 0
  %RBP.i65 = bitcast %union.anon* %375 to i64*
  %376 = load i64, i64* %RBP.i65
  %377 = sub i64 %376, 36
  %378 = load i64, i64* %PC.i63
  %379 = add i64 %378, 4
  store i64 %379, i64* %PC.i63
  %380 = inttoptr i64 %377 to i32*
  %381 = load i32, i32* %380
  %382 = sext i32 %381 to i64
  store i64 %382, i64* %RCX.i64, align 8
  store %struct.Memory* %loadMem_4030ff, %struct.Memory** %MEMORY
  %loadMem_403103 = load %struct.Memory*, %struct.Memory** %MEMORY
  %383 = getelementptr inbounds %struct.State, %struct.State* %0, i32 0, i32 6
  %384 = getelementptr inbounds %struct.GPR, %struct.GPR* %383, i32 0, i32 33
  %385 = getelementptr inbounds %struct.Reg, %struct.Reg* %384, i32 0, i32 0
  %PC.i60 = bitcast %union.anon* %385 to i64*
  %386 = getelementptr inbounds %struct.State, %struct.State* %0, i32 0, i32 6
  %387 = getelementptr inbounds %struct.GPR, %struct.GPR* %386, i32 0, i32 1
  %388 = getelementptr inbounds %struct.Reg, %struct.Reg* %387, i32 0, i32 0
  %RAX.i61 = bitcast %union.anon* %388 to i64*
  %389 = getelementptr inbounds %struct.State, %struct.State* %0, i32 0, i32 6
  %390 = getelementptr inbounds %struct.GPR, %struct.GPR* %389, i32 0, i32 5
  %391 = getelementptr inbounds %struct.Reg, %struct.Reg* %390, i32 0, i32 0
  %RCX.i62 = bitcast %union.anon* %391 to i64*
  %392 = getelementptr inbounds %struct.State, %struct.State* %0, i32 0, i32 6
  %393 = getelementptr inbounds %struct.GPR, %struct.GPR* %392, i32 0, i32 7
  %394 = getelementptr inbounds %struct.Reg, %struct.Reg* %393, i32 0, i32 0
  %RDX.i = bitcast %union.anon* %394 to i64*
  %395 = load i64, i64* %RAX.i61
  %396 = load i64, i64* %RCX.i62
  %397 = add i64 %396, %395
  %398 = load i64, i64* %PC.i60
  %399 = add i64 %398, 4
  store i64 %399, i64* %PC.i60
  %400 = inttoptr i64 %397 to i8*
  %401 = load i8, i8* %400
  %402 = sext i8 %401 to i64
  %403 = and i64 %402, 4294967295
  store i64 %403, i64* %RDX.i, align 8
  store %struct.Memory* %loadMem_403103, %struct.Memory** %MEMORY
  %loadMem_403107 = load %struct.Memory*, %struct.Memory** %MEMORY
  %404 = getelementptr inbounds %struct.State, %struct.State* %0, i32 0, i32 6
  %405 = getelementptr inbounds %struct.GPR, %struct.GPR* %404, i32 0, i32 33
  %406 = getelementptr inbounds %struct.Reg, %struct.Reg* %405, i32 0, i32 0
  %PC.i57 = bitcast %union.anon* %406 to i64*
  %407 = getelementptr inbounds %struct.State, %struct.State* %0, i32 0, i32 6
  %408 = getelementptr inbounds %struct.GPR, %struct.GPR* %407, i32 0, i32 9
  %409 = getelementptr inbounds %struct.Reg, %struct.Reg* %408, i32 0, i32 0
  %RSI.i58 = bitcast %union.anon* %409 to i64*
  %410 = getelementptr inbounds %struct.State, %struct.State* %0, i32 0, i32 6
  %411 = getelementptr inbounds %struct.GPR, %struct.GPR* %410, i32 0, i32 15
  %412 = getelementptr inbounds %struct.Reg, %struct.Reg* %411, i32 0, i32 0
  %RBP.i59 = bitcast %union.anon* %412 to i64*
  %413 = load i64, i64* %RBP.i59
  %414 = sub i64 %413, 29
  %415 = load i64, i64* %PC.i57
  %416 = add i64 %415, 4
  store i64 %416, i64* %PC.i57
  %417 = inttoptr i64 %414 to i8*
  %418 = load i8, i8* %417
  %419 = sext i8 %418 to i64
  %420 = and i64 %419, 4294967295
  store i64 %420, i64* %RSI.i58, align 8
  store %struct.Memory* %loadMem_403107, %struct.Memory** %MEMORY
  %loadMem_40310b = load %struct.Memory*, %struct.Memory** %MEMORY
  %421 = getelementptr inbounds %struct.State, %struct.State* %0, i32 0, i32 6
  %422 = getelementptr inbounds %struct.GPR, %struct.GPR* %421, i32 0, i32 33
  %423 = getelementptr inbounds %struct.Reg, %struct.Reg* %422, i32 0, i32 0
  %PC.i55 = bitcast %union.anon* %423 to i64*
  %424 = getelementptr inbounds %struct.State, %struct.State* %0, i32 0, i32 6
  %425 = getelementptr inbounds %struct.GPR, %struct.GPR* %424, i32 0, i32 7
  %426 = getelementptr inbounds %struct.Reg, %struct.Reg* %425, i32 0, i32 0
  %EDX.i = bitcast %union.anon* %426 to i32*
  %427 = getelementptr inbounds %struct.State, %struct.State* %0, i32 0, i32 6
  %428 = getelementptr inbounds %struct.GPR, %struct.GPR* %427, i32 0, i32 9
  %429 = getelementptr inbounds %struct.Reg, %struct.Reg* %428, i32 0, i32 0
  %RSI.i56 = bitcast %union.anon* %429 to i64*
  %430 = load i64, i64* %RSI.i56
  %431 = load i32, i32* %EDX.i
  %432 = zext i32 %431 to i64
  %433 = load i64, i64* %PC.i55
  %434 = add i64 %433, 2
  store i64 %434, i64* %PC.i55
  %435 = trunc i64 %430 to i32
  %436 = add i32 %431, %435
  %437 = zext i32 %436 to i64
  store i64 %437, i64* %RSI.i56, align 8
  %438 = icmp ult i32 %436, %435
  %439 = icmp ult i32 %436, %431
  %440 = or i1 %438, %439
  %441 = zext i1 %440 to i8
  %442 = getelementptr inbounds %struct.State, %struct.State* %0, i64 0, i32 2, i32 1
  store i8 %441, i8* %442, align 1
  %443 = and i32 %436, 255
  %444 = call i32 @llvm.ctpop.i32(i32 %443)
  %445 = trunc i32 %444 to i8
  %446 = and i8 %445, 1
  %447 = xor i8 %446, 1
  %448 = getelementptr inbounds %struct.State, %struct.State* %0, i64 0, i32 2, i32 3
  store i8 %447, i8* %448, align 1
  %449 = xor i64 %432, %430
  %450 = trunc i64 %449 to i32
  %451 = xor i32 %450, %436
  %452 = lshr i32 %451, 4
  %453 = trunc i32 %452 to i8
  %454 = and i8 %453, 1
  %455 = getelementptr inbounds %struct.State, %struct.State* %0, i64 0, i32 2, i32 5
  store i8 %454, i8* %455, align 1
  %456 = icmp eq i32 %436, 0
  %457 = zext i1 %456 to i8
  %458 = getelementptr inbounds %struct.State, %struct.State* %0, i64 0, i32 2, i32 7
  store i8 %457, i8* %458, align 1
  %459 = lshr i32 %436, 31
  %460 = trunc i32 %459 to i8
  %461 = getelementptr inbounds %struct.State, %struct.State* %0, i64 0, i32 2, i32 9
  store i8 %460, i8* %461, align 1
  %462 = lshr i32 %435, 31
  %463 = lshr i32 %431, 31
  %464 = xor i32 %459, %462
  %465 = xor i32 %459, %463
  %466 = add i32 %464, %465
  %467 = icmp eq i32 %466, 2
  %468 = zext i1 %467 to i8
  %469 = getelementptr inbounds %struct.State, %struct.State* %0, i64 0, i32 2, i32 13
  store i8 %468, i8* %469, align 1
  store %struct.Memory* %loadMem_40310b, %struct.Memory** %MEMORY
  %loadMem_40310d = load %struct.Memory*, %struct.Memory** %MEMORY
  %470 = getelementptr inbounds %struct.State, %struct.State* %0, i32 0, i32 6
  %471 = getelementptr inbounds %struct.GPR, %struct.GPR* %470, i32 0, i32 33
  %472 = getelementptr inbounds %struct.Reg, %struct.Reg* %471, i32 0, i32 0
  %PC.i53 = bitcast %union.anon* %472 to i64*
  %473 = getelementptr inbounds %struct.State, %struct.State* %0, i32 0, i32 6
  %474 = getelementptr inbounds %struct.GPR, %struct.GPR* %473, i32 0, i32 9
  %475 = getelementptr inbounds %struct.Reg, %struct.Reg* %474, i32 0, i32 0
  %476 = bitcast %union.anon* %475 to %struct.anon.2*
  %SIL.i = getelementptr inbounds %struct.anon.2, %struct.anon.2* %476, i32 0, i32 0
  %477 = getelementptr inbounds %struct.State, %struct.State* %0, i32 0, i32 6
  %478 = getelementptr inbounds %struct.GPR, %struct.GPR* %477, i32 0, i32 11
  %479 = getelementptr inbounds %struct.Reg, %struct.Reg* %478, i32 0, i32 0
  %480 = bitcast %union.anon* %479 to %struct.anon.2*
  %DIL.i54 = getelementptr inbounds %struct.anon.2, %struct.anon.2* %480, i32 0, i32 0
  %481 = load i8, i8* %SIL.i
  %482 = zext i8 %481 to i64
  %483 = load i64, i64* %PC.i53
  %484 = add i64 %483, 3
  store i64 %484, i64* %PC.i53
  store i8 %481, i8* %DIL.i54, align 1
  store %struct.Memory* %loadMem_40310d, %struct.Memory** %MEMORY
  %loadMem_403110 = load %struct.Memory*, %struct.Memory** %MEMORY
  %485 = getelementptr inbounds %struct.State, %struct.State* %0, i32 0, i32 6
  %486 = getelementptr inbounds %struct.GPR, %struct.GPR* %485, i32 0, i32 33
  %487 = getelementptr inbounds %struct.Reg, %struct.Reg* %486, i32 0, i32 0
  %PC.i51 = bitcast %union.anon* %487 to i64*
  %488 = getelementptr inbounds %struct.State, %struct.State* %0, i32 0, i32 6
  %489 = getelementptr inbounds %struct.GPR, %struct.GPR* %488, i32 0, i32 11
  %490 = getelementptr inbounds %struct.Reg, %struct.Reg* %489, i32 0, i32 0
  %491 = bitcast %union.anon* %490 to %struct.anon.2*
  %DIL.i = getelementptr inbounds %struct.anon.2, %struct.anon.2* %491, i32 0, i32 0
  %492 = getelementptr inbounds %struct.State, %struct.State* %0, i32 0, i32 6
  %493 = getelementptr inbounds %struct.GPR, %struct.GPR* %492, i32 0, i32 15
  %494 = getelementptr inbounds %struct.Reg, %struct.Reg* %493, i32 0, i32 0
  %RBP.i52 = bitcast %union.anon* %494 to i64*
  %495 = load i64, i64* %RBP.i52
  %496 = sub i64 %495, 29
  %497 = load i8, i8* %DIL.i
  %498 = zext i8 %497 to i64
  %499 = load i64, i64* %PC.i51
  %500 = add i64 %499, 4
  store i64 %500, i64* %PC.i51
  %501 = inttoptr i64 %496 to i8*
  store i8 %497, i8* %501
  store %struct.Memory* %loadMem_403110, %struct.Memory** %MEMORY
  %loadMem_403114 = load %struct.Memory*, %struct.Memory** %MEMORY
  %502 = getelementptr inbounds %struct.State, %struct.State* %0, i32 0, i32 6
  %503 = getelementptr inbounds %struct.GPR, %struct.GPR* %502, i32 0, i32 33
  %504 = getelementptr inbounds %struct.Reg, %struct.Reg* %503, i32 0, i32 0
  %PC.i48 = bitcast %union.anon* %504 to i64*
  %505 = getelementptr inbounds %struct.State, %struct.State* %0, i32 0, i32 6
  %506 = getelementptr inbounds %struct.GPR, %struct.GPR* %505, i32 0, i32 1
  %507 = getelementptr inbounds %struct.Reg, %struct.Reg* %506, i32 0, i32 0
  %RAX.i49 = bitcast %union.anon* %507 to i64*
  %508 = getelementptr inbounds %struct.State, %struct.State* %0, i32 0, i32 6
  %509 = getelementptr inbounds %struct.GPR, %struct.GPR* %508, i32 0, i32 15
  %510 = getelementptr inbounds %struct.Reg, %struct.Reg* %509, i32 0, i32 0
  %RBP.i50 = bitcast %union.anon* %510 to i64*
  %511 = load i64, i64* %RBP.i50
  %512 = sub i64 %511, 36
  %513 = load i64, i64* %PC.i48
  %514 = add i64 %513, 3
  store i64 %514, i64* %PC.i48
  %515 = inttoptr i64 %512 to i32*
  %516 = load i32, i32* %515
  %517 = zext i32 %516 to i64
  store i64 %517, i64* %RAX.i49, align 8
  store %struct.Memory* %loadMem_403114, %struct.Memory** %MEMORY
  %loadMem_403117 = load %struct.Memory*, %struct.Memory** %MEMORY
  %518 = getelementptr inbounds %struct.State, %struct.State* %0, i32 0, i32 6
  %519 = getelementptr inbounds %struct.GPR, %struct.GPR* %518, i32 0, i32 33
  %520 = getelementptr inbounds %struct.Reg, %struct.Reg* %519, i32 0, i32 0
  %PC.i46 = bitcast %union.anon* %520 to i64*
  %521 = getelementptr inbounds %struct.State, %struct.State* %0, i32 0, i32 6
  %522 = getelementptr inbounds %struct.GPR, %struct.GPR* %521, i32 0, i32 1
  %523 = getelementptr inbounds %struct.Reg, %struct.Reg* %522, i32 0, i32 0
  %RAX.i47 = bitcast %union.anon* %523 to i64*
  %524 = load i64, i64* %RAX.i47
  %525 = load i64, i64* %PC.i46
  %526 = add i64 %525, 3
  store i64 %526, i64* %PC.i46
  %527 = trunc i64 %524 to i32
  %528 = add i32 1, %527
  %529 = zext i32 %528 to i64
  store i64 %529, i64* %RAX.i47, align 8
  %530 = icmp ult i32 %528, %527
  %531 = icmp ult i32 %528, 1
  %532 = or i1 %530, %531
  %533 = zext i1 %532 to i8
  %534 = getelementptr inbounds %struct.State, %struct.State* %0, i64 0, i32 2, i32 1
  store i8 %533, i8* %534, align 1
  %535 = and i32 %528, 255
  %536 = call i32 @llvm.ctpop.i32(i32 %535)
  %537 = trunc i32 %536 to i8
  %538 = and i8 %537, 1
  %539 = xor i8 %538, 1
  %540 = getelementptr inbounds %struct.State, %struct.State* %0, i64 0, i32 2, i32 3
  store i8 %539, i8* %540, align 1
  %541 = xor i64 1, %524
  %542 = trunc i64 %541 to i32
  %543 = xor i32 %542, %528
  %544 = lshr i32 %543, 4
  %545 = trunc i32 %544 to i8
  %546 = and i8 %545, 1
  %547 = getelementptr inbounds %struct.State, %struct.State* %0, i64 0, i32 2, i32 5
  store i8 %546, i8* %547, align 1
  %548 = icmp eq i32 %528, 0
  %549 = zext i1 %548 to i8
  %550 = getelementptr inbounds %struct.State, %struct.State* %0, i64 0, i32 2, i32 7
  store i8 %549, i8* %550, align 1
  %551 = lshr i32 %528, 31
  %552 = trunc i32 %551 to i8
  %553 = getelementptr inbounds %struct.State, %struct.State* %0, i64 0, i32 2, i32 9
  store i8 %552, i8* %553, align 1
  %554 = lshr i32 %527, 31
  %555 = xor i32 %551, %554
  %556 = add i32 %555, %551
  %557 = icmp eq i32 %556, 2
  %558 = zext i1 %557 to i8
  %559 = getelementptr inbounds %struct.State, %struct.State* %0, i64 0, i32 2, i32 13
  store i8 %558, i8* %559, align 1
  store %struct.Memory* %loadMem_403117, %struct.Memory** %MEMORY
  %loadMem_40311a = load %struct.Memory*, %struct.Memory** %MEMORY
  %560 = getelementptr inbounds %struct.State, %struct.State* %0, i32 0, i32 6
  %561 = getelementptr inbounds %struct.GPR, %struct.GPR* %560, i32 0, i32 33
  %562 = getelementptr inbounds %struct.Reg, %struct.Reg* %561, i32 0, i32 0
  %PC.i43 = bitcast %union.anon* %562 to i64*
  %563 = getelementptr inbounds %struct.State, %struct.State* %0, i32 0, i32 6
  %564 = getelementptr inbounds %struct.GPR, %struct.GPR* %563, i32 0, i32 1
  %565 = getelementptr inbounds %struct.Reg, %struct.Reg* %564, i32 0, i32 0
  %EAX.i44 = bitcast %union.anon* %565 to i32*
  %566 = getelementptr inbounds %struct.State, %struct.State* %0, i32 0, i32 6
  %567 = getelementptr inbounds %struct.GPR, %struct.GPR* %566, i32 0, i32 15
  %568 = getelementptr inbounds %struct.Reg, %struct.Reg* %567, i32 0, i32 0
  %RBP.i45 = bitcast %union.anon* %568 to i64*
  %569 = load i64, i64* %RBP.i45
  %570 = sub i64 %569, 36
  %571 = load i32, i32* %EAX.i44
  %572 = zext i32 %571 to i64
  %573 = load i64, i64* %PC.i43
  %574 = add i64 %573, 3
  store i64 %574, i64* %PC.i43
  %575 = inttoptr i64 %570 to i32*
  store i32 %571, i32* %575
  store %struct.Memory* %loadMem_40311a, %struct.Memory** %MEMORY
  %loadMem_40311d = load %struct.Memory*, %struct.Memory** %MEMORY
  %576 = getelementptr inbounds %struct.State, %struct.State* %0, i32 0, i32 6
  %577 = getelementptr inbounds %struct.GPR, %struct.GPR* %576, i32 0, i32 33
  %578 = getelementptr inbounds %struct.Reg, %struct.Reg* %577, i32 0, i32 0
  %PC.i42 = bitcast %union.anon* %578 to i64*
  %579 = load i64, i64* %PC.i42
  %580 = add i64 %579, -46
  %581 = load i64, i64* %PC.i42
  %582 = add i64 %581, 5
  store i64 %582, i64* %PC.i42
  %583 = getelementptr inbounds %struct.State, %struct.State* %0, i64 0, i32 6, i32 33, i32 0, i32 0
  store i64 %580, i64* %583, align 8
  store %struct.Memory* %loadMem_40311d, %struct.Memory** %MEMORY
  br label %block_.L_4030ef

block_.L_403122:                                  ; preds = %block_.L_4030ef
  %loadMem_403122 = load %struct.Memory*, %struct.Memory** %MEMORY
  %584 = getelementptr inbounds %struct.State, %struct.State* %0, i32 0, i32 6
  %585 = getelementptr inbounds %struct.GPR, %struct.GPR* %584, i32 0, i32 33
  %586 = getelementptr inbounds %struct.Reg, %struct.Reg* %585, i32 0, i32 0
  %PC.i39 = bitcast %union.anon* %586 to i64*
  %587 = getelementptr inbounds %struct.State, %struct.State* %0, i32 0, i32 6
  %588 = getelementptr inbounds %struct.GPR, %struct.GPR* %587, i32 0, i32 1
  %589 = getelementptr inbounds %struct.Reg, %struct.Reg* %588, i32 0, i32 0
  %RAX.i40 = bitcast %union.anon* %589 to i64*
  %590 = getelementptr inbounds %struct.State, %struct.State* %0, i32 0, i32 6
  %591 = getelementptr inbounds %struct.GPR, %struct.GPR* %590, i32 0, i32 15
  %592 = getelementptr inbounds %struct.Reg, %struct.Reg* %591, i32 0, i32 0
  %RBP.i41 = bitcast %union.anon* %592 to i64*
  %593 = load i64, i64* %RBP.i41
  %594 = sub i64 %593, 12
  %595 = load i64, i64* %PC.i39
  %596 = add i64 %595, 3
  store i64 %596, i64* %PC.i39
  %597 = inttoptr i64 %594 to i32*
  %598 = load i32, i32* %597
  %599 = zext i32 %598 to i64
  store i64 %599, i64* %RAX.i40, align 8
  store %struct.Memory* %loadMem_403122, %struct.Memory** %MEMORY
  %loadMem_403125 = load %struct.Memory*, %struct.Memory** %MEMORY
  %600 = getelementptr inbounds %struct.State, %struct.State* %0, i32 0, i32 6
  %601 = getelementptr inbounds %struct.GPR, %struct.GPR* %600, i32 0, i32 33
  %602 = getelementptr inbounds %struct.Reg, %struct.Reg* %601, i32 0, i32 0
  %PC.i36 = bitcast %union.anon* %602 to i64*
  %603 = getelementptr inbounds %struct.State, %struct.State* %0, i32 0, i32 6
  %604 = getelementptr inbounds %struct.GPR, %struct.GPR* %603, i32 0, i32 5
  %605 = getelementptr inbounds %struct.Reg, %struct.Reg* %604, i32 0, i32 0
  %RCX.i37 = bitcast %union.anon* %605 to i64*
  %606 = getelementptr inbounds %struct.State, %struct.State* %0, i32 0, i32 6
  %607 = getelementptr inbounds %struct.GPR, %struct.GPR* %606, i32 0, i32 15
  %608 = getelementptr inbounds %struct.Reg, %struct.Reg* %607, i32 0, i32 0
  %RBP.i38 = bitcast %union.anon* %608 to i64*
  %609 = load i64, i64* %RBP.i38
  %610 = sub i64 %609, 13
  %611 = load i64, i64* %PC.i36
  %612 = add i64 %611, 4
  store i64 %612, i64* %PC.i36
  %613 = inttoptr i64 %610 to i8*
  %614 = load i8, i8* %613
  %615 = sext i8 %614 to i64
  %616 = and i64 %615, 4294967295
  store i64 %616, i64* %RCX.i37, align 8
  store %struct.Memory* %loadMem_403125, %struct.Memory** %MEMORY
  %loadMem_403129 = load %struct.Memory*, %struct.Memory** %MEMORY
  %617 = getelementptr inbounds %struct.State, %struct.State* %0, i32 0, i32 6
  %618 = getelementptr inbounds %struct.GPR, %struct.GPR* %617, i32 0, i32 33
  %619 = getelementptr inbounds %struct.Reg, %struct.Reg* %618, i32 0, i32 0
  %PC.i34 = bitcast %union.anon* %619 to i64*
  %620 = getelementptr inbounds %struct.State, %struct.State* %0, i32 0, i32 6
  %621 = getelementptr inbounds %struct.GPR, %struct.GPR* %620, i32 0, i32 5
  %622 = getelementptr inbounds %struct.Reg, %struct.Reg* %621, i32 0, i32 0
  %ECX.i = bitcast %union.anon* %622 to i32*
  %623 = getelementptr inbounds %struct.State, %struct.State* %0, i32 0, i32 6
  %624 = getelementptr inbounds %struct.GPR, %struct.GPR* %623, i32 0, i32 1
  %625 = getelementptr inbounds %struct.Reg, %struct.Reg* %624, i32 0, i32 0
  %RAX.i35 = bitcast %union.anon* %625 to i64*
  %626 = load i64, i64* %RAX.i35
  %627 = load i32, i32* %ECX.i
  %628 = zext i32 %627 to i64
  %629 = load i64, i64* %PC.i34
  %630 = add i64 %629, 3
  store i64 %630, i64* %PC.i34
  %631 = shl i64 %626, 32
  %632 = ashr exact i64 %631, 32
  %633 = shl i64 %628, 32
  %634 = ashr exact i64 %633, 32
  %635 = mul i64 %634, %632
  %636 = trunc i64 %635 to i32
  %637 = and i64 %635, 4294967295
  store i64 %637, i64* %RAX.i35, align 8
  %638 = shl i64 %635, 32
  %639 = ashr exact i64 %638, 32
  %640 = icmp ne i64 %639, %635
  %641 = zext i1 %640 to i8
  %642 = getelementptr inbounds %struct.State, %struct.State* %0, i64 0, i32 2, i32 1
  store i8 %641, i8* %642, align 1
  %643 = and i32 %636, 255
  %644 = call i32 @llvm.ctpop.i32(i32 %643)
  %645 = trunc i32 %644 to i8
  %646 = and i8 %645, 1
  %647 = xor i8 %646, 1
  %648 = getelementptr inbounds %struct.State, %struct.State* %0, i64 0, i32 2, i32 3
  store i8 %647, i8* %648, align 1
  %649 = getelementptr inbounds %struct.State, %struct.State* %0, i64 0, i32 2, i32 5
  store i8 0, i8* %649, align 1
  %650 = getelementptr inbounds %struct.State, %struct.State* %0, i64 0, i32 2, i32 7
  store i8 0, i8* %650, align 1
  %651 = lshr i32 %636, 31
  %652 = trunc i32 %651 to i8
  %653 = getelementptr inbounds %struct.State, %struct.State* %0, i64 0, i32 2, i32 9
  store i8 %652, i8* %653, align 1
  %654 = getelementptr inbounds %struct.State, %struct.State* %0, i64 0, i32 2, i32 13
  store i8 %641, i8* %654, align 1
  store %struct.Memory* %loadMem_403129, %struct.Memory** %MEMORY
  %loadMem_40312c = load %struct.Memory*, %struct.Memory** %MEMORY
  %655 = getelementptr inbounds %struct.State, %struct.State* %0, i32 0, i32 6
  %656 = getelementptr inbounds %struct.GPR, %struct.GPR* %655, i32 0, i32 33
  %657 = getelementptr inbounds %struct.Reg, %struct.Reg* %656, i32 0, i32 0
  %PC.i31 = bitcast %union.anon* %657 to i64*
  %658 = getelementptr inbounds %struct.State, %struct.State* %0, i32 0, i32 6
  %659 = getelementptr inbounds %struct.GPR, %struct.GPR* %658, i32 0, i32 5
  %660 = getelementptr inbounds %struct.Reg, %struct.Reg* %659, i32 0, i32 0
  %RCX.i32 = bitcast %union.anon* %660 to i64*
  %661 = getelementptr inbounds %struct.State, %struct.State* %0, i32 0, i32 6
  %662 = getelementptr inbounds %struct.GPR, %struct.GPR* %661, i32 0, i32 15
  %663 = getelementptr inbounds %struct.Reg, %struct.Reg* %662, i32 0, i32 0
  %RBP.i33 = bitcast %union.anon* %663 to i64*
  %664 = load i64, i64* %RBP.i33
  %665 = sub i64 %664, 29
  %666 = load i64, i64* %PC.i31
  %667 = add i64 %666, 4
  store i64 %667, i64* %PC.i31
  %668 = inttoptr i64 %665 to i8*
  %669 = load i8, i8* %668
  %670 = sext i8 %669 to i64
  %671 = and i64 %670, 4294967295
  store i64 %671, i64* %RCX.i32, align 8
  store %struct.Memory* %loadMem_40312c, %struct.Memory** %MEMORY
  %loadMem_403130 = load %struct.Memory*, %struct.Memory** %MEMORY
  %672 = getelementptr inbounds %struct.State, %struct.State* %0, i32 0, i32 6
  %673 = getelementptr inbounds %struct.GPR, %struct.GPR* %672, i32 0, i32 33
  %674 = getelementptr inbounds %struct.Reg, %struct.Reg* %673, i32 0, i32 0
  %PC.i29 = bitcast %union.anon* %674 to i64*
  %675 = getelementptr inbounds %struct.State, %struct.State* %0, i32 0, i32 6
  %676 = getelementptr inbounds %struct.GPR, %struct.GPR* %675, i32 0, i32 1
  %677 = getelementptr inbounds %struct.Reg, %struct.Reg* %676, i32 0, i32 0
  %EAX.i30 = bitcast %union.anon* %677 to i32*
  %678 = getelementptr inbounds %struct.State, %struct.State* %0, i32 0, i32 6
  %679 = getelementptr inbounds %struct.GPR, %struct.GPR* %678, i32 0, i32 5
  %680 = getelementptr inbounds %struct.Reg, %struct.Reg* %679, i32 0, i32 0
  %RCX.i = bitcast %union.anon* %680 to i64*
  %681 = load i64, i64* %RCX.i
  %682 = load i32, i32* %EAX.i30
  %683 = zext i32 %682 to i64
  %684 = load i64, i64* %PC.i29
  %685 = add i64 %684, 2
  store i64 %685, i64* %PC.i29
  %686 = trunc i64 %681 to i32
  %687 = add i32 %682, %686
  %688 = zext i32 %687 to i64
  store i64 %688, i64* %RCX.i, align 8
  %689 = icmp ult i32 %687, %686
  %690 = icmp ult i32 %687, %682
  %691 = or i1 %689, %690
  %692 = zext i1 %691 to i8
  %693 = getelementptr inbounds %struct.State, %struct.State* %0, i64 0, i32 2, i32 1
  store i8 %692, i8* %693, align 1
  %694 = and i32 %687, 255
  %695 = call i32 @llvm.ctpop.i32(i32 %694)
  %696 = trunc i32 %695 to i8
  %697 = and i8 %696, 1
  %698 = xor i8 %697, 1
  %699 = getelementptr inbounds %struct.State, %struct.State* %0, i64 0, i32 2, i32 3
  store i8 %698, i8* %699, align 1
  %700 = xor i64 %683, %681
  %701 = trunc i64 %700 to i32
  %702 = xor i32 %701, %687
  %703 = lshr i32 %702, 4
  %704 = trunc i32 %703 to i8
  %705 = and i8 %704, 1
  %706 = getelementptr inbounds %struct.State, %struct.State* %0, i64 0, i32 2, i32 5
  store i8 %705, i8* %706, align 1
  %707 = icmp eq i32 %687, 0
  %708 = zext i1 %707 to i8
  %709 = getelementptr inbounds %struct.State, %struct.State* %0, i64 0, i32 2, i32 7
  store i8 %708, i8* %709, align 1
  %710 = lshr i32 %687, 31
  %711 = trunc i32 %710 to i8
  %712 = getelementptr inbounds %struct.State, %struct.State* %0, i64 0, i32 2, i32 9
  store i8 %711, i8* %712, align 1
  %713 = lshr i32 %686, 31
  %714 = lshr i32 %682, 31
  %715 = xor i32 %710, %713
  %716 = xor i32 %710, %714
  %717 = add i32 %715, %716
  %718 = icmp eq i32 %717, 2
  %719 = zext i1 %718 to i8
  %720 = getelementptr inbounds %struct.State, %struct.State* %0, i64 0, i32 2, i32 13
  store i8 %719, i8* %720, align 1
  store %struct.Memory* %loadMem_403130, %struct.Memory** %MEMORY
  %loadMem_403132 = load %struct.Memory*, %struct.Memory** %MEMORY
  %721 = getelementptr inbounds %struct.State, %struct.State* %0, i32 0, i32 6
  %722 = getelementptr inbounds %struct.GPR, %struct.GPR* %721, i32 0, i32 33
  %723 = getelementptr inbounds %struct.Reg, %struct.Reg* %722, i32 0, i32 0
  %PC.i27 = bitcast %union.anon* %723 to i64*
  %724 = getelementptr inbounds %struct.State, %struct.State* %0, i32 0, i32 6
  %725 = getelementptr inbounds %struct.GPR, %struct.GPR* %724, i32 0, i32 5
  %726 = getelementptr inbounds %struct.Reg, %struct.Reg* %725, i32 0, i32 0
  %727 = bitcast %union.anon* %726 to %struct.anon.2*
  %CL.i = getelementptr inbounds %struct.anon.2, %struct.anon.2* %727, i32 0, i32 0
  %728 = getelementptr inbounds %struct.State, %struct.State* %0, i32 0, i32 6
  %729 = getelementptr inbounds %struct.GPR, %struct.GPR* %728, i32 0, i32 7
  %730 = getelementptr inbounds %struct.Reg, %struct.Reg* %729, i32 0, i32 0
  %731 = bitcast %union.anon* %730 to %struct.anon.2*
  %DL.i28 = getelementptr inbounds %struct.anon.2, %struct.anon.2* %731, i32 0, i32 0
  %732 = load i8, i8* %CL.i
  %733 = zext i8 %732 to i64
  %734 = load i64, i64* %PC.i27
  %735 = add i64 %734, 2
  store i64 %735, i64* %PC.i27
  store i8 %732, i8* %DL.i28, align 1
  store %struct.Memory* %loadMem_403132, %struct.Memory** %MEMORY
  %loadMem_403134 = load %struct.Memory*, %struct.Memory** %MEMORY
  %736 = getelementptr inbounds %struct.State, %struct.State* %0, i32 0, i32 6
  %737 = getelementptr inbounds %struct.GPR, %struct.GPR* %736, i32 0, i32 33
  %738 = getelementptr inbounds %struct.Reg, %struct.Reg* %737, i32 0, i32 0
  %PC.i24 = bitcast %union.anon* %738 to i64*
  %739 = getelementptr inbounds %struct.State, %struct.State* %0, i32 0, i32 6
  %740 = getelementptr inbounds %struct.GPR, %struct.GPR* %739, i32 0, i32 7
  %741 = getelementptr inbounds %struct.Reg, %struct.Reg* %740, i32 0, i32 0
  %742 = bitcast %union.anon* %741 to %struct.anon.2*
  %DL.i25 = getelementptr inbounds %struct.anon.2, %struct.anon.2* %742, i32 0, i32 0
  %743 = getelementptr inbounds %struct.State, %struct.State* %0, i32 0, i32 6
  %744 = getelementptr inbounds %struct.GPR, %struct.GPR* %743, i32 0, i32 15
  %745 = getelementptr inbounds %struct.Reg, %struct.Reg* %744, i32 0, i32 0
  %RBP.i26 = bitcast %union.anon* %745 to i64*
  %746 = load i64, i64* %RBP.i26
  %747 = sub i64 %746, 29
  %748 = load i8, i8* %DL.i25
  %749 = zext i8 %748 to i64
  %750 = load i64, i64* %PC.i24
  %751 = add i64 %750, 3
  store i64 %751, i64* %PC.i24
  %752 = inttoptr i64 %747 to i8*
  store i8 %748, i8* %752
  store %struct.Memory* %loadMem_403134, %struct.Memory** %MEMORY
  %loadMem_403137 = load %struct.Memory*, %struct.Memory** %MEMORY
  %753 = getelementptr inbounds %struct.State, %struct.State* %0, i32 0, i32 6
  %754 = getelementptr inbounds %struct.GPR, %struct.GPR* %753, i32 0, i32 33
  %755 = getelementptr inbounds %struct.Reg, %struct.Reg* %754, i32 0, i32 0
  %PC.i21 = bitcast %union.anon* %755 to i64*
  %756 = getelementptr inbounds %struct.State, %struct.State* %0, i32 0, i32 6
  %757 = getelementptr inbounds %struct.GPR, %struct.GPR* %756, i32 0, i32 7
  %758 = getelementptr inbounds %struct.Reg, %struct.Reg* %757, i32 0, i32 0
  %759 = bitcast %union.anon* %758 to %struct.anon.2*
  %DL.i22 = getelementptr inbounds %struct.anon.2, %struct.anon.2* %759, i32 0, i32 0
  %760 = getelementptr inbounds %struct.State, %struct.State* %0, i32 0, i32 6
  %761 = getelementptr inbounds %struct.GPR, %struct.GPR* %760, i32 0, i32 15
  %762 = getelementptr inbounds %struct.Reg, %struct.Reg* %761, i32 0, i32 0
  %RBP.i23 = bitcast %union.anon* %762 to i64*
  %763 = load i64, i64* %RBP.i23
  %764 = sub i64 %763, 29
  %765 = load i64, i64* %PC.i21
  %766 = add i64 %765, 3
  store i64 %766, i64* %PC.i21
  %767 = inttoptr i64 %764 to i8*
  %768 = load i8, i8* %767
  store i8 %768, i8* %DL.i22, align 1
  store %struct.Memory* %loadMem_403137, %struct.Memory** %MEMORY
  %loadMem_40313a = load %struct.Memory*, %struct.Memory** %MEMORY
  %769 = getelementptr inbounds %struct.State, %struct.State* %0, i32 0, i32 6
  %770 = getelementptr inbounds %struct.GPR, %struct.GPR* %769, i32 0, i32 33
  %771 = getelementptr inbounds %struct.Reg, %struct.Reg* %770, i32 0, i32 0
  %PC.i19 = bitcast %union.anon* %771 to i64*
  %772 = getelementptr inbounds %struct.State, %struct.State* %0, i32 0, i32 6
  %773 = getelementptr inbounds %struct.GPR, %struct.GPR* %772, i32 0, i32 7
  %774 = getelementptr inbounds %struct.Reg, %struct.Reg* %773, i32 0, i32 0
  %775 = bitcast %union.anon* %774 to %struct.anon.2*
  %DL.i = getelementptr inbounds %struct.anon.2, %struct.anon.2* %775, i32 0, i32 0
  %776 = getelementptr inbounds %struct.State, %struct.State* %0, i32 0, i32 6
  %777 = getelementptr inbounds %struct.GPR, %struct.GPR* %776, i32 0, i32 11
  %778 = getelementptr inbounds %struct.Reg, %struct.Reg* %777, i32 0, i32 0
  %RDI.i20 = bitcast %union.anon* %778 to i64*
  %779 = load i8, i8* %DL.i
  %780 = zext i8 %779 to i64
  %781 = load i64, i64* %PC.i19
  %782 = add i64 %781, 3
  store i64 %782, i64* %PC.i19
  %783 = trunc i64 %780 to i32
  %784 = shl i32 %783, 24
  %785 = ashr exact i32 %784, 24
  %786 = zext i32 %785 to i64
  store i64 %786, i64* %RDI.i20, align 8
  store %struct.Memory* %loadMem_40313a, %struct.Memory** %MEMORY
  %loadMem_40313d = load %struct.Memory*, %struct.Memory** %MEMORY
  %787 = getelementptr inbounds %struct.State, %struct.State* %0, i32 0, i32 6
  %788 = getelementptr inbounds %struct.GPR, %struct.GPR* %787, i32 0, i32 33
  %789 = getelementptr inbounds %struct.Reg, %struct.Reg* %788, i32 0, i32 0
  %PC.i17 = bitcast %union.anon* %789 to i64*
  %790 = getelementptr inbounds %struct.State, %struct.State* %0, i32 0, i32 6
  %791 = getelementptr inbounds %struct.GPR, %struct.GPR* %790, i32 0, i32 9
  %792 = getelementptr inbounds %struct.Reg, %struct.Reg* %791, i32 0, i32 0
  %RSI.i = bitcast %union.anon* %792 to i64*
  %793 = getelementptr inbounds %struct.State, %struct.State* %0, i32 0, i32 6
  %794 = getelementptr inbounds %struct.GPR, %struct.GPR* %793, i32 0, i32 15
  %795 = getelementptr inbounds %struct.Reg, %struct.Reg* %794, i32 0, i32 0
  %RBP.i18 = bitcast %union.anon* %795 to i64*
  %796 = load i64, i64* %RBP.i18
  %797 = sub i64 %796, 13
  %798 = load i64, i64* %PC.i17
  %799 = add i64 %798, 4
  store i64 %799, i64* %PC.i17
  %800 = inttoptr i64 %797 to i8*
  %801 = load i8, i8* %800
  %802 = sext i8 %801 to i64
  %803 = and i64 %802, 4294967295
  store i64 %803, i64* %RSI.i, align 8
  store %struct.Memory* %loadMem_40313d, %struct.Memory** %MEMORY
  %loadMem1_403141 = load %struct.Memory*, %struct.Memory** %MEMORY
  %804 = getelementptr inbounds %struct.State, %struct.State* %0, i32 0, i32 6
  %805 = getelementptr inbounds %struct.GPR, %struct.GPR* %804, i32 0, i32 33
  %806 = getelementptr inbounds %struct.Reg, %struct.Reg* %805, i32 0, i32 0
  %PC.i16 = bitcast %union.anon* %806 to i64*
  %807 = load i64, i64* %PC.i16
  %808 = add i64 %807, 68591
  %809 = load i64, i64* %PC.i16
  %810 = add i64 %809, 5
  %811 = load i64, i64* %PC.i16
  %812 = add i64 %811, 5
  store i64 %812, i64* %PC.i16
  %813 = getelementptr inbounds %struct.State, %struct.State* %0, i64 0, i32 6, i32 13, i32 0, i32 0
  %814 = load i64, i64* %813, align 8
  %815 = add i64 %814, -8
  %816 = inttoptr i64 %815 to i64*
  store i64 %810, i64* %816
  store i64 %815, i64* %813, align 8
  %817 = getelementptr inbounds %struct.State, %struct.State* %0, i64 0, i32 6, i32 33, i32 0, i32 0
  store i64 %808, i64* %817, align 8
  store %struct.Memory* %loadMem1_403141, %struct.Memory** %MEMORY
  %loadMem2_403141 = load %struct.Memory*, %struct.Memory** %MEMORY
  %loadPC_403141 = load i64, i64* %3
  %call2_403141 = call %struct.Memory* @sub_413d30._Z26check_shifted_variable_sumIa19custom_add_variableIaEEvT_S2_(%struct.State* %0, i64 %loadPC_403141, %struct.Memory* %loadMem2_403141)
  store %struct.Memory* %call2_403141, %struct.Memory** %MEMORY
  %loadMem_403146 = load %struct.Memory*, %struct.Memory** %MEMORY
  %818 = getelementptr inbounds %struct.State, %struct.State* %0, i32 0, i32 6
  %819 = getelementptr inbounds %struct.GPR, %struct.GPR* %818, i32 0, i32 33
  %820 = getelementptr inbounds %struct.Reg, %struct.Reg* %819, i32 0, i32 0
  %PC.i13 = bitcast %union.anon* %820 to i64*
  %821 = getelementptr inbounds %struct.State, %struct.State* %0, i32 0, i32 6
  %822 = getelementptr inbounds %struct.GPR, %struct.GPR* %821, i32 0, i32 1
  %823 = getelementptr inbounds %struct.Reg, %struct.Reg* %822, i32 0, i32 0
  %RAX.i14 = bitcast %union.anon* %823 to i64*
  %824 = getelementptr inbounds %struct.State, %struct.State* %0, i32 0, i32 6
  %825 = getelementptr inbounds %struct.GPR, %struct.GPR* %824, i32 0, i32 15
  %826 = getelementptr inbounds %struct.Reg, %struct.Reg* %825, i32 0, i32 0
  %RBP.i15 = bitcast %union.anon* %826 to i64*
  %827 = load i64, i64* %RBP.i15
  %828 = sub i64 %827, 28
  %829 = load i64, i64* %PC.i13
  %830 = add i64 %829, 3
  store i64 %830, i64* %PC.i13
  %831 = inttoptr i64 %828 to i32*
  %832 = load i32, i32* %831
  %833 = zext i32 %832 to i64
  store i64 %833, i64* %RAX.i14, align 8
  store %struct.Memory* %loadMem_403146, %struct.Memory** %MEMORY
  %loadMem_403149 = load %struct.Memory*, %struct.Memory** %MEMORY
  %834 = getelementptr inbounds %struct.State, %struct.State* %0, i32 0, i32 6
  %835 = getelementptr inbounds %struct.GPR, %struct.GPR* %834, i32 0, i32 33
  %836 = getelementptr inbounds %struct.Reg, %struct.Reg* %835, i32 0, i32 0
  %PC.i12 = bitcast %union.anon* %836 to i64*
  %837 = getelementptr inbounds %struct.State, %struct.State* %0, i32 0, i32 6
  %838 = getelementptr inbounds %struct.GPR, %struct.GPR* %837, i32 0, i32 1
  %839 = getelementptr inbounds %struct.Reg, %struct.Reg* %838, i32 0, i32 0
  %RAX.i = bitcast %union.anon* %839 to i64*
  %840 = load i64, i64* %RAX.i
  %841 = load i64, i64* %PC.i12
  %842 = add i64 %841, 3
  store i64 %842, i64* %PC.i12
  %843 = trunc i64 %840 to i32
  %844 = add i32 1, %843
  %845 = zext i32 %844 to i64
  store i64 %845, i64* %RAX.i, align 8
  %846 = icmp ult i32 %844, %843
  %847 = icmp ult i32 %844, 1
  %848 = or i1 %846, %847
  %849 = zext i1 %848 to i8
  %850 = getelementptr inbounds %struct.State, %struct.State* %0, i64 0, i32 2, i32 1
  store i8 %849, i8* %850, align 1
  %851 = and i32 %844, 255
  %852 = call i32 @llvm.ctpop.i32(i32 %851)
  %853 = trunc i32 %852 to i8
  %854 = and i8 %853, 1
  %855 = xor i8 %854, 1
  %856 = getelementptr inbounds %struct.State, %struct.State* %0, i64 0, i32 2, i32 3
  store i8 %855, i8* %856, align 1
  %857 = xor i64 1, %840
  %858 = trunc i64 %857 to i32
  %859 = xor i32 %858, %844
  %860 = lshr i32 %859, 4
  %861 = trunc i32 %860 to i8
  %862 = and i8 %861, 1
  %863 = getelementptr inbounds %struct.State, %struct.State* %0, i64 0, i32 2, i32 5
  store i8 %862, i8* %863, align 1
  %864 = icmp eq i32 %844, 0
  %865 = zext i1 %864 to i8
  %866 = getelementptr inbounds %struct.State, %struct.State* %0, i64 0, i32 2, i32 7
  store i8 %865, i8* %866, align 1
  %867 = lshr i32 %844, 31
  %868 = trunc i32 %867 to i8
  %869 = getelementptr inbounds %struct.State, %struct.State* %0, i64 0, i32 2, i32 9
  store i8 %868, i8* %869, align 1
  %870 = lshr i32 %843, 31
  %871 = xor i32 %867, %870
  %872 = add i32 %871, %867
  %873 = icmp eq i32 %872, 2
  %874 = zext i1 %873 to i8
  %875 = getelementptr inbounds %struct.State, %struct.State* %0, i64 0, i32 2, i32 13
  store i8 %874, i8* %875, align 1
  store %struct.Memory* %loadMem_403149, %struct.Memory** %MEMORY
  %loadMem_40314c = load %struct.Memory*, %struct.Memory** %MEMORY
  %876 = getelementptr inbounds %struct.State, %struct.State* %0, i32 0, i32 6
  %877 = getelementptr inbounds %struct.GPR, %struct.GPR* %876, i32 0, i32 33
  %878 = getelementptr inbounds %struct.Reg, %struct.Reg* %877, i32 0, i32 0
  %PC.i10 = bitcast %union.anon* %878 to i64*
  %879 = getelementptr inbounds %struct.State, %struct.State* %0, i32 0, i32 6
  %880 = getelementptr inbounds %struct.GPR, %struct.GPR* %879, i32 0, i32 1
  %881 = getelementptr inbounds %struct.Reg, %struct.Reg* %880, i32 0, i32 0
  %EAX.i = bitcast %union.anon* %881 to i32*
  %882 = getelementptr inbounds %struct.State, %struct.State* %0, i32 0, i32 6
  %883 = getelementptr inbounds %struct.GPR, %struct.GPR* %882, i32 0, i32 15
  %884 = getelementptr inbounds %struct.Reg, %struct.Reg* %883, i32 0, i32 0
  %RBP.i11 = bitcast %union.anon* %884 to i64*
  %885 = load i64, i64* %RBP.i11
  %886 = sub i64 %885, 28
  %887 = load i32, i32* %EAX.i
  %888 = zext i32 %887 to i64
  %889 = load i64, i64* %PC.i10
  %890 = add i64 %889, 3
  store i64 %890, i64* %PC.i10
  %891 = inttoptr i64 %886 to i32*
  store i32 %887, i32* %891
  store %struct.Memory* %loadMem_40314c, %struct.Memory** %MEMORY
  %loadMem_40314f = load %struct.Memory*, %struct.Memory** %MEMORY
  %892 = getelementptr inbounds %struct.State, %struct.State* %0, i32 0, i32 6
  %893 = getelementptr inbounds %struct.GPR, %struct.GPR* %892, i32 0, i32 33
  %894 = getelementptr inbounds %struct.Reg, %struct.Reg* %893, i32 0, i32 0
  %PC.i9 = bitcast %union.anon* %894 to i64*
  %895 = load i64, i64* %PC.i9
  %896 = add i64 %895, -123
  %897 = load i64, i64* %PC.i9
  %898 = add i64 %897, 5
  store i64 %898, i64* %PC.i9
  %899 = getelementptr inbounds %struct.State, %struct.State* %0, i64 0, i32 6, i32 33, i32 0, i32 0
  store i64 %896, i64* %899, align 8
  store %struct.Memory* %loadMem_40314f, %struct.Memory** %MEMORY
  br label %block_.L_4030d4

block_.L_403154:                                  ; preds = %block_.L_4030d4
  %loadMem1_403154 = load %struct.Memory*, %struct.Memory** %MEMORY
  %900 = getelementptr inbounds %struct.State, %struct.State* %0, i32 0, i32 6
  %901 = getelementptr inbounds %struct.GPR, %struct.GPR* %900, i32 0, i32 33
  %902 = getelementptr inbounds %struct.Reg, %struct.Reg* %901, i32 0, i32 0
  %PC.i8 = bitcast %union.anon* %902 to i64*
  %903 = load i64, i64* %PC.i8
  %904 = add i64 %903, -8932
  %905 = load i64, i64* %PC.i8
  %906 = add i64 %905, 5
  %907 = load i64, i64* %PC.i8
  %908 = add i64 %907, 5
  store i64 %908, i64* %PC.i8
  %909 = getelementptr inbounds %struct.State, %struct.State* %0, i64 0, i32 6, i32 13, i32 0, i32 0
  %910 = load i64, i64* %909, align 8
  %911 = add i64 %910, -8
  %912 = inttoptr i64 %911 to i64*
  store i64 %906, i64* %912
  store i64 %911, i64* %909, align 8
  %913 = getelementptr inbounds %struct.State, %struct.State* %0, i64 0, i32 6, i32 33, i32 0, i32 0
  store i64 %904, i64* %913, align 8
  store %struct.Memory* %loadMem1_403154, %struct.Memory** %MEMORY
  %loadMem2_403154 = load %struct.Memory*, %struct.Memory** %MEMORY
  %loadPC_403154 = load i64, i64* %3
  %call2_403154 = call %struct.Memory* @sub_400e70._Z5timerv(%struct.State* %0, i64 %loadPC_403154, %struct.Memory* %loadMem2_403154)
  store %struct.Memory* %call2_403154, %struct.Memory** %MEMORY
  %loadMem_403159 = load %struct.Memory*, %struct.Memory** %MEMORY
  %914 = getelementptr inbounds %struct.State, %struct.State* %0, i32 0, i32 6
  %915 = getelementptr inbounds %struct.GPR, %struct.GPR* %914, i32 0, i32 33
  %916 = getelementptr inbounds %struct.Reg, %struct.Reg* %915, i32 0, i32 0
  %PC.i6 = bitcast %union.anon* %916 to i64*
  %917 = getelementptr inbounds %struct.State, %struct.State* %0, i32 0, i32 6
  %918 = getelementptr inbounds %struct.GPR, %struct.GPR* %917, i32 0, i32 11
  %919 = getelementptr inbounds %struct.Reg, %struct.Reg* %918, i32 0, i32 0
  %RDI.i = bitcast %union.anon* %919 to i64*
  %920 = getelementptr inbounds %struct.State, %struct.State* %0, i32 0, i32 6
  %921 = getelementptr inbounds %struct.GPR, %struct.GPR* %920, i32 0, i32 15
  %922 = getelementptr inbounds %struct.Reg, %struct.Reg* %921, i32 0, i32 0
  %RBP.i7 = bitcast %union.anon* %922 to i64*
  %923 = load i64, i64* %RBP.i7
  %924 = sub i64 %923, 24
  %925 = load i64, i64* %PC.i6
  %926 = add i64 %925, 4
  store i64 %926, i64* %PC.i6
  %927 = inttoptr i64 %924 to i64*
  %928 = load i64, i64* %927
  store i64 %928, i64* %RDI.i, align 8
  store %struct.Memory* %loadMem_403159, %struct.Memory** %MEMORY
  %loadMem1_40315d = load %struct.Memory*, %struct.Memory** %MEMORY
  %929 = getelementptr inbounds %struct.State, %struct.State* %0, i32 0, i32 6
  %930 = getelementptr inbounds %struct.GPR, %struct.GPR* %929, i32 0, i32 33
  %931 = getelementptr inbounds %struct.Reg, %struct.Reg* %930, i32 0, i32 0
  %PC.i5 = bitcast %union.anon* %931 to i64*
  %932 = load i64, i64* %PC.i5
  %933 = add i64 %932, -10573
  %934 = load i64, i64* %PC.i5
  %935 = add i64 %934, 5
  %936 = load i64, i64* %PC.i5
  %937 = add i64 %936, 5
  store i64 %937, i64* %PC.i5
  %938 = getelementptr inbounds %struct.State, %struct.State* %0, i64 0, i32 6, i32 13, i32 0, i32 0
  %939 = load i64, i64* %938, align 8
  %940 = add i64 %939, -8
  %941 = inttoptr i64 %940 to i64*
  store i64 %935, i64* %941
  store i64 %940, i64* %938, align 8
  %942 = getelementptr inbounds %struct.State, %struct.State* %0, i64 0, i32 6, i32 33, i32 0, i32 0
  store i64 %933, i64* %942, align 8
  store %struct.Memory* %loadMem1_40315d, %struct.Memory** %MEMORY
  %loadMem2_40315d = load %struct.Memory*, %struct.Memory** %MEMORY
  %loadPC_40315d = load i64, i64* %3
  %call2_40315d = call %struct.Memory* @sub_400810._Z13record_resultdPKc(%struct.State* %0, i64 %loadPC_40315d, %struct.Memory* %loadMem2_40315d)
  store %struct.Memory* %call2_40315d, %struct.Memory** %MEMORY
  %loadMem_403162 = load %struct.Memory*, %struct.Memory** %MEMORY
  %943 = getelementptr inbounds %struct.State, %struct.State* %0, i32 0, i32 6
  %944 = getelementptr inbounds %struct.GPR, %struct.GPR* %943, i32 0, i32 33
  %945 = getelementptr inbounds %struct.Reg, %struct.Reg* %944, i32 0, i32 0
  %PC.i4 = bitcast %union.anon* %945 to i64*
  %946 = getelementptr inbounds %struct.State, %struct.State* %0, i32 0, i32 6
  %947 = getelementptr inbounds %struct.GPR, %struct.GPR* %946, i32 0, i32 13
  %948 = getelementptr inbounds %struct.Reg, %struct.Reg* %947, i32 0, i32 0
  %RSP.i = bitcast %union.anon* %948 to i64*
  %949 = load i64, i64* %RSP.i
  %950 = load i64, i64* %PC.i4
  %951 = add i64 %950, 4
  store i64 %951, i64* %PC.i4
  %952 = add i64 48, %949
  store i64 %952, i64* %RSP.i, align 8
  %953 = icmp ult i64 %952, %949
  %954 = icmp ult i64 %952, 48
  %955 = or i1 %953, %954
  %956 = zext i1 %955 to i8
  %957 = getelementptr inbounds %struct.State, %struct.State* %0, i64 0, i32 2, i32 1
  store i8 %956, i8* %957, align 1
  %958 = trunc i64 %952 to i32
  %959 = and i32 %958, 255
  %960 = call i32 @llvm.ctpop.i32(i32 %959)
  %961 = trunc i32 %960 to i8
  %962 = and i8 %961, 1
  %963 = xor i8 %962, 1
  %964 = getelementptr inbounds %struct.State, %struct.State* %0, i64 0, i32 2, i32 3
  store i8 %963, i8* %964, align 1
  %965 = xor i64 48, %949
  %966 = xor i64 %965, %952
  %967 = lshr i64 %966, 4
  %968 = trunc i64 %967 to i8
  %969 = and i8 %968, 1
  %970 = getelementptr inbounds %struct.State, %struct.State* %0, i64 0, i32 2, i32 5
  store i8 %969, i8* %970, align 1
  %971 = icmp eq i64 %952, 0
  %972 = zext i1 %971 to i8
  %973 = getelementptr inbounds %struct.State, %struct.State* %0, i64 0, i32 2, i32 7
  store i8 %972, i8* %973, align 1
  %974 = lshr i64 %952, 63
  %975 = trunc i64 %974 to i8
  %976 = getelementptr inbounds %struct.State, %struct.State* %0, i64 0, i32 2, i32 9
  store i8 %975, i8* %976, align 1
  %977 = lshr i64 %949, 63
  %978 = xor i64 %974, %977
  %979 = add i64 %978, %974
  %980 = icmp eq i64 %979, 2
  %981 = zext i1 %980 to i8
  %982 = getelementptr inbounds %struct.State, %struct.State* %0, i64 0, i32 2, i32 13
  store i8 %981, i8* %982, align 1
  store %struct.Memory* %loadMem_403162, %struct.Memory** %MEMORY
  %loadMem_403166 = load %struct.Memory*, %struct.Memory** %MEMORY
  %983 = getelementptr inbounds %struct.State, %struct.State* %0, i32 0, i32 6
  %984 = getelementptr inbounds %struct.GPR, %struct.GPR* %983, i32 0, i32 33
  %985 = getelementptr inbounds %struct.Reg, %struct.Reg* %984, i32 0, i32 0
  %PC.i2 = bitcast %union.anon* %985 to i64*
  %986 = getelementptr inbounds %struct.State, %struct.State* %0, i32 0, i32 6
  %987 = getelementptr inbounds %struct.GPR, %struct.GPR* %986, i32 0, i32 15
  %988 = getelementptr inbounds %struct.Reg, %struct.Reg* %987, i32 0, i32 0
  %RBP.i3 = bitcast %union.anon* %988 to i64*
  %989 = load i64, i64* %PC.i2
  %990 = add i64 %989, 1
  store i64 %990, i64* %PC.i2
  %991 = getelementptr inbounds %struct.State, %struct.State* %0, i64 0, i32 6, i32 13, i32 0, i32 0
  %992 = load i64, i64* %991, align 8
  %993 = add i64 %992, 8
  %994 = inttoptr i64 %992 to i64*
  %995 = load i64, i64* %994
  store i64 %995, i64* %RBP.i3, align 8
  store i64 %993, i64* %991, align 8
  store %struct.Memory* %loadMem_403166, %struct.Memory** %MEMORY
  %loadMem_403167 = load %struct.Memory*, %struct.Memory** %MEMORY
  %996 = getelementptr inbounds %struct.State, %struct.State* %0, i32 0, i32 6
  %997 = getelementptr inbounds %struct.GPR, %struct.GPR* %996, i32 0, i32 33
  %998 = getelementptr inbounds %struct.Reg, %struct.Reg* %997, i32 0, i32 0
  %PC.i1 = bitcast %union.anon* %998 to i64*
  %999 = load i64, i64* %PC.i1
  %1000 = add i64 %999, 1
  store i64 %1000, i64* %PC.i1
  %1001 = getelementptr inbounds %struct.State, %struct.State* %0, i64 0, i32 6, i32 33, i32 0, i32 0
  %1002 = getelementptr inbounds %struct.State, %struct.State* %0, i64 0, i32 6, i32 13, i32 0, i32 0
  %1003 = load i64, i64* %1002, align 8
  %1004 = inttoptr i64 %1003 to i64*
  %1005 = load i64, i64* %1004
  store i64 %1005, i64* %1001, align 8
  %1006 = add i64 %1003, 8
  store i64 %1006, i64* %1002, align 8
  store %struct.Memory* %loadMem_403167, %struct.Memory** %MEMORY
  ret %struct.Memory* %loadMem_403167
}

define %struct.Memory* @routine_pushq__rbp(%struct.State* dereferenceable(3376), i64, %struct.Memory*) {
block_400488:
  %3 = getelementptr inbounds %struct.State, %struct.State* %0, i32 0, i32 6
  %4 = getelementptr inbounds %struct.GPR, %struct.GPR* %3, i32 0, i32 33
  %5 = getelementptr inbounds %struct.Reg, %struct.Reg* %4, i32 0, i32 0
  %PC = bitcast %union.anon* %5 to i64*
  %6 = getelementptr inbounds %struct.State, %struct.State* %0, i32 0, i32 6
  %7 = getelementptr inbounds %struct.GPR, %struct.GPR* %6, i32 0, i32 15
  %8 = getelementptr inbounds %struct.Reg, %struct.Reg* %7, i32 0, i32 0
  %RBP = bitcast %union.anon* %8 to i64*
  %9 = load i64, i64* %RBP
  %10 = load i64, i64* %PC
  %11 = add i64 %10, 1
  store i64 %11, i64* %PC
  %12 = getelementptr inbounds %struct.State, %struct.State* %0, i64 0, i32 6, i32 13, i32 0, i32 0
  %13 = load i64, i64* %12, align 8
  %14 = add i64 %13, -8
  %15 = inttoptr i64 %14 to i64*
  store i64 %9, i64* %15
  store i64 %14, i64* %12, align 8
  ret %struct.Memory* %2
}

define %struct.Memory* @routine_movq__rsp___rbp(%struct.State* dereferenceable(3376), i64, %struct.Memory*) {
block_400488:
  %3 = getelementptr inbounds %struct.State, %struct.State* %0, i32 0, i32 6
  %4 = getelementptr inbounds %struct.GPR, %struct.GPR* %3, i32 0, i32 33
  %5 = getelementptr inbounds %struct.Reg, %struct.Reg* %4, i32 0, i32 0
  %PC = bitcast %union.anon* %5 to i64*
  %6 = getelementptr inbounds %struct.State, %struct.State* %0, i32 0, i32 6
  %7 = getelementptr inbounds %struct.GPR, %struct.GPR* %6, i32 0, i32 13
  %8 = getelementptr inbounds %struct.Reg, %struct.Reg* %7, i32 0, i32 0
  %RSP = bitcast %union.anon* %8 to i64*
  %9 = getelementptr inbounds %struct.State, %struct.State* %0, i32 0, i32 6
  %10 = getelementptr inbounds %struct.GPR, %struct.GPR* %9, i32 0, i32 15
  %11 = getelementptr inbounds %struct.Reg, %struct.Reg* %10, i32 0, i32 0
  %RBP = bitcast %union.anon* %11 to i64*
  %12 = load i64, i64* %RSP
  %13 = load i64, i64* %PC
  %14 = add i64 %13, 3
  store i64 %14, i64* %PC
  store i64 %12, i64* %RBP, align 8
  ret %struct.Memory* %2
}

define %struct.Memory* @routine_subq__0x30___rsp(%struct.State* dereferenceable(3376), i64, %struct.Memory*) {
block_400488:
  %3 = getelementptr inbounds %struct.State, %struct.State* %0, i32 0, i32 6
  %4 = getelementptr inbounds %struct.GPR, %struct.GPR* %3, i32 0, i32 33
  %5 = getelementptr inbounds %struct.Reg, %struct.Reg* %4, i32 0, i32 0
  %PC = bitcast %union.anon* %5 to i64*
  %6 = getelementptr inbounds %struct.State, %struct.State* %0, i32 0, i32 6
  %7 = getelementptr inbounds %struct.GPR, %struct.GPR* %6, i32 0, i32 13
  %8 = getelementptr inbounds %struct.Reg, %struct.Reg* %7, i32 0, i32 0
  %RSP = bitcast %union.anon* %8 to i64*
  %9 = load i64, i64* %RSP
  %10 = load i64, i64* %PC
  %11 = add i64 %10, 4
  store i64 %11, i64* %PC
  %12 = sub i64 %9, 48
  store i64 %12, i64* %RSP, align 8
  %13 = icmp ult i64 %9, 48
  %14 = zext i1 %13 to i8
  %15 = getelementptr inbounds %struct.State, %struct.State* %0, i64 0, i32 2, i32 1
  store i8 %14, i8* %15, align 1
  %16 = trunc i64 %12 to i32
  %17 = and i32 %16, 255
  %18 = call i32 @llvm.ctpop.i32(i32 %17)
  %19 = trunc i32 %18 to i8
  %20 = and i8 %19, 1
  %21 = xor i8 %20, 1
  %22 = getelementptr inbounds %struct.State, %struct.State* %0, i64 0, i32 2, i32 3
  store i8 %21, i8* %22, align 1
  %23 = xor i64 48, %9
  %24 = xor i64 %23, %12
  %25 = lshr i64 %24, 4
  %26 = trunc i64 %25 to i8
  %27 = and i8 %26, 1
  %28 = getelementptr inbounds %struct.State, %struct.State* %0, i64 0, i32 2, i32 5
  store i8 %27, i8* %28, align 1
  %29 = icmp eq i64 %12, 0
  %30 = zext i1 %29 to i8
  %31 = getelementptr inbounds %struct.State, %struct.State* %0, i64 0, i32 2, i32 7
  store i8 %30, i8* %31, align 1
  %32 = lshr i64 %12, 63
  %33 = trunc i64 %32 to i8
  %34 = getelementptr inbounds %struct.State, %struct.State* %0, i64 0, i32 2, i32 9
  store i8 %33, i8* %34, align 1
  %35 = lshr i64 %9, 63
  %36 = xor i64 %32, %35
  %37 = add i64 %36, %35
  %38 = icmp eq i64 %37, 2
  %39 = zext i1 %38 to i8
  %40 = getelementptr inbounds %struct.State, %struct.State* %0, i64 0, i32 2, i32 13
  store i8 %39, i8* %40, align 1
  ret %struct.Memory* %2
}

define %struct.Memory* @routine_movb__dl___al(%struct.State* dereferenceable(3376), i64, %struct.Memory*) {
block_400488:
  %3 = getelementptr inbounds %struct.State, %struct.State* %0, i32 0, i32 6
  %4 = getelementptr inbounds %struct.GPR, %struct.GPR* %3, i32 0, i32 33
  %5 = getelementptr inbounds %struct.Reg, %struct.Reg* %4, i32 0, i32 0
  %PC = bitcast %union.anon* %5 to i64*
  %6 = getelementptr inbounds %struct.State, %struct.State* %0, i32 0, i32 6
  %7 = getelementptr inbounds %struct.GPR, %struct.GPR* %6, i32 0, i32 1
  %8 = getelementptr inbounds %struct.Reg, %struct.Reg* %7, i32 0, i32 0
  %9 = bitcast %union.anon* %8 to %struct.anon.2*
  %AL = getelementptr inbounds %struct.anon.2, %struct.anon.2* %9, i32 0, i32 0
  %10 = getelementptr inbounds %struct.State, %struct.State* %0, i32 0, i32 6
  %11 = getelementptr inbounds %struct.GPR, %struct.GPR* %10, i32 0, i32 7
  %12 = getelementptr inbounds %struct.Reg, %struct.Reg* %11, i32 0, i32 0
  %13 = bitcast %union.anon* %12 to %struct.anon.2*
  %DL = getelementptr inbounds %struct.anon.2, %struct.anon.2* %13, i32 0, i32 0
  %14 = load i8, i8* %DL
  %15 = zext i8 %14 to i64
  %16 = load i64, i64* %PC
  %17 = add i64 %16, 2
  store i64 %17, i64* %PC
  store i8 %14, i8* %AL, align 1
  ret %struct.Memory* %2
}

define %struct.Memory* @routine_movq__rdi__MINUS0x8__rbp_(%struct.State* dereferenceable(3376), i64, %struct.Memory*) {
block_400488:
  %3 = getelementptr inbounds %struct.State, %struct.State* %0, i32 0, i32 6
  %4 = getelementptr inbounds %struct.GPR, %struct.GPR* %3, i32 0, i32 33
  %5 = getelementptr inbounds %struct.Reg, %struct.Reg* %4, i32 0, i32 0
  %PC = bitcast %union.anon* %5 to i64*
  %6 = getelementptr inbounds %struct.State, %struct.State* %0, i32 0, i32 6
  %7 = getelementptr inbounds %struct.GPR, %struct.GPR* %6, i32 0, i32 11
  %8 = getelementptr inbounds %struct.Reg, %struct.Reg* %7, i32 0, i32 0
  %RDI = bitcast %union.anon* %8 to i64*
  %9 = getelementptr inbounds %struct.State, %struct.State* %0, i32 0, i32 6
  %10 = getelementptr inbounds %struct.GPR, %struct.GPR* %9, i32 0, i32 15
  %11 = getelementptr inbounds %struct.Reg, %struct.Reg* %10, i32 0, i32 0
  %RBP = bitcast %union.anon* %11 to i64*
  %12 = load i64, i64* %RBP
  %13 = sub i64 %12, 8
  %14 = load i64, i64* %RDI
  %15 = load i64, i64* %PC
  %16 = add i64 %15, 4
  store i64 %16, i64* %PC
  %17 = inttoptr i64 %13 to i64*
  store i64 %14, i64* %17
  ret %struct.Memory* %2
}

define %struct.Memory* @routine_movl__esi__MINUS0xc__rbp_(%struct.State* dereferenceable(3376), i64, %struct.Memory*) {
block_400488:
  %3 = getelementptr inbounds %struct.State, %struct.State* %0, i32 0, i32 6
  %4 = getelementptr inbounds %struct.GPR, %struct.GPR* %3, i32 0, i32 33
  %5 = getelementptr inbounds %struct.Reg, %struct.Reg* %4, i32 0, i32 0
  %PC = bitcast %union.anon* %5 to i64*
  %6 = getelementptr inbounds %struct.State, %struct.State* %0, i32 0, i32 6
  %7 = getelementptr inbounds %struct.GPR, %struct.GPR* %6, i32 0, i32 9
  %8 = getelementptr inbounds %struct.Reg, %struct.Reg* %7, i32 0, i32 0
  %ESI = bitcast %union.anon* %8 to i32*
  %9 = getelementptr inbounds %struct.State, %struct.State* %0, i32 0, i32 6
  %10 = getelementptr inbounds %struct.GPR, %struct.GPR* %9, i32 0, i32 15
  %11 = getelementptr inbounds %struct.Reg, %struct.Reg* %10, i32 0, i32 0
  %RBP = bitcast %union.anon* %11 to i64*
  %12 = load i64, i64* %RBP
  %13 = sub i64 %12, 12
  %14 = load i32, i32* %ESI
  %15 = zext i32 %14 to i64
  %16 = load i64, i64* %PC
  %17 = add i64 %16, 3
  store i64 %17, i64* %PC
  %18 = inttoptr i64 %13 to i32*
  store i32 %14, i32* %18
  ret %struct.Memory* %2
}

define %struct.Memory* @routine_movb__al__MINUS0xd__rbp_(%struct.State* dereferenceable(3376), i64, %struct.Memory*) {
block_400488:
  %3 = getelementptr inbounds %struct.State, %struct.State* %0, i32 0, i32 6
  %4 = getelementptr inbounds %struct.GPR, %struct.GPR* %3, i32 0, i32 33
  %5 = getelementptr inbounds %struct.Reg, %struct.Reg* %4, i32 0, i32 0
  %PC = bitcast %union.anon* %5 to i64*
  %6 = getelementptr inbounds %struct.State, %struct.State* %0, i32 0, i32 6
  %7 = getelementptr inbounds %struct.GPR, %struct.GPR* %6, i32 0, i32 1
  %8 = getelementptr inbounds %struct.Reg, %struct.Reg* %7, i32 0, i32 0
  %9 = bitcast %union.anon* %8 to %struct.anon.2*
  %AL = getelementptr inbounds %struct.anon.2, %struct.anon.2* %9, i32 0, i32 0
  %10 = getelementptr inbounds %struct.State, %struct.State* %0, i32 0, i32 6
  %11 = getelementptr inbounds %struct.GPR, %struct.GPR* %10, i32 0, i32 15
  %12 = getelementptr inbounds %struct.Reg, %struct.Reg* %11, i32 0, i32 0
  %RBP = bitcast %union.anon* %12 to i64*
  %13 = load i64, i64* %RBP
  %14 = sub i64 %13, 13
  %15 = load i8, i8* %AL
  %16 = zext i8 %15 to i64
  %17 = load i64, i64* %PC
  %18 = add i64 %17, 3
  store i64 %18, i64* %PC
  %19 = inttoptr i64 %14 to i8*
  store i8 %15, i8* %19
  ret %struct.Memory* %2
}

define %struct.Memory* @routine_movq__rcx__MINUS0x18__rbp_(%struct.State* dereferenceable(3376), i64, %struct.Memory*) {
block_400488:
  %3 = getelementptr inbounds %struct.State, %struct.State* %0, i32 0, i32 6
  %4 = getelementptr inbounds %struct.GPR, %struct.GPR* %3, i32 0, i32 33
  %5 = getelementptr inbounds %struct.Reg, %struct.Reg* %4, i32 0, i32 0
  %PC = bitcast %union.anon* %5 to i64*
  %6 = getelementptr inbounds %struct.State, %struct.State* %0, i32 0, i32 6
  %7 = getelementptr inbounds %struct.GPR, %struct.GPR* %6, i32 0, i32 5
  %8 = getelementptr inbounds %struct.Reg, %struct.Reg* %7, i32 0, i32 0
  %RCX = bitcast %union.anon* %8 to i64*
  %9 = getelementptr inbounds %struct.State, %struct.State* %0, i32 0, i32 6
  %10 = getelementptr inbounds %struct.GPR, %struct.GPR* %9, i32 0, i32 15
  %11 = getelementptr inbounds %struct.Reg, %struct.Reg* %10, i32 0, i32 0
  %RBP = bitcast %union.anon* %11 to i64*
  %12 = load i64, i64* %RBP
  %13 = sub i64 %12, 24
  %14 = load i64, i64* %RCX
  %15 = load i64, i64* %PC
  %16 = add i64 %15, 4
  store i64 %16, i64* %PC
  %17 = inttoptr i64 %13 to i64*
  store i64 %14, i64* %17
  ret %struct.Memory* %2
}

define %struct.Memory* @routine_callq_._Z11start_timerv(%struct.State* dereferenceable(3376), i64, %struct.Memory*, i64 %rel_off1, i64 %rel_off2, i64 %rel_off3) {
block_400488:
  %3 = getelementptr inbounds %struct.State, %struct.State* %0, i32 0, i32 6
  %4 = getelementptr inbounds %struct.GPR, %struct.GPR* %3, i32 0, i32 33
  %5 = getelementptr inbounds %struct.Reg, %struct.Reg* %4, i32 0, i32 0
  %PC = bitcast %union.anon* %5 to i64*
  %6 = load i64, i64* %PC
  %7 = add i64 %6, %rel_off1
  %8 = load i64, i64* %PC
  %9 = add i64 %8, %rel_off2
  %10 = load i64, i64* %PC
  %11 = add i64 %10, %rel_off3
  store i64 %11, i64* %PC
  %12 = getelementptr inbounds %struct.State, %struct.State* %0, i64 0, i32 6, i32 13, i32 0, i32 0
  %13 = load i64, i64* %12, align 8
  %14 = add i64 %13, -8
  %15 = inttoptr i64 %14 to i64*
  store i64 %9, i64* %15
  store i64 %14, i64* %12, align 8
  %16 = getelementptr inbounds %struct.State, %struct.State* %0, i64 0, i32 6, i32 33, i32 0, i32 0
  store i64 %7, i64* %16, align 8
  ret %struct.Memory* %2
}

define %struct.Memory* @routine_movl__0x0__MINUS0x1c__rbp_(%struct.State* dereferenceable(3376), i64, %struct.Memory*) {
block_400488:
  %3 = getelementptr inbounds %struct.State, %struct.State* %0, i32 0, i32 6
  %4 = getelementptr inbounds %struct.GPR, %struct.GPR* %3, i32 0, i32 33
  %5 = getelementptr inbounds %struct.Reg, %struct.Reg* %4, i32 0, i32 0
  %PC = bitcast %union.anon* %5 to i64*
  %6 = getelementptr inbounds %struct.State, %struct.State* %0, i32 0, i32 6
  %7 = getelementptr inbounds %struct.GPR, %struct.GPR* %6, i32 0, i32 15
  %8 = getelementptr inbounds %struct.Reg, %struct.Reg* %7, i32 0, i32 0
  %RBP = bitcast %union.anon* %8 to i64*
  %9 = load i64, i64* %RBP
  %10 = sub i64 %9, 28
  %11 = load i64, i64* %PC
  %12 = add i64 %11, 7
  store i64 %12, i64* %PC
  %13 = inttoptr i64 %10 to i32*
  store i32 0, i32* %13
  ret %struct.Memory* %2
}

define %struct.Memory* @routine_movl_MINUS0x1c__rbp____eax(%struct.State* dereferenceable(3376), i64, %struct.Memory*) {
block_400488:
  %3 = getelementptr inbounds %struct.State, %struct.State* %0, i32 0, i32 6
  %4 = getelementptr inbounds %struct.GPR, %struct.GPR* %3, i32 0, i32 33
  %5 = getelementptr inbounds %struct.Reg, %struct.Reg* %4, i32 0, i32 0
  %PC = bitcast %union.anon* %5 to i64*
  %6 = getelementptr inbounds %struct.State, %struct.State* %0, i32 0, i32 6
  %7 = getelementptr inbounds %struct.GPR, %struct.GPR* %6, i32 0, i32 1
  %8 = getelementptr inbounds %struct.Reg, %struct.Reg* %7, i32 0, i32 0
  %RAX = bitcast %union.anon* %8 to i64*
  %9 = getelementptr inbounds %struct.State, %struct.State* %0, i32 0, i32 6
  %10 = getelementptr inbounds %struct.GPR, %struct.GPR* %9, i32 0, i32 15
  %11 = getelementptr inbounds %struct.Reg, %struct.Reg* %10, i32 0, i32 0
  %RBP = bitcast %union.anon* %11 to i64*
  %12 = load i64, i64* %RBP
  %13 = sub i64 %12, 28
  %14 = load i64, i64* %PC
  %15 = add i64 %14, 3
  store i64 %15, i64* %PC
  %16 = inttoptr i64 %13 to i32*
  %17 = load i32, i32* %16
  %18 = zext i32 %17 to i64
  store i64 %18, i64* %RAX, align 8
  ret %struct.Memory* %2
}

define %struct.Memory* @routine_cmpl_0x61a080___eax(%struct.State* dereferenceable(3376), i64, %struct.Memory*) {
block_400488:
  %3 = getelementptr inbounds %struct.State, %struct.State* %0, i32 0, i32 6
  %4 = getelementptr inbounds %struct.GPR, %struct.GPR* %3, i32 0, i32 33
  %5 = getelementptr inbounds %struct.Reg, %struct.Reg* %4, i32 0, i32 0
  %PC = bitcast %union.anon* %5 to i64*
  %6 = getelementptr inbounds %struct.State, %struct.State* %0, i32 0, i32 6
  %7 = getelementptr inbounds %struct.GPR, %struct.GPR* %6, i32 0, i32 1
  %8 = getelementptr inbounds %struct.Reg, %struct.Reg* %7, i32 0, i32 0
  %EAX = bitcast %union.anon* %8 to i32*
  %9 = load i32, i32* %EAX
  %10 = zext i32 %9 to i64
  %11 = load i64, i64* %PC
  %12 = add i64 %11, 7
  store i64 %12, i64* %PC
  %13 = load i32, i32* inttoptr (i64 6398080 to i32*)
  %14 = sub i32 %9, %13
  %15 = icmp ult i32 %9, %13
  %16 = zext i1 %15 to i8
  %17 = getelementptr inbounds %struct.State, %struct.State* %0, i64 0, i32 2, i32 1
  store i8 %16, i8* %17, align 1
  %18 = and i32 %14, 255
  %19 = call i32 @llvm.ctpop.i32(i32 %18)
  %20 = trunc i32 %19 to i8
  %21 = and i8 %20, 1
  %22 = xor i8 %21, 1
  %23 = getelementptr inbounds %struct.State, %struct.State* %0, i64 0, i32 2, i32 3
  store i8 %22, i8* %23, align 1
  %24 = xor i32 %13, %9
  %25 = xor i32 %24, %14
  %26 = lshr i32 %25, 4
  %27 = trunc i32 %26 to i8
  %28 = and i8 %27, 1
  %29 = getelementptr inbounds %struct.State, %struct.State* %0, i64 0, i32 2, i32 5
  store i8 %28, i8* %29, align 1
  %30 = icmp eq i32 %14, 0
  %31 = zext i1 %30 to i8
  %32 = getelementptr inbounds %struct.State, %struct.State* %0, i64 0, i32 2, i32 7
  store i8 %31, i8* %32, align 1
  %33 = lshr i32 %14, 31
  %34 = trunc i32 %33 to i8
  %35 = getelementptr inbounds %struct.State, %struct.State* %0, i64 0, i32 2, i32 9
  store i8 %34, i8* %35, align 1
  %36 = lshr i32 %9, 31
  %37 = lshr i32 %13, 31
  %38 = xor i32 %37, %36
  %39 = xor i32 %33, %36
  %40 = add i32 %39, %38
  %41 = icmp eq i32 %40, 2
  %42 = zext i1 %41 to i8
  %43 = getelementptr inbounds %struct.State, %struct.State* %0, i64 0, i32 2, i32 13
  store i8 %42, i8* %43, align 1
  ret %struct.Memory* %2
}

define %struct.Memory* @routine_jge_.L_403154(%struct.State* dereferenceable(3376), i64, %struct.Memory*, i8* %BRANCH_TAKEN, i64 %rel_off1, i64 %rel_off2, i64 %rel_off3) {
block_400488:
  %3 = getelementptr inbounds %struct.State, %struct.State* %0, i32 0, i32 6
  %4 = getelementptr inbounds %struct.GPR, %struct.GPR* %3, i32 0, i32 33
  %5 = getelementptr inbounds %struct.Reg, %struct.Reg* %4, i32 0, i32 0
  %PC = bitcast %union.anon* %5 to i64*
  %6 = load i64, i64* %PC
  %7 = add i64 %6, %rel_off1
  %8 = load i64, i64* %PC
  %9 = add i64 %8, %rel_off2
  %10 = load i64, i64* %PC
  %11 = add i64 %10, %rel_off3
  store i64 %11, i64* %PC
  %12 = getelementptr inbounds %struct.State, %struct.State* %0, i64 0, i32 2, i32 9
  %13 = load i8, i8* %12, align 1
  %14 = icmp ne i8 %13, 0
  %15 = getelementptr inbounds %struct.State, %struct.State* %0, i64 0, i32 2, i32 13
  %16 = load i8, i8* %15, align 1
  %17 = icmp ne i8 %16, 0
  %18 = xor i1 %14, %17
  %19 = xor i1 %18, true
  %20 = zext i1 %19 to i8
  store i8 %20, i8* %BRANCH_TAKEN, align 1
  %21 = getelementptr inbounds %struct.State, %struct.State* %0, i64 0, i32 6, i32 33, i32 0, i32 0
  %22 = select i1 %18, i64 %9, i64 %7
  store i64 %22, i64* %21, align 8
  ret %struct.Memory* %2
}

define %struct.Memory* @routine_movb__0x0__MINUS0x1d__rbp_(%struct.State* dereferenceable(3376), i64, %struct.Memory*) {
block_400488:
  %3 = getelementptr inbounds %struct.State, %struct.State* %0, i32 0, i32 6
  %4 = getelementptr inbounds %struct.GPR, %struct.GPR* %3, i32 0, i32 33
  %5 = getelementptr inbounds %struct.Reg, %struct.Reg* %4, i32 0, i32 0
  %PC = bitcast %union.anon* %5 to i64*
  %6 = getelementptr inbounds %struct.State, %struct.State* %0, i32 0, i32 6
  %7 = getelementptr inbounds %struct.GPR, %struct.GPR* %6, i32 0, i32 15
  %8 = getelementptr inbounds %struct.Reg, %struct.Reg* %7, i32 0, i32 0
  %RBP = bitcast %union.anon* %8 to i64*
  %9 = load i64, i64* %RBP
  %10 = sub i64 %9, 29
  %11 = load i64, i64* %PC
  %12 = add i64 %11, 4
  store i64 %12, i64* %PC
  %13 = inttoptr i64 %10 to i8*
  store i8 0, i8* %13
  ret %struct.Memory* %2
}

define %struct.Memory* @routine_movl__0x0__MINUS0x24__rbp_(%struct.State* dereferenceable(3376), i64, %struct.Memory*) {
block_400488:
  %3 = getelementptr inbounds %struct.State, %struct.State* %0, i32 0, i32 6
  %4 = getelementptr inbounds %struct.GPR, %struct.GPR* %3, i32 0, i32 33
  %5 = getelementptr inbounds %struct.Reg, %struct.Reg* %4, i32 0, i32 0
  %PC = bitcast %union.anon* %5 to i64*
  %6 = getelementptr inbounds %struct.State, %struct.State* %0, i32 0, i32 6
  %7 = getelementptr inbounds %struct.GPR, %struct.GPR* %6, i32 0, i32 15
  %8 = getelementptr inbounds %struct.Reg, %struct.Reg* %7, i32 0, i32 0
  %RBP = bitcast %union.anon* %8 to i64*
  %9 = load i64, i64* %RBP
  %10 = sub i64 %9, 36
  %11 = load i64, i64* %PC
  %12 = add i64 %11, 7
  store i64 %12, i64* %PC
  %13 = inttoptr i64 %10 to i32*
  store i32 0, i32* %13
  ret %struct.Memory* %2
}

define %struct.Memory* @routine_movl_MINUS0x24__rbp____eax(%struct.State* dereferenceable(3376), i64, %struct.Memory*) {
block_400488:
  %3 = getelementptr inbounds %struct.State, %struct.State* %0, i32 0, i32 6
  %4 = getelementptr inbounds %struct.GPR, %struct.GPR* %3, i32 0, i32 33
  %5 = getelementptr inbounds %struct.Reg, %struct.Reg* %4, i32 0, i32 0
  %PC = bitcast %union.anon* %5 to i64*
  %6 = getelementptr inbounds %struct.State, %struct.State* %0, i32 0, i32 6
  %7 = getelementptr inbounds %struct.GPR, %struct.GPR* %6, i32 0, i32 1
  %8 = getelementptr inbounds %struct.Reg, %struct.Reg* %7, i32 0, i32 0
  %RAX = bitcast %union.anon* %8 to i64*
  %9 = getelementptr inbounds %struct.State, %struct.State* %0, i32 0, i32 6
  %10 = getelementptr inbounds %struct.GPR, %struct.GPR* %9, i32 0, i32 15
  %11 = getelementptr inbounds %struct.Reg, %struct.Reg* %10, i32 0, i32 0
  %RBP = bitcast %union.anon* %11 to i64*
  %12 = load i64, i64* %RBP
  %13 = sub i64 %12, 36
  %14 = load i64, i64* %PC
  %15 = add i64 %14, 3
  store i64 %15, i64* %PC
  %16 = inttoptr i64 %13 to i32*
  %17 = load i32, i32* %16
  %18 = zext i32 %17 to i64
  store i64 %18, i64* %RAX, align 8
  ret %struct.Memory* %2
}

define %struct.Memory* @routine_cmpl_MINUS0xc__rbp____eax(%struct.State* dereferenceable(3376), i64, %struct.Memory*) {
block_400488:
  %3 = getelementptr inbounds %struct.State, %struct.State* %0, i32 0, i32 6
  %4 = getelementptr inbounds %struct.GPR, %struct.GPR* %3, i32 0, i32 33
  %5 = getelementptr inbounds %struct.Reg, %struct.Reg* %4, i32 0, i32 0
  %PC = bitcast %union.anon* %5 to i64*
  %6 = getelementptr inbounds %struct.State, %struct.State* %0, i32 0, i32 6
  %7 = getelementptr inbounds %struct.GPR, %struct.GPR* %6, i32 0, i32 1
  %8 = getelementptr inbounds %struct.Reg, %struct.Reg* %7, i32 0, i32 0
  %EAX = bitcast %union.anon* %8 to i32*
  %9 = getelementptr inbounds %struct.State, %struct.State* %0, i32 0, i32 6
  %10 = getelementptr inbounds %struct.GPR, %struct.GPR* %9, i32 0, i32 15
  %11 = getelementptr inbounds %struct.Reg, %struct.Reg* %10, i32 0, i32 0
  %RBP = bitcast %union.anon* %11 to i64*
  %12 = load i32, i32* %EAX
  %13 = zext i32 %12 to i64
  %14 = load i64, i64* %RBP
  %15 = sub i64 %14, 12
  %16 = load i64, i64* %PC
  %17 = add i64 %16, 3
  store i64 %17, i64* %PC
  %18 = inttoptr i64 %15 to i32*
  %19 = load i32, i32* %18
  %20 = sub i32 %12, %19
  %21 = icmp ult i32 %12, %19
  %22 = zext i1 %21 to i8
  %23 = getelementptr inbounds %struct.State, %struct.State* %0, i64 0, i32 2, i32 1
  store i8 %22, i8* %23, align 1
  %24 = and i32 %20, 255
  %25 = call i32 @llvm.ctpop.i32(i32 %24)
  %26 = trunc i32 %25 to i8
  %27 = and i8 %26, 1
  %28 = xor i8 %27, 1
  %29 = getelementptr inbounds %struct.State, %struct.State* %0, i64 0, i32 2, i32 3
  store i8 %28, i8* %29, align 1
  %30 = xor i32 %19, %12
  %31 = xor i32 %30, %20
  %32 = lshr i32 %31, 4
  %33 = trunc i32 %32 to i8
  %34 = and i8 %33, 1
  %35 = getelementptr inbounds %struct.State, %struct.State* %0, i64 0, i32 2, i32 5
  store i8 %34, i8* %35, align 1
  %36 = icmp eq i32 %20, 0
  %37 = zext i1 %36 to i8
  %38 = getelementptr inbounds %struct.State, %struct.State* %0, i64 0, i32 2, i32 7
  store i8 %37, i8* %38, align 1
  %39 = lshr i32 %20, 31
  %40 = trunc i32 %39 to i8
  %41 = getelementptr inbounds %struct.State, %struct.State* %0, i64 0, i32 2, i32 9
  store i8 %40, i8* %41, align 1
  %42 = lshr i32 %12, 31
  %43 = lshr i32 %19, 31
  %44 = xor i32 %43, %42
  %45 = xor i32 %39, %42
  %46 = add i32 %45, %44
  %47 = icmp eq i32 %46, 2
  %48 = zext i1 %47 to i8
  %49 = getelementptr inbounds %struct.State, %struct.State* %0, i64 0, i32 2, i32 13
  store i8 %48, i8* %49, align 1
  ret %struct.Memory* %2
}

define %struct.Memory* @routine_jge_.L_403122(%struct.State* dereferenceable(3376), i64, %struct.Memory*, i8* %BRANCH_TAKEN, i64 %rel_off1, i64 %rel_off2, i64 %rel_off3) {
block_400488:
  %3 = getelementptr inbounds %struct.State, %struct.State* %0, i32 0, i32 6
  %4 = getelementptr inbounds %struct.GPR, %struct.GPR* %3, i32 0, i32 33
  %5 = getelementptr inbounds %struct.Reg, %struct.Reg* %4, i32 0, i32 0
  %PC = bitcast %union.anon* %5 to i64*
  %6 = load i64, i64* %PC
  %7 = add i64 %6, %rel_off1
  %8 = load i64, i64* %PC
  %9 = add i64 %8, %rel_off2
  %10 = load i64, i64* %PC
  %11 = add i64 %10, %rel_off3
  store i64 %11, i64* %PC
  %12 = getelementptr inbounds %struct.State, %struct.State* %0, i64 0, i32 2, i32 9
  %13 = load i8, i8* %12, align 1
  %14 = icmp ne i8 %13, 0
  %15 = getelementptr inbounds %struct.State, %struct.State* %0, i64 0, i32 2, i32 13
  %16 = load i8, i8* %15, align 1
  %17 = icmp ne i8 %16, 0
  %18 = xor i1 %14, %17
  %19 = xor i1 %18, true
  %20 = zext i1 %19 to i8
  store i8 %20, i8* %BRANCH_TAKEN, align 1
  %21 = getelementptr inbounds %struct.State, %struct.State* %0, i64 0, i32 6, i32 33, i32 0, i32 0
  %22 = select i1 %18, i64 %9, i64 %7
  store i64 %22, i64* %21, align 8
  ret %struct.Memory* %2
}

define %struct.Memory* @routine_movq_MINUS0x8__rbp____rax(%struct.State* dereferenceable(3376), i64, %struct.Memory*) {
block_400488:
  %3 = getelementptr inbounds %struct.State, %struct.State* %0, i32 0, i32 6
  %4 = getelementptr inbounds %struct.GPR, %struct.GPR* %3, i32 0, i32 33
  %5 = getelementptr inbounds %struct.Reg, %struct.Reg* %4, i32 0, i32 0
  %PC = bitcast %union.anon* %5 to i64*
  %6 = getelementptr inbounds %struct.State, %struct.State* %0, i32 0, i32 6
  %7 = getelementptr inbounds %struct.GPR, %struct.GPR* %6, i32 0, i32 1
  %8 = getelementptr inbounds %struct.Reg, %struct.Reg* %7, i32 0, i32 0
  %RAX = bitcast %union.anon* %8 to i64*
  %9 = getelementptr inbounds %struct.State, %struct.State* %0, i32 0, i32 6
  %10 = getelementptr inbounds %struct.GPR, %struct.GPR* %9, i32 0, i32 15
  %11 = getelementptr inbounds %struct.Reg, %struct.Reg* %10, i32 0, i32 0
  %RBP = bitcast %union.anon* %11 to i64*
  %12 = load i64, i64* %RBP
  %13 = sub i64 %12, 8
  %14 = load i64, i64* %PC
  %15 = add i64 %14, 4
  store i64 %15, i64* %PC
  %16 = inttoptr i64 %13 to i64*
  %17 = load i64, i64* %16
  store i64 %17, i64* %RAX, align 8
  ret %struct.Memory* %2
}

define %struct.Memory* @routine_movslq_MINUS0x24__rbp____rcx(%struct.State* dereferenceable(3376), i64, %struct.Memory*) {
block_400488:
  %3 = getelementptr inbounds %struct.State, %struct.State* %0, i32 0, i32 6
  %4 = getelementptr inbounds %struct.GPR, %struct.GPR* %3, i32 0, i32 33
  %5 = getelementptr inbounds %struct.Reg, %struct.Reg* %4, i32 0, i32 0
  %PC = bitcast %union.anon* %5 to i64*
  %6 = getelementptr inbounds %struct.State, %struct.State* %0, i32 0, i32 6
  %7 = getelementptr inbounds %struct.GPR, %struct.GPR* %6, i32 0, i32 5
  %8 = getelementptr inbounds %struct.Reg, %struct.Reg* %7, i32 0, i32 0
  %RCX = bitcast %union.anon* %8 to i64*
  %9 = getelementptr inbounds %struct.State, %struct.State* %0, i32 0, i32 6
  %10 = getelementptr inbounds %struct.GPR, %struct.GPR* %9, i32 0, i32 15
  %11 = getelementptr inbounds %struct.Reg, %struct.Reg* %10, i32 0, i32 0
  %RBP = bitcast %union.anon* %11 to i64*
  %12 = load i64, i64* %RBP
  %13 = sub i64 %12, 36
  %14 = load i64, i64* %PC
  %15 = add i64 %14, 4
  store i64 %15, i64* %PC
  %16 = inttoptr i64 %13 to i32*
  %17 = load i32, i32* %16
  %18 = sext i32 %17 to i64
  store i64 %18, i64* %RCX, align 8
  ret %struct.Memory* %2
}

define %struct.Memory* @routine_movsbl___rax__rcx_1____edx(%struct.State* dereferenceable(3376), i64, %struct.Memory*) {
block_400488:
  %3 = getelementptr inbounds %struct.State, %struct.State* %0, i32 0, i32 6
  %4 = getelementptr inbounds %struct.GPR, %struct.GPR* %3, i32 0, i32 33
  %5 = getelementptr inbounds %struct.Reg, %struct.Reg* %4, i32 0, i32 0
  %PC = bitcast %union.anon* %5 to i64*
  %6 = getelementptr inbounds %struct.State, %struct.State* %0, i32 0, i32 6
  %7 = getelementptr inbounds %struct.GPR, %struct.GPR* %6, i32 0, i32 1
  %8 = getelementptr inbounds %struct.Reg, %struct.Reg* %7, i32 0, i32 0
  %RAX = bitcast %union.anon* %8 to i64*
  %9 = getelementptr inbounds %struct.State, %struct.State* %0, i32 0, i32 6
  %10 = getelementptr inbounds %struct.GPR, %struct.GPR* %9, i32 0, i32 5
  %11 = getelementptr inbounds %struct.Reg, %struct.Reg* %10, i32 0, i32 0
  %RCX = bitcast %union.anon* %11 to i64*
  %12 = getelementptr inbounds %struct.State, %struct.State* %0, i32 0, i32 6
  %13 = getelementptr inbounds %struct.GPR, %struct.GPR* %12, i32 0, i32 7
  %14 = getelementptr inbounds %struct.Reg, %struct.Reg* %13, i32 0, i32 0
  %RDX = bitcast %union.anon* %14 to i64*
  %15 = load i64, i64* %RAX
  %16 = load i64, i64* %RCX
  %17 = add i64 %16, %15
  %18 = load i64, i64* %PC
  %19 = add i64 %18, 4
  store i64 %19, i64* %PC
  %20 = inttoptr i64 %17 to i8*
  %21 = load i8, i8* %20
  %22 = sext i8 %21 to i64
  %23 = and i64 %22, 4294967295
  store i64 %23, i64* %RDX, align 8
  ret %struct.Memory* %2
}

define %struct.Memory* @routine_movsbl_MINUS0x1d__rbp____esi(%struct.State* dereferenceable(3376), i64, %struct.Memory*) {
block_400488:
  %3 = getelementptr inbounds %struct.State, %struct.State* %0, i32 0, i32 6
  %4 = getelementptr inbounds %struct.GPR, %struct.GPR* %3, i32 0, i32 33
  %5 = getelementptr inbounds %struct.Reg, %struct.Reg* %4, i32 0, i32 0
  %PC = bitcast %union.anon* %5 to i64*
  %6 = getelementptr inbounds %struct.State, %struct.State* %0, i32 0, i32 6
  %7 = getelementptr inbounds %struct.GPR, %struct.GPR* %6, i32 0, i32 9
  %8 = getelementptr inbounds %struct.Reg, %struct.Reg* %7, i32 0, i32 0
  %RSI = bitcast %union.anon* %8 to i64*
  %9 = getelementptr inbounds %struct.State, %struct.State* %0, i32 0, i32 6
  %10 = getelementptr inbounds %struct.GPR, %struct.GPR* %9, i32 0, i32 15
  %11 = getelementptr inbounds %struct.Reg, %struct.Reg* %10, i32 0, i32 0
  %RBP = bitcast %union.anon* %11 to i64*
  %12 = load i64, i64* %RBP
  %13 = sub i64 %12, 29
  %14 = load i64, i64* %PC
  %15 = add i64 %14, 4
  store i64 %15, i64* %PC
  %16 = inttoptr i64 %13 to i8*
  %17 = load i8, i8* %16
  %18 = sext i8 %17 to i64
  %19 = and i64 %18, 4294967295
  store i64 %19, i64* %RSI, align 8
  ret %struct.Memory* %2
}

define %struct.Memory* @routine_addl__edx___esi(%struct.State* dereferenceable(3376), i64, %struct.Memory*) {
block_400488:
  %3 = getelementptr inbounds %struct.State, %struct.State* %0, i32 0, i32 6
  %4 = getelementptr inbounds %struct.GPR, %struct.GPR* %3, i32 0, i32 33
  %5 = getelementptr inbounds %struct.Reg, %struct.Reg* %4, i32 0, i32 0
  %PC = bitcast %union.anon* %5 to i64*
  %6 = getelementptr inbounds %struct.State, %struct.State* %0, i32 0, i32 6
  %7 = getelementptr inbounds %struct.GPR, %struct.GPR* %6, i32 0, i32 7
  %8 = getelementptr inbounds %struct.Reg, %struct.Reg* %7, i32 0, i32 0
  %EDX = bitcast %union.anon* %8 to i32*
  %9 = getelementptr inbounds %struct.State, %struct.State* %0, i32 0, i32 6
  %10 = getelementptr inbounds %struct.GPR, %struct.GPR* %9, i32 0, i32 9
  %11 = getelementptr inbounds %struct.Reg, %struct.Reg* %10, i32 0, i32 0
  %RSI = bitcast %union.anon* %11 to i64*
  %12 = load i64, i64* %RSI
  %13 = load i32, i32* %EDX
  %14 = zext i32 %13 to i64
  %15 = load i64, i64* %PC
  %16 = add i64 %15, 2
  store i64 %16, i64* %PC
  %17 = trunc i64 %12 to i32
  %18 = add i32 %13, %17
  %19 = zext i32 %18 to i64
  store i64 %19, i64* %RSI, align 8
  %20 = icmp ult i32 %18, %17
  %21 = icmp ult i32 %18, %13
  %22 = or i1 %20, %21
  %23 = zext i1 %22 to i8
  %24 = getelementptr inbounds %struct.State, %struct.State* %0, i64 0, i32 2, i32 1
  store i8 %23, i8* %24, align 1
  %25 = and i32 %18, 255
  %26 = call i32 @llvm.ctpop.i32(i32 %25)
  %27 = trunc i32 %26 to i8
  %28 = and i8 %27, 1
  %29 = xor i8 %28, 1
  %30 = getelementptr inbounds %struct.State, %struct.State* %0, i64 0, i32 2, i32 3
  store i8 %29, i8* %30, align 1
  %31 = xor i64 %14, %12
  %32 = trunc i64 %31 to i32
  %33 = xor i32 %32, %18
  %34 = lshr i32 %33, 4
  %35 = trunc i32 %34 to i8
  %36 = and i8 %35, 1
  %37 = getelementptr inbounds %struct.State, %struct.State* %0, i64 0, i32 2, i32 5
  store i8 %36, i8* %37, align 1
  %38 = icmp eq i32 %18, 0
  %39 = zext i1 %38 to i8
  %40 = getelementptr inbounds %struct.State, %struct.State* %0, i64 0, i32 2, i32 7
  store i8 %39, i8* %40, align 1
  %41 = lshr i32 %18, 31
  %42 = trunc i32 %41 to i8
  %43 = getelementptr inbounds %struct.State, %struct.State* %0, i64 0, i32 2, i32 9
  store i8 %42, i8* %43, align 1
  %44 = lshr i32 %17, 31
  %45 = lshr i32 %13, 31
  %46 = xor i32 %41, %44
  %47 = xor i32 %41, %45
  %48 = add i32 %46, %47
  %49 = icmp eq i32 %48, 2
  %50 = zext i1 %49 to i8
  %51 = getelementptr inbounds %struct.State, %struct.State* %0, i64 0, i32 2, i32 13
  store i8 %50, i8* %51, align 1
  ret %struct.Memory* %2
}

define %struct.Memory* @routine_movb__sil___dil(%struct.State* dereferenceable(3376), i64, %struct.Memory*) {
block_400488:
  %3 = getelementptr inbounds %struct.State, %struct.State* %0, i32 0, i32 6
  %4 = getelementptr inbounds %struct.GPR, %struct.GPR* %3, i32 0, i32 33
  %5 = getelementptr inbounds %struct.Reg, %struct.Reg* %4, i32 0, i32 0
  %PC = bitcast %union.anon* %5 to i64*
  %6 = getelementptr inbounds %struct.State, %struct.State* %0, i32 0, i32 6
  %7 = getelementptr inbounds %struct.GPR, %struct.GPR* %6, i32 0, i32 9
  %8 = getelementptr inbounds %struct.Reg, %struct.Reg* %7, i32 0, i32 0
  %9 = bitcast %union.anon* %8 to %struct.anon.2*
  %SIL = getelementptr inbounds %struct.anon.2, %struct.anon.2* %9, i32 0, i32 0
  %10 = getelementptr inbounds %struct.State, %struct.State* %0, i32 0, i32 6
  %11 = getelementptr inbounds %struct.GPR, %struct.GPR* %10, i32 0, i32 11
  %12 = getelementptr inbounds %struct.Reg, %struct.Reg* %11, i32 0, i32 0
  %13 = bitcast %union.anon* %12 to %struct.anon.2*
  %DIL = getelementptr inbounds %struct.anon.2, %struct.anon.2* %13, i32 0, i32 0
  %14 = load i8, i8* %SIL
  %15 = zext i8 %14 to i64
  %16 = load i64, i64* %PC
  %17 = add i64 %16, 3
  store i64 %17, i64* %PC
  store i8 %14, i8* %DIL, align 1
  ret %struct.Memory* %2
}

define %struct.Memory* @routine_movb__dil__MINUS0x1d__rbp_(%struct.State* dereferenceable(3376), i64, %struct.Memory*) {
block_400488:
  %3 = getelementptr inbounds %struct.State, %struct.State* %0, i32 0, i32 6
  %4 = getelementptr inbounds %struct.GPR, %struct.GPR* %3, i32 0, i32 33
  %5 = getelementptr inbounds %struct.Reg, %struct.Reg* %4, i32 0, i32 0
  %PC = bitcast %union.anon* %5 to i64*
  %6 = getelementptr inbounds %struct.State, %struct.State* %0, i32 0, i32 6
  %7 = getelementptr inbounds %struct.GPR, %struct.GPR* %6, i32 0, i32 11
  %8 = getelementptr inbounds %struct.Reg, %struct.Reg* %7, i32 0, i32 0
  %9 = bitcast %union.anon* %8 to %struct.anon.2*
  %DIL = getelementptr inbounds %struct.anon.2, %struct.anon.2* %9, i32 0, i32 0
  %10 = getelementptr inbounds %struct.State, %struct.State* %0, i32 0, i32 6
  %11 = getelementptr inbounds %struct.GPR, %struct.GPR* %10, i32 0, i32 15
  %12 = getelementptr inbounds %struct.Reg, %struct.Reg* %11, i32 0, i32 0
  %RBP = bitcast %union.anon* %12 to i64*
  %13 = load i64, i64* %RBP
  %14 = sub i64 %13, 29
  %15 = load i8, i8* %DIL
  %16 = zext i8 %15 to i64
  %17 = load i64, i64* %PC
  %18 = add i64 %17, 4
  store i64 %18, i64* %PC
  %19 = inttoptr i64 %14 to i8*
  store i8 %15, i8* %19
  ret %struct.Memory* %2
}

define %struct.Memory* @routine_addl__0x1___eax(%struct.State* dereferenceable(3376), i64, %struct.Memory*) {
block_400488:
  %3 = getelementptr inbounds %struct.State, %struct.State* %0, i32 0, i32 6
  %4 = getelementptr inbounds %struct.GPR, %struct.GPR* %3, i32 0, i32 33
  %5 = getelementptr inbounds %struct.Reg, %struct.Reg* %4, i32 0, i32 0
  %PC = bitcast %union.anon* %5 to i64*
  %6 = getelementptr inbounds %struct.State, %struct.State* %0, i32 0, i32 6
  %7 = getelementptr inbounds %struct.GPR, %struct.GPR* %6, i32 0, i32 1
  %8 = getelementptr inbounds %struct.Reg, %struct.Reg* %7, i32 0, i32 0
  %RAX = bitcast %union.anon* %8 to i64*
  %9 = load i64, i64* %RAX
  %10 = load i64, i64* %PC
  %11 = add i64 %10, 3
  store i64 %11, i64* %PC
  %12 = trunc i64 %9 to i32
  %13 = add i32 1, %12
  %14 = zext i32 %13 to i64
  store i64 %14, i64* %RAX, align 8
  %15 = icmp ult i32 %13, %12
  %16 = icmp ult i32 %13, 1
  %17 = or i1 %15, %16
  %18 = zext i1 %17 to i8
  %19 = getelementptr inbounds %struct.State, %struct.State* %0, i64 0, i32 2, i32 1
  store i8 %18, i8* %19, align 1
  %20 = and i32 %13, 255
  %21 = call i32 @llvm.ctpop.i32(i32 %20)
  %22 = trunc i32 %21 to i8
  %23 = and i8 %22, 1
  %24 = xor i8 %23, 1
  %25 = getelementptr inbounds %struct.State, %struct.State* %0, i64 0, i32 2, i32 3
  store i8 %24, i8* %25, align 1
  %26 = xor i64 1, %9
  %27 = trunc i64 %26 to i32
  %28 = xor i32 %27, %13
  %29 = lshr i32 %28, 4
  %30 = trunc i32 %29 to i8
  %31 = and i8 %30, 1
  %32 = getelementptr inbounds %struct.State, %struct.State* %0, i64 0, i32 2, i32 5
  store i8 %31, i8* %32, align 1
  %33 = icmp eq i32 %13, 0
  %34 = zext i1 %33 to i8
  %35 = getelementptr inbounds %struct.State, %struct.State* %0, i64 0, i32 2, i32 7
  store i8 %34, i8* %35, align 1
  %36 = lshr i32 %13, 31
  %37 = trunc i32 %36 to i8
  %38 = getelementptr inbounds %struct.State, %struct.State* %0, i64 0, i32 2, i32 9
  store i8 %37, i8* %38, align 1
  %39 = lshr i32 %12, 31
  %40 = xor i32 %36, %39
  %41 = add i32 %40, %36
  %42 = icmp eq i32 %41, 2
  %43 = zext i1 %42 to i8
  %44 = getelementptr inbounds %struct.State, %struct.State* %0, i64 0, i32 2, i32 13
  store i8 %43, i8* %44, align 1
  ret %struct.Memory* %2
}

define %struct.Memory* @routine_movl__eax__MINUS0x24__rbp_(%struct.State* dereferenceable(3376), i64, %struct.Memory*) {
block_400488:
  %3 = getelementptr inbounds %struct.State, %struct.State* %0, i32 0, i32 6
  %4 = getelementptr inbounds %struct.GPR, %struct.GPR* %3, i32 0, i32 33
  %5 = getelementptr inbounds %struct.Reg, %struct.Reg* %4, i32 0, i32 0
  %PC = bitcast %union.anon* %5 to i64*
  %6 = getelementptr inbounds %struct.State, %struct.State* %0, i32 0, i32 6
  %7 = getelementptr inbounds %struct.GPR, %struct.GPR* %6, i32 0, i32 1
  %8 = getelementptr inbounds %struct.Reg, %struct.Reg* %7, i32 0, i32 0
  %EAX = bitcast %union.anon* %8 to i32*
  %9 = getelementptr inbounds %struct.State, %struct.State* %0, i32 0, i32 6
  %10 = getelementptr inbounds %struct.GPR, %struct.GPR* %9, i32 0, i32 15
  %11 = getelementptr inbounds %struct.Reg, %struct.Reg* %10, i32 0, i32 0
  %RBP = bitcast %union.anon* %11 to i64*
  %12 = load i64, i64* %RBP
  %13 = sub i64 %12, 36
  %14 = load i32, i32* %EAX
  %15 = zext i32 %14 to i64
  %16 = load i64, i64* %PC
  %17 = add i64 %16, 3
  store i64 %17, i64* %PC
  %18 = inttoptr i64 %13 to i32*
  store i32 %14, i32* %18
  ret %struct.Memory* %2
}

define %struct.Memory* @routine_jmpq_.L_4030ef(%struct.State* dereferenceable(3376), i64, %struct.Memory*, i64 %rel_off1, i64 %rel_off2) {
block_400488:
  %3 = getelementptr inbounds %struct.State, %struct.State* %0, i32 0, i32 6
  %4 = getelementptr inbounds %struct.GPR, %struct.GPR* %3, i32 0, i32 33
  %5 = getelementptr inbounds %struct.Reg, %struct.Reg* %4, i32 0, i32 0
  %PC = bitcast %union.anon* %5 to i64*
  %6 = load i64, i64* %PC
  %7 = add i64 %6, %rel_off1
  %8 = load i64, i64* %PC
  %9 = add i64 %8, %rel_off2
  store i64 %9, i64* %PC
  %10 = getelementptr inbounds %struct.State, %struct.State* %0, i64 0, i32 6, i32 33, i32 0, i32 0
  store i64 %7, i64* %10, align 8
  ret %struct.Memory* %2
}

define %struct.Memory* @routine_movl_MINUS0xc__rbp____eax(%struct.State* dereferenceable(3376), i64, %struct.Memory*) {
block_400488:
  %3 = getelementptr inbounds %struct.State, %struct.State* %0, i32 0, i32 6
  %4 = getelementptr inbounds %struct.GPR, %struct.GPR* %3, i32 0, i32 33
  %5 = getelementptr inbounds %struct.Reg, %struct.Reg* %4, i32 0, i32 0
  %PC = bitcast %union.anon* %5 to i64*
  %6 = getelementptr inbounds %struct.State, %struct.State* %0, i32 0, i32 6
  %7 = getelementptr inbounds %struct.GPR, %struct.GPR* %6, i32 0, i32 1
  %8 = getelementptr inbounds %struct.Reg, %struct.Reg* %7, i32 0, i32 0
  %RAX = bitcast %union.anon* %8 to i64*
  %9 = getelementptr inbounds %struct.State, %struct.State* %0, i32 0, i32 6
  %10 = getelementptr inbounds %struct.GPR, %struct.GPR* %9, i32 0, i32 15
  %11 = getelementptr inbounds %struct.Reg, %struct.Reg* %10, i32 0, i32 0
  %RBP = bitcast %union.anon* %11 to i64*
  %12 = load i64, i64* %RBP
  %13 = sub i64 %12, 12
  %14 = load i64, i64* %PC
  %15 = add i64 %14, 3
  store i64 %15, i64* %PC
  %16 = inttoptr i64 %13 to i32*
  %17 = load i32, i32* %16
  %18 = zext i32 %17 to i64
  store i64 %18, i64* %RAX, align 8
  ret %struct.Memory* %2
}

define %struct.Memory* @routine_movsbl_MINUS0xd__rbp____ecx(%struct.State* dereferenceable(3376), i64, %struct.Memory*) {
block_400488:
  %3 = getelementptr inbounds %struct.State, %struct.State* %0, i32 0, i32 6
  %4 = getelementptr inbounds %struct.GPR, %struct.GPR* %3, i32 0, i32 33
  %5 = getelementptr inbounds %struct.Reg, %struct.Reg* %4, i32 0, i32 0
  %PC = bitcast %union.anon* %5 to i64*
  %6 = getelementptr inbounds %struct.State, %struct.State* %0, i32 0, i32 6
  %7 = getelementptr inbounds %struct.GPR, %struct.GPR* %6, i32 0, i32 5
  %8 = getelementptr inbounds %struct.Reg, %struct.Reg* %7, i32 0, i32 0
  %RCX = bitcast %union.anon* %8 to i64*
  %9 = getelementptr inbounds %struct.State, %struct.State* %0, i32 0, i32 6
  %10 = getelementptr inbounds %struct.GPR, %struct.GPR* %9, i32 0, i32 15
  %11 = getelementptr inbounds %struct.Reg, %struct.Reg* %10, i32 0, i32 0
  %RBP = bitcast %union.anon* %11 to i64*
  %12 = load i64, i64* %RBP
  %13 = sub i64 %12, 13
  %14 = load i64, i64* %PC
  %15 = add i64 %14, 4
  store i64 %15, i64* %PC
  %16 = inttoptr i64 %13 to i8*
  %17 = load i8, i8* %16
  %18 = sext i8 %17 to i64
  %19 = and i64 %18, 4294967295
  store i64 %19, i64* %RCX, align 8
  ret %struct.Memory* %2
}

define %struct.Memory* @routine_imull__ecx___eax(%struct.State* dereferenceable(3376), i64, %struct.Memory*) {
block_400488:
  %3 = getelementptr inbounds %struct.State, %struct.State* %0, i32 0, i32 6
  %4 = getelementptr inbounds %struct.GPR, %struct.GPR* %3, i32 0, i32 33
  %5 = getelementptr inbounds %struct.Reg, %struct.Reg* %4, i32 0, i32 0
  %PC = bitcast %union.anon* %5 to i64*
  %6 = getelementptr inbounds %struct.State, %struct.State* %0, i32 0, i32 6
  %7 = getelementptr inbounds %struct.GPR, %struct.GPR* %6, i32 0, i32 5
  %8 = getelementptr inbounds %struct.Reg, %struct.Reg* %7, i32 0, i32 0
  %ECX = bitcast %union.anon* %8 to i32*
  %9 = getelementptr inbounds %struct.State, %struct.State* %0, i32 0, i32 6
  %10 = getelementptr inbounds %struct.GPR, %struct.GPR* %9, i32 0, i32 1
  %11 = getelementptr inbounds %struct.Reg, %struct.Reg* %10, i32 0, i32 0
  %RAX = bitcast %union.anon* %11 to i64*
  %12 = load i64, i64* %RAX
  %13 = load i32, i32* %ECX
  %14 = zext i32 %13 to i64
  %15 = load i64, i64* %PC
  %16 = add i64 %15, 3
  store i64 %16, i64* %PC
  %17 = shl i64 %12, 32
  %18 = ashr exact i64 %17, 32
  %19 = shl i64 %14, 32
  %20 = ashr exact i64 %19, 32
  %21 = mul i64 %20, %18
  %22 = trunc i64 %21 to i32
  %23 = and i64 %21, 4294967295
  store i64 %23, i64* %RAX, align 8
  %24 = shl i64 %21, 32
  %25 = ashr exact i64 %24, 32
  %26 = icmp ne i64 %25, %21
  %27 = zext i1 %26 to i8
  %28 = getelementptr inbounds %struct.State, %struct.State* %0, i64 0, i32 2, i32 1
  store i8 %27, i8* %28, align 1
  %29 = and i32 %22, 255
  %30 = call i32 @llvm.ctpop.i32(i32 %29)
  %31 = trunc i32 %30 to i8
  %32 = and i8 %31, 1
  %33 = xor i8 %32, 1
  %34 = getelementptr inbounds %struct.State, %struct.State* %0, i64 0, i32 2, i32 3
  store i8 %33, i8* %34, align 1
  %35 = getelementptr inbounds %struct.State, %struct.State* %0, i64 0, i32 2, i32 5
  store i8 0, i8* %35, align 1
  %36 = getelementptr inbounds %struct.State, %struct.State* %0, i64 0, i32 2, i32 7
  store i8 0, i8* %36, align 1
  %37 = lshr i32 %22, 31
  %38 = trunc i32 %37 to i8
  %39 = getelementptr inbounds %struct.State, %struct.State* %0, i64 0, i32 2, i32 9
  store i8 %38, i8* %39, align 1
  %40 = getelementptr inbounds %struct.State, %struct.State* %0, i64 0, i32 2, i32 13
  store i8 %27, i8* %40, align 1
  ret %struct.Memory* %2
}

define %struct.Memory* @routine_movsbl_MINUS0x1d__rbp____ecx(%struct.State* dereferenceable(3376), i64, %struct.Memory*) {
block_400488:
  %3 = getelementptr inbounds %struct.State, %struct.State* %0, i32 0, i32 6
  %4 = getelementptr inbounds %struct.GPR, %struct.GPR* %3, i32 0, i32 33
  %5 = getelementptr inbounds %struct.Reg, %struct.Reg* %4, i32 0, i32 0
  %PC = bitcast %union.anon* %5 to i64*
  %6 = getelementptr inbounds %struct.State, %struct.State* %0, i32 0, i32 6
  %7 = getelementptr inbounds %struct.GPR, %struct.GPR* %6, i32 0, i32 5
  %8 = getelementptr inbounds %struct.Reg, %struct.Reg* %7, i32 0, i32 0
  %RCX = bitcast %union.anon* %8 to i64*
  %9 = getelementptr inbounds %struct.State, %struct.State* %0, i32 0, i32 6
  %10 = getelementptr inbounds %struct.GPR, %struct.GPR* %9, i32 0, i32 15
  %11 = getelementptr inbounds %struct.Reg, %struct.Reg* %10, i32 0, i32 0
  %RBP = bitcast %union.anon* %11 to i64*
  %12 = load i64, i64* %RBP
  %13 = sub i64 %12, 29
  %14 = load i64, i64* %PC
  %15 = add i64 %14, 4
  store i64 %15, i64* %PC
  %16 = inttoptr i64 %13 to i8*
  %17 = load i8, i8* %16
  %18 = sext i8 %17 to i64
  %19 = and i64 %18, 4294967295
  store i64 %19, i64* %RCX, align 8
  ret %struct.Memory* %2
}

define %struct.Memory* @routine_addl__eax___ecx(%struct.State* dereferenceable(3376), i64, %struct.Memory*) {
block_400488:
  %3 = getelementptr inbounds %struct.State, %struct.State* %0, i32 0, i32 6
  %4 = getelementptr inbounds %struct.GPR, %struct.GPR* %3, i32 0, i32 33
  %5 = getelementptr inbounds %struct.Reg, %struct.Reg* %4, i32 0, i32 0
  %PC = bitcast %union.anon* %5 to i64*
  %6 = getelementptr inbounds %struct.State, %struct.State* %0, i32 0, i32 6
  %7 = getelementptr inbounds %struct.GPR, %struct.GPR* %6, i32 0, i32 1
  %8 = getelementptr inbounds %struct.Reg, %struct.Reg* %7, i32 0, i32 0
  %EAX = bitcast %union.anon* %8 to i32*
  %9 = getelementptr inbounds %struct.State, %struct.State* %0, i32 0, i32 6
  %10 = getelementptr inbounds %struct.GPR, %struct.GPR* %9, i32 0, i32 5
  %11 = getelementptr inbounds %struct.Reg, %struct.Reg* %10, i32 0, i32 0
  %RCX = bitcast %union.anon* %11 to i64*
  %12 = load i64, i64* %RCX
  %13 = load i32, i32* %EAX
  %14 = zext i32 %13 to i64
  %15 = load i64, i64* %PC
  %16 = add i64 %15, 2
  store i64 %16, i64* %PC
  %17 = trunc i64 %12 to i32
  %18 = add i32 %13, %17
  %19 = zext i32 %18 to i64
  store i64 %19, i64* %RCX, align 8
  %20 = icmp ult i32 %18, %17
  %21 = icmp ult i32 %18, %13
  %22 = or i1 %20, %21
  %23 = zext i1 %22 to i8
  %24 = getelementptr inbounds %struct.State, %struct.State* %0, i64 0, i32 2, i32 1
  store i8 %23, i8* %24, align 1
  %25 = and i32 %18, 255
  %26 = call i32 @llvm.ctpop.i32(i32 %25)
  %27 = trunc i32 %26 to i8
  %28 = and i8 %27, 1
  %29 = xor i8 %28, 1
  %30 = getelementptr inbounds %struct.State, %struct.State* %0, i64 0, i32 2, i32 3
  store i8 %29, i8* %30, align 1
  %31 = xor i64 %14, %12
  %32 = trunc i64 %31 to i32
  %33 = xor i32 %32, %18
  %34 = lshr i32 %33, 4
  %35 = trunc i32 %34 to i8
  %36 = and i8 %35, 1
  %37 = getelementptr inbounds %struct.State, %struct.State* %0, i64 0, i32 2, i32 5
  store i8 %36, i8* %37, align 1
  %38 = icmp eq i32 %18, 0
  %39 = zext i1 %38 to i8
  %40 = getelementptr inbounds %struct.State, %struct.State* %0, i64 0, i32 2, i32 7
  store i8 %39, i8* %40, align 1
  %41 = lshr i32 %18, 31
  %42 = trunc i32 %41 to i8
  %43 = getelementptr inbounds %struct.State, %struct.State* %0, i64 0, i32 2, i32 9
  store i8 %42, i8* %43, align 1
  %44 = lshr i32 %17, 31
  %45 = lshr i32 %13, 31
  %46 = xor i32 %41, %44
  %47 = xor i32 %41, %45
  %48 = add i32 %46, %47
  %49 = icmp eq i32 %48, 2
  %50 = zext i1 %49 to i8
  %51 = getelementptr inbounds %struct.State, %struct.State* %0, i64 0, i32 2, i32 13
  store i8 %50, i8* %51, align 1
  ret %struct.Memory* %2
}

define %struct.Memory* @routine_movb__cl___dl(%struct.State* dereferenceable(3376), i64, %struct.Memory*) {
block_400488:
  %3 = getelementptr inbounds %struct.State, %struct.State* %0, i32 0, i32 6
  %4 = getelementptr inbounds %struct.GPR, %struct.GPR* %3, i32 0, i32 33
  %5 = getelementptr inbounds %struct.Reg, %struct.Reg* %4, i32 0, i32 0
  %PC = bitcast %union.anon* %5 to i64*
  %6 = getelementptr inbounds %struct.State, %struct.State* %0, i32 0, i32 6
  %7 = getelementptr inbounds %struct.GPR, %struct.GPR* %6, i32 0, i32 5
  %8 = getelementptr inbounds %struct.Reg, %struct.Reg* %7, i32 0, i32 0
  %9 = bitcast %union.anon* %8 to %struct.anon.2*
  %CL = getelementptr inbounds %struct.anon.2, %struct.anon.2* %9, i32 0, i32 0
  %10 = getelementptr inbounds %struct.State, %struct.State* %0, i32 0, i32 6
  %11 = getelementptr inbounds %struct.GPR, %struct.GPR* %10, i32 0, i32 7
  %12 = getelementptr inbounds %struct.Reg, %struct.Reg* %11, i32 0, i32 0
  %13 = bitcast %union.anon* %12 to %struct.anon.2*
  %DL = getelementptr inbounds %struct.anon.2, %struct.anon.2* %13, i32 0, i32 0
  %14 = load i8, i8* %CL
  %15 = zext i8 %14 to i64
  %16 = load i64, i64* %PC
  %17 = add i64 %16, 2
  store i64 %17, i64* %PC
  store i8 %14, i8* %DL, align 1
  ret %struct.Memory* %2
}

define %struct.Memory* @routine_movb__dl__MINUS0x1d__rbp_(%struct.State* dereferenceable(3376), i64, %struct.Memory*) {
block_400488:
  %3 = getelementptr inbounds %struct.State, %struct.State* %0, i32 0, i32 6
  %4 = getelementptr inbounds %struct.GPR, %struct.GPR* %3, i32 0, i32 33
  %5 = getelementptr inbounds %struct.Reg, %struct.Reg* %4, i32 0, i32 0
  %PC = bitcast %union.anon* %5 to i64*
  %6 = getelementptr inbounds %struct.State, %struct.State* %0, i32 0, i32 6
  %7 = getelementptr inbounds %struct.GPR, %struct.GPR* %6, i32 0, i32 7
  %8 = getelementptr inbounds %struct.Reg, %struct.Reg* %7, i32 0, i32 0
  %9 = bitcast %union.anon* %8 to %struct.anon.2*
  %DL = getelementptr inbounds %struct.anon.2, %struct.anon.2* %9, i32 0, i32 0
  %10 = getelementptr inbounds %struct.State, %struct.State* %0, i32 0, i32 6
  %11 = getelementptr inbounds %struct.GPR, %struct.GPR* %10, i32 0, i32 15
  %12 = getelementptr inbounds %struct.Reg, %struct.Reg* %11, i32 0, i32 0
  %RBP = bitcast %union.anon* %12 to i64*
  %13 = load i64, i64* %RBP
  %14 = sub i64 %13, 29
  %15 = load i8, i8* %DL
  %16 = zext i8 %15 to i64
  %17 = load i64, i64* %PC
  %18 = add i64 %17, 3
  store i64 %18, i64* %PC
  %19 = inttoptr i64 %14 to i8*
  store i8 %15, i8* %19
  ret %struct.Memory* %2
}

define %struct.Memory* @routine_movb_MINUS0x1d__rbp____dl(%struct.State* dereferenceable(3376), i64, %struct.Memory*) {
block_400488:
  %3 = getelementptr inbounds %struct.State, %struct.State* %0, i32 0, i32 6
  %4 = getelementptr inbounds %struct.GPR, %struct.GPR* %3, i32 0, i32 33
  %5 = getelementptr inbounds %struct.Reg, %struct.Reg* %4, i32 0, i32 0
  %PC = bitcast %union.anon* %5 to i64*
  %6 = getelementptr inbounds %struct.State, %struct.State* %0, i32 0, i32 6
  %7 = getelementptr inbounds %struct.GPR, %struct.GPR* %6, i32 0, i32 7
  %8 = getelementptr inbounds %struct.Reg, %struct.Reg* %7, i32 0, i32 0
  %9 = bitcast %union.anon* %8 to %struct.anon.2*
  %DL = getelementptr inbounds %struct.anon.2, %struct.anon.2* %9, i32 0, i32 0
  %10 = getelementptr inbounds %struct.State, %struct.State* %0, i32 0, i32 6
  %11 = getelementptr inbounds %struct.GPR, %struct.GPR* %10, i32 0, i32 15
  %12 = getelementptr inbounds %struct.Reg, %struct.Reg* %11, i32 0, i32 0
  %RBP = bitcast %union.anon* %12 to i64*
  %13 = load i64, i64* %RBP
  %14 = sub i64 %13, 29
  %15 = load i64, i64* %PC
  %16 = add i64 %15, 3
  store i64 %16, i64* %PC
  %17 = inttoptr i64 %14 to i8*
  %18 = load i8, i8* %17
  store i8 %18, i8* %DL, align 1
  ret %struct.Memory* %2
}

define %struct.Memory* @routine_movsbl__dl___edi(%struct.State* dereferenceable(3376), i64, %struct.Memory*) {
block_400488:
  %3 = getelementptr inbounds %struct.State, %struct.State* %0, i32 0, i32 6
  %4 = getelementptr inbounds %struct.GPR, %struct.GPR* %3, i32 0, i32 33
  %5 = getelementptr inbounds %struct.Reg, %struct.Reg* %4, i32 0, i32 0
  %PC = bitcast %union.anon* %5 to i64*
  %6 = getelementptr inbounds %struct.State, %struct.State* %0, i32 0, i32 6
  %7 = getelementptr inbounds %struct.GPR, %struct.GPR* %6, i32 0, i32 7
  %8 = getelementptr inbounds %struct.Reg, %struct.Reg* %7, i32 0, i32 0
  %9 = bitcast %union.anon* %8 to %struct.anon.2*
  %DL = getelementptr inbounds %struct.anon.2, %struct.anon.2* %9, i32 0, i32 0
  %10 = getelementptr inbounds %struct.State, %struct.State* %0, i32 0, i32 6
  %11 = getelementptr inbounds %struct.GPR, %struct.GPR* %10, i32 0, i32 11
  %12 = getelementptr inbounds %struct.Reg, %struct.Reg* %11, i32 0, i32 0
  %RDI = bitcast %union.anon* %12 to i64*
  %13 = load i8, i8* %DL
  %14 = zext i8 %13 to i64
  %15 = load i64, i64* %PC
  %16 = add i64 %15, 3
  store i64 %16, i64* %PC
  %17 = trunc i64 %14 to i32
  %18 = shl i32 %17, 24
  %19 = ashr exact i32 %18, 24
  %20 = zext i32 %19 to i64
  store i64 %20, i64* %RDI, align 8
  ret %struct.Memory* %2
}

define %struct.Memory* @routine_movsbl_MINUS0xd__rbp____esi(%struct.State* dereferenceable(3376), i64, %struct.Memory*) {
block_400488:
  %3 = getelementptr inbounds %struct.State, %struct.State* %0, i32 0, i32 6
  %4 = getelementptr inbounds %struct.GPR, %struct.GPR* %3, i32 0, i32 33
  %5 = getelementptr inbounds %struct.Reg, %struct.Reg* %4, i32 0, i32 0
  %PC = bitcast %union.anon* %5 to i64*
  %6 = getelementptr inbounds %struct.State, %struct.State* %0, i32 0, i32 6
  %7 = getelementptr inbounds %struct.GPR, %struct.GPR* %6, i32 0, i32 9
  %8 = getelementptr inbounds %struct.Reg, %struct.Reg* %7, i32 0, i32 0
  %RSI = bitcast %union.anon* %8 to i64*
  %9 = getelementptr inbounds %struct.State, %struct.State* %0, i32 0, i32 6
  %10 = getelementptr inbounds %struct.GPR, %struct.GPR* %9, i32 0, i32 15
  %11 = getelementptr inbounds %struct.Reg, %struct.Reg* %10, i32 0, i32 0
  %RBP = bitcast %union.anon* %11 to i64*
  %12 = load i64, i64* %RBP
  %13 = sub i64 %12, 13
  %14 = load i64, i64* %PC
  %15 = add i64 %14, 4
  store i64 %15, i64* %PC
  %16 = inttoptr i64 %13 to i8*
  %17 = load i8, i8* %16
  %18 = sext i8 %17 to i64
  %19 = and i64 %18, 4294967295
  store i64 %19, i64* %RSI, align 8
  ret %struct.Memory* %2
}

define %struct.Memory* @routine_callq_._Z26check_shifted_variable_sumIa19custom_add_variableIaEEvT_S2_(%struct.State* dereferenceable(3376), i64, %struct.Memory*, i64 %rel_off1, i64 %rel_off2, i64 %rel_off3) {
block_400488:
  %3 = getelementptr inbounds %struct.State, %struct.State* %0, i32 0, i32 6
  %4 = getelementptr inbounds %struct.GPR, %struct.GPR* %3, i32 0, i32 33
  %5 = getelementptr inbounds %struct.Reg, %struct.Reg* %4, i32 0, i32 0
  %PC = bitcast %union.anon* %5 to i64*
  %6 = load i64, i64* %PC
  %7 = add i64 %6, %rel_off1
  %8 = load i64, i64* %PC
  %9 = add i64 %8, %rel_off2
  %10 = load i64, i64* %PC
  %11 = add i64 %10, %rel_off3
  store i64 %11, i64* %PC
  %12 = getelementptr inbounds %struct.State, %struct.State* %0, i64 0, i32 6, i32 13, i32 0, i32 0
  %13 = load i64, i64* %12, align 8
  %14 = add i64 %13, -8
  %15 = inttoptr i64 %14 to i64*
  store i64 %9, i64* %15
  store i64 %14, i64* %12, align 8
  %16 = getelementptr inbounds %struct.State, %struct.State* %0, i64 0, i32 6, i32 33, i32 0, i32 0
  store i64 %7, i64* %16, align 8
  ret %struct.Memory* %2
}

define %struct.Memory* @routine_movl__eax__MINUS0x1c__rbp_(%struct.State* dereferenceable(3376), i64, %struct.Memory*) {
block_400488:
  %3 = getelementptr inbounds %struct.State, %struct.State* %0, i32 0, i32 6
  %4 = getelementptr inbounds %struct.GPR, %struct.GPR* %3, i32 0, i32 33
  %5 = getelementptr inbounds %struct.Reg, %struct.Reg* %4, i32 0, i32 0
  %PC = bitcast %union.anon* %5 to i64*
  %6 = getelementptr inbounds %struct.State, %struct.State* %0, i32 0, i32 6
  %7 = getelementptr inbounds %struct.GPR, %struct.GPR* %6, i32 0, i32 1
  %8 = getelementptr inbounds %struct.Reg, %struct.Reg* %7, i32 0, i32 0
  %EAX = bitcast %union.anon* %8 to i32*
  %9 = getelementptr inbounds %struct.State, %struct.State* %0, i32 0, i32 6
  %10 = getelementptr inbounds %struct.GPR, %struct.GPR* %9, i32 0, i32 15
  %11 = getelementptr inbounds %struct.Reg, %struct.Reg* %10, i32 0, i32 0
  %RBP = bitcast %union.anon* %11 to i64*
  %12 = load i64, i64* %RBP
  %13 = sub i64 %12, 28
  %14 = load i32, i32* %EAX
  %15 = zext i32 %14 to i64
  %16 = load i64, i64* %PC
  %17 = add i64 %16, 3
  store i64 %17, i64* %PC
  %18 = inttoptr i64 %13 to i32*
  store i32 %14, i32* %18
  ret %struct.Memory* %2
}

define %struct.Memory* @routine_jmpq_.L_4030d4(%struct.State* dereferenceable(3376), i64, %struct.Memory*, i64 %rel_off1, i64 %rel_off2) {
block_400488:
  %3 = getelementptr inbounds %struct.State, %struct.State* %0, i32 0, i32 6
  %4 = getelementptr inbounds %struct.GPR, %struct.GPR* %3, i32 0, i32 33
  %5 = getelementptr inbounds %struct.Reg, %struct.Reg* %4, i32 0, i32 0
  %PC = bitcast %union.anon* %5 to i64*
  %6 = load i64, i64* %PC
  %7 = add i64 %6, %rel_off1
  %8 = load i64, i64* %PC
  %9 = add i64 %8, %rel_off2
  store i64 %9, i64* %PC
  %10 = getelementptr inbounds %struct.State, %struct.State* %0, i64 0, i32 6, i32 33, i32 0, i32 0
  store i64 %7, i64* %10, align 8
  ret %struct.Memory* %2
}

define %struct.Memory* @routine_callq_._Z5timerv(%struct.State* dereferenceable(3376), i64, %struct.Memory*, i64 %rel_off1, i64 %rel_off2, i64 %rel_off3) {
block_400488:
  %3 = getelementptr inbounds %struct.State, %struct.State* %0, i32 0, i32 6
  %4 = getelementptr inbounds %struct.GPR, %struct.GPR* %3, i32 0, i32 33
  %5 = getelementptr inbounds %struct.Reg, %struct.Reg* %4, i32 0, i32 0
  %PC = bitcast %union.anon* %5 to i64*
  %6 = load i64, i64* %PC
  %7 = add i64 %6, %rel_off1
  %8 = load i64, i64* %PC
  %9 = add i64 %8, %rel_off2
  %10 = load i64, i64* %PC
  %11 = add i64 %10, %rel_off3
  store i64 %11, i64* %PC
  %12 = getelementptr inbounds %struct.State, %struct.State* %0, i64 0, i32 6, i32 13, i32 0, i32 0
  %13 = load i64, i64* %12, align 8
  %14 = add i64 %13, -8
  %15 = inttoptr i64 %14 to i64*
  store i64 %9, i64* %15
  store i64 %14, i64* %12, align 8
  %16 = getelementptr inbounds %struct.State, %struct.State* %0, i64 0, i32 6, i32 33, i32 0, i32 0
  store i64 %7, i64* %16, align 8
  ret %struct.Memory* %2
}

define %struct.Memory* @routine_movq_MINUS0x18__rbp____rdi(%struct.State* dereferenceable(3376), i64, %struct.Memory*) {
block_400488:
  %3 = getelementptr inbounds %struct.State, %struct.State* %0, i32 0, i32 6
  %4 = getelementptr inbounds %struct.GPR, %struct.GPR* %3, i32 0, i32 33
  %5 = getelementptr inbounds %struct.Reg, %struct.Reg* %4, i32 0, i32 0
  %PC = bitcast %union.anon* %5 to i64*
  %6 = getelementptr inbounds %struct.State, %struct.State* %0, i32 0, i32 6
  %7 = getelementptr inbounds %struct.GPR, %struct.GPR* %6, i32 0, i32 11
  %8 = getelementptr inbounds %struct.Reg, %struct.Reg* %7, i32 0, i32 0
  %RDI = bitcast %union.anon* %8 to i64*
  %9 = getelementptr inbounds %struct.State, %struct.State* %0, i32 0, i32 6
  %10 = getelementptr inbounds %struct.GPR, %struct.GPR* %9, i32 0, i32 15
  %11 = getelementptr inbounds %struct.Reg, %struct.Reg* %10, i32 0, i32 0
  %RBP = bitcast %union.anon* %11 to i64*
  %12 = load i64, i64* %RBP
  %13 = sub i64 %12, 24
  %14 = load i64, i64* %PC
  %15 = add i64 %14, 4
  store i64 %15, i64* %PC
  %16 = inttoptr i64 %13 to i64*
  %17 = load i64, i64* %16
  store i64 %17, i64* %RDI, align 8
  ret %struct.Memory* %2
}

define %struct.Memory* @routine_callq_._Z13record_resultdPKc(%struct.State* dereferenceable(3376), i64, %struct.Memory*, i64 %rel_off1, i64 %rel_off2, i64 %rel_off3) {
block_400488:
  %3 = getelementptr inbounds %struct.State, %struct.State* %0, i32 0, i32 6
  %4 = getelementptr inbounds %struct.GPR, %struct.GPR* %3, i32 0, i32 33
  %5 = getelementptr inbounds %struct.Reg, %struct.Reg* %4, i32 0, i32 0
  %PC = bitcast %union.anon* %5 to i64*
  %6 = load i64, i64* %PC
  %7 = add i64 %6, %rel_off1
  %8 = load i64, i64* %PC
  %9 = add i64 %8, %rel_off2
  %10 = load i64, i64* %PC
  %11 = add i64 %10, %rel_off3
  store i64 %11, i64* %PC
  %12 = getelementptr inbounds %struct.State, %struct.State* %0, i64 0, i32 6, i32 13, i32 0, i32 0
  %13 = load i64, i64* %12, align 8
  %14 = add i64 %13, -8
  %15 = inttoptr i64 %14 to i64*
  store i64 %9, i64* %15
  store i64 %14, i64* %12, align 8
  %16 = getelementptr inbounds %struct.State, %struct.State* %0, i64 0, i32 6, i32 33, i32 0, i32 0
  store i64 %7, i64* %16, align 8
  ret %struct.Memory* %2
}

define %struct.Memory* @routine_addq__0x30___rsp(%struct.State* dereferenceable(3376), i64, %struct.Memory*) {
block_400488:
  %3 = getelementptr inbounds %struct.State, %struct.State* %0, i32 0, i32 6
  %4 = getelementptr inbounds %struct.GPR, %struct.GPR* %3, i32 0, i32 33
  %5 = getelementptr inbounds %struct.Reg, %struct.Reg* %4, i32 0, i32 0
  %PC = bitcast %union.anon* %5 to i64*
  %6 = getelementptr inbounds %struct.State, %struct.State* %0, i32 0, i32 6
  %7 = getelementptr inbounds %struct.GPR, %struct.GPR* %6, i32 0, i32 13
  %8 = getelementptr inbounds %struct.Reg, %struct.Reg* %7, i32 0, i32 0
  %RSP = bitcast %union.anon* %8 to i64*
  %9 = load i64, i64* %RSP
  %10 = load i64, i64* %PC
  %11 = add i64 %10, 4
  store i64 %11, i64* %PC
  %12 = add i64 48, %9
  store i64 %12, i64* %RSP, align 8
  %13 = icmp ult i64 %12, %9
  %14 = icmp ult i64 %12, 48
  %15 = or i1 %13, %14
  %16 = zext i1 %15 to i8
  %17 = getelementptr inbounds %struct.State, %struct.State* %0, i64 0, i32 2, i32 1
  store i8 %16, i8* %17, align 1
  %18 = trunc i64 %12 to i32
  %19 = and i32 %18, 255
  %20 = call i32 @llvm.ctpop.i32(i32 %19)
  %21 = trunc i32 %20 to i8
  %22 = and i8 %21, 1
  %23 = xor i8 %22, 1
  %24 = getelementptr inbounds %struct.State, %struct.State* %0, i64 0, i32 2, i32 3
  store i8 %23, i8* %24, align 1
  %25 = xor i64 48, %9
  %26 = xor i64 %25, %12
  %27 = lshr i64 %26, 4
  %28 = trunc i64 %27 to i8
  %29 = and i8 %28, 1
  %30 = getelementptr inbounds %struct.State, %struct.State* %0, i64 0, i32 2, i32 5
  store i8 %29, i8* %30, align 1
  %31 = icmp eq i64 %12, 0
  %32 = zext i1 %31 to i8
  %33 = getelementptr inbounds %struct.State, %struct.State* %0, i64 0, i32 2, i32 7
  store i8 %32, i8* %33, align 1
  %34 = lshr i64 %12, 63
  %35 = trunc i64 %34 to i8
  %36 = getelementptr inbounds %struct.State, %struct.State* %0, i64 0, i32 2, i32 9
  store i8 %35, i8* %36, align 1
  %37 = lshr i64 %9, 63
  %38 = xor i64 %34, %37
  %39 = add i64 %38, %34
  %40 = icmp eq i64 %39, 2
  %41 = zext i1 %40 to i8
  %42 = getelementptr inbounds %struct.State, %struct.State* %0, i64 0, i32 2, i32 13
  store i8 %41, i8* %42, align 1
  ret %struct.Memory* %2
}

define %struct.Memory* @routine_popq__rbp(%struct.State* dereferenceable(3376), i64, %struct.Memory*) {
block_400488:
  %3 = getelementptr inbounds %struct.State, %struct.State* %0, i32 0, i32 6
  %4 = getelementptr inbounds %struct.GPR, %struct.GPR* %3, i32 0, i32 33
  %5 = getelementptr inbounds %struct.Reg, %struct.Reg* %4, i32 0, i32 0
  %PC = bitcast %union.anon* %5 to i64*
  %6 = getelementptr inbounds %struct.State, %struct.State* %0, i32 0, i32 6
  %7 = getelementptr inbounds %struct.GPR, %struct.GPR* %6, i32 0, i32 15
  %8 = getelementptr inbounds %struct.Reg, %struct.Reg* %7, i32 0, i32 0
  %RBP = bitcast %union.anon* %8 to i64*
  %9 = load i64, i64* %PC
  %10 = add i64 %9, 1
  store i64 %10, i64* %PC
  %11 = getelementptr inbounds %struct.State, %struct.State* %0, i64 0, i32 6, i32 13, i32 0, i32 0
  %12 = load i64, i64* %11, align 8
  %13 = add i64 %12, 8
  %14 = inttoptr i64 %12 to i64*
  %15 = load i64, i64* %14
  store i64 %15, i64* %RBP, align 8
  store i64 %13, i64* %11, align 8
  ret %struct.Memory* %2
}

define %struct.Memory* @routine_retq(%struct.State* dereferenceable(3376), i64, %struct.Memory*) {
block_400488:
  %3 = getelementptr inbounds %struct.State, %struct.State* %0, i32 0, i32 6
  %4 = getelementptr inbounds %struct.GPR, %struct.GPR* %3, i32 0, i32 33
  %5 = getelementptr inbounds %struct.Reg, %struct.Reg* %4, i32 0, i32 0
  %PC = bitcast %union.anon* %5 to i64*
  %6 = load i64, i64* %PC
  %7 = add i64 %6, 1
  store i64 %7, i64* %PC
  %8 = getelementptr inbounds %struct.State, %struct.State* %0, i64 0, i32 6, i32 33, i32 0, i32 0
  %9 = getelementptr inbounds %struct.State, %struct.State* %0, i64 0, i32 6, i32 13, i32 0, i32 0
  %10 = load i64, i64* %9, align 8
  %11 = inttoptr i64 %10 to i64*
  %12 = load i64, i64* %11
  store i64 %12, i64* %8, align 8
  %13 = add i64 %10, 8
  store i64 %13, i64* %9, align 8
  ret %struct.Memory* %2
}

attributes #0 = { nounwind readnone }
attributes #1 = { alwaysinline }
