; ModuleID = 'test.bc'
source_filename = "llvm-link"
target datalayout = "e-m:e-i64:64-f80:128-n8:16:32:64-S128"
target triple = "x86_64-pc-linux-gnu-elf"
%union.anon = type { i64 }
%seg_400388__init_type = type <{ [23 x i8] }>
%seg_4003a0__text_type = type <{ [354 x i8] }>
%seg_400504__fini_type = type <{ [9 x i8] }>
%seg_400510__rodata_type = type <{ [4 x i8] }>
%seg_400514__eh_frame_hdr_type = type <{ [52 x i8] }>
%seg_400548__eh_frame_type = type <{ [208 x i8] }>
%seg_600e40__init_array_type = type <{ i64, i64 }>
%seg_601018__data_type = type <{ [16 x i8] }>
%__bss_start_type = type <{ [8 x i8] }>
%struct.State = type { %struct.ArchState, [32 x %union.VectorReg], %struct.ArithFlags, %union.anon, %struct.Segments, %struct.AddressSpace, %struct.GPR, %struct.X87Stack, %struct.MMX, %struct.FPUStatusFlags, %union.anon, %union.FPU, %struct.SegmentCaches }
%struct.ArchState = type { i32, i32, %union.anon }
%union.VectorReg = type { %union.vec512_t }
%union.vec512_t = type { %struct.uint64v8_t }
%struct.uint64v8_t = type { [8 x i64] }
%struct.ArithFlags = type { i8, i8, i8, i8, i8, i8, i8, i8, i8, i8, i8, i8, i8, i8, i8, i8 }
%struct.Segments = type { i16, %union.SegmentSelector, i16, %union.SegmentSelector, i16, %union.SegmentSelector, i16, %union.SegmentSelector, i16, %union.SegmentSelector, i16, %union.SegmentSelector }
%union.SegmentSelector = type { i16 }
%struct.AddressSpace = type { i64, %struct.Reg, i64, %struct.Reg, i64, %struct.Reg, i64, %struct.Reg, i64, %struct.Reg, i64, %struct.Reg }
%struct.Reg = type { %union.anon }
%struct.GPR = type { i64, %struct.Reg, i64, %struct.Reg, i64, %struct.Reg, i64, %struct.Reg, i64, %struct.Reg, i64, %struct.Reg, i64, %struct.Reg, i64, %struct.Reg, i64, %struct.Reg, i64, %struct.Reg, i64, %struct.Reg, i64, %struct.Reg, i64, %struct.Reg, i64, %struct.Reg, i64, %struct.Reg, i64, %struct.Reg, i64, %struct.Reg }
%struct.X87Stack = type { [8 x %struct.anon.3] }
%struct.anon.3 = type { i64, double }
%struct.MMX = type { [8 x %struct.anon.4] }
%struct.anon.4 = type { i64, %union.vec64_t }
%union.vec64_t = type { %struct.uint64v1_t }
%struct.uint64v1_t = type { [1 x i64] }
%struct.FPUStatusFlags = type { i8, i8, i8, i8, i8, i8, i8, i8, i8, i8, i8, i8, i8, i8, i8, i8, i8, i8, i8, i8, [4 x i8] }
%union.FPU = type { %struct.anon.13 }
%struct.anon.13 = type { %struct.FpuFXSAVE, [96 x i8] }
%struct.FpuFXSAVE = type { %union.SegmentSelector, %union.SegmentSelector, %union.FPUAbridgedTagWord, i8, i16, i32, %union.SegmentSelector, i16, i32, %union.SegmentSelector, i16, %union.FPUControlStatus, %union.FPUControlStatus, [8 x %struct.FPUStackElem], [16 x %union.vec128_t] }
%union.FPUAbridgedTagWord = type { i8 }
%union.FPUControlStatus = type { i32 }
%struct.FPUStackElem = type { %union.anon.11, [6 x i8] }
%union.anon.11 = type { %struct.float80_t }
%struct.float80_t = type { [10 x i8] }
%union.vec128_t = type { %struct.uint128v1_t }
%struct.uint128v1_t = type { [1 x i128] }
%struct.SegmentCaches = type { %struct.SegmentShadow, %struct.SegmentShadow, %struct.SegmentShadow, %struct.SegmentShadow, %struct.SegmentShadow, %struct.SegmentShadow }
%struct.SegmentShadow = type { %union.anon, i32, i32 }
%struct.Memory = type opaque
%struct.uint8v32_t = type { [32 x i8] }
%struct.anon.2 = type { i8, i8 }
%struct.int32v8_t = type { [8 x i32] }
%struct.float32v8_t = type { [8 x float] }
%struct.uint8v8_t = type { [8 x i8] }
%struct.uint8v16_t = type { [16 x i8] }
%struct.uint16v8_t = type { [8 x i16] }
%struct.uint8v4_t = type { [4 x i8] }
%struct.int16v4_t = type { [4 x i16] }
%struct.int32v4_t = type { [4 x i32] }
%struct.uint64v2_t = type { [2 x i64] }
%struct.uint64v4_t = type { [4 x i64] }
%struct.uint128v2_t = type { [2 x i128] }
%struct.uint16v16_t = type { [16 x i16] }
%struct.float64v4_t = type { [4 x double] }
%"class.(anonymous namespace)::BitMatrix" = type { %"class.std::bitset", [16 x [16 x i8]] }
%"class.std::bitset" = type { %struct.uint64v4_t }
%struct.bcd80_t = type { [9 x %union.FPUAbridgedTagWord], %union.FPUAbridgedTagWord }
%struct.FpuFSAVE = type { %union.SegmentSelector, i16, %union.SegmentSelector, i16, %union.SegmentSelector, i16, i32, %union.SegmentSelector, i16, i32, %union.SegmentSelector, i16, [8 x %struct.FPUStackElem] }
%struct.anon.5 = type { i32, i32 }
@switch.table = private unnamed_addr constant [4 x i32] [i32 2048, i32 3072, i32 0, i32 1024]
@DR0 = external global i64, align 8
@DR1 = external global i64, align 8
@DR2 = external global i64, align 8
@DR3 = external global i64, align 8
@DR4 = external global i64, align 8
@DR5 = external global i64, align 8
@DR6 = external global i64, align 8
@DR7 = external global i64, align 8
@gCR0 = external global %union.anon, align 1
@gCR1 = external global %union.anon, align 1
@gCR2 = external global %union.anon, align 1
@gCR3 = external global %union.anon, align 1
@gCR4 = external global %union.anon, align 1
@gCR8 = external global %union.anon, align 1
@seg_400388__init = internal constant %seg_400388__init_type <{ [23 x i8] c"H\83\EC\08H\8B\05e\0C \00H\85\C0t\02\FF\D0H\83\C4\08\C3" }>
@seg_4003a0__text = internal constant %seg_4003a0__text_type <{ [354 x i8] c"1\EDI\89\D1^H\89\E2H\83\E4\F0PTI\C7\C0\00\05@\00H\C7\C1\90\04@\00H\C7\C7\88\04@\00\FF\15&\0C \00\F4\0F\1FD\00\00\F3\C3f.\0F\1F\84\00\00\00\00\00\0F\1F@\00U\B8(\10`\00H=(\10`\00H\89\E5t\17\B8\00\00\00\00H\85\C0t\0D]\BF(\10`\00\FF\E0\0F\1FD\00\00]\C3f\0F\1FD\00\00\BE(\10`\00UH\81\EE(\10`\00H\89\E5H\C1\FE\03H\89\F0H\C1\E8?H\01\C6H\D1\FEt\15\B8\00\00\00\00H\85\C0t\0B]\BF(\10`\00\FF\E0\0F\1F\00]\C3f\0F\1FD\00\00\80=\D1\0B \00\00u\17UH\89\E5\E8~\FF\FF\FF\C6\05\BF\0B \00\01]\C3\0F\1FD\00\00\F3\C3\0F\1F@\00f.\0F\1F\84\00\00\00\00\00UH\89\E5]\EB\89\90U\C3f\0F\1FD\00\00AWAVI\89\D7AUATL\8D%\9E\09 \00UH\8D-\9E\09 \00SA\89\FDI\89\F6L)\E5H\83\EC\08H\C1\FD\03\E8\C7\FE\FF\FFH\85\EDt 1\DB\0F\1F\84\00\00\00\00\00L\89\FAL\89\F6D\89\EFA\FF\14\DCH\83\C3\01H9\DDu\EAH\83\C4\08[]A\5CA]A^A_\C3\90f.\0F\1F\84\00\00\00\00\00\F3\C3" }>
@seg_400504__fini = internal constant %seg_400504__fini_type <{ [9 x i8] c"H\83\EC\08H\83\C4\08\C3" }>
@seg_400510__rodata = internal constant %seg_400510__rodata_type <{ [4 x i8] c"\01\00\02\00" }>
@seg_400514__eh_frame_hdr = internal constant %seg_400514__eh_frame_hdr_type <{ [52 x i8] c"\01\1B\03;0\00\00\00\05\00\00\00\8C\FE\FF\FFL\00\00\00\BC\FE\FF\FFx\00\00\00t\FF\FF\FF\8C\00\00\00|\FF\FF\FF\A4\00\00\00\EC\FF\FF\FF\EC\00\00\00" }>
@seg_400548__eh_frame = internal constant %seg_400548__eh_frame_type <{ [208 x i8] c"\14\00\00\00\00\00\00\00\01zR\00\01x\10\01\1B\0C\07\08\90\01\07\10\10\00\00\00\1C\00\00\008\FE\FF\FF+\00\00\00\00\00\00\00\14\00\00\00\00\00\00\00\01zR\00\01x\10\01\1B\0C\07\08\90\01\00\00\10\00\00\00\1C\00\00\00<\FE\FF\FF\02\00\00\00\00\00\00\00\14\00\00\000\00\00\00\E0\FE\FF\FF\02\00\00\00\00\00\00\00\00\00\00\00D\00\00\00H\00\00\00\D0\FE\FF\FFe\00\00\00\00B\0E\10\8F\02B\0E\18\8E\03E\0E \8D\04B\0E(\8C\05H\0E0\86\06H\0E8\83\07M\0E@r\0E8A\0E0A\0E(B\0E B\0E\18B\0E\10B\0E\08\00\10\00\00\00\90\00\00\00\F8\FE\FF\FF\02\00\00\00\00\00\00\00\00\00\00\00" }>
@seg_601018__data = internal global %seg_601018__data_type zeroinitializer
@__bss_start = global %__bss_start_type zeroinitializer
@0 = internal global i1 false

; Function Declaraions
declare i32 @llvm.ctpop.i32(i32) #2
declare %struct.Memory* @__remill_error(%struct.State* dereferenceable(3376), i64, %struct.Memory*)

declare %struct.Memory* @sub_402890.cft1st(%struct.State* dereferenceable(3376), i64, %struct.Memory*)
declare %struct.Memory* @sub_403320.cftmdl(%struct.State* dereferenceable(3376), i64, %struct.Memory*)

; Data Access Globals


define %struct.Memory* @cftfsub(%struct.State* noalias , i64, %struct.Memory* noalias) alwaysinline  {
entry:
  %3 = getelementptr inbounds %struct.State, %struct.State* %0, i64 0, i32 6, i32 33, i32 0, i32 0
  store i64 %1, i64* %3, align 8
  %BRANCH_TAKEN = alloca i8, align 1
  store i8 0, i8* %BRANCH_TAKEN, align 1
  %MEMORY = alloca %struct.Memory*, align 8
  store %struct.Memory* %2, %struct.Memory** %MEMORY, align 8

  ; Code: .cftfsub:	 RIP: 401860	 Bytes: 0
  ; Code: pushq %rbp	 RIP: 401860	 Bytes: 1
  %loadMem_401860 = load %struct.Memory*, %struct.Memory** %MEMORY
  %call_401860 = call %struct.Memory* @routine_pushq__rbp(%struct.State* %0, i64  0, %struct.Memory* %loadMem_401860)
  store %struct.Memory* %call_401860, %struct.Memory** %MEMORY

  ; Code: movq %rsp, %rbp	 RIP: 401861	 Bytes: 3
  %loadMem_401861 = load %struct.Memory*, %struct.Memory** %MEMORY
  %call_401861 = call %struct.Memory* @routine_movq__rsp___rbp(%struct.State* %0, i64  0, %struct.Memory* %loadMem_401861)
  store %struct.Memory* %call_401861, %struct.Memory** %MEMORY

  ; Code: subq $0x70, %rsp	 RIP: 401864	 Bytes: 4
  %loadMem_401864 = load %struct.Memory*, %struct.Memory** %MEMORY
  %call_401864 = call %struct.Memory* @routine_subq__0x70___rsp(%struct.State* %0, i64  0, %struct.Memory* %loadMem_401864)
  store %struct.Memory* %call_401864, %struct.Memory** %MEMORY

  ; Code: movl %edi, -0x4(%rbp)	 RIP: 401868	 Bytes: 3
  %loadMem_401868 = load %struct.Memory*, %struct.Memory** %MEMORY
  %call_401868 = call %struct.Memory* @routine_movl__edi__MINUS0x4__rbp_(%struct.State* %0, i64  0, %struct.Memory* %loadMem_401868)
  store %struct.Memory* %call_401868, %struct.Memory** %MEMORY

  ; Code: movq %rsi, -0x10(%rbp)	 RIP: 40186b	 Bytes: 4
  %loadMem_40186b = load %struct.Memory*, %struct.Memory** %MEMORY
  %call_40186b = call %struct.Memory* @routine_movq__rsi__MINUS0x10__rbp_(%struct.State* %0, i64  0, %struct.Memory* %loadMem_40186b)
  store %struct.Memory* %call_40186b, %struct.Memory** %MEMORY

  ; Code: movq %rdx, -0x18(%rbp)	 RIP: 40186f	 Bytes: 4
  %loadMem_40186f = load %struct.Memory*, %struct.Memory** %MEMORY
  %call_40186f = call %struct.Memory* @routine_movq__rdx__MINUS0x18__rbp_(%struct.State* %0, i64  0, %struct.Memory* %loadMem_40186f)
  store %struct.Memory* %call_40186f, %struct.Memory** %MEMORY

  ; Code: movl $0x2, -0x2c(%rbp)	 RIP: 401873	 Bytes: 7
  %loadMem_401873 = load %struct.Memory*, %struct.Memory** %MEMORY
  %call_401873 = call %struct.Memory* @routine_movl__0x2__MINUS0x2c__rbp_(%struct.State* %0, i64  0, %struct.Memory* %loadMem_401873)
  store %struct.Memory* %call_401873, %struct.Memory** %MEMORY

  ; Code: cmpl $0x8, -0x4(%rbp)	 RIP: 40187a	 Bytes: 4
  %loadMem_40187a = load %struct.Memory*, %struct.Memory** %MEMORY
  %call_40187a = call %struct.Memory* @routine_cmpl__0x8__MINUS0x4__rbp_(%struct.State* %0, i64  0, %struct.Memory* %loadMem_40187a)
  store %struct.Memory* %call_40187a, %struct.Memory** %MEMORY

  ; Code: jle .L_4018d0	 RIP: 40187e	 Bytes: 6
  %loadMem_40187e = load %struct.Memory*, %struct.Memory** %MEMORY
  %call_40187e = call %struct.Memory* @routine_jle_.L_4018d0(%struct.State* %0, i64  0, %struct.Memory* %loadMem_40187e, i8* %BRANCH_TAKEN, i64 82, i64 6, i64 6)
  store %struct.Memory* %call_40187e, %struct.Memory** %MEMORY

  %loadBr_40187e = load i8, i8* %BRANCH_TAKEN
  %cmpBr_40187e = icmp eq i8 %loadBr_40187e, 1
  br i1 %cmpBr_40187e, label %block_.L_4018d0, label %block_401884

block_401884:
  ; Code: movl -0x4(%rbp), %edi	 RIP: 401884	 Bytes: 3
  %loadMem_401884 = load %struct.Memory*, %struct.Memory** %MEMORY
  %call_401884 = call %struct.Memory* @routine_movl_MINUS0x4__rbp____edi(%struct.State* %0, i64  0, %struct.Memory* %loadMem_401884)
  store %struct.Memory* %call_401884, %struct.Memory** %MEMORY

  ; Code: movq -0x10(%rbp), %rsi	 RIP: 401887	 Bytes: 4
  %loadMem_401887 = load %struct.Memory*, %struct.Memory** %MEMORY
  %call_401887 = call %struct.Memory* @routine_movq_MINUS0x10__rbp____rsi(%struct.State* %0, i64  0, %struct.Memory* %loadMem_401887)
  store %struct.Memory* %call_401887, %struct.Memory** %MEMORY

  ; Code: movq -0x18(%rbp), %rdx	 RIP: 40188b	 Bytes: 4
  %loadMem_40188b = load %struct.Memory*, %struct.Memory** %MEMORY
  %call_40188b = call %struct.Memory* @routine_movq_MINUS0x18__rbp____rdx(%struct.State* %0, i64  0, %struct.Memory* %loadMem_40188b)
  store %struct.Memory* %call_40188b, %struct.Memory** %MEMORY

  ; Code: callq .cft1st	 RIP: 40188f	 Bytes: 5
  %loadMem1_40188f = load %struct.Memory*, %struct.Memory** %MEMORY
  %call1_40188f = call %struct.Memory* @routine_callq_.cft1st(%struct.State* %0, i64  0, %struct.Memory* %loadMem1_40188f, i64 4097, i64 5, i64 5)
  store %struct.Memory* %call1_40188f, %struct.Memory** %MEMORY

  %loadMem2_40188f = load %struct.Memory*, %struct.Memory** %MEMORY
  %loadPC_40188f = load i64, i64* %3
  %call2_40188f = call %struct.Memory* @sub_402890.cft1st(%struct.State* %0, i64  %loadPC_40188f, %struct.Memory* %loadMem2_40188f)
  store %struct.Memory* %call2_40188f, %struct.Memory** %MEMORY

  ; Code: movl $0x8, -0x2c(%rbp)	 RIP: 401894	 Bytes: 7
  %loadMem_401894 = load %struct.Memory*, %struct.Memory** %MEMORY
  %call_401894 = call %struct.Memory* @routine_movl__0x8__MINUS0x2c__rbp_(%struct.State* %0, i64  0, %struct.Memory* %loadMem_401894)
  store %struct.Memory* %call_401894, %struct.Memory** %MEMORY

  ; Code: .L_40189b:	 RIP: 40189b	 Bytes: 0
  br label %block_.L_40189b
block_.L_40189b:

  ; Code: movl -0x2c(%rbp), %eax	 RIP: 40189b	 Bytes: 3
  %loadMem_40189b = load %struct.Memory*, %struct.Memory** %MEMORY
  %call_40189b = call %struct.Memory* @routine_movl_MINUS0x2c__rbp____eax(%struct.State* %0, i64  0, %struct.Memory* %loadMem_40189b)
  store %struct.Memory* %call_40189b, %struct.Memory** %MEMORY

  ; Code: shll $0x2, %eax	 RIP: 40189e	 Bytes: 3
  %loadMem_40189e = load %struct.Memory*, %struct.Memory** %MEMORY
  %call_40189e = call %struct.Memory* @routine_shll__0x2___eax(%struct.State* %0, i64  0, %struct.Memory* %loadMem_40189e)
  store %struct.Memory* %call_40189e, %struct.Memory** %MEMORY

  ; Code: cmpl -0x4(%rbp), %eax	 RIP: 4018a1	 Bytes: 3
  %loadMem_4018a1 = load %struct.Memory*, %struct.Memory** %MEMORY
  %call_4018a1 = call %struct.Memory* @routine_cmpl_MINUS0x4__rbp____eax(%struct.State* %0, i64  0, %struct.Memory* %loadMem_4018a1)
  store %struct.Memory* %call_4018a1, %struct.Memory** %MEMORY

  ; Code: jge .L_4018cb	 RIP: 4018a4	 Bytes: 6
  %loadMem_4018a4 = load %struct.Memory*, %struct.Memory** %MEMORY
  %call_4018a4 = call %struct.Memory* @routine_jge_.L_4018cb(%struct.State* %0, i64  0, %struct.Memory* %loadMem_4018a4, i8* %BRANCH_TAKEN, i64 39, i64 6, i64 6)
  store %struct.Memory* %call_4018a4, %struct.Memory** %MEMORY

  %loadBr_4018a4 = load i8, i8* %BRANCH_TAKEN
  %cmpBr_4018a4 = icmp eq i8 %loadBr_4018a4, 1
  br i1 %cmpBr_4018a4, label %block_.L_4018cb, label %block_4018aa

block_4018aa:
  ; Code: movl -0x4(%rbp), %edi	 RIP: 4018aa	 Bytes: 3
  %loadMem_4018aa = load %struct.Memory*, %struct.Memory** %MEMORY
  %call_4018aa = call %struct.Memory* @routine_movl_MINUS0x4__rbp____edi(%struct.State* %0, i64  0, %struct.Memory* %loadMem_4018aa)
  store %struct.Memory* %call_4018aa, %struct.Memory** %MEMORY

  ; Code: movl -0x2c(%rbp), %esi	 RIP: 4018ad	 Bytes: 3
  %loadMem_4018ad = load %struct.Memory*, %struct.Memory** %MEMORY
  %call_4018ad = call %struct.Memory* @routine_movl_MINUS0x2c__rbp____esi(%struct.State* %0, i64  0, %struct.Memory* %loadMem_4018ad)
  store %struct.Memory* %call_4018ad, %struct.Memory** %MEMORY

  ; Code: movq -0x10(%rbp), %rdx	 RIP: 4018b0	 Bytes: 4
  %loadMem_4018b0 = load %struct.Memory*, %struct.Memory** %MEMORY
  %call_4018b0 = call %struct.Memory* @routine_movq_MINUS0x10__rbp____rdx(%struct.State* %0, i64  0, %struct.Memory* %loadMem_4018b0)
  store %struct.Memory* %call_4018b0, %struct.Memory** %MEMORY

  ; Code: movq -0x18(%rbp), %rcx	 RIP: 4018b4	 Bytes: 4
  %loadMem_4018b4 = load %struct.Memory*, %struct.Memory** %MEMORY
  %call_4018b4 = call %struct.Memory* @routine_movq_MINUS0x18__rbp____rcx(%struct.State* %0, i64  0, %struct.Memory* %loadMem_4018b4)
  store %struct.Memory* %call_4018b4, %struct.Memory** %MEMORY

  ; Code: callq .cftmdl	 RIP: 4018b8	 Bytes: 5
  %loadMem1_4018b8 = load %struct.Memory*, %struct.Memory** %MEMORY
  %call1_4018b8 = call %struct.Memory* @routine_callq_.cftmdl(%struct.State* %0, i64  0, %struct.Memory* %loadMem1_4018b8, i64 6760, i64 5, i64 5)
  store %struct.Memory* %call1_4018b8, %struct.Memory** %MEMORY

  %loadMem2_4018b8 = load %struct.Memory*, %struct.Memory** %MEMORY
  %loadPC_4018b8 = load i64, i64* %3
  %call2_4018b8 = call %struct.Memory* @sub_403320.cftmdl(%struct.State* %0, i64  %loadPC_4018b8, %struct.Memory* %loadMem2_4018b8)
  store %struct.Memory* %call2_4018b8, %struct.Memory** %MEMORY

  ; Code: movl -0x2c(%rbp), %esi	 RIP: 4018bd	 Bytes: 3
  %loadMem_4018bd = load %struct.Memory*, %struct.Memory** %MEMORY
  %call_4018bd = call %struct.Memory* @routine_movl_MINUS0x2c__rbp____esi(%struct.State* %0, i64  0, %struct.Memory* %loadMem_4018bd)
  store %struct.Memory* %call_4018bd, %struct.Memory** %MEMORY

  ; Code: shll $0x2, %esi	 RIP: 4018c0	 Bytes: 3
  %loadMem_4018c0 = load %struct.Memory*, %struct.Memory** %MEMORY
  %call_4018c0 = call %struct.Memory* @routine_shll__0x2___esi(%struct.State* %0, i64  0, %struct.Memory* %loadMem_4018c0)
  store %struct.Memory* %call_4018c0, %struct.Memory** %MEMORY

  ; Code: movl %esi, -0x2c(%rbp)	 RIP: 4018c3	 Bytes: 3
  %loadMem_4018c3 = load %struct.Memory*, %struct.Memory** %MEMORY
  %call_4018c3 = call %struct.Memory* @routine_movl__esi__MINUS0x2c__rbp_(%struct.State* %0, i64  0, %struct.Memory* %loadMem_4018c3)
  store %struct.Memory* %call_4018c3, %struct.Memory** %MEMORY

  ; Code: jmpq .L_40189b	 RIP: 4018c6	 Bytes: 5
  %loadMem_4018c6 = load %struct.Memory*, %struct.Memory** %MEMORY
  %call_4018c6 = call %struct.Memory* @routine_jmpq_.L_40189b(%struct.State* %0, i64  0, %struct.Memory* %loadMem_4018c6, i64 -43, i64 5)
  store %struct.Memory* %call_4018c6, %struct.Memory** %MEMORY

  br label %block_.L_40189b

  ; Code: .L_4018cb:	 RIP: 4018cb	 Bytes: 0
block_.L_4018cb:

  ; Code: jmpq .L_4018d0	 RIP: 4018cb	 Bytes: 5
  %loadMem_4018cb = load %struct.Memory*, %struct.Memory** %MEMORY
  %call_4018cb = call %struct.Memory* @routine_jmpq_.L_4018d0(%struct.State* %0, i64  0, %struct.Memory* %loadMem_4018cb, i64 5, i64 5)
  store %struct.Memory* %call_4018cb, %struct.Memory** %MEMORY

  br label %block_.L_4018d0

  ; Code: .L_4018d0:	 RIP: 4018d0	 Bytes: 0
block_.L_4018d0:

  ; Code: movl -0x2c(%rbp), %eax	 RIP: 4018d0	 Bytes: 3
  %loadMem_4018d0 = load %struct.Memory*, %struct.Memory** %MEMORY
  %call_4018d0 = call %struct.Memory* @routine_movl_MINUS0x2c__rbp____eax(%struct.State* %0, i64  0, %struct.Memory* %loadMem_4018d0)
  store %struct.Memory* %call_4018d0, %struct.Memory** %MEMORY

  ; Code: shll $0x2, %eax	 RIP: 4018d3	 Bytes: 3
  %loadMem_4018d3 = load %struct.Memory*, %struct.Memory** %MEMORY
  %call_4018d3 = call %struct.Memory* @routine_shll__0x2___eax(%struct.State* %0, i64  0, %struct.Memory* %loadMem_4018d3)
  store %struct.Memory* %call_4018d3, %struct.Memory** %MEMORY

  ; Code: cmpl -0x4(%rbp), %eax	 RIP: 4018d6	 Bytes: 3
  %loadMem_4018d6 = load %struct.Memory*, %struct.Memory** %MEMORY
  %call_4018d6 = call %struct.Memory* @routine_cmpl_MINUS0x4__rbp____eax(%struct.State* %0, i64  0, %struct.Memory* %loadMem_4018d6)
  store %struct.Memory* %call_4018d6, %struct.Memory** %MEMORY

  ; Code: jne .L_401b0c	 RIP: 4018d9	 Bytes: 6
  %loadMem_4018d9 = load %struct.Memory*, %struct.Memory** %MEMORY
  %call_4018d9 = call %struct.Memory* @routine_jne_.L_401b0c(%struct.State* %0, i64  0, %struct.Memory* %loadMem_4018d9, i8* %BRANCH_TAKEN, i64 563, i64 6, i64 6)
  store %struct.Memory* %call_4018d9, %struct.Memory** %MEMORY

  %loadBr_4018d9 = load i8, i8* %BRANCH_TAKEN
  %cmpBr_4018d9 = icmp eq i8 %loadBr_4018d9, 1
  br i1 %cmpBr_4018d9, label %block_.L_401b0c, label %block_4018df

block_4018df:
  ; Code: movl $0x0, -0x1c(%rbp)	 RIP: 4018df	 Bytes: 7
  %loadMem_4018df = load %struct.Memory*, %struct.Memory** %MEMORY
  %call_4018df = call %struct.Memory* @routine_movl__0x0__MINUS0x1c__rbp_(%struct.State* %0, i64  0, %struct.Memory* %loadMem_4018df)
  store %struct.Memory* %call_4018df, %struct.Memory** %MEMORY

  ; Code: .L_4018e6:	 RIP: 4018e6	 Bytes: 0
  br label %block_.L_4018e6
block_.L_4018e6:

  ; Code: movl -0x1c(%rbp), %eax	 RIP: 4018e6	 Bytes: 3
  %loadMem_4018e6 = load %struct.Memory*, %struct.Memory** %MEMORY
  %call_4018e6 = call %struct.Memory* @routine_movl_MINUS0x1c__rbp____eax(%struct.State* %0, i64  0, %struct.Memory* %loadMem_4018e6)
  store %struct.Memory* %call_4018e6, %struct.Memory** %MEMORY

  ; Code: cmpl -0x2c(%rbp), %eax	 RIP: 4018e9	 Bytes: 3
  %loadMem_4018e9 = load %struct.Memory*, %struct.Memory** %MEMORY
  %call_4018e9 = call %struct.Memory* @routine_cmpl_MINUS0x2c__rbp____eax(%struct.State* %0, i64  0, %struct.Memory* %loadMem_4018e9)
  store %struct.Memory* %call_4018e9, %struct.Memory** %MEMORY

  ; Code: jge .L_401b07	 RIP: 4018ec	 Bytes: 6
  %loadMem_4018ec = load %struct.Memory*, %struct.Memory** %MEMORY
  %call_4018ec = call %struct.Memory* @routine_jge_.L_401b07(%struct.State* %0, i64  0, %struct.Memory* %loadMem_4018ec, i8* %BRANCH_TAKEN, i64 539, i64 6, i64 6)
  store %struct.Memory* %call_4018ec, %struct.Memory** %MEMORY

  %loadBr_4018ec = load i8, i8* %BRANCH_TAKEN
  %cmpBr_4018ec = icmp eq i8 %loadBr_4018ec, 1
  br i1 %cmpBr_4018ec, label %block_.L_401b07, label %block_4018f2

block_4018f2:
  ; Code: movl -0x1c(%rbp), %eax	 RIP: 4018f2	 Bytes: 3
  %loadMem_4018f2 = load %struct.Memory*, %struct.Memory** %MEMORY
  %call_4018f2 = call %struct.Memory* @routine_movl_MINUS0x1c__rbp____eax(%struct.State* %0, i64  0, %struct.Memory* %loadMem_4018f2)
  store %struct.Memory* %call_4018f2, %struct.Memory** %MEMORY

  ; Code: addl -0x2c(%rbp), %eax	 RIP: 4018f5	 Bytes: 3
  %loadMem_4018f5 = load %struct.Memory*, %struct.Memory** %MEMORY
  %call_4018f5 = call %struct.Memory* @routine_addl_MINUS0x2c__rbp____eax(%struct.State* %0, i64  0, %struct.Memory* %loadMem_4018f5)
  store %struct.Memory* %call_4018f5, %struct.Memory** %MEMORY

  ; Code: movl %eax, -0x20(%rbp)	 RIP: 4018f8	 Bytes: 3
  %loadMem_4018f8 = load %struct.Memory*, %struct.Memory** %MEMORY
  %call_4018f8 = call %struct.Memory* @routine_movl__eax__MINUS0x20__rbp_(%struct.State* %0, i64  0, %struct.Memory* %loadMem_4018f8)
  store %struct.Memory* %call_4018f8, %struct.Memory** %MEMORY

  ; Code: movl -0x20(%rbp), %eax	 RIP: 4018fb	 Bytes: 3
  %loadMem_4018fb = load %struct.Memory*, %struct.Memory** %MEMORY
  %call_4018fb = call %struct.Memory* @routine_movl_MINUS0x20__rbp____eax(%struct.State* %0, i64  0, %struct.Memory* %loadMem_4018fb)
  store %struct.Memory* %call_4018fb, %struct.Memory** %MEMORY

  ; Code: addl -0x2c(%rbp), %eax	 RIP: 4018fe	 Bytes: 3
  %loadMem_4018fe = load %struct.Memory*, %struct.Memory** %MEMORY
  %call_4018fe = call %struct.Memory* @routine_addl_MINUS0x2c__rbp____eax(%struct.State* %0, i64  0, %struct.Memory* %loadMem_4018fe)
  store %struct.Memory* %call_4018fe, %struct.Memory** %MEMORY

  ; Code: movl %eax, -0x24(%rbp)	 RIP: 401901	 Bytes: 3
  %loadMem_401901 = load %struct.Memory*, %struct.Memory** %MEMORY
  %call_401901 = call %struct.Memory* @routine_movl__eax__MINUS0x24__rbp_(%struct.State* %0, i64  0, %struct.Memory* %loadMem_401901)
  store %struct.Memory* %call_401901, %struct.Memory** %MEMORY

  ; Code: movl -0x24(%rbp), %eax	 RIP: 401904	 Bytes: 3
  %loadMem_401904 = load %struct.Memory*, %struct.Memory** %MEMORY
  %call_401904 = call %struct.Memory* @routine_movl_MINUS0x24__rbp____eax(%struct.State* %0, i64  0, %struct.Memory* %loadMem_401904)
  store %struct.Memory* %call_401904, %struct.Memory** %MEMORY

  ; Code: addl -0x2c(%rbp), %eax	 RIP: 401907	 Bytes: 3
  %loadMem_401907 = load %struct.Memory*, %struct.Memory** %MEMORY
  %call_401907 = call %struct.Memory* @routine_addl_MINUS0x2c__rbp____eax(%struct.State* %0, i64  0, %struct.Memory* %loadMem_401907)
  store %struct.Memory* %call_401907, %struct.Memory** %MEMORY

  ; Code: movl %eax, -0x28(%rbp)	 RIP: 40190a	 Bytes: 3
  %loadMem_40190a = load %struct.Memory*, %struct.Memory** %MEMORY
  %call_40190a = call %struct.Memory* @routine_movl__eax__MINUS0x28__rbp_(%struct.State* %0, i64  0, %struct.Memory* %loadMem_40190a)
  store %struct.Memory* %call_40190a, %struct.Memory** %MEMORY

  ; Code: movq -0x10(%rbp), %rcx	 RIP: 40190d	 Bytes: 4
  %loadMem_40190d = load %struct.Memory*, %struct.Memory** %MEMORY
  %call_40190d = call %struct.Memory* @routine_movq_MINUS0x10__rbp____rcx(%struct.State* %0, i64  0, %struct.Memory* %loadMem_40190d)
  store %struct.Memory* %call_40190d, %struct.Memory** %MEMORY

  ; Code: movslq -0x1c(%rbp), %rdx	 RIP: 401911	 Bytes: 4
  %loadMem_401911 = load %struct.Memory*, %struct.Memory** %MEMORY
  %call_401911 = call %struct.Memory* @routine_movslq_MINUS0x1c__rbp____rdx(%struct.State* %0, i64  0, %struct.Memory* %loadMem_401911)
  store %struct.Memory* %call_401911, %struct.Memory** %MEMORY

  ; Code: movsd (%rcx,%rdx,8), %xmm0	 RIP: 401915	 Bytes: 5
  %loadMem_401915 = load %struct.Memory*, %struct.Memory** %MEMORY
  %call_401915 = call %struct.Memory* @routine_movsd___rcx__rdx_8____xmm0(%struct.State* %0, i64  0, %struct.Memory* %loadMem_401915)
  store %struct.Memory* %call_401915, %struct.Memory** %MEMORY

  ; Code: movq -0x10(%rbp), %rcx	 RIP: 40191a	 Bytes: 4
  %loadMem_40191a = load %struct.Memory*, %struct.Memory** %MEMORY
  %call_40191a = call %struct.Memory* @routine_movq_MINUS0x10__rbp____rcx(%struct.State* %0, i64  0, %struct.Memory* %loadMem_40191a)
  store %struct.Memory* %call_40191a, %struct.Memory** %MEMORY

  ; Code: movslq -0x20(%rbp), %rdx	 RIP: 40191e	 Bytes: 4
  %loadMem_40191e = load %struct.Memory*, %struct.Memory** %MEMORY
  %call_40191e = call %struct.Memory* @routine_movslq_MINUS0x20__rbp____rdx(%struct.State* %0, i64  0, %struct.Memory* %loadMem_40191e)
  store %struct.Memory* %call_40191e, %struct.Memory** %MEMORY

  ; Code: addsd (%rcx,%rdx,8), %xmm0	 RIP: 401922	 Bytes: 5
  %loadMem_401922 = load %struct.Memory*, %struct.Memory** %MEMORY
  %call_401922 = call %struct.Memory* @routine_addsd___rcx__rdx_8____xmm0(%struct.State* %0, i64  0, %struct.Memory* %loadMem_401922)
  store %struct.Memory* %call_401922, %struct.Memory** %MEMORY

  ; Code: movsd %xmm0, -0x38(%rbp)	 RIP: 401927	 Bytes: 5
  %loadMem_401927 = load %struct.Memory*, %struct.Memory** %MEMORY
  %call_401927 = call %struct.Memory* @routine_movsd__xmm0__MINUS0x38__rbp_(%struct.State* %0, i64  0, %struct.Memory* %loadMem_401927)
  store %struct.Memory* %call_401927, %struct.Memory** %MEMORY

  ; Code: movq -0x10(%rbp), %rcx	 RIP: 40192c	 Bytes: 4
  %loadMem_40192c = load %struct.Memory*, %struct.Memory** %MEMORY
  %call_40192c = call %struct.Memory* @routine_movq_MINUS0x10__rbp____rcx(%struct.State* %0, i64  0, %struct.Memory* %loadMem_40192c)
  store %struct.Memory* %call_40192c, %struct.Memory** %MEMORY

  ; Code: movl -0x1c(%rbp), %eax	 RIP: 401930	 Bytes: 3
  %loadMem_401930 = load %struct.Memory*, %struct.Memory** %MEMORY
  %call_401930 = call %struct.Memory* @routine_movl_MINUS0x1c__rbp____eax(%struct.State* %0, i64  0, %struct.Memory* %loadMem_401930)
  store %struct.Memory* %call_401930, %struct.Memory** %MEMORY

  ; Code: addl $0x1, %eax	 RIP: 401933	 Bytes: 3
  %loadMem_401933 = load %struct.Memory*, %struct.Memory** %MEMORY
  %call_401933 = call %struct.Memory* @routine_addl__0x1___eax(%struct.State* %0, i64  0, %struct.Memory* %loadMem_401933)
  store %struct.Memory* %call_401933, %struct.Memory** %MEMORY

  ; Code: movslq %eax, %rdx	 RIP: 401936	 Bytes: 3
  %loadMem_401936 = load %struct.Memory*, %struct.Memory** %MEMORY
  %call_401936 = call %struct.Memory* @routine_movslq__eax___rdx(%struct.State* %0, i64  0, %struct.Memory* %loadMem_401936)
  store %struct.Memory* %call_401936, %struct.Memory** %MEMORY

  ; Code: movsd (%rcx,%rdx,8), %xmm0	 RIP: 401939	 Bytes: 5
  %loadMem_401939 = load %struct.Memory*, %struct.Memory** %MEMORY
  %call_401939 = call %struct.Memory* @routine_movsd___rcx__rdx_8____xmm0(%struct.State* %0, i64  0, %struct.Memory* %loadMem_401939)
  store %struct.Memory* %call_401939, %struct.Memory** %MEMORY

  ; Code: movq -0x10(%rbp), %rcx	 RIP: 40193e	 Bytes: 4
  %loadMem_40193e = load %struct.Memory*, %struct.Memory** %MEMORY
  %call_40193e = call %struct.Memory* @routine_movq_MINUS0x10__rbp____rcx(%struct.State* %0, i64  0, %struct.Memory* %loadMem_40193e)
  store %struct.Memory* %call_40193e, %struct.Memory** %MEMORY

  ; Code: movl -0x20(%rbp), %eax	 RIP: 401942	 Bytes: 3
  %loadMem_401942 = load %struct.Memory*, %struct.Memory** %MEMORY
  %call_401942 = call %struct.Memory* @routine_movl_MINUS0x20__rbp____eax(%struct.State* %0, i64  0, %struct.Memory* %loadMem_401942)
  store %struct.Memory* %call_401942, %struct.Memory** %MEMORY

  ; Code: addl $0x1, %eax	 RIP: 401945	 Bytes: 3
  %loadMem_401945 = load %struct.Memory*, %struct.Memory** %MEMORY
  %call_401945 = call %struct.Memory* @routine_addl__0x1___eax(%struct.State* %0, i64  0, %struct.Memory* %loadMem_401945)
  store %struct.Memory* %call_401945, %struct.Memory** %MEMORY

  ; Code: movslq %eax, %rdx	 RIP: 401948	 Bytes: 3
  %loadMem_401948 = load %struct.Memory*, %struct.Memory** %MEMORY
  %call_401948 = call %struct.Memory* @routine_movslq__eax___rdx(%struct.State* %0, i64  0, %struct.Memory* %loadMem_401948)
  store %struct.Memory* %call_401948, %struct.Memory** %MEMORY

  ; Code: addsd (%rcx,%rdx,8), %xmm0	 RIP: 40194b	 Bytes: 5
  %loadMem_40194b = load %struct.Memory*, %struct.Memory** %MEMORY
  %call_40194b = call %struct.Memory* @routine_addsd___rcx__rdx_8____xmm0(%struct.State* %0, i64  0, %struct.Memory* %loadMem_40194b)
  store %struct.Memory* %call_40194b, %struct.Memory** %MEMORY

  ; Code: movsd %xmm0, -0x40(%rbp)	 RIP: 401950	 Bytes: 5
  %loadMem_401950 = load %struct.Memory*, %struct.Memory** %MEMORY
  %call_401950 = call %struct.Memory* @routine_movsd__xmm0__MINUS0x40__rbp_(%struct.State* %0, i64  0, %struct.Memory* %loadMem_401950)
  store %struct.Memory* %call_401950, %struct.Memory** %MEMORY

  ; Code: movq -0x10(%rbp), %rcx	 RIP: 401955	 Bytes: 4
  %loadMem_401955 = load %struct.Memory*, %struct.Memory** %MEMORY
  %call_401955 = call %struct.Memory* @routine_movq_MINUS0x10__rbp____rcx(%struct.State* %0, i64  0, %struct.Memory* %loadMem_401955)
  store %struct.Memory* %call_401955, %struct.Memory** %MEMORY

  ; Code: movslq -0x1c(%rbp), %rdx	 RIP: 401959	 Bytes: 4
  %loadMem_401959 = load %struct.Memory*, %struct.Memory** %MEMORY
  %call_401959 = call %struct.Memory* @routine_movslq_MINUS0x1c__rbp____rdx(%struct.State* %0, i64  0, %struct.Memory* %loadMem_401959)
  store %struct.Memory* %call_401959, %struct.Memory** %MEMORY

  ; Code: movsd (%rcx,%rdx,8), %xmm0	 RIP: 40195d	 Bytes: 5
  %loadMem_40195d = load %struct.Memory*, %struct.Memory** %MEMORY
  %call_40195d = call %struct.Memory* @routine_movsd___rcx__rdx_8____xmm0(%struct.State* %0, i64  0, %struct.Memory* %loadMem_40195d)
  store %struct.Memory* %call_40195d, %struct.Memory** %MEMORY

  ; Code: movq -0x10(%rbp), %rcx	 RIP: 401962	 Bytes: 4
  %loadMem_401962 = load %struct.Memory*, %struct.Memory** %MEMORY
  %call_401962 = call %struct.Memory* @routine_movq_MINUS0x10__rbp____rcx(%struct.State* %0, i64  0, %struct.Memory* %loadMem_401962)
  store %struct.Memory* %call_401962, %struct.Memory** %MEMORY

  ; Code: movslq -0x20(%rbp), %rdx	 RIP: 401966	 Bytes: 4
  %loadMem_401966 = load %struct.Memory*, %struct.Memory** %MEMORY
  %call_401966 = call %struct.Memory* @routine_movslq_MINUS0x20__rbp____rdx(%struct.State* %0, i64  0, %struct.Memory* %loadMem_401966)
  store %struct.Memory* %call_401966, %struct.Memory** %MEMORY

  ; Code: subsd (%rcx,%rdx,8), %xmm0	 RIP: 40196a	 Bytes: 5
  %loadMem_40196a = load %struct.Memory*, %struct.Memory** %MEMORY
  %call_40196a = call %struct.Memory* @routine_subsd___rcx__rdx_8____xmm0(%struct.State* %0, i64  0, %struct.Memory* %loadMem_40196a)
  store %struct.Memory* %call_40196a, %struct.Memory** %MEMORY

  ; Code: movsd %xmm0, -0x48(%rbp)	 RIP: 40196f	 Bytes: 5
  %loadMem_40196f = load %struct.Memory*, %struct.Memory** %MEMORY
  %call_40196f = call %struct.Memory* @routine_movsd__xmm0__MINUS0x48__rbp_(%struct.State* %0, i64  0, %struct.Memory* %loadMem_40196f)
  store %struct.Memory* %call_40196f, %struct.Memory** %MEMORY

  ; Code: movq -0x10(%rbp), %rcx	 RIP: 401974	 Bytes: 4
  %loadMem_401974 = load %struct.Memory*, %struct.Memory** %MEMORY
  %call_401974 = call %struct.Memory* @routine_movq_MINUS0x10__rbp____rcx(%struct.State* %0, i64  0, %struct.Memory* %loadMem_401974)
  store %struct.Memory* %call_401974, %struct.Memory** %MEMORY

  ; Code: movl -0x1c(%rbp), %eax	 RIP: 401978	 Bytes: 3
  %loadMem_401978 = load %struct.Memory*, %struct.Memory** %MEMORY
  %call_401978 = call %struct.Memory* @routine_movl_MINUS0x1c__rbp____eax(%struct.State* %0, i64  0, %struct.Memory* %loadMem_401978)
  store %struct.Memory* %call_401978, %struct.Memory** %MEMORY

  ; Code: addl $0x1, %eax	 RIP: 40197b	 Bytes: 3
  %loadMem_40197b = load %struct.Memory*, %struct.Memory** %MEMORY
  %call_40197b = call %struct.Memory* @routine_addl__0x1___eax(%struct.State* %0, i64  0, %struct.Memory* %loadMem_40197b)
  store %struct.Memory* %call_40197b, %struct.Memory** %MEMORY

  ; Code: movslq %eax, %rdx	 RIP: 40197e	 Bytes: 3
  %loadMem_40197e = load %struct.Memory*, %struct.Memory** %MEMORY
  %call_40197e = call %struct.Memory* @routine_movslq__eax___rdx(%struct.State* %0, i64  0, %struct.Memory* %loadMem_40197e)
  store %struct.Memory* %call_40197e, %struct.Memory** %MEMORY

  ; Code: movsd (%rcx,%rdx,8), %xmm0	 RIP: 401981	 Bytes: 5
  %loadMem_401981 = load %struct.Memory*, %struct.Memory** %MEMORY
  %call_401981 = call %struct.Memory* @routine_movsd___rcx__rdx_8____xmm0(%struct.State* %0, i64  0, %struct.Memory* %loadMem_401981)
  store %struct.Memory* %call_401981, %struct.Memory** %MEMORY

  ; Code: movq -0x10(%rbp), %rcx	 RIP: 401986	 Bytes: 4
  %loadMem_401986 = load %struct.Memory*, %struct.Memory** %MEMORY
  %call_401986 = call %struct.Memory* @routine_movq_MINUS0x10__rbp____rcx(%struct.State* %0, i64  0, %struct.Memory* %loadMem_401986)
  store %struct.Memory* %call_401986, %struct.Memory** %MEMORY

  ; Code: movl -0x20(%rbp), %eax	 RIP: 40198a	 Bytes: 3
  %loadMem_40198a = load %struct.Memory*, %struct.Memory** %MEMORY
  %call_40198a = call %struct.Memory* @routine_movl_MINUS0x20__rbp____eax(%struct.State* %0, i64  0, %struct.Memory* %loadMem_40198a)
  store %struct.Memory* %call_40198a, %struct.Memory** %MEMORY

  ; Code: addl $0x1, %eax	 RIP: 40198d	 Bytes: 3
  %loadMem_40198d = load %struct.Memory*, %struct.Memory** %MEMORY
  %call_40198d = call %struct.Memory* @routine_addl__0x1___eax(%struct.State* %0, i64  0, %struct.Memory* %loadMem_40198d)
  store %struct.Memory* %call_40198d, %struct.Memory** %MEMORY

  ; Code: movslq %eax, %rdx	 RIP: 401990	 Bytes: 3
  %loadMem_401990 = load %struct.Memory*, %struct.Memory** %MEMORY
  %call_401990 = call %struct.Memory* @routine_movslq__eax___rdx(%struct.State* %0, i64  0, %struct.Memory* %loadMem_401990)
  store %struct.Memory* %call_401990, %struct.Memory** %MEMORY

  ; Code: subsd (%rcx,%rdx,8), %xmm0	 RIP: 401993	 Bytes: 5
  %loadMem_401993 = load %struct.Memory*, %struct.Memory** %MEMORY
  %call_401993 = call %struct.Memory* @routine_subsd___rcx__rdx_8____xmm0(%struct.State* %0, i64  0, %struct.Memory* %loadMem_401993)
  store %struct.Memory* %call_401993, %struct.Memory** %MEMORY

  ; Code: movsd %xmm0, -0x50(%rbp)	 RIP: 401998	 Bytes: 5
  %loadMem_401998 = load %struct.Memory*, %struct.Memory** %MEMORY
  %call_401998 = call %struct.Memory* @routine_movsd__xmm0__MINUS0x50__rbp_(%struct.State* %0, i64  0, %struct.Memory* %loadMem_401998)
  store %struct.Memory* %call_401998, %struct.Memory** %MEMORY

  ; Code: movq -0x10(%rbp), %rcx	 RIP: 40199d	 Bytes: 4
  %loadMem_40199d = load %struct.Memory*, %struct.Memory** %MEMORY
  %call_40199d = call %struct.Memory* @routine_movq_MINUS0x10__rbp____rcx(%struct.State* %0, i64  0, %struct.Memory* %loadMem_40199d)
  store %struct.Memory* %call_40199d, %struct.Memory** %MEMORY

  ; Code: movslq -0x24(%rbp), %rdx	 RIP: 4019a1	 Bytes: 4
  %loadMem_4019a1 = load %struct.Memory*, %struct.Memory** %MEMORY
  %call_4019a1 = call %struct.Memory* @routine_movslq_MINUS0x24__rbp____rdx(%struct.State* %0, i64  0, %struct.Memory* %loadMem_4019a1)
  store %struct.Memory* %call_4019a1, %struct.Memory** %MEMORY

  ; Code: movsd (%rcx,%rdx,8), %xmm0	 RIP: 4019a5	 Bytes: 5
  %loadMem_4019a5 = load %struct.Memory*, %struct.Memory** %MEMORY
  %call_4019a5 = call %struct.Memory* @routine_movsd___rcx__rdx_8____xmm0(%struct.State* %0, i64  0, %struct.Memory* %loadMem_4019a5)
  store %struct.Memory* %call_4019a5, %struct.Memory** %MEMORY

  ; Code: movq -0x10(%rbp), %rcx	 RIP: 4019aa	 Bytes: 4
  %loadMem_4019aa = load %struct.Memory*, %struct.Memory** %MEMORY
  %call_4019aa = call %struct.Memory* @routine_movq_MINUS0x10__rbp____rcx(%struct.State* %0, i64  0, %struct.Memory* %loadMem_4019aa)
  store %struct.Memory* %call_4019aa, %struct.Memory** %MEMORY

  ; Code: movslq -0x28(%rbp), %rdx	 RIP: 4019ae	 Bytes: 4
  %loadMem_4019ae = load %struct.Memory*, %struct.Memory** %MEMORY
  %call_4019ae = call %struct.Memory* @routine_movslq_MINUS0x28__rbp____rdx(%struct.State* %0, i64  0, %struct.Memory* %loadMem_4019ae)
  store %struct.Memory* %call_4019ae, %struct.Memory** %MEMORY

  ; Code: addsd (%rcx,%rdx,8), %xmm0	 RIP: 4019b2	 Bytes: 5
  %loadMem_4019b2 = load %struct.Memory*, %struct.Memory** %MEMORY
  %call_4019b2 = call %struct.Memory* @routine_addsd___rcx__rdx_8____xmm0(%struct.State* %0, i64  0, %struct.Memory* %loadMem_4019b2)
  store %struct.Memory* %call_4019b2, %struct.Memory** %MEMORY

  ; Code: movsd %xmm0, -0x58(%rbp)	 RIP: 4019b7	 Bytes: 5
  %loadMem_4019b7 = load %struct.Memory*, %struct.Memory** %MEMORY
  %call_4019b7 = call %struct.Memory* @routine_movsd__xmm0__MINUS0x58__rbp_(%struct.State* %0, i64  0, %struct.Memory* %loadMem_4019b7)
  store %struct.Memory* %call_4019b7, %struct.Memory** %MEMORY

  ; Code: movq -0x10(%rbp), %rcx	 RIP: 4019bc	 Bytes: 4
  %loadMem_4019bc = load %struct.Memory*, %struct.Memory** %MEMORY
  %call_4019bc = call %struct.Memory* @routine_movq_MINUS0x10__rbp____rcx(%struct.State* %0, i64  0, %struct.Memory* %loadMem_4019bc)
  store %struct.Memory* %call_4019bc, %struct.Memory** %MEMORY

  ; Code: movl -0x24(%rbp), %eax	 RIP: 4019c0	 Bytes: 3
  %loadMem_4019c0 = load %struct.Memory*, %struct.Memory** %MEMORY
  %call_4019c0 = call %struct.Memory* @routine_movl_MINUS0x24__rbp____eax(%struct.State* %0, i64  0, %struct.Memory* %loadMem_4019c0)
  store %struct.Memory* %call_4019c0, %struct.Memory** %MEMORY

  ; Code: addl $0x1, %eax	 RIP: 4019c3	 Bytes: 3
  %loadMem_4019c3 = load %struct.Memory*, %struct.Memory** %MEMORY
  %call_4019c3 = call %struct.Memory* @routine_addl__0x1___eax(%struct.State* %0, i64  0, %struct.Memory* %loadMem_4019c3)
  store %struct.Memory* %call_4019c3, %struct.Memory** %MEMORY

  ; Code: movslq %eax, %rdx	 RIP: 4019c6	 Bytes: 3
  %loadMem_4019c6 = load %struct.Memory*, %struct.Memory** %MEMORY
  %call_4019c6 = call %struct.Memory* @routine_movslq__eax___rdx(%struct.State* %0, i64  0, %struct.Memory* %loadMem_4019c6)
  store %struct.Memory* %call_4019c6, %struct.Memory** %MEMORY

  ; Code: movsd (%rcx,%rdx,8), %xmm0	 RIP: 4019c9	 Bytes: 5
  %loadMem_4019c9 = load %struct.Memory*, %struct.Memory** %MEMORY
  %call_4019c9 = call %struct.Memory* @routine_movsd___rcx__rdx_8____xmm0(%struct.State* %0, i64  0, %struct.Memory* %loadMem_4019c9)
  store %struct.Memory* %call_4019c9, %struct.Memory** %MEMORY

  ; Code: movq -0x10(%rbp), %rcx	 RIP: 4019ce	 Bytes: 4
  %loadMem_4019ce = load %struct.Memory*, %struct.Memory** %MEMORY
  %call_4019ce = call %struct.Memory* @routine_movq_MINUS0x10__rbp____rcx(%struct.State* %0, i64  0, %struct.Memory* %loadMem_4019ce)
  store %struct.Memory* %call_4019ce, %struct.Memory** %MEMORY

  ; Code: movl -0x28(%rbp), %eax	 RIP: 4019d2	 Bytes: 3
  %loadMem_4019d2 = load %struct.Memory*, %struct.Memory** %MEMORY
  %call_4019d2 = call %struct.Memory* @routine_movl_MINUS0x28__rbp____eax(%struct.State* %0, i64  0, %struct.Memory* %loadMem_4019d2)
  store %struct.Memory* %call_4019d2, %struct.Memory** %MEMORY

  ; Code: addl $0x1, %eax	 RIP: 4019d5	 Bytes: 3
  %loadMem_4019d5 = load %struct.Memory*, %struct.Memory** %MEMORY
  %call_4019d5 = call %struct.Memory* @routine_addl__0x1___eax(%struct.State* %0, i64  0, %struct.Memory* %loadMem_4019d5)
  store %struct.Memory* %call_4019d5, %struct.Memory** %MEMORY

  ; Code: movslq %eax, %rdx	 RIP: 4019d8	 Bytes: 3
  %loadMem_4019d8 = load %struct.Memory*, %struct.Memory** %MEMORY
  %call_4019d8 = call %struct.Memory* @routine_movslq__eax___rdx(%struct.State* %0, i64  0, %struct.Memory* %loadMem_4019d8)
  store %struct.Memory* %call_4019d8, %struct.Memory** %MEMORY

  ; Code: addsd (%rcx,%rdx,8), %xmm0	 RIP: 4019db	 Bytes: 5
  %loadMem_4019db = load %struct.Memory*, %struct.Memory** %MEMORY
  %call_4019db = call %struct.Memory* @routine_addsd___rcx__rdx_8____xmm0(%struct.State* %0, i64  0, %struct.Memory* %loadMem_4019db)
  store %struct.Memory* %call_4019db, %struct.Memory** %MEMORY

  ; Code: movsd %xmm0, -0x60(%rbp)	 RIP: 4019e0	 Bytes: 5
  %loadMem_4019e0 = load %struct.Memory*, %struct.Memory** %MEMORY
  %call_4019e0 = call %struct.Memory* @routine_movsd__xmm0__MINUS0x60__rbp_(%struct.State* %0, i64  0, %struct.Memory* %loadMem_4019e0)
  store %struct.Memory* %call_4019e0, %struct.Memory** %MEMORY

  ; Code: movq -0x10(%rbp), %rcx	 RIP: 4019e5	 Bytes: 4
  %loadMem_4019e5 = load %struct.Memory*, %struct.Memory** %MEMORY
  %call_4019e5 = call %struct.Memory* @routine_movq_MINUS0x10__rbp____rcx(%struct.State* %0, i64  0, %struct.Memory* %loadMem_4019e5)
  store %struct.Memory* %call_4019e5, %struct.Memory** %MEMORY

  ; Code: movslq -0x24(%rbp), %rdx	 RIP: 4019e9	 Bytes: 4
  %loadMem_4019e9 = load %struct.Memory*, %struct.Memory** %MEMORY
  %call_4019e9 = call %struct.Memory* @routine_movslq_MINUS0x24__rbp____rdx(%struct.State* %0, i64  0, %struct.Memory* %loadMem_4019e9)
  store %struct.Memory* %call_4019e9, %struct.Memory** %MEMORY

  ; Code: movsd (%rcx,%rdx,8), %xmm0	 RIP: 4019ed	 Bytes: 5
  %loadMem_4019ed = load %struct.Memory*, %struct.Memory** %MEMORY
  %call_4019ed = call %struct.Memory* @routine_movsd___rcx__rdx_8____xmm0(%struct.State* %0, i64  0, %struct.Memory* %loadMem_4019ed)
  store %struct.Memory* %call_4019ed, %struct.Memory** %MEMORY

  ; Code: movq -0x10(%rbp), %rcx	 RIP: 4019f2	 Bytes: 4
  %loadMem_4019f2 = load %struct.Memory*, %struct.Memory** %MEMORY
  %call_4019f2 = call %struct.Memory* @routine_movq_MINUS0x10__rbp____rcx(%struct.State* %0, i64  0, %struct.Memory* %loadMem_4019f2)
  store %struct.Memory* %call_4019f2, %struct.Memory** %MEMORY

  ; Code: movslq -0x28(%rbp), %rdx	 RIP: 4019f6	 Bytes: 4
  %loadMem_4019f6 = load %struct.Memory*, %struct.Memory** %MEMORY
  %call_4019f6 = call %struct.Memory* @routine_movslq_MINUS0x28__rbp____rdx(%struct.State* %0, i64  0, %struct.Memory* %loadMem_4019f6)
  store %struct.Memory* %call_4019f6, %struct.Memory** %MEMORY

  ; Code: subsd (%rcx,%rdx,8), %xmm0	 RIP: 4019fa	 Bytes: 5
  %loadMem_4019fa = load %struct.Memory*, %struct.Memory** %MEMORY
  %call_4019fa = call %struct.Memory* @routine_subsd___rcx__rdx_8____xmm0(%struct.State* %0, i64  0, %struct.Memory* %loadMem_4019fa)
  store %struct.Memory* %call_4019fa, %struct.Memory** %MEMORY

  ; Code: movsd %xmm0, -0x68(%rbp)	 RIP: 4019ff	 Bytes: 5
  %loadMem_4019ff = load %struct.Memory*, %struct.Memory** %MEMORY
  %call_4019ff = call %struct.Memory* @routine_movsd__xmm0__MINUS0x68__rbp_(%struct.State* %0, i64  0, %struct.Memory* %loadMem_4019ff)
  store %struct.Memory* %call_4019ff, %struct.Memory** %MEMORY

  ; Code: movq -0x10(%rbp), %rcx	 RIP: 401a04	 Bytes: 4
  %loadMem_401a04 = load %struct.Memory*, %struct.Memory** %MEMORY
  %call_401a04 = call %struct.Memory* @routine_movq_MINUS0x10__rbp____rcx(%struct.State* %0, i64  0, %struct.Memory* %loadMem_401a04)
  store %struct.Memory* %call_401a04, %struct.Memory** %MEMORY

  ; Code: movl -0x24(%rbp), %eax	 RIP: 401a08	 Bytes: 3
  %loadMem_401a08 = load %struct.Memory*, %struct.Memory** %MEMORY
  %call_401a08 = call %struct.Memory* @routine_movl_MINUS0x24__rbp____eax(%struct.State* %0, i64  0, %struct.Memory* %loadMem_401a08)
  store %struct.Memory* %call_401a08, %struct.Memory** %MEMORY

  ; Code: addl $0x1, %eax	 RIP: 401a0b	 Bytes: 3
  %loadMem_401a0b = load %struct.Memory*, %struct.Memory** %MEMORY
  %call_401a0b = call %struct.Memory* @routine_addl__0x1___eax(%struct.State* %0, i64  0, %struct.Memory* %loadMem_401a0b)
  store %struct.Memory* %call_401a0b, %struct.Memory** %MEMORY

  ; Code: movslq %eax, %rdx	 RIP: 401a0e	 Bytes: 3
  %loadMem_401a0e = load %struct.Memory*, %struct.Memory** %MEMORY
  %call_401a0e = call %struct.Memory* @routine_movslq__eax___rdx(%struct.State* %0, i64  0, %struct.Memory* %loadMem_401a0e)
  store %struct.Memory* %call_401a0e, %struct.Memory** %MEMORY

  ; Code: movsd (%rcx,%rdx,8), %xmm0	 RIP: 401a11	 Bytes: 5
  %loadMem_401a11 = load %struct.Memory*, %struct.Memory** %MEMORY
  %call_401a11 = call %struct.Memory* @routine_movsd___rcx__rdx_8____xmm0(%struct.State* %0, i64  0, %struct.Memory* %loadMem_401a11)
  store %struct.Memory* %call_401a11, %struct.Memory** %MEMORY

  ; Code: movq -0x10(%rbp), %rcx	 RIP: 401a16	 Bytes: 4
  %loadMem_401a16 = load %struct.Memory*, %struct.Memory** %MEMORY
  %call_401a16 = call %struct.Memory* @routine_movq_MINUS0x10__rbp____rcx(%struct.State* %0, i64  0, %struct.Memory* %loadMem_401a16)
  store %struct.Memory* %call_401a16, %struct.Memory** %MEMORY

  ; Code: movl -0x28(%rbp), %eax	 RIP: 401a1a	 Bytes: 3
  %loadMem_401a1a = load %struct.Memory*, %struct.Memory** %MEMORY
  %call_401a1a = call %struct.Memory* @routine_movl_MINUS0x28__rbp____eax(%struct.State* %0, i64  0, %struct.Memory* %loadMem_401a1a)
  store %struct.Memory* %call_401a1a, %struct.Memory** %MEMORY

  ; Code: addl $0x1, %eax	 RIP: 401a1d	 Bytes: 3
  %loadMem_401a1d = load %struct.Memory*, %struct.Memory** %MEMORY
  %call_401a1d = call %struct.Memory* @routine_addl__0x1___eax(%struct.State* %0, i64  0, %struct.Memory* %loadMem_401a1d)
  store %struct.Memory* %call_401a1d, %struct.Memory** %MEMORY

  ; Code: movslq %eax, %rdx	 RIP: 401a20	 Bytes: 3
  %loadMem_401a20 = load %struct.Memory*, %struct.Memory** %MEMORY
  %call_401a20 = call %struct.Memory* @routine_movslq__eax___rdx(%struct.State* %0, i64  0, %struct.Memory* %loadMem_401a20)
  store %struct.Memory* %call_401a20, %struct.Memory** %MEMORY

  ; Code: subsd (%rcx,%rdx,8), %xmm0	 RIP: 401a23	 Bytes: 5
  %loadMem_401a23 = load %struct.Memory*, %struct.Memory** %MEMORY
  %call_401a23 = call %struct.Memory* @routine_subsd___rcx__rdx_8____xmm0(%struct.State* %0, i64  0, %struct.Memory* %loadMem_401a23)
  store %struct.Memory* %call_401a23, %struct.Memory** %MEMORY

  ; Code: movsd %xmm0, -0x70(%rbp)	 RIP: 401a28	 Bytes: 5
  %loadMem_401a28 = load %struct.Memory*, %struct.Memory** %MEMORY
  %call_401a28 = call %struct.Memory* @routine_movsd__xmm0__MINUS0x70__rbp_(%struct.State* %0, i64  0, %struct.Memory* %loadMem_401a28)
  store %struct.Memory* %call_401a28, %struct.Memory** %MEMORY

  ; Code: movsd -0x38(%rbp), %xmm0	 RIP: 401a2d	 Bytes: 5
  %loadMem_401a2d = load %struct.Memory*, %struct.Memory** %MEMORY
  %call_401a2d = call %struct.Memory* @routine_movsd_MINUS0x38__rbp____xmm0(%struct.State* %0, i64  0, %struct.Memory* %loadMem_401a2d)
  store %struct.Memory* %call_401a2d, %struct.Memory** %MEMORY

  ; Code: addsd -0x58(%rbp), %xmm0	 RIP: 401a32	 Bytes: 5
  %loadMem_401a32 = load %struct.Memory*, %struct.Memory** %MEMORY
  %call_401a32 = call %struct.Memory* @routine_addsd_MINUS0x58__rbp____xmm0(%struct.State* %0, i64  0, %struct.Memory* %loadMem_401a32)
  store %struct.Memory* %call_401a32, %struct.Memory** %MEMORY

  ; Code: movq -0x10(%rbp), %rcx	 RIP: 401a37	 Bytes: 4
  %loadMem_401a37 = load %struct.Memory*, %struct.Memory** %MEMORY
  %call_401a37 = call %struct.Memory* @routine_movq_MINUS0x10__rbp____rcx(%struct.State* %0, i64  0, %struct.Memory* %loadMem_401a37)
  store %struct.Memory* %call_401a37, %struct.Memory** %MEMORY

  ; Code: movslq -0x1c(%rbp), %rdx	 RIP: 401a3b	 Bytes: 4
  %loadMem_401a3b = load %struct.Memory*, %struct.Memory** %MEMORY
  %call_401a3b = call %struct.Memory* @routine_movslq_MINUS0x1c__rbp____rdx(%struct.State* %0, i64  0, %struct.Memory* %loadMem_401a3b)
  store %struct.Memory* %call_401a3b, %struct.Memory** %MEMORY

  ; Code: movsd %xmm0, (%rcx,%rdx,8)	 RIP: 401a3f	 Bytes: 5
  %loadMem_401a3f = load %struct.Memory*, %struct.Memory** %MEMORY
  %call_401a3f = call %struct.Memory* @routine_movsd__xmm0____rcx__rdx_8_(%struct.State* %0, i64  0, %struct.Memory* %loadMem_401a3f)
  store %struct.Memory* %call_401a3f, %struct.Memory** %MEMORY

  ; Code: movsd -0x40(%rbp), %xmm0	 RIP: 401a44	 Bytes: 5
  %loadMem_401a44 = load %struct.Memory*, %struct.Memory** %MEMORY
  %call_401a44 = call %struct.Memory* @routine_movsd_MINUS0x40__rbp____xmm0(%struct.State* %0, i64  0, %struct.Memory* %loadMem_401a44)
  store %struct.Memory* %call_401a44, %struct.Memory** %MEMORY

  ; Code: addsd -0x60(%rbp), %xmm0	 RIP: 401a49	 Bytes: 5
  %loadMem_401a49 = load %struct.Memory*, %struct.Memory** %MEMORY
  %call_401a49 = call %struct.Memory* @routine_addsd_MINUS0x60__rbp____xmm0(%struct.State* %0, i64  0, %struct.Memory* %loadMem_401a49)
  store %struct.Memory* %call_401a49, %struct.Memory** %MEMORY

  ; Code: movq -0x10(%rbp), %rcx	 RIP: 401a4e	 Bytes: 4
  %loadMem_401a4e = load %struct.Memory*, %struct.Memory** %MEMORY
  %call_401a4e = call %struct.Memory* @routine_movq_MINUS0x10__rbp____rcx(%struct.State* %0, i64  0, %struct.Memory* %loadMem_401a4e)
  store %struct.Memory* %call_401a4e, %struct.Memory** %MEMORY

  ; Code: movl -0x1c(%rbp), %eax	 RIP: 401a52	 Bytes: 3
  %loadMem_401a52 = load %struct.Memory*, %struct.Memory** %MEMORY
  %call_401a52 = call %struct.Memory* @routine_movl_MINUS0x1c__rbp____eax(%struct.State* %0, i64  0, %struct.Memory* %loadMem_401a52)
  store %struct.Memory* %call_401a52, %struct.Memory** %MEMORY

  ; Code: addl $0x1, %eax	 RIP: 401a55	 Bytes: 3
  %loadMem_401a55 = load %struct.Memory*, %struct.Memory** %MEMORY
  %call_401a55 = call %struct.Memory* @routine_addl__0x1___eax(%struct.State* %0, i64  0, %struct.Memory* %loadMem_401a55)
  store %struct.Memory* %call_401a55, %struct.Memory** %MEMORY

  ; Code: movslq %eax, %rdx	 RIP: 401a58	 Bytes: 3
  %loadMem_401a58 = load %struct.Memory*, %struct.Memory** %MEMORY
  %call_401a58 = call %struct.Memory* @routine_movslq__eax___rdx(%struct.State* %0, i64  0, %struct.Memory* %loadMem_401a58)
  store %struct.Memory* %call_401a58, %struct.Memory** %MEMORY

  ; Code: movsd %xmm0, (%rcx,%rdx,8)	 RIP: 401a5b	 Bytes: 5
  %loadMem_401a5b = load %struct.Memory*, %struct.Memory** %MEMORY
  %call_401a5b = call %struct.Memory* @routine_movsd__xmm0____rcx__rdx_8_(%struct.State* %0, i64  0, %struct.Memory* %loadMem_401a5b)
  store %struct.Memory* %call_401a5b, %struct.Memory** %MEMORY

  ; Code: movsd -0x38(%rbp), %xmm0	 RIP: 401a60	 Bytes: 5
  %loadMem_401a60 = load %struct.Memory*, %struct.Memory** %MEMORY
  %call_401a60 = call %struct.Memory* @routine_movsd_MINUS0x38__rbp____xmm0(%struct.State* %0, i64  0, %struct.Memory* %loadMem_401a60)
  store %struct.Memory* %call_401a60, %struct.Memory** %MEMORY

  ; Code: subsd -0x58(%rbp), %xmm0	 RIP: 401a65	 Bytes: 5
  %loadMem_401a65 = load %struct.Memory*, %struct.Memory** %MEMORY
  %call_401a65 = call %struct.Memory* @routine_subsd_MINUS0x58__rbp____xmm0(%struct.State* %0, i64  0, %struct.Memory* %loadMem_401a65)
  store %struct.Memory* %call_401a65, %struct.Memory** %MEMORY

  ; Code: movq -0x10(%rbp), %rcx	 RIP: 401a6a	 Bytes: 4
  %loadMem_401a6a = load %struct.Memory*, %struct.Memory** %MEMORY
  %call_401a6a = call %struct.Memory* @routine_movq_MINUS0x10__rbp____rcx(%struct.State* %0, i64  0, %struct.Memory* %loadMem_401a6a)
  store %struct.Memory* %call_401a6a, %struct.Memory** %MEMORY

  ; Code: movslq -0x24(%rbp), %rdx	 RIP: 401a6e	 Bytes: 4
  %loadMem_401a6e = load %struct.Memory*, %struct.Memory** %MEMORY
  %call_401a6e = call %struct.Memory* @routine_movslq_MINUS0x24__rbp____rdx(%struct.State* %0, i64  0, %struct.Memory* %loadMem_401a6e)
  store %struct.Memory* %call_401a6e, %struct.Memory** %MEMORY

  ; Code: movsd %xmm0, (%rcx,%rdx,8)	 RIP: 401a72	 Bytes: 5
  %loadMem_401a72 = load %struct.Memory*, %struct.Memory** %MEMORY
  %call_401a72 = call %struct.Memory* @routine_movsd__xmm0____rcx__rdx_8_(%struct.State* %0, i64  0, %struct.Memory* %loadMem_401a72)
  store %struct.Memory* %call_401a72, %struct.Memory** %MEMORY

  ; Code: movsd -0x40(%rbp), %xmm0	 RIP: 401a77	 Bytes: 5
  %loadMem_401a77 = load %struct.Memory*, %struct.Memory** %MEMORY
  %call_401a77 = call %struct.Memory* @routine_movsd_MINUS0x40__rbp____xmm0(%struct.State* %0, i64  0, %struct.Memory* %loadMem_401a77)
  store %struct.Memory* %call_401a77, %struct.Memory** %MEMORY

  ; Code: subsd -0x60(%rbp), %xmm0	 RIP: 401a7c	 Bytes: 5
  %loadMem_401a7c = load %struct.Memory*, %struct.Memory** %MEMORY
  %call_401a7c = call %struct.Memory* @routine_subsd_MINUS0x60__rbp____xmm0(%struct.State* %0, i64  0, %struct.Memory* %loadMem_401a7c)
  store %struct.Memory* %call_401a7c, %struct.Memory** %MEMORY

  ; Code: movq -0x10(%rbp), %rcx	 RIP: 401a81	 Bytes: 4
  %loadMem_401a81 = load %struct.Memory*, %struct.Memory** %MEMORY
  %call_401a81 = call %struct.Memory* @routine_movq_MINUS0x10__rbp____rcx(%struct.State* %0, i64  0, %struct.Memory* %loadMem_401a81)
  store %struct.Memory* %call_401a81, %struct.Memory** %MEMORY

  ; Code: movl -0x24(%rbp), %eax	 RIP: 401a85	 Bytes: 3
  %loadMem_401a85 = load %struct.Memory*, %struct.Memory** %MEMORY
  %call_401a85 = call %struct.Memory* @routine_movl_MINUS0x24__rbp____eax(%struct.State* %0, i64  0, %struct.Memory* %loadMem_401a85)
  store %struct.Memory* %call_401a85, %struct.Memory** %MEMORY

  ; Code: addl $0x1, %eax	 RIP: 401a88	 Bytes: 3
  %loadMem_401a88 = load %struct.Memory*, %struct.Memory** %MEMORY
  %call_401a88 = call %struct.Memory* @routine_addl__0x1___eax(%struct.State* %0, i64  0, %struct.Memory* %loadMem_401a88)
  store %struct.Memory* %call_401a88, %struct.Memory** %MEMORY

  ; Code: movslq %eax, %rdx	 RIP: 401a8b	 Bytes: 3
  %loadMem_401a8b = load %struct.Memory*, %struct.Memory** %MEMORY
  %call_401a8b = call %struct.Memory* @routine_movslq__eax___rdx(%struct.State* %0, i64  0, %struct.Memory* %loadMem_401a8b)
  store %struct.Memory* %call_401a8b, %struct.Memory** %MEMORY

  ; Code: movsd %xmm0, (%rcx,%rdx,8)	 RIP: 401a8e	 Bytes: 5
  %loadMem_401a8e = load %struct.Memory*, %struct.Memory** %MEMORY
  %call_401a8e = call %struct.Memory* @routine_movsd__xmm0____rcx__rdx_8_(%struct.State* %0, i64  0, %struct.Memory* %loadMem_401a8e)
  store %struct.Memory* %call_401a8e, %struct.Memory** %MEMORY

  ; Code: movsd -0x48(%rbp), %xmm0	 RIP: 401a93	 Bytes: 5
  %loadMem_401a93 = load %struct.Memory*, %struct.Memory** %MEMORY
  %call_401a93 = call %struct.Memory* @routine_movsd_MINUS0x48__rbp____xmm0(%struct.State* %0, i64  0, %struct.Memory* %loadMem_401a93)
  store %struct.Memory* %call_401a93, %struct.Memory** %MEMORY

  ; Code: subsd -0x70(%rbp), %xmm0	 RIP: 401a98	 Bytes: 5
  %loadMem_401a98 = load %struct.Memory*, %struct.Memory** %MEMORY
  %call_401a98 = call %struct.Memory* @routine_subsd_MINUS0x70__rbp____xmm0(%struct.State* %0, i64  0, %struct.Memory* %loadMem_401a98)
  store %struct.Memory* %call_401a98, %struct.Memory** %MEMORY

  ; Code: movq -0x10(%rbp), %rcx	 RIP: 401a9d	 Bytes: 4
  %loadMem_401a9d = load %struct.Memory*, %struct.Memory** %MEMORY
  %call_401a9d = call %struct.Memory* @routine_movq_MINUS0x10__rbp____rcx(%struct.State* %0, i64  0, %struct.Memory* %loadMem_401a9d)
  store %struct.Memory* %call_401a9d, %struct.Memory** %MEMORY

  ; Code: movslq -0x20(%rbp), %rdx	 RIP: 401aa1	 Bytes: 4
  %loadMem_401aa1 = load %struct.Memory*, %struct.Memory** %MEMORY
  %call_401aa1 = call %struct.Memory* @routine_movslq_MINUS0x20__rbp____rdx(%struct.State* %0, i64  0, %struct.Memory* %loadMem_401aa1)
  store %struct.Memory* %call_401aa1, %struct.Memory** %MEMORY

  ; Code: movsd %xmm0, (%rcx,%rdx,8)	 RIP: 401aa5	 Bytes: 5
  %loadMem_401aa5 = load %struct.Memory*, %struct.Memory** %MEMORY
  %call_401aa5 = call %struct.Memory* @routine_movsd__xmm0____rcx__rdx_8_(%struct.State* %0, i64  0, %struct.Memory* %loadMem_401aa5)
  store %struct.Memory* %call_401aa5, %struct.Memory** %MEMORY

  ; Code: movsd -0x50(%rbp), %xmm0	 RIP: 401aaa	 Bytes: 5
  %loadMem_401aaa = load %struct.Memory*, %struct.Memory** %MEMORY
  %call_401aaa = call %struct.Memory* @routine_movsd_MINUS0x50__rbp____xmm0(%struct.State* %0, i64  0, %struct.Memory* %loadMem_401aaa)
  store %struct.Memory* %call_401aaa, %struct.Memory** %MEMORY

  ; Code: addsd -0x68(%rbp), %xmm0	 RIP: 401aaf	 Bytes: 5
  %loadMem_401aaf = load %struct.Memory*, %struct.Memory** %MEMORY
  %call_401aaf = call %struct.Memory* @routine_addsd_MINUS0x68__rbp____xmm0(%struct.State* %0, i64  0, %struct.Memory* %loadMem_401aaf)
  store %struct.Memory* %call_401aaf, %struct.Memory** %MEMORY

  ; Code: movq -0x10(%rbp), %rcx	 RIP: 401ab4	 Bytes: 4
  %loadMem_401ab4 = load %struct.Memory*, %struct.Memory** %MEMORY
  %call_401ab4 = call %struct.Memory* @routine_movq_MINUS0x10__rbp____rcx(%struct.State* %0, i64  0, %struct.Memory* %loadMem_401ab4)
  store %struct.Memory* %call_401ab4, %struct.Memory** %MEMORY

  ; Code: movl -0x20(%rbp), %eax	 RIP: 401ab8	 Bytes: 3
  %loadMem_401ab8 = load %struct.Memory*, %struct.Memory** %MEMORY
  %call_401ab8 = call %struct.Memory* @routine_movl_MINUS0x20__rbp____eax(%struct.State* %0, i64  0, %struct.Memory* %loadMem_401ab8)
  store %struct.Memory* %call_401ab8, %struct.Memory** %MEMORY

  ; Code: addl $0x1, %eax	 RIP: 401abb	 Bytes: 3
  %loadMem_401abb = load %struct.Memory*, %struct.Memory** %MEMORY
  %call_401abb = call %struct.Memory* @routine_addl__0x1___eax(%struct.State* %0, i64  0, %struct.Memory* %loadMem_401abb)
  store %struct.Memory* %call_401abb, %struct.Memory** %MEMORY

  ; Code: movslq %eax, %rdx	 RIP: 401abe	 Bytes: 3
  %loadMem_401abe = load %struct.Memory*, %struct.Memory** %MEMORY
  %call_401abe = call %struct.Memory* @routine_movslq__eax___rdx(%struct.State* %0, i64  0, %struct.Memory* %loadMem_401abe)
  store %struct.Memory* %call_401abe, %struct.Memory** %MEMORY

  ; Code: movsd %xmm0, (%rcx,%rdx,8)	 RIP: 401ac1	 Bytes: 5
  %loadMem_401ac1 = load %struct.Memory*, %struct.Memory** %MEMORY
  %call_401ac1 = call %struct.Memory* @routine_movsd__xmm0____rcx__rdx_8_(%struct.State* %0, i64  0, %struct.Memory* %loadMem_401ac1)
  store %struct.Memory* %call_401ac1, %struct.Memory** %MEMORY

  ; Code: movsd -0x48(%rbp), %xmm0	 RIP: 401ac6	 Bytes: 5
  %loadMem_401ac6 = load %struct.Memory*, %struct.Memory** %MEMORY
  %call_401ac6 = call %struct.Memory* @routine_movsd_MINUS0x48__rbp____xmm0(%struct.State* %0, i64  0, %struct.Memory* %loadMem_401ac6)
  store %struct.Memory* %call_401ac6, %struct.Memory** %MEMORY

  ; Code: addsd -0x70(%rbp), %xmm0	 RIP: 401acb	 Bytes: 5
  %loadMem_401acb = load %struct.Memory*, %struct.Memory** %MEMORY
  %call_401acb = call %struct.Memory* @routine_addsd_MINUS0x70__rbp____xmm0(%struct.State* %0, i64  0, %struct.Memory* %loadMem_401acb)
  store %struct.Memory* %call_401acb, %struct.Memory** %MEMORY

  ; Code: movq -0x10(%rbp), %rcx	 RIP: 401ad0	 Bytes: 4
  %loadMem_401ad0 = load %struct.Memory*, %struct.Memory** %MEMORY
  %call_401ad0 = call %struct.Memory* @routine_movq_MINUS0x10__rbp____rcx(%struct.State* %0, i64  0, %struct.Memory* %loadMem_401ad0)
  store %struct.Memory* %call_401ad0, %struct.Memory** %MEMORY

  ; Code: movslq -0x28(%rbp), %rdx	 RIP: 401ad4	 Bytes: 4
  %loadMem_401ad4 = load %struct.Memory*, %struct.Memory** %MEMORY
  %call_401ad4 = call %struct.Memory* @routine_movslq_MINUS0x28__rbp____rdx(%struct.State* %0, i64  0, %struct.Memory* %loadMem_401ad4)
  store %struct.Memory* %call_401ad4, %struct.Memory** %MEMORY

  ; Code: movsd %xmm0, (%rcx,%rdx,8)	 RIP: 401ad8	 Bytes: 5
  %loadMem_401ad8 = load %struct.Memory*, %struct.Memory** %MEMORY
  %call_401ad8 = call %struct.Memory* @routine_movsd__xmm0____rcx__rdx_8_(%struct.State* %0, i64  0, %struct.Memory* %loadMem_401ad8)
  store %struct.Memory* %call_401ad8, %struct.Memory** %MEMORY

  ; Code: movsd -0x50(%rbp), %xmm0	 RIP: 401add	 Bytes: 5
  %loadMem_401add = load %struct.Memory*, %struct.Memory** %MEMORY
  %call_401add = call %struct.Memory* @routine_movsd_MINUS0x50__rbp____xmm0(%struct.State* %0, i64  0, %struct.Memory* %loadMem_401add)
  store %struct.Memory* %call_401add, %struct.Memory** %MEMORY

  ; Code: subsd -0x68(%rbp), %xmm0	 RIP: 401ae2	 Bytes: 5
  %loadMem_401ae2 = load %struct.Memory*, %struct.Memory** %MEMORY
  %call_401ae2 = call %struct.Memory* @routine_subsd_MINUS0x68__rbp____xmm0(%struct.State* %0, i64  0, %struct.Memory* %loadMem_401ae2)
  store %struct.Memory* %call_401ae2, %struct.Memory** %MEMORY

  ; Code: movq -0x10(%rbp), %rcx	 RIP: 401ae7	 Bytes: 4
  %loadMem_401ae7 = load %struct.Memory*, %struct.Memory** %MEMORY
  %call_401ae7 = call %struct.Memory* @routine_movq_MINUS0x10__rbp____rcx(%struct.State* %0, i64  0, %struct.Memory* %loadMem_401ae7)
  store %struct.Memory* %call_401ae7, %struct.Memory** %MEMORY

  ; Code: movl -0x28(%rbp), %eax	 RIP: 401aeb	 Bytes: 3
  %loadMem_401aeb = load %struct.Memory*, %struct.Memory** %MEMORY
  %call_401aeb = call %struct.Memory* @routine_movl_MINUS0x28__rbp____eax(%struct.State* %0, i64  0, %struct.Memory* %loadMem_401aeb)
  store %struct.Memory* %call_401aeb, %struct.Memory** %MEMORY

  ; Code: addl $0x1, %eax	 RIP: 401aee	 Bytes: 3
  %loadMem_401aee = load %struct.Memory*, %struct.Memory** %MEMORY
  %call_401aee = call %struct.Memory* @routine_addl__0x1___eax(%struct.State* %0, i64  0, %struct.Memory* %loadMem_401aee)
  store %struct.Memory* %call_401aee, %struct.Memory** %MEMORY

  ; Code: movslq %eax, %rdx	 RIP: 401af1	 Bytes: 3
  %loadMem_401af1 = load %struct.Memory*, %struct.Memory** %MEMORY
  %call_401af1 = call %struct.Memory* @routine_movslq__eax___rdx(%struct.State* %0, i64  0, %struct.Memory* %loadMem_401af1)
  store %struct.Memory* %call_401af1, %struct.Memory** %MEMORY

  ; Code: movsd %xmm0, (%rcx,%rdx,8)	 RIP: 401af4	 Bytes: 5
  %loadMem_401af4 = load %struct.Memory*, %struct.Memory** %MEMORY
  %call_401af4 = call %struct.Memory* @routine_movsd__xmm0____rcx__rdx_8_(%struct.State* %0, i64  0, %struct.Memory* %loadMem_401af4)
  store %struct.Memory* %call_401af4, %struct.Memory** %MEMORY

  ; Code: movl -0x1c(%rbp), %eax	 RIP: 401af9	 Bytes: 3
  %loadMem_401af9 = load %struct.Memory*, %struct.Memory** %MEMORY
  %call_401af9 = call %struct.Memory* @routine_movl_MINUS0x1c__rbp____eax(%struct.State* %0, i64  0, %struct.Memory* %loadMem_401af9)
  store %struct.Memory* %call_401af9, %struct.Memory** %MEMORY

  ; Code: addl $0x2, %eax	 RIP: 401afc	 Bytes: 3
  %loadMem_401afc = load %struct.Memory*, %struct.Memory** %MEMORY
  %call_401afc = call %struct.Memory* @routine_addl__0x2___eax(%struct.State* %0, i64  0, %struct.Memory* %loadMem_401afc)
  store %struct.Memory* %call_401afc, %struct.Memory** %MEMORY

  ; Code: movl %eax, -0x1c(%rbp)	 RIP: 401aff	 Bytes: 3
  %loadMem_401aff = load %struct.Memory*, %struct.Memory** %MEMORY
  %call_401aff = call %struct.Memory* @routine_movl__eax__MINUS0x1c__rbp_(%struct.State* %0, i64  0, %struct.Memory* %loadMem_401aff)
  store %struct.Memory* %call_401aff, %struct.Memory** %MEMORY

  ; Code: jmpq .L_4018e6	 RIP: 401b02	 Bytes: 5
  %loadMem_401b02 = load %struct.Memory*, %struct.Memory** %MEMORY
  %call_401b02 = call %struct.Memory* @routine_jmpq_.L_4018e6(%struct.State* %0, i64  0, %struct.Memory* %loadMem_401b02, i64 -540, i64 5)
  store %struct.Memory* %call_401b02, %struct.Memory** %MEMORY

  br label %block_.L_4018e6

  ; Code: .L_401b07:	 RIP: 401b07	 Bytes: 0
block_.L_401b07:

  ; Code: jmpq .L_401bf4	 RIP: 401b07	 Bytes: 5
  %loadMem_401b07 = load %struct.Memory*, %struct.Memory** %MEMORY
  %call_401b07 = call %struct.Memory* @routine_jmpq_.L_401bf4(%struct.State* %0, i64  0, %struct.Memory* %loadMem_401b07, i64 237, i64 5)
  store %struct.Memory* %call_401b07, %struct.Memory** %MEMORY

  br label %block_.L_401bf4

  ; Code: .L_401b0c:	 RIP: 401b0c	 Bytes: 0
block_.L_401b0c:

  ; Code: movl $0x0, -0x1c(%rbp)	 RIP: 401b0c	 Bytes: 7
  %loadMem_401b0c = load %struct.Memory*, %struct.Memory** %MEMORY
  %call_401b0c = call %struct.Memory* @routine_movl__0x0__MINUS0x1c__rbp_(%struct.State* %0, i64  0, %struct.Memory* %loadMem_401b0c)
  store %struct.Memory* %call_401b0c, %struct.Memory** %MEMORY

  ; Code: .L_401b13:	 RIP: 401b13	 Bytes: 0
  br label %block_.L_401b13
block_.L_401b13:

  ; Code: movl -0x1c(%rbp), %eax	 RIP: 401b13	 Bytes: 3
  %loadMem_401b13 = load %struct.Memory*, %struct.Memory** %MEMORY
  %call_401b13 = call %struct.Memory* @routine_movl_MINUS0x1c__rbp____eax(%struct.State* %0, i64  0, %struct.Memory* %loadMem_401b13)
  store %struct.Memory* %call_401b13, %struct.Memory** %MEMORY

  ; Code: cmpl -0x2c(%rbp), %eax	 RIP: 401b16	 Bytes: 3
  %loadMem_401b16 = load %struct.Memory*, %struct.Memory** %MEMORY
  %call_401b16 = call %struct.Memory* @routine_cmpl_MINUS0x2c__rbp____eax(%struct.State* %0, i64  0, %struct.Memory* %loadMem_401b16)
  store %struct.Memory* %call_401b16, %struct.Memory** %MEMORY

  ; Code: jge .L_401bef	 RIP: 401b19	 Bytes: 6
  %loadMem_401b19 = load %struct.Memory*, %struct.Memory** %MEMORY
  %call_401b19 = call %struct.Memory* @routine_jge_.L_401bef(%struct.State* %0, i64  0, %struct.Memory* %loadMem_401b19, i8* %BRANCH_TAKEN, i64 214, i64 6, i64 6)
  store %struct.Memory* %call_401b19, %struct.Memory** %MEMORY

  %loadBr_401b19 = load i8, i8* %BRANCH_TAKEN
  %cmpBr_401b19 = icmp eq i8 %loadBr_401b19, 1
  br i1 %cmpBr_401b19, label %block_.L_401bef, label %block_401b1f

block_401b1f:
  ; Code: movl -0x1c(%rbp), %eax	 RIP: 401b1f	 Bytes: 3
  %loadMem_401b1f = load %struct.Memory*, %struct.Memory** %MEMORY
  %call_401b1f = call %struct.Memory* @routine_movl_MINUS0x1c__rbp____eax(%struct.State* %0, i64  0, %struct.Memory* %loadMem_401b1f)
  store %struct.Memory* %call_401b1f, %struct.Memory** %MEMORY

  ; Code: addl -0x2c(%rbp), %eax	 RIP: 401b22	 Bytes: 3
  %loadMem_401b22 = load %struct.Memory*, %struct.Memory** %MEMORY
  %call_401b22 = call %struct.Memory* @routine_addl_MINUS0x2c__rbp____eax(%struct.State* %0, i64  0, %struct.Memory* %loadMem_401b22)
  store %struct.Memory* %call_401b22, %struct.Memory** %MEMORY

  ; Code: movl %eax, -0x20(%rbp)	 RIP: 401b25	 Bytes: 3
  %loadMem_401b25 = load %struct.Memory*, %struct.Memory** %MEMORY
  %call_401b25 = call %struct.Memory* @routine_movl__eax__MINUS0x20__rbp_(%struct.State* %0, i64  0, %struct.Memory* %loadMem_401b25)
  store %struct.Memory* %call_401b25, %struct.Memory** %MEMORY

  ; Code: movq -0x10(%rbp), %rcx	 RIP: 401b28	 Bytes: 4
  %loadMem_401b28 = load %struct.Memory*, %struct.Memory** %MEMORY
  %call_401b28 = call %struct.Memory* @routine_movq_MINUS0x10__rbp____rcx(%struct.State* %0, i64  0, %struct.Memory* %loadMem_401b28)
  store %struct.Memory* %call_401b28, %struct.Memory** %MEMORY

  ; Code: movslq -0x1c(%rbp), %rdx	 RIP: 401b2c	 Bytes: 4
  %loadMem_401b2c = load %struct.Memory*, %struct.Memory** %MEMORY
  %call_401b2c = call %struct.Memory* @routine_movslq_MINUS0x1c__rbp____rdx(%struct.State* %0, i64  0, %struct.Memory* %loadMem_401b2c)
  store %struct.Memory* %call_401b2c, %struct.Memory** %MEMORY

  ; Code: movsd (%rcx,%rdx,8), %xmm0	 RIP: 401b30	 Bytes: 5
  %loadMem_401b30 = load %struct.Memory*, %struct.Memory** %MEMORY
  %call_401b30 = call %struct.Memory* @routine_movsd___rcx__rdx_8____xmm0(%struct.State* %0, i64  0, %struct.Memory* %loadMem_401b30)
  store %struct.Memory* %call_401b30, %struct.Memory** %MEMORY

  ; Code: movq -0x10(%rbp), %rcx	 RIP: 401b35	 Bytes: 4
  %loadMem_401b35 = load %struct.Memory*, %struct.Memory** %MEMORY
  %call_401b35 = call %struct.Memory* @routine_movq_MINUS0x10__rbp____rcx(%struct.State* %0, i64  0, %struct.Memory* %loadMem_401b35)
  store %struct.Memory* %call_401b35, %struct.Memory** %MEMORY

  ; Code: movslq -0x20(%rbp), %rdx	 RIP: 401b39	 Bytes: 4
  %loadMem_401b39 = load %struct.Memory*, %struct.Memory** %MEMORY
  %call_401b39 = call %struct.Memory* @routine_movslq_MINUS0x20__rbp____rdx(%struct.State* %0, i64  0, %struct.Memory* %loadMem_401b39)
  store %struct.Memory* %call_401b39, %struct.Memory** %MEMORY

  ; Code: subsd (%rcx,%rdx,8), %xmm0	 RIP: 401b3d	 Bytes: 5
  %loadMem_401b3d = load %struct.Memory*, %struct.Memory** %MEMORY
  %call_401b3d = call %struct.Memory* @routine_subsd___rcx__rdx_8____xmm0(%struct.State* %0, i64  0, %struct.Memory* %loadMem_401b3d)
  store %struct.Memory* %call_401b3d, %struct.Memory** %MEMORY

  ; Code: movsd %xmm0, -0x38(%rbp)	 RIP: 401b42	 Bytes: 5
  %loadMem_401b42 = load %struct.Memory*, %struct.Memory** %MEMORY
  %call_401b42 = call %struct.Memory* @routine_movsd__xmm0__MINUS0x38__rbp_(%struct.State* %0, i64  0, %struct.Memory* %loadMem_401b42)
  store %struct.Memory* %call_401b42, %struct.Memory** %MEMORY

  ; Code: movq -0x10(%rbp), %rcx	 RIP: 401b47	 Bytes: 4
  %loadMem_401b47 = load %struct.Memory*, %struct.Memory** %MEMORY
  %call_401b47 = call %struct.Memory* @routine_movq_MINUS0x10__rbp____rcx(%struct.State* %0, i64  0, %struct.Memory* %loadMem_401b47)
  store %struct.Memory* %call_401b47, %struct.Memory** %MEMORY

  ; Code: movl -0x1c(%rbp), %eax	 RIP: 401b4b	 Bytes: 3
  %loadMem_401b4b = load %struct.Memory*, %struct.Memory** %MEMORY
  %call_401b4b = call %struct.Memory* @routine_movl_MINUS0x1c__rbp____eax(%struct.State* %0, i64  0, %struct.Memory* %loadMem_401b4b)
  store %struct.Memory* %call_401b4b, %struct.Memory** %MEMORY

  ; Code: addl $0x1, %eax	 RIP: 401b4e	 Bytes: 3
  %loadMem_401b4e = load %struct.Memory*, %struct.Memory** %MEMORY
  %call_401b4e = call %struct.Memory* @routine_addl__0x1___eax(%struct.State* %0, i64  0, %struct.Memory* %loadMem_401b4e)
  store %struct.Memory* %call_401b4e, %struct.Memory** %MEMORY

  ; Code: movslq %eax, %rdx	 RIP: 401b51	 Bytes: 3
  %loadMem_401b51 = load %struct.Memory*, %struct.Memory** %MEMORY
  %call_401b51 = call %struct.Memory* @routine_movslq__eax___rdx(%struct.State* %0, i64  0, %struct.Memory* %loadMem_401b51)
  store %struct.Memory* %call_401b51, %struct.Memory** %MEMORY

  ; Code: movsd (%rcx,%rdx,8), %xmm0	 RIP: 401b54	 Bytes: 5
  %loadMem_401b54 = load %struct.Memory*, %struct.Memory** %MEMORY
  %call_401b54 = call %struct.Memory* @routine_movsd___rcx__rdx_8____xmm0(%struct.State* %0, i64  0, %struct.Memory* %loadMem_401b54)
  store %struct.Memory* %call_401b54, %struct.Memory** %MEMORY

  ; Code: movq -0x10(%rbp), %rcx	 RIP: 401b59	 Bytes: 4
  %loadMem_401b59 = load %struct.Memory*, %struct.Memory** %MEMORY
  %call_401b59 = call %struct.Memory* @routine_movq_MINUS0x10__rbp____rcx(%struct.State* %0, i64  0, %struct.Memory* %loadMem_401b59)
  store %struct.Memory* %call_401b59, %struct.Memory** %MEMORY

  ; Code: movl -0x20(%rbp), %eax	 RIP: 401b5d	 Bytes: 3
  %loadMem_401b5d = load %struct.Memory*, %struct.Memory** %MEMORY
  %call_401b5d = call %struct.Memory* @routine_movl_MINUS0x20__rbp____eax(%struct.State* %0, i64  0, %struct.Memory* %loadMem_401b5d)
  store %struct.Memory* %call_401b5d, %struct.Memory** %MEMORY

  ; Code: addl $0x1, %eax	 RIP: 401b60	 Bytes: 3
  %loadMem_401b60 = load %struct.Memory*, %struct.Memory** %MEMORY
  %call_401b60 = call %struct.Memory* @routine_addl__0x1___eax(%struct.State* %0, i64  0, %struct.Memory* %loadMem_401b60)
  store %struct.Memory* %call_401b60, %struct.Memory** %MEMORY

  ; Code: movslq %eax, %rdx	 RIP: 401b63	 Bytes: 3
  %loadMem_401b63 = load %struct.Memory*, %struct.Memory** %MEMORY
  %call_401b63 = call %struct.Memory* @routine_movslq__eax___rdx(%struct.State* %0, i64  0, %struct.Memory* %loadMem_401b63)
  store %struct.Memory* %call_401b63, %struct.Memory** %MEMORY

  ; Code: subsd (%rcx,%rdx,8), %xmm0	 RIP: 401b66	 Bytes: 5
  %loadMem_401b66 = load %struct.Memory*, %struct.Memory** %MEMORY
  %call_401b66 = call %struct.Memory* @routine_subsd___rcx__rdx_8____xmm0(%struct.State* %0, i64  0, %struct.Memory* %loadMem_401b66)
  store %struct.Memory* %call_401b66, %struct.Memory** %MEMORY

  ; Code: movsd %xmm0, -0x40(%rbp)	 RIP: 401b6b	 Bytes: 5
  %loadMem_401b6b = load %struct.Memory*, %struct.Memory** %MEMORY
  %call_401b6b = call %struct.Memory* @routine_movsd__xmm0__MINUS0x40__rbp_(%struct.State* %0, i64  0, %struct.Memory* %loadMem_401b6b)
  store %struct.Memory* %call_401b6b, %struct.Memory** %MEMORY

  ; Code: movq -0x10(%rbp), %rcx	 RIP: 401b70	 Bytes: 4
  %loadMem_401b70 = load %struct.Memory*, %struct.Memory** %MEMORY
  %call_401b70 = call %struct.Memory* @routine_movq_MINUS0x10__rbp____rcx(%struct.State* %0, i64  0, %struct.Memory* %loadMem_401b70)
  store %struct.Memory* %call_401b70, %struct.Memory** %MEMORY

  ; Code: movslq -0x20(%rbp), %rdx	 RIP: 401b74	 Bytes: 4
  %loadMem_401b74 = load %struct.Memory*, %struct.Memory** %MEMORY
  %call_401b74 = call %struct.Memory* @routine_movslq_MINUS0x20__rbp____rdx(%struct.State* %0, i64  0, %struct.Memory* %loadMem_401b74)
  store %struct.Memory* %call_401b74, %struct.Memory** %MEMORY

  ; Code: movsd (%rcx,%rdx,8), %xmm0	 RIP: 401b78	 Bytes: 5
  %loadMem_401b78 = load %struct.Memory*, %struct.Memory** %MEMORY
  %call_401b78 = call %struct.Memory* @routine_movsd___rcx__rdx_8____xmm0(%struct.State* %0, i64  0, %struct.Memory* %loadMem_401b78)
  store %struct.Memory* %call_401b78, %struct.Memory** %MEMORY

  ; Code: movq -0x10(%rbp), %rcx	 RIP: 401b7d	 Bytes: 4
  %loadMem_401b7d = load %struct.Memory*, %struct.Memory** %MEMORY
  %call_401b7d = call %struct.Memory* @routine_movq_MINUS0x10__rbp____rcx(%struct.State* %0, i64  0, %struct.Memory* %loadMem_401b7d)
  store %struct.Memory* %call_401b7d, %struct.Memory** %MEMORY

  ; Code: movslq -0x1c(%rbp), %rdx	 RIP: 401b81	 Bytes: 4
  %loadMem_401b81 = load %struct.Memory*, %struct.Memory** %MEMORY
  %call_401b81 = call %struct.Memory* @routine_movslq_MINUS0x1c__rbp____rdx(%struct.State* %0, i64  0, %struct.Memory* %loadMem_401b81)
  store %struct.Memory* %call_401b81, %struct.Memory** %MEMORY

  ; Code: addsd (%rcx,%rdx,8), %xmm0	 RIP: 401b85	 Bytes: 5
  %loadMem_401b85 = load %struct.Memory*, %struct.Memory** %MEMORY
  %call_401b85 = call %struct.Memory* @routine_addsd___rcx__rdx_8____xmm0(%struct.State* %0, i64  0, %struct.Memory* %loadMem_401b85)
  store %struct.Memory* %call_401b85, %struct.Memory** %MEMORY

  ; Code: movsd %xmm0, (%rcx,%rdx,8)	 RIP: 401b8a	 Bytes: 5
  %loadMem_401b8a = load %struct.Memory*, %struct.Memory** %MEMORY
  %call_401b8a = call %struct.Memory* @routine_movsd__xmm0____rcx__rdx_8_(%struct.State* %0, i64  0, %struct.Memory* %loadMem_401b8a)
  store %struct.Memory* %call_401b8a, %struct.Memory** %MEMORY

  ; Code: movq -0x10(%rbp), %rcx	 RIP: 401b8f	 Bytes: 4
  %loadMem_401b8f = load %struct.Memory*, %struct.Memory** %MEMORY
  %call_401b8f = call %struct.Memory* @routine_movq_MINUS0x10__rbp____rcx(%struct.State* %0, i64  0, %struct.Memory* %loadMem_401b8f)
  store %struct.Memory* %call_401b8f, %struct.Memory** %MEMORY

  ; Code: movl -0x20(%rbp), %eax	 RIP: 401b93	 Bytes: 3
  %loadMem_401b93 = load %struct.Memory*, %struct.Memory** %MEMORY
  %call_401b93 = call %struct.Memory* @routine_movl_MINUS0x20__rbp____eax(%struct.State* %0, i64  0, %struct.Memory* %loadMem_401b93)
  store %struct.Memory* %call_401b93, %struct.Memory** %MEMORY

  ; Code: addl $0x1, %eax	 RIP: 401b96	 Bytes: 3
  %loadMem_401b96 = load %struct.Memory*, %struct.Memory** %MEMORY
  %call_401b96 = call %struct.Memory* @routine_addl__0x1___eax(%struct.State* %0, i64  0, %struct.Memory* %loadMem_401b96)
  store %struct.Memory* %call_401b96, %struct.Memory** %MEMORY

  ; Code: movslq %eax, %rdx	 RIP: 401b99	 Bytes: 3
  %loadMem_401b99 = load %struct.Memory*, %struct.Memory** %MEMORY
  %call_401b99 = call %struct.Memory* @routine_movslq__eax___rdx(%struct.State* %0, i64  0, %struct.Memory* %loadMem_401b99)
  store %struct.Memory* %call_401b99, %struct.Memory** %MEMORY

  ; Code: movsd (%rcx,%rdx,8), %xmm0	 RIP: 401b9c	 Bytes: 5
  %loadMem_401b9c = load %struct.Memory*, %struct.Memory** %MEMORY
  %call_401b9c = call %struct.Memory* @routine_movsd___rcx__rdx_8____xmm0(%struct.State* %0, i64  0, %struct.Memory* %loadMem_401b9c)
  store %struct.Memory* %call_401b9c, %struct.Memory** %MEMORY

  ; Code: movq -0x10(%rbp), %rcx	 RIP: 401ba1	 Bytes: 4
  %loadMem_401ba1 = load %struct.Memory*, %struct.Memory** %MEMORY
  %call_401ba1 = call %struct.Memory* @routine_movq_MINUS0x10__rbp____rcx(%struct.State* %0, i64  0, %struct.Memory* %loadMem_401ba1)
  store %struct.Memory* %call_401ba1, %struct.Memory** %MEMORY

  ; Code: movl -0x1c(%rbp), %eax	 RIP: 401ba5	 Bytes: 3
  %loadMem_401ba5 = load %struct.Memory*, %struct.Memory** %MEMORY
  %call_401ba5 = call %struct.Memory* @routine_movl_MINUS0x1c__rbp____eax(%struct.State* %0, i64  0, %struct.Memory* %loadMem_401ba5)
  store %struct.Memory* %call_401ba5, %struct.Memory** %MEMORY

  ; Code: addl $0x1, %eax	 RIP: 401ba8	 Bytes: 3
  %loadMem_401ba8 = load %struct.Memory*, %struct.Memory** %MEMORY
  %call_401ba8 = call %struct.Memory* @routine_addl__0x1___eax(%struct.State* %0, i64  0, %struct.Memory* %loadMem_401ba8)
  store %struct.Memory* %call_401ba8, %struct.Memory** %MEMORY

  ; Code: movslq %eax, %rdx	 RIP: 401bab	 Bytes: 3
  %loadMem_401bab = load %struct.Memory*, %struct.Memory** %MEMORY
  %call_401bab = call %struct.Memory* @routine_movslq__eax___rdx(%struct.State* %0, i64  0, %struct.Memory* %loadMem_401bab)
  store %struct.Memory* %call_401bab, %struct.Memory** %MEMORY

  ; Code: addsd (%rcx,%rdx,8), %xmm0	 RIP: 401bae	 Bytes: 5
  %loadMem_401bae = load %struct.Memory*, %struct.Memory** %MEMORY
  %call_401bae = call %struct.Memory* @routine_addsd___rcx__rdx_8____xmm0(%struct.State* %0, i64  0, %struct.Memory* %loadMem_401bae)
  store %struct.Memory* %call_401bae, %struct.Memory** %MEMORY

  ; Code: movsd %xmm0, (%rcx,%rdx,8)	 RIP: 401bb3	 Bytes: 5
  %loadMem_401bb3 = load %struct.Memory*, %struct.Memory** %MEMORY
  %call_401bb3 = call %struct.Memory* @routine_movsd__xmm0____rcx__rdx_8_(%struct.State* %0, i64  0, %struct.Memory* %loadMem_401bb3)
  store %struct.Memory* %call_401bb3, %struct.Memory** %MEMORY

  ; Code: movsd -0x38(%rbp), %xmm0	 RIP: 401bb8	 Bytes: 5
  %loadMem_401bb8 = load %struct.Memory*, %struct.Memory** %MEMORY
  %call_401bb8 = call %struct.Memory* @routine_movsd_MINUS0x38__rbp____xmm0(%struct.State* %0, i64  0, %struct.Memory* %loadMem_401bb8)
  store %struct.Memory* %call_401bb8, %struct.Memory** %MEMORY

  ; Code: movq -0x10(%rbp), %rcx	 RIP: 401bbd	 Bytes: 4
  %loadMem_401bbd = load %struct.Memory*, %struct.Memory** %MEMORY
  %call_401bbd = call %struct.Memory* @routine_movq_MINUS0x10__rbp____rcx(%struct.State* %0, i64  0, %struct.Memory* %loadMem_401bbd)
  store %struct.Memory* %call_401bbd, %struct.Memory** %MEMORY

  ; Code: movslq -0x20(%rbp), %rdx	 RIP: 401bc1	 Bytes: 4
  %loadMem_401bc1 = load %struct.Memory*, %struct.Memory** %MEMORY
  %call_401bc1 = call %struct.Memory* @routine_movslq_MINUS0x20__rbp____rdx(%struct.State* %0, i64  0, %struct.Memory* %loadMem_401bc1)
  store %struct.Memory* %call_401bc1, %struct.Memory** %MEMORY

  ; Code: movsd %xmm0, (%rcx,%rdx,8)	 RIP: 401bc5	 Bytes: 5
  %loadMem_401bc5 = load %struct.Memory*, %struct.Memory** %MEMORY
  %call_401bc5 = call %struct.Memory* @routine_movsd__xmm0____rcx__rdx_8_(%struct.State* %0, i64  0, %struct.Memory* %loadMem_401bc5)
  store %struct.Memory* %call_401bc5, %struct.Memory** %MEMORY

  ; Code: movsd -0x40(%rbp), %xmm0	 RIP: 401bca	 Bytes: 5
  %loadMem_401bca = load %struct.Memory*, %struct.Memory** %MEMORY
  %call_401bca = call %struct.Memory* @routine_movsd_MINUS0x40__rbp____xmm0(%struct.State* %0, i64  0, %struct.Memory* %loadMem_401bca)
  store %struct.Memory* %call_401bca, %struct.Memory** %MEMORY

  ; Code: movq -0x10(%rbp), %rcx	 RIP: 401bcf	 Bytes: 4
  %loadMem_401bcf = load %struct.Memory*, %struct.Memory** %MEMORY
  %call_401bcf = call %struct.Memory* @routine_movq_MINUS0x10__rbp____rcx(%struct.State* %0, i64  0, %struct.Memory* %loadMem_401bcf)
  store %struct.Memory* %call_401bcf, %struct.Memory** %MEMORY

  ; Code: movl -0x20(%rbp), %eax	 RIP: 401bd3	 Bytes: 3
  %loadMem_401bd3 = load %struct.Memory*, %struct.Memory** %MEMORY
  %call_401bd3 = call %struct.Memory* @routine_movl_MINUS0x20__rbp____eax(%struct.State* %0, i64  0, %struct.Memory* %loadMem_401bd3)
  store %struct.Memory* %call_401bd3, %struct.Memory** %MEMORY

  ; Code: addl $0x1, %eax	 RIP: 401bd6	 Bytes: 3
  %loadMem_401bd6 = load %struct.Memory*, %struct.Memory** %MEMORY
  %call_401bd6 = call %struct.Memory* @routine_addl__0x1___eax(%struct.State* %0, i64  0, %struct.Memory* %loadMem_401bd6)
  store %struct.Memory* %call_401bd6, %struct.Memory** %MEMORY

  ; Code: movslq %eax, %rdx	 RIP: 401bd9	 Bytes: 3
  %loadMem_401bd9 = load %struct.Memory*, %struct.Memory** %MEMORY
  %call_401bd9 = call %struct.Memory* @routine_movslq__eax___rdx(%struct.State* %0, i64  0, %struct.Memory* %loadMem_401bd9)
  store %struct.Memory* %call_401bd9, %struct.Memory** %MEMORY

  ; Code: movsd %xmm0, (%rcx,%rdx,8)	 RIP: 401bdc	 Bytes: 5
  %loadMem_401bdc = load %struct.Memory*, %struct.Memory** %MEMORY
  %call_401bdc = call %struct.Memory* @routine_movsd__xmm0____rcx__rdx_8_(%struct.State* %0, i64  0, %struct.Memory* %loadMem_401bdc)
  store %struct.Memory* %call_401bdc, %struct.Memory** %MEMORY

  ; Code: movl -0x1c(%rbp), %eax	 RIP: 401be1	 Bytes: 3
  %loadMem_401be1 = load %struct.Memory*, %struct.Memory** %MEMORY
  %call_401be1 = call %struct.Memory* @routine_movl_MINUS0x1c__rbp____eax(%struct.State* %0, i64  0, %struct.Memory* %loadMem_401be1)
  store %struct.Memory* %call_401be1, %struct.Memory** %MEMORY

  ; Code: addl $0x2, %eax	 RIP: 401be4	 Bytes: 3
  %loadMem_401be4 = load %struct.Memory*, %struct.Memory** %MEMORY
  %call_401be4 = call %struct.Memory* @routine_addl__0x2___eax(%struct.State* %0, i64  0, %struct.Memory* %loadMem_401be4)
  store %struct.Memory* %call_401be4, %struct.Memory** %MEMORY

  ; Code: movl %eax, -0x1c(%rbp)	 RIP: 401be7	 Bytes: 3
  %loadMem_401be7 = load %struct.Memory*, %struct.Memory** %MEMORY
  %call_401be7 = call %struct.Memory* @routine_movl__eax__MINUS0x1c__rbp_(%struct.State* %0, i64  0, %struct.Memory* %loadMem_401be7)
  store %struct.Memory* %call_401be7, %struct.Memory** %MEMORY

  ; Code: jmpq .L_401b13	 RIP: 401bea	 Bytes: 5
  %loadMem_401bea = load %struct.Memory*, %struct.Memory** %MEMORY
  %call_401bea = call %struct.Memory* @routine_jmpq_.L_401b13(%struct.State* %0, i64  0, %struct.Memory* %loadMem_401bea, i64 -215, i64 5)
  store %struct.Memory* %call_401bea, %struct.Memory** %MEMORY

  br label %block_.L_401b13

  ; Code: .L_401bef:	 RIP: 401bef	 Bytes: 0
block_.L_401bef:

  ; Code: jmpq .L_401bf4	 RIP: 401bef	 Bytes: 5
  %loadMem_401bef = load %struct.Memory*, %struct.Memory** %MEMORY
  %call_401bef = call %struct.Memory* @routine_jmpq_.L_401bf4(%struct.State* %0, i64  0, %struct.Memory* %loadMem_401bef, i64 5, i64 5)
  store %struct.Memory* %call_401bef, %struct.Memory** %MEMORY

  br label %block_.L_401bf4

  ; Code: .L_401bf4:	 RIP: 401bf4	 Bytes: 0
block_.L_401bf4:

  ; Code: addq $0x70, %rsp	 RIP: 401bf4	 Bytes: 4
  %loadMem_401bf4 = load %struct.Memory*, %struct.Memory** %MEMORY
  %call_401bf4 = call %struct.Memory* @routine_addq__0x70___rsp(%struct.State* %0, i64  0, %struct.Memory* %loadMem_401bf4)
  store %struct.Memory* %call_401bf4, %struct.Memory** %MEMORY

  ; Code: popq %rbp	 RIP: 401bf8	 Bytes: 1
  %loadMem_401bf8 = load %struct.Memory*, %struct.Memory** %MEMORY
  %call_401bf8 = call %struct.Memory* @routine_popq__rbp(%struct.State* %0, i64  0, %struct.Memory* %loadMem_401bf8)
  store %struct.Memory* %call_401bf8, %struct.Memory** %MEMORY

  ; Code: retq	 RIP: 401bf9	 Bytes: 1
  %loadMem_401bf9 = load %struct.Memory*, %struct.Memory** %MEMORY
  %call_401bf9 = call %struct.Memory* @routine_retq(%struct.State* %0, i64  0, %struct.Memory* %loadMem_401bf9)
  store %struct.Memory* %call_401bf9, %struct.Memory** %MEMORY

  ret %struct.Memory* %call_401bf9
}

define internal %struct.Memory* @_ZN12_GLOBAL__N_1L4PUSHI2InImEEEP6MemoryS4_R5StateT_(%struct.Memory*, %struct.State* nocapture dereferenceable(3376), i64) #0 {
  %4 = getelementptr inbounds %struct.State, %struct.State* %1, i64 0, i32 6, i32 13, i32 0, i32 0
  %5 = load i64, i64* %4, align 8
  %6 = add i64 %5, -8
  %7 = inttoptr i64 %6 to i64*
  store i64 %2, i64* %7
  store i64 %6, i64* %4, align 8
  ret %struct.Memory* %0
}

define %struct.Memory* @routine_pushq__rbp(%struct.State*  dereferenceable(3376), i64, %struct.Memory* ) #19 {
block_400488:
  %3 = getelementptr inbounds %struct.State, %struct.State* %0, i32 0, i32 6
  %4 = getelementptr inbounds %struct.GPR, %struct.GPR* %3, i32 0, i32 33
  %5 = getelementptr inbounds %struct.Reg, %struct.Reg* %4, i32 0, i32 0
  %PC = bitcast %union.anon* %5 to i64*
  %6 = getelementptr inbounds %struct.State, %struct.State* %0, i32 0, i32 6
  %7 = getelementptr inbounds %struct.GPR, %struct.GPR* %6, i32 0, i32 15
  %8 = getelementptr inbounds %struct.Reg, %struct.Reg* %7, i32 0, i32 0
  %RBP = bitcast %union.anon* %8 to i64*
  %9 = load i64, i64* %RBP
  %10 = load i64, i64* %PC
  %11 = add i64 %10, 1
  store i64 %11, i64* %PC
  %12 = call %struct.Memory* @_ZN12_GLOBAL__N_1L4PUSHI2InImEEEP6MemoryS4_R5StateT_(%struct.Memory* %2, %struct.State* %0, i64 %9)
  ret %struct.Memory* %12
}

define internal %struct.Memory* @_ZN12_GLOBAL__N_1L3MOVI3RnWImE2RnImEEEP6MemoryS6_R5StateT_T0_(%struct.Memory* readnone returned, %struct.State* nocapture readnone dereferenceable(3376), i64* nocapture, i64) #2 {
  store i64 %3, i64* %2, align 8
  ret %struct.Memory* %0
}

define %struct.Memory* @routine_movq__rsp___rbp(%struct.State*  dereferenceable(3376), i64, %struct.Memory* ) #19 {
block_400488:
  %3 = getelementptr inbounds %struct.State, %struct.State* %0, i32 0, i32 6
  %4 = getelementptr inbounds %struct.GPR, %struct.GPR* %3, i32 0, i32 33
  %5 = getelementptr inbounds %struct.Reg, %struct.Reg* %4, i32 0, i32 0
  %PC = bitcast %union.anon* %5 to i64*
  %6 = getelementptr inbounds %struct.State, %struct.State* %0, i32 0, i32 6
  %7 = getelementptr inbounds %struct.GPR, %struct.GPR* %6, i32 0, i32 13
  %8 = getelementptr inbounds %struct.Reg, %struct.Reg* %7, i32 0, i32 0
  %RSP = bitcast %union.anon* %8 to i64*
  %9 = getelementptr inbounds %struct.State, %struct.State* %0, i32 0, i32 6
  %10 = getelementptr inbounds %struct.GPR, %struct.GPR* %9, i32 0, i32 15
  %11 = getelementptr inbounds %struct.Reg, %struct.Reg* %10, i32 0, i32 0
  %RBP = bitcast %union.anon* %11 to i64*
  %12 = load i64, i64* %RSP
  %13 = load i64, i64* %PC
  %14 = add i64 %13, 3
  store i64 %14, i64* %PC
  %15 = call %struct.Memory* @_ZN12_GLOBAL__N_1L3MOVI3RnWImE2RnImEEEP6MemoryS6_R5StateT_T0_(%struct.Memory* %2, %struct.State* %0, i64* %RBP, i64 %12)
  ret %struct.Memory* %15
}

define internal %struct.Memory* @_ZN12_GLOBAL__N_1L3SUBI3RnWImE2RnImE2InImEEEP6MemoryS8_R5StateT_T0_T1_(%struct.Memory* readnone returned, %struct.State* nocapture dereferenceable(3376), i64* nocapture, i64, i64) #0 {
  %6 = sub i64 %3, %4
  store i64 %6, i64* %2, align 8
  %7 = icmp ult i64 %3, %4
  %8 = zext i1 %7 to i8
  %9 = getelementptr inbounds %struct.State, %struct.State* %1, i64 0, i32 2, i32 1
  store i8 %8, i8* %9, align 1
  %10 = trunc i64 %6 to i32
  %11 = and i32 %10, 255
  %12 = tail call i32 @llvm.ctpop.i32(i32 %11) #22
  %13 = trunc i32 %12 to i8
  %14 = and i8 %13, 1
  %15 = xor i8 %14, 1
  %16 = getelementptr inbounds %struct.State, %struct.State* %1, i64 0, i32 2, i32 3
  store i8 %15, i8* %16, align 1
  %17 = xor i64 %4, %3
  %18 = xor i64 %17, %6
  %19 = lshr i64 %18, 4
  %20 = trunc i64 %19 to i8
  %21 = and i8 %20, 1
  %22 = getelementptr inbounds %struct.State, %struct.State* %1, i64 0, i32 2, i32 5
  store i8 %21, i8* %22, align 1
  %23 = icmp eq i64 %6, 0
  %24 = zext i1 %23 to i8
  %25 = getelementptr inbounds %struct.State, %struct.State* %1, i64 0, i32 2, i32 7
  store i8 %24, i8* %25, align 1
  %26 = lshr i64 %6, 63
  %27 = trunc i64 %26 to i8
  %28 = getelementptr inbounds %struct.State, %struct.State* %1, i64 0, i32 2, i32 9
  store i8 %27, i8* %28, align 1
  %29 = lshr i64 %3, 63
  %30 = lshr i64 %4, 63
  %31 = xor i64 %30, %29
  %32 = xor i64 %26, %29
  %33 = add   i64 %32, %31
  %34 = icmp eq i64 %33, 2
  %35 = zext i1 %34 to i8
  %36 = getelementptr inbounds %struct.State, %struct.State* %1, i64 0, i32 2, i32 13
  store i8 %35, i8* %36, align 1
  ret %struct.Memory* %0
}

define %struct.Memory* @routine_subq__0x70___rsp(%struct.State*  dereferenceable(3376), i64, %struct.Memory* ) #19 {
block_400488:
  %3 = getelementptr inbounds %struct.State, %struct.State* %0, i32 0, i32 6
  %4 = getelementptr inbounds %struct.GPR, %struct.GPR* %3, i32 0, i32 33
  %5 = getelementptr inbounds %struct.Reg, %struct.Reg* %4, i32 0, i32 0
  %PC = bitcast %union.anon* %5 to i64*
  %6 = getelementptr inbounds %struct.State, %struct.State* %0, i32 0, i32 6
  %7 = getelementptr inbounds %struct.GPR, %struct.GPR* %6, i32 0, i32 13
  %8 = getelementptr inbounds %struct.Reg, %struct.Reg* %7, i32 0, i32 0
  %RSP = bitcast %union.anon* %8 to i64*
  %9 = load i64, i64* %RSP
  %10 = load i64, i64* %PC
  %11 = add i64 %10, 4
  store i64 %11, i64* %PC
  %12 = call %struct.Memory* @_ZN12_GLOBAL__N_1L3SUBI3RnWImE2RnImE2InImEEEP6MemoryS8_R5StateT_T0_T1_(%struct.Memory* %2, %struct.State* %0, i64* %RSP, i64 %9, i64 112)
  ret %struct.Memory* %12
}

define internal %struct.Memory* @_ZN12_GLOBAL__N_1L3MOVI3MnWIjE2RnIjEEEP6MemoryS6_R5StateT_T0_(%struct.Memory* readnone, %struct.State* nocapture readnone dereferenceable(3376), i64, i64) #8 {
  %5 = trunc i64 %3 to i32
  %6 = inttoptr i64 %2 to i32*
  store i32 %5, i32* %6
  ret %struct.Memory* %0
}

define %struct.Memory* @routine_movl__edi__MINUS0x4__rbp_(%struct.State*  dereferenceable(3376), i64, %struct.Memory* ) #19 {
block_400488:
  %3 = getelementptr inbounds %struct.State, %struct.State* %0, i32 0, i32 6
  %4 = getelementptr inbounds %struct.GPR, %struct.GPR* %3, i32 0, i32 33
  %5 = getelementptr inbounds %struct.Reg, %struct.Reg* %4, i32 0, i32 0
  %PC = bitcast %union.anon* %5 to i64*
  %6 = getelementptr inbounds %struct.State, %struct.State* %0, i32 0, i32 6
  %7 = getelementptr inbounds %struct.GPR, %struct.GPR* %6, i32 0, i32 11
  %8 = getelementptr inbounds %struct.Reg, %struct.Reg* %7, i32 0, i32 0
  %EDI = bitcast %union.anon* %8 to i32*
  %9 = getelementptr inbounds %struct.State, %struct.State* %0, i32 0, i32 6
  %10 = getelementptr inbounds %struct.GPR, %struct.GPR* %9, i32 0, i32 15
  %11 = getelementptr inbounds %struct.Reg, %struct.Reg* %10, i32 0, i32 0
  %RBP = bitcast %union.anon* %11 to i64*
  %12 = load i64, i64* %RBP
  %13 = sub i64 %12, 4
  %14 = load i32, i32* %EDI
  %15 = zext i32 %14 to i64
  %16 = load i64, i64* %PC
  %17 = add i64 %16, 3
  store i64 %17, i64* %PC
  %18 = call %struct.Memory* @_ZN12_GLOBAL__N_1L3MOVI3MnWIjE2RnIjEEEP6MemoryS6_R5StateT_T0_(%struct.Memory* %2, %struct.State* %0, i64 %13, i64 %15)
  ret %struct.Memory* %18
}

define internal %struct.Memory* @_ZN12_GLOBAL__N_1L3MOVI3MnWImE2RnImEEEP6MemoryS6_R5StateT_T0_(%struct.Memory* readnone, %struct.State* nocapture readnone dereferenceable(3376), i64, i64) #8 {
  %5 = inttoptr i64 %2 to i64*
  store i64 %3, i64* %5
  ret %struct.Memory* %0
}

define %struct.Memory* @routine_movq__rsi__MINUS0x10__rbp_(%struct.State*  dereferenceable(3376), i64, %struct.Memory* ) #19 {
block_400488:
  %3 = getelementptr inbounds %struct.State, %struct.State* %0, i32 0, i32 6
  %4 = getelementptr inbounds %struct.GPR, %struct.GPR* %3, i32 0, i32 33
  %5 = getelementptr inbounds %struct.Reg, %struct.Reg* %4, i32 0, i32 0
  %PC = bitcast %union.anon* %5 to i64*
  %6 = getelementptr inbounds %struct.State, %struct.State* %0, i32 0, i32 6
  %7 = getelementptr inbounds %struct.GPR, %struct.GPR* %6, i32 0, i32 9
  %8 = getelementptr inbounds %struct.Reg, %struct.Reg* %7, i32 0, i32 0
  %RSI = bitcast %union.anon* %8 to i64*
  %9 = getelementptr inbounds %struct.State, %struct.State* %0, i32 0, i32 6
  %10 = getelementptr inbounds %struct.GPR, %struct.GPR* %9, i32 0, i32 15
  %11 = getelementptr inbounds %struct.Reg, %struct.Reg* %10, i32 0, i32 0
  %RBP = bitcast %union.anon* %11 to i64*
  %12 = load i64, i64* %RBP
  %13 = sub i64 %12, 16
  %14 = load i64, i64* %RSI
  %15 = load i64, i64* %PC
  %16 = add i64 %15, 4
  store i64 %16, i64* %PC
  %17 = call %struct.Memory* @_ZN12_GLOBAL__N_1L3MOVI3MnWImE2RnImEEEP6MemoryS6_R5StateT_T0_(%struct.Memory* %2, %struct.State* %0, i64 %13, i64 %14)
  ret %struct.Memory* %17
}


define %struct.Memory* @routine_movq__rdx__MINUS0x18__rbp_(%struct.State*  dereferenceable(3376), i64, %struct.Memory* ) #19 {
block_400488:
  %3 = getelementptr inbounds %struct.State, %struct.State* %0, i32 0, i32 6
  %4 = getelementptr inbounds %struct.GPR, %struct.GPR* %3, i32 0, i32 33
  %5 = getelementptr inbounds %struct.Reg, %struct.Reg* %4, i32 0, i32 0
  %PC = bitcast %union.anon* %5 to i64*
  %6 = getelementptr inbounds %struct.State, %struct.State* %0, i32 0, i32 6
  %7 = getelementptr inbounds %struct.GPR, %struct.GPR* %6, i32 0, i32 7
  %8 = getelementptr inbounds %struct.Reg, %struct.Reg* %7, i32 0, i32 0
  %RDX = bitcast %union.anon* %8 to i64*
  %9 = getelementptr inbounds %struct.State, %struct.State* %0, i32 0, i32 6
  %10 = getelementptr inbounds %struct.GPR, %struct.GPR* %9, i32 0, i32 15
  %11 = getelementptr inbounds %struct.Reg, %struct.Reg* %10, i32 0, i32 0
  %RBP = bitcast %union.anon* %11 to i64*
  %12 = load i64, i64* %RBP
  %13 = sub i64 %12, 24
  %14 = load i64, i64* %RDX
  %15 = load i64, i64* %PC
  %16 = add i64 %15, 4
  store i64 %16, i64* %PC
  %17 = call %struct.Memory* @_ZN12_GLOBAL__N_1L3MOVI3MnWImE2RnImEEEP6MemoryS6_R5StateT_T0_(%struct.Memory* %2, %struct.State* %0, i64 %13, i64 %14)
  ret %struct.Memory* %17
}

define internal %struct.Memory* @_ZN12_GLOBAL__N_1L3CMPI2MnIjE2InIjEEEP6MemoryS6_R5StateT_T0_(%struct.Memory*, %struct.State* nocapture dereferenceable(3376), i64, i64) #0 {
  %5 = inttoptr i64 %2 to i32*
  %6 = load i32, i32* %5
  %7 = trunc i64 %3 to i32
  %8 = sub i32 %6, %7
  %9 = icmp ult i32 %6, %7
  %10 = zext i1 %9 to i8
  %11 = getelementptr inbounds %struct.State, %struct.State* %1, i64 0, i32 2, i32 1
  store i8 %10, i8* %11, align 1
  %12 = and i32 %8, 255
  %13 = tail call i32 @llvm.ctpop.i32(i32 %12) #22
  %14 = trunc i32 %13 to i8
  %15 = and i8 %14, 1
  %16 = xor i8 %15, 1
  %17 = getelementptr inbounds %struct.State, %struct.State* %1, i64 0, i32 2, i32 3
  store i8 %16, i8* %17, align 1
  %18 = xor i32 %6, %7
  %19 = xor i32 %18, %8
  %20 = lshr i32 %19, 4
  %21 = trunc i32 %20 to i8
  %22 = and i8 %21, 1
  %23 = getelementptr inbounds %struct.State, %struct.State* %1, i64 0, i32 2, i32 5
  store i8 %22, i8* %23, align 1
  %24 = icmp eq i32 %8, 0
  %25 = zext i1 %24 to i8
  %26 = getelementptr inbounds %struct.State, %struct.State* %1, i64 0, i32 2, i32 7
  store i8 %25, i8* %26, align 1
  %27 = lshr i32 %8, 31
  %28 = trunc i32 %27 to i8
  %29 = getelementptr inbounds %struct.State, %struct.State* %1, i64 0, i32 2, i32 9
  store i8 %28, i8* %29, align 1
  %30 = lshr i32 %6, 31
  %31 = lshr i32 %7, 31
  %32 = xor i32 %30, %31
  %33 = xor i32 %27, %30
  %34 = add   i32 %33, %32
  %35 = icmp eq i32 %34, 2
  %36 = zext i1 %35 to i8
  %37 = getelementptr inbounds %struct.State, %struct.State* %1, i64 0, i32 2, i32 13
  store i8 %36, i8* %37, align 1
  ret %struct.Memory* %0
}

define %struct.Memory* @routine_cmpl__0x8__MINUS0x4__rbp_(%struct.State*  dereferenceable(3376), i64, %struct.Memory* ) #19 {
block_400488:
  %3 = getelementptr inbounds %struct.State, %struct.State* %0, i32 0, i32 6
  %4 = getelementptr inbounds %struct.GPR, %struct.GPR* %3, i32 0, i32 33
  %5 = getelementptr inbounds %struct.Reg, %struct.Reg* %4, i32 0, i32 0
  %PC = bitcast %union.anon* %5 to i64*
  %6 = getelementptr inbounds %struct.State, %struct.State* %0, i32 0, i32 6
  %7 = getelementptr inbounds %struct.GPR, %struct.GPR* %6, i32 0, i32 15
  %8 = getelementptr inbounds %struct.Reg, %struct.Reg* %7, i32 0, i32 0
  %RBP = bitcast %union.anon* %8 to i64*
  %9 = load i64, i64* %RBP
  %10 = sub i64 %9, 4
  %11 = load i64, i64* %PC
  %12 = add i64 %11, 4
  store i64 %12, i64* %PC
  %13 = call %struct.Memory* @_ZN12_GLOBAL__N_1L3CMPI2MnIjE2InIjEEEP6MemoryS6_R5StateT_T0_(%struct.Memory* %2, %struct.State* %0, i64 %10, i64 8)
  ret %struct.Memory* %13
}

define internal %struct.Memory* @_ZN12_GLOBAL__N_1L3JLEEP6MemoryR5State3RnWIhE2InImES7_(%struct.Memory* readnone returned, %struct.State* nocapture dereferenceable(3376), i8* nocapture, i64, i64) #2 {
  %6 = getelementptr inbounds %struct.State, %struct.State* %1, i64 0, i32 2, i32 7
  %7 = load i8, i8* %6, align 1
  %8 = icmp ne i8 %7, 0
  %9 = getelementptr inbounds %struct.State, %struct.State* %1, i64 0, i32 2, i32 9
  %10 = load i8, i8* %9, align 1
  %11 = icmp ne i8 %10, 0
  %12 = getelementptr inbounds %struct.State, %struct.State* %1, i64 0, i32 2, i32 13
  %13 = load i8, i8* %12, align 1
  %14 = icmp ne i8 %13, 0
  %15 = xor i1 %11, %14
  %16 = or i1 %8, %15
  %17 = zext i1 %16 to i8
  store i8 %17, i8* %2, align 1
  %18 = getelementptr inbounds %struct.State, %struct.State* %1, i64 0, i32 6, i32 33, i32 0, i32 0
  %19 = select i1 %16, i64 %3, i64 %4
  store i64 %19, i64* %18, align 8
  ret %struct.Memory* %0
}

define %struct.Memory* @routine_jle_.L_4018d0(%struct.State*  dereferenceable(3376), i64, %struct.Memory*, i8* %BRANCH_TAKEN, i64 %rel_off1, i64 %rel_off2, i64 %rel_off3) {
block_400488:
  %3 = getelementptr inbounds %struct.State, %struct.State* %0, i32 0, i32 6
  %4 = getelementptr inbounds %struct.GPR, %struct.GPR* %3, i32 0, i32 33
  %5 = getelementptr inbounds %struct.Reg, %struct.Reg* %4, i32 0, i32 0
  %PC = bitcast %union.anon* %5 to i64*
  %6 = load i64, i64* %PC
  %7 = add i64 %6, %rel_off1
  %8 = load i64, i64* %PC
  %9 = add i64 %8, %rel_off2
  %10 = load i64, i64* %PC
  %11 = add i64 %10, %rel_off3
  store i64 %11, i64* %PC
  %12 = call %struct.Memory* @_ZN12_GLOBAL__N_1L3JLEEP6MemoryR5State3RnWIhE2InImES7_(%struct.Memory* %2, %struct.State* %0, i8* %BRANCH_TAKEN, i64 %7, i64 %9)
  ret %struct.Memory* %12
}

define internal %struct.Memory* @_ZN12_GLOBAL__N_1L3MOVI3RnWImE2MnIjEEEP6MemoryS6_R5StateT_T0_(%struct.Memory* returned, %struct.State* nocapture readnone dereferenceable(3376), i64* nocapture, i64) #0 {
  %5 = inttoptr i64 %3 to i32*
  %6 = load i32, i32* %5
  %7 = zext i32 %6 to i64
  store i64 %7, i64* %2, align 8
  ret %struct.Memory* %0
}

define %struct.Memory* @routine_movl_MINUS0x4__rbp____edi(%struct.State*  dereferenceable(3376), i64, %struct.Memory* ) #19 {
block_400488:
  %3 = getelementptr inbounds %struct.State, %struct.State* %0, i32 0, i32 6
  %4 = getelementptr inbounds %struct.GPR, %struct.GPR* %3, i32 0, i32 33
  %5 = getelementptr inbounds %struct.Reg, %struct.Reg* %4, i32 0, i32 0
  %PC = bitcast %union.anon* %5 to i64*
  %6 = getelementptr inbounds %struct.State, %struct.State* %0, i32 0, i32 6
  %7 = getelementptr inbounds %struct.GPR, %struct.GPR* %6, i32 0, i32 11
  %8 = getelementptr inbounds %struct.Reg, %struct.Reg* %7, i32 0, i32 0
  %RDI = bitcast %union.anon* %8 to i64*
  %9 = getelementptr inbounds %struct.State, %struct.State* %0, i32 0, i32 6
  %10 = getelementptr inbounds %struct.GPR, %struct.GPR* %9, i32 0, i32 15
  %11 = getelementptr inbounds %struct.Reg, %struct.Reg* %10, i32 0, i32 0
  %RBP = bitcast %union.anon* %11 to i64*
  %12 = load i64, i64* %RBP
  %13 = sub i64 %12, 4
  %14 = load i64, i64* %PC
  %15 = add i64 %14, 3
  store i64 %15, i64* %PC
  %16 = call %struct.Memory* @_ZN12_GLOBAL__N_1L3MOVI3RnWImE2MnIjEEEP6MemoryS6_R5StateT_T0_(%struct.Memory* %2, %struct.State* %0, i64* %RDI, i64 %13)
  ret %struct.Memory* %16
}

define internal %struct.Memory* @_ZN12_GLOBAL__N_1L3MOVI3RnWImE2MnImEEEP6MemoryS6_R5StateT_T0_(%struct.Memory* returned, %struct.State* nocapture readnone dereferenceable(3376), i64* nocapture, i64) #0 {
  %5 = inttoptr i64 %3 to i64*
  %6 = load i64, i64* %5
  store i64 %6, i64* %2, align 8
  ret %struct.Memory* %0
}

define %struct.Memory* @routine_movq_MINUS0x10__rbp____rsi(%struct.State*  dereferenceable(3376), i64, %struct.Memory* ) #19 {
block_400488:
  %3 = getelementptr inbounds %struct.State, %struct.State* %0, i32 0, i32 6
  %4 = getelementptr inbounds %struct.GPR, %struct.GPR* %3, i32 0, i32 33
  %5 = getelementptr inbounds %struct.Reg, %struct.Reg* %4, i32 0, i32 0
  %PC = bitcast %union.anon* %5 to i64*
  %6 = getelementptr inbounds %struct.State, %struct.State* %0, i32 0, i32 6
  %7 = getelementptr inbounds %struct.GPR, %struct.GPR* %6, i32 0, i32 9
  %8 = getelementptr inbounds %struct.Reg, %struct.Reg* %7, i32 0, i32 0
  %RSI = bitcast %union.anon* %8 to i64*
  %9 = getelementptr inbounds %struct.State, %struct.State* %0, i32 0, i32 6
  %10 = getelementptr inbounds %struct.GPR, %struct.GPR* %9, i32 0, i32 15
  %11 = getelementptr inbounds %struct.Reg, %struct.Reg* %10, i32 0, i32 0
  %RBP = bitcast %union.anon* %11 to i64*
  %12 = load i64, i64* %RBP
  %13 = sub i64 %12, 16
  %14 = load i64, i64* %PC
  %15 = add i64 %14, 4
  store i64 %15, i64* %PC
  %16 = call %struct.Memory* @_ZN12_GLOBAL__N_1L3MOVI3RnWImE2MnImEEEP6MemoryS6_R5StateT_T0_(%struct.Memory* %2, %struct.State* %0, i64* %RSI, i64 %13)
  ret %struct.Memory* %16
}


define %struct.Memory* @routine_movq_MINUS0x18__rbp____rdx(%struct.State*  dereferenceable(3376), i64, %struct.Memory* ) #19 {
block_400488:
  %3 = getelementptr inbounds %struct.State, %struct.State* %0, i32 0, i32 6
  %4 = getelementptr inbounds %struct.GPR, %struct.GPR* %3, i32 0, i32 33
  %5 = getelementptr inbounds %struct.Reg, %struct.Reg* %4, i32 0, i32 0
  %PC = bitcast %union.anon* %5 to i64*
  %6 = getelementptr inbounds %struct.State, %struct.State* %0, i32 0, i32 6
  %7 = getelementptr inbounds %struct.GPR, %struct.GPR* %6, i32 0, i32 7
  %8 = getelementptr inbounds %struct.Reg, %struct.Reg* %7, i32 0, i32 0
  %RDX = bitcast %union.anon* %8 to i64*
  %9 = getelementptr inbounds %struct.State, %struct.State* %0, i32 0, i32 6
  %10 = getelementptr inbounds %struct.GPR, %struct.GPR* %9, i32 0, i32 15
  %11 = getelementptr inbounds %struct.Reg, %struct.Reg* %10, i32 0, i32 0
  %RBP = bitcast %union.anon* %11 to i64*
  %12 = load i64, i64* %RBP
  %13 = sub i64 %12, 24
  %14 = load i64, i64* %PC
  %15 = add i64 %14, 4
  store i64 %15, i64* %PC
  %16 = call %struct.Memory* @_ZN12_GLOBAL__N_1L3MOVI3RnWImE2MnImEEEP6MemoryS6_R5StateT_T0_(%struct.Memory* %2, %struct.State* %0, i64* %RDX, i64 %13)
  ret %struct.Memory* %16
}

define internal %struct.Memory* @_ZN12_GLOBAL__N_1L4CALLI2InImEEEP6MemoryS4_R5StateT_S2_(%struct.Memory* readnone, %struct.State* nocapture dereferenceable(3376), i64, i64) #0 {
  %5 = getelementptr inbounds %struct.State, %struct.State* %1, i64 0, i32 6, i32 13, i32 0, i32 0
  %6 = load i64, i64* %5, align 8
  %7 = add i64 %6, -8
  %8 = inttoptr i64 %7 to i64*
  store i64 %3, i64* %8
  store i64 %7, i64* %5, align 8
  %9 = getelementptr inbounds %struct.State, %struct.State* %1, i64 0, i32 6, i32 33, i32 0, i32 0
  store i64 %2, i64* %9, align 8
  ret %struct.Memory* %0
}

define %struct.Memory* @routine_callq_.cft1st(%struct.State*  dereferenceable(3376), i64, %struct.Memory*, i64 %rel_off1, i64 %rel_off2, i64 %rel_off3) {
block_400488:
  %3 = getelementptr inbounds %struct.State, %struct.State* %0, i32 0, i32 6
  %4 = getelementptr inbounds %struct.GPR, %struct.GPR* %3, i32 0, i32 33
  %5 = getelementptr inbounds %struct.Reg, %struct.Reg* %4, i32 0, i32 0
  %PC = bitcast %union.anon* %5 to i64*
  %6 = load i64, i64* %PC
  %7 = add i64 %6, %rel_off1
  %8 = load i64, i64* %PC
  %9 = add i64 %8, %rel_off2
  %10 = load i64, i64* %PC
  %11 = add i64 %10, %rel_off3
  store i64 %11, i64* %PC
  %12 = call %struct.Memory* @_ZN12_GLOBAL__N_1L4CALLI2InImEEEP6MemoryS4_R5StateT_S2_(%struct.Memory* %2, %struct.State* %0, i64 %7, i64 %9)
  ret %struct.Memory* %12
}

define internal %struct.Memory* @_ZN12_GLOBAL__N_1L3MOVI3MnWIjE2InIjEEEP6MemoryS6_R5StateT_T0_(%struct.Memory* readnone, %struct.State* nocapture readnone dereferenceable(3376), i64, i64) #8 {
  %5 = trunc i64 %3 to i32
  %6 = inttoptr i64 %2 to i32*
  store i32 %5, i32* %6
  ret %struct.Memory* %0
}

define %struct.Memory* @routine_movl__0x8__MINUS0x2c__rbp_(%struct.State*  dereferenceable(3376), i64, %struct.Memory* ) #19 {
block_400488:
  %3 = getelementptr inbounds %struct.State, %struct.State* %0, i32 0, i32 6
  %4 = getelementptr inbounds %struct.GPR, %struct.GPR* %3, i32 0, i32 33
  %5 = getelementptr inbounds %struct.Reg, %struct.Reg* %4, i32 0, i32 0
  %PC = bitcast %union.anon* %5 to i64*
  %6 = getelementptr inbounds %struct.State, %struct.State* %0, i32 0, i32 6
  %7 = getelementptr inbounds %struct.GPR, %struct.GPR* %6, i32 0, i32 15
  %8 = getelementptr inbounds %struct.Reg, %struct.Reg* %7, i32 0, i32 0
  %RBP = bitcast %union.anon* %8 to i64*
  %9 = load i64, i64* %RBP
  %10 = sub i64 %9, 44
  %11 = load i64, i64* %PC
  %12 = add i64 %11, 7
  store i64 %12, i64* %PC
  %13 = call %struct.Memory* @_ZN12_GLOBAL__N_1L3MOVI3MnWIjE2InIjEEEP6MemoryS6_R5StateT_T0_(%struct.Memory* %2, %struct.State* %0, i64 %10, i64 8)
  ret %struct.Memory* %13
}


define %struct.Memory* @routine_movl_MINUS0x2c__rbp____eax(%struct.State*  dereferenceable(3376), i64, %struct.Memory* ) #19 {
block_400488:
  %3 = getelementptr inbounds %struct.State, %struct.State* %0, i32 0, i32 6
  %4 = getelementptr inbounds %struct.GPR, %struct.GPR* %3, i32 0, i32 33
  %5 = getelementptr inbounds %struct.Reg, %struct.Reg* %4, i32 0, i32 0
  %PC = bitcast %union.anon* %5 to i64*
  %6 = getelementptr inbounds %struct.State, %struct.State* %0, i32 0, i32 6
  %7 = getelementptr inbounds %struct.GPR, %struct.GPR* %6, i32 0, i32 1
  %8 = getelementptr inbounds %struct.Reg, %struct.Reg* %7, i32 0, i32 0
  %RAX = bitcast %union.anon* %8 to i64*
  %9 = getelementptr inbounds %struct.State, %struct.State* %0, i32 0, i32 6
  %10 = getelementptr inbounds %struct.GPR, %struct.GPR* %9, i32 0, i32 15
  %11 = getelementptr inbounds %struct.Reg, %struct.Reg* %10, i32 0, i32 0
  %RBP = bitcast %union.anon* %11 to i64*
  %12 = load i64, i64* %RBP
  %13 = sub i64 %12, 44
  %14 = load i64, i64* %PC
  %15 = add i64 %14, 3
  store i64 %15, i64* %PC
  %16 = call %struct.Memory* @_ZN12_GLOBAL__N_1L3MOVI3RnWImE2MnIjEEEP6MemoryS6_R5StateT_T0_(%struct.Memory* %2, %struct.State* %0, i64* %RAX, i64 %13)
  ret %struct.Memory* %16
}

define internal %struct.Memory* @_ZN12_GLOBAL__N_1L3SHLI3RnWImE2RnIjE2InIjEEEP6MemoryS8_R5StateT_T0_T1_(%struct.Memory* readnone, %struct.State* nocapture dereferenceable(3376), i64* nocapture, i64, i64) #0 {
  %6 = trunc i64 %4 to i5
  switch i5 %6, label %13 [
    i5 0, label %45
    i5 1, label %7
  ]

; <label>:7:                                      ; preds = %5
  %8 = trunc i64 %3 to i32
  %9 = shl i32 %8, 1
  %10 = icmp slt i32 %8, 0
  %11 = icmp slt i32 %9, 0
  %12 = xor i1 %10, %11
  br label %23

; <label>:13:                                     ; preds = %5
  %14 = and i64 %4, 31
  %15 = add   i64 %14, 4294967295
  %16 = and i64 %3, 4294967295
  %17 = and i64 %15, 4294967295
  %18 = shl i64 %16, %17
  %19 = trunc i64 %18 to i32
  %20 = icmp slt i32 %19, 0
  %21 = icmp ne i8 0, 0
  %22 = shl i32 %19, 1
  br label %23

; <label>:23:                                     ; preds = %13, %7
  %24 = phi i1 [ %10, %7 ], [ %20, %13 ]
  %25 = phi i1 [ %12, %7 ], [ %21, %13 ]
  %26 = phi i32 [ %9, %7 ], [ %22, %13 ]
  %27 = zext i32 %26 to i64
  store i64 %27, i64* %2, align 8
  %28 = getelementptr inbounds %struct.State, %struct.State* %1, i64 0, i32 2, i32 1
  %29 = zext i1 %24 to i8
  store i8 %29, i8* %28, align 1
  %30 = getelementptr inbounds %struct.State, %struct.State* %1, i64 0, i32 2, i32 3
  %31 = and i32 %26, 254
  %32 = tail call i32 @llvm.ctpop.i32(i32 %31) #22
  %33 = trunc i32 %32 to i8
  %34 = and i8 %33, 1
  %35 = xor i8 %34, 1
  store i8 %35, i8* %30, align 1
  %36 = getelementptr inbounds %struct.State, %struct.State* %1, i64 0, i32 2, i32 5
  store i8 0, i8* %36, align 1
  %37 = getelementptr inbounds %struct.State, %struct.State* %1, i64 0, i32 2, i32 7
  %38 = icmp eq i32 %26, 0
  %39 = zext i1 %38 to i8
  store i8 %39, i8* %37, align 1
  %40 = getelementptr inbounds %struct.State, %struct.State* %1, i64 0, i32 2, i32 9
  %41 = lshr i32 %26, 31
  %42 = trunc i32 %41 to i8
  store i8 %42, i8* %40, align 1
  %43 = getelementptr inbounds %struct.State, %struct.State* %1, i64 0, i32 2, i32 13
  %44 = zext i1 %25 to i8
  store i8 %44, i8* %43, align 1
  br label %45

; <label>:45:                                     ; preds = %23, %5
  ret %struct.Memory* %0
}

define %struct.Memory* @routine_shll__0x2___eax(%struct.State*  dereferenceable(3376), i64, %struct.Memory* ) #19 {
block_400488:
  %3 = getelementptr inbounds %struct.State, %struct.State* %0, i32 0, i32 6
  %4 = getelementptr inbounds %struct.GPR, %struct.GPR* %3, i32 0, i32 33
  %5 = getelementptr inbounds %struct.Reg, %struct.Reg* %4, i32 0, i32 0
  %PC = bitcast %union.anon* %5 to i64*
  %6 = getelementptr inbounds %struct.State, %struct.State* %0, i32 0, i32 6
  %7 = getelementptr inbounds %struct.GPR, %struct.GPR* %6, i32 0, i32 1
  %8 = getelementptr inbounds %struct.Reg, %struct.Reg* %7, i32 0, i32 0
  %RAX = bitcast %union.anon* %8 to i64*
  %9 = load i64, i64* %RAX
  %10 = load i64, i64* %PC
  %11 = add i64 %10, 3
  store i64 %11, i64* %PC
  %12 = call %struct.Memory* @_ZN12_GLOBAL__N_1L3SHLI3RnWImE2RnIjE2InIjEEEP6MemoryS8_R5StateT_T0_T1_(%struct.Memory* %2, %struct.State* %0, i64* %RAX, i64 %9, i64 2)
  ret %struct.Memory* %12
}

define internal %struct.Memory* @_ZN12_GLOBAL__N_1L3CMPI2RnIjE2MnIjEEEP6MemoryS6_R5StateT_T0_(%struct.Memory*, %struct.State* nocapture dereferenceable(3376), i64, i64) #0 {
  %5 = trunc i64 %2 to i32
  %6 = inttoptr i64 %3 to i32*
  %7 = load i32, i32* %6
  %8 = sub i32 %5, %7
  %9 = icmp ult i32 %5, %7
  %10 = zext i1 %9 to i8
  %11 = getelementptr inbounds %struct.State, %struct.State* %1, i64 0, i32 2, i32 1
  store i8 %10, i8* %11, align 1
  %12 = and i32 %8, 255
  %13 = tail call i32 @llvm.ctpop.i32(i32 %12) #22
  %14 = trunc i32 %13 to i8
  %15 = and i8 %14, 1
  %16 = xor i8 %15, 1
  %17 = getelementptr inbounds %struct.State, %struct.State* %1, i64 0, i32 2, i32 3
  store i8 %16, i8* %17, align 1
  %18 = xor i32 %7, %5
  %19 = xor i32 %18, %8
  %20 = lshr i32 %19, 4
  %21 = trunc i32 %20 to i8
  %22 = and i8 %21, 1
  %23 = getelementptr inbounds %struct.State, %struct.State* %1, i64 0, i32 2, i32 5
  store i8 %22, i8* %23, align 1
  %24 = icmp eq i32 %8, 0
  %25 = zext i1 %24 to i8
  %26 = getelementptr inbounds %struct.State, %struct.State* %1, i64 0, i32 2, i32 7
  store i8 %25, i8* %26, align 1
  %27 = lshr i32 %8, 31
  %28 = trunc i32 %27 to i8
  %29 = getelementptr inbounds %struct.State, %struct.State* %1, i64 0, i32 2, i32 9
  store i8 %28, i8* %29, align 1
  %30 = lshr i32 %5, 31
  %31 = lshr i32 %7, 31
  %32 = xor i32 %31, %30
  %33 = xor i32 %27, %30
  %34 = add   i32 %33, %32
  %35 = icmp eq i32 %34, 2
  %36 = zext i1 %35 to i8
  %37 = getelementptr inbounds %struct.State, %struct.State* %1, i64 0, i32 2, i32 13
  store i8 %36, i8* %37, align 1
  ret %struct.Memory* %0
}

define %struct.Memory* @routine_cmpl_MINUS0x4__rbp____eax(%struct.State*  dereferenceable(3376), i64, %struct.Memory* ) #19 {
block_400488:
  %3 = getelementptr inbounds %struct.State, %struct.State* %0, i32 0, i32 6
  %4 = getelementptr inbounds %struct.GPR, %struct.GPR* %3, i32 0, i32 33
  %5 = getelementptr inbounds %struct.Reg, %struct.Reg* %4, i32 0, i32 0
  %PC = bitcast %union.anon* %5 to i64*
  %6 = getelementptr inbounds %struct.State, %struct.State* %0, i32 0, i32 6
  %7 = getelementptr inbounds %struct.GPR, %struct.GPR* %6, i32 0, i32 1
  %8 = getelementptr inbounds %struct.Reg, %struct.Reg* %7, i32 0, i32 0
  %EAX = bitcast %union.anon* %8 to i32*
  %9 = getelementptr inbounds %struct.State, %struct.State* %0, i32 0, i32 6
  %10 = getelementptr inbounds %struct.GPR, %struct.GPR* %9, i32 0, i32 15
  %11 = getelementptr inbounds %struct.Reg, %struct.Reg* %10, i32 0, i32 0
  %RBP = bitcast %union.anon* %11 to i64*
  %12 = load i32, i32* %EAX
  %13 = zext i32 %12 to i64
  %14 = load i64, i64* %RBP
  %15 = sub i64 %14, 4
  %16 = load i64, i64* %PC
  %17 = add i64 %16, 3
  store i64 %17, i64* %PC
  %18 = call %struct.Memory* @_ZN12_GLOBAL__N_1L3CMPI2RnIjE2MnIjEEEP6MemoryS6_R5StateT_T0_(%struct.Memory* %2, %struct.State* %0, i64 %13, i64 %15)
  ret %struct.Memory* %18
}

define internal %struct.Memory* @_ZN12_GLOBAL__N_1L3JNLEP6MemoryR5State3RnWIhE2InImES7_(%struct.Memory* readnone returned, %struct.State* nocapture dereferenceable(3376), i8* nocapture, i64, i64) #2 {
  %6 = getelementptr inbounds %struct.State, %struct.State* %1, i64 0, i32 2, i32 9
  %7 = load i8, i8* %6, align 1
  %8 = icmp ne i8 %7, 0
  %9 = getelementptr inbounds %struct.State, %struct.State* %1, i64 0, i32 2, i32 13
  %10 = load i8, i8* %9, align 1
  %11 = icmp ne i8 %10, 0
  %12 = xor i1 %8, %11
  %13 = xor i1 %12, true
  %14 = zext i1 %13 to i8
  store i8 %14, i8* %2, align 1
  %15 = getelementptr inbounds %struct.State, %struct.State* %1, i64 0, i32 6, i32 33, i32 0, i32 0
  %16 = select i1 %12, i64 %4, i64 %3
  store i64 %16, i64* %15, align 8
  ret %struct.Memory* %0
}

define %struct.Memory* @routine_jge_.L_4018cb(%struct.State*  dereferenceable(3376), i64, %struct.Memory*, i8* %BRANCH_TAKEN, i64 %rel_off1, i64 %rel_off2, i64 %rel_off3) {
block_400488:
  %3 = getelementptr inbounds %struct.State, %struct.State* %0, i32 0, i32 6
  %4 = getelementptr inbounds %struct.GPR, %struct.GPR* %3, i32 0, i32 33
  %5 = getelementptr inbounds %struct.Reg, %struct.Reg* %4, i32 0, i32 0
  %PC = bitcast %union.anon* %5 to i64*
  %6 = load i64, i64* %PC
  %7 = add i64 %6, %rel_off1
  %8 = load i64, i64* %PC
  %9 = add i64 %8, %rel_off2
  %10 = load i64, i64* %PC
  %11 = add i64 %10, %rel_off3
  store i64 %11, i64* %PC
  %12 = call %struct.Memory* @_ZN12_GLOBAL__N_1L3JNLEP6MemoryR5State3RnWIhE2InImES7_(%struct.Memory* %2, %struct.State* %0, i8* %BRANCH_TAKEN, i64 %7, i64 %9)
  ret %struct.Memory* %12
}




define %struct.Memory* @routine_movl_MINUS0x2c__rbp____esi(%struct.State*  dereferenceable(3376), i64, %struct.Memory* ) #19 {
block_400488:
  %3 = getelementptr inbounds %struct.State, %struct.State* %0, i32 0, i32 6
  %4 = getelementptr inbounds %struct.GPR, %struct.GPR* %3, i32 0, i32 33
  %5 = getelementptr inbounds %struct.Reg, %struct.Reg* %4, i32 0, i32 0
  %PC = bitcast %union.anon* %5 to i64*
  %6 = getelementptr inbounds %struct.State, %struct.State* %0, i32 0, i32 6
  %7 = getelementptr inbounds %struct.GPR, %struct.GPR* %6, i32 0, i32 9
  %8 = getelementptr inbounds %struct.Reg, %struct.Reg* %7, i32 0, i32 0
  %RSI = bitcast %union.anon* %8 to i64*
  %9 = getelementptr inbounds %struct.State, %struct.State* %0, i32 0, i32 6
  %10 = getelementptr inbounds %struct.GPR, %struct.GPR* %9, i32 0, i32 15
  %11 = getelementptr inbounds %struct.Reg, %struct.Reg* %10, i32 0, i32 0
  %RBP = bitcast %union.anon* %11 to i64*
  %12 = load i64, i64* %RBP
  %13 = sub i64 %12, 44
  %14 = load i64, i64* %PC
  %15 = add i64 %14, 3
  store i64 %15, i64* %PC
  %16 = call %struct.Memory* @_ZN12_GLOBAL__N_1L3MOVI3RnWImE2MnIjEEEP6MemoryS6_R5StateT_T0_(%struct.Memory* %2, %struct.State* %0, i64* %RSI, i64 %13)
  ret %struct.Memory* %16
}


define %struct.Memory* @routine_movq_MINUS0x10__rbp____rdx(%struct.State*  dereferenceable(3376), i64, %struct.Memory* ) #19 {
block_400488:
  %3 = getelementptr inbounds %struct.State, %struct.State* %0, i32 0, i32 6
  %4 = getelementptr inbounds %struct.GPR, %struct.GPR* %3, i32 0, i32 33
  %5 = getelementptr inbounds %struct.Reg, %struct.Reg* %4, i32 0, i32 0
  %PC = bitcast %union.anon* %5 to i64*
  %6 = getelementptr inbounds %struct.State, %struct.State* %0, i32 0, i32 6
  %7 = getelementptr inbounds %struct.GPR, %struct.GPR* %6, i32 0, i32 7
  %8 = getelementptr inbounds %struct.Reg, %struct.Reg* %7, i32 0, i32 0
  %RDX = bitcast %union.anon* %8 to i64*
  %9 = getelementptr inbounds %struct.State, %struct.State* %0, i32 0, i32 6
  %10 = getelementptr inbounds %struct.GPR, %struct.GPR* %9, i32 0, i32 15
  %11 = getelementptr inbounds %struct.Reg, %struct.Reg* %10, i32 0, i32 0
  %RBP = bitcast %union.anon* %11 to i64*
  %12 = load i64, i64* %RBP
  %13 = sub i64 %12, 16
  %14 = load i64, i64* %PC
  %15 = add i64 %14, 4
  store i64 %15, i64* %PC
  %16 = call %struct.Memory* @_ZN12_GLOBAL__N_1L3MOVI3RnWImE2MnImEEEP6MemoryS6_R5StateT_T0_(%struct.Memory* %2, %struct.State* %0, i64* %RDX, i64 %13)
  ret %struct.Memory* %16
}


define %struct.Memory* @routine_movq_MINUS0x18__rbp____rcx(%struct.State*  dereferenceable(3376), i64, %struct.Memory* ) #19 {
block_400488:
  %3 = getelementptr inbounds %struct.State, %struct.State* %0, i32 0, i32 6
  %4 = getelementptr inbounds %struct.GPR, %struct.GPR* %3, i32 0, i32 33
  %5 = getelementptr inbounds %struct.Reg, %struct.Reg* %4, i32 0, i32 0
  %PC = bitcast %union.anon* %5 to i64*
  %6 = getelementptr inbounds %struct.State, %struct.State* %0, i32 0, i32 6
  %7 = getelementptr inbounds %struct.GPR, %struct.GPR* %6, i32 0, i32 5
  %8 = getelementptr inbounds %struct.Reg, %struct.Reg* %7, i32 0, i32 0
  %RCX = bitcast %union.anon* %8 to i64*
  %9 = getelementptr inbounds %struct.State, %struct.State* %0, i32 0, i32 6
  %10 = getelementptr inbounds %struct.GPR, %struct.GPR* %9, i32 0, i32 15
  %11 = getelementptr inbounds %struct.Reg, %struct.Reg* %10, i32 0, i32 0
  %RBP = bitcast %union.anon* %11 to i64*
  %12 = load i64, i64* %RBP
  %13 = sub i64 %12, 24
  %14 = load i64, i64* %PC
  %15 = add i64 %14, 4
  store i64 %15, i64* %PC
  %16 = call %struct.Memory* @_ZN12_GLOBAL__N_1L3MOVI3RnWImE2MnImEEEP6MemoryS6_R5StateT_T0_(%struct.Memory* %2, %struct.State* %0, i64* %RCX, i64 %13)
  ret %struct.Memory* %16
}




define %struct.Memory* @routine_shll__0x2___esi(%struct.State*  dereferenceable(3376), i64, %struct.Memory* ) #19 {
block_400488:
  %3 = getelementptr inbounds %struct.State, %struct.State* %0, i32 0, i32 6
  %4 = getelementptr inbounds %struct.GPR, %struct.GPR* %3, i32 0, i32 33
  %5 = getelementptr inbounds %struct.Reg, %struct.Reg* %4, i32 0, i32 0
  %PC = bitcast %union.anon* %5 to i64*
  %6 = getelementptr inbounds %struct.State, %struct.State* %0, i32 0, i32 6
  %7 = getelementptr inbounds %struct.GPR, %struct.GPR* %6, i32 0, i32 9
  %8 = getelementptr inbounds %struct.Reg, %struct.Reg* %7, i32 0, i32 0
  %RSI = bitcast %union.anon* %8 to i64*
  %9 = load i64, i64* %RSI
  %10 = load i64, i64* %PC
  %11 = add i64 %10, 3
  store i64 %11, i64* %PC
  %12 = call %struct.Memory* @_ZN12_GLOBAL__N_1L3SHLI3RnWImE2RnIjE2InIjEEEP6MemoryS8_R5StateT_T0_T1_(%struct.Memory* %2, %struct.State* %0, i64* %RSI, i64 %9, i64 2)
  ret %struct.Memory* %12
}


define %struct.Memory* @routine_movl__esi__MINUS0x2c__rbp_(%struct.State*  dereferenceable(3376), i64, %struct.Memory* ) #19 {
block_400488:
  %3 = getelementptr inbounds %struct.State, %struct.State* %0, i32 0, i32 6
  %4 = getelementptr inbounds %struct.GPR, %struct.GPR* %3, i32 0, i32 33
  %5 = getelementptr inbounds %struct.Reg, %struct.Reg* %4, i32 0, i32 0
  %PC = bitcast %union.anon* %5 to i64*
  %6 = getelementptr inbounds %struct.State, %struct.State* %0, i32 0, i32 6
  %7 = getelementptr inbounds %struct.GPR, %struct.GPR* %6, i32 0, i32 9
  %8 = getelementptr inbounds %struct.Reg, %struct.Reg* %7, i32 0, i32 0
  %ESI = bitcast %union.anon* %8 to i32*
  %9 = getelementptr inbounds %struct.State, %struct.State* %0, i32 0, i32 6
  %10 = getelementptr inbounds %struct.GPR, %struct.GPR* %9, i32 0, i32 15
  %11 = getelementptr inbounds %struct.Reg, %struct.Reg* %10, i32 0, i32 0
  %RBP = bitcast %union.anon* %11 to i64*
  %12 = load i64, i64* %RBP
  %13 = sub i64 %12, 44
  %14 = load i32, i32* %ESI
  %15 = zext i32 %14 to i64
  %16 = load i64, i64* %PC
  %17 = add i64 %16, 3
  store i64 %17, i64* %PC
  %18 = call %struct.Memory* @_ZN12_GLOBAL__N_1L3MOVI3MnWIjE2RnIjEEEP6MemoryS6_R5StateT_T0_(%struct.Memory* %2, %struct.State* %0, i64 %13, i64 %15)
  ret %struct.Memory* %18
}

define internal %struct.Memory* @_ZN12_GLOBAL__N_1L3JMPI2InImEEEP6MemoryS4_R5StateT_(%struct.Memory* readnone returned, %struct.State* nocapture dereferenceable(3376), i64) #2 {
  %4 = getelementptr inbounds %struct.State, %struct.State* %1, i64 0, i32 6, i32 33, i32 0, i32 0
  store i64 %2, i64* %4, align 8
  ret %struct.Memory* %0
}

define %struct.Memory* @routine_jmpq_.L_40189b(%struct.State*  dereferenceable(3376), i64, %struct.Memory*, i64 %rel_off1, i64 %rel_off2) {
block_400488:
  %3 = getelementptr inbounds %struct.State, %struct.State* %0, i32 0, i32 6
  %4 = getelementptr inbounds %struct.GPR, %struct.GPR* %3, i32 0, i32 33
  %5 = getelementptr inbounds %struct.Reg, %struct.Reg* %4, i32 0, i32 0
  %PC = bitcast %union.anon* %5 to i64*
  %6 = load i64, i64* %PC
  %7 = add i64 %6, %rel_off1
  %8 = load i64, i64* %PC
  %9 = add i64 %8, %rel_off2
  store i64 %9, i64* %PC
  %10 = call %struct.Memory* @_ZN12_GLOBAL__N_1L3JMPI2InImEEEP6MemoryS4_R5StateT_(%struct.Memory* %2, %struct.State* %0, i64 %7)
  ret %struct.Memory* %10
}


define %struct.Memory* @routine_jmpq_.L_4018d0(%struct.State*  dereferenceable(3376), i64, %struct.Memory*, i64 %rel_off1, i64 %rel_off2) {
block_400488:
  %3 = getelementptr inbounds %struct.State, %struct.State* %0, i32 0, i32 6
  %4 = getelementptr inbounds %struct.GPR, %struct.GPR* %3, i32 0, i32 33
  %5 = getelementptr inbounds %struct.Reg, %struct.Reg* %4, i32 0, i32 0
  %PC = bitcast %union.anon* %5 to i64*
  %6 = load i64, i64* %PC
  %7 = add i64 %6, %rel_off1
  %8 = load i64, i64* %PC
  %9 = add i64 %8, %rel_off2
  store i64 %9, i64* %PC
  %10 = call %struct.Memory* @_ZN12_GLOBAL__N_1L3JMPI2InImEEEP6MemoryS4_R5StateT_(%struct.Memory* %2, %struct.State* %0, i64 %7)
  ret %struct.Memory* %10
}







define internal %struct.Memory* @_ZN12_GLOBAL__N_1L3JNZEP6MemoryR5State3RnWIhE2InImES7_(%struct.Memory* readnone returned, %struct.State* nocapture dereferenceable(3376), i8* nocapture, i64, i64) #2 {
  %6 = getelementptr inbounds %struct.State, %struct.State* %1, i64 0, i32 2, i32 7
  %7 = load i8, i8* %6, align 1
  %8 = icmp eq i8 %7, 0
  %9 = zext i1 %8 to i8
  store i8 %9, i8* %2, align 1
  %10 = getelementptr inbounds %struct.State, %struct.State* %1, i64 0, i32 6, i32 33, i32 0, i32 0
  %11 = select i1 %8, i64 %3, i64 %4
  store i64 %11, i64* %10, align 8
  ret %struct.Memory* %0
}

define %struct.Memory* @routine_jne_.L_401b0c(%struct.State*  dereferenceable(3376), i64, %struct.Memory*, i8* %BRANCH_TAKEN, i64 %rel_off1, i64 %rel_off2, i64 %rel_off3) {
block_400488:
  %3 = getelementptr inbounds %struct.State, %struct.State* %0, i32 0, i32 6
  %4 = getelementptr inbounds %struct.GPR, %struct.GPR* %3, i32 0, i32 33
  %5 = getelementptr inbounds %struct.Reg, %struct.Reg* %4, i32 0, i32 0
  %PC = bitcast %union.anon* %5 to i64*
  %6 = load i64, i64* %PC
  %7 = add i64 %6, %rel_off1
  %8 = load i64, i64* %PC
  %9 = add i64 %8, %rel_off2
  %10 = load i64, i64* %PC
  %11 = add i64 %10, %rel_off3
  store i64 %11, i64* %PC
  %12 = call %struct.Memory* @_ZN12_GLOBAL__N_1L3JNZEP6MemoryR5State3RnWIhE2InImES7_(%struct.Memory* %2, %struct.State* %0, i8* %BRANCH_TAKEN, i64 %7, i64 %9)
  ret %struct.Memory* %12
}


define %struct.Memory* @routine_movl__0x0__MINUS0x1c__rbp_(%struct.State*  dereferenceable(3376), i64, %struct.Memory* ) #19 {
block_400488:
  %3 = getelementptr inbounds %struct.State, %struct.State* %0, i32 0, i32 6
  %4 = getelementptr inbounds %struct.GPR, %struct.GPR* %3, i32 0, i32 33
  %5 = getelementptr inbounds %struct.Reg, %struct.Reg* %4, i32 0, i32 0
  %PC = bitcast %union.anon* %5 to i64*
  %6 = getelementptr inbounds %struct.State, %struct.State* %0, i32 0, i32 6
  %7 = getelementptr inbounds %struct.GPR, %struct.GPR* %6, i32 0, i32 15
  %8 = getelementptr inbounds %struct.Reg, %struct.Reg* %7, i32 0, i32 0
  %RBP = bitcast %union.anon* %8 to i64*
  %9 = load i64, i64* %RBP
  %10 = sub i64 %9, 28
  %11 = load i64, i64* %PC
  %12 = add i64 %11, 7
  store i64 %12, i64* %PC
  %13 = call %struct.Memory* @_ZN12_GLOBAL__N_1L3MOVI3MnWIjE2InIjEEEP6MemoryS6_R5StateT_T0_(%struct.Memory* %2, %struct.State* %0, i64 %10, i64 0)
  ret %struct.Memory* %13
}


define %struct.Memory* @routine_movl_MINUS0x1c__rbp____eax(%struct.State*  dereferenceable(3376), i64, %struct.Memory* ) #19 {
block_400488:
  %3 = getelementptr inbounds %struct.State, %struct.State* %0, i32 0, i32 6
  %4 = getelementptr inbounds %struct.GPR, %struct.GPR* %3, i32 0, i32 33
  %5 = getelementptr inbounds %struct.Reg, %struct.Reg* %4, i32 0, i32 0
  %PC = bitcast %union.anon* %5 to i64*
  %6 = getelementptr inbounds %struct.State, %struct.State* %0, i32 0, i32 6
  %7 = getelementptr inbounds %struct.GPR, %struct.GPR* %6, i32 0, i32 1
  %8 = getelementptr inbounds %struct.Reg, %struct.Reg* %7, i32 0, i32 0
  %RAX = bitcast %union.anon* %8 to i64*
  %9 = getelementptr inbounds %struct.State, %struct.State* %0, i32 0, i32 6
  %10 = getelementptr inbounds %struct.GPR, %struct.GPR* %9, i32 0, i32 15
  %11 = getelementptr inbounds %struct.Reg, %struct.Reg* %10, i32 0, i32 0
  %RBP = bitcast %union.anon* %11 to i64*
  %12 = load i64, i64* %RBP
  %13 = sub i64 %12, 28
  %14 = load i64, i64* %PC
  %15 = add i64 %14, 3
  store i64 %15, i64* %PC
  %16 = call %struct.Memory* @_ZN12_GLOBAL__N_1L3MOVI3RnWImE2MnIjEEEP6MemoryS6_R5StateT_T0_(%struct.Memory* %2, %struct.State* %0, i64* %RAX, i64 %13)
  ret %struct.Memory* %16
}


define %struct.Memory* @routine_cmpl_MINUS0x2c__rbp____eax(%struct.State*  dereferenceable(3376), i64, %struct.Memory* ) #19 {
block_400488:
  %3 = getelementptr inbounds %struct.State, %struct.State* %0, i32 0, i32 6
  %4 = getelementptr inbounds %struct.GPR, %struct.GPR* %3, i32 0, i32 33
  %5 = getelementptr inbounds %struct.Reg, %struct.Reg* %4, i32 0, i32 0
  %PC = bitcast %union.anon* %5 to i64*
  %6 = getelementptr inbounds %struct.State, %struct.State* %0, i32 0, i32 6
  %7 = getelementptr inbounds %struct.GPR, %struct.GPR* %6, i32 0, i32 1
  %8 = getelementptr inbounds %struct.Reg, %struct.Reg* %7, i32 0, i32 0
  %EAX = bitcast %union.anon* %8 to i32*
  %9 = getelementptr inbounds %struct.State, %struct.State* %0, i32 0, i32 6
  %10 = getelementptr inbounds %struct.GPR, %struct.GPR* %9, i32 0, i32 15
  %11 = getelementptr inbounds %struct.Reg, %struct.Reg* %10, i32 0, i32 0
  %RBP = bitcast %union.anon* %11 to i64*
  %12 = load i32, i32* %EAX
  %13 = zext i32 %12 to i64
  %14 = load i64, i64* %RBP
  %15 = sub i64 %14, 44
  %16 = load i64, i64* %PC
  %17 = add i64 %16, 3
  store i64 %17, i64* %PC
  %18 = call %struct.Memory* @_ZN12_GLOBAL__N_1L3CMPI2RnIjE2MnIjEEEP6MemoryS6_R5StateT_T0_(%struct.Memory* %2, %struct.State* %0, i64 %13, i64 %15)
  ret %struct.Memory* %18
}


define %struct.Memory* @routine_jge_.L_401b07(%struct.State*  dereferenceable(3376), i64, %struct.Memory*, i8* %BRANCH_TAKEN, i64 %rel_off1, i64 %rel_off2, i64 %rel_off3) {
block_400488:
  %3 = getelementptr inbounds %struct.State, %struct.State* %0, i32 0, i32 6
  %4 = getelementptr inbounds %struct.GPR, %struct.GPR* %3, i32 0, i32 33
  %5 = getelementptr inbounds %struct.Reg, %struct.Reg* %4, i32 0, i32 0
  %PC = bitcast %union.anon* %5 to i64*
  %6 = load i64, i64* %PC
  %7 = add i64 %6, %rel_off1
  %8 = load i64, i64* %PC
  %9 = add i64 %8, %rel_off2
  %10 = load i64, i64* %PC
  %11 = add i64 %10, %rel_off3
  store i64 %11, i64* %PC
  %12 = call %struct.Memory* @_ZN12_GLOBAL__N_1L3JNLEP6MemoryR5State3RnWIhE2InImES7_(%struct.Memory* %2, %struct.State* %0, i8* %BRANCH_TAKEN, i64 %7, i64 %9)
  ret %struct.Memory* %12
}



define internal %struct.Memory* @_ZN12_GLOBAL__N_1L3ADDI3RnWImE2RnIjE2MnIjEEEP6MemoryS8_R5StateT_T0_T1_(%struct.Memory*, %struct.State* nocapture dereferenceable(3376), i64* nocapture, i64, i64) #0 {
  %6 = trunc i64 %3 to i32
  %7 = inttoptr i64 %4 to i32*
  %8 = load i32, i32* %7
  %9 = add i32 %8, %6
  %10 = zext i32 %9 to i64
  store i64 %10, i64* %2, align 8
  %11 = icmp ult i32 %9, %6
  %12 = icmp ult i32 %9, %8
  %13 = or i1 %11, %12
  %14 = zext i1 %13 to i8
  %15 = getelementptr inbounds %struct.State, %struct.State* %1, i64 0, i32 2, i32 1
  store i8 %14, i8* %15, align 1
  %16 = and i32 %9, 255
  %17 = tail call i32 @llvm.ctpop.i32(i32 %16) #22
  %18 = trunc i32 %17 to i8
  %19 = and i8 %18, 1
  %20 = xor i8 %19, 1
  %21 = getelementptr inbounds %struct.State, %struct.State* %1, i64 0, i32 2, i32 3
  store i8 %20, i8* %21, align 1
  %22 = xor i32 %8, %6
  %23 = xor i32 %22, %9
  %24 = lshr i32 %23, 4
  %25 = trunc i32 %24 to i8
  %26 = and i8 %25, 1
  %27 = getelementptr inbounds %struct.State, %struct.State* %1, i64 0, i32 2, i32 5
  store i8 %26, i8* %27, align 1
  %28 = icmp eq i32 %9, 0
  %29 = zext i1 %28 to i8
  %30 = getelementptr inbounds %struct.State, %struct.State* %1, i64 0, i32 2, i32 7
  store i8 %29, i8* %30, align 1
  %31 = lshr i32 %9, 31
  %32 = trunc i32 %31 to i8
  %33 = getelementptr inbounds %struct.State, %struct.State* %1, i64 0, i32 2, i32 9
  store i8 %32, i8* %33, align 1
  %34 = lshr i32 %6, 31
  %35 = lshr i32 %8, 31
  %36 = xor i32 %31, %34
  %37 = xor i32 %31, %35
  %38 = add   i32 %36, %37
  %39 = icmp eq i32 %38, 2
  %40 = zext i1 %39 to i8
  %41 = getelementptr inbounds %struct.State, %struct.State* %1, i64 0, i32 2, i32 13
  store i8 %40, i8* %41, align 1
  ret %struct.Memory* %0
}

define %struct.Memory* @routine_addl_MINUS0x2c__rbp____eax(%struct.State*  dereferenceable(3376), i64, %struct.Memory* ) #19 {
block_400488:
  %3 = getelementptr inbounds %struct.State, %struct.State* %0, i32 0, i32 6
  %4 = getelementptr inbounds %struct.GPR, %struct.GPR* %3, i32 0, i32 33
  %5 = getelementptr inbounds %struct.Reg, %struct.Reg* %4, i32 0, i32 0
  %PC = bitcast %union.anon* %5 to i64*
  %6 = getelementptr inbounds %struct.State, %struct.State* %0, i32 0, i32 6
  %7 = getelementptr inbounds %struct.GPR, %struct.GPR* %6, i32 0, i32 1
  %8 = getelementptr inbounds %struct.Reg, %struct.Reg* %7, i32 0, i32 0
  %RAX = bitcast %union.anon* %8 to i64*
  %9 = getelementptr inbounds %struct.State, %struct.State* %0, i32 0, i32 6
  %10 = getelementptr inbounds %struct.GPR, %struct.GPR* %9, i32 0, i32 15
  %11 = getelementptr inbounds %struct.Reg, %struct.Reg* %10, i32 0, i32 0
  %RBP = bitcast %union.anon* %11 to i64*
  %12 = load i64, i64* %RAX
  %13 = load i64, i64* %RBP
  %14 = sub i64 %13, 44
  %15 = load i64, i64* %PC
  %16 = add i64 %15, 3
  store i64 %16, i64* %PC
  %17 = call %struct.Memory* @_ZN12_GLOBAL__N_1L3ADDI3RnWImE2RnIjE2MnIjEEEP6MemoryS8_R5StateT_T0_T1_(%struct.Memory* %2, %struct.State* %0, i64* %RAX, i64 %12, i64 %14)
  ret %struct.Memory* %17
}


define %struct.Memory* @routine_movl__eax__MINUS0x20__rbp_(%struct.State*  dereferenceable(3376), i64, %struct.Memory* ) #19 {
block_400488:
  %3 = getelementptr inbounds %struct.State, %struct.State* %0, i32 0, i32 6
  %4 = getelementptr inbounds %struct.GPR, %struct.GPR* %3, i32 0, i32 33
  %5 = getelementptr inbounds %struct.Reg, %struct.Reg* %4, i32 0, i32 0
  %PC = bitcast %union.anon* %5 to i64*
  %6 = getelementptr inbounds %struct.State, %struct.State* %0, i32 0, i32 6
  %7 = getelementptr inbounds %struct.GPR, %struct.GPR* %6, i32 0, i32 1
  %8 = getelementptr inbounds %struct.Reg, %struct.Reg* %7, i32 0, i32 0
  %EAX = bitcast %union.anon* %8 to i32*
  %9 = getelementptr inbounds %struct.State, %struct.State* %0, i32 0, i32 6
  %10 = getelementptr inbounds %struct.GPR, %struct.GPR* %9, i32 0, i32 15
  %11 = getelementptr inbounds %struct.Reg, %struct.Reg* %10, i32 0, i32 0
  %RBP = bitcast %union.anon* %11 to i64*
  %12 = load i64, i64* %RBP
  %13 = sub i64 %12, 32
  %14 = load i32, i32* %EAX
  %15 = zext i32 %14 to i64
  %16 = load i64, i64* %PC
  %17 = add i64 %16, 3
  store i64 %17, i64* %PC
  %18 = call %struct.Memory* @_ZN12_GLOBAL__N_1L3MOVI3MnWIjE2RnIjEEEP6MemoryS6_R5StateT_T0_(%struct.Memory* %2, %struct.State* %0, i64 %13, i64 %15)
  ret %struct.Memory* %18
}


define %struct.Memory* @routine_movl_MINUS0x20__rbp____eax(%struct.State*  dereferenceable(3376), i64, %struct.Memory* ) #19 {
block_400488:
  %3 = getelementptr inbounds %struct.State, %struct.State* %0, i32 0, i32 6
  %4 = getelementptr inbounds %struct.GPR, %struct.GPR* %3, i32 0, i32 33
  %5 = getelementptr inbounds %struct.Reg, %struct.Reg* %4, i32 0, i32 0
  %PC = bitcast %union.anon* %5 to i64*
  %6 = getelementptr inbounds %struct.State, %struct.State* %0, i32 0, i32 6
  %7 = getelementptr inbounds %struct.GPR, %struct.GPR* %6, i32 0, i32 1
  %8 = getelementptr inbounds %struct.Reg, %struct.Reg* %7, i32 0, i32 0
  %RAX = bitcast %union.anon* %8 to i64*
  %9 = getelementptr inbounds %struct.State, %struct.State* %0, i32 0, i32 6
  %10 = getelementptr inbounds %struct.GPR, %struct.GPR* %9, i32 0, i32 15
  %11 = getelementptr inbounds %struct.Reg, %struct.Reg* %10, i32 0, i32 0
  %RBP = bitcast %union.anon* %11 to i64*
  %12 = load i64, i64* %RBP
  %13 = sub i64 %12, 32
  %14 = load i64, i64* %PC
  %15 = add i64 %14, 3
  store i64 %15, i64* %PC
  %16 = call %struct.Memory* @_ZN12_GLOBAL__N_1L3MOVI3RnWImE2MnIjEEEP6MemoryS6_R5StateT_T0_(%struct.Memory* %2, %struct.State* %0, i64* %RAX, i64 %13)
  ret %struct.Memory* %16
}




define %struct.Memory* @routine_movl__eax__MINUS0x24__rbp_(%struct.State*  dereferenceable(3376), i64, %struct.Memory* ) #19 {
block_400488:
  %3 = getelementptr inbounds %struct.State, %struct.State* %0, i32 0, i32 6
  %4 = getelementptr inbounds %struct.GPR, %struct.GPR* %3, i32 0, i32 33
  %5 = getelementptr inbounds %struct.Reg, %struct.Reg* %4, i32 0, i32 0
  %PC = bitcast %union.anon* %5 to i64*
  %6 = getelementptr inbounds %struct.State, %struct.State* %0, i32 0, i32 6
  %7 = getelementptr inbounds %struct.GPR, %struct.GPR* %6, i32 0, i32 1
  %8 = getelementptr inbounds %struct.Reg, %struct.Reg* %7, i32 0, i32 0
  %EAX = bitcast %union.anon* %8 to i32*
  %9 = getelementptr inbounds %struct.State, %struct.State* %0, i32 0, i32 6
  %10 = getelementptr inbounds %struct.GPR, %struct.GPR* %9, i32 0, i32 15
  %11 = getelementptr inbounds %struct.Reg, %struct.Reg* %10, i32 0, i32 0
  %RBP = bitcast %union.anon* %11 to i64*
  %12 = load i64, i64* %RBP
  %13 = sub i64 %12, 36
  %14 = load i32, i32* %EAX
  %15 = zext i32 %14 to i64
  %16 = load i64, i64* %PC
  %17 = add i64 %16, 3
  store i64 %17, i64* %PC
  %18 = call %struct.Memory* @_ZN12_GLOBAL__N_1L3MOVI3MnWIjE2RnIjEEEP6MemoryS6_R5StateT_T0_(%struct.Memory* %2, %struct.State* %0, i64 %13, i64 %15)
  ret %struct.Memory* %18
}


define %struct.Memory* @routine_movl_MINUS0x24__rbp____eax(%struct.State*  dereferenceable(3376), i64, %struct.Memory* ) #19 {
block_400488:
  %3 = getelementptr inbounds %struct.State, %struct.State* %0, i32 0, i32 6
  %4 = getelementptr inbounds %struct.GPR, %struct.GPR* %3, i32 0, i32 33
  %5 = getelementptr inbounds %struct.Reg, %struct.Reg* %4, i32 0, i32 0
  %PC = bitcast %union.anon* %5 to i64*
  %6 = getelementptr inbounds %struct.State, %struct.State* %0, i32 0, i32 6
  %7 = getelementptr inbounds %struct.GPR, %struct.GPR* %6, i32 0, i32 1
  %8 = getelementptr inbounds %struct.Reg, %struct.Reg* %7, i32 0, i32 0
  %RAX = bitcast %union.anon* %8 to i64*
  %9 = getelementptr inbounds %struct.State, %struct.State* %0, i32 0, i32 6
  %10 = getelementptr inbounds %struct.GPR, %struct.GPR* %9, i32 0, i32 15
  %11 = getelementptr inbounds %struct.Reg, %struct.Reg* %10, i32 0, i32 0
  %RBP = bitcast %union.anon* %11 to i64*
  %12 = load i64, i64* %RBP
  %13 = sub i64 %12, 36
  %14 = load i64, i64* %PC
  %15 = add i64 %14, 3
  store i64 %15, i64* %PC
  %16 = call %struct.Memory* @_ZN12_GLOBAL__N_1L3MOVI3RnWImE2MnIjEEEP6MemoryS6_R5StateT_T0_(%struct.Memory* %2, %struct.State* %0, i64* %RAX, i64 %13)
  ret %struct.Memory* %16
}




define %struct.Memory* @routine_movl__eax__MINUS0x28__rbp_(%struct.State*  dereferenceable(3376), i64, %struct.Memory* ) #19 {
block_400488:
  %3 = getelementptr inbounds %struct.State, %struct.State* %0, i32 0, i32 6
  %4 = getelementptr inbounds %struct.GPR, %struct.GPR* %3, i32 0, i32 33
  %5 = getelementptr inbounds %struct.Reg, %struct.Reg* %4, i32 0, i32 0
  %PC = bitcast %union.anon* %5 to i64*
  %6 = getelementptr inbounds %struct.State, %struct.State* %0, i32 0, i32 6
  %7 = getelementptr inbounds %struct.GPR, %struct.GPR* %6, i32 0, i32 1
  %8 = getelementptr inbounds %struct.Reg, %struct.Reg* %7, i32 0, i32 0
  %EAX = bitcast %union.anon* %8 to i32*
  %9 = getelementptr inbounds %struct.State, %struct.State* %0, i32 0, i32 6
  %10 = getelementptr inbounds %struct.GPR, %struct.GPR* %9, i32 0, i32 15
  %11 = getelementptr inbounds %struct.Reg, %struct.Reg* %10, i32 0, i32 0
  %RBP = bitcast %union.anon* %11 to i64*
  %12 = load i64, i64* %RBP
  %13 = sub i64 %12, 40
  %14 = load i32, i32* %EAX
  %15 = zext i32 %14 to i64
  %16 = load i64, i64* %PC
  %17 = add i64 %16, 3
  store i64 %17, i64* %PC
  %18 = call %struct.Memory* @_ZN12_GLOBAL__N_1L3MOVI3MnWIjE2RnIjEEEP6MemoryS6_R5StateT_T0_(%struct.Memory* %2, %struct.State* %0, i64 %13, i64 %15)
  ret %struct.Memory* %18
}


define %struct.Memory* @routine_movq_MINUS0x10__rbp____rcx(%struct.State*  dereferenceable(3376), i64, %struct.Memory* ) #19 {
block_400488:
  %3 = getelementptr inbounds %struct.State, %struct.State* %0, i32 0, i32 6
  %4 = getelementptr inbounds %struct.GPR, %struct.GPR* %3, i32 0, i32 33
  %5 = getelementptr inbounds %struct.Reg, %struct.Reg* %4, i32 0, i32 0
  %PC = bitcast %union.anon* %5 to i64*
  %6 = getelementptr inbounds %struct.State, %struct.State* %0, i32 0, i32 6
  %7 = getelementptr inbounds %struct.GPR, %struct.GPR* %6, i32 0, i32 5
  %8 = getelementptr inbounds %struct.Reg, %struct.Reg* %7, i32 0, i32 0
  %RCX = bitcast %union.anon* %8 to i64*
  %9 = getelementptr inbounds %struct.State, %struct.State* %0, i32 0, i32 6
  %10 = getelementptr inbounds %struct.GPR, %struct.GPR* %9, i32 0, i32 15
  %11 = getelementptr inbounds %struct.Reg, %struct.Reg* %10, i32 0, i32 0
  %RBP = bitcast %union.anon* %11 to i64*
  %12 = load i64, i64* %RBP
  %13 = sub i64 %12, 16
  %14 = load i64, i64* %PC
  %15 = add i64 %14, 4
  store i64 %15, i64* %PC
  %16 = call %struct.Memory* @_ZN12_GLOBAL__N_1L3MOVI3RnWImE2MnImEEEP6MemoryS6_R5StateT_T0_(%struct.Memory* %2, %struct.State* %0, i64* %RCX, i64 %13)
  ret %struct.Memory* %16
}

define internal %struct.Memory* @_ZN12_GLOBAL__N_1L5MOVSXI3RnWImE2MnIjElEEP6MemoryS6_R5StateT_T0_(%struct.Memory* returned, %struct.State* nocapture readnone dereferenceable(3376), i64* nocapture, i64) #0 {
  %5 = inttoptr i64 %3 to i32*
  %6 = load i32, i32* %5
  %7 = sext i32 %6 to i64
  store i64 %7, i64* %2, align 8
  ret %struct.Memory* %0
}

define %struct.Memory* @routine_movslq_MINUS0x1c__rbp____rdx(%struct.State*  dereferenceable(3376), i64, %struct.Memory* ) #19 {
block_400488:
  %3 = getelementptr inbounds %struct.State, %struct.State* %0, i32 0, i32 6
  %4 = getelementptr inbounds %struct.GPR, %struct.GPR* %3, i32 0, i32 33
  %5 = getelementptr inbounds %struct.Reg, %struct.Reg* %4, i32 0, i32 0
  %PC = bitcast %union.anon* %5 to i64*
  %6 = getelementptr inbounds %struct.State, %struct.State* %0, i32 0, i32 6
  %7 = getelementptr inbounds %struct.GPR, %struct.GPR* %6, i32 0, i32 7
  %8 = getelementptr inbounds %struct.Reg, %struct.Reg* %7, i32 0, i32 0
  %RDX = bitcast %union.anon* %8 to i64*
  %9 = getelementptr inbounds %struct.State, %struct.State* %0, i32 0, i32 6
  %10 = getelementptr inbounds %struct.GPR, %struct.GPR* %9, i32 0, i32 15
  %11 = getelementptr inbounds %struct.Reg, %struct.Reg* %10, i32 0, i32 0
  %RBP = bitcast %union.anon* %11 to i64*
  %12 = load i64, i64* %RBP
  %13 = sub i64 %12, 28
  %14 = load i64, i64* %PC
  %15 = add i64 %14, 4
  store i64 %15, i64* %PC
  %16 = call %struct.Memory* @_ZN12_GLOBAL__N_1L5MOVSXI3RnWImE2MnIjElEEP6MemoryS6_R5StateT_T0_(%struct.Memory* %2, %struct.State* %0, i64* %RDX, i64 %13)
  ret %struct.Memory* %16
}

define internal %struct.Memory* @_ZN12_GLOBAL__N_1L9MOVSD_MEMI3VnWI8vec128_tE3MVnI7vec64_tEEEP6MemoryS8_R5StateT_T0_(%struct.Memory* returned, %struct.State* nocapture readnone dereferenceable(3376), i8* nocapture, i64) #0 {
  %5 = inttoptr i64 %3 to double*
  %6 = load double, double* %5
  %7 = bitcast i8* %2 to double*
  store double %6, double* %7, align 1
  %8 = getelementptr inbounds i8, i8* %2, i64 8
  %9 = bitcast i8* %8 to double*
  store double 0.000000e+00, double* %9, align 1
  ret %struct.Memory* %0
}

define %struct.Memory* @routine_movsd___rcx__rdx_8____xmm0(%struct.State*  dereferenceable(3376), i64, %struct.Memory* ) #19 {
block_400488:
  %3 = getelementptr inbounds %struct.State, %struct.State* %0, i32 0, i32 6
  %4 = getelementptr inbounds %struct.GPR, %struct.GPR* %3, i32 0, i32 33
  %5 = getelementptr inbounds %struct.Reg, %struct.Reg* %4, i32 0, i32 0
  %PC = bitcast %union.anon* %5 to i64*
  %6 = getelementptr inbounds %struct.State, %struct.State* %0, i32 0, i32 6
  %7 = getelementptr inbounds %struct.GPR, %struct.GPR* %6, i32 0, i32 5
  %8 = getelementptr inbounds %struct.Reg, %struct.Reg* %7, i32 0, i32 0
  %RCX = bitcast %union.anon* %8 to i64*
  %9 = getelementptr inbounds %struct.State, %struct.State* %0, i32 0, i32 6
  %10 = getelementptr inbounds %struct.GPR, %struct.GPR* %9, i32 0, i32 7
  %11 = getelementptr inbounds %struct.Reg, %struct.Reg* %10, i32 0, i32 0
  %RDX = bitcast %union.anon* %11 to i64*
  %12 = getelementptr inbounds %struct.State, %struct.State* %0, i32 0, i32 1
  %13 = getelementptr inbounds [32 x %union.VectorReg], [32 x %union.VectorReg]* %12, i64 0, i64 0
  %YMM0 = bitcast %union.VectorReg* %13 to %"class.std::bitset"*
  %14 = bitcast %"class.std::bitset"* %YMM0 to i8*
  %15 = load i64, i64* %RCX
  %16 = load i64, i64* %RDX
  %17 = mul i64 %16, 8
  %18 = add i64 %17, %15
  %19 = load i64, i64* %PC
  %20 = add i64 %19, 5
  store i64 %20, i64* %PC
  %21 = call %struct.Memory* @_ZN12_GLOBAL__N_1L9MOVSD_MEMI3VnWI8vec128_tE3MVnI7vec64_tEEEP6MemoryS8_R5StateT_T0_(%struct.Memory* %2, %struct.State* %0, i8* %14, i64 %18)
  ret %struct.Memory* %21
}




define %struct.Memory* @routine_movslq_MINUS0x20__rbp____rdx(%struct.State*  dereferenceable(3376), i64, %struct.Memory* ) #19 {
block_400488:
  %3 = getelementptr inbounds %struct.State, %struct.State* %0, i32 0, i32 6
  %4 = getelementptr inbounds %struct.GPR, %struct.GPR* %3, i32 0, i32 33
  %5 = getelementptr inbounds %struct.Reg, %struct.Reg* %4, i32 0, i32 0
  %PC = bitcast %union.anon* %5 to i64*
  %6 = getelementptr inbounds %struct.State, %struct.State* %0, i32 0, i32 6
  %7 = getelementptr inbounds %struct.GPR, %struct.GPR* %6, i32 0, i32 7
  %8 = getelementptr inbounds %struct.Reg, %struct.Reg* %7, i32 0, i32 0
  %RDX = bitcast %union.anon* %8 to i64*
  %9 = getelementptr inbounds %struct.State, %struct.State* %0, i32 0, i32 6
  %10 = getelementptr inbounds %struct.GPR, %struct.GPR* %9, i32 0, i32 15
  %11 = getelementptr inbounds %struct.Reg, %struct.Reg* %10, i32 0, i32 0
  %RBP = bitcast %union.anon* %11 to i64*
  %12 = load i64, i64* %RBP
  %13 = sub i64 %12, 32
  %14 = load i64, i64* %PC
  %15 = add i64 %14, 4
  store i64 %15, i64* %PC
  %16 = call %struct.Memory* @_ZN12_GLOBAL__N_1L5MOVSXI3RnWImE2MnIjElEEP6MemoryS6_R5StateT_T0_(%struct.Memory* %2, %struct.State* %0, i64* %RDX, i64 %13)
  ret %struct.Memory* %16
}

define internal %struct.Memory* @_ZN12_GLOBAL__N_1L5ADDSDI3VnWI8vec128_tE2VnIS2_E3MVnI7vec64_tEEEP6MemorySA_R5StateT_T0_T1_(%struct.Memory* returned, %struct.State* nocapture readnone dereferenceable(3376), i8* nocapture, i8* nocapture readonly, i64) #0 {
  %6 = bitcast i8* %3 to double*
  %7 = load double, double* %6, align 1
  %8 = getelementptr inbounds i8, i8* %3, i64 8
  %9 = bitcast i8* %8 to i64*
  %10 = load i64, i64* %9, align 1
  %11 = inttoptr i64 %4 to double*
  %12 = load double, double* %11
  %13 = fadd double %7, %12
  %14 = bitcast i8* %2 to double*
  store double %13, double* %14, align 1
  %15 = getelementptr inbounds i8, i8* %2, i64 8
  %16 = bitcast i8* %15 to i64*
  store i64 %10, i64* %16, align 1
  ret %struct.Memory* %0
}

define %struct.Memory* @routine_addsd___rcx__rdx_8____xmm0(%struct.State*  dereferenceable(3376), i64, %struct.Memory* ) #19 {
block_400488:
  %3 = getelementptr inbounds %struct.State, %struct.State* %0, i32 0, i32 6
  %4 = getelementptr inbounds %struct.GPR, %struct.GPR* %3, i32 0, i32 33
  %5 = getelementptr inbounds %struct.Reg, %struct.Reg* %4, i32 0, i32 0
  %PC = bitcast %union.anon* %5 to i64*
  %6 = getelementptr inbounds %struct.State, %struct.State* %0, i32 0, i32 6
  %7 = getelementptr inbounds %struct.GPR, %struct.GPR* %6, i32 0, i32 5
  %8 = getelementptr inbounds %struct.Reg, %struct.Reg* %7, i32 0, i32 0
  %RCX = bitcast %union.anon* %8 to i64*
  %9 = getelementptr inbounds %struct.State, %struct.State* %0, i32 0, i32 6
  %10 = getelementptr inbounds %struct.GPR, %struct.GPR* %9, i32 0, i32 7
  %11 = getelementptr inbounds %struct.Reg, %struct.Reg* %10, i32 0, i32 0
  %RDX = bitcast %union.anon* %11 to i64*
  %12 = getelementptr inbounds %struct.State, %struct.State* %0, i32 0, i32 1
  %13 = getelementptr inbounds [32 x %union.VectorReg], [32 x %union.VectorReg]* %12, i64 0, i64 0
  %YMM0 = bitcast %union.VectorReg* %13 to %"class.std::bitset"*
  %14 = bitcast %"class.std::bitset"* %YMM0 to i8*
  %15 = bitcast %"class.std::bitset"* %YMM0 to i8*
  %16 = load i64, i64* %RCX
  %17 = load i64, i64* %RDX
  %18 = mul i64 %17, 8
  %19 = add i64 %18, %16
  %20 = load i64, i64* %PC
  %21 = add i64 %20, 5
  store i64 %21, i64* %PC
  %22 = call %struct.Memory* @_ZN12_GLOBAL__N_1L5ADDSDI3VnWI8vec128_tE2VnIS2_E3MVnI7vec64_tEEEP6MemorySA_R5StateT_T0_T1_(%struct.Memory* %2, %struct.State* %0, i8* %14, i8* %15, i64 %19)
  ret %struct.Memory* %22
}

define internal %struct.Memory* @_ZN12_GLOBAL__N_1L9MOVSD_MEMI4MVnWI7vec64_tE2VnI8vec128_tEEEP6MemoryS8_R5StateT_T0_(%struct.Memory* readnone, %struct.State* nocapture readnone dereferenceable(3376), i64, i8* nocapture readonly) #7 {
  %5 = bitcast i8* %3 to double*
  %6 = load double, double* %5, align 1
  %7 = inttoptr i64 %2 to double*
  store double %6, double* %7
  ret %struct.Memory* %0
}

define %struct.Memory* @routine_movsd__xmm0__MINUS0x38__rbp_(%struct.State*  dereferenceable(3376), i64, %struct.Memory* ) #19 {
block_400488:
  %3 = getelementptr inbounds %struct.State, %struct.State* %0, i32 0, i32 6
  %4 = getelementptr inbounds %struct.GPR, %struct.GPR* %3, i32 0, i32 33
  %5 = getelementptr inbounds %struct.Reg, %struct.Reg* %4, i32 0, i32 0
  %PC = bitcast %union.anon* %5 to i64*
  %6 = getelementptr inbounds %struct.State, %struct.State* %0, i32 0, i32 6
  %7 = getelementptr inbounds %struct.GPR, %struct.GPR* %6, i32 0, i32 15
  %8 = getelementptr inbounds %struct.Reg, %struct.Reg* %7, i32 0, i32 0
  %RBP = bitcast %union.anon* %8 to i64*
  %9 = getelementptr inbounds %struct.State, %struct.State* %0, i32 0, i32 1
  %10 = getelementptr inbounds [32 x %union.VectorReg], [32 x %union.VectorReg]* %9, i64 0, i64 0
  %XMM0 = bitcast %union.VectorReg* %10 to %union.vec128_t*
  %11 = load i64, i64* %RBP
  %12 = sub i64 %11, 56
  %13 = bitcast %union.vec128_t* %XMM0 to i8*
  %14 = load i64, i64* %PC
  %15 = add i64 %14, 5
  store i64 %15, i64* %PC
  %16 = call %struct.Memory* @_ZN12_GLOBAL__N_1L9MOVSD_MEMI4MVnWI7vec64_tE2VnI8vec128_tEEEP6MemoryS8_R5StateT_T0_(%struct.Memory* %2, %struct.State* %0, i64 %12, i8* %13)
  ret %struct.Memory* %16
}





define internal %struct.Memory* @_ZN12_GLOBAL__N_1L3ADDI3RnWImE2RnIjE2InIjEEEP6MemoryS8_R5StateT_T0_T1_(%struct.Memory* readnone returned, %struct.State* nocapture dereferenceable(3376), i64* nocapture, i64, i64) #0 {
  %6 = trunc i64 %3 to i32
  %7 = trunc i64 %4 to i32
  %8 = add i32 %7, %6
  %9 = zext i32 %8 to i64
  store i64 %9, i64* %2, align 8
  %10 = icmp ult i32 %8, %6
  %11 = icmp ult i32 %8, %7
  %12 = or i1 %10, %11
  %13 = zext i1 %12 to i8
  %14 = getelementptr inbounds %struct.State, %struct.State* %1, i64 0, i32 2, i32 1
  store i8 %13, i8* %14, align 1
  %15 = and i32 %8, 255
  %16 = tail call i32 @llvm.ctpop.i32(i32 %15) #22
  %17 = trunc i32 %16 to i8
  %18 = and i8 %17, 1
  %19 = xor i8 %18, 1
  %20 = getelementptr inbounds %struct.State, %struct.State* %1, i64 0, i32 2, i32 3
  store i8 %19, i8* %20, align 1
  %21 = xor i64 %4, %3
  %22 = trunc i64 %21 to i32
  %23 = xor i32 %22, %8
  %24 = lshr i32 %23, 4
  %25 = trunc i32 %24 to i8
  %26 = and i8 %25, 1
  %27 = getelementptr inbounds %struct.State, %struct.State* %1, i64 0, i32 2, i32 5
  store i8 %26, i8* %27, align 1
  %28 = icmp eq i32 %8, 0
  %29 = zext i1 %28 to i8
  %30 = getelementptr inbounds %struct.State, %struct.State* %1, i64 0, i32 2, i32 7
  store i8 %29, i8* %30, align 1
  %31 = lshr i32 %8, 31
  %32 = trunc i32 %31 to i8
  %33 = getelementptr inbounds %struct.State, %struct.State* %1, i64 0, i32 2, i32 9
  store i8 %32, i8* %33, align 1
  %34 = lshr i32 %6, 31
  %35 = lshr i32 %7, 31
  %36 = xor i32 %31, %34
  %37 = xor i32 %31, %35
  %38 = add   i32 %36, %37
  %39 = icmp eq i32 %38, 2
  %40 = zext i1 %39 to i8
  %41 = getelementptr inbounds %struct.State, %struct.State* %1, i64 0, i32 2, i32 13
  store i8 %40, i8* %41, align 1
  ret %struct.Memory* %0
}

define %struct.Memory* @routine_addl__0x1___eax(%struct.State*  dereferenceable(3376), i64, %struct.Memory* ) #19 {
block_400488:
  %3 = getelementptr inbounds %struct.State, %struct.State* %0, i32 0, i32 6
  %4 = getelementptr inbounds %struct.GPR, %struct.GPR* %3, i32 0, i32 33
  %5 = getelementptr inbounds %struct.Reg, %struct.Reg* %4, i32 0, i32 0
  %PC = bitcast %union.anon* %5 to i64*
  %6 = getelementptr inbounds %struct.State, %struct.State* %0, i32 0, i32 6
  %7 = getelementptr inbounds %struct.GPR, %struct.GPR* %6, i32 0, i32 1
  %8 = getelementptr inbounds %struct.Reg, %struct.Reg* %7, i32 0, i32 0
  %RAX = bitcast %union.anon* %8 to i64*
  %9 = load i64, i64* %RAX
  %10 = load i64, i64* %PC
  %11 = add i64 %10, 3
  store i64 %11, i64* %PC
  %12 = call %struct.Memory* @_ZN12_GLOBAL__N_1L3ADDI3RnWImE2RnIjE2InIjEEEP6MemoryS8_R5StateT_T0_T1_(%struct.Memory* %2, %struct.State* %0, i64* %RAX, i64 %9, i64 1)
  ret %struct.Memory* %12
}

define internal %struct.Memory* @_ZN12_GLOBAL__N_1L5MOVSXI3RnWImE2RnIjElEEP6MemoryS6_R5StateT_T0_(%struct.Memory* readnone returned, %struct.State* nocapture readnone dereferenceable(3376), i64* nocapture, i64) #2 {
  %5 = shl i64 %3, 32
  %6 = ashr exact i64 %5, 32
  store i64 %6, i64* %2, align 8
  ret %struct.Memory* %0
}

define %struct.Memory* @routine_movslq__eax___rdx(%struct.State*  dereferenceable(3376), i64, %struct.Memory* ) #19 {
block_400488:
  %3 = getelementptr inbounds %struct.State, %struct.State* %0, i32 0, i32 6
  %4 = getelementptr inbounds %struct.GPR, %struct.GPR* %3, i32 0, i32 33
  %5 = getelementptr inbounds %struct.Reg, %struct.Reg* %4, i32 0, i32 0
  %PC = bitcast %union.anon* %5 to i64*
  %6 = getelementptr inbounds %struct.State, %struct.State* %0, i32 0, i32 6
  %7 = getelementptr inbounds %struct.GPR, %struct.GPR* %6, i32 0, i32 1
  %8 = getelementptr inbounds %struct.Reg, %struct.Reg* %7, i32 0, i32 0
  %EAX = bitcast %union.anon* %8 to i32*
  %9 = getelementptr inbounds %struct.State, %struct.State* %0, i32 0, i32 6
  %10 = getelementptr inbounds %struct.GPR, %struct.GPR* %9, i32 0, i32 7
  %11 = getelementptr inbounds %struct.Reg, %struct.Reg* %10, i32 0, i32 0
  %RDX = bitcast %union.anon* %11 to i64*
  %12 = load i32, i32* %EAX
  %13 = zext i32 %12 to i64
  %14 = load i64, i64* %PC
  %15 = add i64 %14, 3
  store i64 %15, i64* %PC
  %16 = call %struct.Memory* @_ZN12_GLOBAL__N_1L5MOVSXI3RnWImE2RnIjElEEP6MemoryS6_R5StateT_T0_(%struct.Memory* %2, %struct.State* %0, i64* %RDX, i64 %13)
  ret %struct.Memory* %16
}














define %struct.Memory* @routine_movsd__xmm0__MINUS0x40__rbp_(%struct.State*  dereferenceable(3376), i64, %struct.Memory* ) #19 {
block_400488:
  %3 = getelementptr inbounds %struct.State, %struct.State* %0, i32 0, i32 6
  %4 = getelementptr inbounds %struct.GPR, %struct.GPR* %3, i32 0, i32 33
  %5 = getelementptr inbounds %struct.Reg, %struct.Reg* %4, i32 0, i32 0
  %PC = bitcast %union.anon* %5 to i64*
  %6 = getelementptr inbounds %struct.State, %struct.State* %0, i32 0, i32 6
  %7 = getelementptr inbounds %struct.GPR, %struct.GPR* %6, i32 0, i32 15
  %8 = getelementptr inbounds %struct.Reg, %struct.Reg* %7, i32 0, i32 0
  %RBP = bitcast %union.anon* %8 to i64*
  %9 = getelementptr inbounds %struct.State, %struct.State* %0, i32 0, i32 1
  %10 = getelementptr inbounds [32 x %union.VectorReg], [32 x %union.VectorReg]* %9, i64 0, i64 0
  %XMM0 = bitcast %union.VectorReg* %10 to %union.vec128_t*
  %11 = load i64, i64* %RBP
  %12 = sub i64 %11, 64
  %13 = bitcast %union.vec128_t* %XMM0 to i8*
  %14 = load i64, i64* %PC
  %15 = add i64 %14, 5
  store i64 %15, i64* %PC
  %16 = call %struct.Memory* @_ZN12_GLOBAL__N_1L9MOVSD_MEMI4MVnWI7vec64_tE2VnI8vec128_tEEEP6MemoryS8_R5StateT_T0_(%struct.Memory* %2, %struct.State* %0, i64 %12, i8* %13)
  ret %struct.Memory* %16
}











define internal %struct.Memory* @_ZN12_GLOBAL__N_1L5SUBSDI3VnWI8vec128_tE2VnIS2_E3MVnI7vec64_tEEEP6MemorySA_R5StateT_T0_T1_(%struct.Memory* returned, %struct.State* nocapture readnone dereferenceable(3376), i8* nocapture, i8* nocapture readonly, i64) #0 {
  %6 = bitcast i8* %3 to double*
  %7 = load double, double* %6, align 1
  %8 = getelementptr inbounds i8, i8* %3, i64 8
  %9 = bitcast i8* %8 to i64*
  %10 = load i64, i64* %9, align 1
  %11 = inttoptr i64 %4 to double*
  %12 = load double, double* %11
  %13 = fsub double %7, %12
  %14 = bitcast i8* %2 to double*
  store double %13, double* %14, align 1
  %15 = getelementptr inbounds i8, i8* %2, i64 8
  %16 = bitcast i8* %15 to i64*
  store i64 %10, i64* %16, align 1
  ret %struct.Memory* %0
}

define %struct.Memory* @routine_subsd___rcx__rdx_8____xmm0(%struct.State*  dereferenceable(3376), i64, %struct.Memory* ) #19 {
block_400488:
  %3 = getelementptr inbounds %struct.State, %struct.State* %0, i32 0, i32 6
  %4 = getelementptr inbounds %struct.GPR, %struct.GPR* %3, i32 0, i32 33
  %5 = getelementptr inbounds %struct.Reg, %struct.Reg* %4, i32 0, i32 0
  %PC = bitcast %union.anon* %5 to i64*
  %6 = getelementptr inbounds %struct.State, %struct.State* %0, i32 0, i32 6
  %7 = getelementptr inbounds %struct.GPR, %struct.GPR* %6, i32 0, i32 5
  %8 = getelementptr inbounds %struct.Reg, %struct.Reg* %7, i32 0, i32 0
  %RCX = bitcast %union.anon* %8 to i64*
  %9 = getelementptr inbounds %struct.State, %struct.State* %0, i32 0, i32 6
  %10 = getelementptr inbounds %struct.GPR, %struct.GPR* %9, i32 0, i32 7
  %11 = getelementptr inbounds %struct.Reg, %struct.Reg* %10, i32 0, i32 0
  %RDX = bitcast %union.anon* %11 to i64*
  %12 = getelementptr inbounds %struct.State, %struct.State* %0, i32 0, i32 1
  %13 = getelementptr inbounds [32 x %union.VectorReg], [32 x %union.VectorReg]* %12, i64 0, i64 0
  %YMM0 = bitcast %union.VectorReg* %13 to %"class.std::bitset"*
  %14 = bitcast %"class.std::bitset"* %YMM0 to i8*
  %15 = bitcast %"class.std::bitset"* %YMM0 to i8*
  %16 = load i64, i64* %RCX
  %17 = load i64, i64* %RDX
  %18 = mul i64 %17, 8
  %19 = add i64 %18, %16
  %20 = load i64, i64* %PC
  %21 = add i64 %20, 5
  store i64 %21, i64* %PC
  %22 = call %struct.Memory* @_ZN12_GLOBAL__N_1L5SUBSDI3VnWI8vec128_tE2VnIS2_E3MVnI7vec64_tEEEP6MemorySA_R5StateT_T0_T1_(%struct.Memory* %2, %struct.State* %0, i8* %14, i8* %15, i64 %19)
  ret %struct.Memory* %22
}


define %struct.Memory* @routine_movsd__xmm0__MINUS0x48__rbp_(%struct.State*  dereferenceable(3376), i64, %struct.Memory* ) #19 {
block_400488:
  %3 = getelementptr inbounds %struct.State, %struct.State* %0, i32 0, i32 6
  %4 = getelementptr inbounds %struct.GPR, %struct.GPR* %3, i32 0, i32 33
  %5 = getelementptr inbounds %struct.Reg, %struct.Reg* %4, i32 0, i32 0
  %PC = bitcast %union.anon* %5 to i64*
  %6 = getelementptr inbounds %struct.State, %struct.State* %0, i32 0, i32 6
  %7 = getelementptr inbounds %struct.GPR, %struct.GPR* %6, i32 0, i32 15
  %8 = getelementptr inbounds %struct.Reg, %struct.Reg* %7, i32 0, i32 0
  %RBP = bitcast %union.anon* %8 to i64*
  %9 = getelementptr inbounds %struct.State, %struct.State* %0, i32 0, i32 1
  %10 = getelementptr inbounds [32 x %union.VectorReg], [32 x %union.VectorReg]* %9, i64 0, i64 0
  %XMM0 = bitcast %union.VectorReg* %10 to %union.vec128_t*
  %11 = load i64, i64* %RBP
  %12 = sub i64 %11, 72
  %13 = bitcast %union.vec128_t* %XMM0 to i8*
  %14 = load i64, i64* %PC
  %15 = add i64 %14, 5
  store i64 %15, i64* %PC
  %16 = call %struct.Memory* @_ZN12_GLOBAL__N_1L9MOVSD_MEMI4MVnWI7vec64_tE2VnI8vec128_tEEEP6MemoryS8_R5StateT_T0_(%struct.Memory* %2, %struct.State* %0, i64 %12, i8* %13)
  ret %struct.Memory* %16
}






















define %struct.Memory* @routine_movsd__xmm0__MINUS0x50__rbp_(%struct.State*  dereferenceable(3376), i64, %struct.Memory* ) #19 {
block_400488:
  %3 = getelementptr inbounds %struct.State, %struct.State* %0, i32 0, i32 6
  %4 = getelementptr inbounds %struct.GPR, %struct.GPR* %3, i32 0, i32 33
  %5 = getelementptr inbounds %struct.Reg, %struct.Reg* %4, i32 0, i32 0
  %PC = bitcast %union.anon* %5 to i64*
  %6 = getelementptr inbounds %struct.State, %struct.State* %0, i32 0, i32 6
  %7 = getelementptr inbounds %struct.GPR, %struct.GPR* %6, i32 0, i32 15
  %8 = getelementptr inbounds %struct.Reg, %struct.Reg* %7, i32 0, i32 0
  %RBP = bitcast %union.anon* %8 to i64*
  %9 = getelementptr inbounds %struct.State, %struct.State* %0, i32 0, i32 1
  %10 = getelementptr inbounds [32 x %union.VectorReg], [32 x %union.VectorReg]* %9, i64 0, i64 0
  %XMM0 = bitcast %union.VectorReg* %10 to %union.vec128_t*
  %11 = load i64, i64* %RBP
  %12 = sub i64 %11, 80
  %13 = bitcast %union.vec128_t* %XMM0 to i8*
  %14 = load i64, i64* %PC
  %15 = add i64 %14, 5
  store i64 %15, i64* %PC
  %16 = call %struct.Memory* @_ZN12_GLOBAL__N_1L9MOVSD_MEMI4MVnWI7vec64_tE2VnI8vec128_tEEEP6MemoryS8_R5StateT_T0_(%struct.Memory* %2, %struct.State* %0, i64 %12, i8* %13)
  ret %struct.Memory* %16
}




define %struct.Memory* @routine_movslq_MINUS0x24__rbp____rdx(%struct.State*  dereferenceable(3376), i64, %struct.Memory* ) #19 {
block_400488:
  %3 = getelementptr inbounds %struct.State, %struct.State* %0, i32 0, i32 6
  %4 = getelementptr inbounds %struct.GPR, %struct.GPR* %3, i32 0, i32 33
  %5 = getelementptr inbounds %struct.Reg, %struct.Reg* %4, i32 0, i32 0
  %PC = bitcast %union.anon* %5 to i64*
  %6 = getelementptr inbounds %struct.State, %struct.State* %0, i32 0, i32 6
  %7 = getelementptr inbounds %struct.GPR, %struct.GPR* %6, i32 0, i32 7
  %8 = getelementptr inbounds %struct.Reg, %struct.Reg* %7, i32 0, i32 0
  %RDX = bitcast %union.anon* %8 to i64*
  %9 = getelementptr inbounds %struct.State, %struct.State* %0, i32 0, i32 6
  %10 = getelementptr inbounds %struct.GPR, %struct.GPR* %9, i32 0, i32 15
  %11 = getelementptr inbounds %struct.Reg, %struct.Reg* %10, i32 0, i32 0
  %RBP = bitcast %union.anon* %11 to i64*
  %12 = load i64, i64* %RBP
  %13 = sub i64 %12, 36
  %14 = load i64, i64* %PC
  %15 = add i64 %14, 4
  store i64 %15, i64* %PC
  %16 = call %struct.Memory* @_ZN12_GLOBAL__N_1L5MOVSXI3RnWImE2MnIjElEEP6MemoryS6_R5StateT_T0_(%struct.Memory* %2, %struct.State* %0, i64* %RDX, i64 %13)
  ret %struct.Memory* %16
}






define %struct.Memory* @routine_movslq_MINUS0x28__rbp____rdx(%struct.State*  dereferenceable(3376), i64, %struct.Memory* ) #19 {
block_400488:
  %3 = getelementptr inbounds %struct.State, %struct.State* %0, i32 0, i32 6
  %4 = getelementptr inbounds %struct.GPR, %struct.GPR* %3, i32 0, i32 33
  %5 = getelementptr inbounds %struct.Reg, %struct.Reg* %4, i32 0, i32 0
  %PC = bitcast %union.anon* %5 to i64*
  %6 = getelementptr inbounds %struct.State, %struct.State* %0, i32 0, i32 6
  %7 = getelementptr inbounds %struct.GPR, %struct.GPR* %6, i32 0, i32 7
  %8 = getelementptr inbounds %struct.Reg, %struct.Reg* %7, i32 0, i32 0
  %RDX = bitcast %union.anon* %8 to i64*
  %9 = getelementptr inbounds %struct.State, %struct.State* %0, i32 0, i32 6
  %10 = getelementptr inbounds %struct.GPR, %struct.GPR* %9, i32 0, i32 15
  %11 = getelementptr inbounds %struct.Reg, %struct.Reg* %10, i32 0, i32 0
  %RBP = bitcast %union.anon* %11 to i64*
  %12 = load i64, i64* %RBP
  %13 = sub i64 %12, 40
  %14 = load i64, i64* %PC
  %15 = add i64 %14, 4
  store i64 %15, i64* %PC
  %16 = call %struct.Memory* @_ZN12_GLOBAL__N_1L5MOVSXI3RnWImE2MnIjElEEP6MemoryS6_R5StateT_T0_(%struct.Memory* %2, %struct.State* %0, i64* %RDX, i64 %13)
  ret %struct.Memory* %16
}




define %struct.Memory* @routine_movsd__xmm0__MINUS0x58__rbp_(%struct.State*  dereferenceable(3376), i64, %struct.Memory* ) #19 {
block_400488:
  %3 = getelementptr inbounds %struct.State, %struct.State* %0, i32 0, i32 6
  %4 = getelementptr inbounds %struct.GPR, %struct.GPR* %3, i32 0, i32 33
  %5 = getelementptr inbounds %struct.Reg, %struct.Reg* %4, i32 0, i32 0
  %PC = bitcast %union.anon* %5 to i64*
  %6 = getelementptr inbounds %struct.State, %struct.State* %0, i32 0, i32 6
  %7 = getelementptr inbounds %struct.GPR, %struct.GPR* %6, i32 0, i32 15
  %8 = getelementptr inbounds %struct.Reg, %struct.Reg* %7, i32 0, i32 0
  %RBP = bitcast %union.anon* %8 to i64*
  %9 = getelementptr inbounds %struct.State, %struct.State* %0, i32 0, i32 1
  %10 = getelementptr inbounds [32 x %union.VectorReg], [32 x %union.VectorReg]* %9, i64 0, i64 0
  %XMM0 = bitcast %union.VectorReg* %10 to %union.vec128_t*
  %11 = load i64, i64* %RBP
  %12 = sub i64 %11, 88
  %13 = bitcast %union.vec128_t* %XMM0 to i8*
  %14 = load i64, i64* %PC
  %15 = add i64 %14, 5
  store i64 %15, i64* %PC
  %16 = call %struct.Memory* @_ZN12_GLOBAL__N_1L9MOVSD_MEMI4MVnWI7vec64_tE2VnI8vec128_tEEEP6MemoryS8_R5StateT_T0_(%struct.Memory* %2, %struct.State* %0, i64 %12, i8* %13)
  ret %struct.Memory* %16
}














define %struct.Memory* @routine_movl_MINUS0x28__rbp____eax(%struct.State*  dereferenceable(3376), i64, %struct.Memory* ) #19 {
block_400488:
  %3 = getelementptr inbounds %struct.State, %struct.State* %0, i32 0, i32 6
  %4 = getelementptr inbounds %struct.GPR, %struct.GPR* %3, i32 0, i32 33
  %5 = getelementptr inbounds %struct.Reg, %struct.Reg* %4, i32 0, i32 0
  %PC = bitcast %union.anon* %5 to i64*
  %6 = getelementptr inbounds %struct.State, %struct.State* %0, i32 0, i32 6
  %7 = getelementptr inbounds %struct.GPR, %struct.GPR* %6, i32 0, i32 1
  %8 = getelementptr inbounds %struct.Reg, %struct.Reg* %7, i32 0, i32 0
  %RAX = bitcast %union.anon* %8 to i64*
  %9 = getelementptr inbounds %struct.State, %struct.State* %0, i32 0, i32 6
  %10 = getelementptr inbounds %struct.GPR, %struct.GPR* %9, i32 0, i32 15
  %11 = getelementptr inbounds %struct.Reg, %struct.Reg* %10, i32 0, i32 0
  %RBP = bitcast %union.anon* %11 to i64*
  %12 = load i64, i64* %RBP
  %13 = sub i64 %12, 40
  %14 = load i64, i64* %PC
  %15 = add i64 %14, 3
  store i64 %15, i64* %PC
  %16 = call %struct.Memory* @_ZN12_GLOBAL__N_1L3MOVI3RnWImE2MnIjEEEP6MemoryS6_R5StateT_T0_(%struct.Memory* %2, %struct.State* %0, i64* %RAX, i64 %13)
  ret %struct.Memory* %16
}








define %struct.Memory* @routine_movsd__xmm0__MINUS0x60__rbp_(%struct.State*  dereferenceable(3376), i64, %struct.Memory* ) #19 {
block_400488:
  %3 = getelementptr inbounds %struct.State, %struct.State* %0, i32 0, i32 6
  %4 = getelementptr inbounds %struct.GPR, %struct.GPR* %3, i32 0, i32 33
  %5 = getelementptr inbounds %struct.Reg, %struct.Reg* %4, i32 0, i32 0
  %PC = bitcast %union.anon* %5 to i64*
  %6 = getelementptr inbounds %struct.State, %struct.State* %0, i32 0, i32 6
  %7 = getelementptr inbounds %struct.GPR, %struct.GPR* %6, i32 0, i32 15
  %8 = getelementptr inbounds %struct.Reg, %struct.Reg* %7, i32 0, i32 0
  %RBP = bitcast %union.anon* %8 to i64*
  %9 = getelementptr inbounds %struct.State, %struct.State* %0, i32 0, i32 1
  %10 = getelementptr inbounds [32 x %union.VectorReg], [32 x %union.VectorReg]* %9, i64 0, i64 0
  %XMM0 = bitcast %union.VectorReg* %10 to %union.vec128_t*
  %11 = load i64, i64* %RBP
  %12 = sub i64 %11, 96
  %13 = bitcast %union.vec128_t* %XMM0 to i8*
  %14 = load i64, i64* %PC
  %15 = add i64 %14, 5
  store i64 %15, i64* %PC
  %16 = call %struct.Memory* @_ZN12_GLOBAL__N_1L9MOVSD_MEMI4MVnWI7vec64_tE2VnI8vec128_tEEEP6MemoryS8_R5StateT_T0_(%struct.Memory* %2, %struct.State* %0, i64 %12, i8* %13)
  ret %struct.Memory* %16
}














define %struct.Memory* @routine_movsd__xmm0__MINUS0x68__rbp_(%struct.State*  dereferenceable(3376), i64, %struct.Memory* ) #19 {
block_400488:
  %3 = getelementptr inbounds %struct.State, %struct.State* %0, i32 0, i32 6
  %4 = getelementptr inbounds %struct.GPR, %struct.GPR* %3, i32 0, i32 33
  %5 = getelementptr inbounds %struct.Reg, %struct.Reg* %4, i32 0, i32 0
  %PC = bitcast %union.anon* %5 to i64*
  %6 = getelementptr inbounds %struct.State, %struct.State* %0, i32 0, i32 6
  %7 = getelementptr inbounds %struct.GPR, %struct.GPR* %6, i32 0, i32 15
  %8 = getelementptr inbounds %struct.Reg, %struct.Reg* %7, i32 0, i32 0
  %RBP = bitcast %union.anon* %8 to i64*
  %9 = getelementptr inbounds %struct.State, %struct.State* %0, i32 0, i32 1
  %10 = getelementptr inbounds [32 x %union.VectorReg], [32 x %union.VectorReg]* %9, i64 0, i64 0
  %XMM0 = bitcast %union.VectorReg* %10 to %union.vec128_t*
  %11 = load i64, i64* %RBP
  %12 = sub i64 %11, 104
  %13 = bitcast %union.vec128_t* %XMM0 to i8*
  %14 = load i64, i64* %PC
  %15 = add i64 %14, 5
  store i64 %15, i64* %PC
  %16 = call %struct.Memory* @_ZN12_GLOBAL__N_1L9MOVSD_MEMI4MVnWI7vec64_tE2VnI8vec128_tEEEP6MemoryS8_R5StateT_T0_(%struct.Memory* %2, %struct.State* %0, i64 %12, i8* %13)
  ret %struct.Memory* %16
}






















define %struct.Memory* @routine_movsd__xmm0__MINUS0x70__rbp_(%struct.State*  dereferenceable(3376), i64, %struct.Memory* ) #19 {
block_400488:
  %3 = getelementptr inbounds %struct.State, %struct.State* %0, i32 0, i32 6
  %4 = getelementptr inbounds %struct.GPR, %struct.GPR* %3, i32 0, i32 33
  %5 = getelementptr inbounds %struct.Reg, %struct.Reg* %4, i32 0, i32 0
  %PC = bitcast %union.anon* %5 to i64*
  %6 = getelementptr inbounds %struct.State, %struct.State* %0, i32 0, i32 6
  %7 = getelementptr inbounds %struct.GPR, %struct.GPR* %6, i32 0, i32 15
  %8 = getelementptr inbounds %struct.Reg, %struct.Reg* %7, i32 0, i32 0
  %RBP = bitcast %union.anon* %8 to i64*
  %9 = getelementptr inbounds %struct.State, %struct.State* %0, i32 0, i32 1
  %10 = getelementptr inbounds [32 x %union.VectorReg], [32 x %union.VectorReg]* %9, i64 0, i64 0
  %XMM0 = bitcast %union.VectorReg* %10 to %union.vec128_t*
  %11 = load i64, i64* %RBP
  %12 = sub i64 %11, 112
  %13 = bitcast %union.vec128_t* %XMM0 to i8*
  %14 = load i64, i64* %PC
  %15 = add i64 %14, 5
  store i64 %15, i64* %PC
  %16 = call %struct.Memory* @_ZN12_GLOBAL__N_1L9MOVSD_MEMI4MVnWI7vec64_tE2VnI8vec128_tEEEP6MemoryS8_R5StateT_T0_(%struct.Memory* %2, %struct.State* %0, i64 %12, i8* %13)
  ret %struct.Memory* %16
}


define %struct.Memory* @routine_movsd_MINUS0x38__rbp____xmm0(%struct.State*  dereferenceable(3376), i64, %struct.Memory* ) #19 {
block_400488:
  %3 = getelementptr inbounds %struct.State, %struct.State* %0, i32 0, i32 6
  %4 = getelementptr inbounds %struct.GPR, %struct.GPR* %3, i32 0, i32 33
  %5 = getelementptr inbounds %struct.Reg, %struct.Reg* %4, i32 0, i32 0
  %PC = bitcast %union.anon* %5 to i64*
  %6 = getelementptr inbounds %struct.State, %struct.State* %0, i32 0, i32 6
  %7 = getelementptr inbounds %struct.GPR, %struct.GPR* %6, i32 0, i32 15
  %8 = getelementptr inbounds %struct.Reg, %struct.Reg* %7, i32 0, i32 0
  %RBP = bitcast %union.anon* %8 to i64*
  %9 = getelementptr inbounds %struct.State, %struct.State* %0, i32 0, i32 1
  %10 = getelementptr inbounds [32 x %union.VectorReg], [32 x %union.VectorReg]* %9, i64 0, i64 0
  %YMM0 = bitcast %union.VectorReg* %10 to %"class.std::bitset"*
  %11 = bitcast %"class.std::bitset"* %YMM0 to i8*
  %12 = load i64, i64* %RBP
  %13 = sub i64 %12, 56
  %14 = load i64, i64* %PC
  %15 = add i64 %14, 5
  store i64 %15, i64* %PC
  %16 = call %struct.Memory* @_ZN12_GLOBAL__N_1L9MOVSD_MEMI3VnWI8vec128_tE3MVnI7vec64_tEEEP6MemoryS8_R5StateT_T0_(%struct.Memory* %2, %struct.State* %0, i8* %11, i64 %13)
  ret %struct.Memory* %16
}


define %struct.Memory* @routine_addsd_MINUS0x58__rbp____xmm0(%struct.State*  dereferenceable(3376), i64, %struct.Memory* ) #19 {
block_400488:
  %3 = getelementptr inbounds %struct.State, %struct.State* %0, i32 0, i32 6
  %4 = getelementptr inbounds %struct.GPR, %struct.GPR* %3, i32 0, i32 33
  %5 = getelementptr inbounds %struct.Reg, %struct.Reg* %4, i32 0, i32 0
  %PC = bitcast %union.anon* %5 to i64*
  %6 = getelementptr inbounds %struct.State, %struct.State* %0, i32 0, i32 6
  %7 = getelementptr inbounds %struct.GPR, %struct.GPR* %6, i32 0, i32 15
  %8 = getelementptr inbounds %struct.Reg, %struct.Reg* %7, i32 0, i32 0
  %RBP = bitcast %union.anon* %8 to i64*
  %9 = getelementptr inbounds %struct.State, %struct.State* %0, i32 0, i32 1
  %10 = getelementptr inbounds [32 x %union.VectorReg], [32 x %union.VectorReg]* %9, i64 0, i64 0
  %YMM0 = bitcast %union.VectorReg* %10 to %"class.std::bitset"*
  %11 = bitcast %"class.std::bitset"* %YMM0 to i8*
  %12 = bitcast %"class.std::bitset"* %YMM0 to i8*
  %13 = load i64, i64* %RBP
  %14 = sub i64 %13, 88
  %15 = load i64, i64* %PC
  %16 = add i64 %15, 5
  store i64 %16, i64* %PC
  %17 = call %struct.Memory* @_ZN12_GLOBAL__N_1L5ADDSDI3VnWI8vec128_tE2VnIS2_E3MVnI7vec64_tEEEP6MemorySA_R5StateT_T0_T1_(%struct.Memory* %2, %struct.State* %0, i8* %11, i8* %12, i64 %14)
  ret %struct.Memory* %17
}






define %struct.Memory* @routine_movsd__xmm0____rcx__rdx_8_(%struct.State*  dereferenceable(3376), i64, %struct.Memory* ) #19 {
block_400488:
  %3 = getelementptr inbounds %struct.State, %struct.State* %0, i32 0, i32 6
  %4 = getelementptr inbounds %struct.GPR, %struct.GPR* %3, i32 0, i32 33
  %5 = getelementptr inbounds %struct.Reg, %struct.Reg* %4, i32 0, i32 0
  %PC = bitcast %union.anon* %5 to i64*
  %6 = getelementptr inbounds %struct.State, %struct.State* %0, i32 0, i32 6
  %7 = getelementptr inbounds %struct.GPR, %struct.GPR* %6, i32 0, i32 5
  %8 = getelementptr inbounds %struct.Reg, %struct.Reg* %7, i32 0, i32 0
  %RCX = bitcast %union.anon* %8 to i64*
  %9 = getelementptr inbounds %struct.State, %struct.State* %0, i32 0, i32 6
  %10 = getelementptr inbounds %struct.GPR, %struct.GPR* %9, i32 0, i32 7
  %11 = getelementptr inbounds %struct.Reg, %struct.Reg* %10, i32 0, i32 0
  %RDX = bitcast %union.anon* %11 to i64*
  %12 = getelementptr inbounds %struct.State, %struct.State* %0, i32 0, i32 1
  %13 = getelementptr inbounds [32 x %union.VectorReg], [32 x %union.VectorReg]* %12, i64 0, i64 0
  %XMM0 = bitcast %union.VectorReg* %13 to %union.vec128_t*
  %14 = load i64, i64* %RCX
  %15 = load i64, i64* %RDX
  %16 = mul i64 %15, 8
  %17 = add i64 %16, %14
  %18 = bitcast %union.vec128_t* %XMM0 to i8*
  %19 = load i64, i64* %PC
  %20 = add i64 %19, 5
  store i64 %20, i64* %PC
  %21 = call %struct.Memory* @_ZN12_GLOBAL__N_1L9MOVSD_MEMI4MVnWI7vec64_tE2VnI8vec128_tEEEP6MemoryS8_R5StateT_T0_(%struct.Memory* %2, %struct.State* %0, i64 %17, i8* %18)
  ret %struct.Memory* %21
}


define %struct.Memory* @routine_movsd_MINUS0x40__rbp____xmm0(%struct.State*  dereferenceable(3376), i64, %struct.Memory* ) #19 {
block_400488:
  %3 = getelementptr inbounds %struct.State, %struct.State* %0, i32 0, i32 6
  %4 = getelementptr inbounds %struct.GPR, %struct.GPR* %3, i32 0, i32 33
  %5 = getelementptr inbounds %struct.Reg, %struct.Reg* %4, i32 0, i32 0
  %PC = bitcast %union.anon* %5 to i64*
  %6 = getelementptr inbounds %struct.State, %struct.State* %0, i32 0, i32 6
  %7 = getelementptr inbounds %struct.GPR, %struct.GPR* %6, i32 0, i32 15
  %8 = getelementptr inbounds %struct.Reg, %struct.Reg* %7, i32 0, i32 0
  %RBP = bitcast %union.anon* %8 to i64*
  %9 = getelementptr inbounds %struct.State, %struct.State* %0, i32 0, i32 1
  %10 = getelementptr inbounds [32 x %union.VectorReg], [32 x %union.VectorReg]* %9, i64 0, i64 0
  %YMM0 = bitcast %union.VectorReg* %10 to %"class.std::bitset"*
  %11 = bitcast %"class.std::bitset"* %YMM0 to i8*
  %12 = load i64, i64* %RBP
  %13 = sub i64 %12, 64
  %14 = load i64, i64* %PC
  %15 = add i64 %14, 5
  store i64 %15, i64* %PC
  %16 = call %struct.Memory* @_ZN12_GLOBAL__N_1L9MOVSD_MEMI3VnWI8vec128_tE3MVnI7vec64_tEEEP6MemoryS8_R5StateT_T0_(%struct.Memory* %2, %struct.State* %0, i8* %11, i64 %13)
  ret %struct.Memory* %16
}


define %struct.Memory* @routine_addsd_MINUS0x60__rbp____xmm0(%struct.State*  dereferenceable(3376), i64, %struct.Memory* ) #19 {
block_400488:
  %3 = getelementptr inbounds %struct.State, %struct.State* %0, i32 0, i32 6
  %4 = getelementptr inbounds %struct.GPR, %struct.GPR* %3, i32 0, i32 33
  %5 = getelementptr inbounds %struct.Reg, %struct.Reg* %4, i32 0, i32 0
  %PC = bitcast %union.anon* %5 to i64*
  %6 = getelementptr inbounds %struct.State, %struct.State* %0, i32 0, i32 6
  %7 = getelementptr inbounds %struct.GPR, %struct.GPR* %6, i32 0, i32 15
  %8 = getelementptr inbounds %struct.Reg, %struct.Reg* %7, i32 0, i32 0
  %RBP = bitcast %union.anon* %8 to i64*
  %9 = getelementptr inbounds %struct.State, %struct.State* %0, i32 0, i32 1
  %10 = getelementptr inbounds [32 x %union.VectorReg], [32 x %union.VectorReg]* %9, i64 0, i64 0
  %YMM0 = bitcast %union.VectorReg* %10 to %"class.std::bitset"*
  %11 = bitcast %"class.std::bitset"* %YMM0 to i8*
  %12 = bitcast %"class.std::bitset"* %YMM0 to i8*
  %13 = load i64, i64* %RBP
  %14 = sub i64 %13, 96
  %15 = load i64, i64* %PC
  %16 = add i64 %15, 5
  store i64 %16, i64* %PC
  %17 = call %struct.Memory* @_ZN12_GLOBAL__N_1L5ADDSDI3VnWI8vec128_tE2VnIS2_E3MVnI7vec64_tEEEP6MemorySA_R5StateT_T0_T1_(%struct.Memory* %2, %struct.State* %0, i8* %11, i8* %12, i64 %14)
  ret %struct.Memory* %17
}














define %struct.Memory* @routine_subsd_MINUS0x58__rbp____xmm0(%struct.State*  dereferenceable(3376), i64, %struct.Memory* ) #19 {
block_400488:
  %3 = getelementptr inbounds %struct.State, %struct.State* %0, i32 0, i32 6
  %4 = getelementptr inbounds %struct.GPR, %struct.GPR* %3, i32 0, i32 33
  %5 = getelementptr inbounds %struct.Reg, %struct.Reg* %4, i32 0, i32 0
  %PC = bitcast %union.anon* %5 to i64*
  %6 = getelementptr inbounds %struct.State, %struct.State* %0, i32 0, i32 6
  %7 = getelementptr inbounds %struct.GPR, %struct.GPR* %6, i32 0, i32 15
  %8 = getelementptr inbounds %struct.Reg, %struct.Reg* %7, i32 0, i32 0
  %RBP = bitcast %union.anon* %8 to i64*
  %9 = getelementptr inbounds %struct.State, %struct.State* %0, i32 0, i32 1
  %10 = getelementptr inbounds [32 x %union.VectorReg], [32 x %union.VectorReg]* %9, i64 0, i64 0
  %YMM0 = bitcast %union.VectorReg* %10 to %"class.std::bitset"*
  %11 = bitcast %"class.std::bitset"* %YMM0 to i8*
  %12 = bitcast %"class.std::bitset"* %YMM0 to i8*
  %13 = load i64, i64* %RBP
  %14 = sub i64 %13, 88
  %15 = load i64, i64* %PC
  %16 = add i64 %15, 5
  store i64 %16, i64* %PC
  %17 = call %struct.Memory* @_ZN12_GLOBAL__N_1L5SUBSDI3VnWI8vec128_tE2VnIS2_E3MVnI7vec64_tEEEP6MemorySA_R5StateT_T0_T1_(%struct.Memory* %2, %struct.State* %0, i8* %11, i8* %12, i64 %14)
  ret %struct.Memory* %17
}










define %struct.Memory* @routine_subsd_MINUS0x60__rbp____xmm0(%struct.State*  dereferenceable(3376), i64, %struct.Memory* ) #19 {
block_400488:
  %3 = getelementptr inbounds %struct.State, %struct.State* %0, i32 0, i32 6
  %4 = getelementptr inbounds %struct.GPR, %struct.GPR* %3, i32 0, i32 33
  %5 = getelementptr inbounds %struct.Reg, %struct.Reg* %4, i32 0, i32 0
  %PC = bitcast %union.anon* %5 to i64*
  %6 = getelementptr inbounds %struct.State, %struct.State* %0, i32 0, i32 6
  %7 = getelementptr inbounds %struct.GPR, %struct.GPR* %6, i32 0, i32 15
  %8 = getelementptr inbounds %struct.Reg, %struct.Reg* %7, i32 0, i32 0
  %RBP = bitcast %union.anon* %8 to i64*
  %9 = getelementptr inbounds %struct.State, %struct.State* %0, i32 0, i32 1
  %10 = getelementptr inbounds [32 x %union.VectorReg], [32 x %union.VectorReg]* %9, i64 0, i64 0
  %YMM0 = bitcast %union.VectorReg* %10 to %"class.std::bitset"*
  %11 = bitcast %"class.std::bitset"* %YMM0 to i8*
  %12 = bitcast %"class.std::bitset"* %YMM0 to i8*
  %13 = load i64, i64* %RBP
  %14 = sub i64 %13, 96
  %15 = load i64, i64* %PC
  %16 = add i64 %15, 5
  store i64 %16, i64* %PC
  %17 = call %struct.Memory* @_ZN12_GLOBAL__N_1L5SUBSDI3VnWI8vec128_tE2VnIS2_E3MVnI7vec64_tEEEP6MemorySA_R5StateT_T0_T1_(%struct.Memory* %2, %struct.State* %0, i8* %11, i8* %12, i64 %14)
  ret %struct.Memory* %17
}












define %struct.Memory* @routine_movsd_MINUS0x48__rbp____xmm0(%struct.State*  dereferenceable(3376), i64, %struct.Memory* ) #19 {
block_400488:
  %3 = getelementptr inbounds %struct.State, %struct.State* %0, i32 0, i32 6
  %4 = getelementptr inbounds %struct.GPR, %struct.GPR* %3, i32 0, i32 33
  %5 = getelementptr inbounds %struct.Reg, %struct.Reg* %4, i32 0, i32 0
  %PC = bitcast %union.anon* %5 to i64*
  %6 = getelementptr inbounds %struct.State, %struct.State* %0, i32 0, i32 6
  %7 = getelementptr inbounds %struct.GPR, %struct.GPR* %6, i32 0, i32 15
  %8 = getelementptr inbounds %struct.Reg, %struct.Reg* %7, i32 0, i32 0
  %RBP = bitcast %union.anon* %8 to i64*
  %9 = getelementptr inbounds %struct.State, %struct.State* %0, i32 0, i32 1
  %10 = getelementptr inbounds [32 x %union.VectorReg], [32 x %union.VectorReg]* %9, i64 0, i64 0
  %YMM0 = bitcast %union.VectorReg* %10 to %"class.std::bitset"*
  %11 = bitcast %"class.std::bitset"* %YMM0 to i8*
  %12 = load i64, i64* %RBP
  %13 = sub i64 %12, 72
  %14 = load i64, i64* %PC
  %15 = add i64 %14, 5
  store i64 %15, i64* %PC
  %16 = call %struct.Memory* @_ZN12_GLOBAL__N_1L9MOVSD_MEMI3VnWI8vec128_tE3MVnI7vec64_tEEEP6MemoryS8_R5StateT_T0_(%struct.Memory* %2, %struct.State* %0, i8* %11, i64 %13)
  ret %struct.Memory* %16
}


define %struct.Memory* @routine_subsd_MINUS0x70__rbp____xmm0(%struct.State*  dereferenceable(3376), i64, %struct.Memory* ) #19 {
block_400488:
  %3 = getelementptr inbounds %struct.State, %struct.State* %0, i32 0, i32 6
  %4 = getelementptr inbounds %struct.GPR, %struct.GPR* %3, i32 0, i32 33
  %5 = getelementptr inbounds %struct.Reg, %struct.Reg* %4, i32 0, i32 0
  %PC = bitcast %union.anon* %5 to i64*
  %6 = getelementptr inbounds %struct.State, %struct.State* %0, i32 0, i32 6
  %7 = getelementptr inbounds %struct.GPR, %struct.GPR* %6, i32 0, i32 15
  %8 = getelementptr inbounds %struct.Reg, %struct.Reg* %7, i32 0, i32 0
  %RBP = bitcast %union.anon* %8 to i64*
  %9 = getelementptr inbounds %struct.State, %struct.State* %0, i32 0, i32 1
  %10 = getelementptr inbounds [32 x %union.VectorReg], [32 x %union.VectorReg]* %9, i64 0, i64 0
  %YMM0 = bitcast %union.VectorReg* %10 to %"class.std::bitset"*
  %11 = bitcast %"class.std::bitset"* %YMM0 to i8*
  %12 = bitcast %"class.std::bitset"* %YMM0 to i8*
  %13 = load i64, i64* %RBP
  %14 = sub i64 %13, 112
  %15 = load i64, i64* %PC
  %16 = add i64 %15, 5
  store i64 %16, i64* %PC
  %17 = call %struct.Memory* @_ZN12_GLOBAL__N_1L5SUBSDI3VnWI8vec128_tE2VnIS2_E3MVnI7vec64_tEEEP6MemorySA_R5StateT_T0_T1_(%struct.Memory* %2, %struct.State* %0, i8* %11, i8* %12, i64 %14)
  ret %struct.Memory* %17
}








define %struct.Memory* @routine_movsd_MINUS0x50__rbp____xmm0(%struct.State*  dereferenceable(3376), i64, %struct.Memory* ) #19 {
block_400488:
  %3 = getelementptr inbounds %struct.State, %struct.State* %0, i32 0, i32 6
  %4 = getelementptr inbounds %struct.GPR, %struct.GPR* %3, i32 0, i32 33
  %5 = getelementptr inbounds %struct.Reg, %struct.Reg* %4, i32 0, i32 0
  %PC = bitcast %union.anon* %5 to i64*
  %6 = getelementptr inbounds %struct.State, %struct.State* %0, i32 0, i32 6
  %7 = getelementptr inbounds %struct.GPR, %struct.GPR* %6, i32 0, i32 15
  %8 = getelementptr inbounds %struct.Reg, %struct.Reg* %7, i32 0, i32 0
  %RBP = bitcast %union.anon* %8 to i64*
  %9 = getelementptr inbounds %struct.State, %struct.State* %0, i32 0, i32 1
  %10 = getelementptr inbounds [32 x %union.VectorReg], [32 x %union.VectorReg]* %9, i64 0, i64 0
  %YMM0 = bitcast %union.VectorReg* %10 to %"class.std::bitset"*
  %11 = bitcast %"class.std::bitset"* %YMM0 to i8*
  %12 = load i64, i64* %RBP
  %13 = sub i64 %12, 80
  %14 = load i64, i64* %PC
  %15 = add i64 %14, 5
  store i64 %15, i64* %PC
  %16 = call %struct.Memory* @_ZN12_GLOBAL__N_1L9MOVSD_MEMI3VnWI8vec128_tE3MVnI7vec64_tEEEP6MemoryS8_R5StateT_T0_(%struct.Memory* %2, %struct.State* %0, i8* %11, i64 %13)
  ret %struct.Memory* %16
}


define %struct.Memory* @routine_addsd_MINUS0x68__rbp____xmm0(%struct.State*  dereferenceable(3376), i64, %struct.Memory* ) #19 {
block_400488:
  %3 = getelementptr inbounds %struct.State, %struct.State* %0, i32 0, i32 6
  %4 = getelementptr inbounds %struct.GPR, %struct.GPR* %3, i32 0, i32 33
  %5 = getelementptr inbounds %struct.Reg, %struct.Reg* %4, i32 0, i32 0
  %PC = bitcast %union.anon* %5 to i64*
  %6 = getelementptr inbounds %struct.State, %struct.State* %0, i32 0, i32 6
  %7 = getelementptr inbounds %struct.GPR, %struct.GPR* %6, i32 0, i32 15
  %8 = getelementptr inbounds %struct.Reg, %struct.Reg* %7, i32 0, i32 0
  %RBP = bitcast %union.anon* %8 to i64*
  %9 = getelementptr inbounds %struct.State, %struct.State* %0, i32 0, i32 1
  %10 = getelementptr inbounds [32 x %union.VectorReg], [32 x %union.VectorReg]* %9, i64 0, i64 0
  %YMM0 = bitcast %union.VectorReg* %10 to %"class.std::bitset"*
  %11 = bitcast %"class.std::bitset"* %YMM0 to i8*
  %12 = bitcast %"class.std::bitset"* %YMM0 to i8*
  %13 = load i64, i64* %RBP
  %14 = sub i64 %13, 104
  %15 = load i64, i64* %PC
  %16 = add i64 %15, 5
  store i64 %16, i64* %PC
  %17 = call %struct.Memory* @_ZN12_GLOBAL__N_1L5ADDSDI3VnWI8vec128_tE2VnIS2_E3MVnI7vec64_tEEEP6MemorySA_R5StateT_T0_T1_(%struct.Memory* %2, %struct.State* %0, i8* %11, i8* %12, i64 %14)
  ret %struct.Memory* %17
}














define %struct.Memory* @routine_addsd_MINUS0x70__rbp____xmm0(%struct.State*  dereferenceable(3376), i64, %struct.Memory* ) #19 {
block_400488:
  %3 = getelementptr inbounds %struct.State, %struct.State* %0, i32 0, i32 6
  %4 = getelementptr inbounds %struct.GPR, %struct.GPR* %3, i32 0, i32 33
  %5 = getelementptr inbounds %struct.Reg, %struct.Reg* %4, i32 0, i32 0
  %PC = bitcast %union.anon* %5 to i64*
  %6 = getelementptr inbounds %struct.State, %struct.State* %0, i32 0, i32 6
  %7 = getelementptr inbounds %struct.GPR, %struct.GPR* %6, i32 0, i32 15
  %8 = getelementptr inbounds %struct.Reg, %struct.Reg* %7, i32 0, i32 0
  %RBP = bitcast %union.anon* %8 to i64*
  %9 = getelementptr inbounds %struct.State, %struct.State* %0, i32 0, i32 1
  %10 = getelementptr inbounds [32 x %union.VectorReg], [32 x %union.VectorReg]* %9, i64 0, i64 0
  %YMM0 = bitcast %union.VectorReg* %10 to %"class.std::bitset"*
  %11 = bitcast %"class.std::bitset"* %YMM0 to i8*
  %12 = bitcast %"class.std::bitset"* %YMM0 to i8*
  %13 = load i64, i64* %RBP
  %14 = sub i64 %13, 112
  %15 = load i64, i64* %PC
  %16 = add i64 %15, 5
  store i64 %16, i64* %PC
  %17 = call %struct.Memory* @_ZN12_GLOBAL__N_1L5ADDSDI3VnWI8vec128_tE2VnIS2_E3MVnI7vec64_tEEEP6MemorySA_R5StateT_T0_T1_(%struct.Memory* %2, %struct.State* %0, i8* %11, i8* %12, i64 %14)
  ret %struct.Memory* %17
}










define %struct.Memory* @routine_subsd_MINUS0x68__rbp____xmm0(%struct.State*  dereferenceable(3376), i64, %struct.Memory* ) #19 {
block_400488:
  %3 = getelementptr inbounds %struct.State, %struct.State* %0, i32 0, i32 6
  %4 = getelementptr inbounds %struct.GPR, %struct.GPR* %3, i32 0, i32 33
  %5 = getelementptr inbounds %struct.Reg, %struct.Reg* %4, i32 0, i32 0
  %PC = bitcast %union.anon* %5 to i64*
  %6 = getelementptr inbounds %struct.State, %struct.State* %0, i32 0, i32 6
  %7 = getelementptr inbounds %struct.GPR, %struct.GPR* %6, i32 0, i32 15
  %8 = getelementptr inbounds %struct.Reg, %struct.Reg* %7, i32 0, i32 0
  %RBP = bitcast %union.anon* %8 to i64*
  %9 = getelementptr inbounds %struct.State, %struct.State* %0, i32 0, i32 1
  %10 = getelementptr inbounds [32 x %union.VectorReg], [32 x %union.VectorReg]* %9, i64 0, i64 0
  %YMM0 = bitcast %union.VectorReg* %10 to %"class.std::bitset"*
  %11 = bitcast %"class.std::bitset"* %YMM0 to i8*
  %12 = bitcast %"class.std::bitset"* %YMM0 to i8*
  %13 = load i64, i64* %RBP
  %14 = sub i64 %13, 104
  %15 = load i64, i64* %PC
  %16 = add i64 %15, 5
  store i64 %16, i64* %PC
  %17 = call %struct.Memory* @_ZN12_GLOBAL__N_1L5SUBSDI3VnWI8vec128_tE2VnIS2_E3MVnI7vec64_tEEEP6MemorySA_R5StateT_T0_T1_(%struct.Memory* %2, %struct.State* %0, i8* %11, i8* %12, i64 %14)
  ret %struct.Memory* %17
}














define %struct.Memory* @routine_addl__0x2___eax(%struct.State*  dereferenceable(3376), i64, %struct.Memory* ) #19 {
block_400488:
  %3 = getelementptr inbounds %struct.State, %struct.State* %0, i32 0, i32 6
  %4 = getelementptr inbounds %struct.GPR, %struct.GPR* %3, i32 0, i32 33
  %5 = getelementptr inbounds %struct.Reg, %struct.Reg* %4, i32 0, i32 0
  %PC = bitcast %union.anon* %5 to i64*
  %6 = getelementptr inbounds %struct.State, %struct.State* %0, i32 0, i32 6
  %7 = getelementptr inbounds %struct.GPR, %struct.GPR* %6, i32 0, i32 1
  %8 = getelementptr inbounds %struct.Reg, %struct.Reg* %7, i32 0, i32 0
  %RAX = bitcast %union.anon* %8 to i64*
  %9 = load i64, i64* %RAX
  %10 = load i64, i64* %PC
  %11 = add i64 %10, 3
  store i64 %11, i64* %PC
  %12 = call %struct.Memory* @_ZN12_GLOBAL__N_1L3ADDI3RnWImE2RnIjE2InIjEEEP6MemoryS8_R5StateT_T0_T1_(%struct.Memory* %2, %struct.State* %0, i64* %RAX, i64 %9, i64 2)
  ret %struct.Memory* %12
}


define %struct.Memory* @routine_movl__eax__MINUS0x1c__rbp_(%struct.State*  dereferenceable(3376), i64, %struct.Memory* ) #19 {
block_400488:
  %3 = getelementptr inbounds %struct.State, %struct.State* %0, i32 0, i32 6
  %4 = getelementptr inbounds %struct.GPR, %struct.GPR* %3, i32 0, i32 33
  %5 = getelementptr inbounds %struct.Reg, %struct.Reg* %4, i32 0, i32 0
  %PC = bitcast %union.anon* %5 to i64*
  %6 = getelementptr inbounds %struct.State, %struct.State* %0, i32 0, i32 6
  %7 = getelementptr inbounds %struct.GPR, %struct.GPR* %6, i32 0, i32 1
  %8 = getelementptr inbounds %struct.Reg, %struct.Reg* %7, i32 0, i32 0
  %EAX = bitcast %union.anon* %8 to i32*
  %9 = getelementptr inbounds %struct.State, %struct.State* %0, i32 0, i32 6
  %10 = getelementptr inbounds %struct.GPR, %struct.GPR* %9, i32 0, i32 15
  %11 = getelementptr inbounds %struct.Reg, %struct.Reg* %10, i32 0, i32 0
  %RBP = bitcast %union.anon* %11 to i64*
  %12 = load i64, i64* %RBP
  %13 = sub i64 %12, 28
  %14 = load i32, i32* %EAX
  %15 = zext i32 %14 to i64
  %16 = load i64, i64* %PC
  %17 = add i64 %16, 3
  store i64 %17, i64* %PC
  %18 = call %struct.Memory* @_ZN12_GLOBAL__N_1L3MOVI3MnWIjE2RnIjEEEP6MemoryS6_R5StateT_T0_(%struct.Memory* %2, %struct.State* %0, i64 %13, i64 %15)
  ret %struct.Memory* %18
}


define %struct.Memory* @routine_jmpq_.L_4018e6(%struct.State*  dereferenceable(3376), i64, %struct.Memory*, i64 %rel_off1, i64 %rel_off2) {
block_400488:
  %3 = getelementptr inbounds %struct.State, %struct.State* %0, i32 0, i32 6
  %4 = getelementptr inbounds %struct.GPR, %struct.GPR* %3, i32 0, i32 33
  %5 = getelementptr inbounds %struct.Reg, %struct.Reg* %4, i32 0, i32 0
  %PC = bitcast %union.anon* %5 to i64*
  %6 = load i64, i64* %PC
  %7 = add i64 %6, %rel_off1
  %8 = load i64, i64* %PC
  %9 = add i64 %8, %rel_off2
  store i64 %9, i64* %PC
  %10 = call %struct.Memory* @_ZN12_GLOBAL__N_1L3JMPI2InImEEEP6MemoryS4_R5StateT_(%struct.Memory* %2, %struct.State* %0, i64 %7)
  ret %struct.Memory* %10
}


define %struct.Memory* @routine_jmpq_.L_401bf4(%struct.State*  dereferenceable(3376), i64, %struct.Memory*, i64 %rel_off1, i64 %rel_off2) {
block_400488:
  %3 = getelementptr inbounds %struct.State, %struct.State* %0, i32 0, i32 6
  %4 = getelementptr inbounds %struct.GPR, %struct.GPR* %3, i32 0, i32 33
  %5 = getelementptr inbounds %struct.Reg, %struct.Reg* %4, i32 0, i32 0
  %PC = bitcast %union.anon* %5 to i64*
  %6 = load i64, i64* %PC
  %7 = add i64 %6, %rel_off1
  %8 = load i64, i64* %PC
  %9 = add i64 %8, %rel_off2
  store i64 %9, i64* %PC
  %10 = call %struct.Memory* @_ZN12_GLOBAL__N_1L3JMPI2InImEEEP6MemoryS4_R5StateT_(%struct.Memory* %2, %struct.State* %0, i64 %7)
  ret %struct.Memory* %10
}








define %struct.Memory* @routine_jge_.L_401bef(%struct.State*  dereferenceable(3376), i64, %struct.Memory*, i8* %BRANCH_TAKEN, i64 %rel_off1, i64 %rel_off2, i64 %rel_off3) {
block_400488:
  %3 = getelementptr inbounds %struct.State, %struct.State* %0, i32 0, i32 6
  %4 = getelementptr inbounds %struct.GPR, %struct.GPR* %3, i32 0, i32 33
  %5 = getelementptr inbounds %struct.Reg, %struct.Reg* %4, i32 0, i32 0
  %PC = bitcast %union.anon* %5 to i64*
  %6 = load i64, i64* %PC
  %7 = add i64 %6, %rel_off1
  %8 = load i64, i64* %PC
  %9 = add i64 %8, %rel_off2
  %10 = load i64, i64* %PC
  %11 = add i64 %10, %rel_off3
  store i64 %11, i64* %PC
  %12 = call %struct.Memory* @_ZN12_GLOBAL__N_1L3JNLEP6MemoryR5State3RnWIhE2InImES7_(%struct.Memory* %2, %struct.State* %0, i8* %BRANCH_TAKEN, i64 %7, i64 %9)
  ret %struct.Memory* %12
}










































































































define %struct.Memory* @routine_jmpq_.L_401b13(%struct.State*  dereferenceable(3376), i64, %struct.Memory*, i64 %rel_off1, i64 %rel_off2) {
block_400488:
  %3 = getelementptr inbounds %struct.State, %struct.State* %0, i32 0, i32 6
  %4 = getelementptr inbounds %struct.GPR, %struct.GPR* %3, i32 0, i32 33
  %5 = getelementptr inbounds %struct.Reg, %struct.Reg* %4, i32 0, i32 0
  %PC = bitcast %union.anon* %5 to i64*
  %6 = load i64, i64* %PC
  %7 = add i64 %6, %rel_off1
  %8 = load i64, i64* %PC
  %9 = add i64 %8, %rel_off2
  store i64 %9, i64* %PC
  %10 = call %struct.Memory* @_ZN12_GLOBAL__N_1L3JMPI2InImEEEP6MemoryS4_R5StateT_(%struct.Memory* %2, %struct.State* %0, i64 %7)
  ret %struct.Memory* %10
}



define internal %struct.Memory* @_ZN12_GLOBAL__N_1L3ADDI3RnWImE2RnImE2InImEEEP6MemoryS8_R5StateT_T0_T1_(%struct.Memory* readnone returned, %struct.State* nocapture dereferenceable(3376), i64* nocapture, i64, i64) #0 {
  %6 = add i64 %4, %3
  store i64 %6, i64* %2, align 8
  %7 = icmp ult i64 %6, %3
  %8 = icmp ult i64 %6, %4
  %9 = or i1 %7, %8
  %10 = zext i1 %9 to i8
  %11 = getelementptr inbounds %struct.State, %struct.State* %1, i64 0, i32 2, i32 1
  store i8 %10, i8* %11, align 1
  %12 = trunc i64 %6 to i32
  %13 = and i32 %12, 255
  %14 = tail call i32 @llvm.ctpop.i32(i32 %13) #22
  %15 = trunc i32 %14 to i8
  %16 = and i8 %15, 1
  %17 = xor i8 %16, 1
  %18 = getelementptr inbounds %struct.State, %struct.State* %1, i64 0, i32 2, i32 3
  store i8 %17, i8* %18, align 1
  %19 = xor i64 %4, %3
  %20 = xor i64 %19, %6
  %21 = lshr i64 %20, 4
  %22 = trunc i64 %21 to i8
  %23 = and i8 %22, 1
  %24 = getelementptr inbounds %struct.State, %struct.State* %1, i64 0, i32 2, i32 5
  store i8 %23, i8* %24, align 1
  %25 = icmp eq i64 %6, 0
  %26 = zext i1 %25 to i8
  %27 = getelementptr inbounds %struct.State, %struct.State* %1, i64 0, i32 2, i32 7
  store i8 %26, i8* %27, align 1
  %28 = lshr i64 %6, 63
  %29 = trunc i64 %28 to i8
  %30 = getelementptr inbounds %struct.State, %struct.State* %1, i64 0, i32 2, i32 9
  store i8 %29, i8* %30, align 1
  %31 = lshr i64 %3, 63
  %32 = lshr i64 %4, 63
  %33 = xor i64 %28, %31
  %34 = xor i64 %28, %32
  %35 = add   i64 %33, %34
  %36 = icmp eq i64 %35, 2
  %37 = zext i1 %36 to i8
  %38 = getelementptr inbounds %struct.State, %struct.State* %1, i64 0, i32 2, i32 13
  store i8 %37, i8* %38, align 1
  ret %struct.Memory* %0
}

define %struct.Memory* @routine_addq__0x70___rsp(%struct.State*  dereferenceable(3376), i64, %struct.Memory* ) #19 {
block_400488:
  %3 = getelementptr inbounds %struct.State, %struct.State* %0, i32 0, i32 6
  %4 = getelementptr inbounds %struct.GPR, %struct.GPR* %3, i32 0, i32 33
  %5 = getelementptr inbounds %struct.Reg, %struct.Reg* %4, i32 0, i32 0
  %PC = bitcast %union.anon* %5 to i64*
  %6 = getelementptr inbounds %struct.State, %struct.State* %0, i32 0, i32 6
  %7 = getelementptr inbounds %struct.GPR, %struct.GPR* %6, i32 0, i32 13
  %8 = getelementptr inbounds %struct.Reg, %struct.Reg* %7, i32 0, i32 0
  %RSP = bitcast %union.anon* %8 to i64*
  %9 = load i64, i64* %RSP
  %10 = load i64, i64* %PC
  %11 = add i64 %10, 4
  store i64 %11, i64* %PC
  %12 = call %struct.Memory* @_ZN12_GLOBAL__N_1L3ADDI3RnWImE2RnImE2InImEEEP6MemoryS8_R5StateT_T0_T1_(%struct.Memory* %2, %struct.State* %0, i64* %RSP, i64 %9, i64 112)
  ret %struct.Memory* %12
}

define internal %struct.Memory* @_ZN12_GLOBAL__N_1L3POPI3RnWImEEEP6MemoryS4_R5StateT_(%struct.Memory*, %struct.State* nocapture dereferenceable(3376), i64* nocapture) #0 {
  %4 = getelementptr inbounds %struct.State, %struct.State* %1, i64 0, i32 6, i32 13, i32 0, i32 0
  %5 = load i64, i64* %4, align 8
  %6 = add i64 %5, 8
  %7 = inttoptr i64 %5 to i64*
  %8 = load i64, i64* %7
  store i64 %8, i64* %2, align 8
  store i64 %6, i64* %4, align 8
  ret %struct.Memory* %0
}

define %struct.Memory* @routine_popq__rbp(%struct.State*  dereferenceable(3376), i64, %struct.Memory* ) #19 {
block_400488:
  %3 = getelementptr inbounds %struct.State, %struct.State* %0, i32 0, i32 6
  %4 = getelementptr inbounds %struct.GPR, %struct.GPR* %3, i32 0, i32 33
  %5 = getelementptr inbounds %struct.Reg, %struct.Reg* %4, i32 0, i32 0
  %PC = bitcast %union.anon* %5 to i64*
  %6 = getelementptr inbounds %struct.State, %struct.State* %0, i32 0, i32 6
  %7 = getelementptr inbounds %struct.GPR, %struct.GPR* %6, i32 0, i32 15
  %8 = getelementptr inbounds %struct.Reg, %struct.Reg* %7, i32 0, i32 0
  %RBP = bitcast %union.anon* %8 to i64*
  %9 = load i64, i64* %PC
  %10 = add i64 %9, 1
  store i64 %10, i64* %PC
  %11 = call %struct.Memory* @_ZN12_GLOBAL__N_1L3POPI3RnWImEEEP6MemoryS4_R5StateT_(%struct.Memory* %2, %struct.State* %0, i64* %RBP)
  ret %struct.Memory* %11
}

define internal %struct.Memory* @_ZN12_GLOBAL__N_1L3RETEP6MemoryR5State(%struct.Memory* returned, %struct.State* nocapture dereferenceable(3376)) #0 {
  %3 = getelementptr inbounds %struct.State, %struct.State* %1, i64 0, i32 6, i32 33, i32 0, i32 0
  %4 = getelementptr inbounds %struct.State, %struct.State* %1, i64 0, i32 6, i32 13, i32 0, i32 0
  %5 = load i64, i64* %4, align 8
  %6 = inttoptr i64 %5 to i64*
  %7 = load i64, i64* %6
  store i64 %7, i64* %3, align 8
  %8 = add i64 %5, 8
  store i64 %8, i64* %4, align 8
  ret %struct.Memory* %0
}

define %struct.Memory* @routine_retq(%struct.State*  dereferenceable(3376), i64, %struct.Memory* ) #19 {
block_400488:
  %3 = getelementptr inbounds %struct.State, %struct.State* %0, i32 0, i32 6
  %4 = getelementptr inbounds %struct.GPR, %struct.GPR* %3, i32 0, i32 33
  %5 = getelementptr inbounds %struct.Reg, %struct.Reg* %4, i32 0, i32 0
  %PC = bitcast %union.anon* %5 to i64*
  %6 = load i64, i64* %PC
  %7 = add i64 %6, 1
  store i64 %7, i64* %PC
  %8 = call %struct.Memory* @_ZN12_GLOBAL__N_1L3RETEP6MemoryR5State(%struct.Memory* %2, %struct.State* %0)
  ret %struct.Memory* %8
}

