; ModuleID = 'mcsema/test.proposed.inline.ll'
source_filename = "llvm-link"
target datalayout = "e-m:e-i64:64-f80:128-n8:16:32:64-S128"
target triple = "x86_64-pc-linux-gnu-elf"

%__bss_start_type = type <{ [8 x i8] }>
%struct.State = type { %struct.ArchState, [32 x %union.VectorReg], %struct.ArithFlags, %union.anon, %struct.Segments, %struct.AddressSpace, %struct.GPR, %struct.X87Stack, %struct.MMX, %struct.FPUStatusFlags, %union.anon, %union.FPU, %struct.SegmentCaches }
%struct.ArchState = type { i32, i32, %union.anon }
%union.VectorReg = type { %union.vec512_t }
%union.vec512_t = type { %struct.uint64v8_t }
%struct.uint64v8_t = type { [8 x i64] }
%struct.ArithFlags = type { i8, i8, i8, i8, i8, i8, i8, i8, i8, i8, i8, i8, i8, i8, i8, i8 }
%struct.Segments = type { i16, %union.SegmentSelector, i16, %union.SegmentSelector, i16, %union.SegmentSelector, i16, %union.SegmentSelector, i16, %union.SegmentSelector, i16, %union.SegmentSelector }
%union.SegmentSelector = type { i16 }
%struct.AddressSpace = type { i64, %struct.Reg, i64, %struct.Reg, i64, %struct.Reg, i64, %struct.Reg, i64, %struct.Reg, i64, %struct.Reg }
%struct.Reg = type { %union.anon }
%struct.GPR = type { i64, %struct.Reg, i64, %struct.Reg, i64, %struct.Reg, i64, %struct.Reg, i64, %struct.Reg, i64, %struct.Reg, i64, %struct.Reg, i64, %struct.Reg, i64, %struct.Reg, i64, %struct.Reg, i64, %struct.Reg, i64, %struct.Reg, i64, %struct.Reg, i64, %struct.Reg, i64, %struct.Reg, i64, %struct.Reg, i64, %struct.Reg }
%struct.X87Stack = type { [8 x %struct.anon.3] }
%struct.anon.3 = type { i64, double }
%struct.MMX = type { [8 x %struct.anon.4] }
%struct.anon.4 = type { i64, %union.vec64_t }
%union.vec64_t = type { %struct.uint64v1_t }
%struct.uint64v1_t = type { [1 x i64] }
%struct.FPUStatusFlags = type { i8, i8, i8, i8, i8, i8, i8, i8, i8, i8, i8, i8, i8, i8, i8, i8, i8, i8, i8, i8, [4 x i8] }
%union.anon = type { i64 }
%union.FPU = type { %struct.anon.13 }
%struct.anon.13 = type { %struct.FpuFXSAVE, [96 x i8] }
%struct.FpuFXSAVE = type { %union.SegmentSelector, %union.SegmentSelector, %union.FPUAbridgedTagWord, i8, i16, i32, %union.SegmentSelector, i16, i32, %union.SegmentSelector, i16, %union.FPUControlStatus, %union.FPUControlStatus, [8 x %struct.FPUStackElem], [16 x %union.vec128_t] }
%union.FPUAbridgedTagWord = type { i8 }
%union.FPUControlStatus = type { i32 }
%struct.FPUStackElem = type { %union.anon.11, [6 x i8] }
%union.anon.11 = type { %struct.float80_t }
%struct.float80_t = type { [10 x i8] }
%union.vec128_t = type { %struct.uint128v1_t }
%struct.uint128v1_t = type { [1 x i128] }
%struct.SegmentCaches = type { %struct.SegmentShadow, %struct.SegmentShadow, %struct.SegmentShadow, %struct.SegmentShadow, %struct.SegmentShadow, %struct.SegmentShadow }
%struct.SegmentShadow = type { %union.anon, i32, i32 }
%struct.Memory = type opaque

@__bss_start = local_unnamed_addr global %__bss_start_type zeroinitializer

declare %struct.Memory* @__remill_error(%struct.State* dereferenceable(3376), i64, %struct.Memory*) local_unnamed_addr

; Function Attrs: alwaysinline
define %struct.Memory* @_ZN31custom_multiple_constant_divideIsE8do_shiftEs(%struct.State* noalias, i64, %struct.Memory* noalias) local_unnamed_addr #0 {
entry:
  %3 = getelementptr inbounds %struct.State, %struct.State* %0, i64 0, i32 6, i32 33, i32 0, i32 0
  %PC.i = getelementptr inbounds %struct.State, %struct.State* %0, i64 0, i32 6, i32 33, i32 0, i32 0
  %RBP.i = getelementptr inbounds %struct.State, %struct.State* %0, i64 0, i32 6, i32 15, i32 0, i32 0
  %4 = load i64, i64* %RBP.i, align 8
  %5 = add i64 %1, 1
  store i64 %5, i64* %PC.i, align 8
  %6 = getelementptr inbounds %struct.State, %struct.State* %0, i64 0, i32 6, i32 13, i32 0, i32 0
  %7 = load i64, i64* %6, align 8
  %8 = add i64 %7, -8
  %9 = inttoptr i64 %8 to i64*
  store i64 %4, i64* %9, align 8
  store i64 %8, i64* %6, align 8
  %10 = load i64, i64* %PC.i, align 8
  store i64 %8, i64* %RBP.i, align 8
  %11 = getelementptr inbounds %struct.State, %struct.State* %0, i64 0, i32 6, i32 1, i32 0
  %AX.i13 = bitcast %union.anon* %11 to i16*
  %12 = getelementptr inbounds %struct.State, %struct.State* %0, i64 0, i32 6, i32 11, i32 0
  %DI.i = bitcast %union.anon* %12 to i16*
  %13 = load i16, i16* %DI.i, align 2
  store i16 %13, i16* %AX.i13, align 2
  %RDI.i = getelementptr inbounds %union.anon, %union.anon* %12, i64 0, i32 0
  store i64 5, i64* %RDI.i, align 8
  %14 = getelementptr inbounds %struct.State, %struct.State* %0, i64 0, i32 6, i32 5, i32 0
  %RCX.i = getelementptr inbounds %union.anon, %union.anon* %14, i64 0, i32 0
  store i64 4, i64* %RCX.i, align 8
  %15 = getelementptr inbounds %struct.State, %struct.State* %0, i64 0, i32 6, i32 7, i32 0
  %RDX.i = getelementptr inbounds %union.anon, %union.anon* %15, i64 0, i32 0
  store i64 3, i64* %RDX.i, align 8
  %16 = getelementptr inbounds %struct.State, %struct.State* %0, i64 0, i32 6, i32 9, i32 0
  %RSI.i34 = getelementptr inbounds %union.anon, %union.anon* %16, i64 0, i32 0
  store i64 2, i64* %RSI.i34, align 8
  %17 = add i64 %7, -10
  %18 = add i64 %10, 30
  store i64 %18, i64* %PC.i, align 8
  %19 = inttoptr i64 %17 to i16*
  store i16 %13, i16* %19, align 2
  %RAX.i28 = getelementptr inbounds %union.anon, %union.anon* %11, i64 0, i32 0
  %20 = load i64, i64* %RBP.i, align 8
  %21 = add i64 %20, -2
  %22 = load i64, i64* %PC.i, align 8
  %23 = add i64 %22, 4
  store i64 %23, i64* %PC.i, align 8
  %24 = inttoptr i64 %21 to i16*
  %25 = load i16, i16* %24, align 2
  %26 = sext i16 %25 to i64
  %27 = and i64 %26, 4294967295
  store i64 %27, i64* %RAX.i28, align 8
  %EDX.i = bitcast %union.anon* %15 to i32*
  %28 = add i64 %20, -8
  %29 = load i32, i32* %EDX.i, align 4
  %30 = add i64 %22, 7
  store i64 %30, i64* %PC.i, align 8
  %31 = inttoptr i64 %28 to i32*
  store i32 %29, i32* %31, align 4
  %32 = load i64, i64* %PC.i, align 8
  %33 = getelementptr inbounds %struct.State, %struct.State* %0, i64 0, i32 6, i32 7, i32 0, i32 0
  %34 = getelementptr inbounds %struct.State, %struct.State* %0, i64 0, i32 6, i32 1, i32 0
  %35 = bitcast %union.anon* %34 to i32*
  %36 = load i32, i32* %35, align 8
  %37 = sext i32 %36 to i64
  %38 = lshr i64 %37, 32
  store i64 %38, i64* %33, align 8
  %ESI.i21 = bitcast %union.anon* %16 to i32*
  %39 = load i32, i32* %ESI.i21, align 4
  %40 = add i64 %32, 3
  store i64 %40, i64* %PC.i, align 8
  %41 = zext i32 %36 to i64
  %42 = getelementptr inbounds %struct.State, %struct.State* %0, i64 0, i32 6, i32 7, i32 0
  %43 = sext i32 %39 to i64
  %44 = shl nuw i64 %38, 32
  %45 = or i64 %44, %41
  %46 = sdiv i64 %45, %43
  %47 = shl i64 %46, 32
  %48 = ashr exact i64 %47, 32
  %49 = icmp eq i64 %46, %48
  br i1 %49, label %52, label %50

; <label>:50:                                     ; preds = %entry
  %51 = tail call %struct.Memory* @__remill_error(%struct.State* nonnull dereferenceable(3376) %0, i64 %40, %struct.Memory* %2)
  %.pre = load i64, i64* %PC.i, align 8
  %.pre1 = load i32, i32* %35, align 8
  br label %routine_idivl__esi.exit22

; <label>:52:                                     ; preds = %entry
  %53 = srem i64 %45, %43
  %54 = getelementptr inbounds %union.anon, %union.anon* %34, i64 0, i32 0
  %55 = and i64 %46, 4294967295
  store i64 %55, i64* %54, align 8
  %56 = getelementptr inbounds %union.anon, %union.anon* %42, i64 0, i32 0
  %57 = and i64 %53, 4294967295
  store i64 %57, i64* %56, align 8
  %58 = getelementptr inbounds %struct.State, %struct.State* %0, i64 0, i32 2, i32 1
  store i8 0, i8* %58, align 1
  %59 = getelementptr inbounds %struct.State, %struct.State* %0, i64 0, i32 2, i32 3
  store i8 0, i8* %59, align 1
  %60 = getelementptr inbounds %struct.State, %struct.State* %0, i64 0, i32 2, i32 5
  store i8 0, i8* %60, align 1
  %61 = getelementptr inbounds %struct.State, %struct.State* %0, i64 0, i32 2, i32 7
  store i8 0, i8* %61, align 1
  %62 = getelementptr inbounds %struct.State, %struct.State* %0, i64 0, i32 2, i32 9
  store i8 0, i8* %62, align 1
  %63 = getelementptr inbounds %struct.State, %struct.State* %0, i64 0, i32 2, i32 13
  store i8 0, i8* %63, align 1
  %64 = trunc i64 %46 to i32
  br label %routine_idivl__esi.exit22

routine_idivl__esi.exit22:                        ; preds = %52, %50
  %65 = phi i32 [ %.pre1, %50 ], [ %64, %52 ]
  %66 = phi i64 [ %.pre, %50 ], [ %40, %52 ]
  %67 = phi %struct.Memory* [ %51, %50 ], [ %2, %52 ]
  %68 = sext i32 %65 to i64
  %69 = lshr i64 %68, 32
  store i64 %69, i64* %33, align 8
  %70 = load i64, i64* %RBP.i, align 8
  %71 = add i64 %70, -8
  %72 = add i64 %66, 4
  store i64 %72, i64* %PC.i, align 8
  %73 = inttoptr i64 %71 to i32*
  %74 = load i32, i32* %73, align 4
  %75 = zext i32 %74 to i64
  store i64 %75, i64* %RSI.i34, align 8
  %76 = add i64 %66, 6
  store i64 %76, i64* %PC.i, align 8
  %77 = zext i32 %65 to i64
  %78 = sext i32 %74 to i64
  %79 = shl nuw i64 %69, 32
  %80 = or i64 %79, %77
  %81 = sdiv i64 %80, %78
  %82 = shl i64 %81, 32
  %83 = ashr exact i64 %82, 32
  %84 = icmp eq i64 %81, %83
  br i1 %84, label %87, label %85

; <label>:85:                                     ; preds = %routine_idivl__esi.exit22
  %86 = tail call %struct.Memory* @__remill_error(%struct.State* nonnull dereferenceable(3376) %0, i64 %76, %struct.Memory* %67)
  %.pre2 = load i64, i64* %PC.i, align 8
  %.pre3 = load i32, i32* %35, align 8
  br label %routine_idivl__esi.exit

; <label>:87:                                     ; preds = %routine_idivl__esi.exit22
  %88 = srem i64 %80, %78
  %89 = getelementptr inbounds %union.anon, %union.anon* %34, i64 0, i32 0
  %90 = and i64 %81, 4294967295
  store i64 %90, i64* %89, align 8
  %91 = getelementptr inbounds %union.anon, %union.anon* %42, i64 0, i32 0
  %92 = and i64 %88, 4294967295
  store i64 %92, i64* %91, align 8
  %93 = getelementptr inbounds %struct.State, %struct.State* %0, i64 0, i32 2, i32 1
  store i8 0, i8* %93, align 1
  %94 = getelementptr inbounds %struct.State, %struct.State* %0, i64 0, i32 2, i32 3
  store i8 0, i8* %94, align 1
  %95 = getelementptr inbounds %struct.State, %struct.State* %0, i64 0, i32 2, i32 5
  store i8 0, i8* %95, align 1
  %96 = getelementptr inbounds %struct.State, %struct.State* %0, i64 0, i32 2, i32 7
  store i8 0, i8* %96, align 1
  %97 = getelementptr inbounds %struct.State, %struct.State* %0, i64 0, i32 2, i32 9
  store i8 0, i8* %97, align 1
  %98 = getelementptr inbounds %struct.State, %struct.State* %0, i64 0, i32 2, i32 13
  store i8 0, i8* %98, align 1
  %99 = trunc i64 %81 to i32
  br label %routine_idivl__esi.exit

routine_idivl__esi.exit:                          ; preds = %87, %85
  %100 = phi i32 [ %.pre3, %85 ], [ %99, %87 ]
  %101 = phi i64 [ %.pre2, %85 ], [ %76, %87 ]
  %102 = phi %struct.Memory* [ %86, %85 ], [ %67, %87 ]
  %103 = sext i32 %100 to i64
  %104 = lshr i64 %103, 32
  store i64 %104, i64* %33, align 8
  %ECX.i = bitcast %union.anon* %14 to i32*
  %105 = load i32, i32* %ECX.i, align 4
  %106 = add i64 %101, 3
  store i64 %106, i64* %PC.i, align 8
  %107 = zext i32 %100 to i64
  %108 = sext i32 %105 to i64
  %109 = shl nuw i64 %104, 32
  %110 = or i64 %109, %107
  %111 = sdiv i64 %110, %108
  %112 = shl i64 %111, 32
  %113 = ashr exact i64 %112, 32
  %114 = icmp eq i64 %111, %113
  br i1 %114, label %117, label %115

; <label>:115:                                    ; preds = %routine_idivl__esi.exit
  %116 = tail call %struct.Memory* @__remill_error(%struct.State* nonnull dereferenceable(3376) %0, i64 %106, %struct.Memory* %102)
  %.pre4 = load i64, i64* %PC.i, align 8
  %.pre5 = load i32, i32* %35, align 8
  br label %routine_idivl__ecx.exit

; <label>:117:                                    ; preds = %routine_idivl__esi.exit
  %118 = srem i64 %110, %108
  %119 = getelementptr inbounds %union.anon, %union.anon* %34, i64 0, i32 0
  %120 = and i64 %111, 4294967295
  store i64 %120, i64* %119, align 8
  %121 = getelementptr inbounds %union.anon, %union.anon* %42, i64 0, i32 0
  %122 = and i64 %118, 4294967295
  store i64 %122, i64* %121, align 8
  %123 = getelementptr inbounds %struct.State, %struct.State* %0, i64 0, i32 2, i32 1
  store i8 0, i8* %123, align 1
  %124 = getelementptr inbounds %struct.State, %struct.State* %0, i64 0, i32 2, i32 3
  store i8 0, i8* %124, align 1
  %125 = getelementptr inbounds %struct.State, %struct.State* %0, i64 0, i32 2, i32 5
  store i8 0, i8* %125, align 1
  %126 = getelementptr inbounds %struct.State, %struct.State* %0, i64 0, i32 2, i32 7
  store i8 0, i8* %126, align 1
  %127 = getelementptr inbounds %struct.State, %struct.State* %0, i64 0, i32 2, i32 9
  store i8 0, i8* %127, align 1
  %128 = getelementptr inbounds %struct.State, %struct.State* %0, i64 0, i32 2, i32 13
  store i8 0, i8* %128, align 1
  %129 = trunc i64 %111 to i32
  br label %routine_idivl__ecx.exit

routine_idivl__ecx.exit:                          ; preds = %117, %115
  %130 = phi i32 [ %.pre5, %115 ], [ %129, %117 ]
  %131 = phi i64 [ %.pre4, %115 ], [ %106, %117 ]
  %132 = phi %struct.Memory* [ %116, %115 ], [ %102, %117 ]
  %133 = sext i32 %130 to i64
  %134 = lshr i64 %133, 32
  store i64 %134, i64* %33, align 8
  %EDI.i = bitcast %union.anon* %12 to i32*
  %135 = load i32, i32* %EDI.i, align 4
  %136 = add i64 %131, 3
  store i64 %136, i64* %PC.i, align 8
  %137 = zext i32 %130 to i64
  %138 = sext i32 %135 to i64
  %139 = shl nuw i64 %134, 32
  %140 = or i64 %139, %137
  %141 = sdiv i64 %140, %138
  %142 = shl i64 %141, 32
  %143 = ashr exact i64 %142, 32
  %144 = icmp eq i64 %141, %143
  br i1 %144, label %147, label %145

; <label>:145:                                    ; preds = %routine_idivl__ecx.exit
  %146 = tail call %struct.Memory* @__remill_error(%struct.State* nonnull dereferenceable(3376) %0, i64 %136, %struct.Memory* %132)
  %.pre6 = load i16, i16* %AX.i13, align 2
  %.pre7 = load i64, i64* %PC.i, align 8
  br label %routine_idivl__edi.exit

; <label>:147:                                    ; preds = %routine_idivl__ecx.exit
  %148 = srem i64 %140, %138
  %149 = getelementptr inbounds %union.anon, %union.anon* %34, i64 0, i32 0
  %150 = and i64 %141, 4294967295
  store i64 %150, i64* %149, align 8
  %151 = getelementptr inbounds %union.anon, %union.anon* %42, i64 0, i32 0
  %152 = and i64 %148, 4294967295
  store i64 %152, i64* %151, align 8
  %153 = getelementptr inbounds %struct.State, %struct.State* %0, i64 0, i32 2, i32 1
  store i8 0, i8* %153, align 1
  %154 = getelementptr inbounds %struct.State, %struct.State* %0, i64 0, i32 2, i32 3
  store i8 0, i8* %154, align 1
  %155 = getelementptr inbounds %struct.State, %struct.State* %0, i64 0, i32 2, i32 5
  store i8 0, i8* %155, align 1
  %156 = getelementptr inbounds %struct.State, %struct.State* %0, i64 0, i32 2, i32 7
  store i8 0, i8* %156, align 1
  %157 = getelementptr inbounds %struct.State, %struct.State* %0, i64 0, i32 2, i32 9
  store i8 0, i8* %157, align 1
  %158 = getelementptr inbounds %struct.State, %struct.State* %0, i64 0, i32 2, i32 13
  store i8 0, i8* %158, align 1
  %159 = trunc i64 %141 to i16
  br label %routine_idivl__edi.exit

routine_idivl__edi.exit:                          ; preds = %147, %145
  %160 = phi i64 [ %.pre7, %145 ], [ %136, %147 ]
  %161 = phi i16 [ %.pre6, %145 ], [ %159, %147 ]
  %162 = phi %struct.Memory* [ %146, %145 ], [ %132, %147 ]
  %163 = getelementptr inbounds %struct.State, %struct.State* %0, i64 0, i32 6, i32 17, i32 0
  %R8W.i6 = bitcast %union.anon* %163 to i16*
  store i16 %161, i16* %R8W.i6, align 2
  %164 = sext i16 %161 to i64
  %165 = and i64 %164, 4294967295
  store i64 %165, i64* %RAX.i28, align 8
  %166 = add i64 %160, 9
  store i64 %166, i64* %PC.i, align 8
  %167 = load i64, i64* %6, align 8
  %168 = add i64 %167, 8
  %169 = inttoptr i64 %167 to i64*
  %170 = load i64, i64* %169, align 8
  store i64 %170, i64* %RBP.i, align 8
  store i64 %168, i64* %6, align 8
  %171 = add i64 %160, 10
  store i64 %171, i64* %PC.i, align 8
  %172 = inttoptr i64 %168 to i64*
  %173 = load i64, i64* %172, align 8
  store i64 %173, i64* %3, align 8
  %174 = add i64 %167, 16
  store i64 %174, i64* %6, align 8
  ret %struct.Memory* %162
}

define %struct.Memory* @routine_pushq__rbp(%struct.State* dereferenceable(3376), i64, %struct.Memory*) local_unnamed_addr {
block_400478:
  %PC = getelementptr inbounds %struct.State, %struct.State* %0, i64 0, i32 6, i32 33, i32 0, i32 0
  %RBP = getelementptr inbounds %struct.State, %struct.State* %0, i64 0, i32 6, i32 15, i32 0, i32 0
  %3 = load i64, i64* %RBP, align 8
  %4 = load i64, i64* %PC, align 8
  %5 = add i64 %4, 1
  store i64 %5, i64* %PC, align 8
  %6 = getelementptr inbounds %struct.State, %struct.State* %0, i64 0, i32 6, i32 13, i32 0, i32 0
  %7 = load i64, i64* %6, align 8
  %8 = add i64 %7, -8
  %9 = inttoptr i64 %8 to i64*
  store i64 %3, i64* %9, align 8
  store i64 %8, i64* %6, align 8
  ret %struct.Memory* %2
}

define %struct.Memory* @routine_movq__rsp___rbp(%struct.State* dereferenceable(3376), i64, %struct.Memory*) local_unnamed_addr {
block_400478:
  %PC = getelementptr inbounds %struct.State, %struct.State* %0, i64 0, i32 6, i32 33, i32 0, i32 0
  %RSP = getelementptr inbounds %struct.State, %struct.State* %0, i64 0, i32 6, i32 13, i32 0, i32 0
  %RBP = getelementptr inbounds %struct.State, %struct.State* %0, i64 0, i32 6, i32 15, i32 0, i32 0
  %3 = load i64, i64* %RSP, align 8
  %4 = load i64, i64* %PC, align 8
  %5 = add i64 %4, 3
  store i64 %5, i64* %PC, align 8
  store i64 %3, i64* %RBP, align 8
  ret %struct.Memory* %2
}

define %struct.Memory* @routine_movw__di___ax(%struct.State* dereferenceable(3376), i64, %struct.Memory*) local_unnamed_addr {
block_400478:
  %PC = getelementptr inbounds %struct.State, %struct.State* %0, i64 0, i32 6, i32 33, i32 0, i32 0
  %3 = getelementptr inbounds %struct.State, %struct.State* %0, i64 0, i32 6, i32 1, i32 0
  %AX = bitcast %union.anon* %3 to i16*
  %4 = getelementptr inbounds %struct.State, %struct.State* %0, i64 0, i32 6, i32 11, i32 0
  %DI = bitcast %union.anon* %4 to i16*
  %5 = load i16, i16* %DI, align 2
  %6 = load i64, i64* %PC, align 8
  %7 = add i64 %6, 3
  store i64 %7, i64* %PC, align 8
  store i16 %5, i16* %AX, align 2
  ret %struct.Memory* %2
}

define %struct.Memory* @routine_movl__0x5___edi(%struct.State* dereferenceable(3376), i64, %struct.Memory*) local_unnamed_addr {
block_400478:
  %PC = getelementptr inbounds %struct.State, %struct.State* %0, i64 0, i32 6, i32 33, i32 0, i32 0
  %RDI = getelementptr inbounds %struct.State, %struct.State* %0, i64 0, i32 6, i32 11, i32 0, i32 0
  %3 = load i64, i64* %PC, align 8
  %4 = add i64 %3, 5
  store i64 %4, i64* %PC, align 8
  store i64 5, i64* %RDI, align 8
  ret %struct.Memory* %2
}

define %struct.Memory* @routine_movl__0x4___ecx(%struct.State* dereferenceable(3376), i64, %struct.Memory*) local_unnamed_addr {
block_400478:
  %PC = getelementptr inbounds %struct.State, %struct.State* %0, i64 0, i32 6, i32 33, i32 0, i32 0
  %RCX = getelementptr inbounds %struct.State, %struct.State* %0, i64 0, i32 6, i32 5, i32 0, i32 0
  %3 = load i64, i64* %PC, align 8
  %4 = add i64 %3, 5
  store i64 %4, i64* %PC, align 8
  store i64 4, i64* %RCX, align 8
  ret %struct.Memory* %2
}

define %struct.Memory* @routine_movl__0x3___edx(%struct.State* dereferenceable(3376), i64, %struct.Memory*) local_unnamed_addr {
block_400478:
  %PC = getelementptr inbounds %struct.State, %struct.State* %0, i64 0, i32 6, i32 33, i32 0, i32 0
  %RDX = getelementptr inbounds %struct.State, %struct.State* %0, i64 0, i32 6, i32 7, i32 0, i32 0
  %3 = load i64, i64* %PC, align 8
  %4 = add i64 %3, 5
  store i64 %4, i64* %PC, align 8
  store i64 3, i64* %RDX, align 8
  ret %struct.Memory* %2
}

define %struct.Memory* @routine_movl__0x2___esi(%struct.State* dereferenceable(3376), i64, %struct.Memory*) local_unnamed_addr {
block_400478:
  %PC = getelementptr inbounds %struct.State, %struct.State* %0, i64 0, i32 6, i32 33, i32 0, i32 0
  %RSI = getelementptr inbounds %struct.State, %struct.State* %0, i64 0, i32 6, i32 9, i32 0, i32 0
  %3 = load i64, i64* %PC, align 8
  %4 = add i64 %3, 5
  store i64 %4, i64* %PC, align 8
  store i64 2, i64* %RSI, align 8
  ret %struct.Memory* %2
}

define %struct.Memory* @routine_movw__ax__MINUS0x2__rbp_(%struct.State* dereferenceable(3376), i64, %struct.Memory*) local_unnamed_addr {
block_400478:
  %PC = getelementptr inbounds %struct.State, %struct.State* %0, i64 0, i32 6, i32 33, i32 0, i32 0
  %3 = getelementptr inbounds %struct.State, %struct.State* %0, i64 0, i32 6, i32 1, i32 0
  %AX = bitcast %union.anon* %3 to i16*
  %RBP = getelementptr inbounds %struct.State, %struct.State* %0, i64 0, i32 6, i32 15, i32 0, i32 0
  %4 = load i64, i64* %RBP, align 8
  %5 = add i64 %4, -2
  %6 = load i16, i16* %AX, align 2
  %7 = load i64, i64* %PC, align 8
  %8 = add i64 %7, 4
  store i64 %8, i64* %PC, align 8
  %9 = inttoptr i64 %5 to i16*
  store i16 %6, i16* %9, align 2
  ret %struct.Memory* %2
}

define %struct.Memory* @routine_movswl_MINUS0x2__rbp____eax(%struct.State* dereferenceable(3376), i64, %struct.Memory*) local_unnamed_addr {
block_400478:
  %PC = getelementptr inbounds %struct.State, %struct.State* %0, i64 0, i32 6, i32 33, i32 0, i32 0
  %RAX = getelementptr inbounds %struct.State, %struct.State* %0, i64 0, i32 6, i32 1, i32 0, i32 0
  %RBP = getelementptr inbounds %struct.State, %struct.State* %0, i64 0, i32 6, i32 15, i32 0, i32 0
  %3 = load i64, i64* %RBP, align 8
  %4 = add i64 %3, -2
  %5 = load i64, i64* %PC, align 8
  %6 = add i64 %5, 4
  store i64 %6, i64* %PC, align 8
  %7 = inttoptr i64 %4 to i16*
  %8 = load i16, i16* %7, align 2
  %9 = sext i16 %8 to i64
  %10 = and i64 %9, 4294967295
  store i64 %10, i64* %RAX, align 8
  ret %struct.Memory* %2
}

define %struct.Memory* @routine_movl__edx__MINUS0x8__rbp_(%struct.State* dereferenceable(3376), i64, %struct.Memory*) local_unnamed_addr {
block_400478:
  %PC = getelementptr inbounds %struct.State, %struct.State* %0, i64 0, i32 6, i32 33, i32 0, i32 0
  %3 = getelementptr inbounds %struct.State, %struct.State* %0, i64 0, i32 6, i32 7, i32 0
  %EDX = bitcast %union.anon* %3 to i32*
  %RBP = getelementptr inbounds %struct.State, %struct.State* %0, i64 0, i32 6, i32 15, i32 0, i32 0
  %4 = load i64, i64* %RBP, align 8
  %5 = add i64 %4, -8
  %6 = load i32, i32* %EDX, align 4
  %7 = load i64, i64* %PC, align 8
  %8 = add i64 %7, 3
  store i64 %8, i64* %PC, align 8
  %9 = inttoptr i64 %5 to i32*
  store i32 %6, i32* %9, align 4
  ret %struct.Memory* %2
}

define %struct.Memory* @routine_cltd(%struct.State* dereferenceable(3376), i64, %struct.Memory*) local_unnamed_addr {
block_400478:
  %PC = getelementptr inbounds %struct.State, %struct.State* %0, i64 0, i32 6, i32 33, i32 0, i32 0
  %3 = load i64, i64* %PC, align 8
  %4 = add i64 %3, 1
  store i64 %4, i64* %PC, align 8
  %5 = getelementptr inbounds %struct.State, %struct.State* %0, i64 0, i32 6, i32 7, i32 0, i32 0
  %6 = getelementptr inbounds %struct.State, %struct.State* %0, i64 0, i32 6, i32 1, i32 0
  %7 = bitcast %union.anon* %6 to i32*
  %8 = load i32, i32* %7, align 8
  %9 = sext i32 %8 to i64
  %10 = lshr i64 %9, 32
  store i64 %10, i64* %5, align 8
  ret %struct.Memory* %2
}

define %struct.Memory* @routine_idivl__esi(%struct.State* dereferenceable(3376), i64, %struct.Memory*) local_unnamed_addr {
block_400478:
  %PC = getelementptr inbounds %struct.State, %struct.State* %0, i64 0, i32 6, i32 33, i32 0, i32 0
  %3 = getelementptr inbounds %struct.State, %struct.State* %0, i64 0, i32 6, i32 9, i32 0
  %ESI = bitcast %union.anon* %3 to i32*
  %4 = load i32, i32* %ESI, align 4
  %5 = load i64, i64* %PC, align 8
  %6 = add i64 %5, 2
  store i64 %6, i64* %PC, align 8
  %7 = getelementptr inbounds %struct.State, %struct.State* %0, i64 0, i32 6, i32 1, i32 0
  %8 = bitcast %union.anon* %7 to i32*
  %9 = load i32, i32* %8, align 8
  %10 = zext i32 %9 to i64
  %11 = getelementptr inbounds %struct.State, %struct.State* %0, i64 0, i32 6, i32 7, i32 0
  %12 = bitcast %union.anon* %11 to i32*
  %13 = load i32, i32* %12, align 8
  %14 = zext i32 %13 to i64
  %15 = sext i32 %4 to i64
  %16 = shl nuw i64 %14, 32
  %17 = or i64 %16, %10
  %18 = sdiv i64 %17, %15
  %19 = shl i64 %18, 32
  %20 = ashr exact i64 %19, 32
  %21 = icmp eq i64 %18, %20
  br i1 %21, label %24, label %22

; <label>:22:                                     ; preds = %block_400478
  %23 = tail call %struct.Memory* @__remill_error(%struct.State* nonnull dereferenceable(3376) %0, i64 %6, %struct.Memory* %2)
  br label %_ZN12_GLOBAL__N_1L10IDIVedxeaxI2RnIjEEEP6MemoryS4_R5StateT_.exit

; <label>:24:                                     ; preds = %block_400478
  %25 = srem i64 %17, %15
  %26 = getelementptr inbounds %union.anon, %union.anon* %7, i64 0, i32 0
  %27 = and i64 %18, 4294967295
  store i64 %27, i64* %26, align 8
  %28 = getelementptr inbounds %union.anon, %union.anon* %11, i64 0, i32 0
  %29 = and i64 %25, 4294967295
  store i64 %29, i64* %28, align 8
  %30 = getelementptr inbounds %struct.State, %struct.State* %0, i64 0, i32 2, i32 1
  store i8 0, i8* %30, align 1
  %31 = getelementptr inbounds %struct.State, %struct.State* %0, i64 0, i32 2, i32 3
  store i8 0, i8* %31, align 1
  %32 = getelementptr inbounds %struct.State, %struct.State* %0, i64 0, i32 2, i32 5
  store i8 0, i8* %32, align 1
  %33 = getelementptr inbounds %struct.State, %struct.State* %0, i64 0, i32 2, i32 7
  store i8 0, i8* %33, align 1
  %34 = getelementptr inbounds %struct.State, %struct.State* %0, i64 0, i32 2, i32 9
  store i8 0, i8* %34, align 1
  %35 = getelementptr inbounds %struct.State, %struct.State* %0, i64 0, i32 2, i32 13
  store i8 0, i8* %35, align 1
  br label %_ZN12_GLOBAL__N_1L10IDIVedxeaxI2RnIjEEEP6MemoryS4_R5StateT_.exit

_ZN12_GLOBAL__N_1L10IDIVedxeaxI2RnIjEEEP6MemoryS4_R5StateT_.exit: ; preds = %24, %22
  %36 = phi %struct.Memory* [ %23, %22 ], [ %2, %24 ]
  ret %struct.Memory* %36
}

define %struct.Memory* @routine_movl_MINUS0x8__rbp____esi(%struct.State* dereferenceable(3376), i64, %struct.Memory*) local_unnamed_addr {
block_400478:
  %PC = getelementptr inbounds %struct.State, %struct.State* %0, i64 0, i32 6, i32 33, i32 0, i32 0
  %RSI = getelementptr inbounds %struct.State, %struct.State* %0, i64 0, i32 6, i32 9, i32 0, i32 0
  %RBP = getelementptr inbounds %struct.State, %struct.State* %0, i64 0, i32 6, i32 15, i32 0, i32 0
  %3 = load i64, i64* %RBP, align 8
  %4 = add i64 %3, -8
  %5 = load i64, i64* %PC, align 8
  %6 = add i64 %5, 3
  store i64 %6, i64* %PC, align 8
  %7 = inttoptr i64 %4 to i32*
  %8 = load i32, i32* %7, align 4
  %9 = zext i32 %8 to i64
  store i64 %9, i64* %RSI, align 8
  ret %struct.Memory* %2
}

define %struct.Memory* @routine_idivl__ecx(%struct.State* dereferenceable(3376), i64, %struct.Memory*) local_unnamed_addr {
block_400478:
  %PC = getelementptr inbounds %struct.State, %struct.State* %0, i64 0, i32 6, i32 33, i32 0, i32 0
  %3 = getelementptr inbounds %struct.State, %struct.State* %0, i64 0, i32 6, i32 5, i32 0
  %ECX = bitcast %union.anon* %3 to i32*
  %4 = load i32, i32* %ECX, align 4
  %5 = load i64, i64* %PC, align 8
  %6 = add i64 %5, 2
  store i64 %6, i64* %PC, align 8
  %7 = getelementptr inbounds %struct.State, %struct.State* %0, i64 0, i32 6, i32 1, i32 0
  %8 = bitcast %union.anon* %7 to i32*
  %9 = load i32, i32* %8, align 8
  %10 = zext i32 %9 to i64
  %11 = getelementptr inbounds %struct.State, %struct.State* %0, i64 0, i32 6, i32 7, i32 0
  %12 = bitcast %union.anon* %11 to i32*
  %13 = load i32, i32* %12, align 8
  %14 = zext i32 %13 to i64
  %15 = sext i32 %4 to i64
  %16 = shl nuw i64 %14, 32
  %17 = or i64 %16, %10
  %18 = sdiv i64 %17, %15
  %19 = shl i64 %18, 32
  %20 = ashr exact i64 %19, 32
  %21 = icmp eq i64 %18, %20
  br i1 %21, label %24, label %22

; <label>:22:                                     ; preds = %block_400478
  %23 = tail call %struct.Memory* @__remill_error(%struct.State* nonnull dereferenceable(3376) %0, i64 %6, %struct.Memory* %2)
  br label %_ZN12_GLOBAL__N_1L10IDIVedxeaxI2RnIjEEEP6MemoryS4_R5StateT_.exit

; <label>:24:                                     ; preds = %block_400478
  %25 = srem i64 %17, %15
  %26 = getelementptr inbounds %union.anon, %union.anon* %7, i64 0, i32 0
  %27 = and i64 %18, 4294967295
  store i64 %27, i64* %26, align 8
  %28 = getelementptr inbounds %union.anon, %union.anon* %11, i64 0, i32 0
  %29 = and i64 %25, 4294967295
  store i64 %29, i64* %28, align 8
  %30 = getelementptr inbounds %struct.State, %struct.State* %0, i64 0, i32 2, i32 1
  store i8 0, i8* %30, align 1
  %31 = getelementptr inbounds %struct.State, %struct.State* %0, i64 0, i32 2, i32 3
  store i8 0, i8* %31, align 1
  %32 = getelementptr inbounds %struct.State, %struct.State* %0, i64 0, i32 2, i32 5
  store i8 0, i8* %32, align 1
  %33 = getelementptr inbounds %struct.State, %struct.State* %0, i64 0, i32 2, i32 7
  store i8 0, i8* %33, align 1
  %34 = getelementptr inbounds %struct.State, %struct.State* %0, i64 0, i32 2, i32 9
  store i8 0, i8* %34, align 1
  %35 = getelementptr inbounds %struct.State, %struct.State* %0, i64 0, i32 2, i32 13
  store i8 0, i8* %35, align 1
  br label %_ZN12_GLOBAL__N_1L10IDIVedxeaxI2RnIjEEEP6MemoryS4_R5StateT_.exit

_ZN12_GLOBAL__N_1L10IDIVedxeaxI2RnIjEEEP6MemoryS4_R5StateT_.exit: ; preds = %24, %22
  %36 = phi %struct.Memory* [ %23, %22 ], [ %2, %24 ]
  ret %struct.Memory* %36
}

define %struct.Memory* @routine_idivl__edi(%struct.State* dereferenceable(3376), i64, %struct.Memory*) local_unnamed_addr {
block_400478:
  %PC = getelementptr inbounds %struct.State, %struct.State* %0, i64 0, i32 6, i32 33, i32 0, i32 0
  %3 = getelementptr inbounds %struct.State, %struct.State* %0, i64 0, i32 6, i32 11, i32 0
  %EDI = bitcast %union.anon* %3 to i32*
  %4 = load i32, i32* %EDI, align 4
  %5 = load i64, i64* %PC, align 8
  %6 = add i64 %5, 2
  store i64 %6, i64* %PC, align 8
  %7 = getelementptr inbounds %struct.State, %struct.State* %0, i64 0, i32 6, i32 1, i32 0
  %8 = bitcast %union.anon* %7 to i32*
  %9 = load i32, i32* %8, align 8
  %10 = zext i32 %9 to i64
  %11 = getelementptr inbounds %struct.State, %struct.State* %0, i64 0, i32 6, i32 7, i32 0
  %12 = bitcast %union.anon* %11 to i32*
  %13 = load i32, i32* %12, align 8
  %14 = zext i32 %13 to i64
  %15 = sext i32 %4 to i64
  %16 = shl nuw i64 %14, 32
  %17 = or i64 %16, %10
  %18 = sdiv i64 %17, %15
  %19 = shl i64 %18, 32
  %20 = ashr exact i64 %19, 32
  %21 = icmp eq i64 %18, %20
  br i1 %21, label %24, label %22

; <label>:22:                                     ; preds = %block_400478
  %23 = tail call %struct.Memory* @__remill_error(%struct.State* nonnull dereferenceable(3376) %0, i64 %6, %struct.Memory* %2)
  br label %_ZN12_GLOBAL__N_1L10IDIVedxeaxI2RnIjEEEP6MemoryS4_R5StateT_.exit

; <label>:24:                                     ; preds = %block_400478
  %25 = srem i64 %17, %15
  %26 = getelementptr inbounds %union.anon, %union.anon* %7, i64 0, i32 0
  %27 = and i64 %18, 4294967295
  store i64 %27, i64* %26, align 8
  %28 = getelementptr inbounds %union.anon, %union.anon* %11, i64 0, i32 0
  %29 = and i64 %25, 4294967295
  store i64 %29, i64* %28, align 8
  %30 = getelementptr inbounds %struct.State, %struct.State* %0, i64 0, i32 2, i32 1
  store i8 0, i8* %30, align 1
  %31 = getelementptr inbounds %struct.State, %struct.State* %0, i64 0, i32 2, i32 3
  store i8 0, i8* %31, align 1
  %32 = getelementptr inbounds %struct.State, %struct.State* %0, i64 0, i32 2, i32 5
  store i8 0, i8* %32, align 1
  %33 = getelementptr inbounds %struct.State, %struct.State* %0, i64 0, i32 2, i32 7
  store i8 0, i8* %33, align 1
  %34 = getelementptr inbounds %struct.State, %struct.State* %0, i64 0, i32 2, i32 9
  store i8 0, i8* %34, align 1
  %35 = getelementptr inbounds %struct.State, %struct.State* %0, i64 0, i32 2, i32 13
  store i8 0, i8* %35, align 1
  br label %_ZN12_GLOBAL__N_1L10IDIVedxeaxI2RnIjEEEP6MemoryS4_R5StateT_.exit

_ZN12_GLOBAL__N_1L10IDIVedxeaxI2RnIjEEEP6MemoryS4_R5StateT_.exit: ; preds = %24, %22
  %36 = phi %struct.Memory* [ %23, %22 ], [ %2, %24 ]
  ret %struct.Memory* %36
}

define %struct.Memory* @routine_movw__ax___r8w(%struct.State* dereferenceable(3376), i64, %struct.Memory*) local_unnamed_addr {
block_400478:
  %PC = getelementptr inbounds %struct.State, %struct.State* %0, i64 0, i32 6, i32 33, i32 0, i32 0
  %3 = getelementptr inbounds %struct.State, %struct.State* %0, i64 0, i32 6, i32 1, i32 0
  %AX = bitcast %union.anon* %3 to i16*
  %4 = getelementptr inbounds %struct.State, %struct.State* %0, i64 0, i32 6, i32 17, i32 0
  %R8W = bitcast %union.anon* %4 to i16*
  %5 = load i16, i16* %AX, align 2
  %6 = load i64, i64* %PC, align 8
  %7 = add i64 %6, 4
  store i64 %7, i64* %PC, align 8
  store i16 %5, i16* %R8W, align 2
  ret %struct.Memory* %2
}

define %struct.Memory* @routine_movswl__r8w___eax(%struct.State* dereferenceable(3376), i64, %struct.Memory*) local_unnamed_addr {
block_400478:
  %PC = getelementptr inbounds %struct.State, %struct.State* %0, i64 0, i32 6, i32 33, i32 0, i32 0
  %3 = getelementptr inbounds %struct.State, %struct.State* %0, i64 0, i32 6, i32 17, i32 0
  %R8W = bitcast %union.anon* %3 to i16*
  %RAX = getelementptr inbounds %struct.State, %struct.State* %0, i64 0, i32 6, i32 1, i32 0, i32 0
  %4 = load i16, i16* %R8W, align 2
  %5 = load i64, i64* %PC, align 8
  %6 = add i64 %5, 4
  store i64 %6, i64* %PC, align 8
  %7 = sext i16 %4 to i64
  %8 = and i64 %7, 4294967295
  store i64 %8, i64* %RAX, align 8
  ret %struct.Memory* %2
}

define %struct.Memory* @routine_popq__rbp(%struct.State* dereferenceable(3376), i64, %struct.Memory*) local_unnamed_addr {
block_400478:
  %PC = getelementptr inbounds %struct.State, %struct.State* %0, i64 0, i32 6, i32 33, i32 0, i32 0
  %RBP = getelementptr inbounds %struct.State, %struct.State* %0, i64 0, i32 6, i32 15, i32 0, i32 0
  %3 = load i64, i64* %PC, align 8
  %4 = add i64 %3, 1
  store i64 %4, i64* %PC, align 8
  %5 = getelementptr inbounds %struct.State, %struct.State* %0, i64 0, i32 6, i32 13, i32 0, i32 0
  %6 = load i64, i64* %5, align 8
  %7 = add i64 %6, 8
  %8 = inttoptr i64 %6 to i64*
  %9 = load i64, i64* %8, align 8
  store i64 %9, i64* %RBP, align 8
  store i64 %7, i64* %5, align 8
  ret %struct.Memory* %2
}

define %struct.Memory* @routine_retq(%struct.State* dereferenceable(3376), i64, %struct.Memory*) local_unnamed_addr {
block_400478:
  %PC = getelementptr inbounds %struct.State, %struct.State* %0, i64 0, i32 6, i32 33, i32 0, i32 0
  %3 = load i64, i64* %PC, align 8
  %4 = add i64 %3, 1
  store i64 %4, i64* %PC, align 8
  %5 = getelementptr inbounds %struct.State, %struct.State* %0, i64 0, i32 6, i32 33, i32 0, i32 0
  %6 = getelementptr inbounds %struct.State, %struct.State* %0, i64 0, i32 6, i32 13, i32 0, i32 0
  %7 = load i64, i64* %6, align 8
  %8 = inttoptr i64 %7 to i64*
  %9 = load i64, i64* %8, align 8
  store i64 %9, i64* %5, align 8
  %10 = add i64 %7, 8
  store i64 %10, i64* %6, align 8
  ret %struct.Memory* %2
}

attributes #0 = { alwaysinline }
