; ModuleID = 'mcsema/test.proposed.inline.ll'
source_filename = "llvm-link"
target datalayout = "e-m:e-i64:64-f80:128-n8:16:32:64-S128"
target triple = "x86_64-pc-linux-gnu-elf"

%__bss_start_type = type <{ [8 x i8] }>
%struct.State = type { %struct.ArchState, [32 x %union.VectorReg], %struct.ArithFlags, %union.anon, %struct.Segments, %struct.AddressSpace, %struct.GPR, %struct.X87Stack, %struct.MMX, %struct.FPUStatusFlags, %union.anon, %union.FPU, %struct.SegmentCaches }
%struct.ArchState = type { i32, i32, %union.anon }
%union.VectorReg = type { %union.vec512_t }
%union.vec512_t = type { %struct.uint64v8_t }
%struct.uint64v8_t = type { [8 x i64] }
%struct.ArithFlags = type { i8, i8, i8, i8, i8, i8, i8, i8, i8, i8, i8, i8, i8, i8, i8, i8 }
%struct.Segments = type { i16, %union.SegmentSelector, i16, %union.SegmentSelector, i16, %union.SegmentSelector, i16, %union.SegmentSelector, i16, %union.SegmentSelector, i16, %union.SegmentSelector }
%union.SegmentSelector = type { i16 }
%struct.AddressSpace = type { i64, %struct.Reg, i64, %struct.Reg, i64, %struct.Reg, i64, %struct.Reg, i64, %struct.Reg, i64, %struct.Reg }
%struct.Reg = type { %union.anon }
%struct.GPR = type { i64, %struct.Reg, i64, %struct.Reg, i64, %struct.Reg, i64, %struct.Reg, i64, %struct.Reg, i64, %struct.Reg, i64, %struct.Reg, i64, %struct.Reg, i64, %struct.Reg, i64, %struct.Reg, i64, %struct.Reg, i64, %struct.Reg, i64, %struct.Reg, i64, %struct.Reg, i64, %struct.Reg, i64, %struct.Reg, i64, %struct.Reg }
%struct.X87Stack = type { [8 x %struct.anon.3] }
%struct.anon.3 = type { i64, double }
%struct.MMX = type { [8 x %struct.anon.4] }
%struct.anon.4 = type { i64, %union.vec64_t }
%union.vec64_t = type { %struct.uint64v1_t }
%struct.uint64v1_t = type { [1 x i64] }
%struct.FPUStatusFlags = type { i8, i8, i8, i8, i8, i8, i8, i8, i8, i8, i8, i8, i8, i8, i8, i8, i8, i8, i8, i8, [4 x i8] }
%union.anon = type { i64 }
%union.FPU = type { %struct.anon.13 }
%struct.anon.13 = type { %struct.FpuFXSAVE, [96 x i8] }
%struct.FpuFXSAVE = type { %union.SegmentSelector, %union.SegmentSelector, %union.FPUAbridgedTagWord, i8, i16, i32, %union.SegmentSelector, i16, i32, %union.SegmentSelector, i16, %union.FPUControlStatus, %union.FPUControlStatus, [8 x %struct.FPUStackElem], [16 x %union.vec128_t] }
%union.FPUAbridgedTagWord = type { i8 }
%union.FPUControlStatus = type { i32 }
%struct.FPUStackElem = type { %union.anon.11, [6 x i8] }
%union.anon.11 = type { %struct.float80_t }
%struct.float80_t = type { [10 x i8] }
%union.vec128_t = type { %struct.uint128v1_t }
%struct.uint128v1_t = type { [1 x i128] }
%struct.SegmentCaches = type { %struct.SegmentShadow, %struct.SegmentShadow, %struct.SegmentShadow, %struct.SegmentShadow, %struct.SegmentShadow, %struct.SegmentShadow }
%struct.SegmentShadow = type { %union.anon, i32, i32 }
%struct.Memory = type opaque

@__bss_start = local_unnamed_addr global %__bss_start_type zeroinitializer

declare %struct.Memory* @__remill_error(%struct.State* dereferenceable(3376), i64, %struct.Memory*) local_unnamed_addr

; Function Attrs: alwaysinline
define %struct.Memory* @_ZN31custom_divide_multiple_variableIlE8do_shiftElllll(%struct.State* noalias, i64, %struct.Memory* noalias) local_unnamed_addr #0 {
entry:
  %3 = getelementptr inbounds %struct.State, %struct.State* %0, i64 0, i32 6, i32 33, i32 0, i32 0
  %PC.i = getelementptr inbounds %struct.State, %struct.State* %0, i64 0, i32 6, i32 33, i32 0, i32 0
  %RBP.i = getelementptr inbounds %struct.State, %struct.State* %0, i64 0, i32 6, i32 15, i32 0, i32 0
  %4 = load i64, i64* %RBP.i, align 8
  %5 = add i64 %1, 1
  store i64 %5, i64* %PC.i, align 8
  %6 = getelementptr inbounds %struct.State, %struct.State* %0, i64 0, i32 6, i32 13, i32 0, i32 0
  %7 = load i64, i64* %6, align 8
  %8 = add i64 %7, -8
  %9 = inttoptr i64 %8 to i64*
  store i64 %4, i64* %9, align 8
  store i64 %8, i64* %6, align 8
  %10 = load i64, i64* %PC.i, align 8
  store i64 %8, i64* %RBP.i, align 8
  %RDI.i = getelementptr inbounds %struct.State, %struct.State* %0, i64 0, i32 6, i32 11, i32 0, i32 0
  %11 = add i64 %7, -16
  %12 = load i64, i64* %RDI.i, align 8
  %13 = add i64 %10, 7
  store i64 %13, i64* %PC.i, align 8
  %14 = inttoptr i64 %11 to i64*
  store i64 %12, i64* %14, align 8
  %RSI.i = getelementptr inbounds %struct.State, %struct.State* %0, i64 0, i32 6, i32 9, i32 0, i32 0
  %15 = load i64, i64* %RBP.i, align 8
  %16 = add i64 %15, -16
  %17 = load i64, i64* %RSI.i, align 8
  %18 = load i64, i64* %PC.i, align 8
  %19 = add i64 %18, 4
  store i64 %19, i64* %PC.i, align 8
  %20 = inttoptr i64 %16 to i64*
  store i64 %17, i64* %20, align 8
  %RDX.i = getelementptr inbounds %struct.State, %struct.State* %0, i64 0, i32 6, i32 7, i32 0, i32 0
  %21 = load i64, i64* %RBP.i, align 8
  %22 = add i64 %21, -24
  %23 = load i64, i64* %RDX.i, align 8
  %24 = load i64, i64* %PC.i, align 8
  %25 = add i64 %24, 4
  store i64 %25, i64* %PC.i, align 8
  %26 = inttoptr i64 %22 to i64*
  store i64 %23, i64* %26, align 8
  %RCX.i = getelementptr inbounds %struct.State, %struct.State* %0, i64 0, i32 6, i32 5, i32 0, i32 0
  %27 = load i64, i64* %RBP.i, align 8
  %28 = add i64 %27, -32
  %29 = load i64, i64* %RCX.i, align 8
  %30 = load i64, i64* %PC.i, align 8
  %31 = add i64 %30, 4
  store i64 %31, i64* %PC.i, align 8
  %32 = inttoptr i64 %28 to i64*
  store i64 %29, i64* %32, align 8
  %R8.i = getelementptr inbounds %struct.State, %struct.State* %0, i64 0, i32 6, i32 17, i32 0, i32 0
  %33 = load i64, i64* %RBP.i, align 8
  %34 = add i64 %33, -40
  %35 = load i64, i64* %R8.i, align 8
  %36 = load i64, i64* %PC.i, align 8
  %37 = add i64 %36, 4
  store i64 %37, i64* %PC.i, align 8
  %38 = inttoptr i64 %34 to i64*
  store i64 %35, i64* %38, align 8
  %RAX.i = getelementptr inbounds %struct.State, %struct.State* %0, i64 0, i32 6, i32 1, i32 0, i32 0
  %39 = load i64, i64* %RBP.i, align 8
  %40 = add i64 %39, -8
  %41 = load i64, i64* %PC.i, align 8
  %42 = add i64 %41, 4
  store i64 %42, i64* %PC.i, align 8
  %43 = inttoptr i64 %40 to i64*
  %44 = load i64, i64* %43, align 8
  store i64 %44, i64* %RAX.i, align 8
  %45 = getelementptr inbounds %struct.State, %struct.State* %0, i64 0, i32 6, i32 7, i32 0, i32 0
  %46 = getelementptr inbounds %struct.State, %struct.State* %0, i64 0, i32 6, i32 1, i32 0, i32 0
  %47 = ashr i64 %44, 63
  store i64 %47, i64* %45, align 8
  %48 = add i64 %39, -16
  %49 = add i64 %41, 10
  store i64 %49, i64* %PC.i, align 8
  %50 = inttoptr i64 %48 to i64*
  %51 = load i64, i64* %50, align 8
  %52 = sext i64 %51 to i128
  %53 = and i128 %52, -18446744073709551616
  %54 = zext i64 %47 to i128
  %55 = shl nuw i128 %54, 64
  %56 = zext i64 %44 to i128
  %57 = or i128 %55, %56
  %58 = zext i64 %51 to i128
  %59 = or i128 %53, %58
  %60 = sdiv i128 %57, %59
  %61 = trunc i128 %60 to i64
  %62 = and i128 %60, 18446744073709551615
  %63 = sext i64 %61 to i128
  %64 = and i128 %63, -18446744073709551616
  %65 = or i128 %64, %62
  %66 = icmp eq i128 %60, %65
  br i1 %66, label %69, label %67

; <label>:67:                                     ; preds = %entry
  %68 = tail call %struct.Memory* @__remill_error(%struct.State* nonnull dereferenceable(3376) %0, i64 %49, %struct.Memory* %2)
  %.pre = load i64, i64* %PC.i, align 8
  %.pre1 = load i64, i64* %46, align 8
  %.pre2 = load i64, i64* %RBP.i, align 8
  br label %routine_idivq_MINUS0x10__rbp_.exit

; <label>:69:                                     ; preds = %entry
  %70 = srem i128 %57, %59
  %71 = trunc i128 %70 to i64
  store i64 %61, i64* %46, align 8
  store i64 %71, i64* %45, align 8
  %72 = getelementptr inbounds %struct.State, %struct.State* %0, i64 0, i32 2, i32 1
  store i8 0, i8* %72, align 1
  %73 = getelementptr inbounds %struct.State, %struct.State* %0, i64 0, i32 2, i32 3
  store i8 0, i8* %73, align 1
  %74 = getelementptr inbounds %struct.State, %struct.State* %0, i64 0, i32 2, i32 5
  store i8 0, i8* %74, align 1
  %75 = getelementptr inbounds %struct.State, %struct.State* %0, i64 0, i32 2, i32 7
  store i8 0, i8* %75, align 1
  %76 = getelementptr inbounds %struct.State, %struct.State* %0, i64 0, i32 2, i32 9
  store i8 0, i8* %76, align 1
  %77 = getelementptr inbounds %struct.State, %struct.State* %0, i64 0, i32 2, i32 13
  store i8 0, i8* %77, align 1
  br label %routine_idivq_MINUS0x10__rbp_.exit

routine_idivq_MINUS0x10__rbp_.exit:               ; preds = %69, %67
  %78 = phi i64 [ %.pre2, %67 ], [ %39, %69 ]
  %79 = phi i64 [ %.pre1, %67 ], [ %61, %69 ]
  %80 = phi i64 [ %.pre, %67 ], [ %49, %69 ]
  %81 = phi %struct.Memory* [ %68, %67 ], [ %2, %69 ]
  %82 = ashr i64 %79, 63
  store i64 %82, i64* %45, align 8
  %83 = add i64 %78, -24
  %84 = add i64 %80, 6
  store i64 %84, i64* %PC.i, align 8
  %85 = inttoptr i64 %83 to i64*
  %86 = load i64, i64* %85, align 8
  %87 = sext i64 %86 to i128
  %88 = and i128 %87, -18446744073709551616
  %89 = zext i64 %82 to i128
  %90 = shl nuw i128 %89, 64
  %91 = zext i64 %79 to i128
  %92 = or i128 %90, %91
  %93 = zext i64 %86 to i128
  %94 = or i128 %88, %93
  %95 = sdiv i128 %92, %94
  %96 = trunc i128 %95 to i64
  %97 = and i128 %95, 18446744073709551615
  %98 = sext i64 %96 to i128
  %99 = and i128 %98, -18446744073709551616
  %100 = or i128 %99, %97
  %101 = icmp eq i128 %95, %100
  br i1 %101, label %104, label %102

; <label>:102:                                    ; preds = %routine_idivq_MINUS0x10__rbp_.exit
  %103 = tail call %struct.Memory* @__remill_error(%struct.State* nonnull dereferenceable(3376) %0, i64 %84, %struct.Memory* %81)
  %.pre3 = load i64, i64* %PC.i, align 8
  %.pre4 = load i64, i64* %46, align 8
  %.pre5 = load i64, i64* %RBP.i, align 8
  br label %routine_idivq_MINUS0x18__rbp_.exit

; <label>:104:                                    ; preds = %routine_idivq_MINUS0x10__rbp_.exit
  %105 = srem i128 %92, %94
  %106 = trunc i128 %105 to i64
  store i64 %96, i64* %46, align 8
  store i64 %106, i64* %45, align 8
  %107 = getelementptr inbounds %struct.State, %struct.State* %0, i64 0, i32 2, i32 1
  store i8 0, i8* %107, align 1
  %108 = getelementptr inbounds %struct.State, %struct.State* %0, i64 0, i32 2, i32 3
  store i8 0, i8* %108, align 1
  %109 = getelementptr inbounds %struct.State, %struct.State* %0, i64 0, i32 2, i32 5
  store i8 0, i8* %109, align 1
  %110 = getelementptr inbounds %struct.State, %struct.State* %0, i64 0, i32 2, i32 7
  store i8 0, i8* %110, align 1
  %111 = getelementptr inbounds %struct.State, %struct.State* %0, i64 0, i32 2, i32 9
  store i8 0, i8* %111, align 1
  %112 = getelementptr inbounds %struct.State, %struct.State* %0, i64 0, i32 2, i32 13
  store i8 0, i8* %112, align 1
  br label %routine_idivq_MINUS0x18__rbp_.exit

routine_idivq_MINUS0x18__rbp_.exit:               ; preds = %104, %102
  %113 = phi i64 [ %.pre5, %102 ], [ %78, %104 ]
  %114 = phi i64 [ %.pre4, %102 ], [ %96, %104 ]
  %115 = phi i64 [ %.pre3, %102 ], [ %84, %104 ]
  %116 = phi %struct.Memory* [ %103, %102 ], [ %81, %104 ]
  %117 = ashr i64 %114, 63
  store i64 %117, i64* %45, align 8
  %118 = add i64 %113, -32
  %119 = add i64 %115, 6
  store i64 %119, i64* %PC.i, align 8
  %120 = inttoptr i64 %118 to i64*
  %121 = load i64, i64* %120, align 8
  %122 = sext i64 %121 to i128
  %123 = and i128 %122, -18446744073709551616
  %124 = zext i64 %117 to i128
  %125 = shl nuw i128 %124, 64
  %126 = zext i64 %114 to i128
  %127 = or i128 %125, %126
  %128 = zext i64 %121 to i128
  %129 = or i128 %123, %128
  %130 = sdiv i128 %127, %129
  %131 = trunc i128 %130 to i64
  %132 = and i128 %130, 18446744073709551615
  %133 = sext i64 %131 to i128
  %134 = and i128 %133, -18446744073709551616
  %135 = or i128 %134, %132
  %136 = icmp eq i128 %130, %135
  br i1 %136, label %139, label %137

; <label>:137:                                    ; preds = %routine_idivq_MINUS0x18__rbp_.exit
  %138 = tail call %struct.Memory* @__remill_error(%struct.State* nonnull dereferenceable(3376) %0, i64 %119, %struct.Memory* %116)
  %.pre6 = load i64, i64* %PC.i, align 8
  %.pre7 = load i64, i64* %46, align 8
  %.pre8 = load i64, i64* %RBP.i, align 8
  br label %routine_idivq_MINUS0x20__rbp_.exit

; <label>:139:                                    ; preds = %routine_idivq_MINUS0x18__rbp_.exit
  %140 = srem i128 %127, %129
  %141 = trunc i128 %140 to i64
  store i64 %131, i64* %46, align 8
  store i64 %141, i64* %45, align 8
  %142 = getelementptr inbounds %struct.State, %struct.State* %0, i64 0, i32 2, i32 1
  store i8 0, i8* %142, align 1
  %143 = getelementptr inbounds %struct.State, %struct.State* %0, i64 0, i32 2, i32 3
  store i8 0, i8* %143, align 1
  %144 = getelementptr inbounds %struct.State, %struct.State* %0, i64 0, i32 2, i32 5
  store i8 0, i8* %144, align 1
  %145 = getelementptr inbounds %struct.State, %struct.State* %0, i64 0, i32 2, i32 7
  store i8 0, i8* %145, align 1
  %146 = getelementptr inbounds %struct.State, %struct.State* %0, i64 0, i32 2, i32 9
  store i8 0, i8* %146, align 1
  %147 = getelementptr inbounds %struct.State, %struct.State* %0, i64 0, i32 2, i32 13
  store i8 0, i8* %147, align 1
  br label %routine_idivq_MINUS0x20__rbp_.exit

routine_idivq_MINUS0x20__rbp_.exit:               ; preds = %139, %137
  %148 = phi i64 [ %.pre8, %137 ], [ %113, %139 ]
  %149 = phi i64 [ %.pre7, %137 ], [ %131, %139 ]
  %150 = phi i64 [ %.pre6, %137 ], [ %119, %139 ]
  %151 = phi %struct.Memory* [ %138, %137 ], [ %116, %139 ]
  %152 = ashr i64 %149, 63
  store i64 %152, i64* %45, align 8
  %153 = add i64 %148, -40
  %154 = add i64 %150, 6
  store i64 %154, i64* %PC.i, align 8
  %155 = inttoptr i64 %153 to i64*
  %156 = load i64, i64* %155, align 8
  %157 = sext i64 %156 to i128
  %158 = and i128 %157, -18446744073709551616
  %159 = zext i64 %152 to i128
  %160 = shl nuw i128 %159, 64
  %161 = zext i64 %149 to i128
  %162 = or i128 %160, %161
  %163 = zext i64 %156 to i128
  %164 = or i128 %158, %163
  %165 = sdiv i128 %162, %164
  %166 = trunc i128 %165 to i64
  %167 = and i128 %165, 18446744073709551615
  %168 = sext i64 %166 to i128
  %169 = and i128 %168, -18446744073709551616
  %170 = or i128 %169, %167
  %171 = icmp eq i128 %165, %170
  br i1 %171, label %174, label %172

; <label>:172:                                    ; preds = %routine_idivq_MINUS0x20__rbp_.exit
  %173 = tail call %struct.Memory* @__remill_error(%struct.State* nonnull dereferenceable(3376) %0, i64 %154, %struct.Memory* %151)
  %.pre9 = load i64, i64* %PC.i, align 8
  br label %routine_idivq_MINUS0x28__rbp_.exit

; <label>:174:                                    ; preds = %routine_idivq_MINUS0x20__rbp_.exit
  %175 = srem i128 %162, %164
  %176 = trunc i128 %175 to i64
  store i64 %166, i64* %46, align 8
  store i64 %176, i64* %45, align 8
  %177 = getelementptr inbounds %struct.State, %struct.State* %0, i64 0, i32 2, i32 1
  store i8 0, i8* %177, align 1
  %178 = getelementptr inbounds %struct.State, %struct.State* %0, i64 0, i32 2, i32 3
  store i8 0, i8* %178, align 1
  %179 = getelementptr inbounds %struct.State, %struct.State* %0, i64 0, i32 2, i32 5
  store i8 0, i8* %179, align 1
  %180 = getelementptr inbounds %struct.State, %struct.State* %0, i64 0, i32 2, i32 7
  store i8 0, i8* %180, align 1
  %181 = getelementptr inbounds %struct.State, %struct.State* %0, i64 0, i32 2, i32 9
  store i8 0, i8* %181, align 1
  %182 = getelementptr inbounds %struct.State, %struct.State* %0, i64 0, i32 2, i32 13
  store i8 0, i8* %182, align 1
  br label %routine_idivq_MINUS0x28__rbp_.exit

routine_idivq_MINUS0x28__rbp_.exit:               ; preds = %174, %172
  %183 = phi i64 [ %.pre9, %172 ], [ %154, %174 ]
  %184 = phi %struct.Memory* [ %173, %172 ], [ %151, %174 ]
  %185 = add i64 %183, 1
  store i64 %185, i64* %PC.i, align 8
  %186 = load i64, i64* %6, align 8
  %187 = add i64 %186, 8
  %188 = inttoptr i64 %186 to i64*
  %189 = load i64, i64* %188, align 8
  store i64 %189, i64* %RBP.i, align 8
  store i64 %187, i64* %6, align 8
  %190 = add i64 %183, 2
  store i64 %190, i64* %PC.i, align 8
  %191 = inttoptr i64 %187 to i64*
  %192 = load i64, i64* %191, align 8
  store i64 %192, i64* %3, align 8
  %193 = add i64 %186, 16
  store i64 %193, i64* %6, align 8
  ret %struct.Memory* %184
}

define %struct.Memory* @routine_pushq__rbp(%struct.State* dereferenceable(3376), i64, %struct.Memory*) local_unnamed_addr {
block_400478:
  %PC = getelementptr inbounds %struct.State, %struct.State* %0, i64 0, i32 6, i32 33, i32 0, i32 0
  %RBP = getelementptr inbounds %struct.State, %struct.State* %0, i64 0, i32 6, i32 15, i32 0, i32 0
  %3 = load i64, i64* %RBP, align 8
  %4 = load i64, i64* %PC, align 8
  %5 = add i64 %4, 1
  store i64 %5, i64* %PC, align 8
  %6 = getelementptr inbounds %struct.State, %struct.State* %0, i64 0, i32 6, i32 13, i32 0, i32 0
  %7 = load i64, i64* %6, align 8
  %8 = add i64 %7, -8
  %9 = inttoptr i64 %8 to i64*
  store i64 %3, i64* %9, align 8
  store i64 %8, i64* %6, align 8
  ret %struct.Memory* %2
}

define %struct.Memory* @routine_movq__rsp___rbp(%struct.State* dereferenceable(3376), i64, %struct.Memory*) local_unnamed_addr {
block_400478:
  %PC = getelementptr inbounds %struct.State, %struct.State* %0, i64 0, i32 6, i32 33, i32 0, i32 0
  %RSP = getelementptr inbounds %struct.State, %struct.State* %0, i64 0, i32 6, i32 13, i32 0, i32 0
  %RBP = getelementptr inbounds %struct.State, %struct.State* %0, i64 0, i32 6, i32 15, i32 0, i32 0
  %3 = load i64, i64* %RSP, align 8
  %4 = load i64, i64* %PC, align 8
  %5 = add i64 %4, 3
  store i64 %5, i64* %PC, align 8
  store i64 %3, i64* %RBP, align 8
  ret %struct.Memory* %2
}

define %struct.Memory* @routine_movq__rdi__MINUS0x8__rbp_(%struct.State* dereferenceable(3376), i64, %struct.Memory*) local_unnamed_addr {
block_400478:
  %PC = getelementptr inbounds %struct.State, %struct.State* %0, i64 0, i32 6, i32 33, i32 0, i32 0
  %RDI = getelementptr inbounds %struct.State, %struct.State* %0, i64 0, i32 6, i32 11, i32 0, i32 0
  %RBP = getelementptr inbounds %struct.State, %struct.State* %0, i64 0, i32 6, i32 15, i32 0, i32 0
  %3 = load i64, i64* %RBP, align 8
  %4 = add i64 %3, -8
  %5 = load i64, i64* %RDI, align 8
  %6 = load i64, i64* %PC, align 8
  %7 = add i64 %6, 4
  store i64 %7, i64* %PC, align 8
  %8 = inttoptr i64 %4 to i64*
  store i64 %5, i64* %8, align 8
  ret %struct.Memory* %2
}

define %struct.Memory* @routine_movq__rsi__MINUS0x10__rbp_(%struct.State* dereferenceable(3376), i64, %struct.Memory*) local_unnamed_addr {
block_400478:
  %PC = getelementptr inbounds %struct.State, %struct.State* %0, i64 0, i32 6, i32 33, i32 0, i32 0
  %RSI = getelementptr inbounds %struct.State, %struct.State* %0, i64 0, i32 6, i32 9, i32 0, i32 0
  %RBP = getelementptr inbounds %struct.State, %struct.State* %0, i64 0, i32 6, i32 15, i32 0, i32 0
  %3 = load i64, i64* %RBP, align 8
  %4 = add i64 %3, -16
  %5 = load i64, i64* %RSI, align 8
  %6 = load i64, i64* %PC, align 8
  %7 = add i64 %6, 4
  store i64 %7, i64* %PC, align 8
  %8 = inttoptr i64 %4 to i64*
  store i64 %5, i64* %8, align 8
  ret %struct.Memory* %2
}

define %struct.Memory* @routine_movq__rdx__MINUS0x18__rbp_(%struct.State* dereferenceable(3376), i64, %struct.Memory*) local_unnamed_addr {
block_400478:
  %PC = getelementptr inbounds %struct.State, %struct.State* %0, i64 0, i32 6, i32 33, i32 0, i32 0
  %RDX = getelementptr inbounds %struct.State, %struct.State* %0, i64 0, i32 6, i32 7, i32 0, i32 0
  %RBP = getelementptr inbounds %struct.State, %struct.State* %0, i64 0, i32 6, i32 15, i32 0, i32 0
  %3 = load i64, i64* %RBP, align 8
  %4 = add i64 %3, -24
  %5 = load i64, i64* %RDX, align 8
  %6 = load i64, i64* %PC, align 8
  %7 = add i64 %6, 4
  store i64 %7, i64* %PC, align 8
  %8 = inttoptr i64 %4 to i64*
  store i64 %5, i64* %8, align 8
  ret %struct.Memory* %2
}

define %struct.Memory* @routine_movq__rcx__MINUS0x20__rbp_(%struct.State* dereferenceable(3376), i64, %struct.Memory*) local_unnamed_addr {
block_400478:
  %PC = getelementptr inbounds %struct.State, %struct.State* %0, i64 0, i32 6, i32 33, i32 0, i32 0
  %RCX = getelementptr inbounds %struct.State, %struct.State* %0, i64 0, i32 6, i32 5, i32 0, i32 0
  %RBP = getelementptr inbounds %struct.State, %struct.State* %0, i64 0, i32 6, i32 15, i32 0, i32 0
  %3 = load i64, i64* %RBP, align 8
  %4 = add i64 %3, -32
  %5 = load i64, i64* %RCX, align 8
  %6 = load i64, i64* %PC, align 8
  %7 = add i64 %6, 4
  store i64 %7, i64* %PC, align 8
  %8 = inttoptr i64 %4 to i64*
  store i64 %5, i64* %8, align 8
  ret %struct.Memory* %2
}

define %struct.Memory* @routine_movq__r8__MINUS0x28__rbp_(%struct.State* dereferenceable(3376), i64, %struct.Memory*) local_unnamed_addr {
block_400478:
  %PC = getelementptr inbounds %struct.State, %struct.State* %0, i64 0, i32 6, i32 33, i32 0, i32 0
  %RBP = getelementptr inbounds %struct.State, %struct.State* %0, i64 0, i32 6, i32 15, i32 0, i32 0
  %R8 = getelementptr inbounds %struct.State, %struct.State* %0, i64 0, i32 6, i32 17, i32 0, i32 0
  %3 = load i64, i64* %RBP, align 8
  %4 = add i64 %3, -40
  %5 = load i64, i64* %R8, align 8
  %6 = load i64, i64* %PC, align 8
  %7 = add i64 %6, 4
  store i64 %7, i64* %PC, align 8
  %8 = inttoptr i64 %4 to i64*
  store i64 %5, i64* %8, align 8
  ret %struct.Memory* %2
}

define %struct.Memory* @routine_movq_MINUS0x8__rbp____rax(%struct.State* dereferenceable(3376), i64, %struct.Memory*) local_unnamed_addr {
block_400478:
  %PC = getelementptr inbounds %struct.State, %struct.State* %0, i64 0, i32 6, i32 33, i32 0, i32 0
  %RAX = getelementptr inbounds %struct.State, %struct.State* %0, i64 0, i32 6, i32 1, i32 0, i32 0
  %RBP = getelementptr inbounds %struct.State, %struct.State* %0, i64 0, i32 6, i32 15, i32 0, i32 0
  %3 = load i64, i64* %RBP, align 8
  %4 = add i64 %3, -8
  %5 = load i64, i64* %PC, align 8
  %6 = add i64 %5, 4
  store i64 %6, i64* %PC, align 8
  %7 = inttoptr i64 %4 to i64*
  %8 = load i64, i64* %7, align 8
  store i64 %8, i64* %RAX, align 8
  ret %struct.Memory* %2
}

define %struct.Memory* @routine_cqto(%struct.State* dereferenceable(3376), i64, %struct.Memory*) local_unnamed_addr {
block_400478:
  %PC = getelementptr inbounds %struct.State, %struct.State* %0, i64 0, i32 6, i32 33, i32 0, i32 0
  %3 = load i64, i64* %PC, align 8
  %4 = add i64 %3, 2
  store i64 %4, i64* %PC, align 8
  %5 = getelementptr inbounds %struct.State, %struct.State* %0, i64 0, i32 6, i32 7, i32 0, i32 0
  %6 = getelementptr inbounds %struct.State, %struct.State* %0, i64 0, i32 6, i32 1, i32 0, i32 0
  %7 = load i64, i64* %6, align 8
  %8 = ashr i64 %7, 63
  store i64 %8, i64* %5, align 8
  ret %struct.Memory* %2
}

define %struct.Memory* @routine_idivq_MINUS0x10__rbp_(%struct.State* dereferenceable(3376), i64, %struct.Memory*) local_unnamed_addr {
block_400478:
  %PC = getelementptr inbounds %struct.State, %struct.State* %0, i64 0, i32 6, i32 33, i32 0, i32 0
  %RBP = getelementptr inbounds %struct.State, %struct.State* %0, i64 0, i32 6, i32 15, i32 0, i32 0
  %3 = load i64, i64* %RBP, align 8
  %4 = add i64 %3, -16
  %5 = load i64, i64* %PC, align 8
  %6 = add i64 %5, 4
  store i64 %6, i64* %PC, align 8
  %7 = getelementptr inbounds %struct.State, %struct.State* %0, i64 0, i32 6, i32 1, i32 0, i32 0
  %8 = load i64, i64* %7, align 8
  %9 = getelementptr inbounds %struct.State, %struct.State* %0, i64 0, i32 6, i32 7, i32 0, i32 0
  %10 = load i64, i64* %9, align 8
  %11 = inttoptr i64 %4 to i64*
  %12 = load i64, i64* %11, align 8
  %13 = sext i64 %12 to i128
  %14 = and i128 %13, -18446744073709551616
  %15 = zext i64 %10 to i128
  %16 = shl nuw i128 %15, 64
  %17 = zext i64 %8 to i128
  %18 = or i128 %16, %17
  %19 = zext i64 %12 to i128
  %20 = or i128 %14, %19
  %21 = sdiv i128 %18, %20
  %22 = trunc i128 %21 to i64
  %23 = and i128 %21, 18446744073709551615
  %24 = sext i64 %22 to i128
  %25 = and i128 %24, -18446744073709551616
  %26 = or i128 %25, %23
  %27 = icmp eq i128 %21, %26
  br i1 %27, label %30, label %28

; <label>:28:                                     ; preds = %block_400478
  %29 = tail call %struct.Memory* @__remill_error(%struct.State* nonnull dereferenceable(3376) %0, i64 %6, %struct.Memory* %2)
  br label %_ZN12_GLOBAL__N_1L10IDIVrdxraxI2MnImEEEP6MemoryS4_R5StateT_.exit

; <label>:30:                                     ; preds = %block_400478
  %31 = srem i128 %18, %20
  %32 = trunc i128 %31 to i64
  store i64 %22, i64* %7, align 8
  store i64 %32, i64* %9, align 8
  %33 = getelementptr inbounds %struct.State, %struct.State* %0, i64 0, i32 2, i32 1
  store i8 0, i8* %33, align 1
  %34 = getelementptr inbounds %struct.State, %struct.State* %0, i64 0, i32 2, i32 3
  store i8 0, i8* %34, align 1
  %35 = getelementptr inbounds %struct.State, %struct.State* %0, i64 0, i32 2, i32 5
  store i8 0, i8* %35, align 1
  %36 = getelementptr inbounds %struct.State, %struct.State* %0, i64 0, i32 2, i32 7
  store i8 0, i8* %36, align 1
  %37 = getelementptr inbounds %struct.State, %struct.State* %0, i64 0, i32 2, i32 9
  store i8 0, i8* %37, align 1
  %38 = getelementptr inbounds %struct.State, %struct.State* %0, i64 0, i32 2, i32 13
  store i8 0, i8* %38, align 1
  br label %_ZN12_GLOBAL__N_1L10IDIVrdxraxI2MnImEEEP6MemoryS4_R5StateT_.exit

_ZN12_GLOBAL__N_1L10IDIVrdxraxI2MnImEEEP6MemoryS4_R5StateT_.exit: ; preds = %30, %28
  %39 = phi %struct.Memory* [ %29, %28 ], [ %2, %30 ]
  ret %struct.Memory* %39
}

define %struct.Memory* @routine_idivq_MINUS0x18__rbp_(%struct.State* dereferenceable(3376), i64, %struct.Memory*) local_unnamed_addr {
block_400478:
  %PC = getelementptr inbounds %struct.State, %struct.State* %0, i64 0, i32 6, i32 33, i32 0, i32 0
  %RBP = getelementptr inbounds %struct.State, %struct.State* %0, i64 0, i32 6, i32 15, i32 0, i32 0
  %3 = load i64, i64* %RBP, align 8
  %4 = add i64 %3, -24
  %5 = load i64, i64* %PC, align 8
  %6 = add i64 %5, 4
  store i64 %6, i64* %PC, align 8
  %7 = getelementptr inbounds %struct.State, %struct.State* %0, i64 0, i32 6, i32 1, i32 0, i32 0
  %8 = load i64, i64* %7, align 8
  %9 = getelementptr inbounds %struct.State, %struct.State* %0, i64 0, i32 6, i32 7, i32 0, i32 0
  %10 = load i64, i64* %9, align 8
  %11 = inttoptr i64 %4 to i64*
  %12 = load i64, i64* %11, align 8
  %13 = sext i64 %12 to i128
  %14 = and i128 %13, -18446744073709551616
  %15 = zext i64 %10 to i128
  %16 = shl nuw i128 %15, 64
  %17 = zext i64 %8 to i128
  %18 = or i128 %16, %17
  %19 = zext i64 %12 to i128
  %20 = or i128 %14, %19
  %21 = sdiv i128 %18, %20
  %22 = trunc i128 %21 to i64
  %23 = and i128 %21, 18446744073709551615
  %24 = sext i64 %22 to i128
  %25 = and i128 %24, -18446744073709551616
  %26 = or i128 %25, %23
  %27 = icmp eq i128 %21, %26
  br i1 %27, label %30, label %28

; <label>:28:                                     ; preds = %block_400478
  %29 = tail call %struct.Memory* @__remill_error(%struct.State* nonnull dereferenceable(3376) %0, i64 %6, %struct.Memory* %2)
  br label %_ZN12_GLOBAL__N_1L10IDIVrdxraxI2MnImEEEP6MemoryS4_R5StateT_.exit

; <label>:30:                                     ; preds = %block_400478
  %31 = srem i128 %18, %20
  %32 = trunc i128 %31 to i64
  store i64 %22, i64* %7, align 8
  store i64 %32, i64* %9, align 8
  %33 = getelementptr inbounds %struct.State, %struct.State* %0, i64 0, i32 2, i32 1
  store i8 0, i8* %33, align 1
  %34 = getelementptr inbounds %struct.State, %struct.State* %0, i64 0, i32 2, i32 3
  store i8 0, i8* %34, align 1
  %35 = getelementptr inbounds %struct.State, %struct.State* %0, i64 0, i32 2, i32 5
  store i8 0, i8* %35, align 1
  %36 = getelementptr inbounds %struct.State, %struct.State* %0, i64 0, i32 2, i32 7
  store i8 0, i8* %36, align 1
  %37 = getelementptr inbounds %struct.State, %struct.State* %0, i64 0, i32 2, i32 9
  store i8 0, i8* %37, align 1
  %38 = getelementptr inbounds %struct.State, %struct.State* %0, i64 0, i32 2, i32 13
  store i8 0, i8* %38, align 1
  br label %_ZN12_GLOBAL__N_1L10IDIVrdxraxI2MnImEEEP6MemoryS4_R5StateT_.exit

_ZN12_GLOBAL__N_1L10IDIVrdxraxI2MnImEEEP6MemoryS4_R5StateT_.exit: ; preds = %30, %28
  %39 = phi %struct.Memory* [ %29, %28 ], [ %2, %30 ]
  ret %struct.Memory* %39
}

define %struct.Memory* @routine_idivq_MINUS0x20__rbp_(%struct.State* dereferenceable(3376), i64, %struct.Memory*) local_unnamed_addr {
block_400478:
  %PC = getelementptr inbounds %struct.State, %struct.State* %0, i64 0, i32 6, i32 33, i32 0, i32 0
  %RBP = getelementptr inbounds %struct.State, %struct.State* %0, i64 0, i32 6, i32 15, i32 0, i32 0
  %3 = load i64, i64* %RBP, align 8
  %4 = add i64 %3, -32
  %5 = load i64, i64* %PC, align 8
  %6 = add i64 %5, 4
  store i64 %6, i64* %PC, align 8
  %7 = getelementptr inbounds %struct.State, %struct.State* %0, i64 0, i32 6, i32 1, i32 0, i32 0
  %8 = load i64, i64* %7, align 8
  %9 = getelementptr inbounds %struct.State, %struct.State* %0, i64 0, i32 6, i32 7, i32 0, i32 0
  %10 = load i64, i64* %9, align 8
  %11 = inttoptr i64 %4 to i64*
  %12 = load i64, i64* %11, align 8
  %13 = sext i64 %12 to i128
  %14 = and i128 %13, -18446744073709551616
  %15 = zext i64 %10 to i128
  %16 = shl nuw i128 %15, 64
  %17 = zext i64 %8 to i128
  %18 = or i128 %16, %17
  %19 = zext i64 %12 to i128
  %20 = or i128 %14, %19
  %21 = sdiv i128 %18, %20
  %22 = trunc i128 %21 to i64
  %23 = and i128 %21, 18446744073709551615
  %24 = sext i64 %22 to i128
  %25 = and i128 %24, -18446744073709551616
  %26 = or i128 %25, %23
  %27 = icmp eq i128 %21, %26
  br i1 %27, label %30, label %28

; <label>:28:                                     ; preds = %block_400478
  %29 = tail call %struct.Memory* @__remill_error(%struct.State* nonnull dereferenceable(3376) %0, i64 %6, %struct.Memory* %2)
  br label %_ZN12_GLOBAL__N_1L10IDIVrdxraxI2MnImEEEP6MemoryS4_R5StateT_.exit

; <label>:30:                                     ; preds = %block_400478
  %31 = srem i128 %18, %20
  %32 = trunc i128 %31 to i64
  store i64 %22, i64* %7, align 8
  store i64 %32, i64* %9, align 8
  %33 = getelementptr inbounds %struct.State, %struct.State* %0, i64 0, i32 2, i32 1
  store i8 0, i8* %33, align 1
  %34 = getelementptr inbounds %struct.State, %struct.State* %0, i64 0, i32 2, i32 3
  store i8 0, i8* %34, align 1
  %35 = getelementptr inbounds %struct.State, %struct.State* %0, i64 0, i32 2, i32 5
  store i8 0, i8* %35, align 1
  %36 = getelementptr inbounds %struct.State, %struct.State* %0, i64 0, i32 2, i32 7
  store i8 0, i8* %36, align 1
  %37 = getelementptr inbounds %struct.State, %struct.State* %0, i64 0, i32 2, i32 9
  store i8 0, i8* %37, align 1
  %38 = getelementptr inbounds %struct.State, %struct.State* %0, i64 0, i32 2, i32 13
  store i8 0, i8* %38, align 1
  br label %_ZN12_GLOBAL__N_1L10IDIVrdxraxI2MnImEEEP6MemoryS4_R5StateT_.exit

_ZN12_GLOBAL__N_1L10IDIVrdxraxI2MnImEEEP6MemoryS4_R5StateT_.exit: ; preds = %30, %28
  %39 = phi %struct.Memory* [ %29, %28 ], [ %2, %30 ]
  ret %struct.Memory* %39
}

define %struct.Memory* @routine_idivq_MINUS0x28__rbp_(%struct.State* dereferenceable(3376), i64, %struct.Memory*) local_unnamed_addr {
block_400478:
  %PC = getelementptr inbounds %struct.State, %struct.State* %0, i64 0, i32 6, i32 33, i32 0, i32 0
  %RBP = getelementptr inbounds %struct.State, %struct.State* %0, i64 0, i32 6, i32 15, i32 0, i32 0
  %3 = load i64, i64* %RBP, align 8
  %4 = add i64 %3, -40
  %5 = load i64, i64* %PC, align 8
  %6 = add i64 %5, 4
  store i64 %6, i64* %PC, align 8
  %7 = getelementptr inbounds %struct.State, %struct.State* %0, i64 0, i32 6, i32 1, i32 0, i32 0
  %8 = load i64, i64* %7, align 8
  %9 = getelementptr inbounds %struct.State, %struct.State* %0, i64 0, i32 6, i32 7, i32 0, i32 0
  %10 = load i64, i64* %9, align 8
  %11 = inttoptr i64 %4 to i64*
  %12 = load i64, i64* %11, align 8
  %13 = sext i64 %12 to i128
  %14 = and i128 %13, -18446744073709551616
  %15 = zext i64 %10 to i128
  %16 = shl nuw i128 %15, 64
  %17 = zext i64 %8 to i128
  %18 = or i128 %16, %17
  %19 = zext i64 %12 to i128
  %20 = or i128 %14, %19
  %21 = sdiv i128 %18, %20
  %22 = trunc i128 %21 to i64
  %23 = and i128 %21, 18446744073709551615
  %24 = sext i64 %22 to i128
  %25 = and i128 %24, -18446744073709551616
  %26 = or i128 %25, %23
  %27 = icmp eq i128 %21, %26
  br i1 %27, label %30, label %28

; <label>:28:                                     ; preds = %block_400478
  %29 = tail call %struct.Memory* @__remill_error(%struct.State* nonnull dereferenceable(3376) %0, i64 %6, %struct.Memory* %2)
  br label %_ZN12_GLOBAL__N_1L10IDIVrdxraxI2MnImEEEP6MemoryS4_R5StateT_.exit

; <label>:30:                                     ; preds = %block_400478
  %31 = srem i128 %18, %20
  %32 = trunc i128 %31 to i64
  store i64 %22, i64* %7, align 8
  store i64 %32, i64* %9, align 8
  %33 = getelementptr inbounds %struct.State, %struct.State* %0, i64 0, i32 2, i32 1
  store i8 0, i8* %33, align 1
  %34 = getelementptr inbounds %struct.State, %struct.State* %0, i64 0, i32 2, i32 3
  store i8 0, i8* %34, align 1
  %35 = getelementptr inbounds %struct.State, %struct.State* %0, i64 0, i32 2, i32 5
  store i8 0, i8* %35, align 1
  %36 = getelementptr inbounds %struct.State, %struct.State* %0, i64 0, i32 2, i32 7
  store i8 0, i8* %36, align 1
  %37 = getelementptr inbounds %struct.State, %struct.State* %0, i64 0, i32 2, i32 9
  store i8 0, i8* %37, align 1
  %38 = getelementptr inbounds %struct.State, %struct.State* %0, i64 0, i32 2, i32 13
  store i8 0, i8* %38, align 1
  br label %_ZN12_GLOBAL__N_1L10IDIVrdxraxI2MnImEEEP6MemoryS4_R5StateT_.exit

_ZN12_GLOBAL__N_1L10IDIVrdxraxI2MnImEEEP6MemoryS4_R5StateT_.exit: ; preds = %30, %28
  %39 = phi %struct.Memory* [ %29, %28 ], [ %2, %30 ]
  ret %struct.Memory* %39
}

define %struct.Memory* @routine_popq__rbp(%struct.State* dereferenceable(3376), i64, %struct.Memory*) local_unnamed_addr {
block_400478:
  %PC = getelementptr inbounds %struct.State, %struct.State* %0, i64 0, i32 6, i32 33, i32 0, i32 0
  %RBP = getelementptr inbounds %struct.State, %struct.State* %0, i64 0, i32 6, i32 15, i32 0, i32 0
  %3 = load i64, i64* %PC, align 8
  %4 = add i64 %3, 1
  store i64 %4, i64* %PC, align 8
  %5 = getelementptr inbounds %struct.State, %struct.State* %0, i64 0, i32 6, i32 13, i32 0, i32 0
  %6 = load i64, i64* %5, align 8
  %7 = add i64 %6, 8
  %8 = inttoptr i64 %6 to i64*
  %9 = load i64, i64* %8, align 8
  store i64 %9, i64* %RBP, align 8
  store i64 %7, i64* %5, align 8
  ret %struct.Memory* %2
}

define %struct.Memory* @routine_retq(%struct.State* dereferenceable(3376), i64, %struct.Memory*) local_unnamed_addr {
block_400478:
  %PC = getelementptr inbounds %struct.State, %struct.State* %0, i64 0, i32 6, i32 33, i32 0, i32 0
  %3 = load i64, i64* %PC, align 8
  %4 = add i64 %3, 1
  store i64 %4, i64* %PC, align 8
  %5 = getelementptr inbounds %struct.State, %struct.State* %0, i64 0, i32 6, i32 33, i32 0, i32 0
  %6 = getelementptr inbounds %struct.State, %struct.State* %0, i64 0, i32 6, i32 13, i32 0, i32 0
  %7 = load i64, i64* %6, align 8
  %8 = inttoptr i64 %7 to i64*
  %9 = load i64, i64* %8, align 8
  store i64 %9, i64* %5, align 8
  %10 = add i64 %7, 8
  store i64 %10, i64* %6, align 8
  ret %struct.Memory* %2
}

attributes #0 = { alwaysinline }
