; ModuleID = 'test.bc'
source_filename = "llvm-link"
target datalayout = "e-m:e-i64:64-f80:128-n8:16:32:64-S128"
target triple = "x86_64-pc-linux-gnu-elf"
%union.anon = type { i64 }
%seg_400388__init_type = type <{ [23 x i8] }>
%seg_4003a0__text_type = type <{ [354 x i8] }>
%seg_400504__fini_type = type <{ [9 x i8] }>
%seg_400510__rodata_type = type <{ [4 x i8] }>
%seg_400514__eh_frame_hdr_type = type <{ [52 x i8] }>
%seg_400548__eh_frame_type = type <{ [208 x i8] }>
%seg_600e40__init_array_type = type <{ i64, i64 }>
%seg_601018__data_type = type <{ [16 x i8] }>
%__bss_start_type = type <{ [8 x i8] }>
%struct.State = type { %struct.ArchState, [32 x %union.VectorReg], %struct.ArithFlags, %union.anon, %struct.Segments, %struct.AddressSpace, %struct.GPR, %struct.X87Stack, %struct.MMX, %struct.FPUStatusFlags, %union.anon, %union.FPU, %struct.SegmentCaches }
%struct.ArchState = type { i32, i32, %union.anon }
%union.VectorReg = type { %union.vec512_t }
%union.vec512_t = type { %struct.uint64v8_t }
%struct.uint64v8_t = type { [8 x i64] }
%struct.ArithFlags = type { i8, i8, i8, i8, i8, i8, i8, i8, i8, i8, i8, i8, i8, i8, i8, i8 }
%struct.Segments = type { i16, %union.SegmentSelector, i16, %union.SegmentSelector, i16, %union.SegmentSelector, i16, %union.SegmentSelector, i16, %union.SegmentSelector, i16, %union.SegmentSelector }
%union.SegmentSelector = type { i16 }
%struct.AddressSpace = type { i64, %struct.Reg, i64, %struct.Reg, i64, %struct.Reg, i64, %struct.Reg, i64, %struct.Reg, i64, %struct.Reg }
%struct.Reg = type { %union.anon }
%struct.GPR = type { i64, %struct.Reg, i64, %struct.Reg, i64, %struct.Reg, i64, %struct.Reg, i64, %struct.Reg, i64, %struct.Reg, i64, %struct.Reg, i64, %struct.Reg, i64, %struct.Reg, i64, %struct.Reg, i64, %struct.Reg, i64, %struct.Reg, i64, %struct.Reg, i64, %struct.Reg, i64, %struct.Reg, i64, %struct.Reg, i64, %struct.Reg }
%struct.X87Stack = type { [8 x %struct.anon.3] }
%struct.anon.3 = type { i64, double }
%struct.MMX = type { [8 x %struct.anon.4] }
%struct.anon.4 = type { i64, %union.vec64_t }
%union.vec64_t = type { %struct.uint64v1_t }
%struct.uint64v1_t = type { [1 x i64] }
%struct.FPUStatusFlags = type { i8, i8, i8, i8, i8, i8, i8, i8, i8, i8, i8, i8, i8, i8, i8, i8, i8, i8, i8, i8, [4 x i8] }
%union.FPU = type { %struct.anon.13 }
%struct.anon.13 = type { %struct.FpuFXSAVE, [96 x i8] }
%struct.FpuFXSAVE = type { %union.SegmentSelector, %union.SegmentSelector, %union.FPUAbridgedTagWord, i8, i16, i32, %union.SegmentSelector, i16, i32, %union.SegmentSelector, i16, %union.FPUControlStatus, %union.FPUControlStatus, [8 x %struct.FPUStackElem], [16 x %union.vec128_t] }
%union.FPUAbridgedTagWord = type { i8 }
%union.FPUControlStatus = type { i32 }
%struct.FPUStackElem = type { %union.anon.11, [6 x i8] }
%union.anon.11 = type { %struct.float80_t }
%struct.float80_t = type { [10 x i8] }
%union.vec128_t = type { %struct.uint128v1_t }
%struct.uint128v1_t = type { [1 x i128] }
%struct.SegmentCaches = type { %struct.SegmentShadow, %struct.SegmentShadow, %struct.SegmentShadow, %struct.SegmentShadow, %struct.SegmentShadow, %struct.SegmentShadow }
%struct.SegmentShadow = type { %union.anon, i32, i32 }
%struct.Memory = type opaque
%struct.uint8v32_t = type { [32 x i8] }
%struct.anon.2 = type { i8, i8 }
%struct.int32v8_t = type { [8 x i32] }
%struct.float32v8_t = type { [8 x float] }
%struct.uint8v8_t = type { [8 x i8] }
%struct.uint8v16_t = type { [16 x i8] }
%struct.uint16v8_t = type { [8 x i16] }
%struct.uint8v4_t = type { [4 x i8] }
%struct.int16v4_t = type { [4 x i16] }
%struct.int32v4_t = type { [4 x i32] }
%struct.uint64v2_t = type { [2 x i64] }
%struct.uint64v4_t = type { [4 x i64] }
%struct.uint128v2_t = type { [2 x i128] }
%struct.uint16v16_t = type { [16 x i16] }
%struct.float64v4_t = type { [4 x double] }
%"class.(anonymous namespace)::BitMatrix" = type { %"class.std::bitset", [16 x [16 x i8]] }
%"class.std::bitset" = type { %struct.uint64v4_t }
%struct.bcd80_t = type { [9 x %union.FPUAbridgedTagWord], %union.FPUAbridgedTagWord }
%struct.FpuFSAVE = type { %union.SegmentSelector, i16, %union.SegmentSelector, i16, %union.SegmentSelector, i16, i32, %union.SegmentSelector, i16, i32, %union.SegmentSelector, i16, [8 x %struct.FPUStackElem] }
%struct.anon.5 = type { i32, i32 }
@switch.table = private unnamed_addr constant [4 x i32] [i32 2048, i32 3072, i32 0, i32 1024]
@DR0 = external global i64, align 8
@DR1 = external global i64, align 8
@DR2 = external global i64, align 8
@DR3 = external global i64, align 8
@DR4 = external global i64, align 8
@DR5 = external global i64, align 8
@DR6 = external global i64, align 8
@DR7 = external global i64, align 8
@gCR0 = external global %union.anon, align 1
@gCR1 = external global %union.anon, align 1
@gCR2 = external global %union.anon, align 1
@gCR3 = external global %union.anon, align 1
@gCR4 = external global %union.anon, align 1
@gCR8 = external global %union.anon, align 1
@seg_400388__init = internal constant %seg_400388__init_type <{ [23 x i8] c"H\83\EC\08H\8B\05e\0C \00H\85\C0t\02\FF\D0H\83\C4\08\C3" }>
@seg_4003a0__text = internal constant %seg_4003a0__text_type <{ [354 x i8] c"1\EDI\89\D1^H\89\E2H\83\E4\F0PTI\C7\C0\00\05@\00H\C7\C1\90\04@\00H\C7\C7\88\04@\00\FF\15&\0C \00\F4\0F\1FD\00\00\F3\C3f.\0F\1F\84\00\00\00\00\00\0F\1F@\00U\B8(\10`\00H=(\10`\00H\89\E5t\17\B8\00\00\00\00H\85\C0t\0D]\BF(\10`\00\FF\E0\0F\1FD\00\00]\C3f\0F\1FD\00\00\BE(\10`\00UH\81\EE(\10`\00H\89\E5H\C1\FE\03H\89\F0H\C1\E8?H\01\C6H\D1\FEt\15\B8\00\00\00\00H\85\C0t\0B]\BF(\10`\00\FF\E0\0F\1F\00]\C3f\0F\1FD\00\00\80=\D1\0B \00\00u\17UH\89\E5\E8~\FF\FF\FF\C6\05\BF\0B \00\01]\C3\0F\1FD\00\00\F3\C3\0F\1F@\00f.\0F\1F\84\00\00\00\00\00UH\89\E5]\EB\89\90U\C3f\0F\1FD\00\00AWAVI\89\D7AUATL\8D%\9E\09 \00UH\8D-\9E\09 \00SA\89\FDI\89\F6L)\E5H\83\EC\08H\C1\FD\03\E8\C7\FE\FF\FFH\85\EDt 1\DB\0F\1F\84\00\00\00\00\00L\89\FAL\89\F6D\89\EFA\FF\14\DCH\83\C3\01H9\DDu\EAH\83\C4\08[]A\5CA]A^A_\C3\90f.\0F\1F\84\00\00\00\00\00\F3\C3" }>
@seg_400504__fini = internal constant %seg_400504__fini_type <{ [9 x i8] c"H\83\EC\08H\83\C4\08\C3" }>
@seg_400510__rodata = internal constant %seg_400510__rodata_type <{ [4 x i8] c"\01\00\02\00" }>
@seg_400514__eh_frame_hdr = internal constant %seg_400514__eh_frame_hdr_type <{ [52 x i8] c"\01\1B\03;0\00\00\00\05\00\00\00\8C\FE\FF\FFL\00\00\00\BC\FE\FF\FFx\00\00\00t\FF\FF\FF\8C\00\00\00|\FF\FF\FF\A4\00\00\00\EC\FF\FF\FF\EC\00\00\00" }>
@seg_400548__eh_frame = internal constant %seg_400548__eh_frame_type <{ [208 x i8] c"\14\00\00\00\00\00\00\00\01zR\00\01x\10\01\1B\0C\07\08\90\01\07\10\10\00\00\00\1C\00\00\008\FE\FF\FF+\00\00\00\00\00\00\00\14\00\00\00\00\00\00\00\01zR\00\01x\10\01\1B\0C\07\08\90\01\00\00\10\00\00\00\1C\00\00\00<\FE\FF\FF\02\00\00\00\00\00\00\00\14\00\00\000\00\00\00\E0\FE\FF\FF\02\00\00\00\00\00\00\00\00\00\00\00D\00\00\00H\00\00\00\D0\FE\FF\FFe\00\00\00\00B\0E\10\8F\02B\0E\18\8E\03E\0E \8D\04B\0E(\8C\05H\0E0\86\06H\0E8\83\07M\0E@r\0E8A\0E0A\0E(B\0E B\0E\18B\0E\10B\0E\08\00\10\00\00\00\90\00\00\00\F8\FE\FF\FF\02\00\00\00\00\00\00\00\00\00\00\00" }>
@seg_601018__data = internal global %seg_601018__data_type zeroinitializer
@__bss_start = global %__bss_start_type zeroinitializer
@0 = internal global i1 false
%seg_400514__fini_type = type <{ [9 x i8] }>
%seg_400520__rodata_type = type <{ [4 x i8] }>
%seg_400524__eh_frame_hdr_type = type <{ [52 x i8] }>
%seg_400558__eh_frame_type = type <{ [208 x i8] }>
@seg_400514__fini = internal constant %seg_400514__fini_type <{ [9 x i8] c"H\83\EC\08H\83\C4\08\C3" }>
@seg_400520__rodata = internal constant %seg_400520__rodata_type <{ [4 x i8] c"\01\00\02\00" }>
@seg_400524__eh_frame_hdr = internal constant %seg_400524__eh_frame_hdr_type <{ [52 x i8] c"\01\1B\03;0\00\00\00\05\00\00\00|\FE\FF\FFL\00\00\00\AC\FE\FF\FFx\00\00\00d\FF\FF\FF\8C\00\00\00|\FF\FF\FF\A4\00\00\00\EC\FF\FF\FF\EC\00\00\00" }>
@seg_400558__eh_frame = internal constant %seg_400558__eh_frame_type <{ [208 x i8] c"\14\00\00\00\00\00\00\00\01zR\00\01x\10\01\1B\0C\07\08\90\01\07\10\10\00\00\00\1C\00\00\00(\FE\FF\FF+\00\00\00\00\00\00\00\14\00\00\00\00\00\00\00\01zR\00\01x\10\01\1B\0C\07\08\90\01\00\00\10\00\00\00\1C\00\00\00,\FE\FF\FF\02\00\00\00\00\00\00\00\14\00\00\000\00\00\00\D0\FE\FF\FF\0C\00\00\00\00\00\00\00\00\00\00\00D\00\00\00H\00\00\00\D0\FE\FF\FFe\00\00\00\00B\0E\10\8F\02B\0E\18\8E\03E\0E \8D\04B\0E(\8C\05H\0E0\86\06H\0E8\83\07M\0E@r\0E8A\0E0A\0E(B\0E B\0E\18B\0E\10B\0E\08\00\10\00\00\00\90\00\00\00\F8\FE\FF\FF\02\00\00\00\00\00\00\00\00\00\00\00" }>

; Function Declaraions
declare i32 @llvm.ctpop.i32(i32) #2
declare %struct.Memory* @__remill_error(%struct.State* dereferenceable(3376), i64, %struct.Memory*)

declare %struct.Memory* @sub_400680.generate_gf(%struct.State* dereferenceable(3376), i64, %struct.Memory*)
declare %struct.Memory* @sub_4007d0.gen_poly(%struct.State* dereferenceable(3376), i64, %struct.Memory*)
declare %struct.Memory* @sub_4019a0.encode_rs(%struct.State* dereferenceable(3376), i64, %struct.Memory*)

; Data Access Globals


define %struct.Memory* @rsenc_204(%struct.State* noalias , i64, %struct.Memory* noalias) alwaysinline  {
entry:
  %3 = getelementptr inbounds %struct.State, %struct.State* %0, i64 0, i32 6, i32 33, i32 0, i32 0
  store i64 %1, i64* %3, align 8
  %BRANCH_TAKEN = alloca i8, align 1
  store i8 0, i8* %BRANCH_TAKEN, align 1
  %MEMORY = alloca %struct.Memory*, align 8
  store %struct.Memory* %2, %struct.Memory** %MEMORY, align 8

  ; Code: .rsenc_204:	 RIP: 401870	 Bytes: 0
  ; Code: pushq %rbp	 RIP: 401870	 Bytes: 1
  %loadMem_401870 = load %struct.Memory*, %struct.Memory** %MEMORY
  %call_401870 = call %struct.Memory* @routine_pushq__rbp(%struct.State* %0, i64  0, %struct.Memory* %loadMem_401870)
  store %struct.Memory* %call_401870, %struct.Memory** %MEMORY

  ; Code: movq %rsp, %rbp	 RIP: 401871	 Bytes: 3
  %loadMem_401871 = load %struct.Memory*, %struct.Memory** %MEMORY
  %call_401871 = call %struct.Memory* @routine_movq__rsp___rbp(%struct.State* %0, i64  0, %struct.Memory* %loadMem_401871)
  store %struct.Memory* %call_401871, %struct.Memory** %MEMORY

  ; Code: subq $0x20, %rsp	 RIP: 401874	 Bytes: 4
  %loadMem_401874 = load %struct.Memory*, %struct.Memory** %MEMORY
  %call_401874 = call %struct.Memory* @routine_subq__0x20___rsp(%struct.State* %0, i64  0, %struct.Memory* %loadMem_401874)
  store %struct.Memory* %call_401874, %struct.Memory** %MEMORY

  ; Code: movq %rdi, -0x8(%rbp)	 RIP: 401878	 Bytes: 4
  %loadMem_401878 = load %struct.Memory*, %struct.Memory** %MEMORY
  %call_401878 = call %struct.Memory* @routine_movq__rdi__MINUS0x8__rbp_(%struct.State* %0, i64  0, %struct.Memory* %loadMem_401878)
  store %struct.Memory* %call_401878, %struct.Memory** %MEMORY

  ; Code: movq %rsi, -0x10(%rbp)	 RIP: 40187c	 Bytes: 4
  %loadMem_40187c = load %struct.Memory*, %struct.Memory** %MEMORY
  %call_40187c = call %struct.Memory* @routine_movq__rsi__MINUS0x10__rbp_(%struct.State* %0, i64  0, %struct.Memory* %loadMem_40187c)
  store %struct.Memory* %call_40187c, %struct.Memory** %MEMORY

  ; Code: cmpl $0x0, 0x603070	 RIP: 401880	 Bytes: 8
  %loadMem_401880 = load %struct.Memory*, %struct.Memory** %MEMORY
  %call_401880 = call %struct.Memory* @routine_cmpl__0x0__0x603070(%struct.State* %0, i64  0, %struct.Memory* %loadMem_401880)
  store %struct.Memory* %call_401880, %struct.Memory** %MEMORY

  ; Code: jne .L_4018a3	 RIP: 401888	 Bytes: 6
  %loadMem_401888 = load %struct.Memory*, %struct.Memory** %MEMORY
  %call_401888 = call %struct.Memory* @routine_jne_.L_4018a3(%struct.State* %0, i64  0, %struct.Memory* %loadMem_401888, i8* %BRANCH_TAKEN, i64 27, i64 6, i64 6)
  store %struct.Memory* %call_401888, %struct.Memory** %MEMORY

  %loadBr_401888 = load i8, i8* %BRANCH_TAKEN
  %cmpBr_401888 = icmp eq i8 %loadBr_401888, 1
  br i1 %cmpBr_401888, label %block_.L_4018a3, label %block_40188e

block_40188e:
  ; Code: callq .generate_gf	 RIP: 40188e	 Bytes: 5
  %loadMem1_40188e = load %struct.Memory*, %struct.Memory** %MEMORY
  %call1_40188e = call %struct.Memory* @routine_callq_.generate_gf(%struct.State* %0, i64  0, %struct.Memory* %loadMem1_40188e, i64 -4622, i64 5, i64 5)
  store %struct.Memory* %call1_40188e, %struct.Memory** %MEMORY

  %loadMem2_40188e = load %struct.Memory*, %struct.Memory** %MEMORY
  %loadPC_40188e = load i64, i64* %3
  %call2_40188e = call %struct.Memory* @sub_400680.generate_gf(%struct.State* %0, i64  %loadPC_40188e, %struct.Memory* %loadMem2_40188e)
  store %struct.Memory* %call2_40188e, %struct.Memory** %MEMORY

  ; Code: callq .gen_poly	 RIP: 401893	 Bytes: 5
  %loadMem1_401893 = load %struct.Memory*, %struct.Memory** %MEMORY
  %call1_401893 = call %struct.Memory* @routine_callq_.gen_poly(%struct.State* %0, i64  0, %struct.Memory* %loadMem1_401893, i64 -4291, i64 5, i64 5)
  store %struct.Memory* %call1_401893, %struct.Memory** %MEMORY

  %loadMem2_401893 = load %struct.Memory*, %struct.Memory** %MEMORY
  %loadPC_401893 = load i64, i64* %3
  %call2_401893 = call %struct.Memory* @sub_4007d0.gen_poly(%struct.State* %0, i64  %loadPC_401893, %struct.Memory* %loadMem2_401893)
  store %struct.Memory* %call2_401893, %struct.Memory** %MEMORY

  ; Code: movl $0x1, 0x603070	 RIP: 401898	 Bytes: 11
  %loadMem_401898 = load %struct.Memory*, %struct.Memory** %MEMORY
  %call_401898 = call %struct.Memory* @routine_movl__0x1__0x603070(%struct.State* %0, i64  0, %struct.Memory* %loadMem_401898)
  store %struct.Memory* %call_401898, %struct.Memory** %MEMORY

  ; Code: .L_4018a3:	 RIP: 4018a3	 Bytes: 0
  br label %block_.L_4018a3
block_.L_4018a3:

  ; Code: movl $0x0, -0x14(%rbp)	 RIP: 4018a3	 Bytes: 7
  %loadMem_4018a3 = load %struct.Memory*, %struct.Memory** %MEMORY
  %call_4018a3 = call %struct.Memory* @routine_movl__0x0__MINUS0x14__rbp_(%struct.State* %0, i64  0, %struct.Memory* %loadMem_4018a3)
  store %struct.Memory* %call_4018a3, %struct.Memory** %MEMORY

  ; Code: .L_4018aa:	 RIP: 4018aa	 Bytes: 0
  br label %block_.L_4018aa
block_.L_4018aa:

  ; Code: cmpl $0x33, -0x14(%rbp)	 RIP: 4018aa	 Bytes: 4
  %loadMem_4018aa = load %struct.Memory*, %struct.Memory** %MEMORY
  %call_4018aa = call %struct.Memory* @routine_cmpl__0x33__MINUS0x14__rbp_(%struct.State* %0, i64  0, %struct.Memory* %loadMem_4018aa)
  store %struct.Memory* %call_4018aa, %struct.Memory** %MEMORY

  ; Code: jge .L_4018d1	 RIP: 4018ae	 Bytes: 6
  %loadMem_4018ae = load %struct.Memory*, %struct.Memory** %MEMORY
  %call_4018ae = call %struct.Memory* @routine_jge_.L_4018d1(%struct.State* %0, i64  0, %struct.Memory* %loadMem_4018ae, i8* %BRANCH_TAKEN, i64 35, i64 6, i64 6)
  store %struct.Memory* %call_4018ae, %struct.Memory** %MEMORY

  %loadBr_4018ae = load i8, i8* %BRANCH_TAKEN
  %cmpBr_4018ae = icmp eq i8 %loadBr_4018ae, 1
  br i1 %cmpBr_4018ae, label %block_.L_4018d1, label %block_4018b4

block_4018b4:
  ; Code: movslq -0x14(%rbp), %rax	 RIP: 4018b4	 Bytes: 4
  %loadMem_4018b4 = load %struct.Memory*, %struct.Memory** %MEMORY
  %call_4018b4 = call %struct.Memory* @routine_movslq_MINUS0x14__rbp____rax(%struct.State* %0, i64  0, %struct.Memory* %loadMem_4018b4)
  store %struct.Memory* %call_4018b4, %struct.Memory** %MEMORY

  ; Code: movl $0x0, 0x603cd0(,%rax,4)	 RIP: 4018b8	 Bytes: 11
  %loadMem_4018b8 = load %struct.Memory*, %struct.Memory** %MEMORY
  %call_4018b8 = call %struct.Memory* @routine_movl__0x0__0x603cd0___rax_4_(%struct.State* %0, i64  0, %struct.Memory* %loadMem_4018b8)
  store %struct.Memory* %call_4018b8, %struct.Memory** %MEMORY

  ; Code: movl -0x14(%rbp), %eax	 RIP: 4018c3	 Bytes: 3
  %loadMem_4018c3 = load %struct.Memory*, %struct.Memory** %MEMORY
  %call_4018c3 = call %struct.Memory* @routine_movl_MINUS0x14__rbp____eax(%struct.State* %0, i64  0, %struct.Memory* %loadMem_4018c3)
  store %struct.Memory* %call_4018c3, %struct.Memory** %MEMORY

  ; Code: addl $0x1, %eax	 RIP: 4018c6	 Bytes: 3
  %loadMem_4018c6 = load %struct.Memory*, %struct.Memory** %MEMORY
  %call_4018c6 = call %struct.Memory* @routine_addl__0x1___eax(%struct.State* %0, i64  0, %struct.Memory* %loadMem_4018c6)
  store %struct.Memory* %call_4018c6, %struct.Memory** %MEMORY

  ; Code: movl %eax, -0x14(%rbp)	 RIP: 4018c9	 Bytes: 3
  %loadMem_4018c9 = load %struct.Memory*, %struct.Memory** %MEMORY
  %call_4018c9 = call %struct.Memory* @routine_movl__eax__MINUS0x14__rbp_(%struct.State* %0, i64  0, %struct.Memory* %loadMem_4018c9)
  store %struct.Memory* %call_4018c9, %struct.Memory** %MEMORY

  ; Code: jmpq .L_4018aa	 RIP: 4018cc	 Bytes: 5
  %loadMem_4018cc = load %struct.Memory*, %struct.Memory** %MEMORY
  %call_4018cc = call %struct.Memory* @routine_jmpq_.L_4018aa(%struct.State* %0, i64  0, %struct.Memory* %loadMem_4018cc, i64 -34, i64 5)
  store %struct.Memory* %call_4018cc, %struct.Memory** %MEMORY

  br label %block_.L_4018aa

  ; Code: .L_4018d1:	 RIP: 4018d1	 Bytes: 0
block_.L_4018d1:

  ; Code: movl $0x0, -0x14(%rbp)	 RIP: 4018d1	 Bytes: 7
  %loadMem_4018d1 = load %struct.Memory*, %struct.Memory** %MEMORY
  %call_4018d1 = call %struct.Memory* @routine_movl__0x0__MINUS0x14__rbp_(%struct.State* %0, i64  0, %struct.Memory* %loadMem_4018d1)
  store %struct.Memory* %call_4018d1, %struct.Memory** %MEMORY

  ; Code: .L_4018d8:	 RIP: 4018d8	 Bytes: 0
  br label %block_.L_4018d8
block_.L_4018d8:

  ; Code: cmpl $0xbc, -0x14(%rbp)	 RIP: 4018d8	 Bytes: 7
  %loadMem_4018d8 = load %struct.Memory*, %struct.Memory** %MEMORY
  %call_4018d8 = call %struct.Memory* @routine_cmpl__0xbc__MINUS0x14__rbp_(%struct.State* %0, i64  0, %struct.Memory* %loadMem_4018d8)
  store %struct.Memory* %call_4018d8, %struct.Memory** %MEMORY

  ; Code: jge .L_40190f	 RIP: 4018df	 Bytes: 6
  %loadMem_4018df = load %struct.Memory*, %struct.Memory** %MEMORY
  %call_4018df = call %struct.Memory* @routine_jge_.L_40190f(%struct.State* %0, i64  0, %struct.Memory* %loadMem_4018df, i8* %BRANCH_TAKEN, i64 48, i64 6, i64 6)
  store %struct.Memory* %call_4018df, %struct.Memory** %MEMORY

  %loadBr_4018df = load i8, i8* %BRANCH_TAKEN
  %cmpBr_4018df = icmp eq i8 %loadBr_4018df, 1
  br i1 %cmpBr_4018df, label %block_.L_40190f, label %block_4018e5

block_4018e5:
  ; Code: movq -0x10(%rbp), %rax	 RIP: 4018e5	 Bytes: 4
  %loadMem_4018e5 = load %struct.Memory*, %struct.Memory** %MEMORY
  %call_4018e5 = call %struct.Memory* @routine_movq_MINUS0x10__rbp____rax(%struct.State* %0, i64  0, %struct.Memory* %loadMem_4018e5)
  store %struct.Memory* %call_4018e5, %struct.Memory** %MEMORY

  ; Code: movslq -0x14(%rbp), %rcx	 RIP: 4018e9	 Bytes: 4
  %loadMem_4018e9 = load %struct.Memory*, %struct.Memory** %MEMORY
  %call_4018e9 = call %struct.Memory* @routine_movslq_MINUS0x14__rbp____rcx(%struct.State* %0, i64  0, %struct.Memory* %loadMem_4018e9)
  store %struct.Memory* %call_4018e9, %struct.Memory** %MEMORY

  ; Code: movzbl (%rax,%rcx,1), %edx	 RIP: 4018ed	 Bytes: 4
  %loadMem_4018ed = load %struct.Memory*, %struct.Memory** %MEMORY
  %call_4018ed = call %struct.Memory* @routine_movzbl___rax__rcx_1____edx(%struct.State* %0, i64  0, %struct.Memory* %loadMem_4018ed)
  store %struct.Memory* %call_4018ed, %struct.Memory** %MEMORY

  ; Code: movl -0x14(%rbp), %esi	 RIP: 4018f1	 Bytes: 3
  %loadMem_4018f1 = load %struct.Memory*, %struct.Memory** %MEMORY
  %call_4018f1 = call %struct.Memory* @routine_movl_MINUS0x14__rbp____esi(%struct.State* %0, i64  0, %struct.Memory* %loadMem_4018f1)
  store %struct.Memory* %call_4018f1, %struct.Memory** %MEMORY

  ; Code: addl $0x33, %esi	 RIP: 4018f4	 Bytes: 3
  %loadMem_4018f4 = load %struct.Memory*, %struct.Memory** %MEMORY
  %call_4018f4 = call %struct.Memory* @routine_addl__0x33___esi(%struct.State* %0, i64  0, %struct.Memory* %loadMem_4018f4)
  store %struct.Memory* %call_4018f4, %struct.Memory** %MEMORY

  ; Code: movslq %esi, %rax	 RIP: 4018f7	 Bytes: 3
  %loadMem_4018f7 = load %struct.Memory*, %struct.Memory** %MEMORY
  %call_4018f7 = call %struct.Memory* @routine_movslq__esi___rax(%struct.State* %0, i64  0, %struct.Memory* %loadMem_4018f7)
  store %struct.Memory* %call_4018f7, %struct.Memory** %MEMORY

  ; Code: movl %edx, 0x603cd0(,%rax,4)	 RIP: 4018fa	 Bytes: 7
  %loadMem_4018fa = load %struct.Memory*, %struct.Memory** %MEMORY
  %call_4018fa = call %struct.Memory* @routine_movl__edx__0x603cd0___rax_4_(%struct.State* %0, i64  0, %struct.Memory* %loadMem_4018fa)
  store %struct.Memory* %call_4018fa, %struct.Memory** %MEMORY

  ; Code: movl -0x14(%rbp), %eax	 RIP: 401901	 Bytes: 3
  %loadMem_401901 = load %struct.Memory*, %struct.Memory** %MEMORY
  %call_401901 = call %struct.Memory* @routine_movl_MINUS0x14__rbp____eax(%struct.State* %0, i64  0, %struct.Memory* %loadMem_401901)
  store %struct.Memory* %call_401901, %struct.Memory** %MEMORY

  ; Code: addl $0x1, %eax	 RIP: 401904	 Bytes: 3
  %loadMem_401904 = load %struct.Memory*, %struct.Memory** %MEMORY
  %call_401904 = call %struct.Memory* @routine_addl__0x1___eax(%struct.State* %0, i64  0, %struct.Memory* %loadMem_401904)
  store %struct.Memory* %call_401904, %struct.Memory** %MEMORY

  ; Code: movl %eax, -0x14(%rbp)	 RIP: 401907	 Bytes: 3
  %loadMem_401907 = load %struct.Memory*, %struct.Memory** %MEMORY
  %call_401907 = call %struct.Memory* @routine_movl__eax__MINUS0x14__rbp_(%struct.State* %0, i64  0, %struct.Memory* %loadMem_401907)
  store %struct.Memory* %call_401907, %struct.Memory** %MEMORY

  ; Code: jmpq .L_4018d8	 RIP: 40190a	 Bytes: 5
  %loadMem_40190a = load %struct.Memory*, %struct.Memory** %MEMORY
  %call_40190a = call %struct.Memory* @routine_jmpq_.L_4018d8(%struct.State* %0, i64  0, %struct.Memory* %loadMem_40190a, i64 -50, i64 5)
  store %struct.Memory* %call_40190a, %struct.Memory** %MEMORY

  br label %block_.L_4018d8

  ; Code: .L_40190f:	 RIP: 40190f	 Bytes: 0
block_.L_40190f:

  ; Code: callq .encode_rs	 RIP: 40190f	 Bytes: 5
  %loadMem1_40190f = load %struct.Memory*, %struct.Memory** %MEMORY
  %call1_40190f = call %struct.Memory* @routine_callq_.encode_rs(%struct.State* %0, i64  0, %struct.Memory* %loadMem1_40190f, i64 145, i64 5, i64 5)
  store %struct.Memory* %call1_40190f, %struct.Memory** %MEMORY

  %loadMem2_40190f = load %struct.Memory*, %struct.Memory** %MEMORY
  %loadPC_40190f = load i64, i64* %3
  %call2_40190f = call %struct.Memory* @sub_4019a0.encode_rs(%struct.State* %0, i64  %loadPC_40190f, %struct.Memory* %loadMem2_40190f)
  store %struct.Memory* %call2_40190f, %struct.Memory** %MEMORY

  ; Code: movl $0x0, -0x14(%rbp)	 RIP: 401914	 Bytes: 7
  %loadMem_401914 = load %struct.Memory*, %struct.Memory** %MEMORY
  %call_401914 = call %struct.Memory* @routine_movl__0x0__MINUS0x14__rbp_(%struct.State* %0, i64  0, %struct.Memory* %loadMem_401914)
  store %struct.Memory* %call_401914, %struct.Memory** %MEMORY

  ; Code: .L_40191b:	 RIP: 40191b	 Bytes: 0
  br label %block_.L_40191b
block_.L_40191b:

  ; Code: cmpl $0xbc, -0x14(%rbp)	 RIP: 40191b	 Bytes: 7
  %loadMem_40191b = load %struct.Memory*, %struct.Memory** %MEMORY
  %call_40191b = call %struct.Memory* @routine_cmpl__0xbc__MINUS0x14__rbp_(%struct.State* %0, i64  0, %struct.Memory* %loadMem_40191b)
  store %struct.Memory* %call_40191b, %struct.Memory** %MEMORY

  ; Code: jge .L_40194c	 RIP: 401922	 Bytes: 6
  %loadMem_401922 = load %struct.Memory*, %struct.Memory** %MEMORY
  %call_401922 = call %struct.Memory* @routine_jge_.L_40194c(%struct.State* %0, i64  0, %struct.Memory* %loadMem_401922, i8* %BRANCH_TAKEN, i64 42, i64 6, i64 6)
  store %struct.Memory* %call_401922, %struct.Memory** %MEMORY

  %loadBr_401922 = load i8, i8* %BRANCH_TAKEN
  %cmpBr_401922 = icmp eq i8 %loadBr_401922, 1
  br i1 %cmpBr_401922, label %block_.L_40194c, label %block_401928

block_401928:
  ; Code: movq -0x10(%rbp), %rax	 RIP: 401928	 Bytes: 4
  %loadMem_401928 = load %struct.Memory*, %struct.Memory** %MEMORY
  %call_401928 = call %struct.Memory* @routine_movq_MINUS0x10__rbp____rax(%struct.State* %0, i64  0, %struct.Memory* %loadMem_401928)
  store %struct.Memory* %call_401928, %struct.Memory** %MEMORY

  ; Code: movslq -0x14(%rbp), %rcx	 RIP: 40192c	 Bytes: 4
  %loadMem_40192c = load %struct.Memory*, %struct.Memory** %MEMORY
  %call_40192c = call %struct.Memory* @routine_movslq_MINUS0x14__rbp____rcx(%struct.State* %0, i64  0, %struct.Memory* %loadMem_40192c)
  store %struct.Memory* %call_40192c, %struct.Memory** %MEMORY

  ; Code: movb (%rax,%rcx,1), %dl	 RIP: 401930	 Bytes: 3
  %loadMem_401930 = load %struct.Memory*, %struct.Memory** %MEMORY
  %call_401930 = call %struct.Memory* @routine_movb___rax__rcx_1____dl(%struct.State* %0, i64  0, %struct.Memory* %loadMem_401930)
  store %struct.Memory* %call_401930, %struct.Memory** %MEMORY

  ; Code: movq -0x8(%rbp), %rax	 RIP: 401933	 Bytes: 4
  %loadMem_401933 = load %struct.Memory*, %struct.Memory** %MEMORY
  %call_401933 = call %struct.Memory* @routine_movq_MINUS0x8__rbp____rax(%struct.State* %0, i64  0, %struct.Memory* %loadMem_401933)
  store %struct.Memory* %call_401933, %struct.Memory** %MEMORY

  ; Code: movslq -0x14(%rbp), %rcx	 RIP: 401937	 Bytes: 4
  %loadMem_401937 = load %struct.Memory*, %struct.Memory** %MEMORY
  %call_401937 = call %struct.Memory* @routine_movslq_MINUS0x14__rbp____rcx(%struct.State* %0, i64  0, %struct.Memory* %loadMem_401937)
  store %struct.Memory* %call_401937, %struct.Memory** %MEMORY

  ; Code: movb %dl, (%rax,%rcx,1)	 RIP: 40193b	 Bytes: 3
  %loadMem_40193b = load %struct.Memory*, %struct.Memory** %MEMORY
  %call_40193b = call %struct.Memory* @routine_movb__dl____rax__rcx_1_(%struct.State* %0, i64  0, %struct.Memory* %loadMem_40193b)
  store %struct.Memory* %call_40193b, %struct.Memory** %MEMORY

  ; Code: movl -0x14(%rbp), %eax	 RIP: 40193e	 Bytes: 3
  %loadMem_40193e = load %struct.Memory*, %struct.Memory** %MEMORY
  %call_40193e = call %struct.Memory* @routine_movl_MINUS0x14__rbp____eax(%struct.State* %0, i64  0, %struct.Memory* %loadMem_40193e)
  store %struct.Memory* %call_40193e, %struct.Memory** %MEMORY

  ; Code: addl $0x1, %eax	 RIP: 401941	 Bytes: 3
  %loadMem_401941 = load %struct.Memory*, %struct.Memory** %MEMORY
  %call_401941 = call %struct.Memory* @routine_addl__0x1___eax(%struct.State* %0, i64  0, %struct.Memory* %loadMem_401941)
  store %struct.Memory* %call_401941, %struct.Memory** %MEMORY

  ; Code: movl %eax, -0x14(%rbp)	 RIP: 401944	 Bytes: 3
  %loadMem_401944 = load %struct.Memory*, %struct.Memory** %MEMORY
  %call_401944 = call %struct.Memory* @routine_movl__eax__MINUS0x14__rbp_(%struct.State* %0, i64  0, %struct.Memory* %loadMem_401944)
  store %struct.Memory* %call_401944, %struct.Memory** %MEMORY

  ; Code: jmpq .L_40191b	 RIP: 401947	 Bytes: 5
  %loadMem_401947 = load %struct.Memory*, %struct.Memory** %MEMORY
  %call_401947 = call %struct.Memory* @routine_jmpq_.L_40191b(%struct.State* %0, i64  0, %struct.Memory* %loadMem_401947, i64 -44, i64 5)
  store %struct.Memory* %call_401947, %struct.Memory** %MEMORY

  br label %block_.L_40191b

  ; Code: .L_40194c:	 RIP: 40194c	 Bytes: 0
block_.L_40194c:

  ; Code: movl $0x0, -0x14(%rbp)	 RIP: 40194c	 Bytes: 7
  %loadMem_40194c = load %struct.Memory*, %struct.Memory** %MEMORY
  %call_40194c = call %struct.Memory* @routine_movl__0x0__MINUS0x14__rbp_(%struct.State* %0, i64  0, %struct.Memory* %loadMem_40194c)
  store %struct.Memory* %call_40194c, %struct.Memory** %MEMORY

  ; Code: .L_401953:	 RIP: 401953	 Bytes: 0
  br label %block_.L_401953
block_.L_401953:

  ; Code: cmpl $0x10, -0x14(%rbp)	 RIP: 401953	 Bytes: 4
  %loadMem_401953 = load %struct.Memory*, %struct.Memory** %MEMORY
  %call_401953 = call %struct.Memory* @routine_cmpl__0x10__MINUS0x14__rbp_(%struct.State* %0, i64  0, %struct.Memory* %loadMem_401953)
  store %struct.Memory* %call_401953, %struct.Memory** %MEMORY

  ; Code: jge .L_40198b	 RIP: 401957	 Bytes: 6
  %loadMem_401957 = load %struct.Memory*, %struct.Memory** %MEMORY
  %call_401957 = call %struct.Memory* @routine_jge_.L_40198b(%struct.State* %0, i64  0, %struct.Memory* %loadMem_401957, i8* %BRANCH_TAKEN, i64 52, i64 6, i64 6)
  store %struct.Memory* %call_401957, %struct.Memory** %MEMORY

  %loadBr_401957 = load i8, i8* %BRANCH_TAKEN
  %cmpBr_401957 = icmp eq i8 %loadBr_401957, 1
  br i1 %cmpBr_401957, label %block_.L_40198b, label %block_40195d

block_40195d:
  ; Code: movslq -0x14(%rbp), %rax	 RIP: 40195d	 Bytes: 4
  %loadMem_40195d = load %struct.Memory*, %struct.Memory** %MEMORY
  %call_40195d = call %struct.Memory* @routine_movslq_MINUS0x14__rbp____rax(%struct.State* %0, i64  0, %struct.Memory* %loadMem_40195d)
  store %struct.Memory* %call_40195d, %struct.Memory** %MEMORY

  ; Code: movl 0x604090(,%rax,4), %ecx	 RIP: 401961	 Bytes: 7
  %loadMem_401961 = load %struct.Memory*, %struct.Memory** %MEMORY
  %call_401961 = call %struct.Memory* @routine_movl_0x604090___rax_4____ecx(%struct.State* %0, i64  0, %struct.Memory* %loadMem_401961)
  store %struct.Memory* %call_401961, %struct.Memory** %MEMORY

  ; Code: movb %cl, %dl	 RIP: 401968	 Bytes: 2
  %loadMem_401968 = load %struct.Memory*, %struct.Memory** %MEMORY
  %call_401968 = call %struct.Memory* @routine_movb__cl___dl(%struct.State* %0, i64  0, %struct.Memory* %loadMem_401968)
  store %struct.Memory* %call_401968, %struct.Memory** %MEMORY

  ; Code: movq -0x8(%rbp), %rax	 RIP: 40196a	 Bytes: 4
  %loadMem_40196a = load %struct.Memory*, %struct.Memory** %MEMORY
  %call_40196a = call %struct.Memory* @routine_movq_MINUS0x8__rbp____rax(%struct.State* %0, i64  0, %struct.Memory* %loadMem_40196a)
  store %struct.Memory* %call_40196a, %struct.Memory** %MEMORY

  ; Code: movl -0x14(%rbp), %ecx	 RIP: 40196e	 Bytes: 3
  %loadMem_40196e = load %struct.Memory*, %struct.Memory** %MEMORY
  %call_40196e = call %struct.Memory* @routine_movl_MINUS0x14__rbp____ecx(%struct.State* %0, i64  0, %struct.Memory* %loadMem_40196e)
  store %struct.Memory* %call_40196e, %struct.Memory** %MEMORY

  ; Code: addl $0xbc, %ecx	 RIP: 401971	 Bytes: 6
  %loadMem_401971 = load %struct.Memory*, %struct.Memory** %MEMORY
  %call_401971 = call %struct.Memory* @routine_addl__0xbc___ecx(%struct.State* %0, i64  0, %struct.Memory* %loadMem_401971)
  store %struct.Memory* %call_401971, %struct.Memory** %MEMORY

  ; Code: movslq %ecx, %rsi	 RIP: 401977	 Bytes: 3
  %loadMem_401977 = load %struct.Memory*, %struct.Memory** %MEMORY
  %call_401977 = call %struct.Memory* @routine_movslq__ecx___rsi(%struct.State* %0, i64  0, %struct.Memory* %loadMem_401977)
  store %struct.Memory* %call_401977, %struct.Memory** %MEMORY

  ; Code: movb %dl, (%rax,%rsi,1)	 RIP: 40197a	 Bytes: 3
  %loadMem_40197a = load %struct.Memory*, %struct.Memory** %MEMORY
  %call_40197a = call %struct.Memory* @routine_movb__dl____rax__rsi_1_(%struct.State* %0, i64  0, %struct.Memory* %loadMem_40197a)
  store %struct.Memory* %call_40197a, %struct.Memory** %MEMORY

  ; Code: movl -0x14(%rbp), %eax	 RIP: 40197d	 Bytes: 3
  %loadMem_40197d = load %struct.Memory*, %struct.Memory** %MEMORY
  %call_40197d = call %struct.Memory* @routine_movl_MINUS0x14__rbp____eax(%struct.State* %0, i64  0, %struct.Memory* %loadMem_40197d)
  store %struct.Memory* %call_40197d, %struct.Memory** %MEMORY

  ; Code: addl $0x1, %eax	 RIP: 401980	 Bytes: 3
  %loadMem_401980 = load %struct.Memory*, %struct.Memory** %MEMORY
  %call_401980 = call %struct.Memory* @routine_addl__0x1___eax(%struct.State* %0, i64  0, %struct.Memory* %loadMem_401980)
  store %struct.Memory* %call_401980, %struct.Memory** %MEMORY

  ; Code: movl %eax, -0x14(%rbp)	 RIP: 401983	 Bytes: 3
  %loadMem_401983 = load %struct.Memory*, %struct.Memory** %MEMORY
  %call_401983 = call %struct.Memory* @routine_movl__eax__MINUS0x14__rbp_(%struct.State* %0, i64  0, %struct.Memory* %loadMem_401983)
  store %struct.Memory* %call_401983, %struct.Memory** %MEMORY

  ; Code: jmpq .L_401953	 RIP: 401986	 Bytes: 5
  %loadMem_401986 = load %struct.Memory*, %struct.Memory** %MEMORY
  %call_401986 = call %struct.Memory* @routine_jmpq_.L_401953(%struct.State* %0, i64  0, %struct.Memory* %loadMem_401986, i64 -51, i64 5)
  store %struct.Memory* %call_401986, %struct.Memory** %MEMORY

  br label %block_.L_401953

  ; Code: .L_40198b:	 RIP: 40198b	 Bytes: 0
block_.L_40198b:

  ; Code: addq $0x20, %rsp	 RIP: 40198b	 Bytes: 4
  %loadMem_40198b = load %struct.Memory*, %struct.Memory** %MEMORY
  %call_40198b = call %struct.Memory* @routine_addq__0x20___rsp(%struct.State* %0, i64  0, %struct.Memory* %loadMem_40198b)
  store %struct.Memory* %call_40198b, %struct.Memory** %MEMORY

  ; Code: popq %rbp	 RIP: 40198f	 Bytes: 1
  %loadMem_40198f = load %struct.Memory*, %struct.Memory** %MEMORY
  %call_40198f = call %struct.Memory* @routine_popq__rbp(%struct.State* %0, i64  0, %struct.Memory* %loadMem_40198f)
  store %struct.Memory* %call_40198f, %struct.Memory** %MEMORY

  ; Code: retq	 RIP: 401990	 Bytes: 1
  %loadMem_401990 = load %struct.Memory*, %struct.Memory** %MEMORY
  %call_401990 = call %struct.Memory* @routine_retq(%struct.State* %0, i64  0, %struct.Memory* %loadMem_401990)
  store %struct.Memory* %call_401990, %struct.Memory** %MEMORY

  ret %struct.Memory* %call_401990
}

define internal %struct.Memory* @_ZN12_GLOBAL__N_1L4PUSHI2InImEEEP6MemoryS4_R5StateT_(%struct.Memory*, %struct.State* nocapture dereferenceable(3376), i64) #0 {
  %4 = getelementptr inbounds %struct.State, %struct.State* %1, i64 0, i32 6, i32 13, i32 0, i32 0
  %5 = load i64, i64* %4, align 8
  %6 = add i64 %5, -8
  %7 = inttoptr i64 %6 to i64*
  store i64 %2, i64* %7
  store i64 %6, i64* %4, align 8
  ret %struct.Memory* %0
}

define %struct.Memory* @routine_pushq__rbp(%struct.State*  dereferenceable(3376), i64, %struct.Memory* ) #19 {
block_400488:
  %3 = getelementptr inbounds %struct.State, %struct.State* %0, i32 0, i32 6
  %4 = getelementptr inbounds %struct.GPR, %struct.GPR* %3, i32 0, i32 33
  %5 = getelementptr inbounds %struct.Reg, %struct.Reg* %4, i32 0, i32 0
  %PC = bitcast %union.anon* %5 to i64*
  %6 = getelementptr inbounds %struct.State, %struct.State* %0, i32 0, i32 6
  %7 = getelementptr inbounds %struct.GPR, %struct.GPR* %6, i32 0, i32 15
  %8 = getelementptr inbounds %struct.Reg, %struct.Reg* %7, i32 0, i32 0
  %RBP = bitcast %union.anon* %8 to i64*
  %9 = load i64, i64* %RBP
  %10 = load i64, i64* %PC
  %11 = add i64 %10, 1
  store i64 %11, i64* %PC
  %12 = call %struct.Memory* @_ZN12_GLOBAL__N_1L4PUSHI2InImEEEP6MemoryS4_R5StateT_(%struct.Memory* %2, %struct.State* %0, i64 %9)
  ret %struct.Memory* %12
}

define internal %struct.Memory* @_ZN12_GLOBAL__N_1L3MOVI3RnWImE2RnImEEEP6MemoryS6_R5StateT_T0_(%struct.Memory* readnone returned, %struct.State* nocapture readnone dereferenceable(3376), i64* nocapture, i64) #2 {
  store i64 %3, i64* %2, align 8
  ret %struct.Memory* %0
}

define %struct.Memory* @routine_movq__rsp___rbp(%struct.State*  dereferenceable(3376), i64, %struct.Memory* ) #19 {
block_400488:
  %3 = getelementptr inbounds %struct.State, %struct.State* %0, i32 0, i32 6
  %4 = getelementptr inbounds %struct.GPR, %struct.GPR* %3, i32 0, i32 33
  %5 = getelementptr inbounds %struct.Reg, %struct.Reg* %4, i32 0, i32 0
  %PC = bitcast %union.anon* %5 to i64*
  %6 = getelementptr inbounds %struct.State, %struct.State* %0, i32 0, i32 6
  %7 = getelementptr inbounds %struct.GPR, %struct.GPR* %6, i32 0, i32 13
  %8 = getelementptr inbounds %struct.Reg, %struct.Reg* %7, i32 0, i32 0
  %RSP = bitcast %union.anon* %8 to i64*
  %9 = getelementptr inbounds %struct.State, %struct.State* %0, i32 0, i32 6
  %10 = getelementptr inbounds %struct.GPR, %struct.GPR* %9, i32 0, i32 15
  %11 = getelementptr inbounds %struct.Reg, %struct.Reg* %10, i32 0, i32 0
  %RBP = bitcast %union.anon* %11 to i64*
  %12 = load i64, i64* %RSP
  %13 = load i64, i64* %PC
  %14 = add i64 %13, 3
  store i64 %14, i64* %PC
  %15 = call %struct.Memory* @_ZN12_GLOBAL__N_1L3MOVI3RnWImE2RnImEEEP6MemoryS6_R5StateT_T0_(%struct.Memory* %2, %struct.State* %0, i64* %RBP, i64 %12)
  ret %struct.Memory* %15
}

define internal %struct.Memory* @_ZN12_GLOBAL__N_1L3SUBI3RnWImE2RnImE2InImEEEP6MemoryS8_R5StateT_T0_T1_(%struct.Memory* readnone returned, %struct.State* nocapture dereferenceable(3376), i64* nocapture, i64, i64) #0 {
  %6 = sub i64 %3, %4
  store i64 %6, i64* %2, align 8
  %7 = icmp ult i64 %3, %4
  %8 = zext i1 %7 to i8
  %9 = getelementptr inbounds %struct.State, %struct.State* %1, i64 0, i32 2, i32 1
  store i8 %8, i8* %9, align 1
  %10 = trunc i64 %6 to i32
  %11 = and i32 %10, 255
  %12 = tail call i32 @llvm.ctpop.i32(i32 %11) #22
  %13 = trunc i32 %12 to i8
  %14 = and i8 %13, 1
  %15 = xor i8 %14, 1
  %16 = getelementptr inbounds %struct.State, %struct.State* %1, i64 0, i32 2, i32 3
  store i8 %15, i8* %16, align 1
  %17 = xor i64 %4, %3
  %18 = xor i64 %17, %6
  %19 = lshr i64 %18, 4
  %20 = trunc i64 %19 to i8
  %21 = and i8 %20, 1
  %22 = getelementptr inbounds %struct.State, %struct.State* %1, i64 0, i32 2, i32 5
  store i8 %21, i8* %22, align 1
  %23 = icmp eq i64 %6, 0
  %24 = zext i1 %23 to i8
  %25 = getelementptr inbounds %struct.State, %struct.State* %1, i64 0, i32 2, i32 7
  store i8 %24, i8* %25, align 1
  %26 = lshr i64 %6, 63
  %27 = trunc i64 %26 to i8
  %28 = getelementptr inbounds %struct.State, %struct.State* %1, i64 0, i32 2, i32 9
  store i8 %27, i8* %28, align 1
  %29 = lshr i64 %3, 63
  %30 = lshr i64 %4, 63
  %31 = xor i64 %30, %29
  %32 = xor i64 %26, %29
  %33 = add   i64 %32, %31
  %34 = icmp eq i64 %33, 2
  %35 = zext i1 %34 to i8
  %36 = getelementptr inbounds %struct.State, %struct.State* %1, i64 0, i32 2, i32 13
  store i8 %35, i8* %36, align 1
  ret %struct.Memory* %0
}

define %struct.Memory* @routine_subq__0x20___rsp(%struct.State*  dereferenceable(3376), i64, %struct.Memory* ) #19 {
block_400488:
  %3 = getelementptr inbounds %struct.State, %struct.State* %0, i32 0, i32 6
  %4 = getelementptr inbounds %struct.GPR, %struct.GPR* %3, i32 0, i32 33
  %5 = getelementptr inbounds %struct.Reg, %struct.Reg* %4, i32 0, i32 0
  %PC = bitcast %union.anon* %5 to i64*
  %6 = getelementptr inbounds %struct.State, %struct.State* %0, i32 0, i32 6
  %7 = getelementptr inbounds %struct.GPR, %struct.GPR* %6, i32 0, i32 13
  %8 = getelementptr inbounds %struct.Reg, %struct.Reg* %7, i32 0, i32 0
  %RSP = bitcast %union.anon* %8 to i64*
  %9 = load i64, i64* %RSP
  %10 = load i64, i64* %PC
  %11 = add i64 %10, 4
  store i64 %11, i64* %PC
  %12 = call %struct.Memory* @_ZN12_GLOBAL__N_1L3SUBI3RnWImE2RnImE2InImEEEP6MemoryS8_R5StateT_T0_T1_(%struct.Memory* %2, %struct.State* %0, i64* %RSP, i64 %9, i64 32)
  ret %struct.Memory* %12
}

define internal %struct.Memory* @_ZN12_GLOBAL__N_1L3MOVI3MnWImE2RnImEEEP6MemoryS6_R5StateT_T0_(%struct.Memory* readnone, %struct.State* nocapture readnone dereferenceable(3376), i64, i64) #8 {
  %5 = inttoptr i64 %2 to i64*
  store i64 %3, i64* %5
  ret %struct.Memory* %0
}

define %struct.Memory* @routine_movq__rdi__MINUS0x8__rbp_(%struct.State*  dereferenceable(3376), i64, %struct.Memory* ) #19 {
block_400488:
  %3 = getelementptr inbounds %struct.State, %struct.State* %0, i32 0, i32 6
  %4 = getelementptr inbounds %struct.GPR, %struct.GPR* %3, i32 0, i32 33
  %5 = getelementptr inbounds %struct.Reg, %struct.Reg* %4, i32 0, i32 0
  %PC = bitcast %union.anon* %5 to i64*
  %6 = getelementptr inbounds %struct.State, %struct.State* %0, i32 0, i32 6
  %7 = getelementptr inbounds %struct.GPR, %struct.GPR* %6, i32 0, i32 11
  %8 = getelementptr inbounds %struct.Reg, %struct.Reg* %7, i32 0, i32 0
  %RDI = bitcast %union.anon* %8 to i64*
  %9 = getelementptr inbounds %struct.State, %struct.State* %0, i32 0, i32 6
  %10 = getelementptr inbounds %struct.GPR, %struct.GPR* %9, i32 0, i32 15
  %11 = getelementptr inbounds %struct.Reg, %struct.Reg* %10, i32 0, i32 0
  %RBP = bitcast %union.anon* %11 to i64*
  %12 = load i64, i64* %RBP
  %13 = sub i64 %12, 8
  %14 = load i64, i64* %RDI
  %15 = load i64, i64* %PC
  %16 = add i64 %15, 4
  store i64 %16, i64* %PC
  %17 = call %struct.Memory* @_ZN12_GLOBAL__N_1L3MOVI3MnWImE2RnImEEEP6MemoryS6_R5StateT_T0_(%struct.Memory* %2, %struct.State* %0, i64 %13, i64 %14)
  ret %struct.Memory* %17
}


define %struct.Memory* @routine_movq__rsi__MINUS0x10__rbp_(%struct.State*  dereferenceable(3376), i64, %struct.Memory* ) #19 {
block_400488:
  %3 = getelementptr inbounds %struct.State, %struct.State* %0, i32 0, i32 6
  %4 = getelementptr inbounds %struct.GPR, %struct.GPR* %3, i32 0, i32 33
  %5 = getelementptr inbounds %struct.Reg, %struct.Reg* %4, i32 0, i32 0
  %PC = bitcast %union.anon* %5 to i64*
  %6 = getelementptr inbounds %struct.State, %struct.State* %0, i32 0, i32 6
  %7 = getelementptr inbounds %struct.GPR, %struct.GPR* %6, i32 0, i32 9
  %8 = getelementptr inbounds %struct.Reg, %struct.Reg* %7, i32 0, i32 0
  %RSI = bitcast %union.anon* %8 to i64*
  %9 = getelementptr inbounds %struct.State, %struct.State* %0, i32 0, i32 6
  %10 = getelementptr inbounds %struct.GPR, %struct.GPR* %9, i32 0, i32 15
  %11 = getelementptr inbounds %struct.Reg, %struct.Reg* %10, i32 0, i32 0
  %RBP = bitcast %union.anon* %11 to i64*
  %12 = load i64, i64* %RBP
  %13 = sub i64 %12, 16
  %14 = load i64, i64* %RSI
  %15 = load i64, i64* %PC
  %16 = add i64 %15, 4
  store i64 %16, i64* %PC
  %17 = call %struct.Memory* @_ZN12_GLOBAL__N_1L3MOVI3MnWImE2RnImEEEP6MemoryS6_R5StateT_T0_(%struct.Memory* %2, %struct.State* %0, i64 %13, i64 %14)
  ret %struct.Memory* %17
}

define internal %struct.Memory* @_ZN12_GLOBAL__N_1L3JNZEP6MemoryR5State3RnWIhE2InImES7_(%struct.Memory* readnone returned, %struct.State* nocapture dereferenceable(3376), i8* nocapture, i64, i64) #2 {
  %6 = getelementptr inbounds %struct.State, %struct.State* %1, i64 0, i32 2, i32 7
  %7 = load i8, i8* %6, align 1
  %8 = icmp eq i8 %7, 0
  %9 = zext i1 %8 to i8
  store i8 %9, i8* %2, align 1
  %10 = getelementptr inbounds %struct.State, %struct.State* %1, i64 0, i32 6, i32 33, i32 0, i32 0
  %11 = select i1 %8, i64 %3, i64 %4
  store i64 %11, i64* %10, align 8
  ret %struct.Memory* %0
}

define %struct.Memory* @routine_jne_.L_4018a3(%struct.State*  dereferenceable(3376), i64, %struct.Memory*, i8* %BRANCH_TAKEN, i64 %rel_off1, i64 %rel_off2, i64 %rel_off3) {
block_400488:
  %3 = getelementptr inbounds %struct.State, %struct.State* %0, i32 0, i32 6
  %4 = getelementptr inbounds %struct.GPR, %struct.GPR* %3, i32 0, i32 33
  %5 = getelementptr inbounds %struct.Reg, %struct.Reg* %4, i32 0, i32 0
  %PC = bitcast %union.anon* %5 to i64*
  %6 = load i64, i64* %PC
  %7 = add i64 %6, %rel_off1
  %8 = load i64, i64* %PC
  %9 = add i64 %8, %rel_off2
  %10 = load i64, i64* %PC
  %11 = add i64 %10, %rel_off3
  store i64 %11, i64* %PC
  %12 = call %struct.Memory* @_ZN12_GLOBAL__N_1L3JNZEP6MemoryR5State3RnWIhE2InImES7_(%struct.Memory* %2, %struct.State* %0, i8* %BRANCH_TAKEN, i64 %7, i64 %9)
  ret %struct.Memory* %12
}

define internal %struct.Memory* @_ZN12_GLOBAL__N_1L4CALLI2InImEEEP6MemoryS4_R5StateT_S2_(%struct.Memory* readnone, %struct.State* nocapture dereferenceable(3376), i64, i64) #0 {
  %5 = getelementptr inbounds %struct.State, %struct.State* %1, i64 0, i32 6, i32 13, i32 0, i32 0
  %6 = load i64, i64* %5, align 8
  %7 = add i64 %6, -8
  %8 = inttoptr i64 %7 to i64*
  store i64 %3, i64* %8
  store i64 %7, i64* %5, align 8
  %9 = getelementptr inbounds %struct.State, %struct.State* %1, i64 0, i32 6, i32 33, i32 0, i32 0
  store i64 %2, i64* %9, align 8
  ret %struct.Memory* %0
}

define %struct.Memory* @routine_callq_.gen_poly(%struct.State*  dereferenceable(3376), i64, %struct.Memory*, i64 %rel_off1, i64 %rel_off2, i64 %rel_off3) {
block_400488:
  %3 = getelementptr inbounds %struct.State, %struct.State* %0, i32 0, i32 6
  %4 = getelementptr inbounds %struct.GPR, %struct.GPR* %3, i32 0, i32 33
  %5 = getelementptr inbounds %struct.Reg, %struct.Reg* %4, i32 0, i32 0
  %PC = bitcast %union.anon* %5 to i64*
  %6 = load i64, i64* %PC
  %7 = add i64 %6, %rel_off1
  %8 = load i64, i64* %PC
  %9 = add i64 %8, %rel_off2
  %10 = load i64, i64* %PC
  %11 = add i64 %10, %rel_off3
  store i64 %11, i64* %PC
  %12 = call %struct.Memory* @_ZN12_GLOBAL__N_1L4CALLI2InImEEEP6MemoryS4_R5StateT_S2_(%struct.Memory* %2, %struct.State* %0, i64 %7, i64 %9)
  ret %struct.Memory* %12
}

define internal %struct.Memory* @_ZN12_GLOBAL__N_1L3MOVI3MnWIjE2InIjEEEP6MemoryS6_R5StateT_T0_(%struct.Memory* readnone, %struct.State* nocapture readnone dereferenceable(3376), i64, i64) #8 {
  %5 = trunc i64 %3 to i32
  %6 = inttoptr i64 %2 to i32*
  store i32 %5, i32* %6
  ret %struct.Memory* %0
}

define %struct.Memory* @routine_movl__0x1__0x603070(%struct.State*  dereferenceable(3376), i64, %struct.Memory* ) #19 {
block_400488:
  %3 = getelementptr inbounds %struct.State, %struct.State* %0, i32 0, i32 6
  %4 = getelementptr inbounds %struct.GPR, %struct.GPR* %3, i32 0, i32 33
  %5 = getelementptr inbounds %struct.Reg, %struct.Reg* %4, i32 0, i32 0
  %PC = bitcast %union.anon* %5 to i64*
  %6 = load i64, i64* %PC
  %7 = add i64 %6, 11
  store i64 %7, i64* %PC
  %8 = call %struct.Memory* @_ZN12_GLOBAL__N_1L3MOVI3MnWIjE2InIjEEEP6MemoryS6_R5StateT_T0_(%struct.Memory* %2, %struct.State* %0, i64 6303856, i64 1)
  ret %struct.Memory* %8
}


define %struct.Memory* @routine_movl__0x0__MINUS0x14__rbp_(%struct.State*  dereferenceable(3376), i64, %struct.Memory* ) #19 {
block_400488:
  %3 = getelementptr inbounds %struct.State, %struct.State* %0, i32 0, i32 6
  %4 = getelementptr inbounds %struct.GPR, %struct.GPR* %3, i32 0, i32 33
  %5 = getelementptr inbounds %struct.Reg, %struct.Reg* %4, i32 0, i32 0
  %PC = bitcast %union.anon* %5 to i64*
  %6 = getelementptr inbounds %struct.State, %struct.State* %0, i32 0, i32 6
  %7 = getelementptr inbounds %struct.GPR, %struct.GPR* %6, i32 0, i32 15
  %8 = getelementptr inbounds %struct.Reg, %struct.Reg* %7, i32 0, i32 0
  %RBP = bitcast %union.anon* %8 to i64*
  %9 = load i64, i64* %RBP
  %10 = sub i64 %9, 20
  %11 = load i64, i64* %PC
  %12 = add i64 %11, 7
  store i64 %12, i64* %PC
  %13 = call %struct.Memory* @_ZN12_GLOBAL__N_1L3MOVI3MnWIjE2InIjEEEP6MemoryS6_R5StateT_T0_(%struct.Memory* %2, %struct.State* %0, i64 %10, i64 0)
  ret %struct.Memory* %13
}

define internal %struct.Memory* @_ZN12_GLOBAL__N_1L3CMPI2MnIjE2InIjEEEP6MemoryS6_R5StateT_T0_(%struct.Memory*, %struct.State* nocapture dereferenceable(3376), i64, i64) #0 {
  %5 = inttoptr i64 %2 to i32*
  %6 = load i32, i32* %5
  %7 = trunc i64 %3 to i32
  %8 = sub i32 %6, %7
  %9 = icmp ult i32 %6, %7
  %10 = zext i1 %9 to i8
  %11 = getelementptr inbounds %struct.State, %struct.State* %1, i64 0, i32 2, i32 1
  store i8 %10, i8* %11, align 1
  %12 = and i32 %8, 255
  %13 = tail call i32 @llvm.ctpop.i32(i32 %12) #22
  %14 = trunc i32 %13 to i8
  %15 = and i8 %14, 1
  %16 = xor i8 %15, 1
  %17 = getelementptr inbounds %struct.State, %struct.State* %1, i64 0, i32 2, i32 3
  store i8 %16, i8* %17, align 1
  %18 = xor i32 %6, %7
  %19 = xor i32 %18, %8
  %20 = lshr i32 %19, 4
  %21 = trunc i32 %20 to i8
  %22 = and i8 %21, 1
  %23 = getelementptr inbounds %struct.State, %struct.State* %1, i64 0, i32 2, i32 5
  store i8 %22, i8* %23, align 1
  %24 = icmp eq i32 %8, 0
  %25 = zext i1 %24 to i8
  %26 = getelementptr inbounds %struct.State, %struct.State* %1, i64 0, i32 2, i32 7
  store i8 %25, i8* %26, align 1
  %27 = lshr i32 %8, 31
  %28 = trunc i32 %27 to i8
  %29 = getelementptr inbounds %struct.State, %struct.State* %1, i64 0, i32 2, i32 9
  store i8 %28, i8* %29, align 1
  %30 = lshr i32 %6, 31
  %31 = lshr i32 %7, 31
  %32 = xor i32 %30, %31
  %33 = xor i32 %27, %30
  %34 = add   i32 %33, %32
  %35 = icmp eq i32 %34, 2
  %36 = zext i1 %35 to i8
  %37 = getelementptr inbounds %struct.State, %struct.State* %1, i64 0, i32 2, i32 13
  store i8 %36, i8* %37, align 1
  ret %struct.Memory* %0
}

define %struct.Memory* @routine_cmpl__0x33__MINUS0x14__rbp_(%struct.State*  dereferenceable(3376), i64, %struct.Memory* ) #19 {
block_400488:
  %3 = getelementptr inbounds %struct.State, %struct.State* %0, i32 0, i32 6
  %4 = getelementptr inbounds %struct.GPR, %struct.GPR* %3, i32 0, i32 33
  %5 = getelementptr inbounds %struct.Reg, %struct.Reg* %4, i32 0, i32 0
  %PC = bitcast %union.anon* %5 to i64*
  %6 = getelementptr inbounds %struct.State, %struct.State* %0, i32 0, i32 6
  %7 = getelementptr inbounds %struct.GPR, %struct.GPR* %6, i32 0, i32 15
  %8 = getelementptr inbounds %struct.Reg, %struct.Reg* %7, i32 0, i32 0
  %RBP = bitcast %union.anon* %8 to i64*
  %9 = load i64, i64* %RBP
  %10 = sub i64 %9, 20
  %11 = load i64, i64* %PC
  %12 = add i64 %11, 4
  store i64 %12, i64* %PC
  %13 = call %struct.Memory* @_ZN12_GLOBAL__N_1L3CMPI2MnIjE2InIjEEEP6MemoryS6_R5StateT_T0_(%struct.Memory* %2, %struct.State* %0, i64 %10, i64 51)
  ret %struct.Memory* %13
}

define internal %struct.Memory* @_ZN12_GLOBAL__N_1L3JNLEP6MemoryR5State3RnWIhE2InImES7_(%struct.Memory* readnone returned, %struct.State* nocapture dereferenceable(3376), i8* nocapture, i64, i64) #2 {
  %6 = getelementptr inbounds %struct.State, %struct.State* %1, i64 0, i32 2, i32 9
  %7 = load i8, i8* %6, align 1
  %8 = icmp ne i8 %7, 0
  %9 = getelementptr inbounds %struct.State, %struct.State* %1, i64 0, i32 2, i32 13
  %10 = load i8, i8* %9, align 1
  %11 = icmp ne i8 %10, 0
  %12 = xor i1 %8, %11
  %13 = xor i1 %12, true
  %14 = zext i1 %13 to i8
  store i8 %14, i8* %2, align 1
  %15 = getelementptr inbounds %struct.State, %struct.State* %1, i64 0, i32 6, i32 33, i32 0, i32 0
  %16 = select i1 %12, i64 %4, i64 %3
  store i64 %16, i64* %15, align 8
  ret %struct.Memory* %0
}

define %struct.Memory* @routine_jge_.L_4018d1(%struct.State*  dereferenceable(3376), i64, %struct.Memory*, i8* %BRANCH_TAKEN, i64 %rel_off1, i64 %rel_off2, i64 %rel_off3) {
block_400488:
  %3 = getelementptr inbounds %struct.State, %struct.State* %0, i32 0, i32 6
  %4 = getelementptr inbounds %struct.GPR, %struct.GPR* %3, i32 0, i32 33
  %5 = getelementptr inbounds %struct.Reg, %struct.Reg* %4, i32 0, i32 0
  %PC = bitcast %union.anon* %5 to i64*
  %6 = load i64, i64* %PC
  %7 = add i64 %6, %rel_off1
  %8 = load i64, i64* %PC
  %9 = add i64 %8, %rel_off2
  %10 = load i64, i64* %PC
  %11 = add i64 %10, %rel_off3
  store i64 %11, i64* %PC
  %12 = call %struct.Memory* @_ZN12_GLOBAL__N_1L3JNLEP6MemoryR5State3RnWIhE2InImES7_(%struct.Memory* %2, %struct.State* %0, i8* %BRANCH_TAKEN, i64 %7, i64 %9)
  ret %struct.Memory* %12
}

define internal %struct.Memory* @_ZN12_GLOBAL__N_1L5MOVSXI3RnWImE2MnIjElEEP6MemoryS6_R5StateT_T0_(%struct.Memory* returned, %struct.State* nocapture readnone dereferenceable(3376), i64* nocapture, i64) #0 {
  %5 = inttoptr i64 %3 to i32*
  %6 = load i32, i32* %5
  %7 = sext i32 %6 to i64
  store i64 %7, i64* %2, align 8
  ret %struct.Memory* %0
}

define %struct.Memory* @routine_movslq_MINUS0x14__rbp____rax(%struct.State*  dereferenceable(3376), i64, %struct.Memory* ) #19 {
block_400488:
  %3 = getelementptr inbounds %struct.State, %struct.State* %0, i32 0, i32 6
  %4 = getelementptr inbounds %struct.GPR, %struct.GPR* %3, i32 0, i32 33
  %5 = getelementptr inbounds %struct.Reg, %struct.Reg* %4, i32 0, i32 0
  %PC = bitcast %union.anon* %5 to i64*
  %6 = getelementptr inbounds %struct.State, %struct.State* %0, i32 0, i32 6
  %7 = getelementptr inbounds %struct.GPR, %struct.GPR* %6, i32 0, i32 1
  %8 = getelementptr inbounds %struct.Reg, %struct.Reg* %7, i32 0, i32 0
  %RAX = bitcast %union.anon* %8 to i64*
  %9 = getelementptr inbounds %struct.State, %struct.State* %0, i32 0, i32 6
  %10 = getelementptr inbounds %struct.GPR, %struct.GPR* %9, i32 0, i32 15
  %11 = getelementptr inbounds %struct.Reg, %struct.Reg* %10, i32 0, i32 0
  %RBP = bitcast %union.anon* %11 to i64*
  %12 = load i64, i64* %RBP
  %13 = sub i64 %12, 20
  %14 = load i64, i64* %PC
  %15 = add i64 %14, 4
  store i64 %15, i64* %PC
  %16 = call %struct.Memory* @_ZN12_GLOBAL__N_1L5MOVSXI3RnWImE2MnIjElEEP6MemoryS6_R5StateT_T0_(%struct.Memory* %2, %struct.State* %0, i64* %RAX, i64 %13)
  ret %struct.Memory* %16
}


define %struct.Memory* @routine_movl__0x0__0x603cd0___rax_4_(%struct.State*  dereferenceable(3376), i64, %struct.Memory* ) #19 {
block_400488:
  %3 = getelementptr inbounds %struct.State, %struct.State* %0, i32 0, i32 6
  %4 = getelementptr inbounds %struct.GPR, %struct.GPR* %3, i32 0, i32 33
  %5 = getelementptr inbounds %struct.Reg, %struct.Reg* %4, i32 0, i32 0
  %PC = bitcast %union.anon* %5 to i64*
  %6 = getelementptr inbounds %struct.State, %struct.State* %0, i32 0, i32 6
  %7 = getelementptr inbounds %struct.GPR, %struct.GPR* %6, i32 0, i32 1
  %8 = getelementptr inbounds %struct.Reg, %struct.Reg* %7, i32 0, i32 0
  %RAX = bitcast %union.anon* %8 to i64*
  %9 = load i64, i64* %RAX
  %10 = mul i64 %9, 4
  %11 = add i64 %10, 6307024
  %12 = load i64, i64* %PC
  %13 = add i64 %12, 11
  store i64 %13, i64* %PC
  %14 = call %struct.Memory* @_ZN12_GLOBAL__N_1L3MOVI3MnWIjE2InIjEEEP6MemoryS6_R5StateT_T0_(%struct.Memory* %2, %struct.State* %0, i64 %11, i64 0)
  ret %struct.Memory* %14
}

define internal %struct.Memory* @_ZN12_GLOBAL__N_1L3MOVI3RnWImE2MnIjEEEP6MemoryS6_R5StateT_T0_(%struct.Memory* returned, %struct.State* nocapture readnone dereferenceable(3376), i64* nocapture, i64) #0 {
  %5 = inttoptr i64 %3 to i32*
  %6 = load i32, i32* %5
  %7 = zext i32 %6 to i64
  store i64 %7, i64* %2, align 8
  ret %struct.Memory* %0
}

define %struct.Memory* @routine_movl_MINUS0x14__rbp____eax(%struct.State*  dereferenceable(3376), i64, %struct.Memory* ) #19 {
block_400488:
  %3 = getelementptr inbounds %struct.State, %struct.State* %0, i32 0, i32 6
  %4 = getelementptr inbounds %struct.GPR, %struct.GPR* %3, i32 0, i32 33
  %5 = getelementptr inbounds %struct.Reg, %struct.Reg* %4, i32 0, i32 0
  %PC = bitcast %union.anon* %5 to i64*
  %6 = getelementptr inbounds %struct.State, %struct.State* %0, i32 0, i32 6
  %7 = getelementptr inbounds %struct.GPR, %struct.GPR* %6, i32 0, i32 1
  %8 = getelementptr inbounds %struct.Reg, %struct.Reg* %7, i32 0, i32 0
  %RAX = bitcast %union.anon* %8 to i64*
  %9 = getelementptr inbounds %struct.State, %struct.State* %0, i32 0, i32 6
  %10 = getelementptr inbounds %struct.GPR, %struct.GPR* %9, i32 0, i32 15
  %11 = getelementptr inbounds %struct.Reg, %struct.Reg* %10, i32 0, i32 0
  %RBP = bitcast %union.anon* %11 to i64*
  %12 = load i64, i64* %RBP
  %13 = sub i64 %12, 20
  %14 = load i64, i64* %PC
  %15 = add i64 %14, 3
  store i64 %15, i64* %PC
  %16 = call %struct.Memory* @_ZN12_GLOBAL__N_1L3MOVI3RnWImE2MnIjEEEP6MemoryS6_R5StateT_T0_(%struct.Memory* %2, %struct.State* %0, i64* %RAX, i64 %13)
  ret %struct.Memory* %16
}

define internal %struct.Memory* @_ZN12_GLOBAL__N_1L3ADDI3RnWImE2RnIjE2InIjEEEP6MemoryS8_R5StateT_T0_T1_(%struct.Memory* readnone returned, %struct.State* nocapture dereferenceable(3376), i64* nocapture, i64, i64) #0 {
  %6 = trunc i64 %3 to i32
  %7 = trunc i64 %4 to i32
  %8 = add i32 %7, %6
  %9 = zext i32 %8 to i64
  store i64 %9, i64* %2, align 8
  %10 = icmp ult i32 %8, %6
  %11 = icmp ult i32 %8, %7
  %12 = or i1 %10, %11
  %13 = zext i1 %12 to i8
  %14 = getelementptr inbounds %struct.State, %struct.State* %1, i64 0, i32 2, i32 1
  store i8 %13, i8* %14, align 1
  %15 = and i32 %8, 255
  %16 = tail call i32 @llvm.ctpop.i32(i32 %15) #22
  %17 = trunc i32 %16 to i8
  %18 = and i8 %17, 1
  %19 = xor i8 %18, 1
  %20 = getelementptr inbounds %struct.State, %struct.State* %1, i64 0, i32 2, i32 3
  store i8 %19, i8* %20, align 1
  %21 = xor i64 %4, %3
  %22 = trunc i64 %21 to i32
  %23 = xor i32 %22, %8
  %24 = lshr i32 %23, 4
  %25 = trunc i32 %24 to i8
  %26 = and i8 %25, 1
  %27 = getelementptr inbounds %struct.State, %struct.State* %1, i64 0, i32 2, i32 5
  store i8 %26, i8* %27, align 1
  %28 = icmp eq i32 %8, 0
  %29 = zext i1 %28 to i8
  %30 = getelementptr inbounds %struct.State, %struct.State* %1, i64 0, i32 2, i32 7
  store i8 %29, i8* %30, align 1
  %31 = lshr i32 %8, 31
  %32 = trunc i32 %31 to i8
  %33 = getelementptr inbounds %struct.State, %struct.State* %1, i64 0, i32 2, i32 9
  store i8 %32, i8* %33, align 1
  %34 = lshr i32 %6, 31
  %35 = lshr i32 %7, 31
  %36 = xor i32 %31, %34
  %37 = xor i32 %31, %35
  %38 = add   i32 %36, %37
  %39 = icmp eq i32 %38, 2
  %40 = zext i1 %39 to i8
  %41 = getelementptr inbounds %struct.State, %struct.State* %1, i64 0, i32 2, i32 13
  store i8 %40, i8* %41, align 1
  ret %struct.Memory* %0
}

define %struct.Memory* @routine_addl__0x1___eax(%struct.State*  dereferenceable(3376), i64, %struct.Memory* ) #19 {
block_400488:
  %3 = getelementptr inbounds %struct.State, %struct.State* %0, i32 0, i32 6
  %4 = getelementptr inbounds %struct.GPR, %struct.GPR* %3, i32 0, i32 33
  %5 = getelementptr inbounds %struct.Reg, %struct.Reg* %4, i32 0, i32 0
  %PC = bitcast %union.anon* %5 to i64*
  %6 = getelementptr inbounds %struct.State, %struct.State* %0, i32 0, i32 6
  %7 = getelementptr inbounds %struct.GPR, %struct.GPR* %6, i32 0, i32 1
  %8 = getelementptr inbounds %struct.Reg, %struct.Reg* %7, i32 0, i32 0
  %RAX = bitcast %union.anon* %8 to i64*
  %9 = load i64, i64* %RAX
  %10 = load i64, i64* %PC
  %11 = add i64 %10, 3
  store i64 %11, i64* %PC
  %12 = call %struct.Memory* @_ZN12_GLOBAL__N_1L3ADDI3RnWImE2RnIjE2InIjEEEP6MemoryS8_R5StateT_T0_T1_(%struct.Memory* %2, %struct.State* %0, i64* %RAX, i64 %9, i64 1)
  ret %struct.Memory* %12
}

define internal %struct.Memory* @_ZN12_GLOBAL__N_1L3MOVI3MnWIjE2RnIjEEEP6MemoryS6_R5StateT_T0_(%struct.Memory* readnone, %struct.State* nocapture readnone dereferenceable(3376), i64, i64) #8 {
  %5 = trunc i64 %3 to i32
  %6 = inttoptr i64 %2 to i32*
  store i32 %5, i32* %6
  ret %struct.Memory* %0
}

define %struct.Memory* @routine_movl__eax__MINUS0x14__rbp_(%struct.State*  dereferenceable(3376), i64, %struct.Memory* ) #19 {
block_400488:
  %3 = getelementptr inbounds %struct.State, %struct.State* %0, i32 0, i32 6
  %4 = getelementptr inbounds %struct.GPR, %struct.GPR* %3, i32 0, i32 33
  %5 = getelementptr inbounds %struct.Reg, %struct.Reg* %4, i32 0, i32 0
  %PC = bitcast %union.anon* %5 to i64*
  %6 = getelementptr inbounds %struct.State, %struct.State* %0, i32 0, i32 6
  %7 = getelementptr inbounds %struct.GPR, %struct.GPR* %6, i32 0, i32 1
  %8 = getelementptr inbounds %struct.Reg, %struct.Reg* %7, i32 0, i32 0
  %EAX = bitcast %union.anon* %8 to i32*
  %9 = getelementptr inbounds %struct.State, %struct.State* %0, i32 0, i32 6
  %10 = getelementptr inbounds %struct.GPR, %struct.GPR* %9, i32 0, i32 15
  %11 = getelementptr inbounds %struct.Reg, %struct.Reg* %10, i32 0, i32 0
  %RBP = bitcast %union.anon* %11 to i64*
  %12 = load i64, i64* %RBP
  %13 = sub i64 %12, 20
  %14 = load i32, i32* %EAX
  %15 = zext i32 %14 to i64
  %16 = load i64, i64* %PC
  %17 = add i64 %16, 3
  store i64 %17, i64* %PC
  %18 = call %struct.Memory* @_ZN12_GLOBAL__N_1L3MOVI3MnWIjE2RnIjEEEP6MemoryS6_R5StateT_T0_(%struct.Memory* %2, %struct.State* %0, i64 %13, i64 %15)
  ret %struct.Memory* %18
}

define internal %struct.Memory* @_ZN12_GLOBAL__N_1L3JMPI2InImEEEP6MemoryS4_R5StateT_(%struct.Memory* readnone returned, %struct.State* nocapture dereferenceable(3376), i64) #2 {
  %4 = getelementptr inbounds %struct.State, %struct.State* %1, i64 0, i32 6, i32 33, i32 0, i32 0
  store i64 %2, i64* %4, align 8
  ret %struct.Memory* %0
}

define %struct.Memory* @routine_jmpq_.L_4018aa(%struct.State*  dereferenceable(3376), i64, %struct.Memory*, i64 %rel_off1, i64 %rel_off2) {
block_400488:
  %3 = getelementptr inbounds %struct.State, %struct.State* %0, i32 0, i32 6
  %4 = getelementptr inbounds %struct.GPR, %struct.GPR* %3, i32 0, i32 33
  %5 = getelementptr inbounds %struct.Reg, %struct.Reg* %4, i32 0, i32 0
  %PC = bitcast %union.anon* %5 to i64*
  %6 = load i64, i64* %PC
  %7 = add i64 %6, %rel_off1
  %8 = load i64, i64* %PC
  %9 = add i64 %8, %rel_off2
  store i64 %9, i64* %PC
  %10 = call %struct.Memory* @_ZN12_GLOBAL__N_1L3JMPI2InImEEEP6MemoryS4_R5StateT_(%struct.Memory* %2, %struct.State* %0, i64 %7)
  ret %struct.Memory* %10
}




define %struct.Memory* @routine_cmpl__0xbc__MINUS0x14__rbp_(%struct.State*  dereferenceable(3376), i64, %struct.Memory* ) #19 {
block_400488:
  %3 = getelementptr inbounds %struct.State, %struct.State* %0, i32 0, i32 6
  %4 = getelementptr inbounds %struct.GPR, %struct.GPR* %3, i32 0, i32 33
  %5 = getelementptr inbounds %struct.Reg, %struct.Reg* %4, i32 0, i32 0
  %PC = bitcast %union.anon* %5 to i64*
  %6 = getelementptr inbounds %struct.State, %struct.State* %0, i32 0, i32 6
  %7 = getelementptr inbounds %struct.GPR, %struct.GPR* %6, i32 0, i32 15
  %8 = getelementptr inbounds %struct.Reg, %struct.Reg* %7, i32 0, i32 0
  %RBP = bitcast %union.anon* %8 to i64*
  %9 = load i64, i64* %RBP
  %10 = sub i64 %9, 20
  %11 = load i64, i64* %PC
  %12 = add i64 %11, 7
  store i64 %12, i64* %PC
  %13 = call %struct.Memory* @_ZN12_GLOBAL__N_1L3CMPI2MnIjE2InIjEEEP6MemoryS6_R5StateT_T0_(%struct.Memory* %2, %struct.State* %0, i64 %10, i64 188)
  ret %struct.Memory* %13
}


define %struct.Memory* @routine_jge_.L_40190f(%struct.State*  dereferenceable(3376), i64, %struct.Memory*, i8* %BRANCH_TAKEN, i64 %rel_off1, i64 %rel_off2, i64 %rel_off3) {
block_400488:
  %3 = getelementptr inbounds %struct.State, %struct.State* %0, i32 0, i32 6
  %4 = getelementptr inbounds %struct.GPR, %struct.GPR* %3, i32 0, i32 33
  %5 = getelementptr inbounds %struct.Reg, %struct.Reg* %4, i32 0, i32 0
  %PC = bitcast %union.anon* %5 to i64*
  %6 = load i64, i64* %PC
  %7 = add i64 %6, %rel_off1
  %8 = load i64, i64* %PC
  %9 = add i64 %8, %rel_off2
  %10 = load i64, i64* %PC
  %11 = add i64 %10, %rel_off3
  store i64 %11, i64* %PC
  %12 = call %struct.Memory* @_ZN12_GLOBAL__N_1L3JNLEP6MemoryR5State3RnWIhE2InImES7_(%struct.Memory* %2, %struct.State* %0, i8* %BRANCH_TAKEN, i64 %7, i64 %9)
  ret %struct.Memory* %12
}

define internal %struct.Memory* @_ZN12_GLOBAL__N_1L3MOVI3RnWImE2MnImEEEP6MemoryS6_R5StateT_T0_(%struct.Memory* returned, %struct.State* nocapture readnone dereferenceable(3376), i64* nocapture, i64) #0 {
  %5 = inttoptr i64 %3 to i64*
  %6 = load i64, i64* %5
  store i64 %6, i64* %2, align 8
  ret %struct.Memory* %0
}

define %struct.Memory* @routine_movq_MINUS0x10__rbp____rax(%struct.State*  dereferenceable(3376), i64, %struct.Memory* ) #19 {
block_400488:
  %3 = getelementptr inbounds %struct.State, %struct.State* %0, i32 0, i32 6
  %4 = getelementptr inbounds %struct.GPR, %struct.GPR* %3, i32 0, i32 33
  %5 = getelementptr inbounds %struct.Reg, %struct.Reg* %4, i32 0, i32 0
  %PC = bitcast %union.anon* %5 to i64*
  %6 = getelementptr inbounds %struct.State, %struct.State* %0, i32 0, i32 6
  %7 = getelementptr inbounds %struct.GPR, %struct.GPR* %6, i32 0, i32 1
  %8 = getelementptr inbounds %struct.Reg, %struct.Reg* %7, i32 0, i32 0
  %RAX = bitcast %union.anon* %8 to i64*
  %9 = getelementptr inbounds %struct.State, %struct.State* %0, i32 0, i32 6
  %10 = getelementptr inbounds %struct.GPR, %struct.GPR* %9, i32 0, i32 15
  %11 = getelementptr inbounds %struct.Reg, %struct.Reg* %10, i32 0, i32 0
  %RBP = bitcast %union.anon* %11 to i64*
  %12 = load i64, i64* %RBP
  %13 = sub i64 %12, 16
  %14 = load i64, i64* %PC
  %15 = add i64 %14, 4
  store i64 %15, i64* %PC
  %16 = call %struct.Memory* @_ZN12_GLOBAL__N_1L3MOVI3RnWImE2MnImEEEP6MemoryS6_R5StateT_T0_(%struct.Memory* %2, %struct.State* %0, i64* %RAX, i64 %13)
  ret %struct.Memory* %16
}


define %struct.Memory* @routine_movslq_MINUS0x14__rbp____rcx(%struct.State*  dereferenceable(3376), i64, %struct.Memory* ) #19 {
block_400488:
  %3 = getelementptr inbounds %struct.State, %struct.State* %0, i32 0, i32 6
  %4 = getelementptr inbounds %struct.GPR, %struct.GPR* %3, i32 0, i32 33
  %5 = getelementptr inbounds %struct.Reg, %struct.Reg* %4, i32 0, i32 0
  %PC = bitcast %union.anon* %5 to i64*
  %6 = getelementptr inbounds %struct.State, %struct.State* %0, i32 0, i32 6
  %7 = getelementptr inbounds %struct.GPR, %struct.GPR* %6, i32 0, i32 5
  %8 = getelementptr inbounds %struct.Reg, %struct.Reg* %7, i32 0, i32 0
  %RCX = bitcast %union.anon* %8 to i64*
  %9 = getelementptr inbounds %struct.State, %struct.State* %0, i32 0, i32 6
  %10 = getelementptr inbounds %struct.GPR, %struct.GPR* %9, i32 0, i32 15
  %11 = getelementptr inbounds %struct.Reg, %struct.Reg* %10, i32 0, i32 0
  %RBP = bitcast %union.anon* %11 to i64*
  %12 = load i64, i64* %RBP
  %13 = sub i64 %12, 20
  %14 = load i64, i64* %PC
  %15 = add i64 %14, 4
  store i64 %15, i64* %PC
  %16 = call %struct.Memory* @_ZN12_GLOBAL__N_1L5MOVSXI3RnWImE2MnIjElEEP6MemoryS6_R5StateT_T0_(%struct.Memory* %2, %struct.State* %0, i64* %RCX, i64 %13)
  ret %struct.Memory* %16
}

define internal %struct.Memory* @_ZN12_GLOBAL__N_1L5MOVZXI3RnWImE2MnIhEEEP6MemoryS6_R5StateT_T0_(%struct.Memory* returned, %struct.State* nocapture readnone dereferenceable(3376), i64* nocapture, i64) #0 {
  %5 = inttoptr i64 %3 to i8*
  %6 = load i8, i8* %5
  %7 = zext i8 %6 to i64
  store i64 %7, i64* %2, align 8
  ret %struct.Memory* %0
}

define %struct.Memory* @routine_movzbl___rax__rcx_1____edx(%struct.State*  dereferenceable(3376), i64, %struct.Memory* ) #19 {
block_400488:
  %3 = getelementptr inbounds %struct.State, %struct.State* %0, i32 0, i32 6
  %4 = getelementptr inbounds %struct.GPR, %struct.GPR* %3, i32 0, i32 33
  %5 = getelementptr inbounds %struct.Reg, %struct.Reg* %4, i32 0, i32 0
  %PC = bitcast %union.anon* %5 to i64*
  %6 = getelementptr inbounds %struct.State, %struct.State* %0, i32 0, i32 6
  %7 = getelementptr inbounds %struct.GPR, %struct.GPR* %6, i32 0, i32 1
  %8 = getelementptr inbounds %struct.Reg, %struct.Reg* %7, i32 0, i32 0
  %RAX = bitcast %union.anon* %8 to i64*
  %9 = getelementptr inbounds %struct.State, %struct.State* %0, i32 0, i32 6
  %10 = getelementptr inbounds %struct.GPR, %struct.GPR* %9, i32 0, i32 5
  %11 = getelementptr inbounds %struct.Reg, %struct.Reg* %10, i32 0, i32 0
  %RCX = bitcast %union.anon* %11 to i64*
  %12 = getelementptr inbounds %struct.State, %struct.State* %0, i32 0, i32 6
  %13 = getelementptr inbounds %struct.GPR, %struct.GPR* %12, i32 0, i32 7
  %14 = getelementptr inbounds %struct.Reg, %struct.Reg* %13, i32 0, i32 0
  %RDX = bitcast %union.anon* %14 to i64*
  %15 = load i64, i64* %RAX
  %16 = load i64, i64* %RCX
  %17 = add i64 %16, %15
  %18 = load i64, i64* %PC
  %19 = add i64 %18, 4
  store i64 %19, i64* %PC
  %20 = call %struct.Memory* @_ZN12_GLOBAL__N_1L5MOVZXI3RnWImE2MnIhEEEP6MemoryS6_R5StateT_T0_(%struct.Memory* %2, %struct.State* %0, i64* %RDX, i64 %17)
  ret %struct.Memory* %20
}


define %struct.Memory* @routine_movl_MINUS0x14__rbp____esi(%struct.State*  dereferenceable(3376), i64, %struct.Memory* ) #19 {
block_400488:
  %3 = getelementptr inbounds %struct.State, %struct.State* %0, i32 0, i32 6
  %4 = getelementptr inbounds %struct.GPR, %struct.GPR* %3, i32 0, i32 33
  %5 = getelementptr inbounds %struct.Reg, %struct.Reg* %4, i32 0, i32 0
  %PC = bitcast %union.anon* %5 to i64*
  %6 = getelementptr inbounds %struct.State, %struct.State* %0, i32 0, i32 6
  %7 = getelementptr inbounds %struct.GPR, %struct.GPR* %6, i32 0, i32 9
  %8 = getelementptr inbounds %struct.Reg, %struct.Reg* %7, i32 0, i32 0
  %RSI = bitcast %union.anon* %8 to i64*
  %9 = getelementptr inbounds %struct.State, %struct.State* %0, i32 0, i32 6
  %10 = getelementptr inbounds %struct.GPR, %struct.GPR* %9, i32 0, i32 15
  %11 = getelementptr inbounds %struct.Reg, %struct.Reg* %10, i32 0, i32 0
  %RBP = bitcast %union.anon* %11 to i64*
  %12 = load i64, i64* %RBP
  %13 = sub i64 %12, 20
  %14 = load i64, i64* %PC
  %15 = add i64 %14, 3
  store i64 %15, i64* %PC
  %16 = call %struct.Memory* @_ZN12_GLOBAL__N_1L3MOVI3RnWImE2MnIjEEEP6MemoryS6_R5StateT_T0_(%struct.Memory* %2, %struct.State* %0, i64* %RSI, i64 %13)
  ret %struct.Memory* %16
}


define %struct.Memory* @routine_addl__0x33___esi(%struct.State*  dereferenceable(3376), i64, %struct.Memory* ) #19 {
block_400488:
  %3 = getelementptr inbounds %struct.State, %struct.State* %0, i32 0, i32 6
  %4 = getelementptr inbounds %struct.GPR, %struct.GPR* %3, i32 0, i32 33
  %5 = getelementptr inbounds %struct.Reg, %struct.Reg* %4, i32 0, i32 0
  %PC = bitcast %union.anon* %5 to i64*
  %6 = getelementptr inbounds %struct.State, %struct.State* %0, i32 0, i32 6
  %7 = getelementptr inbounds %struct.GPR, %struct.GPR* %6, i32 0, i32 9
  %8 = getelementptr inbounds %struct.Reg, %struct.Reg* %7, i32 0, i32 0
  %RSI = bitcast %union.anon* %8 to i64*
  %9 = load i64, i64* %RSI
  %10 = load i64, i64* %PC
  %11 = add i64 %10, 3
  store i64 %11, i64* %PC
  %12 = call %struct.Memory* @_ZN12_GLOBAL__N_1L3ADDI3RnWImE2RnIjE2InIjEEEP6MemoryS8_R5StateT_T0_T1_(%struct.Memory* %2, %struct.State* %0, i64* %RSI, i64 %9, i64 51)
  ret %struct.Memory* %12
}

define internal %struct.Memory* @_ZN12_GLOBAL__N_1L5MOVSXI3RnWImE2RnIjElEEP6MemoryS6_R5StateT_T0_(%struct.Memory* readnone returned, %struct.State* nocapture readnone dereferenceable(3376), i64* nocapture, i64) #2 {
  %5 = shl i64 %3, 32
  %6 = ashr exact i64 %5, 32
  store i64 %6, i64* %2, align 8
  ret %struct.Memory* %0
}

define %struct.Memory* @routine_movslq__esi___rax(%struct.State*  dereferenceable(3376), i64, %struct.Memory* ) #19 {
block_400488:
  %3 = getelementptr inbounds %struct.State, %struct.State* %0, i32 0, i32 6
  %4 = getelementptr inbounds %struct.GPR, %struct.GPR* %3, i32 0, i32 33
  %5 = getelementptr inbounds %struct.Reg, %struct.Reg* %4, i32 0, i32 0
  %PC = bitcast %union.anon* %5 to i64*
  %6 = getelementptr inbounds %struct.State, %struct.State* %0, i32 0, i32 6
  %7 = getelementptr inbounds %struct.GPR, %struct.GPR* %6, i32 0, i32 9
  %8 = getelementptr inbounds %struct.Reg, %struct.Reg* %7, i32 0, i32 0
  %ESI = bitcast %union.anon* %8 to i32*
  %9 = getelementptr inbounds %struct.State, %struct.State* %0, i32 0, i32 6
  %10 = getelementptr inbounds %struct.GPR, %struct.GPR* %9, i32 0, i32 1
  %11 = getelementptr inbounds %struct.Reg, %struct.Reg* %10, i32 0, i32 0
  %RAX = bitcast %union.anon* %11 to i64*
  %12 = load i32, i32* %ESI
  %13 = zext i32 %12 to i64
  %14 = load i64, i64* %PC
  %15 = add i64 %14, 3
  store i64 %15, i64* %PC
  %16 = call %struct.Memory* @_ZN12_GLOBAL__N_1L5MOVSXI3RnWImE2RnIjElEEP6MemoryS6_R5StateT_T0_(%struct.Memory* %2, %struct.State* %0, i64* %RAX, i64 %13)
  ret %struct.Memory* %16
}


define %struct.Memory* @routine_movl__edx__0x603cd0___rax_4_(%struct.State*  dereferenceable(3376), i64, %struct.Memory* ) #19 {
block_400488:
  %3 = getelementptr inbounds %struct.State, %struct.State* %0, i32 0, i32 6
  %4 = getelementptr inbounds %struct.GPR, %struct.GPR* %3, i32 0, i32 33
  %5 = getelementptr inbounds %struct.Reg, %struct.Reg* %4, i32 0, i32 0
  %PC = bitcast %union.anon* %5 to i64*
  %6 = getelementptr inbounds %struct.State, %struct.State* %0, i32 0, i32 6
  %7 = getelementptr inbounds %struct.GPR, %struct.GPR* %6, i32 0, i32 7
  %8 = getelementptr inbounds %struct.Reg, %struct.Reg* %7, i32 0, i32 0
  %EDX = bitcast %union.anon* %8 to i32*
  %9 = getelementptr inbounds %struct.State, %struct.State* %0, i32 0, i32 6
  %10 = getelementptr inbounds %struct.GPR, %struct.GPR* %9, i32 0, i32 1
  %11 = getelementptr inbounds %struct.Reg, %struct.Reg* %10, i32 0, i32 0
  %RAX = bitcast %union.anon* %11 to i64*
  %12 = load i64, i64* %RAX
  %13 = mul i64 %12, 4
  %14 = add i64 %13, 6307024
  %15 = load i32, i32* %EDX
  %16 = zext i32 %15 to i64
  %17 = load i64, i64* %PC
  %18 = add i64 %17, 7
  store i64 %18, i64* %PC
  %19 = call %struct.Memory* @_ZN12_GLOBAL__N_1L3MOVI3MnWIjE2RnIjEEEP6MemoryS6_R5StateT_T0_(%struct.Memory* %2, %struct.State* %0, i64 %14, i64 %16)
  ret %struct.Memory* %19
}








define %struct.Memory* @routine_jmpq_.L_4018d8(%struct.State*  dereferenceable(3376), i64, %struct.Memory*, i64 %rel_off1, i64 %rel_off2) {
block_400488:
  %3 = getelementptr inbounds %struct.State, %struct.State* %0, i32 0, i32 6
  %4 = getelementptr inbounds %struct.GPR, %struct.GPR* %3, i32 0, i32 33
  %5 = getelementptr inbounds %struct.Reg, %struct.Reg* %4, i32 0, i32 0
  %PC = bitcast %union.anon* %5 to i64*
  %6 = load i64, i64* %PC
  %7 = add i64 %6, %rel_off1
  %8 = load i64, i64* %PC
  %9 = add i64 %8, %rel_off2
  store i64 %9, i64* %PC
  %10 = call %struct.Memory* @_ZN12_GLOBAL__N_1L3JMPI2InImEEEP6MemoryS4_R5StateT_(%struct.Memory* %2, %struct.State* %0, i64 %7)
  ret %struct.Memory* %10
}


define %struct.Memory* @routine_callq_.encode_rs(%struct.State*  dereferenceable(3376), i64, %struct.Memory*, i64 %rel_off1, i64 %rel_off2, i64 %rel_off3) {
block_400488:
  %3 = getelementptr inbounds %struct.State, %struct.State* %0, i32 0, i32 6
  %4 = getelementptr inbounds %struct.GPR, %struct.GPR* %3, i32 0, i32 33
  %5 = getelementptr inbounds %struct.Reg, %struct.Reg* %4, i32 0, i32 0
  %PC = bitcast %union.anon* %5 to i64*
  %6 = load i64, i64* %PC
  %7 = add i64 %6, %rel_off1
  %8 = load i64, i64* %PC
  %9 = add i64 %8, %rel_off2
  %10 = load i64, i64* %PC
  %11 = add i64 %10, %rel_off3
  store i64 %11, i64* %PC
  %12 = call %struct.Memory* @_ZN12_GLOBAL__N_1L4CALLI2InImEEEP6MemoryS4_R5StateT_S2_(%struct.Memory* %2, %struct.State* %0, i64 %7, i64 %9)
  ret %struct.Memory* %12
}






define %struct.Memory* @routine_jge_.L_40194c(%struct.State*  dereferenceable(3376), i64, %struct.Memory*, i8* %BRANCH_TAKEN, i64 %rel_off1, i64 %rel_off2, i64 %rel_off3) {
block_400488:
  %3 = getelementptr inbounds %struct.State, %struct.State* %0, i32 0, i32 6
  %4 = getelementptr inbounds %struct.GPR, %struct.GPR* %3, i32 0, i32 33
  %5 = getelementptr inbounds %struct.Reg, %struct.Reg* %4, i32 0, i32 0
  %PC = bitcast %union.anon* %5 to i64*
  %6 = load i64, i64* %PC
  %7 = add i64 %6, %rel_off1
  %8 = load i64, i64* %PC
  %9 = add i64 %8, %rel_off2
  %10 = load i64, i64* %PC
  %11 = add i64 %10, %rel_off3
  store i64 %11, i64* %PC
  %12 = call %struct.Memory* @_ZN12_GLOBAL__N_1L3JNLEP6MemoryR5State3RnWIhE2InImES7_(%struct.Memory* %2, %struct.State* %0, i8* %BRANCH_TAKEN, i64 %7, i64 %9)
  ret %struct.Memory* %12
}





define internal %struct.Memory* @_ZN12_GLOBAL__N_1L3MOVI3RnWIhE2MnIhEEEP6MemoryS6_R5StateT_T0_(%struct.Memory* returned, %struct.State* nocapture readnone dereferenceable(3376), i8* nocapture, i64) #0 {
  %5 = inttoptr i64 %3 to i8*
  %6 = load i8, i8* %5
  store i8 %6, i8* %2, align 1
  ret %struct.Memory* %0
}

define %struct.Memory* @routine_movb___rax__rcx_1____dl(%struct.State*  dereferenceable(3376), i64, %struct.Memory* ) #19 {
block_400488:
  %3 = getelementptr inbounds %struct.State, %struct.State* %0, i32 0, i32 6
  %4 = getelementptr inbounds %struct.GPR, %struct.GPR* %3, i32 0, i32 33
  %5 = getelementptr inbounds %struct.Reg, %struct.Reg* %4, i32 0, i32 0
  %PC = bitcast %union.anon* %5 to i64*
  %6 = getelementptr inbounds %struct.State, %struct.State* %0, i32 0, i32 6
  %7 = getelementptr inbounds %struct.GPR, %struct.GPR* %6, i32 0, i32 7
  %8 = getelementptr inbounds %struct.Reg, %struct.Reg* %7, i32 0, i32 0
  %9 = bitcast %union.anon* %8 to %struct.anon.2*
  %DL = getelementptr inbounds %struct.anon.2, %struct.anon.2* %9, i32 0, i32 0
  %10 = getelementptr inbounds %struct.State, %struct.State* %0, i32 0, i32 6
  %11 = getelementptr inbounds %struct.GPR, %struct.GPR* %10, i32 0, i32 1
  %12 = getelementptr inbounds %struct.Reg, %struct.Reg* %11, i32 0, i32 0
  %RAX = bitcast %union.anon* %12 to i64*
  %13 = getelementptr inbounds %struct.State, %struct.State* %0, i32 0, i32 6
  %14 = getelementptr inbounds %struct.GPR, %struct.GPR* %13, i32 0, i32 5
  %15 = getelementptr inbounds %struct.Reg, %struct.Reg* %14, i32 0, i32 0
  %RCX = bitcast %union.anon* %15 to i64*
  %16 = load i64, i64* %RAX
  %17 = load i64, i64* %RCX
  %18 = add i64 %17, %16
  %19 = load i64, i64* %PC
  %20 = add i64 %19, 3
  store i64 %20, i64* %PC
  %21 = call %struct.Memory* @_ZN12_GLOBAL__N_1L3MOVI3RnWIhE2MnIhEEEP6MemoryS6_R5StateT_T0_(%struct.Memory* %2, %struct.State* %0, i8* %DL, i64 %18)
  ret %struct.Memory* %21
}


define %struct.Memory* @routine_movq_MINUS0x8__rbp____rax(%struct.State*  dereferenceable(3376), i64, %struct.Memory* ) #19 {
block_400488:
  %3 = getelementptr inbounds %struct.State, %struct.State* %0, i32 0, i32 6
  %4 = getelementptr inbounds %struct.GPR, %struct.GPR* %3, i32 0, i32 33
  %5 = getelementptr inbounds %struct.Reg, %struct.Reg* %4, i32 0, i32 0
  %PC = bitcast %union.anon* %5 to i64*
  %6 = getelementptr inbounds %struct.State, %struct.State* %0, i32 0, i32 6
  %7 = getelementptr inbounds %struct.GPR, %struct.GPR* %6, i32 0, i32 1
  %8 = getelementptr inbounds %struct.Reg, %struct.Reg* %7, i32 0, i32 0
  %RAX = bitcast %union.anon* %8 to i64*
  %9 = getelementptr inbounds %struct.State, %struct.State* %0, i32 0, i32 6
  %10 = getelementptr inbounds %struct.GPR, %struct.GPR* %9, i32 0, i32 15
  %11 = getelementptr inbounds %struct.Reg, %struct.Reg* %10, i32 0, i32 0
  %RBP = bitcast %union.anon* %11 to i64*
  %12 = load i64, i64* %RBP
  %13 = sub i64 %12, 8
  %14 = load i64, i64* %PC
  %15 = add i64 %14, 4
  store i64 %15, i64* %PC
  %16 = call %struct.Memory* @_ZN12_GLOBAL__N_1L3MOVI3RnWImE2MnImEEEP6MemoryS6_R5StateT_T0_(%struct.Memory* %2, %struct.State* %0, i64* %RAX, i64 %13)
  ret %struct.Memory* %16
}



define internal %struct.Memory* @_ZN12_GLOBAL__N_1L3MOVI3MnWIhE2RnIhEEEP6MemoryS6_R5StateT_T0_(%struct.Memory* readnone, %struct.State* nocapture readnone dereferenceable(3376), i64, i64) #8 {
  %5 = trunc i64 %3 to i8
  %6 = inttoptr i64 %2 to i8*
  store i8 %5, i8* %6
  ret %struct.Memory* %0
}

define %struct.Memory* @routine_movb__dl____rax__rcx_1_(%struct.State*  dereferenceable(3376), i64, %struct.Memory* ) #19 {
block_400488:
  %3 = getelementptr inbounds %struct.State, %struct.State* %0, i32 0, i32 6
  %4 = getelementptr inbounds %struct.GPR, %struct.GPR* %3, i32 0, i32 33
  %5 = getelementptr inbounds %struct.Reg, %struct.Reg* %4, i32 0, i32 0
  %PC = bitcast %union.anon* %5 to i64*
  %6 = getelementptr inbounds %struct.State, %struct.State* %0, i32 0, i32 6
  %7 = getelementptr inbounds %struct.GPR, %struct.GPR* %6, i32 0, i32 7
  %8 = getelementptr inbounds %struct.Reg, %struct.Reg* %7, i32 0, i32 0
  %9 = bitcast %union.anon* %8 to %struct.anon.2*
  %DL = getelementptr inbounds %struct.anon.2, %struct.anon.2* %9, i32 0, i32 0
  %10 = getelementptr inbounds %struct.State, %struct.State* %0, i32 0, i32 6
  %11 = getelementptr inbounds %struct.GPR, %struct.GPR* %10, i32 0, i32 1
  %12 = getelementptr inbounds %struct.Reg, %struct.Reg* %11, i32 0, i32 0
  %RAX = bitcast %union.anon* %12 to i64*
  %13 = getelementptr inbounds %struct.State, %struct.State* %0, i32 0, i32 6
  %14 = getelementptr inbounds %struct.GPR, %struct.GPR* %13, i32 0, i32 5
  %15 = getelementptr inbounds %struct.Reg, %struct.Reg* %14, i32 0, i32 0
  %RCX = bitcast %union.anon* %15 to i64*
  %16 = load i64, i64* %RAX
  %17 = load i64, i64* %RCX
  %18 = add i64 %17, %16
  %19 = load i8, i8* %DL
  %20 = zext i8 %19 to i64
  %21 = load i64, i64* %PC
  %22 = add i64 %21, 3
  store i64 %22, i64* %PC
  %23 = call %struct.Memory* @_ZN12_GLOBAL__N_1L3MOVI3MnWIhE2RnIhEEEP6MemoryS6_R5StateT_T0_(%struct.Memory* %2, %struct.State* %0, i64 %18, i64 %20)
  ret %struct.Memory* %23
}








define %struct.Memory* @routine_jmpq_.L_40191b(%struct.State*  dereferenceable(3376), i64, %struct.Memory*, i64 %rel_off1, i64 %rel_off2) {
block_400488:
  %3 = getelementptr inbounds %struct.State, %struct.State* %0, i32 0, i32 6
  %4 = getelementptr inbounds %struct.GPR, %struct.GPR* %3, i32 0, i32 33
  %5 = getelementptr inbounds %struct.Reg, %struct.Reg* %4, i32 0, i32 0
  %PC = bitcast %union.anon* %5 to i64*
  %6 = load i64, i64* %PC
  %7 = add i64 %6, %rel_off1
  %8 = load i64, i64* %PC
  %9 = add i64 %8, %rel_off2
  store i64 %9, i64* %PC
  %10 = call %struct.Memory* @_ZN12_GLOBAL__N_1L3JMPI2InImEEEP6MemoryS4_R5StateT_(%struct.Memory* %2, %struct.State* %0, i64 %7)
  ret %struct.Memory* %10
}




define %struct.Memory* @routine_cmpl__0x10__MINUS0x14__rbp_(%struct.State*  dereferenceable(3376), i64, %struct.Memory* ) #19 {
block_400488:
  %3 = getelementptr inbounds %struct.State, %struct.State* %0, i32 0, i32 6
  %4 = getelementptr inbounds %struct.GPR, %struct.GPR* %3, i32 0, i32 33
  %5 = getelementptr inbounds %struct.Reg, %struct.Reg* %4, i32 0, i32 0
  %PC = bitcast %union.anon* %5 to i64*
  %6 = getelementptr inbounds %struct.State, %struct.State* %0, i32 0, i32 6
  %7 = getelementptr inbounds %struct.GPR, %struct.GPR* %6, i32 0, i32 15
  %8 = getelementptr inbounds %struct.Reg, %struct.Reg* %7, i32 0, i32 0
  %RBP = bitcast %union.anon* %8 to i64*
  %9 = load i64, i64* %RBP
  %10 = sub i64 %9, 20
  %11 = load i64, i64* %PC
  %12 = add i64 %11, 4
  store i64 %12, i64* %PC
  %13 = call %struct.Memory* @_ZN12_GLOBAL__N_1L3CMPI2MnIjE2InIjEEEP6MemoryS6_R5StateT_T0_(%struct.Memory* %2, %struct.State* %0, i64 %10, i64 16)
  ret %struct.Memory* %13
}


define %struct.Memory* @routine_jge_.L_40198b(%struct.State*  dereferenceable(3376), i64, %struct.Memory*, i8* %BRANCH_TAKEN, i64 %rel_off1, i64 %rel_off2, i64 %rel_off3) {
block_400488:
  %3 = getelementptr inbounds %struct.State, %struct.State* %0, i32 0, i32 6
  %4 = getelementptr inbounds %struct.GPR, %struct.GPR* %3, i32 0, i32 33
  %5 = getelementptr inbounds %struct.Reg, %struct.Reg* %4, i32 0, i32 0
  %PC = bitcast %union.anon* %5 to i64*
  %6 = load i64, i64* %PC
  %7 = add i64 %6, %rel_off1
  %8 = load i64, i64* %PC
  %9 = add i64 %8, %rel_off2
  %10 = load i64, i64* %PC
  %11 = add i64 %10, %rel_off3
  store i64 %11, i64* %PC
  %12 = call %struct.Memory* @_ZN12_GLOBAL__N_1L3JNLEP6MemoryR5State3RnWIhE2InImES7_(%struct.Memory* %2, %struct.State* %0, i8* %BRANCH_TAKEN, i64 %7, i64 %9)
  ret %struct.Memory* %12
}




define %struct.Memory* @routine_movl_0x604090___rax_4____ecx(%struct.State*  dereferenceable(3376), i64, %struct.Memory* ) #19 {
block_400488:
  %3 = getelementptr inbounds %struct.State, %struct.State* %0, i32 0, i32 6
  %4 = getelementptr inbounds %struct.GPR, %struct.GPR* %3, i32 0, i32 33
  %5 = getelementptr inbounds %struct.Reg, %struct.Reg* %4, i32 0, i32 0
  %PC = bitcast %union.anon* %5 to i64*
  %6 = getelementptr inbounds %struct.State, %struct.State* %0, i32 0, i32 6
  %7 = getelementptr inbounds %struct.GPR, %struct.GPR* %6, i32 0, i32 1
  %8 = getelementptr inbounds %struct.Reg, %struct.Reg* %7, i32 0, i32 0
  %RAX = bitcast %union.anon* %8 to i64*
  %9 = getelementptr inbounds %struct.State, %struct.State* %0, i32 0, i32 6
  %10 = getelementptr inbounds %struct.GPR, %struct.GPR* %9, i32 0, i32 5
  %11 = getelementptr inbounds %struct.Reg, %struct.Reg* %10, i32 0, i32 0
  %RCX = bitcast %union.anon* %11 to i64*
  %12 = load i64, i64* %RAX
  %13 = mul i64 %12, 4
  %14 = add i64 %13, 6307984
  %15 = load i64, i64* %PC
  %16 = add i64 %15, 7
  store i64 %16, i64* %PC
  %17 = call %struct.Memory* @_ZN12_GLOBAL__N_1L3MOVI3RnWImE2MnIjEEEP6MemoryS6_R5StateT_T0_(%struct.Memory* %2, %struct.State* %0, i64* %RCX, i64 %14)
  ret %struct.Memory* %17
}

define internal %struct.Memory* @_ZN12_GLOBAL__N_1L3MOVI3RnWIhE2RnIhEEEP6MemoryS6_R5StateT_T0_(%struct.Memory* readnone returned, %struct.State* nocapture readnone dereferenceable(3376), i8* nocapture, i64) #2 {
  %5 = trunc i64 %3 to i8
  store i8 %5, i8* %2, align 1
  ret %struct.Memory* %0
}

define %struct.Memory* @routine_movb__cl___dl(%struct.State*  dereferenceable(3376), i64, %struct.Memory* ) #19 {
block_400488:
  %3 = getelementptr inbounds %struct.State, %struct.State* %0, i32 0, i32 6
  %4 = getelementptr inbounds %struct.GPR, %struct.GPR* %3, i32 0, i32 33
  %5 = getelementptr inbounds %struct.Reg, %struct.Reg* %4, i32 0, i32 0
  %PC = bitcast %union.anon* %5 to i64*
  %6 = getelementptr inbounds %struct.State, %struct.State* %0, i32 0, i32 6
  %7 = getelementptr inbounds %struct.GPR, %struct.GPR* %6, i32 0, i32 5
  %8 = getelementptr inbounds %struct.Reg, %struct.Reg* %7, i32 0, i32 0
  %9 = bitcast %union.anon* %8 to %struct.anon.2*
  %CL = getelementptr inbounds %struct.anon.2, %struct.anon.2* %9, i32 0, i32 0
  %10 = getelementptr inbounds %struct.State, %struct.State* %0, i32 0, i32 6
  %11 = getelementptr inbounds %struct.GPR, %struct.GPR* %10, i32 0, i32 7
  %12 = getelementptr inbounds %struct.Reg, %struct.Reg* %11, i32 0, i32 0
  %13 = bitcast %union.anon* %12 to %struct.anon.2*
  %DL = getelementptr inbounds %struct.anon.2, %struct.anon.2* %13, i32 0, i32 0
  %14 = load i8, i8* %CL
  %15 = zext i8 %14 to i64
  %16 = load i64, i64* %PC
  %17 = add i64 %16, 2
  store i64 %17, i64* %PC
  %18 = call %struct.Memory* @_ZN12_GLOBAL__N_1L3MOVI3RnWIhE2RnIhEEEP6MemoryS6_R5StateT_T0_(%struct.Memory* %2, %struct.State* %0, i8* %DL, i64 %15)
  ret %struct.Memory* %18
}




define %struct.Memory* @routine_movl_MINUS0x14__rbp____ecx(%struct.State*  dereferenceable(3376), i64, %struct.Memory* ) #19 {
block_400488:
  %3 = getelementptr inbounds %struct.State, %struct.State* %0, i32 0, i32 6
  %4 = getelementptr inbounds %struct.GPR, %struct.GPR* %3, i32 0, i32 33
  %5 = getelementptr inbounds %struct.Reg, %struct.Reg* %4, i32 0, i32 0
  %PC = bitcast %union.anon* %5 to i64*
  %6 = getelementptr inbounds %struct.State, %struct.State* %0, i32 0, i32 6
  %7 = getelementptr inbounds %struct.GPR, %struct.GPR* %6, i32 0, i32 5
  %8 = getelementptr inbounds %struct.Reg, %struct.Reg* %7, i32 0, i32 0
  %RCX = bitcast %union.anon* %8 to i64*
  %9 = getelementptr inbounds %struct.State, %struct.State* %0, i32 0, i32 6
  %10 = getelementptr inbounds %struct.GPR, %struct.GPR* %9, i32 0, i32 15
  %11 = getelementptr inbounds %struct.Reg, %struct.Reg* %10, i32 0, i32 0
  %RBP = bitcast %union.anon* %11 to i64*
  %12 = load i64, i64* %RBP
  %13 = sub i64 %12, 20
  %14 = load i64, i64* %PC
  %15 = add i64 %14, 3
  store i64 %15, i64* %PC
  %16 = call %struct.Memory* @_ZN12_GLOBAL__N_1L3MOVI3RnWImE2MnIjEEEP6MemoryS6_R5StateT_T0_(%struct.Memory* %2, %struct.State* %0, i64* %RCX, i64 %13)
  ret %struct.Memory* %16
}


define %struct.Memory* @routine_addl__0xbc___ecx(%struct.State*  dereferenceable(3376), i64, %struct.Memory* ) #19 {
block_400488:
  %3 = getelementptr inbounds %struct.State, %struct.State* %0, i32 0, i32 6
  %4 = getelementptr inbounds %struct.GPR, %struct.GPR* %3, i32 0, i32 33
  %5 = getelementptr inbounds %struct.Reg, %struct.Reg* %4, i32 0, i32 0
  %PC = bitcast %union.anon* %5 to i64*
  %6 = getelementptr inbounds %struct.State, %struct.State* %0, i32 0, i32 6
  %7 = getelementptr inbounds %struct.GPR, %struct.GPR* %6, i32 0, i32 5
  %8 = getelementptr inbounds %struct.Reg, %struct.Reg* %7, i32 0, i32 0
  %RCX = bitcast %union.anon* %8 to i64*
  %9 = load i64, i64* %RCX
  %10 = load i64, i64* %PC
  %11 = add i64 %10, 6
  store i64 %11, i64* %PC
  %12 = call %struct.Memory* @_ZN12_GLOBAL__N_1L3ADDI3RnWImE2RnIjE2InIjEEEP6MemoryS8_R5StateT_T0_T1_(%struct.Memory* %2, %struct.State* %0, i64* %RCX, i64 %9, i64 188)
  ret %struct.Memory* %12
}


define %struct.Memory* @routine_movslq__ecx___rsi(%struct.State*  dereferenceable(3376), i64, %struct.Memory* ) #19 {
block_400488:
  %3 = getelementptr inbounds %struct.State, %struct.State* %0, i32 0, i32 6
  %4 = getelementptr inbounds %struct.GPR, %struct.GPR* %3, i32 0, i32 33
  %5 = getelementptr inbounds %struct.Reg, %struct.Reg* %4, i32 0, i32 0
  %PC = bitcast %union.anon* %5 to i64*
  %6 = getelementptr inbounds %struct.State, %struct.State* %0, i32 0, i32 6
  %7 = getelementptr inbounds %struct.GPR, %struct.GPR* %6, i32 0, i32 5
  %8 = getelementptr inbounds %struct.Reg, %struct.Reg* %7, i32 0, i32 0
  %ECX = bitcast %union.anon* %8 to i32*
  %9 = getelementptr inbounds %struct.State, %struct.State* %0, i32 0, i32 6
  %10 = getelementptr inbounds %struct.GPR, %struct.GPR* %9, i32 0, i32 9
  %11 = getelementptr inbounds %struct.Reg, %struct.Reg* %10, i32 0, i32 0
  %RSI = bitcast %union.anon* %11 to i64*
  %12 = load i32, i32* %ECX
  %13 = zext i32 %12 to i64
  %14 = load i64, i64* %PC
  %15 = add i64 %14, 3
  store i64 %15, i64* %PC
  %16 = call %struct.Memory* @_ZN12_GLOBAL__N_1L5MOVSXI3RnWImE2RnIjElEEP6MemoryS6_R5StateT_T0_(%struct.Memory* %2, %struct.State* %0, i64* %RSI, i64 %13)
  ret %struct.Memory* %16
}


define %struct.Memory* @routine_movb__dl____rax__rsi_1_(%struct.State*  dereferenceable(3376), i64, %struct.Memory* ) #19 {
block_400488:
  %3 = getelementptr inbounds %struct.State, %struct.State* %0, i32 0, i32 6
  %4 = getelementptr inbounds %struct.GPR, %struct.GPR* %3, i32 0, i32 33
  %5 = getelementptr inbounds %struct.Reg, %struct.Reg* %4, i32 0, i32 0
  %PC = bitcast %union.anon* %5 to i64*
  %6 = getelementptr inbounds %struct.State, %struct.State* %0, i32 0, i32 6
  %7 = getelementptr inbounds %struct.GPR, %struct.GPR* %6, i32 0, i32 7
  %8 = getelementptr inbounds %struct.Reg, %struct.Reg* %7, i32 0, i32 0
  %9 = bitcast %union.anon* %8 to %struct.anon.2*
  %DL = getelementptr inbounds %struct.anon.2, %struct.anon.2* %9, i32 0, i32 0
  %10 = getelementptr inbounds %struct.State, %struct.State* %0, i32 0, i32 6
  %11 = getelementptr inbounds %struct.GPR, %struct.GPR* %10, i32 0, i32 1
  %12 = getelementptr inbounds %struct.Reg, %struct.Reg* %11, i32 0, i32 0
  %RAX = bitcast %union.anon* %12 to i64*
  %13 = getelementptr inbounds %struct.State, %struct.State* %0, i32 0, i32 6
  %14 = getelementptr inbounds %struct.GPR, %struct.GPR* %13, i32 0, i32 9
  %15 = getelementptr inbounds %struct.Reg, %struct.Reg* %14, i32 0, i32 0
  %RSI = bitcast %union.anon* %15 to i64*
  %16 = load i64, i64* %RAX
  %17 = load i64, i64* %RSI
  %18 = add i64 %17, %16
  %19 = load i8, i8* %DL
  %20 = zext i8 %19 to i64
  %21 = load i64, i64* %PC
  %22 = add i64 %21, 3
  store i64 %22, i64* %PC
  %23 = call %struct.Memory* @_ZN12_GLOBAL__N_1L3MOVI3MnWIhE2RnIhEEEP6MemoryS6_R5StateT_T0_(%struct.Memory* %2, %struct.State* %0, i64 %18, i64 %20)
  ret %struct.Memory* %23
}








define %struct.Memory* @routine_jmpq_.L_401953(%struct.State*  dereferenceable(3376), i64, %struct.Memory*, i64 %rel_off1, i64 %rel_off2) {
block_400488:
  %3 = getelementptr inbounds %struct.State, %struct.State* %0, i32 0, i32 6
  %4 = getelementptr inbounds %struct.GPR, %struct.GPR* %3, i32 0, i32 33
  %5 = getelementptr inbounds %struct.Reg, %struct.Reg* %4, i32 0, i32 0
  %PC = bitcast %union.anon* %5 to i64*
  %6 = load i64, i64* %PC
  %7 = add i64 %6, %rel_off1
  %8 = load i64, i64* %PC
  %9 = add i64 %8, %rel_off2
  store i64 %9, i64* %PC
  %10 = call %struct.Memory* @_ZN12_GLOBAL__N_1L3JMPI2InImEEEP6MemoryS4_R5StateT_(%struct.Memory* %2, %struct.State* %0, i64 %7)
  ret %struct.Memory* %10
}

define internal %struct.Memory* @_ZN12_GLOBAL__N_1L3ADDI3RnWImE2RnImE2InImEEEP6MemoryS8_R5StateT_T0_T1_(%struct.Memory* readnone returned, %struct.State* nocapture dereferenceable(3376), i64* nocapture, i64, i64) #0 {
  %6 = add i64 %4, %3
  store i64 %6, i64* %2, align 8
  %7 = icmp ult i64 %6, %3
  %8 = icmp ult i64 %6, %4
  %9 = or i1 %7, %8
  %10 = zext i1 %9 to i8
  %11 = getelementptr inbounds %struct.State, %struct.State* %1, i64 0, i32 2, i32 1
  store i8 %10, i8* %11, align 1
  %12 = trunc i64 %6 to i32
  %13 = and i32 %12, 255
  %14 = tail call i32 @llvm.ctpop.i32(i32 %13) #22
  %15 = trunc i32 %14 to i8
  %16 = and i8 %15, 1
  %17 = xor i8 %16, 1
  %18 = getelementptr inbounds %struct.State, %struct.State* %1, i64 0, i32 2, i32 3
  store i8 %17, i8* %18, align 1
  %19 = xor i64 %4, %3
  %20 = xor i64 %19, %6
  %21 = lshr i64 %20, 4
  %22 = trunc i64 %21 to i8
  %23 = and i8 %22, 1
  %24 = getelementptr inbounds %struct.State, %struct.State* %1, i64 0, i32 2, i32 5
  store i8 %23, i8* %24, align 1
  %25 = icmp eq i64 %6, 0
  %26 = zext i1 %25 to i8
  %27 = getelementptr inbounds %struct.State, %struct.State* %1, i64 0, i32 2, i32 7
  store i8 %26, i8* %27, align 1
  %28 = lshr i64 %6, 63
  %29 = trunc i64 %28 to i8
  %30 = getelementptr inbounds %struct.State, %struct.State* %1, i64 0, i32 2, i32 9
  store i8 %29, i8* %30, align 1
  %31 = lshr i64 %3, 63
  %32 = lshr i64 %4, 63
  %33 = xor i64 %28, %31
  %34 = xor i64 %28, %32
  %35 = add   i64 %33, %34
  %36 = icmp eq i64 %35, 2
  %37 = zext i1 %36 to i8
  %38 = getelementptr inbounds %struct.State, %struct.State* %1, i64 0, i32 2, i32 13
  store i8 %37, i8* %38, align 1
  ret %struct.Memory* %0
}

define %struct.Memory* @routine_addq__0x20___rsp(%struct.State*  dereferenceable(3376), i64, %struct.Memory* ) #19 {
block_400488:
  %3 = getelementptr inbounds %struct.State, %struct.State* %0, i32 0, i32 6
  %4 = getelementptr inbounds %struct.GPR, %struct.GPR* %3, i32 0, i32 33
  %5 = getelementptr inbounds %struct.Reg, %struct.Reg* %4, i32 0, i32 0
  %PC = bitcast %union.anon* %5 to i64*
  %6 = getelementptr inbounds %struct.State, %struct.State* %0, i32 0, i32 6
  %7 = getelementptr inbounds %struct.GPR, %struct.GPR* %6, i32 0, i32 13
  %8 = getelementptr inbounds %struct.Reg, %struct.Reg* %7, i32 0, i32 0
  %RSP = bitcast %union.anon* %8 to i64*
  %9 = load i64, i64* %RSP
  %10 = load i64, i64* %PC
  %11 = add i64 %10, 4
  store i64 %11, i64* %PC
  %12 = call %struct.Memory* @_ZN12_GLOBAL__N_1L3ADDI3RnWImE2RnImE2InImEEEP6MemoryS8_R5StateT_T0_T1_(%struct.Memory* %2, %struct.State* %0, i64* %RSP, i64 %9, i64 32)
  ret %struct.Memory* %12
}

define internal %struct.Memory* @_ZN12_GLOBAL__N_1L3POPI3RnWImEEEP6MemoryS4_R5StateT_(%struct.Memory*, %struct.State* nocapture dereferenceable(3376), i64* nocapture) #0 {
  %4 = getelementptr inbounds %struct.State, %struct.State* %1, i64 0, i32 6, i32 13, i32 0, i32 0
  %5 = load i64, i64* %4, align 8
  %6 = add i64 %5, 8
  %7 = inttoptr i64 %5 to i64*
  %8 = load i64, i64* %7
  store i64 %8, i64* %2, align 8
  store i64 %6, i64* %4, align 8
  ret %struct.Memory* %0
}

define %struct.Memory* @routine_popq__rbp(%struct.State*  dereferenceable(3376), i64, %struct.Memory* ) #19 {
block_400488:
  %3 = getelementptr inbounds %struct.State, %struct.State* %0, i32 0, i32 6
  %4 = getelementptr inbounds %struct.GPR, %struct.GPR* %3, i32 0, i32 33
  %5 = getelementptr inbounds %struct.Reg, %struct.Reg* %4, i32 0, i32 0
  %PC = bitcast %union.anon* %5 to i64*
  %6 = getelementptr inbounds %struct.State, %struct.State* %0, i32 0, i32 6
  %7 = getelementptr inbounds %struct.GPR, %struct.GPR* %6, i32 0, i32 15
  %8 = getelementptr inbounds %struct.Reg, %struct.Reg* %7, i32 0, i32 0
  %RBP = bitcast %union.anon* %8 to i64*
  %9 = load i64, i64* %PC
  %10 = add i64 %9, 1
  store i64 %10, i64* %PC
  %11 = call %struct.Memory* @_ZN12_GLOBAL__N_1L3POPI3RnWImEEEP6MemoryS4_R5StateT_(%struct.Memory* %2, %struct.State* %0, i64* %RBP)
  ret %struct.Memory* %11
}

define internal %struct.Memory* @_ZN12_GLOBAL__N_1L3RETEP6MemoryR5State(%struct.Memory* returned, %struct.State* nocapture dereferenceable(3376)) #0 {
  %3 = getelementptr inbounds %struct.State, %struct.State* %1, i64 0, i32 6, i32 33, i32 0, i32 0
  %4 = getelementptr inbounds %struct.State, %struct.State* %1, i64 0, i32 6, i32 13, i32 0, i32 0
  %5 = load i64, i64* %4, align 8
  %6 = inttoptr i64 %5 to i64*
  %7 = load i64, i64* %6
  store i64 %7, i64* %3, align 8
  %8 = add i64 %5, 8
  store i64 %8, i64* %4, align 8
  ret %struct.Memory* %0
}

define %struct.Memory* @routine_retq(%struct.State*  dereferenceable(3376), i64, %struct.Memory* ) #19 {
block_400488:
  %3 = getelementptr inbounds %struct.State, %struct.State* %0, i32 0, i32 6
  %4 = getelementptr inbounds %struct.GPR, %struct.GPR* %3, i32 0, i32 33
  %5 = getelementptr inbounds %struct.Reg, %struct.Reg* %4, i32 0, i32 0
  %PC = bitcast %union.anon* %5 to i64*
  %6 = load i64, i64* %PC
  %7 = add i64 %6, 1
  store i64 %7, i64* %PC
  %8 = call %struct.Memory* @_ZN12_GLOBAL__N_1L3RETEP6MemoryR5State(%struct.Memory* %2, %struct.State* %0)
  ret %struct.Memory* %8
}

