; ModuleID = 'test.bc'
source_filename = "llvm-link"
target datalayout = "e-m:e-i64:64-f80:128-n8:16:32:64-S128"
target triple = "x86_64-pc-linux-gnu-elf"
%union.anon = type { i64 }
%seg_400388__init_type = type <{ [23 x i8] }>
%seg_4003a0__text_type = type <{ [354 x i8] }>
%seg_400504__fini_type = type <{ [9 x i8] }>
%seg_400510__rodata_type = type <{ [4 x i8] }>
%seg_400514__eh_frame_hdr_type = type <{ [52 x i8] }>
%seg_400548__eh_frame_type = type <{ [208 x i8] }>
%seg_600e40__init_array_type = type <{ i64, i64 }>
%seg_601018__data_type = type <{ [16 x i8] }>
%__bss_start_type = type <{ [8 x i8] }>
%struct.State = type { %struct.ArchState, [32 x %union.VectorReg], %struct.ArithFlags, %union.anon, %struct.Segments, %struct.AddressSpace, %struct.GPR, %struct.X87Stack, %struct.MMX, %struct.FPUStatusFlags, %union.anon, %union.FPU, %struct.SegmentCaches }
%struct.ArchState = type { i32, i32, %union.anon }
%union.VectorReg = type { %union.vec512_t }
%union.vec512_t = type { %struct.uint64v8_t }
%struct.uint64v8_t = type { [8 x i64] }
%struct.ArithFlags = type { i8, i8, i8, i8, i8, i8, i8, i8, i8, i8, i8, i8, i8, i8, i8, i8 }
%struct.Segments = type { i16, %union.SegmentSelector, i16, %union.SegmentSelector, i16, %union.SegmentSelector, i16, %union.SegmentSelector, i16, %union.SegmentSelector, i16, %union.SegmentSelector }
%union.SegmentSelector = type { i16 }
%struct.AddressSpace = type { i64, %struct.Reg, i64, %struct.Reg, i64, %struct.Reg, i64, %struct.Reg, i64, %struct.Reg, i64, %struct.Reg }
%struct.Reg = type { %union.anon }
%struct.GPR = type { i64, %struct.Reg, i64, %struct.Reg, i64, %struct.Reg, i64, %struct.Reg, i64, %struct.Reg, i64, %struct.Reg, i64, %struct.Reg, i64, %struct.Reg, i64, %struct.Reg, i64, %struct.Reg, i64, %struct.Reg, i64, %struct.Reg, i64, %struct.Reg, i64, %struct.Reg, i64, %struct.Reg, i64, %struct.Reg, i64, %struct.Reg }
%struct.X87Stack = type { [8 x %struct.anon.3] }
%struct.anon.3 = type { i64, double }
%struct.MMX = type { [8 x %struct.anon.4] }
%struct.anon.4 = type { i64, %union.vec64_t }
%union.vec64_t = type { %struct.uint64v1_t }
%struct.uint64v1_t = type { [1 x i64] }
%struct.FPUStatusFlags = type { i8, i8, i8, i8, i8, i8, i8, i8, i8, i8, i8, i8, i8, i8, i8, i8, i8, i8, i8, i8, [4 x i8] }
%union.FPU = type { %struct.anon.13 }
%struct.anon.13 = type { %struct.FpuFXSAVE, [96 x i8] }
%struct.FpuFXSAVE = type { %union.SegmentSelector, %union.SegmentSelector, %union.FPUAbridgedTagWord, i8, i16, i32, %union.SegmentSelector, i16, i32, %union.SegmentSelector, i16, %union.FPUControlStatus, %union.FPUControlStatus, [8 x %struct.FPUStackElem], [16 x %union.vec128_t] }
%union.FPUAbridgedTagWord = type { i8 }
%union.FPUControlStatus = type { i32 }
%struct.FPUStackElem = type { %union.anon.11, [6 x i8] }
%union.anon.11 = type { %struct.float80_t }
%struct.float80_t = type { [10 x i8] }
%union.vec128_t = type { %struct.uint128v1_t }
%struct.uint128v1_t = type { [1 x i128] }
%struct.SegmentCaches = type { %struct.SegmentShadow, %struct.SegmentShadow, %struct.SegmentShadow, %struct.SegmentShadow, %struct.SegmentShadow, %struct.SegmentShadow }
%struct.SegmentShadow = type { %union.anon, i32, i32 }
%struct.Memory = type opaque
%struct.uint8v32_t = type { [32 x i8] }
%struct.anon.2 = type { i8, i8 }
%struct.int32v8_t = type { [8 x i32] }
%struct.float32v8_t = type { [8 x float] }
%struct.uint8v8_t = type { [8 x i8] }
%struct.uint8v16_t = type { [16 x i8] }
%struct.uint16v8_t = type { [8 x i16] }
%struct.uint8v4_t = type { [4 x i8] }
%struct.int16v4_t = type { [4 x i16] }
%struct.int32v4_t = type { [4 x i32] }
%struct.uint64v2_t = type { [2 x i64] }
%struct.uint64v4_t = type { [4 x i64] }
%struct.uint128v2_t = type { [2 x i128] }
%struct.uint16v16_t = type { [16 x i16] }
%struct.float64v4_t = type { [4 x double] }
%"class.(anonymous namespace)::BitMatrix" = type { %"class.std::bitset", [16 x [16 x i8]] }
%"class.std::bitset" = type { %struct.uint64v4_t }
%struct.bcd80_t = type { [9 x %union.FPUAbridgedTagWord], %union.FPUAbridgedTagWord }
%struct.FpuFSAVE = type { %union.SegmentSelector, i16, %union.SegmentSelector, i16, %union.SegmentSelector, i16, i32, %union.SegmentSelector, i16, i32, %union.SegmentSelector, i16, [8 x %struct.FPUStackElem] }
%struct.anon.5 = type { i32, i32 }
@switch.table = private unnamed_addr constant [4 x i32] [i32 2048, i32 3072, i32 0, i32 1024]
@DR0 = external global i64, align 8
@DR1 = external global i64, align 8
@DR2 = external global i64, align 8
@DR3 = external global i64, align 8
@DR4 = external global i64, align 8
@DR5 = external global i64, align 8
@DR6 = external global i64, align 8
@DR7 = external global i64, align 8
@gCR0 = external global %union.anon, align 1
@gCR1 = external global %union.anon, align 1
@gCR2 = external global %union.anon, align 1
@gCR3 = external global %union.anon, align 1
@gCR4 = external global %union.anon, align 1
@gCR8 = external global %union.anon, align 1
@seg_400388__init = internal constant %seg_400388__init_type <{ [23 x i8] c"H\83\EC\08H\8B\05e\0C \00H\85\C0t\02\FF\D0H\83\C4\08\C3" }>
@seg_4003a0__text = internal constant %seg_4003a0__text_type <{ [354 x i8] c"1\EDI\89\D1^H\89\E2H\83\E4\F0PTI\C7\C0\00\05@\00H\C7\C1\90\04@\00H\C7\C7\88\04@\00\FF\15&\0C \00\F4\0F\1FD\00\00\F3\C3f.\0F\1F\84\00\00\00\00\00\0F\1F@\00U\B8(\10`\00H=(\10`\00H\89\E5t\17\B8\00\00\00\00H\85\C0t\0D]\BF(\10`\00\FF\E0\0F\1FD\00\00]\C3f\0F\1FD\00\00\BE(\10`\00UH\81\EE(\10`\00H\89\E5H\C1\FE\03H\89\F0H\C1\E8?H\01\C6H\D1\FEt\15\B8\00\00\00\00H\85\C0t\0B]\BF(\10`\00\FF\E0\0F\1F\00]\C3f\0F\1FD\00\00\80=\D1\0B \00\00u\17UH\89\E5\E8~\FF\FF\FF\C6\05\BF\0B \00\01]\C3\0F\1FD\00\00\F3\C3\0F\1F@\00f.\0F\1F\84\00\00\00\00\00UH\89\E5]\EB\89\90U\C3f\0F\1FD\00\00AWAVI\89\D7AUATL\8D%\9E\09 \00UH\8D-\9E\09 \00SA\89\FDI\89\F6L)\E5H\83\EC\08H\C1\FD\03\E8\C7\FE\FF\FFH\85\EDt 1\DB\0F\1F\84\00\00\00\00\00L\89\FAL\89\F6D\89\EFA\FF\14\DCH\83\C3\01H9\DDu\EAH\83\C4\08[]A\5CA]A^A_\C3\90f.\0F\1F\84\00\00\00\00\00\F3\C3" }>
@seg_400504__fini = internal constant %seg_400504__fini_type <{ [9 x i8] c"H\83\EC\08H\83\C4\08\C3" }>
@seg_400510__rodata = internal constant %seg_400510__rodata_type <{ [4 x i8] c"\01\00\02\00" }>
@seg_400514__eh_frame_hdr = internal constant %seg_400514__eh_frame_hdr_type <{ [52 x i8] c"\01\1B\03;0\00\00\00\05\00\00\00\8C\FE\FF\FFL\00\00\00\BC\FE\FF\FFx\00\00\00t\FF\FF\FF\8C\00\00\00|\FF\FF\FF\A4\00\00\00\EC\FF\FF\FF\EC\00\00\00" }>
@seg_400548__eh_frame = internal constant %seg_400548__eh_frame_type <{ [208 x i8] c"\14\00\00\00\00\00\00\00\01zR\00\01x\10\01\1B\0C\07\08\90\01\07\10\10\00\00\00\1C\00\00\008\FE\FF\FF+\00\00\00\00\00\00\00\14\00\00\00\00\00\00\00\01zR\00\01x\10\01\1B\0C\07\08\90\01\00\00\10\00\00\00\1C\00\00\00<\FE\FF\FF\02\00\00\00\00\00\00\00\14\00\00\000\00\00\00\E0\FE\FF\FF\02\00\00\00\00\00\00\00\00\00\00\00D\00\00\00H\00\00\00\D0\FE\FF\FFe\00\00\00\00B\0E\10\8F\02B\0E\18\8E\03E\0E \8D\04B\0E(\8C\05H\0E0\86\06H\0E8\83\07M\0E@r\0E8A\0E0A\0E(B\0E B\0E\18B\0E\10B\0E\08\00\10\00\00\00\90\00\00\00\F8\FE\FF\FF\02\00\00\00\00\00\00\00\00\00\00\00" }>
@seg_601018__data = internal global %seg_601018__data_type zeroinitializer
@__bss_start = global %__bss_start_type zeroinitializer
@0 = internal global i1 false
%seg_400514__fini_type = type <{ [9 x i8] }>
%seg_400520__rodata_type = type <{ [4 x i8] }>
%seg_400524__eh_frame_hdr_type = type <{ [52 x i8] }>
%seg_400558__eh_frame_type = type <{ [208 x i8] }>
@seg_400514__fini = internal constant %seg_400514__fini_type <{ [9 x i8] c"H\83\EC\08H\83\C4\08\C3" }>
@seg_400520__rodata = internal constant %seg_400520__rodata_type <{ [4 x i8] c"\01\00\02\00" }>
@seg_400524__eh_frame_hdr = internal constant %seg_400524__eh_frame_hdr_type <{ [52 x i8] c"\01\1B\03;0\00\00\00\05\00\00\00|\FE\FF\FFL\00\00\00\AC\FE\FF\FFx\00\00\00d\FF\FF\FF\8C\00\00\00|\FF\FF\FF\A4\00\00\00\EC\FF\FF\FF\EC\00\00\00" }>
@seg_400558__eh_frame = internal constant %seg_400558__eh_frame_type <{ [208 x i8] c"\14\00\00\00\00\00\00\00\01zR\00\01x\10\01\1B\0C\07\08\90\01\07\10\10\00\00\00\1C\00\00\00(\FE\FF\FF+\00\00\00\00\00\00\00\14\00\00\00\00\00\00\00\01zR\00\01x\10\01\1B\0C\07\08\90\01\00\00\10\00\00\00\1C\00\00\00,\FE\FF\FF\02\00\00\00\00\00\00\00\14\00\00\000\00\00\00\D0\FE\FF\FF\09\00\00\00\00\00\00\00\00\00\00\00D\00\00\00H\00\00\00\D0\FE\FF\FFe\00\00\00\00B\0E\10\8F\02B\0E\18\8E\03E\0E \8D\04B\0E(\8C\05H\0E0\86\06H\0E8\83\07M\0E@r\0E8A\0E0A\0E(B\0E B\0E\18B\0E\10B\0E\08\00\10\00\00\00\90\00\00\00\F8\FE\FF\FF\02\00\00\00\00\00\00\00\00\00\00\00" }>

; Function Declaraions
declare i32 @llvm.ctpop.i32(i32) #2
declare %struct.Memory* @__remill_error(%struct.State* dereferenceable(3376), i64, %struct.Memory*)

declare %struct.Memory* @sub_4004d0.clock_plt(%struct.State* dereferenceable(3376), i64, %struct.Memory*)
declare %struct.Memory* @sub_4004f0.malloc_plt(%struct.State* dereferenceable(3376), i64, %struct.Memory*)
declare %struct.Memory* @sub_4004c0.strcpy_plt(%struct.State* dereferenceable(3376), i64, %struct.Memory*)
declare %struct.Memory* @sub_4008e0.Proc5(%struct.State* dereferenceable(3376), i64, %struct.Memory*)
declare %struct.Memory* @sub_400900.Proc4(%struct.State* dereferenceable(3376), i64, %struct.Memory*)
declare %struct.Memory* @sub_400940.Func2(%struct.State* dereferenceable(3376), i64, %struct.Memory*)
declare %struct.Memory* @sub_400a20.Proc7(%struct.State* dereferenceable(3376), i64, %struct.Memory*)
declare %struct.Memory* @sub_400a50.Proc8(%struct.State* dereferenceable(3376), i64, %struct.Memory*)
declare %struct.Memory* @sub_400b50.Proc1(%struct.State* dereferenceable(3376), i64, %struct.Memory*)
declare %struct.Memory* @sub_400b90.Func1(%struct.State* dereferenceable(3376), i64, %struct.Memory*)
declare %struct.Memory* @sub_400be0.Proc6(%struct.State* dereferenceable(3376), i64, %struct.Memory*)
declare %struct.Memory* @sub_400ce0.Proc2(%struct.State* dereferenceable(3376), i64, %struct.Memory*)

; Data Access Globals


define %struct.Memory* @Proc0(%struct.State* noalias , i64, %struct.Memory* noalias) alwaysinline  {
entry:
  %3 = getelementptr inbounds %struct.State, %struct.State* %0, i64 0, i32 6, i32 33, i32 0, i32 0
  store i64 %1, i64* %3, align 8
  %BRANCH_TAKEN = alloca i8, align 1
  store i8 0, i8* %BRANCH_TAKEN, align 1
  %MEMORY = alloca %struct.Memory*, align 8
  store %struct.Memory* %2, %struct.Memory** %MEMORY, align 8

  ; Code: .Proc0:	 RIP: 400620	 Bytes: 0
  ; Code: pushq %rbp	 RIP: 400620	 Bytes: 1
  %loadMem_400620 = load %struct.Memory*, %struct.Memory** %MEMORY
  %call_400620 = call %struct.Memory* @routine_pushq__rbp(%struct.State* %0, i64  0, %struct.Memory* %loadMem_400620)
  store %struct.Memory* %call_400620, %struct.Memory** %MEMORY

  ; Code: movq %rsp, %rbp	 RIP: 400621	 Bytes: 3
  %loadMem_400621 = load %struct.Memory*, %struct.Memory** %MEMORY
  %call_400621 = call %struct.Memory* @routine_movq__rsp___rbp(%struct.State* %0, i64  0, %struct.Memory* %loadMem_400621)
  store %struct.Memory* %call_400621, %struct.Memory** %MEMORY

  ; Code: subq $0xe0, %rsp	 RIP: 400624	 Bytes: 7
  %loadMem_400624 = load %struct.Memory*, %struct.Memory** %MEMORY
  %call_400624 = call %struct.Memory* @routine_subq__0xe0___rsp(%struct.State* %0, i64  0, %struct.Memory* %loadMem_400624)
  store %struct.Memory* %call_400624, %struct.Memory** %MEMORY

  ; Code: callq .clock_plt	 RIP: 40062b	 Bytes: 5
  %loadMem1_40062b = load %struct.Memory*, %struct.Memory** %MEMORY
  %call1_40062b = call %struct.Memory* @routine_callq_.clock_plt(%struct.State* %0, i64  0, %struct.Memory* %loadMem1_40062b, i64 -347, i64 5, i64 5)
  store %struct.Memory* %call1_40062b, %struct.Memory** %MEMORY

  %loadMem2_40062b = load %struct.Memory*, %struct.Memory** %MEMORY
  %loadPC_40062b = load i64, i64* %3
  %call2_40062b = call %struct.Memory* @sub_4004d0.clock_plt(%struct.State* %0, i64  %loadPC_40062b, %struct.Memory* %loadMem2_40062b)
  store %struct.Memory* %call2_40062b, %struct.Memory** %MEMORY

  ; Code: movq %rax, -0x70(%rbp)	 RIP: 400630	 Bytes: 4
  %loadMem_400630 = load %struct.Memory*, %struct.Memory** %MEMORY
  %call_400630 = call %struct.Memory* @routine_movq__rax__MINUS0x70__rbp_(%struct.State* %0, i64  0, %struct.Memory* %loadMem_400630)
  store %struct.Memory* %call_400630, %struct.Memory** %MEMORY

  ; Code: movl $0x0, -0x64(%rbp)	 RIP: 400634	 Bytes: 7
  %loadMem_400634 = load %struct.Memory*, %struct.Memory** %MEMORY
  %call_400634 = call %struct.Memory* @routine_movl__0x0__MINUS0x64__rbp_(%struct.State* %0, i64  0, %struct.Memory* %loadMem_400634)
  store %struct.Memory* %call_400634, %struct.Memory** %MEMORY

  ; Code: .L_40063b:	 RIP: 40063b	 Bytes: 0
  br label %block_.L_40063b
block_.L_40063b:

  ; Code: cmpl $0x5f5e100, -0x64(%rbp)	 RIP: 40063b	 Bytes: 7
  %loadMem_40063b = load %struct.Memory*, %struct.Memory** %MEMORY
  %call_40063b = call %struct.Memory* @routine_cmpl__0x5f5e100__MINUS0x64__rbp_(%struct.State* %0, i64  0, %struct.Memory* %loadMem_40063b)
  store %struct.Memory* %call_40063b, %struct.Memory** %MEMORY

  ; Code: jae .L_40065b	 RIP: 400642	 Bytes: 6
  %loadMem_400642 = load %struct.Memory*, %struct.Memory** %MEMORY
  %call_400642 = call %struct.Memory* @routine_jae_.L_40065b(%struct.State* %0, i64  0, %struct.Memory* %loadMem_400642, i8* %BRANCH_TAKEN, i64 25, i64 6, i64 6)
  store %struct.Memory* %call_400642, %struct.Memory** %MEMORY

  %loadBr_400642 = load i8, i8* %BRANCH_TAKEN
  %cmpBr_400642 = icmp eq i8 %loadBr_400642, 1
  br i1 %cmpBr_400642, label %block_.L_40065b, label %block_400648

block_400648:
  ; Code: jmpq .L_40064d	 RIP: 400648	 Bytes: 5
  %loadMem_400648 = load %struct.Memory*, %struct.Memory** %MEMORY
  %call_400648 = call %struct.Memory* @routine_jmpq_.L_40064d(%struct.State* %0, i64  0, %struct.Memory* %loadMem_400648, i64 5, i64 5)
  store %struct.Memory* %call_400648, %struct.Memory** %MEMORY

  br label %block_.L_40064d

  ; Code: .L_40064d:	 RIP: 40064d	 Bytes: 0
block_.L_40064d:

  ; Code: movl -0x64(%rbp), %eax	 RIP: 40064d	 Bytes: 3
  %loadMem_40064d = load %struct.Memory*, %struct.Memory** %MEMORY
  %call_40064d = call %struct.Memory* @routine_movl_MINUS0x64__rbp____eax(%struct.State* %0, i64  0, %struct.Memory* %loadMem_40064d)
  store %struct.Memory* %call_40064d, %struct.Memory** %MEMORY

  ; Code: addl $0x1, %eax	 RIP: 400650	 Bytes: 3
  %loadMem_400650 = load %struct.Memory*, %struct.Memory** %MEMORY
  %call_400650 = call %struct.Memory* @routine_addl__0x1___eax(%struct.State* %0, i64  0, %struct.Memory* %loadMem_400650)
  store %struct.Memory* %call_400650, %struct.Memory** %MEMORY

  ; Code: movl %eax, -0x64(%rbp)	 RIP: 400653	 Bytes: 3
  %loadMem_400653 = load %struct.Memory*, %struct.Memory** %MEMORY
  %call_400653 = call %struct.Memory* @routine_movl__eax__MINUS0x64__rbp_(%struct.State* %0, i64  0, %struct.Memory* %loadMem_400653)
  store %struct.Memory* %call_400653, %struct.Memory** %MEMORY

  ; Code: jmpq .L_40063b	 RIP: 400656	 Bytes: 5
  %loadMem_400656 = load %struct.Memory*, %struct.Memory** %MEMORY
  %call_400656 = call %struct.Memory* @routine_jmpq_.L_40063b(%struct.State* %0, i64  0, %struct.Memory* %loadMem_400656, i64 -27, i64 5)
  store %struct.Memory* %call_400656, %struct.Memory** %MEMORY

  br label %block_.L_40063b

  ; Code: .L_40065b:	 RIP: 40065b	 Bytes: 0
block_.L_40065b:

  ; Code: callq .clock_plt	 RIP: 40065b	 Bytes: 5
  %loadMem1_40065b = load %struct.Memory*, %struct.Memory** %MEMORY
  %call1_40065b = call %struct.Memory* @routine_callq_.clock_plt(%struct.State* %0, i64  0, %struct.Memory* %loadMem1_40065b, i64 -395, i64 5, i64 5)
  store %struct.Memory* %call1_40065b, %struct.Memory** %MEMORY

  %loadMem2_40065b = load %struct.Memory*, %struct.Memory** %MEMORY
  %loadPC_40065b = load i64, i64* %3
  %call2_40065b = call %struct.Memory* @sub_4004d0.clock_plt(%struct.State* %0, i64  %loadPC_40065b, %struct.Memory* %loadMem2_40065b)
  store %struct.Memory* %call2_40065b, %struct.Memory** %MEMORY

  ; Code: movl $0x38, %ecx	 RIP: 400660	 Bytes: 5
  %loadMem_400660 = load %struct.Memory*, %struct.Memory** %MEMORY
  %call_400660 = call %struct.Memory* @routine_movl__0x38___ecx(%struct.State* %0, i64  0, %struct.Memory* %loadMem_400660)
  store %struct.Memory* %call_400660, %struct.Memory** %MEMORY

  ; Code: movl %ecx, %edi	 RIP: 400665	 Bytes: 2
  %loadMem_400665 = load %struct.Memory*, %struct.Memory** %MEMORY
  %call_400665 = call %struct.Memory* @routine_movl__ecx___edi(%struct.State* %0, i64  0, %struct.Memory* %loadMem_400665)
  store %struct.Memory* %call_400665, %struct.Memory** %MEMORY

  ; Code: subq -0x70(%rbp), %rax	 RIP: 400667	 Bytes: 4
  %loadMem_400667 = load %struct.Memory*, %struct.Memory** %MEMORY
  %call_400667 = call %struct.Memory* @routine_subq_MINUS0x70__rbp____rax(%struct.State* %0, i64  0, %struct.Memory* %loadMem_400667)
  store %struct.Memory* %call_400667, %struct.Memory** %MEMORY

  ; Code: movq %rax, -0x80(%rbp)	 RIP: 40066b	 Bytes: 4
  %loadMem_40066b = load %struct.Memory*, %struct.Memory** %MEMORY
  %call_40066b = call %struct.Memory* @routine_movq__rax__MINUS0x80__rbp_(%struct.State* %0, i64  0, %struct.Memory* %loadMem_40066b)
  store %struct.Memory* %call_40066b, %struct.Memory** %MEMORY

  ; Code: callq .malloc_plt	 RIP: 40066f	 Bytes: 5
  %loadMem1_40066f = load %struct.Memory*, %struct.Memory** %MEMORY
  %call1_40066f = call %struct.Memory* @routine_callq_.malloc_plt(%struct.State* %0, i64  0, %struct.Memory* %loadMem1_40066f, i64 -383, i64 5, i64 5)
  store %struct.Memory* %call1_40066f, %struct.Memory** %MEMORY

  %loadMem2_40066f = load %struct.Memory*, %struct.Memory** %MEMORY
  %loadPC_40066f = load i64, i64* %3
  %call2_40066f = call %struct.Memory* @sub_4004f0.malloc_plt(%struct.State* %0, i64  %loadPC_40066f, %struct.Memory* %loadMem2_40066f)
  store %struct.Memory* %call2_40066f, %struct.Memory** %MEMORY

  ; Code: movl $0x38, %ecx	 RIP: 400674	 Bytes: 5
  %loadMem_400674 = load %struct.Memory*, %struct.Memory** %MEMORY
  %call_400674 = call %struct.Memory* @routine_movl__0x38___ecx(%struct.State* %0, i64  0, %struct.Memory* %loadMem_400674)
  store %struct.Memory* %call_400674, %struct.Memory** %MEMORY

  ; Code: movl %ecx, %edi	 RIP: 400679	 Bytes: 2
  %loadMem_400679 = load %struct.Memory*, %struct.Memory** %MEMORY
  %call_400679 = call %struct.Memory* @routine_movl__ecx___edi(%struct.State* %0, i64  0, %struct.Memory* %loadMem_400679)
  store %struct.Memory* %call_400679, %struct.Memory** %MEMORY

  ; Code: movq %rax, 0x6049f8	 RIP: 40067b	 Bytes: 8
  %loadMem_40067b = load %struct.Memory*, %struct.Memory** %MEMORY
  %call_40067b = call %struct.Memory* @routine_movq__rax__0x6049f8(%struct.State* %0, i64  0, %struct.Memory* %loadMem_40067b)
  store %struct.Memory* %call_40067b, %struct.Memory** %MEMORY

  ; Code: callq .malloc_plt	 RIP: 400683	 Bytes: 5
  %loadMem1_400683 = load %struct.Memory*, %struct.Memory** %MEMORY
  %call1_400683 = call %struct.Memory* @routine_callq_.malloc_plt(%struct.State* %0, i64  0, %struct.Memory* %loadMem1_400683, i64 -403, i64 5, i64 5)
  store %struct.Memory* %call1_400683, %struct.Memory** %MEMORY

  %loadMem2_400683 = load %struct.Memory*, %struct.Memory** %MEMORY
  %loadPC_400683 = load i64, i64* %3
  %call2_400683 = call %struct.Memory* @sub_4004f0.malloc_plt(%struct.State* %0, i64  %loadPC_400683, %struct.Memory* %loadMem2_400683)
  store %struct.Memory* %call2_400683, %struct.Memory** %MEMORY

  ; Code: leaq -0x40(%rbp), %rdi	 RIP: 400688	 Bytes: 4
  %loadMem_400688 = load %struct.Memory*, %struct.Memory** %MEMORY
  %call_400688 = call %struct.Memory* @routine_leaq_MINUS0x40__rbp____rdi(%struct.State* %0, i64  0, %struct.Memory* %loadMem_400688)
  store %struct.Memory* %call_400688, %struct.Memory** %MEMORY

  ; Code: movq %rax, 0x602068	 RIP: 40068c	 Bytes: 8
  %loadMem_40068c = load %struct.Memory*, %struct.Memory** %MEMORY
  %call_40068c = call %struct.Memory* @routine_movq__rax__0x602068(%struct.State* %0, i64  0, %struct.Memory* %loadMem_40068c)
  store %struct.Memory* %call_40068c, %struct.Memory** %MEMORY

  ; Code: movq 0x6049f8, %rax	 RIP: 400694	 Bytes: 8
  %loadMem_400694 = load %struct.Memory*, %struct.Memory** %MEMORY
  %call_400694 = call %struct.Memory* @routine_movq_0x6049f8___rax(%struct.State* %0, i64  0, %struct.Memory* %loadMem_400694)
  store %struct.Memory* %call_400694, %struct.Memory** %MEMORY

  ; Code: movq 0x602068, %rdx	 RIP: 40069c	 Bytes: 8
  %loadMem_40069c = load %struct.Memory*, %struct.Memory** %MEMORY
  %call_40069c = call %struct.Memory* @routine_movq_0x602068___rdx(%struct.State* %0, i64  0, %struct.Memory* %loadMem_40069c)
  store %struct.Memory* %call_40069c, %struct.Memory** %MEMORY

  ; Code: movq %rax, (%rdx)	 RIP: 4006a4	 Bytes: 3
  %loadMem_4006a4 = load %struct.Memory*, %struct.Memory** %MEMORY
  %call_4006a4 = call %struct.Memory* @routine_movq__rax____rdx_(%struct.State* %0, i64  0, %struct.Memory* %loadMem_4006a4)
  store %struct.Memory* %call_4006a4, %struct.Memory** %MEMORY

  ; Code: movq 0x602068, %rax	 RIP: 4006a7	 Bytes: 8
  %loadMem_4006a7 = load %struct.Memory*, %struct.Memory** %MEMORY
  %call_4006a7 = call %struct.Memory* @routine_movq_0x602068___rax(%struct.State* %0, i64  0, %struct.Memory* %loadMem_4006a7)
  store %struct.Memory* %call_4006a7, %struct.Memory** %MEMORY

  ; Code: movl $0x0, 0x8(%rax)	 RIP: 4006af	 Bytes: 7
  %loadMem_4006af = load %struct.Memory*, %struct.Memory** %MEMORY
  %call_4006af = call %struct.Memory* @routine_movl__0x0__0x8__rax_(%struct.State* %0, i64  0, %struct.Memory* %loadMem_4006af)
  store %struct.Memory* %call_4006af, %struct.Memory** %MEMORY

  ; Code: movq 0x602068, %rax	 RIP: 4006b6	 Bytes: 8
  %loadMem_4006b6 = load %struct.Memory*, %struct.Memory** %MEMORY
  %call_4006b6 = call %struct.Memory* @routine_movq_0x602068___rax(%struct.State* %0, i64  0, %struct.Memory* %loadMem_4006b6)
  store %struct.Memory* %call_4006b6, %struct.Memory** %MEMORY

  ; Code: movl $0x2711, 0xc(%rax)	 RIP: 4006be	 Bytes: 7
  %loadMem_4006be = load %struct.Memory*, %struct.Memory** %MEMORY
  %call_4006be = call %struct.Memory* @routine_movl__0x2711__0xc__rax_(%struct.State* %0, i64  0, %struct.Memory* %loadMem_4006be)
  store %struct.Memory* %call_4006be, %struct.Memory** %MEMORY

  ; Code: movq 0x602068, %rax	 RIP: 4006c5	 Bytes: 8
  %loadMem_4006c5 = load %struct.Memory*, %struct.Memory** %MEMORY
  %call_4006c5 = call %struct.Memory* @routine_movq_0x602068___rax(%struct.State* %0, i64  0, %struct.Memory* %loadMem_4006c5)
  store %struct.Memory* %call_4006c5, %struct.Memory** %MEMORY

  ; Code: movl $0x28, 0x10(%rax)	 RIP: 4006cd	 Bytes: 7
  %loadMem_4006cd = load %struct.Memory*, %struct.Memory** %MEMORY
  %call_4006cd = call %struct.Memory* @routine_movl__0x28__0x10__rax_(%struct.State* %0, i64  0, %struct.Memory* %loadMem_4006cd)
  store %struct.Memory* %call_4006cd, %struct.Memory** %MEMORY

  ; Code: movq 0x602068, %rax	 RIP: 4006d4	 Bytes: 8
  %loadMem_4006d4 = load %struct.Memory*, %struct.Memory** %MEMORY
  %call_4006d4 = call %struct.Memory* @routine_movq_0x602068___rax(%struct.State* %0, i64  0, %struct.Memory* %loadMem_4006d4)
  store %struct.Memory* %call_4006d4, %struct.Memory** %MEMORY

  ; Code: addq $0x14, %rax	 RIP: 4006dc	 Bytes: 4
  %loadMem_4006dc = load %struct.Memory*, %struct.Memory** %MEMORY
  %call_4006dc = call %struct.Memory* @routine_addq__0x14___rax(%struct.State* %0, i64  0, %struct.Memory* %loadMem_4006dc)
  store %struct.Memory* %call_4006dc, %struct.Memory** %MEMORY

  ; Code: movl $0x400e74, %ecx	 RIP: 4006e0	 Bytes: 5
  %loadMem_4006e0 = load %struct.Memory*, %struct.Memory** %MEMORY
  %call_4006e0 = call %struct.Memory* @routine_movl__0x400e74___ecx(%struct.State* %0, i64  0, %struct.Memory* %loadMem_4006e0)
  store %struct.Memory* %call_4006e0, %struct.Memory** %MEMORY

  ; Code: movl %ecx, %esi	 RIP: 4006e5	 Bytes: 2
  %loadMem_4006e5 = load %struct.Memory*, %struct.Memory** %MEMORY
  %call_4006e5 = call %struct.Memory* @routine_movl__ecx___esi(%struct.State* %0, i64  0, %struct.Memory* %loadMem_4006e5)
  store %struct.Memory* %call_4006e5, %struct.Memory** %MEMORY

  ; Code: movq %rdi, -0x88(%rbp)	 RIP: 4006e7	 Bytes: 7
  %loadMem_4006e7 = load %struct.Memory*, %struct.Memory** %MEMORY
  %call_4006e7 = call %struct.Memory* @routine_movq__rdi__MINUS0x88__rbp_(%struct.State* %0, i64  0, %struct.Memory* %loadMem_4006e7)
  store %struct.Memory* %call_4006e7, %struct.Memory** %MEMORY

  ; Code: movq %rax, %rdi	 RIP: 4006ee	 Bytes: 3
  %loadMem_4006ee = load %struct.Memory*, %struct.Memory** %MEMORY
  %call_4006ee = call %struct.Memory* @routine_movq__rax___rdi(%struct.State* %0, i64  0, %struct.Memory* %loadMem_4006ee)
  store %struct.Memory* %call_4006ee, %struct.Memory** %MEMORY

  ; Code: callq .strcpy_plt	 RIP: 4006f1	 Bytes: 5
  %loadMem1_4006f1 = load %struct.Memory*, %struct.Memory** %MEMORY
  %call1_4006f1 = call %struct.Memory* @routine_callq_.strcpy_plt(%struct.State* %0, i64  0, %struct.Memory* %loadMem1_4006f1, i64 -561, i64 5, i64 5)
  store %struct.Memory* %call1_4006f1, %struct.Memory** %MEMORY

  %loadMem2_4006f1 = load %struct.Memory*, %struct.Memory** %MEMORY
  %loadPC_4006f1 = load i64, i64* %3
  %call2_4006f1 = call %struct.Memory* @sub_4004c0.strcpy_plt(%struct.State* %0, i64  %loadPC_4006f1, %struct.Memory* %loadMem2_4006f1)
  store %struct.Memory* %call2_4006f1, %struct.Memory** %MEMORY

  ; Code: movl $0x400e93, %ecx	 RIP: 4006f6	 Bytes: 5
  %loadMem_4006f6 = load %struct.Memory*, %struct.Memory** %MEMORY
  %call_4006f6 = call %struct.Memory* @routine_movl__0x400e93___ecx(%struct.State* %0, i64  0, %struct.Memory* %loadMem_4006f6)
  store %struct.Memory* %call_4006f6, %struct.Memory** %MEMORY

  ; Code: movl %ecx, %esi	 RIP: 4006fb	 Bytes: 2
  %loadMem_4006fb = load %struct.Memory*, %struct.Memory** %MEMORY
  %call_4006fb = call %struct.Memory* @routine_movl__ecx___esi(%struct.State* %0, i64  0, %struct.Memory* %loadMem_4006fb)
  store %struct.Memory* %call_4006fb, %struct.Memory** %MEMORY

  ; Code: movq -0x88(%rbp), %rdi	 RIP: 4006fd	 Bytes: 7
  %loadMem_4006fd = load %struct.Memory*, %struct.Memory** %MEMORY
  %call_4006fd = call %struct.Memory* @routine_movq_MINUS0x88__rbp____rdi(%struct.State* %0, i64  0, %struct.Memory* %loadMem_4006fd)
  store %struct.Memory* %call_4006fd, %struct.Memory** %MEMORY

  ; Code: movq %rax, -0x90(%rbp)	 RIP: 400704	 Bytes: 7
  %loadMem_400704 = load %struct.Memory*, %struct.Memory** %MEMORY
  %call_400704 = call %struct.Memory* @routine_movq__rax__MINUS0x90__rbp_(%struct.State* %0, i64  0, %struct.Memory* %loadMem_400704)
  store %struct.Memory* %call_400704, %struct.Memory** %MEMORY

  ; Code: callq .strcpy_plt	 RIP: 40070b	 Bytes: 5
  %loadMem1_40070b = load %struct.Memory*, %struct.Memory** %MEMORY
  %call1_40070b = call %struct.Memory* @routine_callq_.strcpy_plt(%struct.State* %0, i64  0, %struct.Memory* %loadMem1_40070b, i64 -587, i64 5, i64 5)
  store %struct.Memory* %call1_40070b, %struct.Memory** %MEMORY

  %loadMem2_40070b = load %struct.Memory*, %struct.Memory** %MEMORY
  %loadPC_40070b = load i64, i64* %3
  %call2_40070b = call %struct.Memory* @sub_4004c0.strcpy_plt(%struct.State* %0, i64  %loadPC_40070b, %struct.Memory* %loadMem2_40070b)
  store %struct.Memory* %call2_40070b, %struct.Memory** %MEMORY

  ; Code: movl $0xa, 0x6026ec	 RIP: 400710	 Bytes: 11
  %loadMem_400710 = load %struct.Memory*, %struct.Memory** %MEMORY
  %call_400710 = call %struct.Memory* @routine_movl__0xa__0x6026ec(%struct.State* %0, i64  0, %struct.Memory* %loadMem_400710)
  store %struct.Memory* %call_400710, %struct.Memory** %MEMORY

  ; Code: movq %rax, -0x98(%rbp)	 RIP: 40071b	 Bytes: 7
  %loadMem_40071b = load %struct.Memory*, %struct.Memory** %MEMORY
  %call_40071b = call %struct.Memory* @routine_movq__rax__MINUS0x98__rbp_(%struct.State* %0, i64  0, %struct.Memory* %loadMem_40071b)
  store %struct.Memory* %call_40071b, %struct.Memory** %MEMORY

  ; Code: callq .clock_plt	 RIP: 400722	 Bytes: 5
  %loadMem1_400722 = load %struct.Memory*, %struct.Memory** %MEMORY
  %call1_400722 = call %struct.Memory* @routine_callq_.clock_plt(%struct.State* %0, i64  0, %struct.Memory* %loadMem1_400722, i64 -594, i64 5, i64 5)
  store %struct.Memory* %call1_400722, %struct.Memory** %MEMORY

  %loadMem2_400722 = load %struct.Memory*, %struct.Memory** %MEMORY
  %loadPC_400722 = load i64, i64* %3
  %call2_400722 = call %struct.Memory* @sub_4004d0.clock_plt(%struct.State* %0, i64  %loadPC_400722, %struct.Memory* %loadMem2_400722)
  store %struct.Memory* %call2_400722, %struct.Memory** %MEMORY

  ; Code: movq %rax, -0x70(%rbp)	 RIP: 400727	 Bytes: 4
  %loadMem_400727 = load %struct.Memory*, %struct.Memory** %MEMORY
  %call_400727 = call %struct.Memory* @routine_movq__rax__MINUS0x70__rbp_(%struct.State* %0, i64  0, %struct.Memory* %loadMem_400727)
  store %struct.Memory* %call_400727, %struct.Memory** %MEMORY

  ; Code: movl $0x0, -0x64(%rbp)	 RIP: 40072b	 Bytes: 7
  %loadMem_40072b = load %struct.Memory*, %struct.Memory** %MEMORY
  %call_40072b = call %struct.Memory* @routine_movl__0x0__MINUS0x64__rbp_(%struct.State* %0, i64  0, %struct.Memory* %loadMem_40072b)
  store %struct.Memory* %call_40072b, %struct.Memory** %MEMORY

  ; Code: .L_400732:	 RIP: 400732	 Bytes: 0
  br label %block_.L_400732
block_.L_400732:

  ; Code: cmpl $0x5f5e100, -0x64(%rbp)	 RIP: 400732	 Bytes: 7
  %loadMem_400732 = load %struct.Memory*, %struct.Memory** %MEMORY
  %call_400732 = call %struct.Memory* @routine_cmpl__0x5f5e100__MINUS0x64__rbp_(%struct.State* %0, i64  0, %struct.Memory* %loadMem_400732)
  store %struct.Memory* %call_400732, %struct.Memory** %MEMORY

  ; Code: jae .L_4008d4	 RIP: 400739	 Bytes: 6
  %loadMem_400739 = load %struct.Memory*, %struct.Memory** %MEMORY
  %call_400739 = call %struct.Memory* @routine_jae_.L_4008d4(%struct.State* %0, i64  0, %struct.Memory* %loadMem_400739, i8* %BRANCH_TAKEN, i64 411, i64 6, i64 6)
  store %struct.Memory* %call_400739, %struct.Memory** %MEMORY

  %loadBr_400739 = load i8, i8* %BRANCH_TAKEN
  %cmpBr_400739 = icmp eq i8 %loadBr_400739, 1
  br i1 %cmpBr_400739, label %block_.L_4008d4, label %block_40073f

block_40073f:
  ; Code: callq .Proc5	 RIP: 40073f	 Bytes: 5
  %loadMem1_40073f = load %struct.Memory*, %struct.Memory** %MEMORY
  %call1_40073f = call %struct.Memory* @routine_callq_.Proc5(%struct.State* %0, i64  0, %struct.Memory* %loadMem1_40073f, i64 417, i64 5, i64 5)
  store %struct.Memory* %call1_40073f, %struct.Memory** %MEMORY

  %loadMem2_40073f = load %struct.Memory*, %struct.Memory** %MEMORY
  %loadPC_40073f = load i64, i64* %3
  %call2_40073f = call %struct.Memory* @sub_4008e0.Proc5(%struct.State* %0, i64  %loadPC_40073f, %struct.Memory* %loadMem2_40073f)
  store %struct.Memory* %call2_40073f, %struct.Memory** %MEMORY

  ; Code: movl %eax, -0x9c(%rbp)	 RIP: 400744	 Bytes: 6
  %loadMem_400744 = load %struct.Memory*, %struct.Memory** %MEMORY
  %call_400744 = call %struct.Memory* @routine_movl__eax__MINUS0x9c__rbp_(%struct.State* %0, i64  0, %struct.Memory* %loadMem_400744)
  store %struct.Memory* %call_400744, %struct.Memory** %MEMORY

  ; Code: callq .Proc4	 RIP: 40074a	 Bytes: 5
  %loadMem1_40074a = load %struct.Memory*, %struct.Memory** %MEMORY
  %call1_40074a = call %struct.Memory* @routine_callq_.Proc4(%struct.State* %0, i64  0, %struct.Memory* %loadMem1_40074a, i64 438, i64 5, i64 5)
  store %struct.Memory* %call1_40074a, %struct.Memory** %MEMORY

  %loadMem2_40074a = load %struct.Memory*, %struct.Memory** %MEMORY
  %loadPC_40074a = load i64, i64* %3
  %call2_40074a = call %struct.Memory* @sub_400900.Proc4(%struct.State* %0, i64  %loadPC_40074a, %struct.Memory* %loadMem2_40074a)
  store %struct.Memory* %call2_40074a, %struct.Memory** %MEMORY

  ; Code: leaq -0x60(%rbp), %rcx	 RIP: 40074f	 Bytes: 4
  %loadMem_40074f = load %struct.Memory*, %struct.Memory** %MEMORY
  %call_40074f = call %struct.Memory* @routine_leaq_MINUS0x60__rbp____rcx(%struct.State* %0, i64  0, %struct.Memory* %loadMem_40074f)
  store %struct.Memory* %call_40074f, %struct.Memory** %MEMORY

  ; Code: leaq -0x40(%rbp), %rdi	 RIP: 400753	 Bytes: 4
  %loadMem_400753 = load %struct.Memory*, %struct.Memory** %MEMORY
  %call_400753 = call %struct.Memory* @routine_leaq_MINUS0x40__rbp____rdi(%struct.State* %0, i64  0, %struct.Memory* %loadMem_400753)
  store %struct.Memory* %call_400753, %struct.Memory** %MEMORY

  ; Code: movl $0x2, -0x8(%rbp)	 RIP: 400757	 Bytes: 7
  %loadMem_400757 = load %struct.Memory*, %struct.Memory** %MEMORY
  %call_400757 = call %struct.Memory* @routine_movl__0x2__MINUS0x8__rbp_(%struct.State* %0, i64  0, %struct.Memory* %loadMem_400757)
  store %struct.Memory* %call_400757, %struct.Memory** %MEMORY

  ; Code: movl $0x3, -0xc(%rbp)	 RIP: 40075e	 Bytes: 7
  %loadMem_40075e = load %struct.Memory*, %struct.Memory** %MEMORY
  %call_40075e = call %struct.Memory* @routine_movl__0x3__MINUS0xc__rbp_(%struct.State* %0, i64  0, %struct.Memory* %loadMem_40075e)
  store %struct.Memory* %call_40075e, %struct.Memory** %MEMORY

  ; Code: movl $0x400eb2, %edx	 RIP: 400765	 Bytes: 5
  %loadMem_400765 = load %struct.Memory*, %struct.Memory** %MEMORY
  %call_400765 = call %struct.Memory* @routine_movl__0x400eb2___edx(%struct.State* %0, i64  0, %struct.Memory* %loadMem_400765)
  store %struct.Memory* %call_400765, %struct.Memory** %MEMORY

  ; Code: movl %edx, %esi	 RIP: 40076a	 Bytes: 2
  %loadMem_40076a = load %struct.Memory*, %struct.Memory** %MEMORY
  %call_40076a = call %struct.Memory* @routine_movl__edx___esi(%struct.State* %0, i64  0, %struct.Memory* %loadMem_40076a)
  store %struct.Memory* %call_40076a, %struct.Memory** %MEMORY

  ; Code: movq %rdi, -0xa8(%rbp)	 RIP: 40076c	 Bytes: 7
  %loadMem_40076c = load %struct.Memory*, %struct.Memory** %MEMORY
  %call_40076c = call %struct.Memory* @routine_movq__rdi__MINUS0xa8__rbp_(%struct.State* %0, i64  0, %struct.Memory* %loadMem_40076c)
  store %struct.Memory* %call_40076c, %struct.Memory** %MEMORY

  ; Code: movq %rcx, %rdi	 RIP: 400773	 Bytes: 3
  %loadMem_400773 = load %struct.Memory*, %struct.Memory** %MEMORY
  %call_400773 = call %struct.Memory* @routine_movq__rcx___rdi(%struct.State* %0, i64  0, %struct.Memory* %loadMem_400773)
  store %struct.Memory* %call_400773, %struct.Memory** %MEMORY

  ; Code: movl %eax, -0xac(%rbp)	 RIP: 400776	 Bytes: 6
  %loadMem_400776 = load %struct.Memory*, %struct.Memory** %MEMORY
  %call_400776 = call %struct.Memory* @routine_movl__eax__MINUS0xac__rbp_(%struct.State* %0, i64  0, %struct.Memory* %loadMem_400776)
  store %struct.Memory* %call_400776, %struct.Memory** %MEMORY

  ; Code: movq %rcx, -0xb8(%rbp)	 RIP: 40077c	 Bytes: 7
  %loadMem_40077c = load %struct.Memory*, %struct.Memory** %MEMORY
  %call_40077c = call %struct.Memory* @routine_movq__rcx__MINUS0xb8__rbp_(%struct.State* %0, i64  0, %struct.Memory* %loadMem_40077c)
  store %struct.Memory* %call_40077c, %struct.Memory** %MEMORY

  ; Code: callq .strcpy_plt	 RIP: 400783	 Bytes: 5
  %loadMem1_400783 = load %struct.Memory*, %struct.Memory** %MEMORY
  %call1_400783 = call %struct.Memory* @routine_callq_.strcpy_plt(%struct.State* %0, i64  0, %struct.Memory* %loadMem1_400783, i64 -707, i64 5, i64 5)
  store %struct.Memory* %call1_400783, %struct.Memory** %MEMORY

  %loadMem2_400783 = load %struct.Memory*, %struct.Memory** %MEMORY
  %loadPC_400783 = load i64, i64* %3
  %call2_400783 = call %struct.Memory* @sub_4004c0.strcpy_plt(%struct.State* %0, i64  %loadPC_400783, %struct.Memory* %loadMem2_400783)
  store %struct.Memory* %call2_400783, %struct.Memory** %MEMORY

  ; Code: movl $0x2710, -0x18(%rbp)	 RIP: 400788	 Bytes: 7
  %loadMem_400788 = load %struct.Memory*, %struct.Memory** %MEMORY
  %call_400788 = call %struct.Memory* @routine_movl__0x2710__MINUS0x18__rbp_(%struct.State* %0, i64  0, %struct.Memory* %loadMem_400788)
  store %struct.Memory* %call_400788, %struct.Memory** %MEMORY

  ; Code: movq -0xa8(%rbp), %rdi	 RIP: 40078f	 Bytes: 7
  %loadMem_40078f = load %struct.Memory*, %struct.Memory** %MEMORY
  %call_40078f = call %struct.Memory* @routine_movq_MINUS0xa8__rbp____rdi(%struct.State* %0, i64  0, %struct.Memory* %loadMem_40078f)
  store %struct.Memory* %call_40078f, %struct.Memory** %MEMORY

  ; Code: movq -0xb8(%rbp), %rsi	 RIP: 400796	 Bytes: 7
  %loadMem_400796 = load %struct.Memory*, %struct.Memory** %MEMORY
  %call_400796 = call %struct.Memory* @routine_movq_MINUS0xb8__rbp____rsi(%struct.State* %0, i64  0, %struct.Memory* %loadMem_400796)
  store %struct.Memory* %call_400796, %struct.Memory** %MEMORY

  ; Code: movq %rax, -0xc0(%rbp)	 RIP: 40079d	 Bytes: 7
  %loadMem_40079d = load %struct.Memory*, %struct.Memory** %MEMORY
  %call_40079d = call %struct.Memory* @routine_movq__rax__MINUS0xc0__rbp_(%struct.State* %0, i64  0, %struct.Memory* %loadMem_40079d)
  store %struct.Memory* %call_40079d, %struct.Memory** %MEMORY

  ; Code: callq .Func2	 RIP: 4007a4	 Bytes: 5
  %loadMem1_4007a4 = load %struct.Memory*, %struct.Memory** %MEMORY
  %call1_4007a4 = call %struct.Memory* @routine_callq_.Func2(%struct.State* %0, i64  0, %struct.Memory* %loadMem1_4007a4, i64 412, i64 5, i64 5)
  store %struct.Memory* %call1_4007a4, %struct.Memory** %MEMORY

  %loadMem2_4007a4 = load %struct.Memory*, %struct.Memory** %MEMORY
  %loadPC_4007a4 = load i64, i64* %3
  %call2_4007a4 = call %struct.Memory* @sub_400940.Func2(%struct.State* %0, i64  %loadPC_4007a4, %struct.Memory* %loadMem2_4007a4)
  store %struct.Memory* %call2_4007a4, %struct.Memory** %MEMORY

  ; Code: cmpl $0x0, %eax	 RIP: 4007a9	 Bytes: 3
  %loadMem_4007a9 = load %struct.Memory*, %struct.Memory** %MEMORY
  %call_4007a9 = call %struct.Memory* @routine_cmpl__0x0___eax(%struct.State* %0, i64  0, %struct.Memory* %loadMem_4007a9)
  store %struct.Memory* %call_4007a9, %struct.Memory** %MEMORY

  ; Code: setne %r8b	 RIP: 4007ac	 Bytes: 4
  %loadMem_4007ac = load %struct.Memory*, %struct.Memory** %MEMORY
  %call_4007ac = call %struct.Memory* @routine_setne__r8b(%struct.State* %0, i64  0, %struct.Memory* %loadMem_4007ac)
  store %struct.Memory* %call_4007ac, %struct.Memory** %MEMORY

  ; Code: xorb $0xff, %r8b	 RIP: 4007b0	 Bytes: 4
  %loadMem_4007b0 = load %struct.Memory*, %struct.Memory** %MEMORY
  %call_4007b0 = call %struct.Memory* @routine_xorb__0xff___r8b(%struct.State* %0, i64  0, %struct.Memory* %loadMem_4007b0)
  store %struct.Memory* %call_4007b0, %struct.Memory** %MEMORY

  ; Code: andb $0x1, %r8b	 RIP: 4007b4	 Bytes: 4
  %loadMem_4007b4 = load %struct.Memory*, %struct.Memory** %MEMORY
  %call_4007b4 = call %struct.Memory* @routine_andb__0x1___r8b(%struct.State* %0, i64  0, %struct.Memory* %loadMem_4007b4)
  store %struct.Memory* %call_4007b4, %struct.Memory** %MEMORY

  ; Code: movzbl %r8b, %eax	 RIP: 4007b8	 Bytes: 4
  %loadMem_4007b8 = load %struct.Memory*, %struct.Memory** %MEMORY
  %call_4007b8 = call %struct.Memory* @routine_movzbl__r8b___eax(%struct.State* %0, i64  0, %struct.Memory* %loadMem_4007b8)
  store %struct.Memory* %call_4007b8, %struct.Memory** %MEMORY

  ; Code: movl %eax, 0x6049f0	 RIP: 4007bc	 Bytes: 7
  %loadMem_4007bc = load %struct.Memory*, %struct.Memory** %MEMORY
  %call_4007bc = call %struct.Memory* @routine_movl__eax__0x6049f0(%struct.State* %0, i64  0, %struct.Memory* %loadMem_4007bc)
  store %struct.Memory* %call_4007bc, %struct.Memory** %MEMORY

  ; Code: .L_4007c3:	 RIP: 4007c3	 Bytes: 0
  br label %block_.L_4007c3
block_.L_4007c3:

  ; Code: movl -0x8(%rbp), %eax	 RIP: 4007c3	 Bytes: 3
  %loadMem_4007c3 = load %struct.Memory*, %struct.Memory** %MEMORY
  %call_4007c3 = call %struct.Memory* @routine_movl_MINUS0x8__rbp____eax(%struct.State* %0, i64  0, %struct.Memory* %loadMem_4007c3)
  store %struct.Memory* %call_4007c3, %struct.Memory** %MEMORY

  ; Code: cmpl -0xc(%rbp), %eax	 RIP: 4007c6	 Bytes: 3
  %loadMem_4007c6 = load %struct.Memory*, %struct.Memory** %MEMORY
  %call_4007c6 = call %struct.Memory* @routine_cmpl_MINUS0xc__rbp____eax(%struct.State* %0, i64  0, %struct.Memory* %loadMem_4007c6)
  store %struct.Memory* %call_4007c6, %struct.Memory** %MEMORY

  ; Code: jge .L_4007fc	 RIP: 4007c9	 Bytes: 6
  %loadMem_4007c9 = load %struct.Memory*, %struct.Memory** %MEMORY
  %call_4007c9 = call %struct.Memory* @routine_jge_.L_4007fc(%struct.State* %0, i64  0, %struct.Memory* %loadMem_4007c9, i8* %BRANCH_TAKEN, i64 51, i64 6, i64 6)
  store %struct.Memory* %call_4007c9, %struct.Memory** %MEMORY

  %loadBr_4007c9 = load i8, i8* %BRANCH_TAKEN
  %cmpBr_4007c9 = icmp eq i8 %loadBr_4007c9, 1
  br i1 %cmpBr_4007c9, label %block_.L_4007fc, label %block_4007cf

block_4007cf:
  ; Code: leaq -0x10(%rbp), %rdx	 RIP: 4007cf	 Bytes: 4
  %loadMem_4007cf = load %struct.Memory*, %struct.Memory** %MEMORY
  %call_4007cf = call %struct.Memory* @routine_leaq_MINUS0x10__rbp____rdx(%struct.State* %0, i64  0, %struct.Memory* %loadMem_4007cf)
  store %struct.Memory* %call_4007cf, %struct.Memory** %MEMORY

  ; Code: imull $0x5, -0x8(%rbp), %eax	 RIP: 4007d3	 Bytes: 4
  %loadMem_4007d3 = load %struct.Memory*, %struct.Memory** %MEMORY
  %call_4007d3 = call %struct.Memory* @routine_imull__0x5__MINUS0x8__rbp____eax(%struct.State* %0, i64  0, %struct.Memory* %loadMem_4007d3)
  store %struct.Memory* %call_4007d3, %struct.Memory** %MEMORY

  ; Code: subl -0xc(%rbp), %eax	 RIP: 4007d7	 Bytes: 3
  %loadMem_4007d7 = load %struct.Memory*, %struct.Memory** %MEMORY
  %call_4007d7 = call %struct.Memory* @routine_subl_MINUS0xc__rbp____eax(%struct.State* %0, i64  0, %struct.Memory* %loadMem_4007d7)
  store %struct.Memory* %call_4007d7, %struct.Memory** %MEMORY

  ; Code: movl %eax, -0x10(%rbp)	 RIP: 4007da	 Bytes: 3
  %loadMem_4007da = load %struct.Memory*, %struct.Memory** %MEMORY
  %call_4007da = call %struct.Memory* @routine_movl__eax__MINUS0x10__rbp_(%struct.State* %0, i64  0, %struct.Memory* %loadMem_4007da)
  store %struct.Memory* %call_4007da, %struct.Memory** %MEMORY

  ; Code: movl -0x8(%rbp), %edi	 RIP: 4007dd	 Bytes: 3
  %loadMem_4007dd = load %struct.Memory*, %struct.Memory** %MEMORY
  %call_4007dd = call %struct.Memory* @routine_movl_MINUS0x8__rbp____edi(%struct.State* %0, i64  0, %struct.Memory* %loadMem_4007dd)
  store %struct.Memory* %call_4007dd, %struct.Memory** %MEMORY

  ; Code: movl -0xc(%rbp), %esi	 RIP: 4007e0	 Bytes: 3
  %loadMem_4007e0 = load %struct.Memory*, %struct.Memory** %MEMORY
  %call_4007e0 = call %struct.Memory* @routine_movl_MINUS0xc__rbp____esi(%struct.State* %0, i64  0, %struct.Memory* %loadMem_4007e0)
  store %struct.Memory* %call_4007e0, %struct.Memory** %MEMORY

  ; Code: callq .Proc7	 RIP: 4007e3	 Bytes: 5
  %loadMem1_4007e3 = load %struct.Memory*, %struct.Memory** %MEMORY
  %call1_4007e3 = call %struct.Memory* @routine_callq_.Proc7(%struct.State* %0, i64  0, %struct.Memory* %loadMem1_4007e3, i64 573, i64 5, i64 5)
  store %struct.Memory* %call1_4007e3, %struct.Memory** %MEMORY

  %loadMem2_4007e3 = load %struct.Memory*, %struct.Memory** %MEMORY
  %loadPC_4007e3 = load i64, i64* %3
  %call2_4007e3 = call %struct.Memory* @sub_400a20.Proc7(%struct.State* %0, i64  %loadPC_4007e3, %struct.Memory* %loadMem2_4007e3)
  store %struct.Memory* %call2_4007e3, %struct.Memory** %MEMORY

  ; Code: movl -0x8(%rbp), %esi	 RIP: 4007e8	 Bytes: 3
  %loadMem_4007e8 = load %struct.Memory*, %struct.Memory** %MEMORY
  %call_4007e8 = call %struct.Memory* @routine_movl_MINUS0x8__rbp____esi(%struct.State* %0, i64  0, %struct.Memory* %loadMem_4007e8)
  store %struct.Memory* %call_4007e8, %struct.Memory** %MEMORY

  ; Code: addl $0x1, %esi	 RIP: 4007eb	 Bytes: 3
  %loadMem_4007eb = load %struct.Memory*, %struct.Memory** %MEMORY
  %call_4007eb = call %struct.Memory* @routine_addl__0x1___esi(%struct.State* %0, i64  0, %struct.Memory* %loadMem_4007eb)
  store %struct.Memory* %call_4007eb, %struct.Memory** %MEMORY

  ; Code: movl %esi, -0x8(%rbp)	 RIP: 4007ee	 Bytes: 3
  %loadMem_4007ee = load %struct.Memory*, %struct.Memory** %MEMORY
  %call_4007ee = call %struct.Memory* @routine_movl__esi__MINUS0x8__rbp_(%struct.State* %0, i64  0, %struct.Memory* %loadMem_4007ee)
  store %struct.Memory* %call_4007ee, %struct.Memory** %MEMORY

  ; Code: movl %eax, -0xc4(%rbp)	 RIP: 4007f1	 Bytes: 6
  %loadMem_4007f1 = load %struct.Memory*, %struct.Memory** %MEMORY
  %call_4007f1 = call %struct.Memory* @routine_movl__eax__MINUS0xc4__rbp_(%struct.State* %0, i64  0, %struct.Memory* %loadMem_4007f1)
  store %struct.Memory* %call_4007f1, %struct.Memory** %MEMORY

  ; Code: jmpq .L_4007c3	 RIP: 4007f7	 Bytes: 5
  %loadMem_4007f7 = load %struct.Memory*, %struct.Memory** %MEMORY
  %call_4007f7 = call %struct.Memory* @routine_jmpq_.L_4007c3(%struct.State* %0, i64  0, %struct.Memory* %loadMem_4007f7, i64 -52, i64 5)
  store %struct.Memory* %call_4007f7, %struct.Memory** %MEMORY

  br label %block_.L_4007c3

  ; Code: .L_4007fc:	 RIP: 4007fc	 Bytes: 0
block_.L_4007fc:

  ; Code: movq $0x604920, %rdi	 RIP: 4007fc	 Bytes: 10
  %loadMem_4007fc = load %struct.Memory*, %struct.Memory** %MEMORY
  %call_4007fc = call %struct.Memory* @routine_movq__0x604920___rdi(%struct.State* %0, i64  0, %struct.Memory* %loadMem_4007fc)
  store %struct.Memory* %call_4007fc, %struct.Memory** %MEMORY

  ; Code: movq $0x602070, %rsi	 RIP: 400806	 Bytes: 10
  %loadMem_400806 = load %struct.Memory*, %struct.Memory** %MEMORY
  %call_400806 = call %struct.Memory* @routine_movq__0x602070___rsi(%struct.State* %0, i64  0, %struct.Memory* %loadMem_400806)
  store %struct.Memory* %call_400806, %struct.Memory** %MEMORY

  ; Code: movl -0x8(%rbp), %edx	 RIP: 400810	 Bytes: 3
  %loadMem_400810 = load %struct.Memory*, %struct.Memory** %MEMORY
  %call_400810 = call %struct.Memory* @routine_movl_MINUS0x8__rbp____edx(%struct.State* %0, i64  0, %struct.Memory* %loadMem_400810)
  store %struct.Memory* %call_400810, %struct.Memory** %MEMORY

  ; Code: movl -0x10(%rbp), %ecx	 RIP: 400813	 Bytes: 3
  %loadMem_400813 = load %struct.Memory*, %struct.Memory** %MEMORY
  %call_400813 = call %struct.Memory* @routine_movl_MINUS0x10__rbp____ecx(%struct.State* %0, i64  0, %struct.Memory* %loadMem_400813)
  store %struct.Memory* %call_400813, %struct.Memory** %MEMORY

  ; Code: callq .Proc8	 RIP: 400816	 Bytes: 5
  %loadMem1_400816 = load %struct.Memory*, %struct.Memory** %MEMORY
  %call1_400816 = call %struct.Memory* @routine_callq_.Proc8(%struct.State* %0, i64  0, %struct.Memory* %loadMem1_400816, i64 570, i64 5, i64 5)
  store %struct.Memory* %call1_400816, %struct.Memory** %MEMORY

  %loadMem2_400816 = load %struct.Memory*, %struct.Memory** %MEMORY
  %loadPC_400816 = load i64, i64* %3
  %call2_400816 = call %struct.Memory* @sub_400a50.Proc8(%struct.State* %0, i64  %loadPC_400816, %struct.Memory* %loadMem2_400816)
  store %struct.Memory* %call2_400816, %struct.Memory** %MEMORY

  ; Code: movq 0x602068, %rdi	 RIP: 40081b	 Bytes: 8
  %loadMem_40081b = load %struct.Memory*, %struct.Memory** %MEMORY
  %call_40081b = call %struct.Memory* @routine_movq_0x602068___rdi(%struct.State* %0, i64  0, %struct.Memory* %loadMem_40081b)
  store %struct.Memory* %call_40081b, %struct.Memory** %MEMORY

  ; Code: movl %eax, -0xc8(%rbp)	 RIP: 400823	 Bytes: 6
  %loadMem_400823 = load %struct.Memory*, %struct.Memory** %MEMORY
  %call_400823 = call %struct.Memory* @routine_movl__eax__MINUS0xc8__rbp_(%struct.State* %0, i64  0, %struct.Memory* %loadMem_400823)
  store %struct.Memory* %call_400823, %struct.Memory** %MEMORY

  ; Code: callq .Proc1	 RIP: 400829	 Bytes: 5
  %loadMem1_400829 = load %struct.Memory*, %struct.Memory** %MEMORY
  %call1_400829 = call %struct.Memory* @routine_callq_.Proc1(%struct.State* %0, i64  0, %struct.Memory* %loadMem1_400829, i64 807, i64 5, i64 5)
  store %struct.Memory* %call1_400829, %struct.Memory** %MEMORY

  %loadMem2_400829 = load %struct.Memory*, %struct.Memory** %MEMORY
  %loadPC_400829 = load i64, i64* %3
  %call2_400829 = call %struct.Memory* @sub_400b50.Proc1(%struct.State* %0, i64  %loadPC_400829, %struct.Memory* %loadMem2_400829)
  store %struct.Memory* %call2_400829, %struct.Memory** %MEMORY

  ; Code: movb $0x41, -0x12(%rbp)	 RIP: 40082e	 Bytes: 4
  %loadMem_40082e = load %struct.Memory*, %struct.Memory** %MEMORY
  %call_40082e = call %struct.Memory* @routine_movb__0x41__MINUS0x12__rbp_(%struct.State* %0, i64  0, %struct.Memory* %loadMem_40082e)
  store %struct.Memory* %call_40082e, %struct.Memory** %MEMORY

  ; Code: movl %eax, -0xcc(%rbp)	 RIP: 400832	 Bytes: 6
  %loadMem_400832 = load %struct.Memory*, %struct.Memory** %MEMORY
  %call_400832 = call %struct.Memory* @routine_movl__eax__MINUS0xcc__rbp_(%struct.State* %0, i64  0, %struct.Memory* %loadMem_400832)
  store %struct.Memory* %call_400832, %struct.Memory** %MEMORY

  ; Code: .L_400838:	 RIP: 400838	 Bytes: 0
  br label %block_.L_400838
block_.L_400838:

  ; Code: movsbl -0x12(%rbp), %eax	 RIP: 400838	 Bytes: 4
  %loadMem_400838 = load %struct.Memory*, %struct.Memory** %MEMORY
  %call_400838 = call %struct.Memory* @routine_movsbl_MINUS0x12__rbp____eax(%struct.State* %0, i64  0, %struct.Memory* %loadMem_400838)
  store %struct.Memory* %call_400838, %struct.Memory** %MEMORY

  ; Code: movsbl 0x6049f4, %ecx	 RIP: 40083c	 Bytes: 8
  %loadMem_40083c = load %struct.Memory*, %struct.Memory** %MEMORY
  %call_40083c = call %struct.Memory* @routine_movsbl_0x6049f4___ecx(%struct.State* %0, i64  0, %struct.Memory* %loadMem_40083c)
  store %struct.Memory* %call_40083c, %struct.Memory** %MEMORY

  ; Code: cmpl %ecx, %eax	 RIP: 400844	 Bytes: 2
  %loadMem_400844 = load %struct.Memory*, %struct.Memory** %MEMORY
  %call_400844 = call %struct.Memory* @routine_cmpl__ecx___eax(%struct.State* %0, i64  0, %struct.Memory* %loadMem_400844)
  store %struct.Memory* %call_400844, %struct.Memory** %MEMORY

  ; Code: jg .L_400894	 RIP: 400846	 Bytes: 6
  %loadMem_400846 = load %struct.Memory*, %struct.Memory** %MEMORY
  %call_400846 = call %struct.Memory* @routine_jg_.L_400894(%struct.State* %0, i64  0, %struct.Memory* %loadMem_400846, i8* %BRANCH_TAKEN, i64 78, i64 6, i64 6)
  store %struct.Memory* %call_400846, %struct.Memory** %MEMORY

  %loadBr_400846 = load i8, i8* %BRANCH_TAKEN
  %cmpBr_400846 = icmp eq i8 %loadBr_400846, 1
  br i1 %cmpBr_400846, label %block_.L_400894, label %block_40084c

block_40084c:
  ; Code: movl $0x43, %esi	 RIP: 40084c	 Bytes: 5
  %loadMem_40084c = load %struct.Memory*, %struct.Memory** %MEMORY
  %call_40084c = call %struct.Memory* @routine_movl__0x43___esi(%struct.State* %0, i64  0, %struct.Memory* %loadMem_40084c)
  store %struct.Memory* %call_40084c, %struct.Memory** %MEMORY

  ; Code: movl -0x18(%rbp), %eax	 RIP: 400851	 Bytes: 3
  %loadMem_400851 = load %struct.Memory*, %struct.Memory** %MEMORY
  %call_400851 = call %struct.Memory* @routine_movl_MINUS0x18__rbp____eax(%struct.State* %0, i64  0, %struct.Memory* %loadMem_400851)
  store %struct.Memory* %call_400851, %struct.Memory** %MEMORY

  ; Code: movsbl -0x12(%rbp), %edi	 RIP: 400854	 Bytes: 4
  %loadMem_400854 = load %struct.Memory*, %struct.Memory** %MEMORY
  %call_400854 = call %struct.Memory* @routine_movsbl_MINUS0x12__rbp____edi(%struct.State* %0, i64  0, %struct.Memory* %loadMem_400854)
  store %struct.Memory* %call_400854, %struct.Memory** %MEMORY

  ; Code: movl %eax, -0xd0(%rbp)	 RIP: 400858	 Bytes: 6
  %loadMem_400858 = load %struct.Memory*, %struct.Memory** %MEMORY
  %call_400858 = call %struct.Memory* @routine_movl__eax__MINUS0xd0__rbp_(%struct.State* %0, i64  0, %struct.Memory* %loadMem_400858)
  store %struct.Memory* %call_400858, %struct.Memory** %MEMORY

  ; Code: callq .Func1	 RIP: 40085e	 Bytes: 5
  %loadMem1_40085e = load %struct.Memory*, %struct.Memory** %MEMORY
  %call1_40085e = call %struct.Memory* @routine_callq_.Func1(%struct.State* %0, i64  0, %struct.Memory* %loadMem1_40085e, i64 818, i64 5, i64 5)
  store %struct.Memory* %call1_40085e, %struct.Memory** %MEMORY

  %loadMem2_40085e = load %struct.Memory*, %struct.Memory** %MEMORY
  %loadPC_40085e = load i64, i64* %3
  %call2_40085e = call %struct.Memory* @sub_400b90.Func1(%struct.State* %0, i64  %loadPC_40085e, %struct.Memory* %loadMem2_40085e)
  store %struct.Memory* %call2_40085e, %struct.Memory** %MEMORY

  ; Code: movl -0xd0(%rbp), %esi	 RIP: 400863	 Bytes: 6
  %loadMem_400863 = load %struct.Memory*, %struct.Memory** %MEMORY
  %call_400863 = call %struct.Memory* @routine_movl_MINUS0xd0__rbp____esi(%struct.State* %0, i64  0, %struct.Memory* %loadMem_400863)
  store %struct.Memory* %call_400863, %struct.Memory** %MEMORY

  ; Code: cmpl %eax, %esi	 RIP: 400869	 Bytes: 2
  %loadMem_400869 = load %struct.Memory*, %struct.Memory** %MEMORY
  %call_400869 = call %struct.Memory* @routine_cmpl__eax___esi(%struct.State* %0, i64  0, %struct.Memory* %loadMem_400869)
  store %struct.Memory* %call_400869, %struct.Memory** %MEMORY

  ; Code: jne .L_400882	 RIP: 40086b	 Bytes: 6
  %loadMem_40086b = load %struct.Memory*, %struct.Memory** %MEMORY
  %call_40086b = call %struct.Memory* @routine_jne_.L_400882(%struct.State* %0, i64  0, %struct.Memory* %loadMem_40086b, i8* %BRANCH_TAKEN, i64 23, i64 6, i64 6)
  store %struct.Memory* %call_40086b, %struct.Memory** %MEMORY

  %loadBr_40086b = load i8, i8* %BRANCH_TAKEN
  %cmpBr_40086b = icmp eq i8 %loadBr_40086b, 1
  br i1 %cmpBr_40086b, label %block_.L_400882, label %block_400871

block_400871:
  ; Code: xorl %edi, %edi	 RIP: 400871	 Bytes: 2
  %loadMem_400871 = load %struct.Memory*, %struct.Memory** %MEMORY
  %call_400871 = call %struct.Memory* @routine_xorl__edi___edi(%struct.State* %0, i64  0, %struct.Memory* %loadMem_400871)
  store %struct.Memory* %call_400871, %struct.Memory** %MEMORY

  ; Code: leaq -0x18(%rbp), %rsi	 RIP: 400873	 Bytes: 4
  %loadMem_400873 = load %struct.Memory*, %struct.Memory** %MEMORY
  %call_400873 = call %struct.Memory* @routine_leaq_MINUS0x18__rbp____rsi(%struct.State* %0, i64  0, %struct.Memory* %loadMem_400873)
  store %struct.Memory* %call_400873, %struct.Memory** %MEMORY

  ; Code: callq .Proc6	 RIP: 400877	 Bytes: 5
  %loadMem1_400877 = load %struct.Memory*, %struct.Memory** %MEMORY
  %call1_400877 = call %struct.Memory* @routine_callq_.Proc6(%struct.State* %0, i64  0, %struct.Memory* %loadMem1_400877, i64 873, i64 5, i64 5)
  store %struct.Memory* %call1_400877, %struct.Memory** %MEMORY

  %loadMem2_400877 = load %struct.Memory*, %struct.Memory** %MEMORY
  %loadPC_400877 = load i64, i64* %3
  %call2_400877 = call %struct.Memory* @sub_400be0.Proc6(%struct.State* %0, i64  %loadPC_400877, %struct.Memory* %loadMem2_400877)
  store %struct.Memory* %call2_400877, %struct.Memory** %MEMORY

  ; Code: movl %eax, -0xd4(%rbp)	 RIP: 40087c	 Bytes: 6
  %loadMem_40087c = load %struct.Memory*, %struct.Memory** %MEMORY
  %call_40087c = call %struct.Memory* @routine_movl__eax__MINUS0xd4__rbp_(%struct.State* %0, i64  0, %struct.Memory* %loadMem_40087c)
  store %struct.Memory* %call_40087c, %struct.Memory** %MEMORY

  ; Code: .L_400882:	 RIP: 400882	 Bytes: 0
  br label %block_.L_400882
block_.L_400882:

  ; Code: jmpq .L_400887	 RIP: 400882	 Bytes: 5
  %loadMem_400882 = load %struct.Memory*, %struct.Memory** %MEMORY
  %call_400882 = call %struct.Memory* @routine_jmpq_.L_400887(%struct.State* %0, i64  0, %struct.Memory* %loadMem_400882, i64 5, i64 5)
  store %struct.Memory* %call_400882, %struct.Memory** %MEMORY

  br label %block_.L_400887

  ; Code: .L_400887:	 RIP: 400887	 Bytes: 0
block_.L_400887:

  ; Code: movb -0x12(%rbp), %al	 RIP: 400887	 Bytes: 3
  %loadMem_400887 = load %struct.Memory*, %struct.Memory** %MEMORY
  %call_400887 = call %struct.Memory* @routine_movb_MINUS0x12__rbp____al(%struct.State* %0, i64  0, %struct.Memory* %loadMem_400887)
  store %struct.Memory* %call_400887, %struct.Memory** %MEMORY

  ; Code: addb $0x1, %al	 RIP: 40088a	 Bytes: 2
  %loadMem_40088a = load %struct.Memory*, %struct.Memory** %MEMORY
  %call_40088a = call %struct.Memory* @routine_addb__0x1___al(%struct.State* %0, i64  0, %struct.Memory* %loadMem_40088a)
  store %struct.Memory* %call_40088a, %struct.Memory** %MEMORY

  ; Code: movb %al, -0x12(%rbp)	 RIP: 40088c	 Bytes: 3
  %loadMem_40088c = load %struct.Memory*, %struct.Memory** %MEMORY
  %call_40088c = call %struct.Memory* @routine_movb__al__MINUS0x12__rbp_(%struct.State* %0, i64  0, %struct.Memory* %loadMem_40088c)
  store %struct.Memory* %call_40088c, %struct.Memory** %MEMORY

  ; Code: jmpq .L_400838	 RIP: 40088f	 Bytes: 5
  %loadMem_40088f = load %struct.Memory*, %struct.Memory** %MEMORY
  %call_40088f = call %struct.Memory* @routine_jmpq_.L_400838(%struct.State* %0, i64  0, %struct.Memory* %loadMem_40088f, i64 -87, i64 5)
  store %struct.Memory* %call_40088f, %struct.Memory** %MEMORY

  br label %block_.L_400838

  ; Code: .L_400894:	 RIP: 400894	 Bytes: 0
block_.L_400894:

  ; Code: leaq -0x8(%rbp), %rdi	 RIP: 400894	 Bytes: 4
  %loadMem_400894 = load %struct.Memory*, %struct.Memory** %MEMORY
  %call_400894 = call %struct.Memory* @routine_leaq_MINUS0x8__rbp____rdi(%struct.State* %0, i64  0, %struct.Memory* %loadMem_400894)
  store %struct.Memory* %call_400894, %struct.Memory** %MEMORY

  ; Code: movl -0xc(%rbp), %eax	 RIP: 400898	 Bytes: 3
  %loadMem_400898 = load %struct.Memory*, %struct.Memory** %MEMORY
  %call_400898 = call %struct.Memory* @routine_movl_MINUS0xc__rbp____eax(%struct.State* %0, i64  0, %struct.Memory* %loadMem_400898)
  store %struct.Memory* %call_400898, %struct.Memory** %MEMORY

  ; Code: imull -0x8(%rbp), %eax	 RIP: 40089b	 Bytes: 4
  %loadMem_40089b = load %struct.Memory*, %struct.Memory** %MEMORY
  %call_40089b = call %struct.Memory* @routine_imull_MINUS0x8__rbp____eax(%struct.State* %0, i64  0, %struct.Memory* %loadMem_40089b)
  store %struct.Memory* %call_40089b, %struct.Memory** %MEMORY

  ; Code: movl %eax, -0x10(%rbp)	 RIP: 40089f	 Bytes: 3
  %loadMem_40089f = load %struct.Memory*, %struct.Memory** %MEMORY
  %call_40089f = call %struct.Memory* @routine_movl__eax__MINUS0x10__rbp_(%struct.State* %0, i64  0, %struct.Memory* %loadMem_40089f)
  store %struct.Memory* %call_40089f, %struct.Memory** %MEMORY

  ; Code: movl -0x10(%rbp), %eax	 RIP: 4008a2	 Bytes: 3
  %loadMem_4008a2 = load %struct.Memory*, %struct.Memory** %MEMORY
  %call_4008a2 = call %struct.Memory* @routine_movl_MINUS0x10__rbp____eax(%struct.State* %0, i64  0, %struct.Memory* %loadMem_4008a2)
  store %struct.Memory* %call_4008a2, %struct.Memory** %MEMORY

  ; Code: cltd	 RIP: 4008a5	 Bytes: 1
  %loadMem_4008a5 = load %struct.Memory*, %struct.Memory** %MEMORY
  %call_4008a5 = call %struct.Memory* @routine_cltd(%struct.State* %0, i64  0, %struct.Memory* %loadMem_4008a5)
  store %struct.Memory* %call_4008a5, %struct.Memory** %MEMORY

  ; Code: idivl -0x8(%rbp)	 RIP: 4008a6	 Bytes: 3
  %loadMem_4008a6 = load %struct.Memory*, %struct.Memory** %MEMORY
  %call_4008a6 = call %struct.Memory* @routine_idivl_MINUS0x8__rbp_(%struct.State* %0, i64  0, %struct.Memory* %loadMem_4008a6)
  store %struct.Memory* %call_4008a6, %struct.Memory** %MEMORY

  ; Code: movl %eax, -0xc(%rbp)	 RIP: 4008a9	 Bytes: 3
  %loadMem_4008a9 = load %struct.Memory*, %struct.Memory** %MEMORY
  %call_4008a9 = call %struct.Memory* @routine_movl__eax__MINUS0xc__rbp_(%struct.State* %0, i64  0, %struct.Memory* %loadMem_4008a9)
  store %struct.Memory* %call_4008a9, %struct.Memory** %MEMORY

  ; Code: movl -0x10(%rbp), %eax	 RIP: 4008ac	 Bytes: 3
  %loadMem_4008ac = load %struct.Memory*, %struct.Memory** %MEMORY
  %call_4008ac = call %struct.Memory* @routine_movl_MINUS0x10__rbp____eax(%struct.State* %0, i64  0, %struct.Memory* %loadMem_4008ac)
  store %struct.Memory* %call_4008ac, %struct.Memory** %MEMORY

  ; Code: subl -0xc(%rbp), %eax	 RIP: 4008af	 Bytes: 3
  %loadMem_4008af = load %struct.Memory*, %struct.Memory** %MEMORY
  %call_4008af = call %struct.Memory* @routine_subl_MINUS0xc__rbp____eax(%struct.State* %0, i64  0, %struct.Memory* %loadMem_4008af)
  store %struct.Memory* %call_4008af, %struct.Memory** %MEMORY

  ; Code: imull $0x7, %eax, %eax	 RIP: 4008b2	 Bytes: 3
  %loadMem_4008b2 = load %struct.Memory*, %struct.Memory** %MEMORY
  %call_4008b2 = call %struct.Memory* @routine_imull__0x7___eax___eax(%struct.State* %0, i64  0, %struct.Memory* %loadMem_4008b2)
  store %struct.Memory* %call_4008b2, %struct.Memory** %MEMORY

  ; Code: subl -0x8(%rbp), %eax	 RIP: 4008b5	 Bytes: 3
  %loadMem_4008b5 = load %struct.Memory*, %struct.Memory** %MEMORY
  %call_4008b5 = call %struct.Memory* @routine_subl_MINUS0x8__rbp____eax(%struct.State* %0, i64  0, %struct.Memory* %loadMem_4008b5)
  store %struct.Memory* %call_4008b5, %struct.Memory** %MEMORY

  ; Code: movl %eax, -0xc(%rbp)	 RIP: 4008b8	 Bytes: 3
  %loadMem_4008b8 = load %struct.Memory*, %struct.Memory** %MEMORY
  %call_4008b8 = call %struct.Memory* @routine_movl__eax__MINUS0xc__rbp_(%struct.State* %0, i64  0, %struct.Memory* %loadMem_4008b8)
  store %struct.Memory* %call_4008b8, %struct.Memory** %MEMORY

  ; Code: callq .Proc2	 RIP: 4008bb	 Bytes: 5
  %loadMem1_4008bb = load %struct.Memory*, %struct.Memory** %MEMORY
  %call1_4008bb = call %struct.Memory* @routine_callq_.Proc2(%struct.State* %0, i64  0, %struct.Memory* %loadMem1_4008bb, i64 1061, i64 5, i64 5)
  store %struct.Memory* %call1_4008bb, %struct.Memory** %MEMORY

  %loadMem2_4008bb = load %struct.Memory*, %struct.Memory** %MEMORY
  %loadPC_4008bb = load i64, i64* %3
  %call2_4008bb = call %struct.Memory* @sub_400ce0.Proc2(%struct.State* %0, i64  %loadPC_4008bb, %struct.Memory* %loadMem2_4008bb)
  store %struct.Memory* %call2_4008bb, %struct.Memory** %MEMORY

  ; Code: movl %eax, -0xd8(%rbp)	 RIP: 4008c0	 Bytes: 6
  %loadMem_4008c0 = load %struct.Memory*, %struct.Memory** %MEMORY
  %call_4008c0 = call %struct.Memory* @routine_movl__eax__MINUS0xd8__rbp_(%struct.State* %0, i64  0, %struct.Memory* %loadMem_4008c0)
  store %struct.Memory* %call_4008c0, %struct.Memory** %MEMORY

  ; Code: movl -0x64(%rbp), %eax	 RIP: 4008c6	 Bytes: 3
  %loadMem_4008c6 = load %struct.Memory*, %struct.Memory** %MEMORY
  %call_4008c6 = call %struct.Memory* @routine_movl_MINUS0x64__rbp____eax(%struct.State* %0, i64  0, %struct.Memory* %loadMem_4008c6)
  store %struct.Memory* %call_4008c6, %struct.Memory** %MEMORY

  ; Code: addl $0x1, %eax	 RIP: 4008c9	 Bytes: 3
  %loadMem_4008c9 = load %struct.Memory*, %struct.Memory** %MEMORY
  %call_4008c9 = call %struct.Memory* @routine_addl__0x1___eax(%struct.State* %0, i64  0, %struct.Memory* %loadMem_4008c9)
  store %struct.Memory* %call_4008c9, %struct.Memory** %MEMORY

  ; Code: movl %eax, -0x64(%rbp)	 RIP: 4008cc	 Bytes: 3
  %loadMem_4008cc = load %struct.Memory*, %struct.Memory** %MEMORY
  %call_4008cc = call %struct.Memory* @routine_movl__eax__MINUS0x64__rbp_(%struct.State* %0, i64  0, %struct.Memory* %loadMem_4008cc)
  store %struct.Memory* %call_4008cc, %struct.Memory** %MEMORY

  ; Code: jmpq .L_400732	 RIP: 4008cf	 Bytes: 5
  %loadMem_4008cf = load %struct.Memory*, %struct.Memory** %MEMORY
  %call_4008cf = call %struct.Memory* @routine_jmpq_.L_400732(%struct.State* %0, i64  0, %struct.Memory* %loadMem_4008cf, i64 -413, i64 5)
  store %struct.Memory* %call_4008cf, %struct.Memory** %MEMORY

  br label %block_.L_400732

  ; Code: .L_4008d4:	 RIP: 4008d4	 Bytes: 0
block_.L_4008d4:

  ; Code: movl -0x4(%rbp), %eax	 RIP: 4008d4	 Bytes: 3
  %loadMem_4008d4 = load %struct.Memory*, %struct.Memory** %MEMORY
  %call_4008d4 = call %struct.Memory* @routine_movl_MINUS0x4__rbp____eax(%struct.State* %0, i64  0, %struct.Memory* %loadMem_4008d4)
  store %struct.Memory* %call_4008d4, %struct.Memory** %MEMORY

  ; Code: addq $0xe0, %rsp	 RIP: 4008d7	 Bytes: 7
  %loadMem_4008d7 = load %struct.Memory*, %struct.Memory** %MEMORY
  %call_4008d7 = call %struct.Memory* @routine_addq__0xe0___rsp(%struct.State* %0, i64  0, %struct.Memory* %loadMem_4008d7)
  store %struct.Memory* %call_4008d7, %struct.Memory** %MEMORY

  ; Code: popq %rbp	 RIP: 4008de	 Bytes: 1
  %loadMem_4008de = load %struct.Memory*, %struct.Memory** %MEMORY
  %call_4008de = call %struct.Memory* @routine_popq__rbp(%struct.State* %0, i64  0, %struct.Memory* %loadMem_4008de)
  store %struct.Memory* %call_4008de, %struct.Memory** %MEMORY

  ; Code: retq	 RIP: 4008df	 Bytes: 1
  %loadMem_4008df = load %struct.Memory*, %struct.Memory** %MEMORY
  %call_4008df = call %struct.Memory* @routine_retq(%struct.State* %0, i64  0, %struct.Memory* %loadMem_4008df)
  store %struct.Memory* %call_4008df, %struct.Memory** %MEMORY

  ret %struct.Memory* %call_4008df
}

define internal %struct.Memory* @_ZN12_GLOBAL__N_1L4PUSHI2InImEEEP6MemoryS4_R5StateT_(%struct.Memory*, %struct.State* nocapture dereferenceable(3376), i64) #0 {
  %4 = getelementptr inbounds %struct.State, %struct.State* %1, i64 0, i32 6, i32 13, i32 0, i32 0
  %5 = load i64, i64* %4, align 8
  %6 = add i64 %5, -8
  %7 = inttoptr i64 %6 to i64*
  store i64 %2, i64* %7
  store i64 %6, i64* %4, align 8
  ret %struct.Memory* %0
}

define %struct.Memory* @routine_pushq__rbp(%struct.State*  dereferenceable(3376), i64, %struct.Memory* ) #19 {
block_400488:
  %3 = getelementptr inbounds %struct.State, %struct.State* %0, i32 0, i32 6
  %4 = getelementptr inbounds %struct.GPR, %struct.GPR* %3, i32 0, i32 33
  %5 = getelementptr inbounds %struct.Reg, %struct.Reg* %4, i32 0, i32 0
  %PC = bitcast %union.anon* %5 to i64*
  %6 = getelementptr inbounds %struct.State, %struct.State* %0, i32 0, i32 6
  %7 = getelementptr inbounds %struct.GPR, %struct.GPR* %6, i32 0, i32 15
  %8 = getelementptr inbounds %struct.Reg, %struct.Reg* %7, i32 0, i32 0
  %RBP = bitcast %union.anon* %8 to i64*
  %9 = load i64, i64* %RBP
  %10 = load i64, i64* %PC
  %11 = add i64 %10, 1
  store i64 %11, i64* %PC
  %12 = call %struct.Memory* @_ZN12_GLOBAL__N_1L4PUSHI2InImEEEP6MemoryS4_R5StateT_(%struct.Memory* %2, %struct.State* %0, i64 %9)
  ret %struct.Memory* %12
}

define internal %struct.Memory* @_ZN12_GLOBAL__N_1L3MOVI3RnWImE2RnImEEEP6MemoryS6_R5StateT_T0_(%struct.Memory* readnone returned, %struct.State* nocapture readnone dereferenceable(3376), i64* nocapture, i64) #2 {
  store i64 %3, i64* %2, align 8
  ret %struct.Memory* %0
}

define %struct.Memory* @routine_movq__rsp___rbp(%struct.State*  dereferenceable(3376), i64, %struct.Memory* ) #19 {
block_400488:
  %3 = getelementptr inbounds %struct.State, %struct.State* %0, i32 0, i32 6
  %4 = getelementptr inbounds %struct.GPR, %struct.GPR* %3, i32 0, i32 33
  %5 = getelementptr inbounds %struct.Reg, %struct.Reg* %4, i32 0, i32 0
  %PC = bitcast %union.anon* %5 to i64*
  %6 = getelementptr inbounds %struct.State, %struct.State* %0, i32 0, i32 6
  %7 = getelementptr inbounds %struct.GPR, %struct.GPR* %6, i32 0, i32 13
  %8 = getelementptr inbounds %struct.Reg, %struct.Reg* %7, i32 0, i32 0
  %RSP = bitcast %union.anon* %8 to i64*
  %9 = getelementptr inbounds %struct.State, %struct.State* %0, i32 0, i32 6
  %10 = getelementptr inbounds %struct.GPR, %struct.GPR* %9, i32 0, i32 15
  %11 = getelementptr inbounds %struct.Reg, %struct.Reg* %10, i32 0, i32 0
  %RBP = bitcast %union.anon* %11 to i64*
  %12 = load i64, i64* %RSP
  %13 = load i64, i64* %PC
  %14 = add i64 %13, 3
  store i64 %14, i64* %PC
  %15 = call %struct.Memory* @_ZN12_GLOBAL__N_1L3MOVI3RnWImE2RnImEEEP6MemoryS6_R5StateT_T0_(%struct.Memory* %2, %struct.State* %0, i64* %RBP, i64 %12)
  ret %struct.Memory* %15
}

define internal %struct.Memory* @_ZN12_GLOBAL__N_1L3SUBI3RnWImE2RnImE2InImEEEP6MemoryS8_R5StateT_T0_T1_(%struct.Memory* readnone returned, %struct.State* nocapture dereferenceable(3376), i64* nocapture, i64, i64) #0 {
  %6 = sub i64 %3, %4
  store i64 %6, i64* %2, align 8
  %7 = icmp ult i64 %3, %4
  %8 = zext i1 %7 to i8
  %9 = getelementptr inbounds %struct.State, %struct.State* %1, i64 0, i32 2, i32 1
  store i8 %8, i8* %9, align 1
  %10 = trunc i64 %6 to i32
  %11 = and i32 %10, 255
  %12 = tail call i32 @llvm.ctpop.i32(i32 %11) #22
  %13 = trunc i32 %12 to i8
  %14 = and i8 %13, 1
  %15 = xor i8 %14, 1
  %16 = getelementptr inbounds %struct.State, %struct.State* %1, i64 0, i32 2, i32 3
  store i8 %15, i8* %16, align 1
  %17 = xor i64 %4, %3
  %18 = xor i64 %17, %6
  %19 = lshr i64 %18, 4
  %20 = trunc i64 %19 to i8
  %21 = and i8 %20, 1
  %22 = getelementptr inbounds %struct.State, %struct.State* %1, i64 0, i32 2, i32 5
  store i8 %21, i8* %22, align 1
  %23 = icmp eq i64 %6, 0
  %24 = zext i1 %23 to i8
  %25 = getelementptr inbounds %struct.State, %struct.State* %1, i64 0, i32 2, i32 7
  store i8 %24, i8* %25, align 1
  %26 = lshr i64 %6, 63
  %27 = trunc i64 %26 to i8
  %28 = getelementptr inbounds %struct.State, %struct.State* %1, i64 0, i32 2, i32 9
  store i8 %27, i8* %28, align 1
  %29 = lshr i64 %3, 63
  %30 = lshr i64 %4, 63
  %31 = xor i64 %30, %29
  %32 = xor i64 %26, %29
  %33 = add   i64 %32, %31
  %34 = icmp eq i64 %33, 2
  %35 = zext i1 %34 to i8
  %36 = getelementptr inbounds %struct.State, %struct.State* %1, i64 0, i32 2, i32 13
  store i8 %35, i8* %36, align 1
  ret %struct.Memory* %0
}

define %struct.Memory* @routine_subq__0xe0___rsp(%struct.State*  dereferenceable(3376), i64, %struct.Memory* ) #19 {
block_400488:
  %3 = getelementptr inbounds %struct.State, %struct.State* %0, i32 0, i32 6
  %4 = getelementptr inbounds %struct.GPR, %struct.GPR* %3, i32 0, i32 33
  %5 = getelementptr inbounds %struct.Reg, %struct.Reg* %4, i32 0, i32 0
  %PC = bitcast %union.anon* %5 to i64*
  %6 = getelementptr inbounds %struct.State, %struct.State* %0, i32 0, i32 6
  %7 = getelementptr inbounds %struct.GPR, %struct.GPR* %6, i32 0, i32 13
  %8 = getelementptr inbounds %struct.Reg, %struct.Reg* %7, i32 0, i32 0
  %RSP = bitcast %union.anon* %8 to i64*
  %9 = load i64, i64* %RSP
  %10 = load i64, i64* %PC
  %11 = add i64 %10, 7
  store i64 %11, i64* %PC
  %12 = call %struct.Memory* @_ZN12_GLOBAL__N_1L3SUBI3RnWImE2RnImE2InImEEEP6MemoryS8_R5StateT_T0_T1_(%struct.Memory* %2, %struct.State* %0, i64* %RSP, i64 %9, i64 224)
  ret %struct.Memory* %12
}

define internal %struct.Memory* @_ZN12_GLOBAL__N_1L4CALLI2InImEEEP6MemoryS4_R5StateT_S2_(%struct.Memory* readnone, %struct.State* nocapture dereferenceable(3376), i64, i64) #0 {
  %5 = getelementptr inbounds %struct.State, %struct.State* %1, i64 0, i32 6, i32 13, i32 0, i32 0
  %6 = load i64, i64* %5, align 8
  %7 = add i64 %6, -8
  %8 = inttoptr i64 %7 to i64*
  store i64 %3, i64* %8
  store i64 %7, i64* %5, align 8
  %9 = getelementptr inbounds %struct.State, %struct.State* %1, i64 0, i32 6, i32 33, i32 0, i32 0
  store i64 %2, i64* %9, align 8
  ret %struct.Memory* %0
}

define %struct.Memory* @routine_callq_.clock_plt(%struct.State*  dereferenceable(3376), i64, %struct.Memory*, i64 %rel_off1, i64 %rel_off2, i64 %rel_off3) {
block_400488:
  %3 = getelementptr inbounds %struct.State, %struct.State* %0, i32 0, i32 6
  %4 = getelementptr inbounds %struct.GPR, %struct.GPR* %3, i32 0, i32 33
  %5 = getelementptr inbounds %struct.Reg, %struct.Reg* %4, i32 0, i32 0
  %PC = bitcast %union.anon* %5 to i64*
  %6 = load i64, i64* %PC
  %7 = add i64 %6, %rel_off1
  %8 = load i64, i64* %PC
  %9 = add i64 %8, %rel_off2
  %10 = load i64, i64* %PC
  %11 = add i64 %10, %rel_off3
  store i64 %11, i64* %PC
  %12 = call %struct.Memory* @_ZN12_GLOBAL__N_1L4CALLI2InImEEEP6MemoryS4_R5StateT_S2_(%struct.Memory* %2, %struct.State* %0, i64 %7, i64 %9)
  ret %struct.Memory* %12
}

define internal %struct.Memory* @_ZN12_GLOBAL__N_1L3MOVI3MnWImE2RnImEEEP6MemoryS6_R5StateT_T0_(%struct.Memory* readnone, %struct.State* nocapture readnone dereferenceable(3376), i64, i64) #8 {
  %5 = inttoptr i64 %2 to i64*
  store i64 %3, i64* %5
  ret %struct.Memory* %0
}

define %struct.Memory* @routine_movq__rax__MINUS0x70__rbp_(%struct.State*  dereferenceable(3376), i64, %struct.Memory* ) #19 {
block_400488:
  %3 = getelementptr inbounds %struct.State, %struct.State* %0, i32 0, i32 6
  %4 = getelementptr inbounds %struct.GPR, %struct.GPR* %3, i32 0, i32 33
  %5 = getelementptr inbounds %struct.Reg, %struct.Reg* %4, i32 0, i32 0
  %PC = bitcast %union.anon* %5 to i64*
  %6 = getelementptr inbounds %struct.State, %struct.State* %0, i32 0, i32 6
  %7 = getelementptr inbounds %struct.GPR, %struct.GPR* %6, i32 0, i32 1
  %8 = getelementptr inbounds %struct.Reg, %struct.Reg* %7, i32 0, i32 0
  %RAX = bitcast %union.anon* %8 to i64*
  %9 = getelementptr inbounds %struct.State, %struct.State* %0, i32 0, i32 6
  %10 = getelementptr inbounds %struct.GPR, %struct.GPR* %9, i32 0, i32 15
  %11 = getelementptr inbounds %struct.Reg, %struct.Reg* %10, i32 0, i32 0
  %RBP = bitcast %union.anon* %11 to i64*
  %12 = load i64, i64* %RBP
  %13 = sub i64 %12, 112
  %14 = load i64, i64* %RAX
  %15 = load i64, i64* %PC
  %16 = add i64 %15, 4
  store i64 %16, i64* %PC
  %17 = call %struct.Memory* @_ZN12_GLOBAL__N_1L3MOVI3MnWImE2RnImEEEP6MemoryS6_R5StateT_T0_(%struct.Memory* %2, %struct.State* %0, i64 %13, i64 %14)
  ret %struct.Memory* %17
}

define internal %struct.Memory* @_ZN12_GLOBAL__N_1L3MOVI3MnWIjE2InIjEEEP6MemoryS6_R5StateT_T0_(%struct.Memory* readnone, %struct.State* nocapture readnone dereferenceable(3376), i64, i64) #8 {
  %5 = trunc i64 %3 to i32
  %6 = inttoptr i64 %2 to i32*
  store i32 %5, i32* %6
  ret %struct.Memory* %0
}

define %struct.Memory* @routine_movl__0x0__MINUS0x64__rbp_(%struct.State*  dereferenceable(3376), i64, %struct.Memory* ) #19 {
block_400488:
  %3 = getelementptr inbounds %struct.State, %struct.State* %0, i32 0, i32 6
  %4 = getelementptr inbounds %struct.GPR, %struct.GPR* %3, i32 0, i32 33
  %5 = getelementptr inbounds %struct.Reg, %struct.Reg* %4, i32 0, i32 0
  %PC = bitcast %union.anon* %5 to i64*
  %6 = getelementptr inbounds %struct.State, %struct.State* %0, i32 0, i32 6
  %7 = getelementptr inbounds %struct.GPR, %struct.GPR* %6, i32 0, i32 15
  %8 = getelementptr inbounds %struct.Reg, %struct.Reg* %7, i32 0, i32 0
  %RBP = bitcast %union.anon* %8 to i64*
  %9 = load i64, i64* %RBP
  %10 = sub i64 %9, 100
  %11 = load i64, i64* %PC
  %12 = add i64 %11, 7
  store i64 %12, i64* %PC
  %13 = call %struct.Memory* @_ZN12_GLOBAL__N_1L3MOVI3MnWIjE2InIjEEEP6MemoryS6_R5StateT_T0_(%struct.Memory* %2, %struct.State* %0, i64 %10, i64 0)
  ret %struct.Memory* %13
}

define internal %struct.Memory* @_ZN12_GLOBAL__N_1L3CMPI2MnIjE2InIjEEEP6MemoryS6_R5StateT_T0_(%struct.Memory*, %struct.State* nocapture dereferenceable(3376), i64, i64) #0 {
  %5 = inttoptr i64 %2 to i32*
  %6 = load i32, i32* %5
  %7 = trunc i64 %3 to i32
  %8 = sub i32 %6, %7
  %9 = icmp ult i32 %6, %7
  %10 = zext i1 %9 to i8
  %11 = getelementptr inbounds %struct.State, %struct.State* %1, i64 0, i32 2, i32 1
  store i8 %10, i8* %11, align 1
  %12 = and i32 %8, 255
  %13 = tail call i32 @llvm.ctpop.i32(i32 %12) #22
  %14 = trunc i32 %13 to i8
  %15 = and i8 %14, 1
  %16 = xor i8 %15, 1
  %17 = getelementptr inbounds %struct.State, %struct.State* %1, i64 0, i32 2, i32 3
  store i8 %16, i8* %17, align 1
  %18 = xor i32 %6, %7
  %19 = xor i32 %18, %8
  %20 = lshr i32 %19, 4
  %21 = trunc i32 %20 to i8
  %22 = and i8 %21, 1
  %23 = getelementptr inbounds %struct.State, %struct.State* %1, i64 0, i32 2, i32 5
  store i8 %22, i8* %23, align 1
  %24 = icmp eq i32 %8, 0
  %25 = zext i1 %24 to i8
  %26 = getelementptr inbounds %struct.State, %struct.State* %1, i64 0, i32 2, i32 7
  store i8 %25, i8* %26, align 1
  %27 = lshr i32 %8, 31
  %28 = trunc i32 %27 to i8
  %29 = getelementptr inbounds %struct.State, %struct.State* %1, i64 0, i32 2, i32 9
  store i8 %28, i8* %29, align 1
  %30 = lshr i32 %6, 31
  %31 = lshr i32 %7, 31
  %32 = xor i32 %30, %31
  %33 = xor i32 %27, %30
  %34 = add   i32 %33, %32
  %35 = icmp eq i32 %34, 2
  %36 = zext i1 %35 to i8
  %37 = getelementptr inbounds %struct.State, %struct.State* %1, i64 0, i32 2, i32 13
  store i8 %36, i8* %37, align 1
  ret %struct.Memory* %0
}

define %struct.Memory* @routine_cmpl__0x5f5e100__MINUS0x64__rbp_(%struct.State*  dereferenceable(3376), i64, %struct.Memory* ) #19 {
block_400488:
  %3 = getelementptr inbounds %struct.State, %struct.State* %0, i32 0, i32 6
  %4 = getelementptr inbounds %struct.GPR, %struct.GPR* %3, i32 0, i32 33
  %5 = getelementptr inbounds %struct.Reg, %struct.Reg* %4, i32 0, i32 0
  %PC = bitcast %union.anon* %5 to i64*
  %6 = getelementptr inbounds %struct.State, %struct.State* %0, i32 0, i32 6
  %7 = getelementptr inbounds %struct.GPR, %struct.GPR* %6, i32 0, i32 15
  %8 = getelementptr inbounds %struct.Reg, %struct.Reg* %7, i32 0, i32 0
  %RBP = bitcast %union.anon* %8 to i64*
  %9 = load i64, i64* %RBP
  %10 = sub i64 %9, 100
  %11 = load i64, i64* %PC
  %12 = add i64 %11, 7
  store i64 %12, i64* %PC
  %13 = call %struct.Memory* @_ZN12_GLOBAL__N_1L3CMPI2MnIjE2InIjEEEP6MemoryS6_R5StateT_T0_(%struct.Memory* %2, %struct.State* %0, i64 %10, i64 100000000)
  ret %struct.Memory* %13
}

define internal %struct.Memory* @_ZN12_GLOBAL__N_1L3JNBEP6MemoryR5State3RnWIhE2InImES7_(%struct.Memory* readnone returned, %struct.State* nocapture dereferenceable(3376), i8* nocapture, i64, i64) #2 {
  %6 = getelementptr inbounds %struct.State, %struct.State* %1, i64 0, i32 2, i32 1
  %7 = load i8, i8* %6, align 1
  %8 = icmp eq i8 %7, 0
  %9 = zext i1 %8 to i8
  store i8 %9, i8* %2, align 1
  %10 = getelementptr inbounds %struct.State, %struct.State* %1, i64 0, i32 6, i32 33, i32 0, i32 0
  %11 = select i1 %8, i64 %3, i64 %4
  store i64 %11, i64* %10, align 8
  ret %struct.Memory* %0
}

define %struct.Memory* @routine_jae_.L_40065b(%struct.State*  dereferenceable(3376), i64, %struct.Memory*, i8* %BRANCH_TAKEN, i64 %rel_off1, i64 %rel_off2, i64 %rel_off3) {
block_400488:
  %3 = getelementptr inbounds %struct.State, %struct.State* %0, i32 0, i32 6
  %4 = getelementptr inbounds %struct.GPR, %struct.GPR* %3, i32 0, i32 33
  %5 = getelementptr inbounds %struct.Reg, %struct.Reg* %4, i32 0, i32 0
  %PC = bitcast %union.anon* %5 to i64*
  %6 = load i64, i64* %PC
  %7 = add i64 %6, %rel_off1
  %8 = load i64, i64* %PC
  %9 = add i64 %8, %rel_off2
  %10 = load i64, i64* %PC
  %11 = add i64 %10, %rel_off3
  store i64 %11, i64* %PC
  %12 = call %struct.Memory* @_ZN12_GLOBAL__N_1L3JNBEP6MemoryR5State3RnWIhE2InImES7_(%struct.Memory* %2, %struct.State* %0, i8* %BRANCH_TAKEN, i64 %7, i64 %9)
  ret %struct.Memory* %12
}

define internal %struct.Memory* @_ZN12_GLOBAL__N_1L3JMPI2InImEEEP6MemoryS4_R5StateT_(%struct.Memory* readnone returned, %struct.State* nocapture dereferenceable(3376), i64) #2 {
  %4 = getelementptr inbounds %struct.State, %struct.State* %1, i64 0, i32 6, i32 33, i32 0, i32 0
  store i64 %2, i64* %4, align 8
  ret %struct.Memory* %0
}

define %struct.Memory* @routine_jmpq_.L_40064d(%struct.State*  dereferenceable(3376), i64, %struct.Memory*, i64 %rel_off1, i64 %rel_off2) {
block_400488:
  %3 = getelementptr inbounds %struct.State, %struct.State* %0, i32 0, i32 6
  %4 = getelementptr inbounds %struct.GPR, %struct.GPR* %3, i32 0, i32 33
  %5 = getelementptr inbounds %struct.Reg, %struct.Reg* %4, i32 0, i32 0
  %PC = bitcast %union.anon* %5 to i64*
  %6 = load i64, i64* %PC
  %7 = add i64 %6, %rel_off1
  %8 = load i64, i64* %PC
  %9 = add i64 %8, %rel_off2
  store i64 %9, i64* %PC
  %10 = call %struct.Memory* @_ZN12_GLOBAL__N_1L3JMPI2InImEEEP6MemoryS4_R5StateT_(%struct.Memory* %2, %struct.State* %0, i64 %7)
  ret %struct.Memory* %10
}

define internal %struct.Memory* @_ZN12_GLOBAL__N_1L3MOVI3RnWImE2MnIjEEEP6MemoryS6_R5StateT_T0_(%struct.Memory* returned, %struct.State* nocapture readnone dereferenceable(3376), i64* nocapture, i64) #0 {
  %5 = inttoptr i64 %3 to i32*
  %6 = load i32, i32* %5
  %7 = zext i32 %6 to i64
  store i64 %7, i64* %2, align 8
  ret %struct.Memory* %0
}

define %struct.Memory* @routine_movl_MINUS0x64__rbp____eax(%struct.State*  dereferenceable(3376), i64, %struct.Memory* ) #19 {
block_400488:
  %3 = getelementptr inbounds %struct.State, %struct.State* %0, i32 0, i32 6
  %4 = getelementptr inbounds %struct.GPR, %struct.GPR* %3, i32 0, i32 33
  %5 = getelementptr inbounds %struct.Reg, %struct.Reg* %4, i32 0, i32 0
  %PC = bitcast %union.anon* %5 to i64*
  %6 = getelementptr inbounds %struct.State, %struct.State* %0, i32 0, i32 6
  %7 = getelementptr inbounds %struct.GPR, %struct.GPR* %6, i32 0, i32 1
  %8 = getelementptr inbounds %struct.Reg, %struct.Reg* %7, i32 0, i32 0
  %RAX = bitcast %union.anon* %8 to i64*
  %9 = getelementptr inbounds %struct.State, %struct.State* %0, i32 0, i32 6
  %10 = getelementptr inbounds %struct.GPR, %struct.GPR* %9, i32 0, i32 15
  %11 = getelementptr inbounds %struct.Reg, %struct.Reg* %10, i32 0, i32 0
  %RBP = bitcast %union.anon* %11 to i64*
  %12 = load i64, i64* %RBP
  %13 = sub i64 %12, 100
  %14 = load i64, i64* %PC
  %15 = add i64 %14, 3
  store i64 %15, i64* %PC
  %16 = call %struct.Memory* @_ZN12_GLOBAL__N_1L3MOVI3RnWImE2MnIjEEEP6MemoryS6_R5StateT_T0_(%struct.Memory* %2, %struct.State* %0, i64* %RAX, i64 %13)
  ret %struct.Memory* %16
}

define internal %struct.Memory* @_ZN12_GLOBAL__N_1L3ADDI3RnWImE2RnIjE2InIjEEEP6MemoryS8_R5StateT_T0_T1_(%struct.Memory* readnone returned, %struct.State* nocapture dereferenceable(3376), i64* nocapture, i64, i64) #0 {
  %6 = trunc i64 %3 to i32
  %7 = trunc i64 %4 to i32
  %8 = add i32 %7, %6
  %9 = zext i32 %8 to i64
  store i64 %9, i64* %2, align 8
  %10 = icmp ult i32 %8, %6
  %11 = icmp ult i32 %8, %7
  %12 = or i1 %10, %11
  %13 = zext i1 %12 to i8
  %14 = getelementptr inbounds %struct.State, %struct.State* %1, i64 0, i32 2, i32 1
  store i8 %13, i8* %14, align 1
  %15 = and i32 %8, 255
  %16 = tail call i32 @llvm.ctpop.i32(i32 %15) #22
  %17 = trunc i32 %16 to i8
  %18 = and i8 %17, 1
  %19 = xor i8 %18, 1
  %20 = getelementptr inbounds %struct.State, %struct.State* %1, i64 0, i32 2, i32 3
  store i8 %19, i8* %20, align 1
  %21 = xor i64 %4, %3
  %22 = trunc i64 %21 to i32
  %23 = xor i32 %22, %8
  %24 = lshr i32 %23, 4
  %25 = trunc i32 %24 to i8
  %26 = and i8 %25, 1
  %27 = getelementptr inbounds %struct.State, %struct.State* %1, i64 0, i32 2, i32 5
  store i8 %26, i8* %27, align 1
  %28 = icmp eq i32 %8, 0
  %29 = zext i1 %28 to i8
  %30 = getelementptr inbounds %struct.State, %struct.State* %1, i64 0, i32 2, i32 7
  store i8 %29, i8* %30, align 1
  %31 = lshr i32 %8, 31
  %32 = trunc i32 %31 to i8
  %33 = getelementptr inbounds %struct.State, %struct.State* %1, i64 0, i32 2, i32 9
  store i8 %32, i8* %33, align 1
  %34 = lshr i32 %6, 31
  %35 = lshr i32 %7, 31
  %36 = xor i32 %31, %34
  %37 = xor i32 %31, %35
  %38 = add   i32 %36, %37
  %39 = icmp eq i32 %38, 2
  %40 = zext i1 %39 to i8
  %41 = getelementptr inbounds %struct.State, %struct.State* %1, i64 0, i32 2, i32 13
  store i8 %40, i8* %41, align 1
  ret %struct.Memory* %0
}

define %struct.Memory* @routine_addl__0x1___eax(%struct.State*  dereferenceable(3376), i64, %struct.Memory* ) #19 {
block_400488:
  %3 = getelementptr inbounds %struct.State, %struct.State* %0, i32 0, i32 6
  %4 = getelementptr inbounds %struct.GPR, %struct.GPR* %3, i32 0, i32 33
  %5 = getelementptr inbounds %struct.Reg, %struct.Reg* %4, i32 0, i32 0
  %PC = bitcast %union.anon* %5 to i64*
  %6 = getelementptr inbounds %struct.State, %struct.State* %0, i32 0, i32 6
  %7 = getelementptr inbounds %struct.GPR, %struct.GPR* %6, i32 0, i32 1
  %8 = getelementptr inbounds %struct.Reg, %struct.Reg* %7, i32 0, i32 0
  %RAX = bitcast %union.anon* %8 to i64*
  %9 = load i64, i64* %RAX
  %10 = load i64, i64* %PC
  %11 = add i64 %10, 3
  store i64 %11, i64* %PC
  %12 = call %struct.Memory* @_ZN12_GLOBAL__N_1L3ADDI3RnWImE2RnIjE2InIjEEEP6MemoryS8_R5StateT_T0_T1_(%struct.Memory* %2, %struct.State* %0, i64* %RAX, i64 %9, i64 1)
  ret %struct.Memory* %12
}

define internal %struct.Memory* @_ZN12_GLOBAL__N_1L3MOVI3MnWIjE2RnIjEEEP6MemoryS6_R5StateT_T0_(%struct.Memory* readnone, %struct.State* nocapture readnone dereferenceable(3376), i64, i64) #8 {
  %5 = trunc i64 %3 to i32
  %6 = inttoptr i64 %2 to i32*
  store i32 %5, i32* %6
  ret %struct.Memory* %0
}

define %struct.Memory* @routine_movl__eax__MINUS0x64__rbp_(%struct.State*  dereferenceable(3376), i64, %struct.Memory* ) #19 {
block_400488:
  %3 = getelementptr inbounds %struct.State, %struct.State* %0, i32 0, i32 6
  %4 = getelementptr inbounds %struct.GPR, %struct.GPR* %3, i32 0, i32 33
  %5 = getelementptr inbounds %struct.Reg, %struct.Reg* %4, i32 0, i32 0
  %PC = bitcast %union.anon* %5 to i64*
  %6 = getelementptr inbounds %struct.State, %struct.State* %0, i32 0, i32 6
  %7 = getelementptr inbounds %struct.GPR, %struct.GPR* %6, i32 0, i32 1
  %8 = getelementptr inbounds %struct.Reg, %struct.Reg* %7, i32 0, i32 0
  %EAX = bitcast %union.anon* %8 to i32*
  %9 = getelementptr inbounds %struct.State, %struct.State* %0, i32 0, i32 6
  %10 = getelementptr inbounds %struct.GPR, %struct.GPR* %9, i32 0, i32 15
  %11 = getelementptr inbounds %struct.Reg, %struct.Reg* %10, i32 0, i32 0
  %RBP = bitcast %union.anon* %11 to i64*
  %12 = load i64, i64* %RBP
  %13 = sub i64 %12, 100
  %14 = load i32, i32* %EAX
  %15 = zext i32 %14 to i64
  %16 = load i64, i64* %PC
  %17 = add i64 %16, 3
  store i64 %17, i64* %PC
  %18 = call %struct.Memory* @_ZN12_GLOBAL__N_1L3MOVI3MnWIjE2RnIjEEEP6MemoryS6_R5StateT_T0_(%struct.Memory* %2, %struct.State* %0, i64 %13, i64 %15)
  ret %struct.Memory* %18
}


define %struct.Memory* @routine_jmpq_.L_40063b(%struct.State*  dereferenceable(3376), i64, %struct.Memory*, i64 %rel_off1, i64 %rel_off2) {
block_400488:
  %3 = getelementptr inbounds %struct.State, %struct.State* %0, i32 0, i32 6
  %4 = getelementptr inbounds %struct.GPR, %struct.GPR* %3, i32 0, i32 33
  %5 = getelementptr inbounds %struct.Reg, %struct.Reg* %4, i32 0, i32 0
  %PC = bitcast %union.anon* %5 to i64*
  %6 = load i64, i64* %PC
  %7 = add i64 %6, %rel_off1
  %8 = load i64, i64* %PC
  %9 = add i64 %8, %rel_off2
  store i64 %9, i64* %PC
  %10 = call %struct.Memory* @_ZN12_GLOBAL__N_1L3JMPI2InImEEEP6MemoryS4_R5StateT_(%struct.Memory* %2, %struct.State* %0, i64 %7)
  ret %struct.Memory* %10
}



define internal %struct.Memory* @_ZN12_GLOBAL__N_1L3MOVI3RnWImE2InIjEEEP6MemoryS6_R5StateT_T0_(%struct.Memory* readnone returned, %struct.State* nocapture readnone dereferenceable(3376), i64* nocapture, i64) #2 {
  %5 = and i64 %3, 4294967295
  store i64 %5, i64* %2, align 8
  ret %struct.Memory* %0
}

define %struct.Memory* @routine_movl__0x38___ecx(%struct.State*  dereferenceable(3376), i64, %struct.Memory* ) #19 {
block_400488:
  %3 = getelementptr inbounds %struct.State, %struct.State* %0, i32 0, i32 6
  %4 = getelementptr inbounds %struct.GPR, %struct.GPR* %3, i32 0, i32 33
  %5 = getelementptr inbounds %struct.Reg, %struct.Reg* %4, i32 0, i32 0
  %PC = bitcast %union.anon* %5 to i64*
  %6 = getelementptr inbounds %struct.State, %struct.State* %0, i32 0, i32 6
  %7 = getelementptr inbounds %struct.GPR, %struct.GPR* %6, i32 0, i32 5
  %8 = getelementptr inbounds %struct.Reg, %struct.Reg* %7, i32 0, i32 0
  %RCX = bitcast %union.anon* %8 to i64*
  %9 = load i64, i64* %PC
  %10 = add i64 %9, 5
  store i64 %10, i64* %PC
  %11 = call %struct.Memory* @_ZN12_GLOBAL__N_1L3MOVI3RnWImE2InIjEEEP6MemoryS6_R5StateT_T0_(%struct.Memory* %2, %struct.State* %0, i64* %RCX, i64 56)
  ret %struct.Memory* %11
}

define internal %struct.Memory* @_ZN12_GLOBAL__N_1L3MOVI3RnWImE2RnIjEEEP6MemoryS6_R5StateT_T0_(%struct.Memory* readnone returned, %struct.State* nocapture readnone dereferenceable(3376), i64* nocapture, i64) #2 {
  %5 = and i64 %3, 4294967295
  store i64 %5, i64* %2, align 8
  ret %struct.Memory* %0
}

define %struct.Memory* @routine_movl__ecx___edi(%struct.State*  dereferenceable(3376), i64, %struct.Memory* ) #19 {
block_400488:
  %3 = getelementptr inbounds %struct.State, %struct.State* %0, i32 0, i32 6
  %4 = getelementptr inbounds %struct.GPR, %struct.GPR* %3, i32 0, i32 33
  %5 = getelementptr inbounds %struct.Reg, %struct.Reg* %4, i32 0, i32 0
  %PC = bitcast %union.anon* %5 to i64*
  %6 = getelementptr inbounds %struct.State, %struct.State* %0, i32 0, i32 6
  %7 = getelementptr inbounds %struct.GPR, %struct.GPR* %6, i32 0, i32 5
  %8 = getelementptr inbounds %struct.Reg, %struct.Reg* %7, i32 0, i32 0
  %ECX = bitcast %union.anon* %8 to i32*
  %9 = getelementptr inbounds %struct.State, %struct.State* %0, i32 0, i32 6
  %10 = getelementptr inbounds %struct.GPR, %struct.GPR* %9, i32 0, i32 11
  %11 = getelementptr inbounds %struct.Reg, %struct.Reg* %10, i32 0, i32 0
  %RDI = bitcast %union.anon* %11 to i64*
  %12 = load i32, i32* %ECX
  %13 = zext i32 %12 to i64
  %14 = load i64, i64* %PC
  %15 = add i64 %14, 2
  store i64 %15, i64* %PC
  %16 = call %struct.Memory* @_ZN12_GLOBAL__N_1L3MOVI3RnWImE2RnIjEEEP6MemoryS6_R5StateT_T0_(%struct.Memory* %2, %struct.State* %0, i64* %RDI, i64 %13)
  ret %struct.Memory* %16
}

define internal %struct.Memory* @_ZN12_GLOBAL__N_1L3SUBI3RnWImE2RnImE2MnImEEEP6MemoryS8_R5StateT_T0_T1_(%struct.Memory*, %struct.State* nocapture dereferenceable(3376), i64* nocapture, i64, i64) #0 {
  %6 = inttoptr i64 %4 to i64*
  %7 = load i64, i64* %6
  %8 = sub i64 %3, %7
  store i64 %8, i64* %2, align 8
  %9 = icmp ugt i64 %7, %3
  %10 = zext i1 %9 to i8
  %11 = getelementptr inbounds %struct.State, %struct.State* %1, i64 0, i32 2, i32 1
  store i8 %10, i8* %11, align 1
  %12 = trunc i64 %8 to i32
  %13 = and i32 %12, 255
  %14 = tail call i32 @llvm.ctpop.i32(i32 %13) #22
  %15 = trunc i32 %14 to i8
  %16 = and i8 %15, 1
  %17 = xor i8 %16, 1
  %18 = getelementptr inbounds %struct.State, %struct.State* %1, i64 0, i32 2, i32 3
  store i8 %17, i8* %18, align 1
  %19 = xor i64 %7, %3
  %20 = xor i64 %19, %8
  %21 = lshr i64 %20, 4
  %22 = trunc i64 %21 to i8
  %23 = and i8 %22, 1
  %24 = getelementptr inbounds %struct.State, %struct.State* %1, i64 0, i32 2, i32 5
  store i8 %23, i8* %24, align 1
  %25 = icmp eq i64 %8, 0
  %26 = zext i1 %25 to i8
  %27 = getelementptr inbounds %struct.State, %struct.State* %1, i64 0, i32 2, i32 7
  store i8 %26, i8* %27, align 1
  %28 = lshr i64 %8, 63
  %29 = trunc i64 %28 to i8
  %30 = getelementptr inbounds %struct.State, %struct.State* %1, i64 0, i32 2, i32 9
  store i8 %29, i8* %30, align 1
  %31 = lshr i64 %3, 63
  %32 = lshr i64 %7, 63
  %33 = xor i64 %32, %31
  %34 = xor i64 %28, %31
  %35 = add   i64 %34, %33
  %36 = icmp eq i64 %35, 2
  %37 = zext i1 %36 to i8
  %38 = getelementptr inbounds %struct.State, %struct.State* %1, i64 0, i32 2, i32 13
  store i8 %37, i8* %38, align 1
  ret %struct.Memory* %0
}

define %struct.Memory* @routine_subq_MINUS0x70__rbp____rax(%struct.State*  dereferenceable(3376), i64, %struct.Memory* ) #19 {
block_400488:
  %3 = getelementptr inbounds %struct.State, %struct.State* %0, i32 0, i32 6
  %4 = getelementptr inbounds %struct.GPR, %struct.GPR* %3, i32 0, i32 33
  %5 = getelementptr inbounds %struct.Reg, %struct.Reg* %4, i32 0, i32 0
  %PC = bitcast %union.anon* %5 to i64*
  %6 = getelementptr inbounds %struct.State, %struct.State* %0, i32 0, i32 6
  %7 = getelementptr inbounds %struct.GPR, %struct.GPR* %6, i32 0, i32 1
  %8 = getelementptr inbounds %struct.Reg, %struct.Reg* %7, i32 0, i32 0
  %RAX = bitcast %union.anon* %8 to i64*
  %9 = getelementptr inbounds %struct.State, %struct.State* %0, i32 0, i32 6
  %10 = getelementptr inbounds %struct.GPR, %struct.GPR* %9, i32 0, i32 15
  %11 = getelementptr inbounds %struct.Reg, %struct.Reg* %10, i32 0, i32 0
  %RBP = bitcast %union.anon* %11 to i64*
  %12 = load i64, i64* %RAX
  %13 = load i64, i64* %RBP
  %14 = sub i64 %13, 112
  %15 = load i64, i64* %PC
  %16 = add i64 %15, 4
  store i64 %16, i64* %PC
  %17 = call %struct.Memory* @_ZN12_GLOBAL__N_1L3SUBI3RnWImE2RnImE2MnImEEEP6MemoryS8_R5StateT_T0_T1_(%struct.Memory* %2, %struct.State* %0, i64* %RAX, i64 %12, i64 %14)
  ret %struct.Memory* %17
}


define %struct.Memory* @routine_movq__rax__MINUS0x80__rbp_(%struct.State*  dereferenceable(3376), i64, %struct.Memory* ) #19 {
block_400488:
  %3 = getelementptr inbounds %struct.State, %struct.State* %0, i32 0, i32 6
  %4 = getelementptr inbounds %struct.GPR, %struct.GPR* %3, i32 0, i32 33
  %5 = getelementptr inbounds %struct.Reg, %struct.Reg* %4, i32 0, i32 0
  %PC = bitcast %union.anon* %5 to i64*
  %6 = getelementptr inbounds %struct.State, %struct.State* %0, i32 0, i32 6
  %7 = getelementptr inbounds %struct.GPR, %struct.GPR* %6, i32 0, i32 1
  %8 = getelementptr inbounds %struct.Reg, %struct.Reg* %7, i32 0, i32 0
  %RAX = bitcast %union.anon* %8 to i64*
  %9 = getelementptr inbounds %struct.State, %struct.State* %0, i32 0, i32 6
  %10 = getelementptr inbounds %struct.GPR, %struct.GPR* %9, i32 0, i32 15
  %11 = getelementptr inbounds %struct.Reg, %struct.Reg* %10, i32 0, i32 0
  %RBP = bitcast %union.anon* %11 to i64*
  %12 = load i64, i64* %RBP
  %13 = sub i64 %12, 128
  %14 = load i64, i64* %RAX
  %15 = load i64, i64* %PC
  %16 = add i64 %15, 4
  store i64 %16, i64* %PC
  %17 = call %struct.Memory* @_ZN12_GLOBAL__N_1L3MOVI3MnWImE2RnImEEEP6MemoryS6_R5StateT_T0_(%struct.Memory* %2, %struct.State* %0, i64 %13, i64 %14)
  ret %struct.Memory* %17
}


define %struct.Memory* @routine_callq_.malloc_plt(%struct.State*  dereferenceable(3376), i64, %struct.Memory*, i64 %rel_off1, i64 %rel_off2, i64 %rel_off3) {
block_400488:
  %3 = getelementptr inbounds %struct.State, %struct.State* %0, i32 0, i32 6
  %4 = getelementptr inbounds %struct.GPR, %struct.GPR* %3, i32 0, i32 33
  %5 = getelementptr inbounds %struct.Reg, %struct.Reg* %4, i32 0, i32 0
  %PC = bitcast %union.anon* %5 to i64*
  %6 = load i64, i64* %PC
  %7 = add i64 %6, %rel_off1
  %8 = load i64, i64* %PC
  %9 = add i64 %8, %rel_off2
  %10 = load i64, i64* %PC
  %11 = add i64 %10, %rel_off3
  store i64 %11, i64* %PC
  %12 = call %struct.Memory* @_ZN12_GLOBAL__N_1L4CALLI2InImEEEP6MemoryS4_R5StateT_S2_(%struct.Memory* %2, %struct.State* %0, i64 %7, i64 %9)
  ret %struct.Memory* %12
}






define %struct.Memory* @routine_movq__rax__0x6049f8(%struct.State*  dereferenceable(3376), i64, %struct.Memory* ) #19 {
block_400488:
  %3 = getelementptr inbounds %struct.State, %struct.State* %0, i32 0, i32 6
  %4 = getelementptr inbounds %struct.GPR, %struct.GPR* %3, i32 0, i32 33
  %5 = getelementptr inbounds %struct.Reg, %struct.Reg* %4, i32 0, i32 0
  %PC = bitcast %union.anon* %5 to i64*
  %6 = getelementptr inbounds %struct.State, %struct.State* %0, i32 0, i32 6
  %7 = getelementptr inbounds %struct.GPR, %struct.GPR* %6, i32 0, i32 1
  %8 = getelementptr inbounds %struct.Reg, %struct.Reg* %7, i32 0, i32 0
  %RAX = bitcast %union.anon* %8 to i64*
  %9 = load i64, i64* %RAX
  %10 = load i64, i64* %PC
  %11 = add i64 %10, 8
  store i64 %11, i64* %PC
  %12 = call %struct.Memory* @_ZN12_GLOBAL__N_1L3MOVI3MnWImE2RnImEEEP6MemoryS6_R5StateT_T0_(%struct.Memory* %2, %struct.State* %0, i64 6310392, i64 %9)
  ret %struct.Memory* %12
}



define internal %struct.Memory* @_ZN12_GLOBAL__N_1L3LEAI3RnWImE2MnIhEmEEP6MemoryS6_R5StateT_T0_(%struct.Memory* readnone returned, %struct.State* nocapture readnone dereferenceable(3376), i64* nocapture, i64) #2 {
  store i64 %3, i64* %2, align 8
  ret %struct.Memory* %0
}

define %struct.Memory* @routine_leaq_MINUS0x40__rbp____rdi(%struct.State*  dereferenceable(3376), i64, %struct.Memory* ) #19 {
block_400488:
  %3 = getelementptr inbounds %struct.State, %struct.State* %0, i32 0, i32 6
  %4 = getelementptr inbounds %struct.GPR, %struct.GPR* %3, i32 0, i32 33
  %5 = getelementptr inbounds %struct.Reg, %struct.Reg* %4, i32 0, i32 0
  %PC = bitcast %union.anon* %5 to i64*
  %6 = getelementptr inbounds %struct.State, %struct.State* %0, i32 0, i32 6
  %7 = getelementptr inbounds %struct.GPR, %struct.GPR* %6, i32 0, i32 11
  %8 = getelementptr inbounds %struct.Reg, %struct.Reg* %7, i32 0, i32 0
  %RDI = bitcast %union.anon* %8 to i64*
  %9 = getelementptr inbounds %struct.State, %struct.State* %0, i32 0, i32 6
  %10 = getelementptr inbounds %struct.GPR, %struct.GPR* %9, i32 0, i32 15
  %11 = getelementptr inbounds %struct.Reg, %struct.Reg* %10, i32 0, i32 0
  %RBP = bitcast %union.anon* %11 to i64*
  %12 = load i64, i64* %RBP
  %13 = sub i64 %12, 64
  %14 = load i64, i64* %PC
  %15 = add i64 %14, 4
  store i64 %15, i64* %PC
  %16 = call %struct.Memory* @_ZN12_GLOBAL__N_1L3LEAI3RnWImE2MnIhEmEEP6MemoryS6_R5StateT_T0_(%struct.Memory* %2, %struct.State* %0, i64* %RDI, i64 %13)
  ret %struct.Memory* %16
}


define %struct.Memory* @routine_movq__rax__0x602068(%struct.State*  dereferenceable(3376), i64, %struct.Memory* ) #19 {
block_400488:
  %3 = getelementptr inbounds %struct.State, %struct.State* %0, i32 0, i32 6
  %4 = getelementptr inbounds %struct.GPR, %struct.GPR* %3, i32 0, i32 33
  %5 = getelementptr inbounds %struct.Reg, %struct.Reg* %4, i32 0, i32 0
  %PC = bitcast %union.anon* %5 to i64*
  %6 = getelementptr inbounds %struct.State, %struct.State* %0, i32 0, i32 6
  %7 = getelementptr inbounds %struct.GPR, %struct.GPR* %6, i32 0, i32 1
  %8 = getelementptr inbounds %struct.Reg, %struct.Reg* %7, i32 0, i32 0
  %RAX = bitcast %union.anon* %8 to i64*
  %9 = load i64, i64* %RAX
  %10 = load i64, i64* %PC
  %11 = add i64 %10, 8
  store i64 %11, i64* %PC
  %12 = call %struct.Memory* @_ZN12_GLOBAL__N_1L3MOVI3MnWImE2RnImEEEP6MemoryS6_R5StateT_T0_(%struct.Memory* %2, %struct.State* %0, i64 6299752, i64 %9)
  ret %struct.Memory* %12
}

define internal %struct.Memory* @_ZN12_GLOBAL__N_1L3MOVI3RnWImE2MnImEEEP6MemoryS6_R5StateT_T0_(%struct.Memory* returned, %struct.State* nocapture readnone dereferenceable(3376), i64* nocapture, i64) #0 {
  %5 = inttoptr i64 %3 to i64*
  %6 = load i64, i64* %5
  store i64 %6, i64* %2, align 8
  ret %struct.Memory* %0
}

define %struct.Memory* @routine_movq_0x6049f8___rax(%struct.State*  dereferenceable(3376), i64, %struct.Memory* ) #19 {
block_400488:
  %3 = getelementptr inbounds %struct.State, %struct.State* %0, i32 0, i32 6
  %4 = getelementptr inbounds %struct.GPR, %struct.GPR* %3, i32 0, i32 33
  %5 = getelementptr inbounds %struct.Reg, %struct.Reg* %4, i32 0, i32 0
  %PC = bitcast %union.anon* %5 to i64*
  %6 = getelementptr inbounds %struct.State, %struct.State* %0, i32 0, i32 6
  %7 = getelementptr inbounds %struct.GPR, %struct.GPR* %6, i32 0, i32 1
  %8 = getelementptr inbounds %struct.Reg, %struct.Reg* %7, i32 0, i32 0
  %RAX = bitcast %union.anon* %8 to i64*
  %9 = load i64, i64* %PC
  %10 = add i64 %9, 8
  store i64 %10, i64* %PC
  %11 = call %struct.Memory* @_ZN12_GLOBAL__N_1L3MOVI3RnWImE2MnImEEEP6MemoryS6_R5StateT_T0_(%struct.Memory* %2, %struct.State* %0, i64* %RAX, i64 6310392)
  ret %struct.Memory* %11
}


define %struct.Memory* @routine_movq_0x602068___rdx(%struct.State*  dereferenceable(3376), i64, %struct.Memory* ) #19 {
block_400488:
  %3 = getelementptr inbounds %struct.State, %struct.State* %0, i32 0, i32 6
  %4 = getelementptr inbounds %struct.GPR, %struct.GPR* %3, i32 0, i32 33
  %5 = getelementptr inbounds %struct.Reg, %struct.Reg* %4, i32 0, i32 0
  %PC = bitcast %union.anon* %5 to i64*
  %6 = getelementptr inbounds %struct.State, %struct.State* %0, i32 0, i32 6
  %7 = getelementptr inbounds %struct.GPR, %struct.GPR* %6, i32 0, i32 7
  %8 = getelementptr inbounds %struct.Reg, %struct.Reg* %7, i32 0, i32 0
  %RDX = bitcast %union.anon* %8 to i64*
  %9 = load i64, i64* %PC
  %10 = add i64 %9, 8
  store i64 %10, i64* %PC
  %11 = call %struct.Memory* @_ZN12_GLOBAL__N_1L3MOVI3RnWImE2MnImEEEP6MemoryS6_R5StateT_T0_(%struct.Memory* %2, %struct.State* %0, i64* %RDX, i64 6299752)
  ret %struct.Memory* %11
}


define %struct.Memory* @routine_movq__rax____rdx_(%struct.State*  dereferenceable(3376), i64, %struct.Memory* ) #19 {
block_400488:
  %3 = getelementptr inbounds %struct.State, %struct.State* %0, i32 0, i32 6
  %4 = getelementptr inbounds %struct.GPR, %struct.GPR* %3, i32 0, i32 33
  %5 = getelementptr inbounds %struct.Reg, %struct.Reg* %4, i32 0, i32 0
  %PC = bitcast %union.anon* %5 to i64*
  %6 = getelementptr inbounds %struct.State, %struct.State* %0, i32 0, i32 6
  %7 = getelementptr inbounds %struct.GPR, %struct.GPR* %6, i32 0, i32 1
  %8 = getelementptr inbounds %struct.Reg, %struct.Reg* %7, i32 0, i32 0
  %RAX = bitcast %union.anon* %8 to i64*
  %9 = getelementptr inbounds %struct.State, %struct.State* %0, i32 0, i32 6
  %10 = getelementptr inbounds %struct.GPR, %struct.GPR* %9, i32 0, i32 7
  %11 = getelementptr inbounds %struct.Reg, %struct.Reg* %10, i32 0, i32 0
  %RDX = bitcast %union.anon* %11 to i64*
  %12 = load i64, i64* %RDX
  %13 = load i64, i64* %RAX
  %14 = load i64, i64* %PC
  %15 = add i64 %14, 3
  store i64 %15, i64* %PC
  %16 = call %struct.Memory* @_ZN12_GLOBAL__N_1L3MOVI3MnWImE2RnImEEEP6MemoryS6_R5StateT_T0_(%struct.Memory* %2, %struct.State* %0, i64 %12, i64 %13)
  ret %struct.Memory* %16
}


define %struct.Memory* @routine_movq_0x602068___rax(%struct.State*  dereferenceable(3376), i64, %struct.Memory* ) #19 {
block_400488:
  %3 = getelementptr inbounds %struct.State, %struct.State* %0, i32 0, i32 6
  %4 = getelementptr inbounds %struct.GPR, %struct.GPR* %3, i32 0, i32 33
  %5 = getelementptr inbounds %struct.Reg, %struct.Reg* %4, i32 0, i32 0
  %PC = bitcast %union.anon* %5 to i64*
  %6 = getelementptr inbounds %struct.State, %struct.State* %0, i32 0, i32 6
  %7 = getelementptr inbounds %struct.GPR, %struct.GPR* %6, i32 0, i32 1
  %8 = getelementptr inbounds %struct.Reg, %struct.Reg* %7, i32 0, i32 0
  %RAX = bitcast %union.anon* %8 to i64*
  %9 = load i64, i64* %PC
  %10 = add i64 %9, 8
  store i64 %10, i64* %PC
  %11 = call %struct.Memory* @_ZN12_GLOBAL__N_1L3MOVI3RnWImE2MnImEEEP6MemoryS6_R5StateT_T0_(%struct.Memory* %2, %struct.State* %0, i64* %RAX, i64 6299752)
  ret %struct.Memory* %11
}


define %struct.Memory* @routine_movl__0x0__0x8__rax_(%struct.State*  dereferenceable(3376), i64, %struct.Memory* ) #19 {
block_400488:
  %3 = getelementptr inbounds %struct.State, %struct.State* %0, i32 0, i32 6
  %4 = getelementptr inbounds %struct.GPR, %struct.GPR* %3, i32 0, i32 33
  %5 = getelementptr inbounds %struct.Reg, %struct.Reg* %4, i32 0, i32 0
  %PC = bitcast %union.anon* %5 to i64*
  %6 = getelementptr inbounds %struct.State, %struct.State* %0, i32 0, i32 6
  %7 = getelementptr inbounds %struct.GPR, %struct.GPR* %6, i32 0, i32 1
  %8 = getelementptr inbounds %struct.Reg, %struct.Reg* %7, i32 0, i32 0
  %RAX = bitcast %union.anon* %8 to i64*
  %9 = load i64, i64* %RAX
  %10 = add i64 %9, 8
  %11 = load i64, i64* %PC
  %12 = add i64 %11, 7
  store i64 %12, i64* %PC
  %13 = call %struct.Memory* @_ZN12_GLOBAL__N_1L3MOVI3MnWIjE2InIjEEEP6MemoryS6_R5StateT_T0_(%struct.Memory* %2, %struct.State* %0, i64 %10, i64 0)
  ret %struct.Memory* %13
}




define %struct.Memory* @routine_movl__0x2711__0xc__rax_(%struct.State*  dereferenceable(3376), i64, %struct.Memory* ) #19 {
block_400488:
  %3 = getelementptr inbounds %struct.State, %struct.State* %0, i32 0, i32 6
  %4 = getelementptr inbounds %struct.GPR, %struct.GPR* %3, i32 0, i32 33
  %5 = getelementptr inbounds %struct.Reg, %struct.Reg* %4, i32 0, i32 0
  %PC = bitcast %union.anon* %5 to i64*
  %6 = getelementptr inbounds %struct.State, %struct.State* %0, i32 0, i32 6
  %7 = getelementptr inbounds %struct.GPR, %struct.GPR* %6, i32 0, i32 1
  %8 = getelementptr inbounds %struct.Reg, %struct.Reg* %7, i32 0, i32 0
  %RAX = bitcast %union.anon* %8 to i64*
  %9 = load i64, i64* %RAX
  %10 = add i64 %9, 12
  %11 = load i64, i64* %PC
  %12 = add i64 %11, 7
  store i64 %12, i64* %PC
  %13 = call %struct.Memory* @_ZN12_GLOBAL__N_1L3MOVI3MnWIjE2InIjEEEP6MemoryS6_R5StateT_T0_(%struct.Memory* %2, %struct.State* %0, i64 %10, i64 10001)
  ret %struct.Memory* %13
}




define %struct.Memory* @routine_movl__0x28__0x10__rax_(%struct.State*  dereferenceable(3376), i64, %struct.Memory* ) #19 {
block_400488:
  %3 = getelementptr inbounds %struct.State, %struct.State* %0, i32 0, i32 6
  %4 = getelementptr inbounds %struct.GPR, %struct.GPR* %3, i32 0, i32 33
  %5 = getelementptr inbounds %struct.Reg, %struct.Reg* %4, i32 0, i32 0
  %PC = bitcast %union.anon* %5 to i64*
  %6 = getelementptr inbounds %struct.State, %struct.State* %0, i32 0, i32 6
  %7 = getelementptr inbounds %struct.GPR, %struct.GPR* %6, i32 0, i32 1
  %8 = getelementptr inbounds %struct.Reg, %struct.Reg* %7, i32 0, i32 0
  %RAX = bitcast %union.anon* %8 to i64*
  %9 = load i64, i64* %RAX
  %10 = add i64 %9, 16
  %11 = load i64, i64* %PC
  %12 = add i64 %11, 7
  store i64 %12, i64* %PC
  %13 = call %struct.Memory* @_ZN12_GLOBAL__N_1L3MOVI3MnWIjE2InIjEEEP6MemoryS6_R5StateT_T0_(%struct.Memory* %2, %struct.State* %0, i64 %10, i64 40)
  ret %struct.Memory* %13
}



define internal %struct.Memory* @_ZN12_GLOBAL__N_1L3ADDI3RnWImE2RnImE2InImEEEP6MemoryS8_R5StateT_T0_T1_(%struct.Memory* readnone returned, %struct.State* nocapture dereferenceable(3376), i64* nocapture, i64, i64) #0 {
  %6 = add i64 %4, %3
  store i64 %6, i64* %2, align 8
  %7 = icmp ult i64 %6, %3
  %8 = icmp ult i64 %6, %4
  %9 = or i1 %7, %8
  %10 = zext i1 %9 to i8
  %11 = getelementptr inbounds %struct.State, %struct.State* %1, i64 0, i32 2, i32 1
  store i8 %10, i8* %11, align 1
  %12 = trunc i64 %6 to i32
  %13 = and i32 %12, 255
  %14 = tail call i32 @llvm.ctpop.i32(i32 %13) #22
  %15 = trunc i32 %14 to i8
  %16 = and i8 %15, 1
  %17 = xor i8 %16, 1
  %18 = getelementptr inbounds %struct.State, %struct.State* %1, i64 0, i32 2, i32 3
  store i8 %17, i8* %18, align 1
  %19 = xor i64 %4, %3
  %20 = xor i64 %19, %6
  %21 = lshr i64 %20, 4
  %22 = trunc i64 %21 to i8
  %23 = and i8 %22, 1
  %24 = getelementptr inbounds %struct.State, %struct.State* %1, i64 0, i32 2, i32 5
  store i8 %23, i8* %24, align 1
  %25 = icmp eq i64 %6, 0
  %26 = zext i1 %25 to i8
  %27 = getelementptr inbounds %struct.State, %struct.State* %1, i64 0, i32 2, i32 7
  store i8 %26, i8* %27, align 1
  %28 = lshr i64 %6, 63
  %29 = trunc i64 %28 to i8
  %30 = getelementptr inbounds %struct.State, %struct.State* %1, i64 0, i32 2, i32 9
  store i8 %29, i8* %30, align 1
  %31 = lshr i64 %3, 63
  %32 = lshr i64 %4, 63
  %33 = xor i64 %28, %31
  %34 = xor i64 %28, %32
  %35 = add   i64 %33, %34
  %36 = icmp eq i64 %35, 2
  %37 = zext i1 %36 to i8
  %38 = getelementptr inbounds %struct.State, %struct.State* %1, i64 0, i32 2, i32 13
  store i8 %37, i8* %38, align 1
  ret %struct.Memory* %0
}

define %struct.Memory* @routine_addq__0x14___rax(%struct.State*  dereferenceable(3376), i64, %struct.Memory* ) #19 {
block_400488:
  %3 = getelementptr inbounds %struct.State, %struct.State* %0, i32 0, i32 6
  %4 = getelementptr inbounds %struct.GPR, %struct.GPR* %3, i32 0, i32 33
  %5 = getelementptr inbounds %struct.Reg, %struct.Reg* %4, i32 0, i32 0
  %PC = bitcast %union.anon* %5 to i64*
  %6 = getelementptr inbounds %struct.State, %struct.State* %0, i32 0, i32 6
  %7 = getelementptr inbounds %struct.GPR, %struct.GPR* %6, i32 0, i32 1
  %8 = getelementptr inbounds %struct.Reg, %struct.Reg* %7, i32 0, i32 0
  %RAX = bitcast %union.anon* %8 to i64*
  %9 = load i64, i64* %RAX
  %10 = load i64, i64* %PC
  %11 = add i64 %10, 4
  store i64 %11, i64* %PC
  %12 = call %struct.Memory* @_ZN12_GLOBAL__N_1L3ADDI3RnWImE2RnImE2InImEEEP6MemoryS8_R5StateT_T0_T1_(%struct.Memory* %2, %struct.State* %0, i64* %RAX, i64 %9, i64 20)
  ret %struct.Memory* %12
}


define %struct.Memory* @routine_movl__0x400e74___ecx(%struct.State*  dereferenceable(3376), i64, %struct.Memory* ) #19 {
block_400488:
  %3 = getelementptr inbounds %struct.State, %struct.State* %0, i32 0, i32 6
  %4 = getelementptr inbounds %struct.GPR, %struct.GPR* %3, i32 0, i32 33
  %5 = getelementptr inbounds %struct.Reg, %struct.Reg* %4, i32 0, i32 0
  %PC = bitcast %union.anon* %5 to i64*
  %6 = getelementptr inbounds %struct.State, %struct.State* %0, i32 0, i32 6
  %7 = getelementptr inbounds %struct.GPR, %struct.GPR* %6, i32 0, i32 5
  %8 = getelementptr inbounds %struct.Reg, %struct.Reg* %7, i32 0, i32 0
  %RCX = bitcast %union.anon* %8 to i64*
  %9 = load i64, i64* %PC
  %10 = add i64 %9, 5
  store i64 %10, i64* %PC
  %11 = call %struct.Memory* @_ZN12_GLOBAL__N_1L3MOVI3RnWImE2InIjEEEP6MemoryS6_R5StateT_T0_(%struct.Memory* %2, %struct.State* %0, i64* %RCX, i64 4198004)
  ret %struct.Memory* %11
}


define %struct.Memory* @routine_movl__ecx___esi(%struct.State*  dereferenceable(3376), i64, %struct.Memory* ) #19 {
block_400488:
  %3 = getelementptr inbounds %struct.State, %struct.State* %0, i32 0, i32 6
  %4 = getelementptr inbounds %struct.GPR, %struct.GPR* %3, i32 0, i32 33
  %5 = getelementptr inbounds %struct.Reg, %struct.Reg* %4, i32 0, i32 0
  %PC = bitcast %union.anon* %5 to i64*
  %6 = getelementptr inbounds %struct.State, %struct.State* %0, i32 0, i32 6
  %7 = getelementptr inbounds %struct.GPR, %struct.GPR* %6, i32 0, i32 5
  %8 = getelementptr inbounds %struct.Reg, %struct.Reg* %7, i32 0, i32 0
  %ECX = bitcast %union.anon* %8 to i32*
  %9 = getelementptr inbounds %struct.State, %struct.State* %0, i32 0, i32 6
  %10 = getelementptr inbounds %struct.GPR, %struct.GPR* %9, i32 0, i32 9
  %11 = getelementptr inbounds %struct.Reg, %struct.Reg* %10, i32 0, i32 0
  %RSI = bitcast %union.anon* %11 to i64*
  %12 = load i32, i32* %ECX
  %13 = zext i32 %12 to i64
  %14 = load i64, i64* %PC
  %15 = add i64 %14, 2
  store i64 %15, i64* %PC
  %16 = call %struct.Memory* @_ZN12_GLOBAL__N_1L3MOVI3RnWImE2RnIjEEEP6MemoryS6_R5StateT_T0_(%struct.Memory* %2, %struct.State* %0, i64* %RSI, i64 %13)
  ret %struct.Memory* %16
}


define %struct.Memory* @routine_movq__rdi__MINUS0x88__rbp_(%struct.State*  dereferenceable(3376), i64, %struct.Memory* ) #19 {
block_400488:
  %3 = getelementptr inbounds %struct.State, %struct.State* %0, i32 0, i32 6
  %4 = getelementptr inbounds %struct.GPR, %struct.GPR* %3, i32 0, i32 33
  %5 = getelementptr inbounds %struct.Reg, %struct.Reg* %4, i32 0, i32 0
  %PC = bitcast %union.anon* %5 to i64*
  %6 = getelementptr inbounds %struct.State, %struct.State* %0, i32 0, i32 6
  %7 = getelementptr inbounds %struct.GPR, %struct.GPR* %6, i32 0, i32 11
  %8 = getelementptr inbounds %struct.Reg, %struct.Reg* %7, i32 0, i32 0
  %RDI = bitcast %union.anon* %8 to i64*
  %9 = getelementptr inbounds %struct.State, %struct.State* %0, i32 0, i32 6
  %10 = getelementptr inbounds %struct.GPR, %struct.GPR* %9, i32 0, i32 15
  %11 = getelementptr inbounds %struct.Reg, %struct.Reg* %10, i32 0, i32 0
  %RBP = bitcast %union.anon* %11 to i64*
  %12 = load i64, i64* %RBP
  %13 = sub i64 %12, 136
  %14 = load i64, i64* %RDI
  %15 = load i64, i64* %PC
  %16 = add i64 %15, 7
  store i64 %16, i64* %PC
  %17 = call %struct.Memory* @_ZN12_GLOBAL__N_1L3MOVI3MnWImE2RnImEEEP6MemoryS6_R5StateT_T0_(%struct.Memory* %2, %struct.State* %0, i64 %13, i64 %14)
  ret %struct.Memory* %17
}


define %struct.Memory* @routine_movq__rax___rdi(%struct.State*  dereferenceable(3376), i64, %struct.Memory* ) #19 {
block_400488:
  %3 = getelementptr inbounds %struct.State, %struct.State* %0, i32 0, i32 6
  %4 = getelementptr inbounds %struct.GPR, %struct.GPR* %3, i32 0, i32 33
  %5 = getelementptr inbounds %struct.Reg, %struct.Reg* %4, i32 0, i32 0
  %PC = bitcast %union.anon* %5 to i64*
  %6 = getelementptr inbounds %struct.State, %struct.State* %0, i32 0, i32 6
  %7 = getelementptr inbounds %struct.GPR, %struct.GPR* %6, i32 0, i32 1
  %8 = getelementptr inbounds %struct.Reg, %struct.Reg* %7, i32 0, i32 0
  %RAX = bitcast %union.anon* %8 to i64*
  %9 = getelementptr inbounds %struct.State, %struct.State* %0, i32 0, i32 6
  %10 = getelementptr inbounds %struct.GPR, %struct.GPR* %9, i32 0, i32 11
  %11 = getelementptr inbounds %struct.Reg, %struct.Reg* %10, i32 0, i32 0
  %RDI = bitcast %union.anon* %11 to i64*
  %12 = load i64, i64* %RAX
  %13 = load i64, i64* %PC
  %14 = add i64 %13, 3
  store i64 %14, i64* %PC
  %15 = call %struct.Memory* @_ZN12_GLOBAL__N_1L3MOVI3RnWImE2RnImEEEP6MemoryS6_R5StateT_T0_(%struct.Memory* %2, %struct.State* %0, i64* %RDI, i64 %12)
  ret %struct.Memory* %15
}


define %struct.Memory* @routine_callq_.strcpy_plt(%struct.State*  dereferenceable(3376), i64, %struct.Memory*, i64 %rel_off1, i64 %rel_off2, i64 %rel_off3) {
block_400488:
  %3 = getelementptr inbounds %struct.State, %struct.State* %0, i32 0, i32 6
  %4 = getelementptr inbounds %struct.GPR, %struct.GPR* %3, i32 0, i32 33
  %5 = getelementptr inbounds %struct.Reg, %struct.Reg* %4, i32 0, i32 0
  %PC = bitcast %union.anon* %5 to i64*
  %6 = load i64, i64* %PC
  %7 = add i64 %6, %rel_off1
  %8 = load i64, i64* %PC
  %9 = add i64 %8, %rel_off2
  %10 = load i64, i64* %PC
  %11 = add i64 %10, %rel_off3
  store i64 %11, i64* %PC
  %12 = call %struct.Memory* @_ZN12_GLOBAL__N_1L4CALLI2InImEEEP6MemoryS4_R5StateT_S2_(%struct.Memory* %2, %struct.State* %0, i64 %7, i64 %9)
  ret %struct.Memory* %12
}


define %struct.Memory* @routine_movl__0x400e93___ecx(%struct.State*  dereferenceable(3376), i64, %struct.Memory* ) #19 {
block_400488:
  %3 = getelementptr inbounds %struct.State, %struct.State* %0, i32 0, i32 6
  %4 = getelementptr inbounds %struct.GPR, %struct.GPR* %3, i32 0, i32 33
  %5 = getelementptr inbounds %struct.Reg, %struct.Reg* %4, i32 0, i32 0
  %PC = bitcast %union.anon* %5 to i64*
  %6 = getelementptr inbounds %struct.State, %struct.State* %0, i32 0, i32 6
  %7 = getelementptr inbounds %struct.GPR, %struct.GPR* %6, i32 0, i32 5
  %8 = getelementptr inbounds %struct.Reg, %struct.Reg* %7, i32 0, i32 0
  %RCX = bitcast %union.anon* %8 to i64*
  %9 = load i64, i64* %PC
  %10 = add i64 %9, 5
  store i64 %10, i64* %PC
  %11 = call %struct.Memory* @_ZN12_GLOBAL__N_1L3MOVI3RnWImE2InIjEEEP6MemoryS6_R5StateT_T0_(%struct.Memory* %2, %struct.State* %0, i64* %RCX, i64 4198035)
  ret %struct.Memory* %11
}




define %struct.Memory* @routine_movq_MINUS0x88__rbp____rdi(%struct.State*  dereferenceable(3376), i64, %struct.Memory* ) #19 {
block_400488:
  %3 = getelementptr inbounds %struct.State, %struct.State* %0, i32 0, i32 6
  %4 = getelementptr inbounds %struct.GPR, %struct.GPR* %3, i32 0, i32 33
  %5 = getelementptr inbounds %struct.Reg, %struct.Reg* %4, i32 0, i32 0
  %PC = bitcast %union.anon* %5 to i64*
  %6 = getelementptr inbounds %struct.State, %struct.State* %0, i32 0, i32 6
  %7 = getelementptr inbounds %struct.GPR, %struct.GPR* %6, i32 0, i32 11
  %8 = getelementptr inbounds %struct.Reg, %struct.Reg* %7, i32 0, i32 0
  %RDI = bitcast %union.anon* %8 to i64*
  %9 = getelementptr inbounds %struct.State, %struct.State* %0, i32 0, i32 6
  %10 = getelementptr inbounds %struct.GPR, %struct.GPR* %9, i32 0, i32 15
  %11 = getelementptr inbounds %struct.Reg, %struct.Reg* %10, i32 0, i32 0
  %RBP = bitcast %union.anon* %11 to i64*
  %12 = load i64, i64* %RBP
  %13 = sub i64 %12, 136
  %14 = load i64, i64* %PC
  %15 = add i64 %14, 7
  store i64 %15, i64* %PC
  %16 = call %struct.Memory* @_ZN12_GLOBAL__N_1L3MOVI3RnWImE2MnImEEEP6MemoryS6_R5StateT_T0_(%struct.Memory* %2, %struct.State* %0, i64* %RDI, i64 %13)
  ret %struct.Memory* %16
}


define %struct.Memory* @routine_movq__rax__MINUS0x90__rbp_(%struct.State*  dereferenceable(3376), i64, %struct.Memory* ) #19 {
block_400488:
  %3 = getelementptr inbounds %struct.State, %struct.State* %0, i32 0, i32 6
  %4 = getelementptr inbounds %struct.GPR, %struct.GPR* %3, i32 0, i32 33
  %5 = getelementptr inbounds %struct.Reg, %struct.Reg* %4, i32 0, i32 0
  %PC = bitcast %union.anon* %5 to i64*
  %6 = getelementptr inbounds %struct.State, %struct.State* %0, i32 0, i32 6
  %7 = getelementptr inbounds %struct.GPR, %struct.GPR* %6, i32 0, i32 1
  %8 = getelementptr inbounds %struct.Reg, %struct.Reg* %7, i32 0, i32 0
  %RAX = bitcast %union.anon* %8 to i64*
  %9 = getelementptr inbounds %struct.State, %struct.State* %0, i32 0, i32 6
  %10 = getelementptr inbounds %struct.GPR, %struct.GPR* %9, i32 0, i32 15
  %11 = getelementptr inbounds %struct.Reg, %struct.Reg* %10, i32 0, i32 0
  %RBP = bitcast %union.anon* %11 to i64*
  %12 = load i64, i64* %RBP
  %13 = sub i64 %12, 144
  %14 = load i64, i64* %RAX
  %15 = load i64, i64* %PC
  %16 = add i64 %15, 7
  store i64 %16, i64* %PC
  %17 = call %struct.Memory* @_ZN12_GLOBAL__N_1L3MOVI3MnWImE2RnImEEEP6MemoryS6_R5StateT_T0_(%struct.Memory* %2, %struct.State* %0, i64 %13, i64 %14)
  ret %struct.Memory* %17
}




define %struct.Memory* @routine_movl__0xa__0x6026ec(%struct.State*  dereferenceable(3376), i64, %struct.Memory* ) #19 {
block_400488:
  %3 = getelementptr inbounds %struct.State, %struct.State* %0, i32 0, i32 6
  %4 = getelementptr inbounds %struct.GPR, %struct.GPR* %3, i32 0, i32 33
  %5 = getelementptr inbounds %struct.Reg, %struct.Reg* %4, i32 0, i32 0
  %PC = bitcast %union.anon* %5 to i64*
  %6 = load i64, i64* %PC
  %7 = add i64 %6, 11
  store i64 %7, i64* %PC
  %8 = call %struct.Memory* @_ZN12_GLOBAL__N_1L3MOVI3MnWIjE2InIjEEEP6MemoryS6_R5StateT_T0_(%struct.Memory* %2, %struct.State* %0, i64 6301420, i64 10)
  ret %struct.Memory* %8
}


define %struct.Memory* @routine_movq__rax__MINUS0x98__rbp_(%struct.State*  dereferenceable(3376), i64, %struct.Memory* ) #19 {
block_400488:
  %3 = getelementptr inbounds %struct.State, %struct.State* %0, i32 0, i32 6
  %4 = getelementptr inbounds %struct.GPR, %struct.GPR* %3, i32 0, i32 33
  %5 = getelementptr inbounds %struct.Reg, %struct.Reg* %4, i32 0, i32 0
  %PC = bitcast %union.anon* %5 to i64*
  %6 = getelementptr inbounds %struct.State, %struct.State* %0, i32 0, i32 6
  %7 = getelementptr inbounds %struct.GPR, %struct.GPR* %6, i32 0, i32 1
  %8 = getelementptr inbounds %struct.Reg, %struct.Reg* %7, i32 0, i32 0
  %RAX = bitcast %union.anon* %8 to i64*
  %9 = getelementptr inbounds %struct.State, %struct.State* %0, i32 0, i32 6
  %10 = getelementptr inbounds %struct.GPR, %struct.GPR* %9, i32 0, i32 15
  %11 = getelementptr inbounds %struct.Reg, %struct.Reg* %10, i32 0, i32 0
  %RBP = bitcast %union.anon* %11 to i64*
  %12 = load i64, i64* %RBP
  %13 = sub i64 %12, 152
  %14 = load i64, i64* %RAX
  %15 = load i64, i64* %PC
  %16 = add i64 %15, 7
  store i64 %16, i64* %PC
  %17 = call %struct.Memory* @_ZN12_GLOBAL__N_1L3MOVI3MnWImE2RnImEEEP6MemoryS6_R5StateT_T0_(%struct.Memory* %2, %struct.State* %0, i64 %13, i64 %14)
  ret %struct.Memory* %17
}










define %struct.Memory* @routine_jae_.L_4008d4(%struct.State*  dereferenceable(3376), i64, %struct.Memory*, i8* %BRANCH_TAKEN, i64 %rel_off1, i64 %rel_off2, i64 %rel_off3) {
block_400488:
  %3 = getelementptr inbounds %struct.State, %struct.State* %0, i32 0, i32 6
  %4 = getelementptr inbounds %struct.GPR, %struct.GPR* %3, i32 0, i32 33
  %5 = getelementptr inbounds %struct.Reg, %struct.Reg* %4, i32 0, i32 0
  %PC = bitcast %union.anon* %5 to i64*
  %6 = load i64, i64* %PC
  %7 = add i64 %6, %rel_off1
  %8 = load i64, i64* %PC
  %9 = add i64 %8, %rel_off2
  %10 = load i64, i64* %PC
  %11 = add i64 %10, %rel_off3
  store i64 %11, i64* %PC
  %12 = call %struct.Memory* @_ZN12_GLOBAL__N_1L3JNBEP6MemoryR5State3RnWIhE2InImES7_(%struct.Memory* %2, %struct.State* %0, i8* %BRANCH_TAKEN, i64 %7, i64 %9)
  ret %struct.Memory* %12
}


define %struct.Memory* @routine_callq_.Proc5(%struct.State*  dereferenceable(3376), i64, %struct.Memory*, i64 %rel_off1, i64 %rel_off2, i64 %rel_off3) {
block_400488:
  %3 = getelementptr inbounds %struct.State, %struct.State* %0, i32 0, i32 6
  %4 = getelementptr inbounds %struct.GPR, %struct.GPR* %3, i32 0, i32 33
  %5 = getelementptr inbounds %struct.Reg, %struct.Reg* %4, i32 0, i32 0
  %PC = bitcast %union.anon* %5 to i64*
  %6 = load i64, i64* %PC
  %7 = add i64 %6, %rel_off1
  %8 = load i64, i64* %PC
  %9 = add i64 %8, %rel_off2
  %10 = load i64, i64* %PC
  %11 = add i64 %10, %rel_off3
  store i64 %11, i64* %PC
  %12 = call %struct.Memory* @_ZN12_GLOBAL__N_1L4CALLI2InImEEEP6MemoryS4_R5StateT_S2_(%struct.Memory* %2, %struct.State* %0, i64 %7, i64 %9)
  ret %struct.Memory* %12
}


define %struct.Memory* @routine_movl__eax__MINUS0x9c__rbp_(%struct.State*  dereferenceable(3376), i64, %struct.Memory* ) #19 {
block_400488:
  %3 = getelementptr inbounds %struct.State, %struct.State* %0, i32 0, i32 6
  %4 = getelementptr inbounds %struct.GPR, %struct.GPR* %3, i32 0, i32 33
  %5 = getelementptr inbounds %struct.Reg, %struct.Reg* %4, i32 0, i32 0
  %PC = bitcast %union.anon* %5 to i64*
  %6 = getelementptr inbounds %struct.State, %struct.State* %0, i32 0, i32 6
  %7 = getelementptr inbounds %struct.GPR, %struct.GPR* %6, i32 0, i32 1
  %8 = getelementptr inbounds %struct.Reg, %struct.Reg* %7, i32 0, i32 0
  %EAX = bitcast %union.anon* %8 to i32*
  %9 = getelementptr inbounds %struct.State, %struct.State* %0, i32 0, i32 6
  %10 = getelementptr inbounds %struct.GPR, %struct.GPR* %9, i32 0, i32 15
  %11 = getelementptr inbounds %struct.Reg, %struct.Reg* %10, i32 0, i32 0
  %RBP = bitcast %union.anon* %11 to i64*
  %12 = load i64, i64* %RBP
  %13 = sub i64 %12, 156
  %14 = load i32, i32* %EAX
  %15 = zext i32 %14 to i64
  %16 = load i64, i64* %PC
  %17 = add i64 %16, 6
  store i64 %17, i64* %PC
  %18 = call %struct.Memory* @_ZN12_GLOBAL__N_1L3MOVI3MnWIjE2RnIjEEEP6MemoryS6_R5StateT_T0_(%struct.Memory* %2, %struct.State* %0, i64 %13, i64 %15)
  ret %struct.Memory* %18
}


define %struct.Memory* @routine_callq_.Proc4(%struct.State*  dereferenceable(3376), i64, %struct.Memory*, i64 %rel_off1, i64 %rel_off2, i64 %rel_off3) {
block_400488:
  %3 = getelementptr inbounds %struct.State, %struct.State* %0, i32 0, i32 6
  %4 = getelementptr inbounds %struct.GPR, %struct.GPR* %3, i32 0, i32 33
  %5 = getelementptr inbounds %struct.Reg, %struct.Reg* %4, i32 0, i32 0
  %PC = bitcast %union.anon* %5 to i64*
  %6 = load i64, i64* %PC
  %7 = add i64 %6, %rel_off1
  %8 = load i64, i64* %PC
  %9 = add i64 %8, %rel_off2
  %10 = load i64, i64* %PC
  %11 = add i64 %10, %rel_off3
  store i64 %11, i64* %PC
  %12 = call %struct.Memory* @_ZN12_GLOBAL__N_1L4CALLI2InImEEEP6MemoryS4_R5StateT_S2_(%struct.Memory* %2, %struct.State* %0, i64 %7, i64 %9)
  ret %struct.Memory* %12
}


define %struct.Memory* @routine_leaq_MINUS0x60__rbp____rcx(%struct.State*  dereferenceable(3376), i64, %struct.Memory* ) #19 {
block_400488:
  %3 = getelementptr inbounds %struct.State, %struct.State* %0, i32 0, i32 6
  %4 = getelementptr inbounds %struct.GPR, %struct.GPR* %3, i32 0, i32 33
  %5 = getelementptr inbounds %struct.Reg, %struct.Reg* %4, i32 0, i32 0
  %PC = bitcast %union.anon* %5 to i64*
  %6 = getelementptr inbounds %struct.State, %struct.State* %0, i32 0, i32 6
  %7 = getelementptr inbounds %struct.GPR, %struct.GPR* %6, i32 0, i32 5
  %8 = getelementptr inbounds %struct.Reg, %struct.Reg* %7, i32 0, i32 0
  %RCX = bitcast %union.anon* %8 to i64*
  %9 = getelementptr inbounds %struct.State, %struct.State* %0, i32 0, i32 6
  %10 = getelementptr inbounds %struct.GPR, %struct.GPR* %9, i32 0, i32 15
  %11 = getelementptr inbounds %struct.Reg, %struct.Reg* %10, i32 0, i32 0
  %RBP = bitcast %union.anon* %11 to i64*
  %12 = load i64, i64* %RBP
  %13 = sub i64 %12, 96
  %14 = load i64, i64* %PC
  %15 = add i64 %14, 4
  store i64 %15, i64* %PC
  %16 = call %struct.Memory* @_ZN12_GLOBAL__N_1L3LEAI3RnWImE2MnIhEmEEP6MemoryS6_R5StateT_T0_(%struct.Memory* %2, %struct.State* %0, i64* %RCX, i64 %13)
  ret %struct.Memory* %16
}




define %struct.Memory* @routine_movl__0x2__MINUS0x8__rbp_(%struct.State*  dereferenceable(3376), i64, %struct.Memory* ) #19 {
block_400488:
  %3 = getelementptr inbounds %struct.State, %struct.State* %0, i32 0, i32 6
  %4 = getelementptr inbounds %struct.GPR, %struct.GPR* %3, i32 0, i32 33
  %5 = getelementptr inbounds %struct.Reg, %struct.Reg* %4, i32 0, i32 0
  %PC = bitcast %union.anon* %5 to i64*
  %6 = getelementptr inbounds %struct.State, %struct.State* %0, i32 0, i32 6
  %7 = getelementptr inbounds %struct.GPR, %struct.GPR* %6, i32 0, i32 15
  %8 = getelementptr inbounds %struct.Reg, %struct.Reg* %7, i32 0, i32 0
  %RBP = bitcast %union.anon* %8 to i64*
  %9 = load i64, i64* %RBP
  %10 = sub i64 %9, 8
  %11 = load i64, i64* %PC
  %12 = add i64 %11, 7
  store i64 %12, i64* %PC
  %13 = call %struct.Memory* @_ZN12_GLOBAL__N_1L3MOVI3MnWIjE2InIjEEEP6MemoryS6_R5StateT_T0_(%struct.Memory* %2, %struct.State* %0, i64 %10, i64 2)
  ret %struct.Memory* %13
}


define %struct.Memory* @routine_movl__0x3__MINUS0xc__rbp_(%struct.State*  dereferenceable(3376), i64, %struct.Memory* ) #19 {
block_400488:
  %3 = getelementptr inbounds %struct.State, %struct.State* %0, i32 0, i32 6
  %4 = getelementptr inbounds %struct.GPR, %struct.GPR* %3, i32 0, i32 33
  %5 = getelementptr inbounds %struct.Reg, %struct.Reg* %4, i32 0, i32 0
  %PC = bitcast %union.anon* %5 to i64*
  %6 = getelementptr inbounds %struct.State, %struct.State* %0, i32 0, i32 6
  %7 = getelementptr inbounds %struct.GPR, %struct.GPR* %6, i32 0, i32 15
  %8 = getelementptr inbounds %struct.Reg, %struct.Reg* %7, i32 0, i32 0
  %RBP = bitcast %union.anon* %8 to i64*
  %9 = load i64, i64* %RBP
  %10 = sub i64 %9, 12
  %11 = load i64, i64* %PC
  %12 = add i64 %11, 7
  store i64 %12, i64* %PC
  %13 = call %struct.Memory* @_ZN12_GLOBAL__N_1L3MOVI3MnWIjE2InIjEEEP6MemoryS6_R5StateT_T0_(%struct.Memory* %2, %struct.State* %0, i64 %10, i64 3)
  ret %struct.Memory* %13
}


define %struct.Memory* @routine_movl__0x400eb2___edx(%struct.State*  dereferenceable(3376), i64, %struct.Memory* ) #19 {
block_400488:
  %3 = getelementptr inbounds %struct.State, %struct.State* %0, i32 0, i32 6
  %4 = getelementptr inbounds %struct.GPR, %struct.GPR* %3, i32 0, i32 33
  %5 = getelementptr inbounds %struct.Reg, %struct.Reg* %4, i32 0, i32 0
  %PC = bitcast %union.anon* %5 to i64*
  %6 = getelementptr inbounds %struct.State, %struct.State* %0, i32 0, i32 6
  %7 = getelementptr inbounds %struct.GPR, %struct.GPR* %6, i32 0, i32 7
  %8 = getelementptr inbounds %struct.Reg, %struct.Reg* %7, i32 0, i32 0
  %RDX = bitcast %union.anon* %8 to i64*
  %9 = load i64, i64* %PC
  %10 = add i64 %9, 5
  store i64 %10, i64* %PC
  %11 = call %struct.Memory* @_ZN12_GLOBAL__N_1L3MOVI3RnWImE2InIjEEEP6MemoryS6_R5StateT_T0_(%struct.Memory* %2, %struct.State* %0, i64* %RDX, i64 4198066)
  ret %struct.Memory* %11
}


define %struct.Memory* @routine_movl__edx___esi(%struct.State*  dereferenceable(3376), i64, %struct.Memory* ) #19 {
block_400488:
  %3 = getelementptr inbounds %struct.State, %struct.State* %0, i32 0, i32 6
  %4 = getelementptr inbounds %struct.GPR, %struct.GPR* %3, i32 0, i32 33
  %5 = getelementptr inbounds %struct.Reg, %struct.Reg* %4, i32 0, i32 0
  %PC = bitcast %union.anon* %5 to i64*
  %6 = getelementptr inbounds %struct.State, %struct.State* %0, i32 0, i32 6
  %7 = getelementptr inbounds %struct.GPR, %struct.GPR* %6, i32 0, i32 7
  %8 = getelementptr inbounds %struct.Reg, %struct.Reg* %7, i32 0, i32 0
  %EDX = bitcast %union.anon* %8 to i32*
  %9 = getelementptr inbounds %struct.State, %struct.State* %0, i32 0, i32 6
  %10 = getelementptr inbounds %struct.GPR, %struct.GPR* %9, i32 0, i32 9
  %11 = getelementptr inbounds %struct.Reg, %struct.Reg* %10, i32 0, i32 0
  %RSI = bitcast %union.anon* %11 to i64*
  %12 = load i32, i32* %EDX
  %13 = zext i32 %12 to i64
  %14 = load i64, i64* %PC
  %15 = add i64 %14, 2
  store i64 %15, i64* %PC
  %16 = call %struct.Memory* @_ZN12_GLOBAL__N_1L3MOVI3RnWImE2RnIjEEEP6MemoryS6_R5StateT_T0_(%struct.Memory* %2, %struct.State* %0, i64* %RSI, i64 %13)
  ret %struct.Memory* %16
}


define %struct.Memory* @routine_movq__rdi__MINUS0xa8__rbp_(%struct.State*  dereferenceable(3376), i64, %struct.Memory* ) #19 {
block_400488:
  %3 = getelementptr inbounds %struct.State, %struct.State* %0, i32 0, i32 6
  %4 = getelementptr inbounds %struct.GPR, %struct.GPR* %3, i32 0, i32 33
  %5 = getelementptr inbounds %struct.Reg, %struct.Reg* %4, i32 0, i32 0
  %PC = bitcast %union.anon* %5 to i64*
  %6 = getelementptr inbounds %struct.State, %struct.State* %0, i32 0, i32 6
  %7 = getelementptr inbounds %struct.GPR, %struct.GPR* %6, i32 0, i32 11
  %8 = getelementptr inbounds %struct.Reg, %struct.Reg* %7, i32 0, i32 0
  %RDI = bitcast %union.anon* %8 to i64*
  %9 = getelementptr inbounds %struct.State, %struct.State* %0, i32 0, i32 6
  %10 = getelementptr inbounds %struct.GPR, %struct.GPR* %9, i32 0, i32 15
  %11 = getelementptr inbounds %struct.Reg, %struct.Reg* %10, i32 0, i32 0
  %RBP = bitcast %union.anon* %11 to i64*
  %12 = load i64, i64* %RBP
  %13 = sub i64 %12, 168
  %14 = load i64, i64* %RDI
  %15 = load i64, i64* %PC
  %16 = add i64 %15, 7
  store i64 %16, i64* %PC
  %17 = call %struct.Memory* @_ZN12_GLOBAL__N_1L3MOVI3MnWImE2RnImEEEP6MemoryS6_R5StateT_T0_(%struct.Memory* %2, %struct.State* %0, i64 %13, i64 %14)
  ret %struct.Memory* %17
}


define %struct.Memory* @routine_movq__rcx___rdi(%struct.State*  dereferenceable(3376), i64, %struct.Memory* ) #19 {
block_400488:
  %3 = getelementptr inbounds %struct.State, %struct.State* %0, i32 0, i32 6
  %4 = getelementptr inbounds %struct.GPR, %struct.GPR* %3, i32 0, i32 33
  %5 = getelementptr inbounds %struct.Reg, %struct.Reg* %4, i32 0, i32 0
  %PC = bitcast %union.anon* %5 to i64*
  %6 = getelementptr inbounds %struct.State, %struct.State* %0, i32 0, i32 6
  %7 = getelementptr inbounds %struct.GPR, %struct.GPR* %6, i32 0, i32 5
  %8 = getelementptr inbounds %struct.Reg, %struct.Reg* %7, i32 0, i32 0
  %RCX = bitcast %union.anon* %8 to i64*
  %9 = getelementptr inbounds %struct.State, %struct.State* %0, i32 0, i32 6
  %10 = getelementptr inbounds %struct.GPR, %struct.GPR* %9, i32 0, i32 11
  %11 = getelementptr inbounds %struct.Reg, %struct.Reg* %10, i32 0, i32 0
  %RDI = bitcast %union.anon* %11 to i64*
  %12 = load i64, i64* %RCX
  %13 = load i64, i64* %PC
  %14 = add i64 %13, 3
  store i64 %14, i64* %PC
  %15 = call %struct.Memory* @_ZN12_GLOBAL__N_1L3MOVI3RnWImE2RnImEEEP6MemoryS6_R5StateT_T0_(%struct.Memory* %2, %struct.State* %0, i64* %RDI, i64 %12)
  ret %struct.Memory* %15
}


define %struct.Memory* @routine_movl__eax__MINUS0xac__rbp_(%struct.State*  dereferenceable(3376), i64, %struct.Memory* ) #19 {
block_400488:
  %3 = getelementptr inbounds %struct.State, %struct.State* %0, i32 0, i32 6
  %4 = getelementptr inbounds %struct.GPR, %struct.GPR* %3, i32 0, i32 33
  %5 = getelementptr inbounds %struct.Reg, %struct.Reg* %4, i32 0, i32 0
  %PC = bitcast %union.anon* %5 to i64*
  %6 = getelementptr inbounds %struct.State, %struct.State* %0, i32 0, i32 6
  %7 = getelementptr inbounds %struct.GPR, %struct.GPR* %6, i32 0, i32 1
  %8 = getelementptr inbounds %struct.Reg, %struct.Reg* %7, i32 0, i32 0
  %EAX = bitcast %union.anon* %8 to i32*
  %9 = getelementptr inbounds %struct.State, %struct.State* %0, i32 0, i32 6
  %10 = getelementptr inbounds %struct.GPR, %struct.GPR* %9, i32 0, i32 15
  %11 = getelementptr inbounds %struct.Reg, %struct.Reg* %10, i32 0, i32 0
  %RBP = bitcast %union.anon* %11 to i64*
  %12 = load i64, i64* %RBP
  %13 = sub i64 %12, 172
  %14 = load i32, i32* %EAX
  %15 = zext i32 %14 to i64
  %16 = load i64, i64* %PC
  %17 = add i64 %16, 6
  store i64 %17, i64* %PC
  %18 = call %struct.Memory* @_ZN12_GLOBAL__N_1L3MOVI3MnWIjE2RnIjEEEP6MemoryS6_R5StateT_T0_(%struct.Memory* %2, %struct.State* %0, i64 %13, i64 %15)
  ret %struct.Memory* %18
}


define %struct.Memory* @routine_movq__rcx__MINUS0xb8__rbp_(%struct.State*  dereferenceable(3376), i64, %struct.Memory* ) #19 {
block_400488:
  %3 = getelementptr inbounds %struct.State, %struct.State* %0, i32 0, i32 6
  %4 = getelementptr inbounds %struct.GPR, %struct.GPR* %3, i32 0, i32 33
  %5 = getelementptr inbounds %struct.Reg, %struct.Reg* %4, i32 0, i32 0
  %PC = bitcast %union.anon* %5 to i64*
  %6 = getelementptr inbounds %struct.State, %struct.State* %0, i32 0, i32 6
  %7 = getelementptr inbounds %struct.GPR, %struct.GPR* %6, i32 0, i32 5
  %8 = getelementptr inbounds %struct.Reg, %struct.Reg* %7, i32 0, i32 0
  %RCX = bitcast %union.anon* %8 to i64*
  %9 = getelementptr inbounds %struct.State, %struct.State* %0, i32 0, i32 6
  %10 = getelementptr inbounds %struct.GPR, %struct.GPR* %9, i32 0, i32 15
  %11 = getelementptr inbounds %struct.Reg, %struct.Reg* %10, i32 0, i32 0
  %RBP = bitcast %union.anon* %11 to i64*
  %12 = load i64, i64* %RBP
  %13 = sub i64 %12, 184
  %14 = load i64, i64* %RCX
  %15 = load i64, i64* %PC
  %16 = add i64 %15, 7
  store i64 %16, i64* %PC
  %17 = call %struct.Memory* @_ZN12_GLOBAL__N_1L3MOVI3MnWImE2RnImEEEP6MemoryS6_R5StateT_T0_(%struct.Memory* %2, %struct.State* %0, i64 %13, i64 %14)
  ret %struct.Memory* %17
}




define %struct.Memory* @routine_movl__0x2710__MINUS0x18__rbp_(%struct.State*  dereferenceable(3376), i64, %struct.Memory* ) #19 {
block_400488:
  %3 = getelementptr inbounds %struct.State, %struct.State* %0, i32 0, i32 6
  %4 = getelementptr inbounds %struct.GPR, %struct.GPR* %3, i32 0, i32 33
  %5 = getelementptr inbounds %struct.Reg, %struct.Reg* %4, i32 0, i32 0
  %PC = bitcast %union.anon* %5 to i64*
  %6 = getelementptr inbounds %struct.State, %struct.State* %0, i32 0, i32 6
  %7 = getelementptr inbounds %struct.GPR, %struct.GPR* %6, i32 0, i32 15
  %8 = getelementptr inbounds %struct.Reg, %struct.Reg* %7, i32 0, i32 0
  %RBP = bitcast %union.anon* %8 to i64*
  %9 = load i64, i64* %RBP
  %10 = sub i64 %9, 24
  %11 = load i64, i64* %PC
  %12 = add i64 %11, 7
  store i64 %12, i64* %PC
  %13 = call %struct.Memory* @_ZN12_GLOBAL__N_1L3MOVI3MnWIjE2InIjEEEP6MemoryS6_R5StateT_T0_(%struct.Memory* %2, %struct.State* %0, i64 %10, i64 10000)
  ret %struct.Memory* %13
}


define %struct.Memory* @routine_movq_MINUS0xa8__rbp____rdi(%struct.State*  dereferenceable(3376), i64, %struct.Memory* ) #19 {
block_400488:
  %3 = getelementptr inbounds %struct.State, %struct.State* %0, i32 0, i32 6
  %4 = getelementptr inbounds %struct.GPR, %struct.GPR* %3, i32 0, i32 33
  %5 = getelementptr inbounds %struct.Reg, %struct.Reg* %4, i32 0, i32 0
  %PC = bitcast %union.anon* %5 to i64*
  %6 = getelementptr inbounds %struct.State, %struct.State* %0, i32 0, i32 6
  %7 = getelementptr inbounds %struct.GPR, %struct.GPR* %6, i32 0, i32 11
  %8 = getelementptr inbounds %struct.Reg, %struct.Reg* %7, i32 0, i32 0
  %RDI = bitcast %union.anon* %8 to i64*
  %9 = getelementptr inbounds %struct.State, %struct.State* %0, i32 0, i32 6
  %10 = getelementptr inbounds %struct.GPR, %struct.GPR* %9, i32 0, i32 15
  %11 = getelementptr inbounds %struct.Reg, %struct.Reg* %10, i32 0, i32 0
  %RBP = bitcast %union.anon* %11 to i64*
  %12 = load i64, i64* %RBP
  %13 = sub i64 %12, 168
  %14 = load i64, i64* %PC
  %15 = add i64 %14, 7
  store i64 %15, i64* %PC
  %16 = call %struct.Memory* @_ZN12_GLOBAL__N_1L3MOVI3RnWImE2MnImEEEP6MemoryS6_R5StateT_T0_(%struct.Memory* %2, %struct.State* %0, i64* %RDI, i64 %13)
  ret %struct.Memory* %16
}


define %struct.Memory* @routine_movq_MINUS0xb8__rbp____rsi(%struct.State*  dereferenceable(3376), i64, %struct.Memory* ) #19 {
block_400488:
  %3 = getelementptr inbounds %struct.State, %struct.State* %0, i32 0, i32 6
  %4 = getelementptr inbounds %struct.GPR, %struct.GPR* %3, i32 0, i32 33
  %5 = getelementptr inbounds %struct.Reg, %struct.Reg* %4, i32 0, i32 0
  %PC = bitcast %union.anon* %5 to i64*
  %6 = getelementptr inbounds %struct.State, %struct.State* %0, i32 0, i32 6
  %7 = getelementptr inbounds %struct.GPR, %struct.GPR* %6, i32 0, i32 9
  %8 = getelementptr inbounds %struct.Reg, %struct.Reg* %7, i32 0, i32 0
  %RSI = bitcast %union.anon* %8 to i64*
  %9 = getelementptr inbounds %struct.State, %struct.State* %0, i32 0, i32 6
  %10 = getelementptr inbounds %struct.GPR, %struct.GPR* %9, i32 0, i32 15
  %11 = getelementptr inbounds %struct.Reg, %struct.Reg* %10, i32 0, i32 0
  %RBP = bitcast %union.anon* %11 to i64*
  %12 = load i64, i64* %RBP
  %13 = sub i64 %12, 184
  %14 = load i64, i64* %PC
  %15 = add i64 %14, 7
  store i64 %15, i64* %PC
  %16 = call %struct.Memory* @_ZN12_GLOBAL__N_1L3MOVI3RnWImE2MnImEEEP6MemoryS6_R5StateT_T0_(%struct.Memory* %2, %struct.State* %0, i64* %RSI, i64 %13)
  ret %struct.Memory* %16
}


define %struct.Memory* @routine_movq__rax__MINUS0xc0__rbp_(%struct.State*  dereferenceable(3376), i64, %struct.Memory* ) #19 {
block_400488:
  %3 = getelementptr inbounds %struct.State, %struct.State* %0, i32 0, i32 6
  %4 = getelementptr inbounds %struct.GPR, %struct.GPR* %3, i32 0, i32 33
  %5 = getelementptr inbounds %struct.Reg, %struct.Reg* %4, i32 0, i32 0
  %PC = bitcast %union.anon* %5 to i64*
  %6 = getelementptr inbounds %struct.State, %struct.State* %0, i32 0, i32 6
  %7 = getelementptr inbounds %struct.GPR, %struct.GPR* %6, i32 0, i32 1
  %8 = getelementptr inbounds %struct.Reg, %struct.Reg* %7, i32 0, i32 0
  %RAX = bitcast %union.anon* %8 to i64*
  %9 = getelementptr inbounds %struct.State, %struct.State* %0, i32 0, i32 6
  %10 = getelementptr inbounds %struct.GPR, %struct.GPR* %9, i32 0, i32 15
  %11 = getelementptr inbounds %struct.Reg, %struct.Reg* %10, i32 0, i32 0
  %RBP = bitcast %union.anon* %11 to i64*
  %12 = load i64, i64* %RBP
  %13 = sub i64 %12, 192
  %14 = load i64, i64* %RAX
  %15 = load i64, i64* %PC
  %16 = add i64 %15, 7
  store i64 %16, i64* %PC
  %17 = call %struct.Memory* @_ZN12_GLOBAL__N_1L3MOVI3MnWImE2RnImEEEP6MemoryS6_R5StateT_T0_(%struct.Memory* %2, %struct.State* %0, i64 %13, i64 %14)
  ret %struct.Memory* %17
}


define %struct.Memory* @routine_callq_.Func2(%struct.State*  dereferenceable(3376), i64, %struct.Memory*, i64 %rel_off1, i64 %rel_off2, i64 %rel_off3) {
block_400488:
  %3 = getelementptr inbounds %struct.State, %struct.State* %0, i32 0, i32 6
  %4 = getelementptr inbounds %struct.GPR, %struct.GPR* %3, i32 0, i32 33
  %5 = getelementptr inbounds %struct.Reg, %struct.Reg* %4, i32 0, i32 0
  %PC = bitcast %union.anon* %5 to i64*
  %6 = load i64, i64* %PC
  %7 = add i64 %6, %rel_off1
  %8 = load i64, i64* %PC
  %9 = add i64 %8, %rel_off2
  %10 = load i64, i64* %PC
  %11 = add i64 %10, %rel_off3
  store i64 %11, i64* %PC
  %12 = call %struct.Memory* @_ZN12_GLOBAL__N_1L4CALLI2InImEEEP6MemoryS4_R5StateT_S2_(%struct.Memory* %2, %struct.State* %0, i64 %7, i64 %9)
  ret %struct.Memory* %12
}

define internal %struct.Memory* @_ZN12_GLOBAL__N_1L3CMPI2RnIjE2InIjEEEP6MemoryS6_R5StateT_T0_(%struct.Memory* readnone returned, %struct.State* nocapture dereferenceable(3376), i64, i64) #0 {
  %5 = trunc i64 %2 to i32
  %6 = trunc i64 %3 to i32
  %7 = sub i32 %5, %6
  %8 = icmp ult i32 %5, %6
  %9 = zext i1 %8 to i8
  %10 = getelementptr inbounds %struct.State, %struct.State* %1, i64 0, i32 2, i32 1
  store i8 %9, i8* %10, align 1
  %11 = and i32 %7, 255
  %12 = tail call i32 @llvm.ctpop.i32(i32 %11) #22
  %13 = trunc i32 %12 to i8
  %14 = and i8 %13, 1
  %15 = xor i8 %14, 1
  %16 = getelementptr inbounds %struct.State, %struct.State* %1, i64 0, i32 2, i32 3
  store i8 %15, i8* %16, align 1
  %17 = xor i64 %3, %2
  %18 = trunc i64 %17 to i32
  %19 = xor i32 %18, %7
  %20 = lshr i32 %19, 4
  %21 = trunc i32 %20 to i8
  %22 = and i8 %21, 1
  %23 = getelementptr inbounds %struct.State, %struct.State* %1, i64 0, i32 2, i32 5
  store i8 %22, i8* %23, align 1
  %24 = icmp eq i32 %7, 0
  %25 = zext i1 %24 to i8
  %26 = getelementptr inbounds %struct.State, %struct.State* %1, i64 0, i32 2, i32 7
  store i8 %25, i8* %26, align 1
  %27 = lshr i32 %7, 31
  %28 = trunc i32 %27 to i8
  %29 = getelementptr inbounds %struct.State, %struct.State* %1, i64 0, i32 2, i32 9
  store i8 %28, i8* %29, align 1
  %30 = lshr i32 %5, 31
  %31 = lshr i32 %6, 31
  %32 = xor i32 %31, %30
  %33 = xor i32 %27, %30
  %34 = add   i32 %33, %32
  %35 = icmp eq i32 %34, 2
  %36 = zext i1 %35 to i8
  %37 = getelementptr inbounds %struct.State, %struct.State* %1, i64 0, i32 2, i32 13
  store i8 %36, i8* %37, align 1
  ret %struct.Memory* %0
}

define %struct.Memory* @routine_cmpl__0x0___eax(%struct.State*  dereferenceable(3376), i64, %struct.Memory* ) #19 {
block_400488:
  %3 = getelementptr inbounds %struct.State, %struct.State* %0, i32 0, i32 6
  %4 = getelementptr inbounds %struct.GPR, %struct.GPR* %3, i32 0, i32 33
  %5 = getelementptr inbounds %struct.Reg, %struct.Reg* %4, i32 0, i32 0
  %PC = bitcast %union.anon* %5 to i64*
  %6 = getelementptr inbounds %struct.State, %struct.State* %0, i32 0, i32 6
  %7 = getelementptr inbounds %struct.GPR, %struct.GPR* %6, i32 0, i32 1
  %8 = getelementptr inbounds %struct.Reg, %struct.Reg* %7, i32 0, i32 0
  %EAX = bitcast %union.anon* %8 to i32*
  %9 = load i32, i32* %EAX
  %10 = zext i32 %9 to i64
  %11 = load i64, i64* %PC
  %12 = add i64 %11, 3
  store i64 %12, i64* %PC
  %13 = call %struct.Memory* @_ZN12_GLOBAL__N_1L3CMPI2RnIjE2InIjEEEP6MemoryS6_R5StateT_T0_(%struct.Memory* %2, %struct.State* %0, i64 %10, i64 0)
  ret %struct.Memory* %13
}

define internal %struct.Memory* @_ZN12_GLOBAL__N_1L5SETNZI3RnWIhEEEP6MemoryS4_R5StateT_(%struct.Memory* readnone returned, %struct.State* nocapture readonly dereferenceable(3376), i8* nocapture) #2 {
  %4 = getelementptr inbounds %struct.State, %struct.State* %1, i64 0, i32 2, i32 7
  %5 = load i8, i8* %4, align 1
  %6 = icmp eq i8 %5, 0
  %7 = zext i1 %6 to i8
  store i8 %7, i8* %2, align 1
  ret %struct.Memory* %0
}

define %struct.Memory* @routine_setne__r8b(%struct.State*  dereferenceable(3376), i64, %struct.Memory* ) #19 {
block_400488:
  %3 = getelementptr inbounds %struct.State, %struct.State* %0, i32 0, i32 6
  %4 = getelementptr inbounds %struct.GPR, %struct.GPR* %3, i32 0, i32 33
  %5 = getelementptr inbounds %struct.Reg, %struct.Reg* %4, i32 0, i32 0
  %PC = bitcast %union.anon* %5 to i64*
  %6 = getelementptr inbounds %struct.State, %struct.State* %0, i32 0, i32 6
  %7 = getelementptr inbounds %struct.GPR, %struct.GPR* %6, i32 0, i32 17
  %8 = getelementptr inbounds %struct.Reg, %struct.Reg* %7, i32 0, i32 0
  %9 = bitcast %union.anon* %8 to %struct.anon.2*
  %R8B = getelementptr inbounds %struct.anon.2, %struct.anon.2* %9, i32 0, i32 0
  %10 = load i64, i64* %PC
  %11 = add i64 %10, 4
  store i64 %11, i64* %PC
  %12 = call %struct.Memory* @_ZN12_GLOBAL__N_1L5SETNZI3RnWIhEEEP6MemoryS4_R5StateT_(%struct.Memory* %2, %struct.State* %0, i8* %R8B)
  ret %struct.Memory* %12
}

define internal %struct.Memory* @_ZN12_GLOBAL__N_1L3XORI3RnWIhE2RnIhE2InIhEEEP6MemoryS8_R5StateT_T0_T1_(%struct.Memory* readnone returned, %struct.State* nocapture dereferenceable(3376), i8* nocapture, i64, i64) #0 {
  %6 = xor i64 %4, %3
  %7 = trunc i64 %6 to i8
  store i8 %7, i8* %2, align 1
  %8 = getelementptr inbounds %struct.State, %struct.State* %1, i64 0, i32 2, i32 1
  store i8 0, i8* %8, align 1
  %9 = trunc i64 %6 to i32
  %10 = and i32 %9, 255
  %11 = tail call i32 @llvm.ctpop.i32(i32 %10) #22
  %12 = trunc i32 %11 to i8
  %13 = and i8 %12, 1
  %14 = xor i8 %13, 1
  %15 = getelementptr inbounds %struct.State, %struct.State* %1, i64 0, i32 2, i32 3
  store i8 %14, i8* %15, align 1
  %16 = icmp eq i8 %7, 0
  %17 = zext i1 %16 to i8
  %18 = getelementptr inbounds %struct.State, %struct.State* %1, i64 0, i32 2, i32 7
  store i8 %17, i8* %18, align 1
  %19 = lshr i8 %7, 7
  %20 = getelementptr inbounds %struct.State, %struct.State* %1, i64 0, i32 2, i32 9
  store i8 %19, i8* %20, align 1
  %21 = getelementptr inbounds %struct.State, %struct.State* %1, i64 0, i32 2, i32 13
  store i8 0, i8* %21, align 1
  %22 = getelementptr inbounds %struct.State, %struct.State* %1, i64 0, i32 2, i32 5
  store i8 0, i8* %22, align 1
  ret %struct.Memory* %0
}

define %struct.Memory* @routine_xorb__0xff___r8b(%struct.State*  dereferenceable(3376), i64, %struct.Memory* ) #19 {
block_400488:
  %3 = getelementptr inbounds %struct.State, %struct.State* %0, i32 0, i32 6
  %4 = getelementptr inbounds %struct.GPR, %struct.GPR* %3, i32 0, i32 33
  %5 = getelementptr inbounds %struct.Reg, %struct.Reg* %4, i32 0, i32 0
  %PC = bitcast %union.anon* %5 to i64*
  %6 = getelementptr inbounds %struct.State, %struct.State* %0, i32 0, i32 6
  %7 = getelementptr inbounds %struct.GPR, %struct.GPR* %6, i32 0, i32 17
  %8 = getelementptr inbounds %struct.Reg, %struct.Reg* %7, i32 0, i32 0
  %9 = bitcast %union.anon* %8 to %struct.anon.2*
  %R8B = getelementptr inbounds %struct.anon.2, %struct.anon.2* %9, i32 0, i32 0
  %10 = load i8, i8* %R8B
  %11 = zext i8 %10 to i64
  %12 = load i64, i64* %PC
  %13 = add i64 %12, 4
  store i64 %13, i64* %PC
  %14 = call %struct.Memory* @_ZN12_GLOBAL__N_1L3XORI3RnWIhE2RnIhE2InIhEEEP6MemoryS8_R5StateT_T0_T1_(%struct.Memory* %2, %struct.State* %0, i8* %R8B, i64 %11, i64 255)
  ret %struct.Memory* %14
}

define internal %struct.Memory* @_ZN12_GLOBAL__N_1L3ANDI3RnWIhE2RnIhE2InIhEEEP6MemoryS8_R5StateT_T0_T1_(%struct.Memory* readnone returned, %struct.State* nocapture dereferenceable(3376), i8* nocapture, i64, i64) #0 {
  %6 = and i64 %4, %3
  %7 = trunc i64 %6 to i8
  store i8 %7, i8* %2, align 1
  %8 = getelementptr inbounds %struct.State, %struct.State* %1, i64 0, i32 2, i32 1
  store i8 0, i8* %8, align 1
  %9 = trunc i64 %6 to i32
  %10 = and i32 %9, 255
  %11 = tail call i32 @llvm.ctpop.i32(i32 %10) #22
  %12 = trunc i32 %11 to i8
  %13 = and i8 %12, 1
  %14 = xor i8 %13, 1
  %15 = getelementptr inbounds %struct.State, %struct.State* %1, i64 0, i32 2, i32 3
  store i8 %14, i8* %15, align 1
  %16 = icmp eq i8 %7, 0
  %17 = zext i1 %16 to i8
  %18 = getelementptr inbounds %struct.State, %struct.State* %1, i64 0, i32 2, i32 7
  store i8 %17, i8* %18, align 1
  %19 = lshr i8 %7, 7
  %20 = getelementptr inbounds %struct.State, %struct.State* %1, i64 0, i32 2, i32 9
  store i8 %19, i8* %20, align 1
  %21 = getelementptr inbounds %struct.State, %struct.State* %1, i64 0, i32 2, i32 13
  store i8 0, i8* %21, align 1
  %22 = getelementptr inbounds %struct.State, %struct.State* %1, i64 0, i32 2, i32 5
  store i8 0, i8* %22, align 1
  ret %struct.Memory* %0
}

define %struct.Memory* @routine_andb__0x1___r8b(%struct.State*  dereferenceable(3376), i64, %struct.Memory* ) #19 {
block_400488:
  %3 = getelementptr inbounds %struct.State, %struct.State* %0, i32 0, i32 6
  %4 = getelementptr inbounds %struct.GPR, %struct.GPR* %3, i32 0, i32 33
  %5 = getelementptr inbounds %struct.Reg, %struct.Reg* %4, i32 0, i32 0
  %PC = bitcast %union.anon* %5 to i64*
  %6 = getelementptr inbounds %struct.State, %struct.State* %0, i32 0, i32 6
  %7 = getelementptr inbounds %struct.GPR, %struct.GPR* %6, i32 0, i32 17
  %8 = getelementptr inbounds %struct.Reg, %struct.Reg* %7, i32 0, i32 0
  %9 = bitcast %union.anon* %8 to %struct.anon.2*
  %R8B = getelementptr inbounds %struct.anon.2, %struct.anon.2* %9, i32 0, i32 0
  %10 = load i8, i8* %R8B
  %11 = zext i8 %10 to i64
  %12 = load i64, i64* %PC
  %13 = add i64 %12, 4
  store i64 %13, i64* %PC
  %14 = call %struct.Memory* @_ZN12_GLOBAL__N_1L3ANDI3RnWIhE2RnIhE2InIhEEEP6MemoryS8_R5StateT_T0_T1_(%struct.Memory* %2, %struct.State* %0, i8* %R8B, i64 %11, i64 1)
  ret %struct.Memory* %14
}

define internal %struct.Memory* @_ZN12_GLOBAL__N_1L5MOVZXI3RnWImE2RnIhEEEP6MemoryS6_R5StateT_T0_(%struct.Memory* readnone returned, %struct.State* nocapture readnone dereferenceable(3376), i64* nocapture, i64) #2 {
  %5 = and i64 %3, 255
  store i64 %5, i64* %2, align 8
  ret %struct.Memory* %0
}

define %struct.Memory* @routine_movzbl__r8b___eax(%struct.State*  dereferenceable(3376), i64, %struct.Memory* ) #19 {
block_400488:
  %3 = getelementptr inbounds %struct.State, %struct.State* %0, i32 0, i32 6
  %4 = getelementptr inbounds %struct.GPR, %struct.GPR* %3, i32 0, i32 33
  %5 = getelementptr inbounds %struct.Reg, %struct.Reg* %4, i32 0, i32 0
  %PC = bitcast %union.anon* %5 to i64*
  %6 = getelementptr inbounds %struct.State, %struct.State* %0, i32 0, i32 6
  %7 = getelementptr inbounds %struct.GPR, %struct.GPR* %6, i32 0, i32 17
  %8 = getelementptr inbounds %struct.Reg, %struct.Reg* %7, i32 0, i32 0
  %9 = bitcast %union.anon* %8 to %struct.anon.2*
  %R8B = getelementptr inbounds %struct.anon.2, %struct.anon.2* %9, i32 0, i32 0
  %10 = getelementptr inbounds %struct.State, %struct.State* %0, i32 0, i32 6
  %11 = getelementptr inbounds %struct.GPR, %struct.GPR* %10, i32 0, i32 1
  %12 = getelementptr inbounds %struct.Reg, %struct.Reg* %11, i32 0, i32 0
  %RAX = bitcast %union.anon* %12 to i64*
  %13 = load i8, i8* %R8B
  %14 = zext i8 %13 to i64
  %15 = load i64, i64* %PC
  %16 = add i64 %15, 4
  store i64 %16, i64* %PC
  %17 = call %struct.Memory* @_ZN12_GLOBAL__N_1L5MOVZXI3RnWImE2RnIhEEEP6MemoryS6_R5StateT_T0_(%struct.Memory* %2, %struct.State* %0, i64* %RAX, i64 %14)
  ret %struct.Memory* %17
}


define %struct.Memory* @routine_movl__eax__0x6049f0(%struct.State*  dereferenceable(3376), i64, %struct.Memory* ) #19 {
block_400488:
  %3 = getelementptr inbounds %struct.State, %struct.State* %0, i32 0, i32 6
  %4 = getelementptr inbounds %struct.GPR, %struct.GPR* %3, i32 0, i32 33
  %5 = getelementptr inbounds %struct.Reg, %struct.Reg* %4, i32 0, i32 0
  %PC = bitcast %union.anon* %5 to i64*
  %6 = getelementptr inbounds %struct.State, %struct.State* %0, i32 0, i32 6
  %7 = getelementptr inbounds %struct.GPR, %struct.GPR* %6, i32 0, i32 1
  %8 = getelementptr inbounds %struct.Reg, %struct.Reg* %7, i32 0, i32 0
  %EAX = bitcast %union.anon* %8 to i32*
  %9 = load i32, i32* %EAX
  %10 = zext i32 %9 to i64
  %11 = load i64, i64* %PC
  %12 = add i64 %11, 7
  store i64 %12, i64* %PC
  %13 = call %struct.Memory* @_ZN12_GLOBAL__N_1L3MOVI3MnWIjE2RnIjEEEP6MemoryS6_R5StateT_T0_(%struct.Memory* %2, %struct.State* %0, i64 6310384, i64 %10)
  ret %struct.Memory* %13
}


define %struct.Memory* @routine_movl_MINUS0x8__rbp____eax(%struct.State*  dereferenceable(3376), i64, %struct.Memory* ) #19 {
block_400488:
  %3 = getelementptr inbounds %struct.State, %struct.State* %0, i32 0, i32 6
  %4 = getelementptr inbounds %struct.GPR, %struct.GPR* %3, i32 0, i32 33
  %5 = getelementptr inbounds %struct.Reg, %struct.Reg* %4, i32 0, i32 0
  %PC = bitcast %union.anon* %5 to i64*
  %6 = getelementptr inbounds %struct.State, %struct.State* %0, i32 0, i32 6
  %7 = getelementptr inbounds %struct.GPR, %struct.GPR* %6, i32 0, i32 1
  %8 = getelementptr inbounds %struct.Reg, %struct.Reg* %7, i32 0, i32 0
  %RAX = bitcast %union.anon* %8 to i64*
  %9 = getelementptr inbounds %struct.State, %struct.State* %0, i32 0, i32 6
  %10 = getelementptr inbounds %struct.GPR, %struct.GPR* %9, i32 0, i32 15
  %11 = getelementptr inbounds %struct.Reg, %struct.Reg* %10, i32 0, i32 0
  %RBP = bitcast %union.anon* %11 to i64*
  %12 = load i64, i64* %RBP
  %13 = sub i64 %12, 8
  %14 = load i64, i64* %PC
  %15 = add i64 %14, 3
  store i64 %15, i64* %PC
  %16 = call %struct.Memory* @_ZN12_GLOBAL__N_1L3MOVI3RnWImE2MnIjEEEP6MemoryS6_R5StateT_T0_(%struct.Memory* %2, %struct.State* %0, i64* %RAX, i64 %13)
  ret %struct.Memory* %16
}

define internal %struct.Memory* @_ZN12_GLOBAL__N_1L3CMPI2RnIjE2MnIjEEEP6MemoryS6_R5StateT_T0_(%struct.Memory*, %struct.State* nocapture dereferenceable(3376), i64, i64) #0 {
  %5 = trunc i64 %2 to i32
  %6 = inttoptr i64 %3 to i32*
  %7 = load i32, i32* %6
  %8 = sub i32 %5, %7
  %9 = icmp ult i32 %5, %7
  %10 = zext i1 %9 to i8
  %11 = getelementptr inbounds %struct.State, %struct.State* %1, i64 0, i32 2, i32 1
  store i8 %10, i8* %11, align 1
  %12 = and i32 %8, 255
  %13 = tail call i32 @llvm.ctpop.i32(i32 %12) #22
  %14 = trunc i32 %13 to i8
  %15 = and i8 %14, 1
  %16 = xor i8 %15, 1
  %17 = getelementptr inbounds %struct.State, %struct.State* %1, i64 0, i32 2, i32 3
  store i8 %16, i8* %17, align 1
  %18 = xor i32 %7, %5
  %19 = xor i32 %18, %8
  %20 = lshr i32 %19, 4
  %21 = trunc i32 %20 to i8
  %22 = and i8 %21, 1
  %23 = getelementptr inbounds %struct.State, %struct.State* %1, i64 0, i32 2, i32 5
  store i8 %22, i8* %23, align 1
  %24 = icmp eq i32 %8, 0
  %25 = zext i1 %24 to i8
  %26 = getelementptr inbounds %struct.State, %struct.State* %1, i64 0, i32 2, i32 7
  store i8 %25, i8* %26, align 1
  %27 = lshr i32 %8, 31
  %28 = trunc i32 %27 to i8
  %29 = getelementptr inbounds %struct.State, %struct.State* %1, i64 0, i32 2, i32 9
  store i8 %28, i8* %29, align 1
  %30 = lshr i32 %5, 31
  %31 = lshr i32 %7, 31
  %32 = xor i32 %31, %30
  %33 = xor i32 %27, %30
  %34 = add   i32 %33, %32
  %35 = icmp eq i32 %34, 2
  %36 = zext i1 %35 to i8
  %37 = getelementptr inbounds %struct.State, %struct.State* %1, i64 0, i32 2, i32 13
  store i8 %36, i8* %37, align 1
  ret %struct.Memory* %0
}

define %struct.Memory* @routine_cmpl_MINUS0xc__rbp____eax(%struct.State*  dereferenceable(3376), i64, %struct.Memory* ) #19 {
block_400488:
  %3 = getelementptr inbounds %struct.State, %struct.State* %0, i32 0, i32 6
  %4 = getelementptr inbounds %struct.GPR, %struct.GPR* %3, i32 0, i32 33
  %5 = getelementptr inbounds %struct.Reg, %struct.Reg* %4, i32 0, i32 0
  %PC = bitcast %union.anon* %5 to i64*
  %6 = getelementptr inbounds %struct.State, %struct.State* %0, i32 0, i32 6
  %7 = getelementptr inbounds %struct.GPR, %struct.GPR* %6, i32 0, i32 1
  %8 = getelementptr inbounds %struct.Reg, %struct.Reg* %7, i32 0, i32 0
  %EAX = bitcast %union.anon* %8 to i32*
  %9 = getelementptr inbounds %struct.State, %struct.State* %0, i32 0, i32 6
  %10 = getelementptr inbounds %struct.GPR, %struct.GPR* %9, i32 0, i32 15
  %11 = getelementptr inbounds %struct.Reg, %struct.Reg* %10, i32 0, i32 0
  %RBP = bitcast %union.anon* %11 to i64*
  %12 = load i32, i32* %EAX
  %13 = zext i32 %12 to i64
  %14 = load i64, i64* %RBP
  %15 = sub i64 %14, 12
  %16 = load i64, i64* %PC
  %17 = add i64 %16, 3
  store i64 %17, i64* %PC
  %18 = call %struct.Memory* @_ZN12_GLOBAL__N_1L3CMPI2RnIjE2MnIjEEEP6MemoryS6_R5StateT_T0_(%struct.Memory* %2, %struct.State* %0, i64 %13, i64 %15)
  ret %struct.Memory* %18
}

define internal %struct.Memory* @_ZN12_GLOBAL__N_1L3JNLEP6MemoryR5State3RnWIhE2InImES7_(%struct.Memory* readnone returned, %struct.State* nocapture dereferenceable(3376), i8* nocapture, i64, i64) #2 {
  %6 = getelementptr inbounds %struct.State, %struct.State* %1, i64 0, i32 2, i32 9
  %7 = load i8, i8* %6, align 1
  %8 = icmp ne i8 %7, 0
  %9 = getelementptr inbounds %struct.State, %struct.State* %1, i64 0, i32 2, i32 13
  %10 = load i8, i8* %9, align 1
  %11 = icmp ne i8 %10, 0
  %12 = xor i1 %8, %11
  %13 = xor i1 %12, true
  %14 = zext i1 %13 to i8
  store i8 %14, i8* %2, align 1
  %15 = getelementptr inbounds %struct.State, %struct.State* %1, i64 0, i32 6, i32 33, i32 0, i32 0
  %16 = select i1 %12, i64 %4, i64 %3
  store i64 %16, i64* %15, align 8
  ret %struct.Memory* %0
}

define %struct.Memory* @routine_jge_.L_4007fc(%struct.State*  dereferenceable(3376), i64, %struct.Memory*, i8* %BRANCH_TAKEN, i64 %rel_off1, i64 %rel_off2, i64 %rel_off3) {
block_400488:
  %3 = getelementptr inbounds %struct.State, %struct.State* %0, i32 0, i32 6
  %4 = getelementptr inbounds %struct.GPR, %struct.GPR* %3, i32 0, i32 33
  %5 = getelementptr inbounds %struct.Reg, %struct.Reg* %4, i32 0, i32 0
  %PC = bitcast %union.anon* %5 to i64*
  %6 = load i64, i64* %PC
  %7 = add i64 %6, %rel_off1
  %8 = load i64, i64* %PC
  %9 = add i64 %8, %rel_off2
  %10 = load i64, i64* %PC
  %11 = add i64 %10, %rel_off3
  store i64 %11, i64* %PC
  %12 = call %struct.Memory* @_ZN12_GLOBAL__N_1L3JNLEP6MemoryR5State3RnWIhE2InImES7_(%struct.Memory* %2, %struct.State* %0, i8* %BRANCH_TAKEN, i64 %7, i64 %9)
  ret %struct.Memory* %12
}


define %struct.Memory* @routine_leaq_MINUS0x10__rbp____rdx(%struct.State*  dereferenceable(3376), i64, %struct.Memory* ) #19 {
block_400488:
  %3 = getelementptr inbounds %struct.State, %struct.State* %0, i32 0, i32 6
  %4 = getelementptr inbounds %struct.GPR, %struct.GPR* %3, i32 0, i32 33
  %5 = getelementptr inbounds %struct.Reg, %struct.Reg* %4, i32 0, i32 0
  %PC = bitcast %union.anon* %5 to i64*
  %6 = getelementptr inbounds %struct.State, %struct.State* %0, i32 0, i32 6
  %7 = getelementptr inbounds %struct.GPR, %struct.GPR* %6, i32 0, i32 7
  %8 = getelementptr inbounds %struct.Reg, %struct.Reg* %7, i32 0, i32 0
  %RDX = bitcast %union.anon* %8 to i64*
  %9 = getelementptr inbounds %struct.State, %struct.State* %0, i32 0, i32 6
  %10 = getelementptr inbounds %struct.GPR, %struct.GPR* %9, i32 0, i32 15
  %11 = getelementptr inbounds %struct.Reg, %struct.Reg* %10, i32 0, i32 0
  %RBP = bitcast %union.anon* %11 to i64*
  %12 = load i64, i64* %RBP
  %13 = sub i64 %12, 16
  %14 = load i64, i64* %PC
  %15 = add i64 %14, 4
  store i64 %15, i64* %PC
  %16 = call %struct.Memory* @_ZN12_GLOBAL__N_1L3LEAI3RnWImE2MnIhEmEEP6MemoryS6_R5StateT_T0_(%struct.Memory* %2, %struct.State* %0, i64* %RDX, i64 %13)
  ret %struct.Memory* %16
}

define internal %struct.Memory* @_ZN12_GLOBAL__N_1L4IMULI3RnWImE2MnIjE2InIjEEEP6MemoryS8_R5StateT_T0_T1_(%struct.Memory*, %struct.State* nocapture dereferenceable(3376), i64* nocapture, i64, i64) #0 {
  %6 = inttoptr i64 %3 to i32*
  %7 = load i32, i32* %6
  %8 = sext i32 %7 to i64
  %9 = shl i64 %4, 32
  %10 = ashr exact i64 %9, 32
  %11 = mul  i64 %8, %10
  %12 = trunc i64 %11 to i32
  %13 = and i64 %11, 4294967295
  store i64 %13, i64* %2, align 8
  %14 = shl i64 %11, 32
  %15 = ashr exact i64 %14, 32
  %16 = icmp ne i64 %15, %11
  %17 = zext i1 %16 to i8
  %18 = getelementptr inbounds %struct.State, %struct.State* %1, i64 0, i32 2, i32 1
  store i8 %17, i8* %18, align 1
  %19 = and i32 %12, 255
  %20 = tail call i32 @llvm.ctpop.i32(i32 %19) #22
  %21 = trunc i32 %20 to i8
  %22 = and i8 %21, 1
  %23 = xor i8 %22, 1
  %24 = getelementptr inbounds %struct.State, %struct.State* %1, i64 0, i32 2, i32 3
  store i8 %23, i8* %24, align 1
  %25 = getelementptr inbounds %struct.State, %struct.State* %1, i64 0, i32 2, i32 5
  store i8 0, i8* %25, align 1
  %26 = getelementptr inbounds %struct.State, %struct.State* %1, i64 0, i32 2, i32 7
  store i8 0, i8* %26, align 1
  %27 = lshr i32 %12, 31
  %28 = trunc i32 %27 to i8
  %29 = getelementptr inbounds %struct.State, %struct.State* %1, i64 0, i32 2, i32 9
  store i8 %28, i8* %29, align 1
  %30 = getelementptr inbounds %struct.State, %struct.State* %1, i64 0, i32 2, i32 13
  store i8 %17, i8* %30, align 1
  ret %struct.Memory* %0
}

define %struct.Memory* @routine_imull__0x5__MINUS0x8__rbp____eax(%struct.State*  dereferenceable(3376), i64, %struct.Memory* ) #19 {
block_400488:
  %3 = getelementptr inbounds %struct.State, %struct.State* %0, i32 0, i32 6
  %4 = getelementptr inbounds %struct.GPR, %struct.GPR* %3, i32 0, i32 33
  %5 = getelementptr inbounds %struct.Reg, %struct.Reg* %4, i32 0, i32 0
  %PC = bitcast %union.anon* %5 to i64*
  %6 = getelementptr inbounds %struct.State, %struct.State* %0, i32 0, i32 6
  %7 = getelementptr inbounds %struct.GPR, %struct.GPR* %6, i32 0, i32 1
  %8 = getelementptr inbounds %struct.Reg, %struct.Reg* %7, i32 0, i32 0
  %RAX = bitcast %union.anon* %8 to i64*
  %9 = getelementptr inbounds %struct.State, %struct.State* %0, i32 0, i32 6
  %10 = getelementptr inbounds %struct.GPR, %struct.GPR* %9, i32 0, i32 15
  %11 = getelementptr inbounds %struct.Reg, %struct.Reg* %10, i32 0, i32 0
  %RBP = bitcast %union.anon* %11 to i64*
  %12 = load i64, i64* %RBP
  %13 = sub i64 %12, 8
  %14 = load i64, i64* %PC
  %15 = add i64 %14, 4
  store i64 %15, i64* %PC
  %16 = call %struct.Memory* @_ZN12_GLOBAL__N_1L4IMULI3RnWImE2MnIjE2InIjEEEP6MemoryS8_R5StateT_T0_T1_(%struct.Memory* %2, %struct.State* %0, i64* %RAX, i64 %13, i64 5)
  ret %struct.Memory* %16
}

define internal %struct.Memory* @_ZN12_GLOBAL__N_1L3SUBI3RnWImE2RnIjE2MnIjEEEP6MemoryS8_R5StateT_T0_T1_(%struct.Memory*, %struct.State* nocapture dereferenceable(3376), i64* nocapture, i64, i64) #0 {
  %6 = trunc i64 %3 to i32
  %7 = inttoptr i64 %4 to i32*
  %8 = load i32, i32* %7
  %9 = sub i32 %6, %8
  %10 = zext i32 %9 to i64
  store i64 %10, i64* %2, align 8
  %11 = icmp ult i32 %6, %8
  %12 = zext i1 %11 to i8
  %13 = getelementptr inbounds %struct.State, %struct.State* %1, i64 0, i32 2, i32 1
  store i8 %12, i8* %13, align 1
  %14 = and i32 %9, 255
  %15 = tail call i32 @llvm.ctpop.i32(i32 %14) #22
  %16 = trunc i32 %15 to i8
  %17 = and i8 %16, 1
  %18 = xor i8 %17, 1
  %19 = getelementptr inbounds %struct.State, %struct.State* %1, i64 0, i32 2, i32 3
  store i8 %18, i8* %19, align 1
  %20 = xor i32 %8, %6
  %21 = xor i32 %20, %9
  %22 = lshr i32 %21, 4
  %23 = trunc i32 %22 to i8
  %24 = and i8 %23, 1
  %25 = getelementptr inbounds %struct.State, %struct.State* %1, i64 0, i32 2, i32 5
  store i8 %24, i8* %25, align 1
  %26 = icmp eq i32 %9, 0
  %27 = zext i1 %26 to i8
  %28 = getelementptr inbounds %struct.State, %struct.State* %1, i64 0, i32 2, i32 7
  store i8 %27, i8* %28, align 1
  %29 = lshr i32 %9, 31
  %30 = trunc i32 %29 to i8
  %31 = getelementptr inbounds %struct.State, %struct.State* %1, i64 0, i32 2, i32 9
  store i8 %30, i8* %31, align 1
  %32 = lshr i32 %6, 31
  %33 = lshr i32 %8, 31
  %34 = xor i32 %33, %32
  %35 = xor i32 %29, %32
  %36 = add   i32 %35, %34
  %37 = icmp eq i32 %36, 2
  %38 = zext i1 %37 to i8
  %39 = getelementptr inbounds %struct.State, %struct.State* %1, i64 0, i32 2, i32 13
  store i8 %38, i8* %39, align 1
  ret %struct.Memory* %0
}

define %struct.Memory* @routine_subl_MINUS0xc__rbp____eax(%struct.State*  dereferenceable(3376), i64, %struct.Memory* ) #19 {
block_400488:
  %3 = getelementptr inbounds %struct.State, %struct.State* %0, i32 0, i32 6
  %4 = getelementptr inbounds %struct.GPR, %struct.GPR* %3, i32 0, i32 33
  %5 = getelementptr inbounds %struct.Reg, %struct.Reg* %4, i32 0, i32 0
  %PC = bitcast %union.anon* %5 to i64*
  %6 = getelementptr inbounds %struct.State, %struct.State* %0, i32 0, i32 6
  %7 = getelementptr inbounds %struct.GPR, %struct.GPR* %6, i32 0, i32 1
  %8 = getelementptr inbounds %struct.Reg, %struct.Reg* %7, i32 0, i32 0
  %RAX = bitcast %union.anon* %8 to i64*
  %9 = getelementptr inbounds %struct.State, %struct.State* %0, i32 0, i32 6
  %10 = getelementptr inbounds %struct.GPR, %struct.GPR* %9, i32 0, i32 15
  %11 = getelementptr inbounds %struct.Reg, %struct.Reg* %10, i32 0, i32 0
  %RBP = bitcast %union.anon* %11 to i64*
  %12 = load i64, i64* %RAX
  %13 = load i64, i64* %RBP
  %14 = sub i64 %13, 12
  %15 = load i64, i64* %PC
  %16 = add i64 %15, 3
  store i64 %16, i64* %PC
  %17 = call %struct.Memory* @_ZN12_GLOBAL__N_1L3SUBI3RnWImE2RnIjE2MnIjEEEP6MemoryS8_R5StateT_T0_T1_(%struct.Memory* %2, %struct.State* %0, i64* %RAX, i64 %12, i64 %14)
  ret %struct.Memory* %17
}


define %struct.Memory* @routine_movl__eax__MINUS0x10__rbp_(%struct.State*  dereferenceable(3376), i64, %struct.Memory* ) #19 {
block_400488:
  %3 = getelementptr inbounds %struct.State, %struct.State* %0, i32 0, i32 6
  %4 = getelementptr inbounds %struct.GPR, %struct.GPR* %3, i32 0, i32 33
  %5 = getelementptr inbounds %struct.Reg, %struct.Reg* %4, i32 0, i32 0
  %PC = bitcast %union.anon* %5 to i64*
  %6 = getelementptr inbounds %struct.State, %struct.State* %0, i32 0, i32 6
  %7 = getelementptr inbounds %struct.GPR, %struct.GPR* %6, i32 0, i32 1
  %8 = getelementptr inbounds %struct.Reg, %struct.Reg* %7, i32 0, i32 0
  %EAX = bitcast %union.anon* %8 to i32*
  %9 = getelementptr inbounds %struct.State, %struct.State* %0, i32 0, i32 6
  %10 = getelementptr inbounds %struct.GPR, %struct.GPR* %9, i32 0, i32 15
  %11 = getelementptr inbounds %struct.Reg, %struct.Reg* %10, i32 0, i32 0
  %RBP = bitcast %union.anon* %11 to i64*
  %12 = load i64, i64* %RBP
  %13 = sub i64 %12, 16
  %14 = load i32, i32* %EAX
  %15 = zext i32 %14 to i64
  %16 = load i64, i64* %PC
  %17 = add i64 %16, 3
  store i64 %17, i64* %PC
  %18 = call %struct.Memory* @_ZN12_GLOBAL__N_1L3MOVI3MnWIjE2RnIjEEEP6MemoryS6_R5StateT_T0_(%struct.Memory* %2, %struct.State* %0, i64 %13, i64 %15)
  ret %struct.Memory* %18
}


define %struct.Memory* @routine_movl_MINUS0x8__rbp____edi(%struct.State*  dereferenceable(3376), i64, %struct.Memory* ) #19 {
block_400488:
  %3 = getelementptr inbounds %struct.State, %struct.State* %0, i32 0, i32 6
  %4 = getelementptr inbounds %struct.GPR, %struct.GPR* %3, i32 0, i32 33
  %5 = getelementptr inbounds %struct.Reg, %struct.Reg* %4, i32 0, i32 0
  %PC = bitcast %union.anon* %5 to i64*
  %6 = getelementptr inbounds %struct.State, %struct.State* %0, i32 0, i32 6
  %7 = getelementptr inbounds %struct.GPR, %struct.GPR* %6, i32 0, i32 11
  %8 = getelementptr inbounds %struct.Reg, %struct.Reg* %7, i32 0, i32 0
  %RDI = bitcast %union.anon* %8 to i64*
  %9 = getelementptr inbounds %struct.State, %struct.State* %0, i32 0, i32 6
  %10 = getelementptr inbounds %struct.GPR, %struct.GPR* %9, i32 0, i32 15
  %11 = getelementptr inbounds %struct.Reg, %struct.Reg* %10, i32 0, i32 0
  %RBP = bitcast %union.anon* %11 to i64*
  %12 = load i64, i64* %RBP
  %13 = sub i64 %12, 8
  %14 = load i64, i64* %PC
  %15 = add i64 %14, 3
  store i64 %15, i64* %PC
  %16 = call %struct.Memory* @_ZN12_GLOBAL__N_1L3MOVI3RnWImE2MnIjEEEP6MemoryS6_R5StateT_T0_(%struct.Memory* %2, %struct.State* %0, i64* %RDI, i64 %13)
  ret %struct.Memory* %16
}


define %struct.Memory* @routine_movl_MINUS0xc__rbp____esi(%struct.State*  dereferenceable(3376), i64, %struct.Memory* ) #19 {
block_400488:
  %3 = getelementptr inbounds %struct.State, %struct.State* %0, i32 0, i32 6
  %4 = getelementptr inbounds %struct.GPR, %struct.GPR* %3, i32 0, i32 33
  %5 = getelementptr inbounds %struct.Reg, %struct.Reg* %4, i32 0, i32 0
  %PC = bitcast %union.anon* %5 to i64*
  %6 = getelementptr inbounds %struct.State, %struct.State* %0, i32 0, i32 6
  %7 = getelementptr inbounds %struct.GPR, %struct.GPR* %6, i32 0, i32 9
  %8 = getelementptr inbounds %struct.Reg, %struct.Reg* %7, i32 0, i32 0
  %RSI = bitcast %union.anon* %8 to i64*
  %9 = getelementptr inbounds %struct.State, %struct.State* %0, i32 0, i32 6
  %10 = getelementptr inbounds %struct.GPR, %struct.GPR* %9, i32 0, i32 15
  %11 = getelementptr inbounds %struct.Reg, %struct.Reg* %10, i32 0, i32 0
  %RBP = bitcast %union.anon* %11 to i64*
  %12 = load i64, i64* %RBP
  %13 = sub i64 %12, 12
  %14 = load i64, i64* %PC
  %15 = add i64 %14, 3
  store i64 %15, i64* %PC
  %16 = call %struct.Memory* @_ZN12_GLOBAL__N_1L3MOVI3RnWImE2MnIjEEEP6MemoryS6_R5StateT_T0_(%struct.Memory* %2, %struct.State* %0, i64* %RSI, i64 %13)
  ret %struct.Memory* %16
}


define %struct.Memory* @routine_callq_.Proc7(%struct.State*  dereferenceable(3376), i64, %struct.Memory*, i64 %rel_off1, i64 %rel_off2, i64 %rel_off3) {
block_400488:
  %3 = getelementptr inbounds %struct.State, %struct.State* %0, i32 0, i32 6
  %4 = getelementptr inbounds %struct.GPR, %struct.GPR* %3, i32 0, i32 33
  %5 = getelementptr inbounds %struct.Reg, %struct.Reg* %4, i32 0, i32 0
  %PC = bitcast %union.anon* %5 to i64*
  %6 = load i64, i64* %PC
  %7 = add i64 %6, %rel_off1
  %8 = load i64, i64* %PC
  %9 = add i64 %8, %rel_off2
  %10 = load i64, i64* %PC
  %11 = add i64 %10, %rel_off3
  store i64 %11, i64* %PC
  %12 = call %struct.Memory* @_ZN12_GLOBAL__N_1L4CALLI2InImEEEP6MemoryS4_R5StateT_S2_(%struct.Memory* %2, %struct.State* %0, i64 %7, i64 %9)
  ret %struct.Memory* %12
}


define %struct.Memory* @routine_movl_MINUS0x8__rbp____esi(%struct.State*  dereferenceable(3376), i64, %struct.Memory* ) #19 {
block_400488:
  %3 = getelementptr inbounds %struct.State, %struct.State* %0, i32 0, i32 6
  %4 = getelementptr inbounds %struct.GPR, %struct.GPR* %3, i32 0, i32 33
  %5 = getelementptr inbounds %struct.Reg, %struct.Reg* %4, i32 0, i32 0
  %PC = bitcast %union.anon* %5 to i64*
  %6 = getelementptr inbounds %struct.State, %struct.State* %0, i32 0, i32 6
  %7 = getelementptr inbounds %struct.GPR, %struct.GPR* %6, i32 0, i32 9
  %8 = getelementptr inbounds %struct.Reg, %struct.Reg* %7, i32 0, i32 0
  %RSI = bitcast %union.anon* %8 to i64*
  %9 = getelementptr inbounds %struct.State, %struct.State* %0, i32 0, i32 6
  %10 = getelementptr inbounds %struct.GPR, %struct.GPR* %9, i32 0, i32 15
  %11 = getelementptr inbounds %struct.Reg, %struct.Reg* %10, i32 0, i32 0
  %RBP = bitcast %union.anon* %11 to i64*
  %12 = load i64, i64* %RBP
  %13 = sub i64 %12, 8
  %14 = load i64, i64* %PC
  %15 = add i64 %14, 3
  store i64 %15, i64* %PC
  %16 = call %struct.Memory* @_ZN12_GLOBAL__N_1L3MOVI3RnWImE2MnIjEEEP6MemoryS6_R5StateT_T0_(%struct.Memory* %2, %struct.State* %0, i64* %RSI, i64 %13)
  ret %struct.Memory* %16
}


define %struct.Memory* @routine_addl__0x1___esi(%struct.State*  dereferenceable(3376), i64, %struct.Memory* ) #19 {
block_400488:
  %3 = getelementptr inbounds %struct.State, %struct.State* %0, i32 0, i32 6
  %4 = getelementptr inbounds %struct.GPR, %struct.GPR* %3, i32 0, i32 33
  %5 = getelementptr inbounds %struct.Reg, %struct.Reg* %4, i32 0, i32 0
  %PC = bitcast %union.anon* %5 to i64*
  %6 = getelementptr inbounds %struct.State, %struct.State* %0, i32 0, i32 6
  %7 = getelementptr inbounds %struct.GPR, %struct.GPR* %6, i32 0, i32 9
  %8 = getelementptr inbounds %struct.Reg, %struct.Reg* %7, i32 0, i32 0
  %RSI = bitcast %union.anon* %8 to i64*
  %9 = load i64, i64* %RSI
  %10 = load i64, i64* %PC
  %11 = add i64 %10, 3
  store i64 %11, i64* %PC
  %12 = call %struct.Memory* @_ZN12_GLOBAL__N_1L3ADDI3RnWImE2RnIjE2InIjEEEP6MemoryS8_R5StateT_T0_T1_(%struct.Memory* %2, %struct.State* %0, i64* %RSI, i64 %9, i64 1)
  ret %struct.Memory* %12
}


define %struct.Memory* @routine_movl__esi__MINUS0x8__rbp_(%struct.State*  dereferenceable(3376), i64, %struct.Memory* ) #19 {
block_400488:
  %3 = getelementptr inbounds %struct.State, %struct.State* %0, i32 0, i32 6
  %4 = getelementptr inbounds %struct.GPR, %struct.GPR* %3, i32 0, i32 33
  %5 = getelementptr inbounds %struct.Reg, %struct.Reg* %4, i32 0, i32 0
  %PC = bitcast %union.anon* %5 to i64*
  %6 = getelementptr inbounds %struct.State, %struct.State* %0, i32 0, i32 6
  %7 = getelementptr inbounds %struct.GPR, %struct.GPR* %6, i32 0, i32 9
  %8 = getelementptr inbounds %struct.Reg, %struct.Reg* %7, i32 0, i32 0
  %ESI = bitcast %union.anon* %8 to i32*
  %9 = getelementptr inbounds %struct.State, %struct.State* %0, i32 0, i32 6
  %10 = getelementptr inbounds %struct.GPR, %struct.GPR* %9, i32 0, i32 15
  %11 = getelementptr inbounds %struct.Reg, %struct.Reg* %10, i32 0, i32 0
  %RBP = bitcast %union.anon* %11 to i64*
  %12 = load i64, i64* %RBP
  %13 = sub i64 %12, 8
  %14 = load i32, i32* %ESI
  %15 = zext i32 %14 to i64
  %16 = load i64, i64* %PC
  %17 = add i64 %16, 3
  store i64 %17, i64* %PC
  %18 = call %struct.Memory* @_ZN12_GLOBAL__N_1L3MOVI3MnWIjE2RnIjEEEP6MemoryS6_R5StateT_T0_(%struct.Memory* %2, %struct.State* %0, i64 %13, i64 %15)
  ret %struct.Memory* %18
}


define %struct.Memory* @routine_movl__eax__MINUS0xc4__rbp_(%struct.State*  dereferenceable(3376), i64, %struct.Memory* ) #19 {
block_400488:
  %3 = getelementptr inbounds %struct.State, %struct.State* %0, i32 0, i32 6
  %4 = getelementptr inbounds %struct.GPR, %struct.GPR* %3, i32 0, i32 33
  %5 = getelementptr inbounds %struct.Reg, %struct.Reg* %4, i32 0, i32 0
  %PC = bitcast %union.anon* %5 to i64*
  %6 = getelementptr inbounds %struct.State, %struct.State* %0, i32 0, i32 6
  %7 = getelementptr inbounds %struct.GPR, %struct.GPR* %6, i32 0, i32 1
  %8 = getelementptr inbounds %struct.Reg, %struct.Reg* %7, i32 0, i32 0
  %EAX = bitcast %union.anon* %8 to i32*
  %9 = getelementptr inbounds %struct.State, %struct.State* %0, i32 0, i32 6
  %10 = getelementptr inbounds %struct.GPR, %struct.GPR* %9, i32 0, i32 15
  %11 = getelementptr inbounds %struct.Reg, %struct.Reg* %10, i32 0, i32 0
  %RBP = bitcast %union.anon* %11 to i64*
  %12 = load i64, i64* %RBP
  %13 = sub i64 %12, 196
  %14 = load i32, i32* %EAX
  %15 = zext i32 %14 to i64
  %16 = load i64, i64* %PC
  %17 = add i64 %16, 6
  store i64 %17, i64* %PC
  %18 = call %struct.Memory* @_ZN12_GLOBAL__N_1L3MOVI3MnWIjE2RnIjEEEP6MemoryS6_R5StateT_T0_(%struct.Memory* %2, %struct.State* %0, i64 %13, i64 %15)
  ret %struct.Memory* %18
}


define %struct.Memory* @routine_jmpq_.L_4007c3(%struct.State*  dereferenceable(3376), i64, %struct.Memory*, i64 %rel_off1, i64 %rel_off2) {
block_400488:
  %3 = getelementptr inbounds %struct.State, %struct.State* %0, i32 0, i32 6
  %4 = getelementptr inbounds %struct.GPR, %struct.GPR* %3, i32 0, i32 33
  %5 = getelementptr inbounds %struct.Reg, %struct.Reg* %4, i32 0, i32 0
  %PC = bitcast %union.anon* %5 to i64*
  %6 = load i64, i64* %PC
  %7 = add i64 %6, %rel_off1
  %8 = load i64, i64* %PC
  %9 = add i64 %8, %rel_off2
  store i64 %9, i64* %PC
  %10 = call %struct.Memory* @_ZN12_GLOBAL__N_1L3JMPI2InImEEEP6MemoryS4_R5StateT_(%struct.Memory* %2, %struct.State* %0, i64 %7)
  ret %struct.Memory* %10
}

define internal %struct.Memory* @_ZN12_GLOBAL__N_1L3MOVI3RnWImE2InImEEEP6MemoryS6_R5StateT_T0_(%struct.Memory* readnone returned, %struct.State* nocapture readnone dereferenceable(3376), i64* nocapture, i64) #2 {
  store i64 %3, i64* %2, align 8
  ret %struct.Memory* %0
}

define %struct.Memory* @routine_movq__0x604920___rdi(%struct.State*  dereferenceable(3376), i64, %struct.Memory* ) #19 {
block_400488:
  %3 = getelementptr inbounds %struct.State, %struct.State* %0, i32 0, i32 6
  %4 = getelementptr inbounds %struct.GPR, %struct.GPR* %3, i32 0, i32 33
  %5 = getelementptr inbounds %struct.Reg, %struct.Reg* %4, i32 0, i32 0
  %PC = bitcast %union.anon* %5 to i64*
  %6 = getelementptr inbounds %struct.State, %struct.State* %0, i32 0, i32 6
  %7 = getelementptr inbounds %struct.GPR, %struct.GPR* %6, i32 0, i32 11
  %8 = getelementptr inbounds %struct.Reg, %struct.Reg* %7, i32 0, i32 0
  %RDI = bitcast %union.anon* %8 to i64*
  %9 = load i64, i64* %PC
  %10 = add i64 %9, 10
  store i64 %10, i64* %PC
  %11 = call %struct.Memory* @_ZN12_GLOBAL__N_1L3MOVI3RnWImE2InImEEEP6MemoryS6_R5StateT_T0_(%struct.Memory* %2, %struct.State* %0, i64* %RDI, i64 6310176)
  ret %struct.Memory* %11
}


define %struct.Memory* @routine_movq__0x602070___rsi(%struct.State*  dereferenceable(3376), i64, %struct.Memory* ) #19 {
block_400488:
  %3 = getelementptr inbounds %struct.State, %struct.State* %0, i32 0, i32 6
  %4 = getelementptr inbounds %struct.GPR, %struct.GPR* %3, i32 0, i32 33
  %5 = getelementptr inbounds %struct.Reg, %struct.Reg* %4, i32 0, i32 0
  %PC = bitcast %union.anon* %5 to i64*
  %6 = getelementptr inbounds %struct.State, %struct.State* %0, i32 0, i32 6
  %7 = getelementptr inbounds %struct.GPR, %struct.GPR* %6, i32 0, i32 9
  %8 = getelementptr inbounds %struct.Reg, %struct.Reg* %7, i32 0, i32 0
  %RSI = bitcast %union.anon* %8 to i64*
  %9 = load i64, i64* %PC
  %10 = add i64 %9, 10
  store i64 %10, i64* %PC
  %11 = call %struct.Memory* @_ZN12_GLOBAL__N_1L3MOVI3RnWImE2InImEEEP6MemoryS6_R5StateT_T0_(%struct.Memory* %2, %struct.State* %0, i64* %RSI, i64 6299760)
  ret %struct.Memory* %11
}


define %struct.Memory* @routine_movl_MINUS0x8__rbp____edx(%struct.State*  dereferenceable(3376), i64, %struct.Memory* ) #19 {
block_400488:
  %3 = getelementptr inbounds %struct.State, %struct.State* %0, i32 0, i32 6
  %4 = getelementptr inbounds %struct.GPR, %struct.GPR* %3, i32 0, i32 33
  %5 = getelementptr inbounds %struct.Reg, %struct.Reg* %4, i32 0, i32 0
  %PC = bitcast %union.anon* %5 to i64*
  %6 = getelementptr inbounds %struct.State, %struct.State* %0, i32 0, i32 6
  %7 = getelementptr inbounds %struct.GPR, %struct.GPR* %6, i32 0, i32 7
  %8 = getelementptr inbounds %struct.Reg, %struct.Reg* %7, i32 0, i32 0
  %RDX = bitcast %union.anon* %8 to i64*
  %9 = getelementptr inbounds %struct.State, %struct.State* %0, i32 0, i32 6
  %10 = getelementptr inbounds %struct.GPR, %struct.GPR* %9, i32 0, i32 15
  %11 = getelementptr inbounds %struct.Reg, %struct.Reg* %10, i32 0, i32 0
  %RBP = bitcast %union.anon* %11 to i64*
  %12 = load i64, i64* %RBP
  %13 = sub i64 %12, 8
  %14 = load i64, i64* %PC
  %15 = add i64 %14, 3
  store i64 %15, i64* %PC
  %16 = call %struct.Memory* @_ZN12_GLOBAL__N_1L3MOVI3RnWImE2MnIjEEEP6MemoryS6_R5StateT_T0_(%struct.Memory* %2, %struct.State* %0, i64* %RDX, i64 %13)
  ret %struct.Memory* %16
}


define %struct.Memory* @routine_movl_MINUS0x10__rbp____ecx(%struct.State*  dereferenceable(3376), i64, %struct.Memory* ) #19 {
block_400488:
  %3 = getelementptr inbounds %struct.State, %struct.State* %0, i32 0, i32 6
  %4 = getelementptr inbounds %struct.GPR, %struct.GPR* %3, i32 0, i32 33
  %5 = getelementptr inbounds %struct.Reg, %struct.Reg* %4, i32 0, i32 0
  %PC = bitcast %union.anon* %5 to i64*
  %6 = getelementptr inbounds %struct.State, %struct.State* %0, i32 0, i32 6
  %7 = getelementptr inbounds %struct.GPR, %struct.GPR* %6, i32 0, i32 5
  %8 = getelementptr inbounds %struct.Reg, %struct.Reg* %7, i32 0, i32 0
  %RCX = bitcast %union.anon* %8 to i64*
  %9 = getelementptr inbounds %struct.State, %struct.State* %0, i32 0, i32 6
  %10 = getelementptr inbounds %struct.GPR, %struct.GPR* %9, i32 0, i32 15
  %11 = getelementptr inbounds %struct.Reg, %struct.Reg* %10, i32 0, i32 0
  %RBP = bitcast %union.anon* %11 to i64*
  %12 = load i64, i64* %RBP
  %13 = sub i64 %12, 16
  %14 = load i64, i64* %PC
  %15 = add i64 %14, 3
  store i64 %15, i64* %PC
  %16 = call %struct.Memory* @_ZN12_GLOBAL__N_1L3MOVI3RnWImE2MnIjEEEP6MemoryS6_R5StateT_T0_(%struct.Memory* %2, %struct.State* %0, i64* %RCX, i64 %13)
  ret %struct.Memory* %16
}


define %struct.Memory* @routine_callq_.Proc8(%struct.State*  dereferenceable(3376), i64, %struct.Memory*, i64 %rel_off1, i64 %rel_off2, i64 %rel_off3) {
block_400488:
  %3 = getelementptr inbounds %struct.State, %struct.State* %0, i32 0, i32 6
  %4 = getelementptr inbounds %struct.GPR, %struct.GPR* %3, i32 0, i32 33
  %5 = getelementptr inbounds %struct.Reg, %struct.Reg* %4, i32 0, i32 0
  %PC = bitcast %union.anon* %5 to i64*
  %6 = load i64, i64* %PC
  %7 = add i64 %6, %rel_off1
  %8 = load i64, i64* %PC
  %9 = add i64 %8, %rel_off2
  %10 = load i64, i64* %PC
  %11 = add i64 %10, %rel_off3
  store i64 %11, i64* %PC
  %12 = call %struct.Memory* @_ZN12_GLOBAL__N_1L4CALLI2InImEEEP6MemoryS4_R5StateT_S2_(%struct.Memory* %2, %struct.State* %0, i64 %7, i64 %9)
  ret %struct.Memory* %12
}


define %struct.Memory* @routine_movq_0x602068___rdi(%struct.State*  dereferenceable(3376), i64, %struct.Memory* ) #19 {
block_400488:
  %3 = getelementptr inbounds %struct.State, %struct.State* %0, i32 0, i32 6
  %4 = getelementptr inbounds %struct.GPR, %struct.GPR* %3, i32 0, i32 33
  %5 = getelementptr inbounds %struct.Reg, %struct.Reg* %4, i32 0, i32 0
  %PC = bitcast %union.anon* %5 to i64*
  %6 = getelementptr inbounds %struct.State, %struct.State* %0, i32 0, i32 6
  %7 = getelementptr inbounds %struct.GPR, %struct.GPR* %6, i32 0, i32 11
  %8 = getelementptr inbounds %struct.Reg, %struct.Reg* %7, i32 0, i32 0
  %RDI = bitcast %union.anon* %8 to i64*
  %9 = load i64, i64* %PC
  %10 = add i64 %9, 8
  store i64 %10, i64* %PC
  %11 = call %struct.Memory* @_ZN12_GLOBAL__N_1L3MOVI3RnWImE2MnImEEEP6MemoryS6_R5StateT_T0_(%struct.Memory* %2, %struct.State* %0, i64* %RDI, i64 6299752)
  ret %struct.Memory* %11
}


define %struct.Memory* @routine_movl__eax__MINUS0xc8__rbp_(%struct.State*  dereferenceable(3376), i64, %struct.Memory* ) #19 {
block_400488:
  %3 = getelementptr inbounds %struct.State, %struct.State* %0, i32 0, i32 6
  %4 = getelementptr inbounds %struct.GPR, %struct.GPR* %3, i32 0, i32 33
  %5 = getelementptr inbounds %struct.Reg, %struct.Reg* %4, i32 0, i32 0
  %PC = bitcast %union.anon* %5 to i64*
  %6 = getelementptr inbounds %struct.State, %struct.State* %0, i32 0, i32 6
  %7 = getelementptr inbounds %struct.GPR, %struct.GPR* %6, i32 0, i32 1
  %8 = getelementptr inbounds %struct.Reg, %struct.Reg* %7, i32 0, i32 0
  %EAX = bitcast %union.anon* %8 to i32*
  %9 = getelementptr inbounds %struct.State, %struct.State* %0, i32 0, i32 6
  %10 = getelementptr inbounds %struct.GPR, %struct.GPR* %9, i32 0, i32 15
  %11 = getelementptr inbounds %struct.Reg, %struct.Reg* %10, i32 0, i32 0
  %RBP = bitcast %union.anon* %11 to i64*
  %12 = load i64, i64* %RBP
  %13 = sub i64 %12, 200
  %14 = load i32, i32* %EAX
  %15 = zext i32 %14 to i64
  %16 = load i64, i64* %PC
  %17 = add i64 %16, 6
  store i64 %17, i64* %PC
  %18 = call %struct.Memory* @_ZN12_GLOBAL__N_1L3MOVI3MnWIjE2RnIjEEEP6MemoryS6_R5StateT_T0_(%struct.Memory* %2, %struct.State* %0, i64 %13, i64 %15)
  ret %struct.Memory* %18
}


define %struct.Memory* @routine_callq_.Proc1(%struct.State*  dereferenceable(3376), i64, %struct.Memory*, i64 %rel_off1, i64 %rel_off2, i64 %rel_off3) {
block_400488:
  %3 = getelementptr inbounds %struct.State, %struct.State* %0, i32 0, i32 6
  %4 = getelementptr inbounds %struct.GPR, %struct.GPR* %3, i32 0, i32 33
  %5 = getelementptr inbounds %struct.Reg, %struct.Reg* %4, i32 0, i32 0
  %PC = bitcast %union.anon* %5 to i64*
  %6 = load i64, i64* %PC
  %7 = add i64 %6, %rel_off1
  %8 = load i64, i64* %PC
  %9 = add i64 %8, %rel_off2
  %10 = load i64, i64* %PC
  %11 = add i64 %10, %rel_off3
  store i64 %11, i64* %PC
  %12 = call %struct.Memory* @_ZN12_GLOBAL__N_1L4CALLI2InImEEEP6MemoryS4_R5StateT_S2_(%struct.Memory* %2, %struct.State* %0, i64 %7, i64 %9)
  ret %struct.Memory* %12
}

define internal %struct.Memory* @_ZN12_GLOBAL__N_1L3MOVI3MnWIhE2InIhEEEP6MemoryS6_R5StateT_T0_(%struct.Memory* readnone, %struct.State* nocapture readnone dereferenceable(3376), i64, i64) #8 {
  %5 = trunc i64 %3 to i8
  %6 = inttoptr i64 %2 to i8*
  store i8 %5, i8* %6
  ret %struct.Memory* %0
}

define %struct.Memory* @routine_movb__0x41__MINUS0x12__rbp_(%struct.State*  dereferenceable(3376), i64, %struct.Memory* ) #19 {
block_400488:
  %3 = getelementptr inbounds %struct.State, %struct.State* %0, i32 0, i32 6
  %4 = getelementptr inbounds %struct.GPR, %struct.GPR* %3, i32 0, i32 33
  %5 = getelementptr inbounds %struct.Reg, %struct.Reg* %4, i32 0, i32 0
  %PC = bitcast %union.anon* %5 to i64*
  %6 = getelementptr inbounds %struct.State, %struct.State* %0, i32 0, i32 6
  %7 = getelementptr inbounds %struct.GPR, %struct.GPR* %6, i32 0, i32 15
  %8 = getelementptr inbounds %struct.Reg, %struct.Reg* %7, i32 0, i32 0
  %RBP = bitcast %union.anon* %8 to i64*
  %9 = load i64, i64* %RBP
  %10 = sub i64 %9, 18
  %11 = load i64, i64* %PC
  %12 = add i64 %11, 4
  store i64 %12, i64* %PC
  %13 = call %struct.Memory* @_ZN12_GLOBAL__N_1L3MOVI3MnWIhE2InIhEEEP6MemoryS6_R5StateT_T0_(%struct.Memory* %2, %struct.State* %0, i64 %10, i64 65)
  ret %struct.Memory* %13
}


define %struct.Memory* @routine_movl__eax__MINUS0xcc__rbp_(%struct.State*  dereferenceable(3376), i64, %struct.Memory* ) #19 {
block_400488:
  %3 = getelementptr inbounds %struct.State, %struct.State* %0, i32 0, i32 6
  %4 = getelementptr inbounds %struct.GPR, %struct.GPR* %3, i32 0, i32 33
  %5 = getelementptr inbounds %struct.Reg, %struct.Reg* %4, i32 0, i32 0
  %PC = bitcast %union.anon* %5 to i64*
  %6 = getelementptr inbounds %struct.State, %struct.State* %0, i32 0, i32 6
  %7 = getelementptr inbounds %struct.GPR, %struct.GPR* %6, i32 0, i32 1
  %8 = getelementptr inbounds %struct.Reg, %struct.Reg* %7, i32 0, i32 0
  %EAX = bitcast %union.anon* %8 to i32*
  %9 = getelementptr inbounds %struct.State, %struct.State* %0, i32 0, i32 6
  %10 = getelementptr inbounds %struct.GPR, %struct.GPR* %9, i32 0, i32 15
  %11 = getelementptr inbounds %struct.Reg, %struct.Reg* %10, i32 0, i32 0
  %RBP = bitcast %union.anon* %11 to i64*
  %12 = load i64, i64* %RBP
  %13 = sub i64 %12, 204
  %14 = load i32, i32* %EAX
  %15 = zext i32 %14 to i64
  %16 = load i64, i64* %PC
  %17 = add i64 %16, 6
  store i64 %17, i64* %PC
  %18 = call %struct.Memory* @_ZN12_GLOBAL__N_1L3MOVI3MnWIjE2RnIjEEEP6MemoryS6_R5StateT_T0_(%struct.Memory* %2, %struct.State* %0, i64 %13, i64 %15)
  ret %struct.Memory* %18
}

define internal %struct.Memory* @_ZN12_GLOBAL__N_1L5MOVSXI3RnWImE2MnIhEiEEP6MemoryS6_R5StateT_T0_(%struct.Memory* returned, %struct.State* nocapture readnone dereferenceable(3376), i64* nocapture, i64) #0 {
  %5 = inttoptr i64 %3 to i8*
  %6 = load i8, i8* %5
  %7 = sext i8 %6 to i64
  %8 = and i64 %7, 4294967295
  store i64 %8, i64* %2, align 8
  ret %struct.Memory* %0
}

define %struct.Memory* @routine_movsbl_MINUS0x12__rbp____eax(%struct.State*  dereferenceable(3376), i64, %struct.Memory* ) #19 {
block_400488:
  %3 = getelementptr inbounds %struct.State, %struct.State* %0, i32 0, i32 6
  %4 = getelementptr inbounds %struct.GPR, %struct.GPR* %3, i32 0, i32 33
  %5 = getelementptr inbounds %struct.Reg, %struct.Reg* %4, i32 0, i32 0
  %PC = bitcast %union.anon* %5 to i64*
  %6 = getelementptr inbounds %struct.State, %struct.State* %0, i32 0, i32 6
  %7 = getelementptr inbounds %struct.GPR, %struct.GPR* %6, i32 0, i32 1
  %8 = getelementptr inbounds %struct.Reg, %struct.Reg* %7, i32 0, i32 0
  %RAX = bitcast %union.anon* %8 to i64*
  %9 = getelementptr inbounds %struct.State, %struct.State* %0, i32 0, i32 6
  %10 = getelementptr inbounds %struct.GPR, %struct.GPR* %9, i32 0, i32 15
  %11 = getelementptr inbounds %struct.Reg, %struct.Reg* %10, i32 0, i32 0
  %RBP = bitcast %union.anon* %11 to i64*
  %12 = load i64, i64* %RBP
  %13 = sub i64 %12, 18
  %14 = load i64, i64* %PC
  %15 = add i64 %14, 4
  store i64 %15, i64* %PC
  %16 = call %struct.Memory* @_ZN12_GLOBAL__N_1L5MOVSXI3RnWImE2MnIhEiEEP6MemoryS6_R5StateT_T0_(%struct.Memory* %2, %struct.State* %0, i64* %RAX, i64 %13)
  ret %struct.Memory* %16
}


define %struct.Memory* @routine_movsbl_0x6049f4___ecx(%struct.State*  dereferenceable(3376), i64, %struct.Memory* ) #19 {
block_400488:
  %3 = getelementptr inbounds %struct.State, %struct.State* %0, i32 0, i32 6
  %4 = getelementptr inbounds %struct.GPR, %struct.GPR* %3, i32 0, i32 33
  %5 = getelementptr inbounds %struct.Reg, %struct.Reg* %4, i32 0, i32 0
  %PC = bitcast %union.anon* %5 to i64*
  %6 = getelementptr inbounds %struct.State, %struct.State* %0, i32 0, i32 6
  %7 = getelementptr inbounds %struct.GPR, %struct.GPR* %6, i32 0, i32 5
  %8 = getelementptr inbounds %struct.Reg, %struct.Reg* %7, i32 0, i32 0
  %RCX = bitcast %union.anon* %8 to i64*
  %9 = load i64, i64* %PC
  %10 = add i64 %9, 8
  store i64 %10, i64* %PC
  %11 = call %struct.Memory* @_ZN12_GLOBAL__N_1L5MOVSXI3RnWImE2MnIhEiEEP6MemoryS6_R5StateT_T0_(%struct.Memory* %2, %struct.State* %0, i64* %RCX, i64 6310388)
  ret %struct.Memory* %11
}

define internal %struct.Memory* @_ZN12_GLOBAL__N_1L3CMPI2RnIjES2_EEP6MemoryS4_R5StateT_T0_(%struct.Memory* readnone returned, %struct.State* nocapture dereferenceable(3376), i64, i64) #0 {
  %5 = trunc i64 %2 to i32
  %6 = trunc i64 %3 to i32
  %7 = sub i32 %5, %6
  %8 = icmp ult i32 %5, %6
  %9 = zext i1 %8 to i8
  %10 = getelementptr inbounds %struct.State, %struct.State* %1, i64 0, i32 2, i32 1
  store i8 %9, i8* %10, align 1
  %11 = and i32 %7, 255
  %12 = tail call i32 @llvm.ctpop.i32(i32 %11) #22
  %13 = trunc i32 %12 to i8
  %14 = and i8 %13, 1
  %15 = xor i8 %14, 1
  %16 = getelementptr inbounds %struct.State, %struct.State* %1, i64 0, i32 2, i32 3
  store i8 %15, i8* %16, align 1
  %17 = xor i64 %3, %2
  %18 = trunc i64 %17 to i32
  %19 = xor i32 %18, %7
  %20 = lshr i32 %19, 4
  %21 = trunc i32 %20 to i8
  %22 = and i8 %21, 1
  %23 = getelementptr inbounds %struct.State, %struct.State* %1, i64 0, i32 2, i32 5
  store i8 %22, i8* %23, align 1
  %24 = icmp eq i32 %7, 0
  %25 = zext i1 %24 to i8
  %26 = getelementptr inbounds %struct.State, %struct.State* %1, i64 0, i32 2, i32 7
  store i8 %25, i8* %26, align 1
  %27 = lshr i32 %7, 31
  %28 = trunc i32 %27 to i8
  %29 = getelementptr inbounds %struct.State, %struct.State* %1, i64 0, i32 2, i32 9
  store i8 %28, i8* %29, align 1
  %30 = lshr i32 %5, 31
  %31 = lshr i32 %6, 31
  %32 = xor i32 %31, %30
  %33 = xor i32 %27, %30
  %34 = add   i32 %33, %32
  %35 = icmp eq i32 %34, 2
  %36 = zext i1 %35 to i8
  %37 = getelementptr inbounds %struct.State, %struct.State* %1, i64 0, i32 2, i32 13
  store i8 %36, i8* %37, align 1
  ret %struct.Memory* %0
}

define %struct.Memory* @routine_cmpl__ecx___eax(%struct.State*  dereferenceable(3376), i64, %struct.Memory* ) #19 {
block_400488:
  %3 = getelementptr inbounds %struct.State, %struct.State* %0, i32 0, i32 6
  %4 = getelementptr inbounds %struct.GPR, %struct.GPR* %3, i32 0, i32 33
  %5 = getelementptr inbounds %struct.Reg, %struct.Reg* %4, i32 0, i32 0
  %PC = bitcast %union.anon* %5 to i64*
  %6 = getelementptr inbounds %struct.State, %struct.State* %0, i32 0, i32 6
  %7 = getelementptr inbounds %struct.GPR, %struct.GPR* %6, i32 0, i32 1
  %8 = getelementptr inbounds %struct.Reg, %struct.Reg* %7, i32 0, i32 0
  %EAX = bitcast %union.anon* %8 to i32*
  %9 = getelementptr inbounds %struct.State, %struct.State* %0, i32 0, i32 6
  %10 = getelementptr inbounds %struct.GPR, %struct.GPR* %9, i32 0, i32 5
  %11 = getelementptr inbounds %struct.Reg, %struct.Reg* %10, i32 0, i32 0
  %ECX = bitcast %union.anon* %11 to i32*
  %12 = load i32, i32* %EAX
  %13 = zext i32 %12 to i64
  %14 = load i32, i32* %ECX
  %15 = zext i32 %14 to i64
  %16 = load i64, i64* %PC
  %17 = add i64 %16, 2
  store i64 %17, i64* %PC
  %18 = call %struct.Memory* @_ZN12_GLOBAL__N_1L3CMPI2RnIjES2_EEP6MemoryS4_R5StateT_T0_(%struct.Memory* %2, %struct.State* %0, i64 %13, i64 %15)
  ret %struct.Memory* %18
}

define internal %struct.Memory* @_ZN12_GLOBAL__N_1L4JNLEEP6MemoryR5State3RnWIhE2InImES7_(%struct.Memory* readnone returned, %struct.State* nocapture dereferenceable(3376), i8* nocapture, i64, i64) #2 {
  %6 = getelementptr inbounds %struct.State, %struct.State* %1, i64 0, i32 2, i32 7
  %7 = load i8, i8* %6, align 1
  %8 = icmp eq i8 %7, 0
  %9 = getelementptr inbounds %struct.State, %struct.State* %1, i64 0, i32 2, i32 9
  %10 = load i8, i8* %9, align 1
  %11 = icmp ne i8 %10, 0
  %12 = getelementptr inbounds %struct.State, %struct.State* %1, i64 0, i32 2, i32 13
  %13 = load i8, i8* %12, align 1
  %14 = icmp ne i8 %13, 0
  %15 = xor i1 %11, %14
  %16 = xor i1 %15, true
  %17 = and i1 %8, %16
  %18 = zext i1 %17 to i8
  store i8 %18, i8* %2, align 1
  %19 = getelementptr inbounds %struct.State, %struct.State* %1, i64 0, i32 6, i32 33, i32 0, i32 0
  %20 = select i1 %17, i64 %3, i64 %4
  store i64 %20, i64* %19, align 8
  ret %struct.Memory* %0
}

define %struct.Memory* @routine_jg_.L_400894(%struct.State*  dereferenceable(3376), i64, %struct.Memory*, i8* %BRANCH_TAKEN, i64 %rel_off1, i64 %rel_off2, i64 %rel_off3) {
block_400488:
  %3 = getelementptr inbounds %struct.State, %struct.State* %0, i32 0, i32 6
  %4 = getelementptr inbounds %struct.GPR, %struct.GPR* %3, i32 0, i32 33
  %5 = getelementptr inbounds %struct.Reg, %struct.Reg* %4, i32 0, i32 0
  %PC = bitcast %union.anon* %5 to i64*
  %6 = load i64, i64* %PC
  %7 = add i64 %6, %rel_off1
  %8 = load i64, i64* %PC
  %9 = add i64 %8, %rel_off2
  %10 = load i64, i64* %PC
  %11 = add i64 %10, %rel_off3
  store i64 %11, i64* %PC
  %12 = call %struct.Memory* @_ZN12_GLOBAL__N_1L4JNLEEP6MemoryR5State3RnWIhE2InImES7_(%struct.Memory* %2, %struct.State* %0, i8* %BRANCH_TAKEN, i64 %7, i64 %9)
  ret %struct.Memory* %12
}


define %struct.Memory* @routine_movl__0x43___esi(%struct.State*  dereferenceable(3376), i64, %struct.Memory* ) #19 {
block_400488:
  %3 = getelementptr inbounds %struct.State, %struct.State* %0, i32 0, i32 6
  %4 = getelementptr inbounds %struct.GPR, %struct.GPR* %3, i32 0, i32 33
  %5 = getelementptr inbounds %struct.Reg, %struct.Reg* %4, i32 0, i32 0
  %PC = bitcast %union.anon* %5 to i64*
  %6 = getelementptr inbounds %struct.State, %struct.State* %0, i32 0, i32 6
  %7 = getelementptr inbounds %struct.GPR, %struct.GPR* %6, i32 0, i32 9
  %8 = getelementptr inbounds %struct.Reg, %struct.Reg* %7, i32 0, i32 0
  %RSI = bitcast %union.anon* %8 to i64*
  %9 = load i64, i64* %PC
  %10 = add i64 %9, 5
  store i64 %10, i64* %PC
  %11 = call %struct.Memory* @_ZN12_GLOBAL__N_1L3MOVI3RnWImE2InIjEEEP6MemoryS6_R5StateT_T0_(%struct.Memory* %2, %struct.State* %0, i64* %RSI, i64 67)
  ret %struct.Memory* %11
}


define %struct.Memory* @routine_movl_MINUS0x18__rbp____eax(%struct.State*  dereferenceable(3376), i64, %struct.Memory* ) #19 {
block_400488:
  %3 = getelementptr inbounds %struct.State, %struct.State* %0, i32 0, i32 6
  %4 = getelementptr inbounds %struct.GPR, %struct.GPR* %3, i32 0, i32 33
  %5 = getelementptr inbounds %struct.Reg, %struct.Reg* %4, i32 0, i32 0
  %PC = bitcast %union.anon* %5 to i64*
  %6 = getelementptr inbounds %struct.State, %struct.State* %0, i32 0, i32 6
  %7 = getelementptr inbounds %struct.GPR, %struct.GPR* %6, i32 0, i32 1
  %8 = getelementptr inbounds %struct.Reg, %struct.Reg* %7, i32 0, i32 0
  %RAX = bitcast %union.anon* %8 to i64*
  %9 = getelementptr inbounds %struct.State, %struct.State* %0, i32 0, i32 6
  %10 = getelementptr inbounds %struct.GPR, %struct.GPR* %9, i32 0, i32 15
  %11 = getelementptr inbounds %struct.Reg, %struct.Reg* %10, i32 0, i32 0
  %RBP = bitcast %union.anon* %11 to i64*
  %12 = load i64, i64* %RBP
  %13 = sub i64 %12, 24
  %14 = load i64, i64* %PC
  %15 = add i64 %14, 3
  store i64 %15, i64* %PC
  %16 = call %struct.Memory* @_ZN12_GLOBAL__N_1L3MOVI3RnWImE2MnIjEEEP6MemoryS6_R5StateT_T0_(%struct.Memory* %2, %struct.State* %0, i64* %RAX, i64 %13)
  ret %struct.Memory* %16
}


define %struct.Memory* @routine_movsbl_MINUS0x12__rbp____edi(%struct.State*  dereferenceable(3376), i64, %struct.Memory* ) #19 {
block_400488:
  %3 = getelementptr inbounds %struct.State, %struct.State* %0, i32 0, i32 6
  %4 = getelementptr inbounds %struct.GPR, %struct.GPR* %3, i32 0, i32 33
  %5 = getelementptr inbounds %struct.Reg, %struct.Reg* %4, i32 0, i32 0
  %PC = bitcast %union.anon* %5 to i64*
  %6 = getelementptr inbounds %struct.State, %struct.State* %0, i32 0, i32 6
  %7 = getelementptr inbounds %struct.GPR, %struct.GPR* %6, i32 0, i32 11
  %8 = getelementptr inbounds %struct.Reg, %struct.Reg* %7, i32 0, i32 0
  %RDI = bitcast %union.anon* %8 to i64*
  %9 = getelementptr inbounds %struct.State, %struct.State* %0, i32 0, i32 6
  %10 = getelementptr inbounds %struct.GPR, %struct.GPR* %9, i32 0, i32 15
  %11 = getelementptr inbounds %struct.Reg, %struct.Reg* %10, i32 0, i32 0
  %RBP = bitcast %union.anon* %11 to i64*
  %12 = load i64, i64* %RBP
  %13 = sub i64 %12, 18
  %14 = load i64, i64* %PC
  %15 = add i64 %14, 4
  store i64 %15, i64* %PC
  %16 = call %struct.Memory* @_ZN12_GLOBAL__N_1L5MOVSXI3RnWImE2MnIhEiEEP6MemoryS6_R5StateT_T0_(%struct.Memory* %2, %struct.State* %0, i64* %RDI, i64 %13)
  ret %struct.Memory* %16
}


define %struct.Memory* @routine_movl__eax__MINUS0xd0__rbp_(%struct.State*  dereferenceable(3376), i64, %struct.Memory* ) #19 {
block_400488:
  %3 = getelementptr inbounds %struct.State, %struct.State* %0, i32 0, i32 6
  %4 = getelementptr inbounds %struct.GPR, %struct.GPR* %3, i32 0, i32 33
  %5 = getelementptr inbounds %struct.Reg, %struct.Reg* %4, i32 0, i32 0
  %PC = bitcast %union.anon* %5 to i64*
  %6 = getelementptr inbounds %struct.State, %struct.State* %0, i32 0, i32 6
  %7 = getelementptr inbounds %struct.GPR, %struct.GPR* %6, i32 0, i32 1
  %8 = getelementptr inbounds %struct.Reg, %struct.Reg* %7, i32 0, i32 0
  %EAX = bitcast %union.anon* %8 to i32*
  %9 = getelementptr inbounds %struct.State, %struct.State* %0, i32 0, i32 6
  %10 = getelementptr inbounds %struct.GPR, %struct.GPR* %9, i32 0, i32 15
  %11 = getelementptr inbounds %struct.Reg, %struct.Reg* %10, i32 0, i32 0
  %RBP = bitcast %union.anon* %11 to i64*
  %12 = load i64, i64* %RBP
  %13 = sub i64 %12, 208
  %14 = load i32, i32* %EAX
  %15 = zext i32 %14 to i64
  %16 = load i64, i64* %PC
  %17 = add i64 %16, 6
  store i64 %17, i64* %PC
  %18 = call %struct.Memory* @_ZN12_GLOBAL__N_1L3MOVI3MnWIjE2RnIjEEEP6MemoryS6_R5StateT_T0_(%struct.Memory* %2, %struct.State* %0, i64 %13, i64 %15)
  ret %struct.Memory* %18
}


define %struct.Memory* @routine_callq_.Func1(%struct.State*  dereferenceable(3376), i64, %struct.Memory*, i64 %rel_off1, i64 %rel_off2, i64 %rel_off3) {
block_400488:
  %3 = getelementptr inbounds %struct.State, %struct.State* %0, i32 0, i32 6
  %4 = getelementptr inbounds %struct.GPR, %struct.GPR* %3, i32 0, i32 33
  %5 = getelementptr inbounds %struct.Reg, %struct.Reg* %4, i32 0, i32 0
  %PC = bitcast %union.anon* %5 to i64*
  %6 = load i64, i64* %PC
  %7 = add i64 %6, %rel_off1
  %8 = load i64, i64* %PC
  %9 = add i64 %8, %rel_off2
  %10 = load i64, i64* %PC
  %11 = add i64 %10, %rel_off3
  store i64 %11, i64* %PC
  %12 = call %struct.Memory* @_ZN12_GLOBAL__N_1L4CALLI2InImEEEP6MemoryS4_R5StateT_S2_(%struct.Memory* %2, %struct.State* %0, i64 %7, i64 %9)
  ret %struct.Memory* %12
}


define %struct.Memory* @routine_movl_MINUS0xd0__rbp____esi(%struct.State*  dereferenceable(3376), i64, %struct.Memory* ) #19 {
block_400488:
  %3 = getelementptr inbounds %struct.State, %struct.State* %0, i32 0, i32 6
  %4 = getelementptr inbounds %struct.GPR, %struct.GPR* %3, i32 0, i32 33
  %5 = getelementptr inbounds %struct.Reg, %struct.Reg* %4, i32 0, i32 0
  %PC = bitcast %union.anon* %5 to i64*
  %6 = getelementptr inbounds %struct.State, %struct.State* %0, i32 0, i32 6
  %7 = getelementptr inbounds %struct.GPR, %struct.GPR* %6, i32 0, i32 9
  %8 = getelementptr inbounds %struct.Reg, %struct.Reg* %7, i32 0, i32 0
  %RSI = bitcast %union.anon* %8 to i64*
  %9 = getelementptr inbounds %struct.State, %struct.State* %0, i32 0, i32 6
  %10 = getelementptr inbounds %struct.GPR, %struct.GPR* %9, i32 0, i32 15
  %11 = getelementptr inbounds %struct.Reg, %struct.Reg* %10, i32 0, i32 0
  %RBP = bitcast %union.anon* %11 to i64*
  %12 = load i64, i64* %RBP
  %13 = sub i64 %12, 208
  %14 = load i64, i64* %PC
  %15 = add i64 %14, 6
  store i64 %15, i64* %PC
  %16 = call %struct.Memory* @_ZN12_GLOBAL__N_1L3MOVI3RnWImE2MnIjEEEP6MemoryS6_R5StateT_T0_(%struct.Memory* %2, %struct.State* %0, i64* %RSI, i64 %13)
  ret %struct.Memory* %16
}


define %struct.Memory* @routine_cmpl__eax___esi(%struct.State*  dereferenceable(3376), i64, %struct.Memory* ) #19 {
block_400488:
  %3 = getelementptr inbounds %struct.State, %struct.State* %0, i32 0, i32 6
  %4 = getelementptr inbounds %struct.GPR, %struct.GPR* %3, i32 0, i32 33
  %5 = getelementptr inbounds %struct.Reg, %struct.Reg* %4, i32 0, i32 0
  %PC = bitcast %union.anon* %5 to i64*
  %6 = getelementptr inbounds %struct.State, %struct.State* %0, i32 0, i32 6
  %7 = getelementptr inbounds %struct.GPR, %struct.GPR* %6, i32 0, i32 1
  %8 = getelementptr inbounds %struct.Reg, %struct.Reg* %7, i32 0, i32 0
  %EAX = bitcast %union.anon* %8 to i32*
  %9 = getelementptr inbounds %struct.State, %struct.State* %0, i32 0, i32 6
  %10 = getelementptr inbounds %struct.GPR, %struct.GPR* %9, i32 0, i32 9
  %11 = getelementptr inbounds %struct.Reg, %struct.Reg* %10, i32 0, i32 0
  %ESI = bitcast %union.anon* %11 to i32*
  %12 = load i32, i32* %ESI
  %13 = zext i32 %12 to i64
  %14 = load i32, i32* %EAX
  %15 = zext i32 %14 to i64
  %16 = load i64, i64* %PC
  %17 = add i64 %16, 2
  store i64 %17, i64* %PC
  %18 = call %struct.Memory* @_ZN12_GLOBAL__N_1L3CMPI2RnIjES2_EEP6MemoryS4_R5StateT_T0_(%struct.Memory* %2, %struct.State* %0, i64 %13, i64 %15)
  ret %struct.Memory* %18
}

define internal %struct.Memory* @_ZN12_GLOBAL__N_1L3JNZEP6MemoryR5State3RnWIhE2InImES7_(%struct.Memory* readnone returned, %struct.State* nocapture dereferenceable(3376), i8* nocapture, i64, i64) #2 {
  %6 = getelementptr inbounds %struct.State, %struct.State* %1, i64 0, i32 2, i32 7
  %7 = load i8, i8* %6, align 1
  %8 = icmp eq i8 %7, 0
  %9 = zext i1 %8 to i8
  store i8 %9, i8* %2, align 1
  %10 = getelementptr inbounds %struct.State, %struct.State* %1, i64 0, i32 6, i32 33, i32 0, i32 0
  %11 = select i1 %8, i64 %3, i64 %4
  store i64 %11, i64* %10, align 8
  ret %struct.Memory* %0
}

define %struct.Memory* @routine_jne_.L_400882(%struct.State*  dereferenceable(3376), i64, %struct.Memory*, i8* %BRANCH_TAKEN, i64 %rel_off1, i64 %rel_off2, i64 %rel_off3) {
block_400488:
  %3 = getelementptr inbounds %struct.State, %struct.State* %0, i32 0, i32 6
  %4 = getelementptr inbounds %struct.GPR, %struct.GPR* %3, i32 0, i32 33
  %5 = getelementptr inbounds %struct.Reg, %struct.Reg* %4, i32 0, i32 0
  %PC = bitcast %union.anon* %5 to i64*
  %6 = load i64, i64* %PC
  %7 = add i64 %6, %rel_off1
  %8 = load i64, i64* %PC
  %9 = add i64 %8, %rel_off2
  %10 = load i64, i64* %PC
  %11 = add i64 %10, %rel_off3
  store i64 %11, i64* %PC
  %12 = call %struct.Memory* @_ZN12_GLOBAL__N_1L3JNZEP6MemoryR5State3RnWIhE2InImES7_(%struct.Memory* %2, %struct.State* %0, i8* %BRANCH_TAKEN, i64 %7, i64 %9)
  ret %struct.Memory* %12
}

define internal %struct.Memory* @_ZN12_GLOBAL__N_1L3XORI3RnWImE2RnIjES4_EEP6MemoryS6_R5StateT_T0_T1_(%struct.Memory* readnone returned, %struct.State* nocapture dereferenceable(3376), i64* nocapture, i64, i64) #0 {
  %6 = xor i64 %4, %3
  %7 = trunc i64 %6 to i32
  %8 = and i64 %6, 4294967295
  store i64 %8, i64* %2, align 8
  %9 = getelementptr inbounds %struct.State, %struct.State* %1, i64 0, i32 2, i32 1
  store i8 0, i8* %9, align 1
  %10 = and i32 %7, 255
  %11 = tail call i32 @llvm.ctpop.i32(i32 %10) #22
  %12 = trunc i32 %11 to i8
  %13 = and i8 %12, 1
  %14 = xor i8 %13, 1
  %15 = getelementptr inbounds %struct.State, %struct.State* %1, i64 0, i32 2, i32 3
  store i8 %14, i8* %15, align 1
  %16 = icmp eq i32 %7, 0
  %17 = zext i1 %16 to i8
  %18 = getelementptr inbounds %struct.State, %struct.State* %1, i64 0, i32 2, i32 7
  store i8 %17, i8* %18, align 1
  %19 = lshr i32 %7, 31
  %20 = trunc i32 %19 to i8
  %21 = getelementptr inbounds %struct.State, %struct.State* %1, i64 0, i32 2, i32 9
  store i8 %20, i8* %21, align 1
  %22 = getelementptr inbounds %struct.State, %struct.State* %1, i64 0, i32 2, i32 13
  store i8 0, i8* %22, align 1
  %23 = getelementptr inbounds %struct.State, %struct.State* %1, i64 0, i32 2, i32 5
  store i8 0, i8* %23, align 1
  ret %struct.Memory* %0
}

define %struct.Memory* @routine_xorl__edi___edi(%struct.State*  dereferenceable(3376), i64, %struct.Memory* ) #19 {
block_400488:
  %3 = getelementptr inbounds %struct.State, %struct.State* %0, i32 0, i32 6
  %4 = getelementptr inbounds %struct.GPR, %struct.GPR* %3, i32 0, i32 33
  %5 = getelementptr inbounds %struct.Reg, %struct.Reg* %4, i32 0, i32 0
  %PC = bitcast %union.anon* %5 to i64*
  %6 = getelementptr inbounds %struct.State, %struct.State* %0, i32 0, i32 6
  %7 = getelementptr inbounds %struct.GPR, %struct.GPR* %6, i32 0, i32 11
  %8 = getelementptr inbounds %struct.Reg, %struct.Reg* %7, i32 0, i32 0
  %EDI = bitcast %union.anon* %8 to i32*
  %9 = getelementptr inbounds %struct.State, %struct.State* %0, i32 0, i32 6
  %10 = getelementptr inbounds %struct.GPR, %struct.GPR* %9, i32 0, i32 11
  %11 = getelementptr inbounds %struct.Reg, %struct.Reg* %10, i32 0, i32 0
  %RDI = bitcast %union.anon* %11 to i64*
  %12 = load i64, i64* %RDI
  %13 = load i32, i32* %EDI
  %14 = zext i32 %13 to i64
  %15 = load i64, i64* %PC
  %16 = add i64 %15, 2
  store i64 %16, i64* %PC
  %17 = call %struct.Memory* @_ZN12_GLOBAL__N_1L3XORI3RnWImE2RnIjES4_EEP6MemoryS6_R5StateT_T0_T1_(%struct.Memory* %2, %struct.State* %0, i64* %RDI, i64 %12, i64 %14)
  ret %struct.Memory* %17
}


define %struct.Memory* @routine_leaq_MINUS0x18__rbp____rsi(%struct.State*  dereferenceable(3376), i64, %struct.Memory* ) #19 {
block_400488:
  %3 = getelementptr inbounds %struct.State, %struct.State* %0, i32 0, i32 6
  %4 = getelementptr inbounds %struct.GPR, %struct.GPR* %3, i32 0, i32 33
  %5 = getelementptr inbounds %struct.Reg, %struct.Reg* %4, i32 0, i32 0
  %PC = bitcast %union.anon* %5 to i64*
  %6 = getelementptr inbounds %struct.State, %struct.State* %0, i32 0, i32 6
  %7 = getelementptr inbounds %struct.GPR, %struct.GPR* %6, i32 0, i32 9
  %8 = getelementptr inbounds %struct.Reg, %struct.Reg* %7, i32 0, i32 0
  %RSI = bitcast %union.anon* %8 to i64*
  %9 = getelementptr inbounds %struct.State, %struct.State* %0, i32 0, i32 6
  %10 = getelementptr inbounds %struct.GPR, %struct.GPR* %9, i32 0, i32 15
  %11 = getelementptr inbounds %struct.Reg, %struct.Reg* %10, i32 0, i32 0
  %RBP = bitcast %union.anon* %11 to i64*
  %12 = load i64, i64* %RBP
  %13 = sub i64 %12, 24
  %14 = load i64, i64* %PC
  %15 = add i64 %14, 4
  store i64 %15, i64* %PC
  %16 = call %struct.Memory* @_ZN12_GLOBAL__N_1L3LEAI3RnWImE2MnIhEmEEP6MemoryS6_R5StateT_T0_(%struct.Memory* %2, %struct.State* %0, i64* %RSI, i64 %13)
  ret %struct.Memory* %16
}


define %struct.Memory* @routine_callq_.Proc6(%struct.State*  dereferenceable(3376), i64, %struct.Memory*, i64 %rel_off1, i64 %rel_off2, i64 %rel_off3) {
block_400488:
  %3 = getelementptr inbounds %struct.State, %struct.State* %0, i32 0, i32 6
  %4 = getelementptr inbounds %struct.GPR, %struct.GPR* %3, i32 0, i32 33
  %5 = getelementptr inbounds %struct.Reg, %struct.Reg* %4, i32 0, i32 0
  %PC = bitcast %union.anon* %5 to i64*
  %6 = load i64, i64* %PC
  %7 = add i64 %6, %rel_off1
  %8 = load i64, i64* %PC
  %9 = add i64 %8, %rel_off2
  %10 = load i64, i64* %PC
  %11 = add i64 %10, %rel_off3
  store i64 %11, i64* %PC
  %12 = call %struct.Memory* @_ZN12_GLOBAL__N_1L4CALLI2InImEEEP6MemoryS4_R5StateT_S2_(%struct.Memory* %2, %struct.State* %0, i64 %7, i64 %9)
  ret %struct.Memory* %12
}


define %struct.Memory* @routine_movl__eax__MINUS0xd4__rbp_(%struct.State*  dereferenceable(3376), i64, %struct.Memory* ) #19 {
block_400488:
  %3 = getelementptr inbounds %struct.State, %struct.State* %0, i32 0, i32 6
  %4 = getelementptr inbounds %struct.GPR, %struct.GPR* %3, i32 0, i32 33
  %5 = getelementptr inbounds %struct.Reg, %struct.Reg* %4, i32 0, i32 0
  %PC = bitcast %union.anon* %5 to i64*
  %6 = getelementptr inbounds %struct.State, %struct.State* %0, i32 0, i32 6
  %7 = getelementptr inbounds %struct.GPR, %struct.GPR* %6, i32 0, i32 1
  %8 = getelementptr inbounds %struct.Reg, %struct.Reg* %7, i32 0, i32 0
  %EAX = bitcast %union.anon* %8 to i32*
  %9 = getelementptr inbounds %struct.State, %struct.State* %0, i32 0, i32 6
  %10 = getelementptr inbounds %struct.GPR, %struct.GPR* %9, i32 0, i32 15
  %11 = getelementptr inbounds %struct.Reg, %struct.Reg* %10, i32 0, i32 0
  %RBP = bitcast %union.anon* %11 to i64*
  %12 = load i64, i64* %RBP
  %13 = sub i64 %12, 212
  %14 = load i32, i32* %EAX
  %15 = zext i32 %14 to i64
  %16 = load i64, i64* %PC
  %17 = add i64 %16, 6
  store i64 %17, i64* %PC
  %18 = call %struct.Memory* @_ZN12_GLOBAL__N_1L3MOVI3MnWIjE2RnIjEEEP6MemoryS6_R5StateT_T0_(%struct.Memory* %2, %struct.State* %0, i64 %13, i64 %15)
  ret %struct.Memory* %18
}


define %struct.Memory* @routine_jmpq_.L_400887(%struct.State*  dereferenceable(3376), i64, %struct.Memory*, i64 %rel_off1, i64 %rel_off2) {
block_400488:
  %3 = getelementptr inbounds %struct.State, %struct.State* %0, i32 0, i32 6
  %4 = getelementptr inbounds %struct.GPR, %struct.GPR* %3, i32 0, i32 33
  %5 = getelementptr inbounds %struct.Reg, %struct.Reg* %4, i32 0, i32 0
  %PC = bitcast %union.anon* %5 to i64*
  %6 = load i64, i64* %PC
  %7 = add i64 %6, %rel_off1
  %8 = load i64, i64* %PC
  %9 = add i64 %8, %rel_off2
  store i64 %9, i64* %PC
  %10 = call %struct.Memory* @_ZN12_GLOBAL__N_1L3JMPI2InImEEEP6MemoryS4_R5StateT_(%struct.Memory* %2, %struct.State* %0, i64 %7)
  ret %struct.Memory* %10
}

define internal %struct.Memory* @_ZN12_GLOBAL__N_1L3MOVI3RnWIhE2MnIhEEEP6MemoryS6_R5StateT_T0_(%struct.Memory* returned, %struct.State* nocapture readnone dereferenceable(3376), i8* nocapture, i64) #0 {
  %5 = inttoptr i64 %3 to i8*
  %6 = load i8, i8* %5
  store i8 %6, i8* %2, align 1
  ret %struct.Memory* %0
}

define %struct.Memory* @routine_movb_MINUS0x12__rbp____al(%struct.State*  dereferenceable(3376), i64, %struct.Memory* ) #19 {
block_400488:
  %3 = getelementptr inbounds %struct.State, %struct.State* %0, i32 0, i32 6
  %4 = getelementptr inbounds %struct.GPR, %struct.GPR* %3, i32 0, i32 33
  %5 = getelementptr inbounds %struct.Reg, %struct.Reg* %4, i32 0, i32 0
  %PC = bitcast %union.anon* %5 to i64*
  %6 = getelementptr inbounds %struct.State, %struct.State* %0, i32 0, i32 6
  %7 = getelementptr inbounds %struct.GPR, %struct.GPR* %6, i32 0, i32 1
  %8 = getelementptr inbounds %struct.Reg, %struct.Reg* %7, i32 0, i32 0
  %9 = bitcast %union.anon* %8 to %struct.anon.2*
  %AL = getelementptr inbounds %struct.anon.2, %struct.anon.2* %9, i32 0, i32 0
  %10 = getelementptr inbounds %struct.State, %struct.State* %0, i32 0, i32 6
  %11 = getelementptr inbounds %struct.GPR, %struct.GPR* %10, i32 0, i32 15
  %12 = getelementptr inbounds %struct.Reg, %struct.Reg* %11, i32 0, i32 0
  %RBP = bitcast %union.anon* %12 to i64*
  %13 = load i64, i64* %RBP
  %14 = sub i64 %13, 18
  %15 = load i64, i64* %PC
  %16 = add i64 %15, 3
  store i64 %16, i64* %PC
  %17 = call %struct.Memory* @_ZN12_GLOBAL__N_1L3MOVI3RnWIhE2MnIhEEEP6MemoryS6_R5StateT_T0_(%struct.Memory* %2, %struct.State* %0, i8* %AL, i64 %14)
  ret %struct.Memory* %17
}

define internal %struct.Memory* @_ZN12_GLOBAL__N_1L3ADDI3RnWIhE2RnIhE2InIhEEEP6MemoryS8_R5StateT_T0_T1_(%struct.Memory* readnone returned, %struct.State* nocapture dereferenceable(3376), i8* nocapture, i64, i64) #0 {
  %6 = trunc i64 %3 to i8
  %7 = trunc i64 %4 to i8
  %8 = add i8 %7, %6
  store i8 %8, i8* %2, align 1
  %9 = icmp ult i8 %8, %6
  %10 = icmp ult i8 %8, %7
  %11 = or i1 %9, %10
  %12 = zext i1 %11 to i8
  %13 = getelementptr inbounds %struct.State, %struct.State* %1, i64 0, i32 2, i32 1
  store i8 %12, i8* %13, align 1
  %14 = zext i8 %8 to i32
  %15 = tail call i32 @llvm.ctpop.i32(i32 %14) #22
  %16 = trunc i32 %15 to i8
  %17 = and i8 %16, 1
  %18 = xor i8 %17, 1
  %19 = getelementptr inbounds %struct.State, %struct.State* %1, i64 0, i32 2, i32 3
  store i8 %18, i8* %19, align 1
  %20 = xor i64 %4, %3
  %21 = trunc i64 %20 to i8
  %22 = xor i8 %21, %8
  %23 = lshr i8 %22, 4
  %24 = and i8 %23, 1
  %25 = getelementptr inbounds %struct.State, %struct.State* %1, i64 0, i32 2, i32 5
  store i8 %24, i8* %25, align 1
  %26 = icmp eq i8 %8, 0
  %27 = zext i1 %26 to i8
  %28 = getelementptr inbounds %struct.State, %struct.State* %1, i64 0, i32 2, i32 7
  store i8 %27, i8* %28, align 1
  %29 = lshr i8 %8, 7
  %30 = getelementptr inbounds %struct.State, %struct.State* %1, i64 0, i32 2, i32 9
  store i8 %29, i8* %30, align 1
  %31 = lshr i8 %6, 7
  %32 = lshr i8 %7, 7
  %33 = xor i8 %29, %31
  %34 = xor i8 %29, %32
  %35 = add   i8 %33, %34
  %36 = icmp eq i8 %35, 2
  %37 = zext i1 %36 to i8
  %38 = getelementptr inbounds %struct.State, %struct.State* %1, i64 0, i32 2, i32 13
  store i8 %37, i8* %38, align 1
  ret %struct.Memory* %0
}

define %struct.Memory* @routine_addb__0x1___al(%struct.State*  dereferenceable(3376), i64, %struct.Memory* ) #19 {
block_400488:
  %3 = getelementptr inbounds %struct.State, %struct.State* %0, i32 0, i32 6
  %4 = getelementptr inbounds %struct.GPR, %struct.GPR* %3, i32 0, i32 33
  %5 = getelementptr inbounds %struct.Reg, %struct.Reg* %4, i32 0, i32 0
  %PC = bitcast %union.anon* %5 to i64*
  %6 = getelementptr inbounds %struct.State, %struct.State* %0, i32 0, i32 6
  %7 = getelementptr inbounds %struct.GPR, %struct.GPR* %6, i32 0, i32 1
  %8 = getelementptr inbounds %struct.Reg, %struct.Reg* %7, i32 0, i32 0
  %9 = bitcast %union.anon* %8 to %struct.anon.2*
  %AL = getelementptr inbounds %struct.anon.2, %struct.anon.2* %9, i32 0, i32 0
  %10 = load i8, i8* %AL
  %11 = zext i8 %10 to i64
  %12 = load i64, i64* %PC
  %13 = add i64 %12, 2
  store i64 %13, i64* %PC
  %14 = call %struct.Memory* @_ZN12_GLOBAL__N_1L3ADDI3RnWIhE2RnIhE2InIhEEEP6MemoryS8_R5StateT_T0_T1_(%struct.Memory* %2, %struct.State* %0, i8* %AL, i64 %11, i64 1)
  ret %struct.Memory* %14
}

define internal %struct.Memory* @_ZN12_GLOBAL__N_1L3MOVI3MnWIhE2RnIhEEEP6MemoryS6_R5StateT_T0_(%struct.Memory* readnone, %struct.State* nocapture readnone dereferenceable(3376), i64, i64) #8 {
  %5 = trunc i64 %3 to i8
  %6 = inttoptr i64 %2 to i8*
  store i8 %5, i8* %6
  ret %struct.Memory* %0
}

define %struct.Memory* @routine_movb__al__MINUS0x12__rbp_(%struct.State*  dereferenceable(3376), i64, %struct.Memory* ) #19 {
block_400488:
  %3 = getelementptr inbounds %struct.State, %struct.State* %0, i32 0, i32 6
  %4 = getelementptr inbounds %struct.GPR, %struct.GPR* %3, i32 0, i32 33
  %5 = getelementptr inbounds %struct.Reg, %struct.Reg* %4, i32 0, i32 0
  %PC = bitcast %union.anon* %5 to i64*
  %6 = getelementptr inbounds %struct.State, %struct.State* %0, i32 0, i32 6
  %7 = getelementptr inbounds %struct.GPR, %struct.GPR* %6, i32 0, i32 1
  %8 = getelementptr inbounds %struct.Reg, %struct.Reg* %7, i32 0, i32 0
  %9 = bitcast %union.anon* %8 to %struct.anon.2*
  %AL = getelementptr inbounds %struct.anon.2, %struct.anon.2* %9, i32 0, i32 0
  %10 = getelementptr inbounds %struct.State, %struct.State* %0, i32 0, i32 6
  %11 = getelementptr inbounds %struct.GPR, %struct.GPR* %10, i32 0, i32 15
  %12 = getelementptr inbounds %struct.Reg, %struct.Reg* %11, i32 0, i32 0
  %RBP = bitcast %union.anon* %12 to i64*
  %13 = load i64, i64* %RBP
  %14 = sub i64 %13, 18
  %15 = load i8, i8* %AL
  %16 = zext i8 %15 to i64
  %17 = load i64, i64* %PC
  %18 = add i64 %17, 3
  store i64 %18, i64* %PC
  %19 = call %struct.Memory* @_ZN12_GLOBAL__N_1L3MOVI3MnWIhE2RnIhEEEP6MemoryS6_R5StateT_T0_(%struct.Memory* %2, %struct.State* %0, i64 %14, i64 %16)
  ret %struct.Memory* %19
}


define %struct.Memory* @routine_jmpq_.L_400838(%struct.State*  dereferenceable(3376), i64, %struct.Memory*, i64 %rel_off1, i64 %rel_off2) {
block_400488:
  %3 = getelementptr inbounds %struct.State, %struct.State* %0, i32 0, i32 6
  %4 = getelementptr inbounds %struct.GPR, %struct.GPR* %3, i32 0, i32 33
  %5 = getelementptr inbounds %struct.Reg, %struct.Reg* %4, i32 0, i32 0
  %PC = bitcast %union.anon* %5 to i64*
  %6 = load i64, i64* %PC
  %7 = add i64 %6, %rel_off1
  %8 = load i64, i64* %PC
  %9 = add i64 %8, %rel_off2
  store i64 %9, i64* %PC
  %10 = call %struct.Memory* @_ZN12_GLOBAL__N_1L3JMPI2InImEEEP6MemoryS4_R5StateT_(%struct.Memory* %2, %struct.State* %0, i64 %7)
  ret %struct.Memory* %10
}


define %struct.Memory* @routine_leaq_MINUS0x8__rbp____rdi(%struct.State*  dereferenceable(3376), i64, %struct.Memory* ) #19 {
block_400488:
  %3 = getelementptr inbounds %struct.State, %struct.State* %0, i32 0, i32 6
  %4 = getelementptr inbounds %struct.GPR, %struct.GPR* %3, i32 0, i32 33
  %5 = getelementptr inbounds %struct.Reg, %struct.Reg* %4, i32 0, i32 0
  %PC = bitcast %union.anon* %5 to i64*
  %6 = getelementptr inbounds %struct.State, %struct.State* %0, i32 0, i32 6
  %7 = getelementptr inbounds %struct.GPR, %struct.GPR* %6, i32 0, i32 11
  %8 = getelementptr inbounds %struct.Reg, %struct.Reg* %7, i32 0, i32 0
  %RDI = bitcast %union.anon* %8 to i64*
  %9 = getelementptr inbounds %struct.State, %struct.State* %0, i32 0, i32 6
  %10 = getelementptr inbounds %struct.GPR, %struct.GPR* %9, i32 0, i32 15
  %11 = getelementptr inbounds %struct.Reg, %struct.Reg* %10, i32 0, i32 0
  %RBP = bitcast %union.anon* %11 to i64*
  %12 = load i64, i64* %RBP
  %13 = sub i64 %12, 8
  %14 = load i64, i64* %PC
  %15 = add i64 %14, 4
  store i64 %15, i64* %PC
  %16 = call %struct.Memory* @_ZN12_GLOBAL__N_1L3LEAI3RnWImE2MnIhEmEEP6MemoryS6_R5StateT_T0_(%struct.Memory* %2, %struct.State* %0, i64* %RDI, i64 %13)
  ret %struct.Memory* %16
}


define %struct.Memory* @routine_movl_MINUS0xc__rbp____eax(%struct.State*  dereferenceable(3376), i64, %struct.Memory* ) #19 {
block_400488:
  %3 = getelementptr inbounds %struct.State, %struct.State* %0, i32 0, i32 6
  %4 = getelementptr inbounds %struct.GPR, %struct.GPR* %3, i32 0, i32 33
  %5 = getelementptr inbounds %struct.Reg, %struct.Reg* %4, i32 0, i32 0
  %PC = bitcast %union.anon* %5 to i64*
  %6 = getelementptr inbounds %struct.State, %struct.State* %0, i32 0, i32 6
  %7 = getelementptr inbounds %struct.GPR, %struct.GPR* %6, i32 0, i32 1
  %8 = getelementptr inbounds %struct.Reg, %struct.Reg* %7, i32 0, i32 0
  %RAX = bitcast %union.anon* %8 to i64*
  %9 = getelementptr inbounds %struct.State, %struct.State* %0, i32 0, i32 6
  %10 = getelementptr inbounds %struct.GPR, %struct.GPR* %9, i32 0, i32 15
  %11 = getelementptr inbounds %struct.Reg, %struct.Reg* %10, i32 0, i32 0
  %RBP = bitcast %union.anon* %11 to i64*
  %12 = load i64, i64* %RBP
  %13 = sub i64 %12, 12
  %14 = load i64, i64* %PC
  %15 = add i64 %14, 3
  store i64 %15, i64* %PC
  %16 = call %struct.Memory* @_ZN12_GLOBAL__N_1L3MOVI3RnWImE2MnIjEEEP6MemoryS6_R5StateT_T0_(%struct.Memory* %2, %struct.State* %0, i64* %RAX, i64 %13)
  ret %struct.Memory* %16
}

define internal %struct.Memory* @_ZN12_GLOBAL__N_1L4IMULI3RnWImE2RnIjE2MnIjEEEP6MemoryS8_R5StateT_T0_T1_(%struct.Memory*, %struct.State* nocapture dereferenceable(3376), i64* nocapture, i64, i64) #0 {
  %6 = inttoptr i64 %4 to i32*
  %7 = load i32, i32* %6
  %8 = shl i64 %3, 32
  %9 = ashr exact i64 %8, 32
  %10 = sext i32 %7 to i64
  %11 = mul  i64 %10, %9
  %12 = trunc i64 %11 to i32
  %13 = and i64 %11, 4294967295
  store i64 %13, i64* %2, align 8
  %14 = shl i64 %11, 32
  %15 = ashr exact i64 %14, 32
  %16 = icmp ne i64 %15, %11
  %17 = zext i1 %16 to i8
  %18 = getelementptr inbounds %struct.State, %struct.State* %1, i64 0, i32 2, i32 1
  store i8 %17, i8* %18, align 1
  %19 = and i32 %12, 255
  %20 = tail call i32 @llvm.ctpop.i32(i32 %19) #22
  %21 = trunc i32 %20 to i8
  %22 = and i8 %21, 1
  %23 = xor i8 %22, 1
  %24 = getelementptr inbounds %struct.State, %struct.State* %1, i64 0, i32 2, i32 3
  store i8 %23, i8* %24, align 1
  %25 = getelementptr inbounds %struct.State, %struct.State* %1, i64 0, i32 2, i32 5
  store i8 0, i8* %25, align 1
  %26 = getelementptr inbounds %struct.State, %struct.State* %1, i64 0, i32 2, i32 7
  store i8 0, i8* %26, align 1
  %27 = lshr i32 %12, 31
  %28 = trunc i32 %27 to i8
  %29 = getelementptr inbounds %struct.State, %struct.State* %1, i64 0, i32 2, i32 9
  store i8 %28, i8* %29, align 1
  %30 = getelementptr inbounds %struct.State, %struct.State* %1, i64 0, i32 2, i32 13
  store i8 %17, i8* %30, align 1
  ret %struct.Memory* %0
}

define %struct.Memory* @routine_imull_MINUS0x8__rbp____eax(%struct.State*  dereferenceable(3376), i64, %struct.Memory* ) #19 {
block_400488:
  %3 = getelementptr inbounds %struct.State, %struct.State* %0, i32 0, i32 6
  %4 = getelementptr inbounds %struct.GPR, %struct.GPR* %3, i32 0, i32 33
  %5 = getelementptr inbounds %struct.Reg, %struct.Reg* %4, i32 0, i32 0
  %PC = bitcast %union.anon* %5 to i64*
  %6 = getelementptr inbounds %struct.State, %struct.State* %0, i32 0, i32 6
  %7 = getelementptr inbounds %struct.GPR, %struct.GPR* %6, i32 0, i32 1
  %8 = getelementptr inbounds %struct.Reg, %struct.Reg* %7, i32 0, i32 0
  %RAX = bitcast %union.anon* %8 to i64*
  %9 = getelementptr inbounds %struct.State, %struct.State* %0, i32 0, i32 6
  %10 = getelementptr inbounds %struct.GPR, %struct.GPR* %9, i32 0, i32 15
  %11 = getelementptr inbounds %struct.Reg, %struct.Reg* %10, i32 0, i32 0
  %RBP = bitcast %union.anon* %11 to i64*
  %12 = load i64, i64* %RAX
  %13 = load i64, i64* %RBP
  %14 = sub i64 %13, 8
  %15 = load i64, i64* %PC
  %16 = add i64 %15, 4
  store i64 %16, i64* %PC
  %17 = call %struct.Memory* @_ZN12_GLOBAL__N_1L4IMULI3RnWImE2RnIjE2MnIjEEEP6MemoryS8_R5StateT_T0_T1_(%struct.Memory* %2, %struct.State* %0, i64* %RAX, i64 %12, i64 %14)
  ret %struct.Memory* %17
}




define %struct.Memory* @routine_movl_MINUS0x10__rbp____eax(%struct.State*  dereferenceable(3376), i64, %struct.Memory* ) #19 {
block_400488:
  %3 = getelementptr inbounds %struct.State, %struct.State* %0, i32 0, i32 6
  %4 = getelementptr inbounds %struct.GPR, %struct.GPR* %3, i32 0, i32 33
  %5 = getelementptr inbounds %struct.Reg, %struct.Reg* %4, i32 0, i32 0
  %PC = bitcast %union.anon* %5 to i64*
  %6 = getelementptr inbounds %struct.State, %struct.State* %0, i32 0, i32 6
  %7 = getelementptr inbounds %struct.GPR, %struct.GPR* %6, i32 0, i32 1
  %8 = getelementptr inbounds %struct.Reg, %struct.Reg* %7, i32 0, i32 0
  %RAX = bitcast %union.anon* %8 to i64*
  %9 = getelementptr inbounds %struct.State, %struct.State* %0, i32 0, i32 6
  %10 = getelementptr inbounds %struct.GPR, %struct.GPR* %9, i32 0, i32 15
  %11 = getelementptr inbounds %struct.Reg, %struct.Reg* %10, i32 0, i32 0
  %RBP = bitcast %union.anon* %11 to i64*
  %12 = load i64, i64* %RBP
  %13 = sub i64 %12, 16
  %14 = load i64, i64* %PC
  %15 = add i64 %14, 3
  store i64 %15, i64* %PC
  %16 = call %struct.Memory* @_ZN12_GLOBAL__N_1L3MOVI3RnWImE2MnIjEEEP6MemoryS6_R5StateT_T0_(%struct.Memory* %2, %struct.State* %0, i64* %RAX, i64 %13)
  ret %struct.Memory* %16
}

define internal %struct.Memory* @_ZN12_GLOBAL__N_1L7CDQ_EAXEP6MemoryR5State(%struct.Memory* readnone returned, %struct.State* nocapture dereferenceable(3376)) #2 {
  %3 = getelementptr inbounds %struct.State, %struct.State* %1, i64 0, i32 6, i32 7, i32 0, i32 0
  %4 = getelementptr inbounds %struct.State, %struct.State* %1, i64 0, i32 6, i32 1, i32 0
  %5 = bitcast %union.anon* %4 to i32*
  %6 = load i32, i32* %5, align 8
  %7 = sext i32 %6 to i64
  %8 = lshr i64 %7, 32
  store i64 %8, i64* %3, align 8
  ret %struct.Memory* %0
}

define %struct.Memory* @routine_cltd(%struct.State*  dereferenceable(3376), i64, %struct.Memory* ) #19 {
block_400488:
  %3 = getelementptr inbounds %struct.State, %struct.State* %0, i32 0, i32 6
  %4 = getelementptr inbounds %struct.GPR, %struct.GPR* %3, i32 0, i32 33
  %5 = getelementptr inbounds %struct.Reg, %struct.Reg* %4, i32 0, i32 0
  %PC = bitcast %union.anon* %5 to i64*
  %6 = load i64, i64* %PC
  %7 = add i64 %6, 1
  store i64 %7, i64* %PC
  %8 = call %struct.Memory* @_ZN12_GLOBAL__N_1L7CDQ_EAXEP6MemoryR5State(%struct.Memory* %2, %struct.State* %0)
  ret %struct.Memory* %8
}

define internal %struct.Memory* @_ZN12_GLOBAL__N_1L10IDIVedxeaxI2MnIjEEEP6MemoryS4_R5StateT_(%struct.Memory*, %struct.State* dereferenceable(3376), i64) #0 {
  %4 = getelementptr inbounds %struct.State, %struct.State* %1, i64 0, i32 6, i32 1, i32 0
  %5 = bitcast %union.anon* %4 to i32*
  %6 = load i32, i32* %5, align 8
  %7 = zext i32 %6 to i64
  %8 = getelementptr inbounds %struct.State, %struct.State* %1, i64 0, i32 6, i32 7, i32 0
  %9 = bitcast %union.anon* %8 to i32*
  %10 = load i32, i32* %9, align 8
  %11 = zext i32 %10 to i64
  %12 = inttoptr i64 %2 to i32*
  %13 = load i32, i32* %12
  %14 = sext i32 %13 to i64
  %15 = shl  i64 %11, 32
  %16 = or i64 %15, %7
  %17 = sdiv i64 %16, %14
  %18 = shl i64 %17, 32
  %19 = ashr exact i64 %18, 32
  %20 = icmp eq i64 %17, %19
  br i1 %20, label %25, label %21

; <label>:21:                                     ; preds = %3
  %22 = getelementptr inbounds %struct.State, %struct.State* %1, i64 0, i32 6, i32 33, i32 0, i32 0
  %23 = load i64, i64* %22, align 8
  %24 = tail call %struct.Memory* @__remill_error(%struct.State* nonnull dereferenceable(3376) %1, i64 %23, %struct.Memory* %0) #21
  br label %37

; <label>:25:                                     ; preds = %3
  %26 = srem i64 %16, %14
  %27 = getelementptr inbounds %union.anon, %union.anon* %4, i64 0, i32 0
  %28 = and i64 %17, 4294967295
  store i64 %28, i64* %27, align 8
  %29 = getelementptr inbounds %union.anon, %union.anon* %8, i64 0, i32 0
  %30 = and i64 %26, 4294967295
  store i64 %30, i64* %29, align 8
  %31 = getelementptr inbounds %struct.State, %struct.State* %1, i64 0, i32 2, i32 1
  store i8 0, i8* %31, align 1
  %32 = getelementptr inbounds %struct.State, %struct.State* %1, i64 0, i32 2, i32 3
  store i8 0, i8* %32, align 1
  %33 = getelementptr inbounds %struct.State, %struct.State* %1, i64 0, i32 2, i32 5
  store i8 0, i8* %33, align 1
  %34 = getelementptr inbounds %struct.State, %struct.State* %1, i64 0, i32 2, i32 7
  store i8 0, i8* %34, align 1
  %35 = getelementptr inbounds %struct.State, %struct.State* %1, i64 0, i32 2, i32 9
  store i8 0, i8* %35, align 1
  %36 = getelementptr inbounds %struct.State, %struct.State* %1, i64 0, i32 2, i32 13
  store i8 0, i8* %36, align 1
  br label %37

; <label>:37:                                     ; preds = %25, %21
  %38 = phi %struct.Memory* [ %24, %21 ], [ %0, %25 ]
  ret %struct.Memory* %38
}

define %struct.Memory* @routine_idivl_MINUS0x8__rbp_(%struct.State*  dereferenceable(3376), i64, %struct.Memory* ) #19 {
block_400488:
  %3 = getelementptr inbounds %struct.State, %struct.State* %0, i32 0, i32 6
  %4 = getelementptr inbounds %struct.GPR, %struct.GPR* %3, i32 0, i32 33
  %5 = getelementptr inbounds %struct.Reg, %struct.Reg* %4, i32 0, i32 0
  %PC = bitcast %union.anon* %5 to i64*
  %6 = getelementptr inbounds %struct.State, %struct.State* %0, i32 0, i32 6
  %7 = getelementptr inbounds %struct.GPR, %struct.GPR* %6, i32 0, i32 15
  %8 = getelementptr inbounds %struct.Reg, %struct.Reg* %7, i32 0, i32 0
  %RBP = bitcast %union.anon* %8 to i64*
  %9 = load i64, i64* %RBP
  %10 = sub i64 %9, 8
  %11 = load i64, i64* %PC
  %12 = add i64 %11, 3
  store i64 %12, i64* %PC
  %13 = call %struct.Memory* @_ZN12_GLOBAL__N_1L10IDIVedxeaxI2MnIjEEEP6MemoryS4_R5StateT_(%struct.Memory* %2, %struct.State* %0, i64 %10)
  ret %struct.Memory* %13
}


define %struct.Memory* @routine_movl__eax__MINUS0xc__rbp_(%struct.State*  dereferenceable(3376), i64, %struct.Memory* ) #19 {
block_400488:
  %3 = getelementptr inbounds %struct.State, %struct.State* %0, i32 0, i32 6
  %4 = getelementptr inbounds %struct.GPR, %struct.GPR* %3, i32 0, i32 33
  %5 = getelementptr inbounds %struct.Reg, %struct.Reg* %4, i32 0, i32 0
  %PC = bitcast %union.anon* %5 to i64*
  %6 = getelementptr inbounds %struct.State, %struct.State* %0, i32 0, i32 6
  %7 = getelementptr inbounds %struct.GPR, %struct.GPR* %6, i32 0, i32 1
  %8 = getelementptr inbounds %struct.Reg, %struct.Reg* %7, i32 0, i32 0
  %EAX = bitcast %union.anon* %8 to i32*
  %9 = getelementptr inbounds %struct.State, %struct.State* %0, i32 0, i32 6
  %10 = getelementptr inbounds %struct.GPR, %struct.GPR* %9, i32 0, i32 15
  %11 = getelementptr inbounds %struct.Reg, %struct.Reg* %10, i32 0, i32 0
  %RBP = bitcast %union.anon* %11 to i64*
  %12 = load i64, i64* %RBP
  %13 = sub i64 %12, 12
  %14 = load i32, i32* %EAX
  %15 = zext i32 %14 to i64
  %16 = load i64, i64* %PC
  %17 = add i64 %16, 3
  store i64 %17, i64* %PC
  %18 = call %struct.Memory* @_ZN12_GLOBAL__N_1L3MOVI3MnWIjE2RnIjEEEP6MemoryS6_R5StateT_T0_(%struct.Memory* %2, %struct.State* %0, i64 %13, i64 %15)
  ret %struct.Memory* %18
}





define internal %struct.Memory* @_ZN12_GLOBAL__N_1L4IMULI3RnWImE2RnIjE2InIjEEEP6MemoryS8_R5StateT_T0_T1_(%struct.Memory* readnone returned, %struct.State* nocapture dereferenceable(3376), i64* nocapture, i64, i64) #0 {
  %6 = shl i64 %3, 32
  %7 = ashr exact i64 %6, 32
  %8 = shl i64 %4, 32
  %9 = ashr exact i64 %8, 32
  %10 = mul  i64 %9, %7
  %11 = trunc i64 %10 to i32
  %12 = and i64 %10, 4294967295
  store i64 %12, i64* %2, align 8
  %13 = shl i64 %10, 32
  %14 = ashr exact i64 %13, 32
  %15 = icmp ne i64 %14, %10
  %16 = zext i1 %15 to i8
  %17 = getelementptr inbounds %struct.State, %struct.State* %1, i64 0, i32 2, i32 1
  store i8 %16, i8* %17, align 1
  %18 = and i32 %11, 255
  %19 = tail call i32 @llvm.ctpop.i32(i32 %18) #22
  %20 = trunc i32 %19 to i8
  %21 = and i8 %20, 1
  %22 = xor i8 %21, 1
  %23 = getelementptr inbounds %struct.State, %struct.State* %1, i64 0, i32 2, i32 3
  store i8 %22, i8* %23, align 1
  %24 = getelementptr inbounds %struct.State, %struct.State* %1, i64 0, i32 2, i32 5
  store i8 0, i8* %24, align 1
  %25 = getelementptr inbounds %struct.State, %struct.State* %1, i64 0, i32 2, i32 7
  store i8 0, i8* %25, align 1
  %26 = lshr i32 %11, 31
  %27 = trunc i32 %26 to i8
  %28 = getelementptr inbounds %struct.State, %struct.State* %1, i64 0, i32 2, i32 9
  store i8 %27, i8* %28, align 1
  %29 = getelementptr inbounds %struct.State, %struct.State* %1, i64 0, i32 2, i32 13
  store i8 %16, i8* %29, align 1
  ret %struct.Memory* %0
}

define %struct.Memory* @routine_imull__0x7___eax___eax(%struct.State*  dereferenceable(3376), i64, %struct.Memory* ) #19 {
block_400488:
  %3 = getelementptr inbounds %struct.State, %struct.State* %0, i32 0, i32 6
  %4 = getelementptr inbounds %struct.GPR, %struct.GPR* %3, i32 0, i32 33
  %5 = getelementptr inbounds %struct.Reg, %struct.Reg* %4, i32 0, i32 0
  %PC = bitcast %union.anon* %5 to i64*
  %6 = getelementptr inbounds %struct.State, %struct.State* %0, i32 0, i32 6
  %7 = getelementptr inbounds %struct.GPR, %struct.GPR* %6, i32 0, i32 1
  %8 = getelementptr inbounds %struct.Reg, %struct.Reg* %7, i32 0, i32 0
  %EAX = bitcast %union.anon* %8 to i32*
  %9 = getelementptr inbounds %struct.State, %struct.State* %0, i32 0, i32 6
  %10 = getelementptr inbounds %struct.GPR, %struct.GPR* %9, i32 0, i32 1
  %11 = getelementptr inbounds %struct.Reg, %struct.Reg* %10, i32 0, i32 0
  %RAX = bitcast %union.anon* %11 to i64*
  %12 = load i32, i32* %EAX
  %13 = zext i32 %12 to i64
  %14 = load i64, i64* %PC
  %15 = add i64 %14, 3
  store i64 %15, i64* %PC
  %16 = call %struct.Memory* @_ZN12_GLOBAL__N_1L4IMULI3RnWImE2RnIjE2InIjEEEP6MemoryS8_R5StateT_T0_T1_(%struct.Memory* %2, %struct.State* %0, i64* %RAX, i64 %13, i64 7)
  ret %struct.Memory* %16
}


define %struct.Memory* @routine_subl_MINUS0x8__rbp____eax(%struct.State*  dereferenceable(3376), i64, %struct.Memory* ) #19 {
block_400488:
  %3 = getelementptr inbounds %struct.State, %struct.State* %0, i32 0, i32 6
  %4 = getelementptr inbounds %struct.GPR, %struct.GPR* %3, i32 0, i32 33
  %5 = getelementptr inbounds %struct.Reg, %struct.Reg* %4, i32 0, i32 0
  %PC = bitcast %union.anon* %5 to i64*
  %6 = getelementptr inbounds %struct.State, %struct.State* %0, i32 0, i32 6
  %7 = getelementptr inbounds %struct.GPR, %struct.GPR* %6, i32 0, i32 1
  %8 = getelementptr inbounds %struct.Reg, %struct.Reg* %7, i32 0, i32 0
  %RAX = bitcast %union.anon* %8 to i64*
  %9 = getelementptr inbounds %struct.State, %struct.State* %0, i32 0, i32 6
  %10 = getelementptr inbounds %struct.GPR, %struct.GPR* %9, i32 0, i32 15
  %11 = getelementptr inbounds %struct.Reg, %struct.Reg* %10, i32 0, i32 0
  %RBP = bitcast %union.anon* %11 to i64*
  %12 = load i64, i64* %RAX
  %13 = load i64, i64* %RBP
  %14 = sub i64 %13, 8
  %15 = load i64, i64* %PC
  %16 = add i64 %15, 3
  store i64 %16, i64* %PC
  %17 = call %struct.Memory* @_ZN12_GLOBAL__N_1L3SUBI3RnWImE2RnIjE2MnIjEEEP6MemoryS8_R5StateT_T0_T1_(%struct.Memory* %2, %struct.State* %0, i64* %RAX, i64 %12, i64 %14)
  ret %struct.Memory* %17
}




define %struct.Memory* @routine_callq_.Proc2(%struct.State*  dereferenceable(3376), i64, %struct.Memory*, i64 %rel_off1, i64 %rel_off2, i64 %rel_off3) {
block_400488:
  %3 = getelementptr inbounds %struct.State, %struct.State* %0, i32 0, i32 6
  %4 = getelementptr inbounds %struct.GPR, %struct.GPR* %3, i32 0, i32 33
  %5 = getelementptr inbounds %struct.Reg, %struct.Reg* %4, i32 0, i32 0
  %PC = bitcast %union.anon* %5 to i64*
  %6 = load i64, i64* %PC
  %7 = add i64 %6, %rel_off1
  %8 = load i64, i64* %PC
  %9 = add i64 %8, %rel_off2
  %10 = load i64, i64* %PC
  %11 = add i64 %10, %rel_off3
  store i64 %11, i64* %PC
  %12 = call %struct.Memory* @_ZN12_GLOBAL__N_1L4CALLI2InImEEEP6MemoryS4_R5StateT_S2_(%struct.Memory* %2, %struct.State* %0, i64 %7, i64 %9)
  ret %struct.Memory* %12
}


define %struct.Memory* @routine_movl__eax__MINUS0xd8__rbp_(%struct.State*  dereferenceable(3376), i64, %struct.Memory* ) #19 {
block_400488:
  %3 = getelementptr inbounds %struct.State, %struct.State* %0, i32 0, i32 6
  %4 = getelementptr inbounds %struct.GPR, %struct.GPR* %3, i32 0, i32 33
  %5 = getelementptr inbounds %struct.Reg, %struct.Reg* %4, i32 0, i32 0
  %PC = bitcast %union.anon* %5 to i64*
  %6 = getelementptr inbounds %struct.State, %struct.State* %0, i32 0, i32 6
  %7 = getelementptr inbounds %struct.GPR, %struct.GPR* %6, i32 0, i32 1
  %8 = getelementptr inbounds %struct.Reg, %struct.Reg* %7, i32 0, i32 0
  %EAX = bitcast %union.anon* %8 to i32*
  %9 = getelementptr inbounds %struct.State, %struct.State* %0, i32 0, i32 6
  %10 = getelementptr inbounds %struct.GPR, %struct.GPR* %9, i32 0, i32 15
  %11 = getelementptr inbounds %struct.Reg, %struct.Reg* %10, i32 0, i32 0
  %RBP = bitcast %union.anon* %11 to i64*
  %12 = load i64, i64* %RBP
  %13 = sub i64 %12, 216
  %14 = load i32, i32* %EAX
  %15 = zext i32 %14 to i64
  %16 = load i64, i64* %PC
  %17 = add i64 %16, 6
  store i64 %17, i64* %PC
  %18 = call %struct.Memory* @_ZN12_GLOBAL__N_1L3MOVI3MnWIjE2RnIjEEEP6MemoryS6_R5StateT_T0_(%struct.Memory* %2, %struct.State* %0, i64 %13, i64 %15)
  ret %struct.Memory* %18
}








define %struct.Memory* @routine_jmpq_.L_400732(%struct.State*  dereferenceable(3376), i64, %struct.Memory*, i64 %rel_off1, i64 %rel_off2) {
block_400488:
  %3 = getelementptr inbounds %struct.State, %struct.State* %0, i32 0, i32 6
  %4 = getelementptr inbounds %struct.GPR, %struct.GPR* %3, i32 0, i32 33
  %5 = getelementptr inbounds %struct.Reg, %struct.Reg* %4, i32 0, i32 0
  %PC = bitcast %union.anon* %5 to i64*
  %6 = load i64, i64* %PC
  %7 = add i64 %6, %rel_off1
  %8 = load i64, i64* %PC
  %9 = add i64 %8, %rel_off2
  store i64 %9, i64* %PC
  %10 = call %struct.Memory* @_ZN12_GLOBAL__N_1L3JMPI2InImEEEP6MemoryS4_R5StateT_(%struct.Memory* %2, %struct.State* %0, i64 %7)
  ret %struct.Memory* %10
}


define %struct.Memory* @routine_movl_MINUS0x4__rbp____eax(%struct.State*  dereferenceable(3376), i64, %struct.Memory* ) #19 {
block_400488:
  %3 = getelementptr inbounds %struct.State, %struct.State* %0, i32 0, i32 6
  %4 = getelementptr inbounds %struct.GPR, %struct.GPR* %3, i32 0, i32 33
  %5 = getelementptr inbounds %struct.Reg, %struct.Reg* %4, i32 0, i32 0
  %PC = bitcast %union.anon* %5 to i64*
  %6 = getelementptr inbounds %struct.State, %struct.State* %0, i32 0, i32 6
  %7 = getelementptr inbounds %struct.GPR, %struct.GPR* %6, i32 0, i32 1
  %8 = getelementptr inbounds %struct.Reg, %struct.Reg* %7, i32 0, i32 0
  %RAX = bitcast %union.anon* %8 to i64*
  %9 = getelementptr inbounds %struct.State, %struct.State* %0, i32 0, i32 6
  %10 = getelementptr inbounds %struct.GPR, %struct.GPR* %9, i32 0, i32 15
  %11 = getelementptr inbounds %struct.Reg, %struct.Reg* %10, i32 0, i32 0
  %RBP = bitcast %union.anon* %11 to i64*
  %12 = load i64, i64* %RBP
  %13 = sub i64 %12, 4
  %14 = load i64, i64* %PC
  %15 = add i64 %14, 3
  store i64 %15, i64* %PC
  %16 = call %struct.Memory* @_ZN12_GLOBAL__N_1L3MOVI3RnWImE2MnIjEEEP6MemoryS6_R5StateT_T0_(%struct.Memory* %2, %struct.State* %0, i64* %RAX, i64 %13)
  ret %struct.Memory* %16
}


define %struct.Memory* @routine_addq__0xe0___rsp(%struct.State*  dereferenceable(3376), i64, %struct.Memory* ) #19 {
block_400488:
  %3 = getelementptr inbounds %struct.State, %struct.State* %0, i32 0, i32 6
  %4 = getelementptr inbounds %struct.GPR, %struct.GPR* %3, i32 0, i32 33
  %5 = getelementptr inbounds %struct.Reg, %struct.Reg* %4, i32 0, i32 0
  %PC = bitcast %union.anon* %5 to i64*
  %6 = getelementptr inbounds %struct.State, %struct.State* %0, i32 0, i32 6
  %7 = getelementptr inbounds %struct.GPR, %struct.GPR* %6, i32 0, i32 13
  %8 = getelementptr inbounds %struct.Reg, %struct.Reg* %7, i32 0, i32 0
  %RSP = bitcast %union.anon* %8 to i64*
  %9 = load i64, i64* %RSP
  %10 = load i64, i64* %PC
  %11 = add i64 %10, 7
  store i64 %11, i64* %PC
  %12 = call %struct.Memory* @_ZN12_GLOBAL__N_1L3ADDI3RnWImE2RnImE2InImEEEP6MemoryS8_R5StateT_T0_T1_(%struct.Memory* %2, %struct.State* %0, i64* %RSP, i64 %9, i64 224)
  ret %struct.Memory* %12
}

define internal %struct.Memory* @_ZN12_GLOBAL__N_1L3POPI3RnWImEEEP6MemoryS4_R5StateT_(%struct.Memory*, %struct.State* nocapture dereferenceable(3376), i64* nocapture) #0 {
  %4 = getelementptr inbounds %struct.State, %struct.State* %1, i64 0, i32 6, i32 13, i32 0, i32 0
  %5 = load i64, i64* %4, align 8
  %6 = add i64 %5, 8
  %7 = inttoptr i64 %5 to i64*
  %8 = load i64, i64* %7
  store i64 %8, i64* %2, align 8
  store i64 %6, i64* %4, align 8
  ret %struct.Memory* %0
}

define %struct.Memory* @routine_popq__rbp(%struct.State*  dereferenceable(3376), i64, %struct.Memory* ) #19 {
block_400488:
  %3 = getelementptr inbounds %struct.State, %struct.State* %0, i32 0, i32 6
  %4 = getelementptr inbounds %struct.GPR, %struct.GPR* %3, i32 0, i32 33
  %5 = getelementptr inbounds %struct.Reg, %struct.Reg* %4, i32 0, i32 0
  %PC = bitcast %union.anon* %5 to i64*
  %6 = getelementptr inbounds %struct.State, %struct.State* %0, i32 0, i32 6
  %7 = getelementptr inbounds %struct.GPR, %struct.GPR* %6, i32 0, i32 15
  %8 = getelementptr inbounds %struct.Reg, %struct.Reg* %7, i32 0, i32 0
  %RBP = bitcast %union.anon* %8 to i64*
  %9 = load i64, i64* %PC
  %10 = add i64 %9, 1
  store i64 %10, i64* %PC
  %11 = call %struct.Memory* @_ZN12_GLOBAL__N_1L3POPI3RnWImEEEP6MemoryS4_R5StateT_(%struct.Memory* %2, %struct.State* %0, i64* %RBP)
  ret %struct.Memory* %11
}

define internal %struct.Memory* @_ZN12_GLOBAL__N_1L3RETEP6MemoryR5State(%struct.Memory* returned, %struct.State* nocapture dereferenceable(3376)) #0 {
  %3 = getelementptr inbounds %struct.State, %struct.State* %1, i64 0, i32 6, i32 33, i32 0, i32 0
  %4 = getelementptr inbounds %struct.State, %struct.State* %1, i64 0, i32 6, i32 13, i32 0, i32 0
  %5 = load i64, i64* %4, align 8
  %6 = inttoptr i64 %5 to i64*
  %7 = load i64, i64* %6
  store i64 %7, i64* %3, align 8
  %8 = add i64 %5, 8
  store i64 %8, i64* %4, align 8
  ret %struct.Memory* %0
}

define %struct.Memory* @routine_retq(%struct.State*  dereferenceable(3376), i64, %struct.Memory* ) #19 {
block_400488:
  %3 = getelementptr inbounds %struct.State, %struct.State* %0, i32 0, i32 6
  %4 = getelementptr inbounds %struct.GPR, %struct.GPR* %3, i32 0, i32 33
  %5 = getelementptr inbounds %struct.Reg, %struct.Reg* %4, i32 0, i32 0
  %PC = bitcast %union.anon* %5 to i64*
  %6 = load i64, i64* %PC
  %7 = add i64 %6, 1
  store i64 %7, i64* %PC
  %8 = call %struct.Memory* @_ZN12_GLOBAL__N_1L3RETEP6MemoryR5State(%struct.Memory* %2, %struct.State* %0)
  ret %struct.Memory* %8
}

