; ModuleID = 'mcsema/test.proposed.ll'
source_filename = "llvm-link"
target datalayout = "e-m:e-i64:64-f80:128-n8:16:32:64-S128"
target triple = "x86_64-pc-linux-gnu-elf"

%union.anon = type { i64 }
%seg_400388__init_type = type <{ [23 x i8] }>
%seg_4003a0__text_type = type <{ [354 x i8] }>
%seg_400504__fini_type = type <{ [9 x i8] }>
%seg_400510__rodata_type = type <{ [4 x i8] }>
%seg_400514__eh_frame_hdr_type = type <{ [52 x i8] }>
%seg_400548__eh_frame_type = type <{ [208 x i8] }>
%seg_601018__data_type = type <{ [16 x i8] }>
%__bss_start_type = type <{ [8 x i8] }>
%seg_400514__fini_type = type <{ [9 x i8] }>
%seg_400520__rodata_type = type <{ [4 x i8] }>
%seg_400524__eh_frame_hdr_type = type <{ [52 x i8] }>
%seg_400558__eh_frame_type = type <{ [208 x i8] }>
%struct.State = type { %struct.ArchState, [32 x %union.VectorReg], %struct.ArithFlags, %union.anon, %struct.Segments, %struct.AddressSpace, %struct.GPR, %struct.X87Stack, %struct.MMX, %struct.FPUStatusFlags, %union.anon, %union.FPU, %struct.SegmentCaches }
%struct.ArchState = type { i32, i32, %union.anon }
%union.VectorReg = type { %union.vec512_t }
%union.vec512_t = type { %struct.uint64v8_t }
%struct.uint64v8_t = type { [8 x i64] }
%struct.ArithFlags = type { i8, i8, i8, i8, i8, i8, i8, i8, i8, i8, i8, i8, i8, i8, i8, i8 }
%struct.Segments = type { i16, %union.SegmentSelector, i16, %union.SegmentSelector, i16, %union.SegmentSelector, i16, %union.SegmentSelector, i16, %union.SegmentSelector, i16, %union.SegmentSelector }
%union.SegmentSelector = type { i16 }
%struct.AddressSpace = type { i64, %struct.Reg, i64, %struct.Reg, i64, %struct.Reg, i64, %struct.Reg, i64, %struct.Reg, i64, %struct.Reg }
%struct.Reg = type { %union.anon }
%struct.GPR = type { i64, %struct.Reg, i64, %struct.Reg, i64, %struct.Reg, i64, %struct.Reg, i64, %struct.Reg, i64, %struct.Reg, i64, %struct.Reg, i64, %struct.Reg, i64, %struct.Reg, i64, %struct.Reg, i64, %struct.Reg, i64, %struct.Reg, i64, %struct.Reg, i64, %struct.Reg, i64, %struct.Reg, i64, %struct.Reg, i64, %struct.Reg }
%struct.X87Stack = type { [8 x %struct.anon.3] }
%struct.anon.3 = type { i64, double }
%struct.MMX = type { [8 x %struct.anon.4] }
%struct.anon.4 = type { i64, %union.vec64_t }
%union.vec64_t = type { %struct.uint64v1_t }
%struct.uint64v1_t = type { [1 x i64] }
%struct.FPUStatusFlags = type { i8, i8, i8, i8, i8, i8, i8, i8, i8, i8, i8, i8, i8, i8, i8, i8, i8, i8, i8, i8, [4 x i8] }
%union.FPU = type { %struct.anon.13 }
%struct.anon.13 = type { %struct.FpuFXSAVE, [96 x i8] }
%struct.FpuFXSAVE = type { %union.SegmentSelector, %union.SegmentSelector, %union.FPUAbridgedTagWord, i8, i16, i32, %union.SegmentSelector, i16, i32, %union.SegmentSelector, i16, %union.FPUControlStatus, %union.FPUControlStatus, [8 x %struct.FPUStackElem], [16 x %union.vec128_t] }
%union.FPUAbridgedTagWord = type { i8 }
%union.FPUControlStatus = type { i32 }
%struct.FPUStackElem = type { %union.anon.11, [6 x i8] }
%union.anon.11 = type { %struct.float80_t }
%struct.float80_t = type { [10 x i8] }
%union.vec128_t = type { %struct.uint128v1_t }
%struct.uint128v1_t = type { [1 x i128] }
%struct.SegmentCaches = type { %struct.SegmentShadow, %struct.SegmentShadow, %struct.SegmentShadow, %struct.SegmentShadow, %struct.SegmentShadow, %struct.SegmentShadow }
%struct.SegmentShadow = type { %union.anon, i32, i32 }
%struct.Memory = type opaque
%"class.std::bitset" = type { %struct.uint64v4_t }
%struct.uint64v4_t = type { [4 x i64] }

@switch.table = private unnamed_addr constant [4 x i32] [i32 2048, i32 3072, i32 0, i32 1024]
@DR0 = external global i64, align 8
@DR1 = external global i64, align 8
@DR2 = external global i64, align 8
@DR3 = external global i64, align 8
@DR4 = external global i64, align 8
@DR5 = external global i64, align 8
@DR6 = external global i64, align 8
@DR7 = external global i64, align 8
@gCR0 = external global %union.anon, align 1
@gCR1 = external global %union.anon, align 1
@gCR2 = external global %union.anon, align 1
@gCR3 = external global %union.anon, align 1
@gCR4 = external global %union.anon, align 1
@gCR8 = external global %union.anon, align 1
@seg_400388__init = internal constant %seg_400388__init_type <{ [23 x i8] c"H\83\EC\08H\8B\05e\0C \00H\85\C0t\02\FF\D0H\83\C4\08\C3" }>
@seg_4003a0__text = internal constant %seg_4003a0__text_type <{ [354 x i8] c"1\EDI\89\D1^H\89\E2H\83\E4\F0PTI\C7\C0\00\05@\00H\C7\C1\90\04@\00H\C7\C7\88\04@\00\FF\15&\0C \00\F4\0F\1FD\00\00\F3\C3f.\0F\1F\84\00\00\00\00\00\0F\1F@\00U\B8(\10`\00H=(\10`\00H\89\E5t\17\B8\00\00\00\00H\85\C0t\0D]\BF(\10`\00\FF\E0\0F\1FD\00\00]\C3f\0F\1FD\00\00\BE(\10`\00UH\81\EE(\10`\00H\89\E5H\C1\FE\03H\89\F0H\C1\E8?H\01\C6H\D1\FEt\15\B8\00\00\00\00H\85\C0t\0B]\BF(\10`\00\FF\E0\0F\1F\00]\C3f\0F\1FD\00\00\80=\D1\0B \00\00u\17UH\89\E5\E8~\FF\FF\FF\C6\05\BF\0B \00\01]\C3\0F\1FD\00\00\F3\C3\0F\1F@\00f.\0F\1F\84\00\00\00\00\00UH\89\E5]\EB\89\90U\C3f\0F\1FD\00\00AWAVI\89\D7AUATL\8D%\9E\09 \00UH\8D-\9E\09 \00SA\89\FDI\89\F6L)\E5H\83\EC\08H\C1\FD\03\E8\C7\FE\FF\FFH\85\EDt 1\DB\0F\1F\84\00\00\00\00\00L\89\FAL\89\F6D\89\EFA\FF\14\DCH\83\C3\01H9\DDu\EAH\83\C4\08[]A\5CA]A^A_\C3\90f.\0F\1F\84\00\00\00\00\00\F3\C3" }>
@seg_400504__fini = internal constant %seg_400504__fini_type <{ [9 x i8] c"H\83\EC\08H\83\C4\08\C3" }>
@seg_400510__rodata = internal constant %seg_400510__rodata_type <{ [4 x i8] c"\01\00\02\00" }>
@seg_400514__eh_frame_hdr = internal constant %seg_400514__eh_frame_hdr_type <{ [52 x i8] c"\01\1B\03;0\00\00\00\05\00\00\00\8C\FE\FF\FFL\00\00\00\BC\FE\FF\FFx\00\00\00t\FF\FF\FF\8C\00\00\00|\FF\FF\FF\A4\00\00\00\EC\FF\FF\FF\EC\00\00\00" }>
@seg_400548__eh_frame = internal constant %seg_400548__eh_frame_type <{ [208 x i8] c"\14\00\00\00\00\00\00\00\01zR\00\01x\10\01\1B\0C\07\08\90\01\07\10\10\00\00\00\1C\00\00\008\FE\FF\FF+\00\00\00\00\00\00\00\14\00\00\00\00\00\00\00\01zR\00\01x\10\01\1B\0C\07\08\90\01\00\00\10\00\00\00\1C\00\00\00<\FE\FF\FF\02\00\00\00\00\00\00\00\14\00\00\000\00\00\00\E0\FE\FF\FF\02\00\00\00\00\00\00\00\00\00\00\00D\00\00\00H\00\00\00\D0\FE\FF\FFe\00\00\00\00B\0E\10\8F\02B\0E\18\8E\03E\0E \8D\04B\0E(\8C\05H\0E0\86\06H\0E8\83\07M\0E@r\0E8A\0E0A\0E(B\0E B\0E\18B\0E\10B\0E\08\00\10\00\00\00\90\00\00\00\F8\FE\FF\FF\02\00\00\00\00\00\00\00\00\00\00\00" }>
@seg_601018__data = internal global %seg_601018__data_type zeroinitializer
@__bss_start = global %__bss_start_type zeroinitializer
@0 = internal global i1 false
@seg_400514__fini = internal constant %seg_400514__fini_type <{ [9 x i8] c"H\83\EC\08H\83\C4\08\C3" }>
@seg_400520__rodata = internal constant %seg_400520__rodata_type <{ [4 x i8] c"\01\00\02\00" }>
@seg_400524__eh_frame_hdr = internal constant %seg_400524__eh_frame_hdr_type <{ [52 x i8] c"\01\1B\03;0\00\00\00\05\00\00\00|\FE\FF\FFL\00\00\00\AC\FE\FF\FFx\00\00\00d\FF\FF\FF\8C\00\00\00|\FF\FF\FF\A4\00\00\00\EC\FF\FF\FF\EC\00\00\00" }>
@seg_400558__eh_frame = internal constant %seg_400558__eh_frame_type <{ [208 x i8] c"\14\00\00\00\00\00\00\00\01zR\00\01x\10\01\1B\0C\07\08\90\01\07\10\10\00\00\00\1C\00\00\00(\FE\FF\FF+\00\00\00\00\00\00\00\14\00\00\00\00\00\00\00\01zR\00\01x\10\01\1B\0C\07\08\90\01\00\00\10\00\00\00\1C\00\00\00,\FE\FF\FF\02\00\00\00\00\00\00\00\14\00\00\000\00\00\00\D0\FE\FF\FF\0A\00\00\00\00\00\00\00\00\00\00\00D\00\00\00H\00\00\00\D0\FE\FF\FFe\00\00\00\00B\0E\10\8F\02B\0E\18\8E\03E\0E \8D\04B\0E(\8C\05H\0E0\86\06H\0E8\83\07M\0E@r\0E8A\0E0A\0E(B\0E B\0E\18B\0E\10B\0E\08\00\10\00\00\00\90\00\00\00\F8\FE\FF\FF\02\00\00\00\00\00\00\00\00\00\00\00" }>

; Function Attrs: nounwind readnone
declare i32 @llvm.ctpop.i32(i32) #0

declare %struct.Memory* @__remill_error(%struct.State* dereferenceable(3376), i64, %struct.Memory*)

declare %struct.Memory* @sub_401330._Z11start_timerv(%struct.State* dereferenceable(3376), i64, %struct.Memory*)

declare %struct.Memory* @sub_4021a0._Z10accumulateI16reverse_iteratorIS0_IP6DoubleS1_ES1_ES1_ET0_T_S6_S5_(%struct.State* dereferenceable(3376), i64, %struct.Memory*)

declare %struct.Memory* @sub_401c40._ZN6DoublecvdEv(%struct.State* dereferenceable(3376), i64, %struct.Memory*)

declare %struct.Memory* @sub_401350._Z5checkd(%struct.State* dereferenceable(3376), i64, %struct.Memory*)

declare %struct.Memory* @sub_4013a0._Z5timerv(%struct.State* dereferenceable(3376), i64, %struct.Memory*)

; Function Attrs: alwaysinline
define %struct.Memory* @_Z4testI16reverse_iteratorIS0_IP6DoubleS1_ES1_ES1_EvT_S5_T0_(%struct.State* noalias, i64, %struct.Memory* noalias) #1 {
entry:
  %3 = getelementptr inbounds %struct.State, %struct.State* %0, i64 0, i32 6, i32 33, i32 0, i32 0
  store i64 %1, i64* %3, align 8
  %BRANCH_TAKEN = alloca i8, align 1
  store i8 0, i8* %BRANCH_TAKEN, align 1
  %MEMORY = alloca %struct.Memory*, align 8
  store %struct.Memory* %2, %struct.Memory** %MEMORY, align 8
  %loadMem_4019d0 = load %struct.Memory*, %struct.Memory** %MEMORY
  %4 = getelementptr inbounds %struct.State, %struct.State* %0, i32 0, i32 6
  %5 = getelementptr inbounds %struct.GPR, %struct.GPR* %4, i32 0, i32 33
  %6 = getelementptr inbounds %struct.Reg, %struct.Reg* %5, i32 0, i32 0
  %PC.i = bitcast %union.anon* %6 to i64*
  %7 = getelementptr inbounds %struct.State, %struct.State* %0, i32 0, i32 6
  %8 = getelementptr inbounds %struct.GPR, %struct.GPR* %7, i32 0, i32 15
  %9 = getelementptr inbounds %struct.Reg, %struct.Reg* %8, i32 0, i32 0
  %RBP.i = bitcast %union.anon* %9 to i64*
  %10 = load i64, i64* %RBP.i
  %11 = load i64, i64* %PC.i
  %12 = add i64 %11, 1
  store i64 %12, i64* %PC.i
  %13 = getelementptr inbounds %struct.State, %struct.State* %0, i64 0, i32 6, i32 13, i32 0, i32 0
  %14 = load i64, i64* %13, align 8
  %15 = add i64 %14, -8
  %16 = inttoptr i64 %15 to i64*
  store i64 %10, i64* %16
  store i64 %15, i64* %13, align 8
  store %struct.Memory* %loadMem_4019d0, %struct.Memory** %MEMORY
  %loadMem_4019d1 = load %struct.Memory*, %struct.Memory** %MEMORY
  %17 = getelementptr inbounds %struct.State, %struct.State* %0, i32 0, i32 6
  %18 = getelementptr inbounds %struct.GPR, %struct.GPR* %17, i32 0, i32 33
  %19 = getelementptr inbounds %struct.Reg, %struct.Reg* %18, i32 0, i32 0
  %PC.i77 = bitcast %union.anon* %19 to i64*
  %20 = getelementptr inbounds %struct.State, %struct.State* %0, i32 0, i32 6
  %21 = getelementptr inbounds %struct.GPR, %struct.GPR* %20, i32 0, i32 13
  %22 = getelementptr inbounds %struct.Reg, %struct.Reg* %21, i32 0, i32 0
  %RSP.i78 = bitcast %union.anon* %22 to i64*
  %23 = getelementptr inbounds %struct.State, %struct.State* %0, i32 0, i32 6
  %24 = getelementptr inbounds %struct.GPR, %struct.GPR* %23, i32 0, i32 15
  %25 = getelementptr inbounds %struct.Reg, %struct.Reg* %24, i32 0, i32 0
  %RBP.i79 = bitcast %union.anon* %25 to i64*
  %26 = load i64, i64* %RSP.i78
  %27 = load i64, i64* %PC.i77
  %28 = add i64 %27, 3
  store i64 %28, i64* %PC.i77
  store i64 %26, i64* %RBP.i79, align 8
  store %struct.Memory* %loadMem_4019d1, %struct.Memory** %MEMORY
  %loadMem_4019d4 = load %struct.Memory*, %struct.Memory** %MEMORY
  %29 = getelementptr inbounds %struct.State, %struct.State* %0, i32 0, i32 6
  %30 = getelementptr inbounds %struct.GPR, %struct.GPR* %29, i32 0, i32 33
  %31 = getelementptr inbounds %struct.Reg, %struct.Reg* %30, i32 0, i32 0
  %PC.i75 = bitcast %union.anon* %31 to i64*
  %32 = getelementptr inbounds %struct.State, %struct.State* %0, i32 0, i32 6
  %33 = getelementptr inbounds %struct.GPR, %struct.GPR* %32, i32 0, i32 13
  %34 = getelementptr inbounds %struct.Reg, %struct.Reg* %33, i32 0, i32 0
  %RSP.i76 = bitcast %union.anon* %34 to i64*
  %35 = load i64, i64* %RSP.i76
  %36 = load i64, i64* %PC.i75
  %37 = add i64 %36, 4
  store i64 %37, i64* %PC.i75
  %38 = sub i64 %35, 64
  store i64 %38, i64* %RSP.i76, align 8
  %39 = icmp ult i64 %35, 64
  %40 = zext i1 %39 to i8
  %41 = getelementptr inbounds %struct.State, %struct.State* %0, i64 0, i32 2, i32 1
  store i8 %40, i8* %41, align 1
  %42 = trunc i64 %38 to i32
  %43 = and i32 %42, 255
  %44 = call i32 @llvm.ctpop.i32(i32 %43)
  %45 = trunc i32 %44 to i8
  %46 = and i8 %45, 1
  %47 = xor i8 %46, 1
  %48 = getelementptr inbounds %struct.State, %struct.State* %0, i64 0, i32 2, i32 3
  store i8 %47, i8* %48, align 1
  %49 = xor i64 64, %35
  %50 = xor i64 %49, %38
  %51 = lshr i64 %50, 4
  %52 = trunc i64 %51 to i8
  %53 = and i8 %52, 1
  %54 = getelementptr inbounds %struct.State, %struct.State* %0, i64 0, i32 2, i32 5
  store i8 %53, i8* %54, align 1
  %55 = icmp eq i64 %38, 0
  %56 = zext i1 %55 to i8
  %57 = getelementptr inbounds %struct.State, %struct.State* %0, i64 0, i32 2, i32 7
  store i8 %56, i8* %57, align 1
  %58 = lshr i64 %38, 63
  %59 = trunc i64 %58 to i8
  %60 = getelementptr inbounds %struct.State, %struct.State* %0, i64 0, i32 2, i32 9
  store i8 %59, i8* %60, align 1
  %61 = lshr i64 %35, 63
  %62 = xor i64 %58, %61
  %63 = add i64 %62, %61
  %64 = icmp eq i64 %63, 2
  %65 = zext i1 %64 to i8
  %66 = getelementptr inbounds %struct.State, %struct.State* %0, i64 0, i32 2, i32 13
  store i8 %65, i8* %66, align 1
  store %struct.Memory* %loadMem_4019d4, %struct.Memory** %MEMORY
  %loadMem_4019d8 = load %struct.Memory*, %struct.Memory** %MEMORY
  %67 = getelementptr inbounds %struct.State, %struct.State* %0, i32 0, i32 6
  %68 = getelementptr inbounds %struct.GPR, %struct.GPR* %67, i32 0, i32 33
  %69 = getelementptr inbounds %struct.Reg, %struct.Reg* %68, i32 0, i32 0
  %PC.i72 = bitcast %union.anon* %69 to i64*
  %70 = getelementptr inbounds %struct.State, %struct.State* %0, i32 0, i32 6
  %71 = getelementptr inbounds %struct.GPR, %struct.GPR* %70, i32 0, i32 11
  %72 = getelementptr inbounds %struct.Reg, %struct.Reg* %71, i32 0, i32 0
  %RDI.i73 = bitcast %union.anon* %72 to i64*
  %73 = getelementptr inbounds %struct.State, %struct.State* %0, i32 0, i32 6
  %74 = getelementptr inbounds %struct.GPR, %struct.GPR* %73, i32 0, i32 15
  %75 = getelementptr inbounds %struct.Reg, %struct.Reg* %74, i32 0, i32 0
  %RBP.i74 = bitcast %union.anon* %75 to i64*
  %76 = load i64, i64* %RBP.i74
  %77 = sub i64 %76, 8
  %78 = load i64, i64* %RDI.i73
  %79 = load i64, i64* %PC.i72
  %80 = add i64 %79, 4
  store i64 %80, i64* %PC.i72
  %81 = inttoptr i64 %77 to i64*
  store i64 %78, i64* %81
  store %struct.Memory* %loadMem_4019d8, %struct.Memory** %MEMORY
  %loadMem_4019dc = load %struct.Memory*, %struct.Memory** %MEMORY
  %82 = getelementptr inbounds %struct.State, %struct.State* %0, i32 0, i32 6
  %83 = getelementptr inbounds %struct.GPR, %struct.GPR* %82, i32 0, i32 33
  %84 = getelementptr inbounds %struct.Reg, %struct.Reg* %83, i32 0, i32 0
  %PC.i69 = bitcast %union.anon* %84 to i64*
  %85 = getelementptr inbounds %struct.State, %struct.State* %0, i32 0, i32 6
  %86 = getelementptr inbounds %struct.GPR, %struct.GPR* %85, i32 0, i32 9
  %87 = getelementptr inbounds %struct.Reg, %struct.Reg* %86, i32 0, i32 0
  %RSI.i70 = bitcast %union.anon* %87 to i64*
  %88 = getelementptr inbounds %struct.State, %struct.State* %0, i32 0, i32 6
  %89 = getelementptr inbounds %struct.GPR, %struct.GPR* %88, i32 0, i32 15
  %90 = getelementptr inbounds %struct.Reg, %struct.Reg* %89, i32 0, i32 0
  %RBP.i71 = bitcast %union.anon* %90 to i64*
  %91 = load i64, i64* %RBP.i71
  %92 = sub i64 %91, 16
  %93 = load i64, i64* %RSI.i70
  %94 = load i64, i64* %PC.i69
  %95 = add i64 %94, 4
  store i64 %95, i64* %PC.i69
  %96 = inttoptr i64 %92 to i64*
  store i64 %93, i64* %96
  store %struct.Memory* %loadMem_4019dc, %struct.Memory** %MEMORY
  %loadMem_4019e0 = load %struct.Memory*, %struct.Memory** %MEMORY
  %97 = getelementptr inbounds %struct.State, %struct.State* %0, i32 0, i32 6
  %98 = getelementptr inbounds %struct.GPR, %struct.GPR* %97, i32 0, i32 33
  %99 = getelementptr inbounds %struct.Reg, %struct.Reg* %98, i32 0, i32 0
  %PC.i66 = bitcast %union.anon* %99 to i64*
  %100 = getelementptr inbounds %struct.State, %struct.State* %0, i32 0, i32 6
  %101 = getelementptr inbounds %struct.GPR, %struct.GPR* %100, i32 0, i32 15
  %102 = getelementptr inbounds %struct.Reg, %struct.Reg* %101, i32 0, i32 0
  %RBP.i67 = bitcast %union.anon* %102 to i64*
  %103 = getelementptr inbounds %struct.State, %struct.State* %0, i32 0, i32 1
  %104 = getelementptr inbounds [32 x %union.VectorReg], [32 x %union.VectorReg]* %103, i64 0, i64 0
  %XMM0.i68 = bitcast %union.VectorReg* %104 to %union.vec128_t*
  %105 = load i64, i64* %RBP.i67
  %106 = sub i64 %105, 24
  %107 = bitcast %union.vec128_t* %XMM0.i68 to i8*
  %108 = load i64, i64* %PC.i66
  %109 = add i64 %108, 5
  store i64 %109, i64* %PC.i66
  %110 = bitcast i8* %107 to double*
  %111 = load double, double* %110, align 1
  %112 = inttoptr i64 %106 to double*
  store double %111, double* %112
  store %struct.Memory* %loadMem_4019e0, %struct.Memory** %MEMORY
  %loadMem1_4019e5 = load %struct.Memory*, %struct.Memory** %MEMORY
  %113 = getelementptr inbounds %struct.State, %struct.State* %0, i32 0, i32 6
  %114 = getelementptr inbounds %struct.GPR, %struct.GPR* %113, i32 0, i32 33
  %115 = getelementptr inbounds %struct.Reg, %struct.Reg* %114, i32 0, i32 0
  %PC.i65 = bitcast %union.anon* %115 to i64*
  %116 = load i64, i64* %PC.i65
  %117 = add i64 %116, -1717
  %118 = load i64, i64* %PC.i65
  %119 = add i64 %118, 5
  %120 = load i64, i64* %PC.i65
  %121 = add i64 %120, 5
  store i64 %121, i64* %PC.i65
  %122 = getelementptr inbounds %struct.State, %struct.State* %0, i64 0, i32 6, i32 13, i32 0, i32 0
  %123 = load i64, i64* %122, align 8
  %124 = add i64 %123, -8
  %125 = inttoptr i64 %124 to i64*
  store i64 %119, i64* %125
  store i64 %124, i64* %122, align 8
  %126 = getelementptr inbounds %struct.State, %struct.State* %0, i64 0, i32 6, i32 33, i32 0, i32 0
  store i64 %117, i64* %126, align 8
  store %struct.Memory* %loadMem1_4019e5, %struct.Memory** %MEMORY
  %loadMem2_4019e5 = load %struct.Memory*, %struct.Memory** %MEMORY
  %loadPC_4019e5 = load i64, i64* %3
  %call2_4019e5 = call %struct.Memory* @sub_401330._Z11start_timerv(%struct.State* %0, i64 %loadPC_4019e5, %struct.Memory* %loadMem2_4019e5)
  store %struct.Memory* %call2_4019e5, %struct.Memory** %MEMORY
  %loadMem_4019ea = load %struct.Memory*, %struct.Memory** %MEMORY
  %127 = getelementptr inbounds %struct.State, %struct.State* %0, i32 0, i32 6
  %128 = getelementptr inbounds %struct.GPR, %struct.GPR* %127, i32 0, i32 33
  %129 = getelementptr inbounds %struct.Reg, %struct.Reg* %128, i32 0, i32 0
  %PC.i63 = bitcast %union.anon* %129 to i64*
  %130 = getelementptr inbounds %struct.State, %struct.State* %0, i32 0, i32 6
  %131 = getelementptr inbounds %struct.GPR, %struct.GPR* %130, i32 0, i32 15
  %132 = getelementptr inbounds %struct.Reg, %struct.Reg* %131, i32 0, i32 0
  %RBP.i64 = bitcast %union.anon* %132 to i64*
  %133 = load i64, i64* %RBP.i64
  %134 = sub i64 %133, 28
  %135 = load i64, i64* %PC.i63
  %136 = add i64 %135, 7
  store i64 %136, i64* %PC.i63
  %137 = inttoptr i64 %134 to i32*
  store i32 0, i32* %137
  store %struct.Memory* %loadMem_4019ea, %struct.Memory** %MEMORY
  br label %block_.L_4019f1

block_.L_4019f1:                                  ; preds = %block_401a01, %entry
  %loadMem_4019f1 = load %struct.Memory*, %struct.Memory** %MEMORY
  %138 = getelementptr inbounds %struct.State, %struct.State* %0, i32 0, i32 6
  %139 = getelementptr inbounds %struct.GPR, %struct.GPR* %138, i32 0, i32 33
  %140 = getelementptr inbounds %struct.Reg, %struct.Reg* %139, i32 0, i32 0
  %PC.i60 = bitcast %union.anon* %140 to i64*
  %141 = getelementptr inbounds %struct.State, %struct.State* %0, i32 0, i32 6
  %142 = getelementptr inbounds %struct.GPR, %struct.GPR* %141, i32 0, i32 1
  %143 = getelementptr inbounds %struct.Reg, %struct.Reg* %142, i32 0, i32 0
  %RAX.i61 = bitcast %union.anon* %143 to i64*
  %144 = getelementptr inbounds %struct.State, %struct.State* %0, i32 0, i32 6
  %145 = getelementptr inbounds %struct.GPR, %struct.GPR* %144, i32 0, i32 15
  %146 = getelementptr inbounds %struct.Reg, %struct.Reg* %145, i32 0, i32 0
  %RBP.i62 = bitcast %union.anon* %146 to i64*
  %147 = load i64, i64* %RBP.i62
  %148 = sub i64 %147, 28
  %149 = load i64, i64* %PC.i60
  %150 = add i64 %149, 3
  store i64 %150, i64* %PC.i60
  %151 = inttoptr i64 %148 to i32*
  %152 = load i32, i32* %151
  %153 = zext i32 %152 to i64
  store i64 %153, i64* %RAX.i61, align 8
  store %struct.Memory* %loadMem_4019f1, %struct.Memory** %MEMORY
  %loadMem_4019f4 = load %struct.Memory*, %struct.Memory** %MEMORY
  %154 = getelementptr inbounds %struct.State, %struct.State* %0, i32 0, i32 6
  %155 = getelementptr inbounds %struct.GPR, %struct.GPR* %154, i32 0, i32 33
  %156 = getelementptr inbounds %struct.Reg, %struct.Reg* %155, i32 0, i32 0
  %PC.i58 = bitcast %union.anon* %156 to i64*
  %157 = getelementptr inbounds %struct.State, %struct.State* %0, i32 0, i32 6
  %158 = getelementptr inbounds %struct.GPR, %struct.GPR* %157, i32 0, i32 1
  %159 = getelementptr inbounds %struct.Reg, %struct.Reg* %158, i32 0, i32 0
  %EAX.i59 = bitcast %union.anon* %159 to i32*
  %160 = load i32, i32* %EAX.i59
  %161 = zext i32 %160 to i64
  %162 = load i64, i64* %PC.i58
  %163 = add i64 %162, 7
  store i64 %163, i64* %PC.i58
  %164 = load i32, i32* inttoptr (i64 6312016 to i32*)
  %165 = sub i32 %160, %164
  %166 = icmp ult i32 %160, %164
  %167 = zext i1 %166 to i8
  %168 = getelementptr inbounds %struct.State, %struct.State* %0, i64 0, i32 2, i32 1
  store i8 %167, i8* %168, align 1
  %169 = and i32 %165, 255
  %170 = call i32 @llvm.ctpop.i32(i32 %169)
  %171 = trunc i32 %170 to i8
  %172 = and i8 %171, 1
  %173 = xor i8 %172, 1
  %174 = getelementptr inbounds %struct.State, %struct.State* %0, i64 0, i32 2, i32 3
  store i8 %173, i8* %174, align 1
  %175 = xor i32 %164, %160
  %176 = xor i32 %175, %165
  %177 = lshr i32 %176, 4
  %178 = trunc i32 %177 to i8
  %179 = and i8 %178, 1
  %180 = getelementptr inbounds %struct.State, %struct.State* %0, i64 0, i32 2, i32 5
  store i8 %179, i8* %180, align 1
  %181 = icmp eq i32 %165, 0
  %182 = zext i1 %181 to i8
  %183 = getelementptr inbounds %struct.State, %struct.State* %0, i64 0, i32 2, i32 7
  store i8 %182, i8* %183, align 1
  %184 = lshr i32 %165, 31
  %185 = trunc i32 %184 to i8
  %186 = getelementptr inbounds %struct.State, %struct.State* %0, i64 0, i32 2, i32 9
  store i8 %185, i8* %186, align 1
  %187 = lshr i32 %160, 31
  %188 = lshr i32 %164, 31
  %189 = xor i32 %188, %187
  %190 = xor i32 %184, %187
  %191 = add i32 %190, %189
  %192 = icmp eq i32 %191, 2
  %193 = zext i1 %192 to i8
  %194 = getelementptr inbounds %struct.State, %struct.State* %0, i64 0, i32 2, i32 13
  store i8 %193, i8* %194, align 1
  store %struct.Memory* %loadMem_4019f4, %struct.Memory** %MEMORY
  %loadMem_4019fb = load %struct.Memory*, %struct.Memory** %MEMORY
  %195 = getelementptr inbounds %struct.State, %struct.State* %0, i32 0, i32 6
  %196 = getelementptr inbounds %struct.GPR, %struct.GPR* %195, i32 0, i32 33
  %197 = getelementptr inbounds %struct.Reg, %struct.Reg* %196, i32 0, i32 0
  %PC.i57 = bitcast %union.anon* %197 to i64*
  %198 = load i64, i64* %PC.i57
  %199 = add i64 %198, 81
  %200 = load i64, i64* %PC.i57
  %201 = add i64 %200, 6
  %202 = load i64, i64* %PC.i57
  %203 = add i64 %202, 6
  store i64 %203, i64* %PC.i57
  %204 = getelementptr inbounds %struct.State, %struct.State* %0, i64 0, i32 2, i32 9
  %205 = load i8, i8* %204, align 1
  %206 = icmp ne i8 %205, 0
  %207 = getelementptr inbounds %struct.State, %struct.State* %0, i64 0, i32 2, i32 13
  %208 = load i8, i8* %207, align 1
  %209 = icmp ne i8 %208, 0
  %210 = xor i1 %206, %209
  %211 = xor i1 %210, true
  %212 = zext i1 %211 to i8
  store i8 %212, i8* %BRANCH_TAKEN, align 1
  %213 = getelementptr inbounds %struct.State, %struct.State* %0, i64 0, i32 6, i32 33, i32 0, i32 0
  %214 = select i1 %210, i64 %201, i64 %199
  store i64 %214, i64* %213, align 8
  store %struct.Memory* %loadMem_4019fb, %struct.Memory** %MEMORY
  %loadBr_4019fb = load i8, i8* %BRANCH_TAKEN
  %cmpBr_4019fb = icmp eq i8 %loadBr_4019fb, 1
  br i1 %cmpBr_4019fb, label %block_.L_401a4c, label %block_401a01

block_401a01:                                     ; preds = %block_.L_4019f1
  %loadMem_401a01 = load %struct.Memory*, %struct.Memory** %MEMORY
  %215 = getelementptr inbounds %struct.State, %struct.State* %0, i32 0, i32 6
  %216 = getelementptr inbounds %struct.GPR, %struct.GPR* %215, i32 0, i32 33
  %217 = getelementptr inbounds %struct.Reg, %struct.Reg* %216, i32 0, i32 0
  %PC.i54 = bitcast %union.anon* %217 to i64*
  %218 = getelementptr inbounds %struct.State, %struct.State* %0, i32 0, i32 6
  %219 = getelementptr inbounds %struct.GPR, %struct.GPR* %218, i32 0, i32 1
  %220 = getelementptr inbounds %struct.Reg, %struct.Reg* %219, i32 0, i32 0
  %RAX.i55 = bitcast %union.anon* %220 to i64*
  %221 = getelementptr inbounds %struct.State, %struct.State* %0, i32 0, i32 6
  %222 = getelementptr inbounds %struct.GPR, %struct.GPR* %221, i32 0, i32 15
  %223 = getelementptr inbounds %struct.Reg, %struct.Reg* %222, i32 0, i32 0
  %RBP.i56 = bitcast %union.anon* %223 to i64*
  %224 = load i64, i64* %RBP.i56
  %225 = sub i64 %224, 8
  %226 = load i64, i64* %PC.i54
  %227 = add i64 %226, 4
  store i64 %227, i64* %PC.i54
  %228 = inttoptr i64 %225 to i64*
  %229 = load i64, i64* %228
  store i64 %229, i64* %RAX.i55, align 8
  store %struct.Memory* %loadMem_401a01, %struct.Memory** %MEMORY
  %loadMem_401a05 = load %struct.Memory*, %struct.Memory** %MEMORY
  %230 = getelementptr inbounds %struct.State, %struct.State* %0, i32 0, i32 6
  %231 = getelementptr inbounds %struct.GPR, %struct.GPR* %230, i32 0, i32 33
  %232 = getelementptr inbounds %struct.Reg, %struct.Reg* %231, i32 0, i32 0
  %PC.i51 = bitcast %union.anon* %232 to i64*
  %233 = getelementptr inbounds %struct.State, %struct.State* %0, i32 0, i32 6
  %234 = getelementptr inbounds %struct.GPR, %struct.GPR* %233, i32 0, i32 1
  %235 = getelementptr inbounds %struct.Reg, %struct.Reg* %234, i32 0, i32 0
  %RAX.i52 = bitcast %union.anon* %235 to i64*
  %236 = getelementptr inbounds %struct.State, %struct.State* %0, i32 0, i32 6
  %237 = getelementptr inbounds %struct.GPR, %struct.GPR* %236, i32 0, i32 15
  %238 = getelementptr inbounds %struct.Reg, %struct.Reg* %237, i32 0, i32 0
  %RBP.i53 = bitcast %union.anon* %238 to i64*
  %239 = load i64, i64* %RBP.i53
  %240 = sub i64 %239, 40
  %241 = load i64, i64* %RAX.i52
  %242 = load i64, i64* %PC.i51
  %243 = add i64 %242, 4
  store i64 %243, i64* %PC.i51
  %244 = inttoptr i64 %240 to i64*
  store i64 %241, i64* %244
  store %struct.Memory* %loadMem_401a05, %struct.Memory** %MEMORY
  %loadMem_401a09 = load %struct.Memory*, %struct.Memory** %MEMORY
  %245 = getelementptr inbounds %struct.State, %struct.State* %0, i32 0, i32 6
  %246 = getelementptr inbounds %struct.GPR, %struct.GPR* %245, i32 0, i32 33
  %247 = getelementptr inbounds %struct.Reg, %struct.Reg* %246, i32 0, i32 0
  %PC.i48 = bitcast %union.anon* %247 to i64*
  %248 = getelementptr inbounds %struct.State, %struct.State* %0, i32 0, i32 6
  %249 = getelementptr inbounds %struct.GPR, %struct.GPR* %248, i32 0, i32 1
  %250 = getelementptr inbounds %struct.Reg, %struct.Reg* %249, i32 0, i32 0
  %RAX.i49 = bitcast %union.anon* %250 to i64*
  %251 = getelementptr inbounds %struct.State, %struct.State* %0, i32 0, i32 6
  %252 = getelementptr inbounds %struct.GPR, %struct.GPR* %251, i32 0, i32 15
  %253 = getelementptr inbounds %struct.Reg, %struct.Reg* %252, i32 0, i32 0
  %RBP.i50 = bitcast %union.anon* %253 to i64*
  %254 = load i64, i64* %RBP.i50
  %255 = sub i64 %254, 16
  %256 = load i64, i64* %PC.i48
  %257 = add i64 %256, 4
  store i64 %257, i64* %PC.i48
  %258 = inttoptr i64 %255 to i64*
  %259 = load i64, i64* %258
  store i64 %259, i64* %RAX.i49, align 8
  store %struct.Memory* %loadMem_401a09, %struct.Memory** %MEMORY
  %loadMem_401a0d = load %struct.Memory*, %struct.Memory** %MEMORY
  %260 = getelementptr inbounds %struct.State, %struct.State* %0, i32 0, i32 6
  %261 = getelementptr inbounds %struct.GPR, %struct.GPR* %260, i32 0, i32 33
  %262 = getelementptr inbounds %struct.Reg, %struct.Reg* %261, i32 0, i32 0
  %PC.i45 = bitcast %union.anon* %262 to i64*
  %263 = getelementptr inbounds %struct.State, %struct.State* %0, i32 0, i32 6
  %264 = getelementptr inbounds %struct.GPR, %struct.GPR* %263, i32 0, i32 1
  %265 = getelementptr inbounds %struct.Reg, %struct.Reg* %264, i32 0, i32 0
  %RAX.i46 = bitcast %union.anon* %265 to i64*
  %266 = getelementptr inbounds %struct.State, %struct.State* %0, i32 0, i32 6
  %267 = getelementptr inbounds %struct.GPR, %struct.GPR* %266, i32 0, i32 15
  %268 = getelementptr inbounds %struct.Reg, %struct.Reg* %267, i32 0, i32 0
  %RBP.i47 = bitcast %union.anon* %268 to i64*
  %269 = load i64, i64* %RBP.i47
  %270 = sub i64 %269, 48
  %271 = load i64, i64* %RAX.i46
  %272 = load i64, i64* %PC.i45
  %273 = add i64 %272, 4
  store i64 %273, i64* %PC.i45
  %274 = inttoptr i64 %270 to i64*
  store i64 %271, i64* %274
  store %struct.Memory* %loadMem_401a0d, %struct.Memory** %MEMORY
  %loadMem_401a11 = load %struct.Memory*, %struct.Memory** %MEMORY
  %275 = getelementptr inbounds %struct.State, %struct.State* %0, i32 0, i32 6
  %276 = getelementptr inbounds %struct.GPR, %struct.GPR* %275, i32 0, i32 33
  %277 = getelementptr inbounds %struct.Reg, %struct.Reg* %276, i32 0, i32 0
  %PC.i42 = bitcast %union.anon* %277 to i64*
  %278 = getelementptr inbounds %struct.State, %struct.State* %0, i32 0, i32 6
  %279 = getelementptr inbounds %struct.GPR, %struct.GPR* %278, i32 0, i32 1
  %280 = getelementptr inbounds %struct.Reg, %struct.Reg* %279, i32 0, i32 0
  %RAX.i43 = bitcast %union.anon* %280 to i64*
  %281 = getelementptr inbounds %struct.State, %struct.State* %0, i32 0, i32 6
  %282 = getelementptr inbounds %struct.GPR, %struct.GPR* %281, i32 0, i32 15
  %283 = getelementptr inbounds %struct.Reg, %struct.Reg* %282, i32 0, i32 0
  %RBP.i44 = bitcast %union.anon* %283 to i64*
  %284 = load i64, i64* %RBP.i44
  %285 = sub i64 %284, 24
  %286 = load i64, i64* %PC.i42
  %287 = add i64 %286, 4
  store i64 %287, i64* %PC.i42
  %288 = inttoptr i64 %285 to i64*
  %289 = load i64, i64* %288
  store i64 %289, i64* %RAX.i43, align 8
  store %struct.Memory* %loadMem_401a11, %struct.Memory** %MEMORY
  %loadMem_401a15 = load %struct.Memory*, %struct.Memory** %MEMORY
  %290 = getelementptr inbounds %struct.State, %struct.State* %0, i32 0, i32 6
  %291 = getelementptr inbounds %struct.GPR, %struct.GPR* %290, i32 0, i32 33
  %292 = getelementptr inbounds %struct.Reg, %struct.Reg* %291, i32 0, i32 0
  %PC.i39 = bitcast %union.anon* %292 to i64*
  %293 = getelementptr inbounds %struct.State, %struct.State* %0, i32 0, i32 6
  %294 = getelementptr inbounds %struct.GPR, %struct.GPR* %293, i32 0, i32 1
  %295 = getelementptr inbounds %struct.Reg, %struct.Reg* %294, i32 0, i32 0
  %RAX.i40 = bitcast %union.anon* %295 to i64*
  %296 = getelementptr inbounds %struct.State, %struct.State* %0, i32 0, i32 6
  %297 = getelementptr inbounds %struct.GPR, %struct.GPR* %296, i32 0, i32 15
  %298 = getelementptr inbounds %struct.Reg, %struct.Reg* %297, i32 0, i32 0
  %RBP.i41 = bitcast %union.anon* %298 to i64*
  %299 = load i64, i64* %RBP.i41
  %300 = sub i64 %299, 56
  %301 = load i64, i64* %RAX.i40
  %302 = load i64, i64* %PC.i39
  %303 = add i64 %302, 4
  store i64 %303, i64* %PC.i39
  %304 = inttoptr i64 %300 to i64*
  store i64 %301, i64* %304
  store %struct.Memory* %loadMem_401a15, %struct.Memory** %MEMORY
  %loadMem_401a19 = load %struct.Memory*, %struct.Memory** %MEMORY
  %305 = getelementptr inbounds %struct.State, %struct.State* %0, i32 0, i32 6
  %306 = getelementptr inbounds %struct.GPR, %struct.GPR* %305, i32 0, i32 33
  %307 = getelementptr inbounds %struct.Reg, %struct.Reg* %306, i32 0, i32 0
  %PC.i36 = bitcast %union.anon* %307 to i64*
  %308 = getelementptr inbounds %struct.State, %struct.State* %0, i32 0, i32 6
  %309 = getelementptr inbounds %struct.GPR, %struct.GPR* %308, i32 0, i32 11
  %310 = getelementptr inbounds %struct.Reg, %struct.Reg* %309, i32 0, i32 0
  %RDI.i37 = bitcast %union.anon* %310 to i64*
  %311 = getelementptr inbounds %struct.State, %struct.State* %0, i32 0, i32 6
  %312 = getelementptr inbounds %struct.GPR, %struct.GPR* %311, i32 0, i32 15
  %313 = getelementptr inbounds %struct.Reg, %struct.Reg* %312, i32 0, i32 0
  %RBP.i38 = bitcast %union.anon* %313 to i64*
  %314 = load i64, i64* %RBP.i38
  %315 = sub i64 %314, 40
  %316 = load i64, i64* %PC.i36
  %317 = add i64 %316, 4
  store i64 %317, i64* %PC.i36
  %318 = inttoptr i64 %315 to i64*
  %319 = load i64, i64* %318
  store i64 %319, i64* %RDI.i37, align 8
  store %struct.Memory* %loadMem_401a19, %struct.Memory** %MEMORY
  %loadMem_401a1d = load %struct.Memory*, %struct.Memory** %MEMORY
  %320 = getelementptr inbounds %struct.State, %struct.State* %0, i32 0, i32 6
  %321 = getelementptr inbounds %struct.GPR, %struct.GPR* %320, i32 0, i32 33
  %322 = getelementptr inbounds %struct.Reg, %struct.Reg* %321, i32 0, i32 0
  %PC.i34 = bitcast %union.anon* %322 to i64*
  %323 = getelementptr inbounds %struct.State, %struct.State* %0, i32 0, i32 6
  %324 = getelementptr inbounds %struct.GPR, %struct.GPR* %323, i32 0, i32 9
  %325 = getelementptr inbounds %struct.Reg, %struct.Reg* %324, i32 0, i32 0
  %RSI.i = bitcast %union.anon* %325 to i64*
  %326 = getelementptr inbounds %struct.State, %struct.State* %0, i32 0, i32 6
  %327 = getelementptr inbounds %struct.GPR, %struct.GPR* %326, i32 0, i32 15
  %328 = getelementptr inbounds %struct.Reg, %struct.Reg* %327, i32 0, i32 0
  %RBP.i35 = bitcast %union.anon* %328 to i64*
  %329 = load i64, i64* %RBP.i35
  %330 = sub i64 %329, 48
  %331 = load i64, i64* %PC.i34
  %332 = add i64 %331, 4
  store i64 %332, i64* %PC.i34
  %333 = inttoptr i64 %330 to i64*
  %334 = load i64, i64* %333
  store i64 %334, i64* %RSI.i, align 8
  store %struct.Memory* %loadMem_401a1d, %struct.Memory** %MEMORY
  %loadMem_401a21 = load %struct.Memory*, %struct.Memory** %MEMORY
  %335 = getelementptr inbounds %struct.State, %struct.State* %0, i32 0, i32 6
  %336 = getelementptr inbounds %struct.GPR, %struct.GPR* %335, i32 0, i32 33
  %337 = getelementptr inbounds %struct.Reg, %struct.Reg* %336, i32 0, i32 0
  %PC.i32 = bitcast %union.anon* %337 to i64*
  %338 = getelementptr inbounds %struct.State, %struct.State* %0, i32 0, i32 6
  %339 = getelementptr inbounds %struct.GPR, %struct.GPR* %338, i32 0, i32 15
  %340 = getelementptr inbounds %struct.Reg, %struct.Reg* %339, i32 0, i32 0
  %RBP.i33 = bitcast %union.anon* %340 to i64*
  %341 = getelementptr inbounds %struct.State, %struct.State* %0, i32 0, i32 1
  %342 = getelementptr inbounds [32 x %union.VectorReg], [32 x %union.VectorReg]* %341, i64 0, i64 0
  %YMM0.i = bitcast %union.VectorReg* %342 to %"class.std::bitset"*
  %343 = bitcast %"class.std::bitset"* %YMM0.i to i8*
  %344 = load i64, i64* %RBP.i33
  %345 = sub i64 %344, 56
  %346 = load i64, i64* %PC.i32
  %347 = add i64 %346, 5
  store i64 %347, i64* %PC.i32
  %348 = inttoptr i64 %345 to double*
  %349 = load double, double* %348
  %350 = bitcast i8* %343 to double*
  store double %349, double* %350, align 1
  %351 = getelementptr inbounds i8, i8* %343, i64 8
  %352 = bitcast i8* %351 to double*
  store double 0.000000e+00, double* %352, align 1
  store %struct.Memory* %loadMem_401a21, %struct.Memory** %MEMORY
  %loadMem1_401a26 = load %struct.Memory*, %struct.Memory** %MEMORY
  %353 = getelementptr inbounds %struct.State, %struct.State* %0, i32 0, i32 6
  %354 = getelementptr inbounds %struct.GPR, %struct.GPR* %353, i32 0, i32 33
  %355 = getelementptr inbounds %struct.Reg, %struct.Reg* %354, i32 0, i32 0
  %PC.i31 = bitcast %union.anon* %355 to i64*
  %356 = load i64, i64* %PC.i31
  %357 = add i64 %356, 1914
  %358 = load i64, i64* %PC.i31
  %359 = add i64 %358, 5
  %360 = load i64, i64* %PC.i31
  %361 = add i64 %360, 5
  store i64 %361, i64* %PC.i31
  %362 = getelementptr inbounds %struct.State, %struct.State* %0, i64 0, i32 6, i32 13, i32 0, i32 0
  %363 = load i64, i64* %362, align 8
  %364 = add i64 %363, -8
  %365 = inttoptr i64 %364 to i64*
  store i64 %359, i64* %365
  store i64 %364, i64* %362, align 8
  %366 = getelementptr inbounds %struct.State, %struct.State* %0, i64 0, i32 6, i32 33, i32 0, i32 0
  store i64 %357, i64* %366, align 8
  store %struct.Memory* %loadMem1_401a26, %struct.Memory** %MEMORY
  %loadMem2_401a26 = load %struct.Memory*, %struct.Memory** %MEMORY
  %loadPC_401a26 = load i64, i64* %3
  %call2_401a26 = call %struct.Memory* @sub_4021a0._Z10accumulateI16reverse_iteratorIS0_IP6DoubleS1_ES1_ES1_ET0_T_S6_S5_(%struct.State* %0, i64 %loadPC_401a26, %struct.Memory* %loadMem2_401a26)
  store %struct.Memory* %call2_401a26, %struct.Memory** %MEMORY
  %loadMem_401a2b = load %struct.Memory*, %struct.Memory** %MEMORY
  %367 = getelementptr inbounds %struct.State, %struct.State* %0, i32 0, i32 6
  %368 = getelementptr inbounds %struct.GPR, %struct.GPR* %367, i32 0, i32 33
  %369 = getelementptr inbounds %struct.Reg, %struct.Reg* %368, i32 0, i32 0
  %PC.i29 = bitcast %union.anon* %369 to i64*
  %370 = getelementptr inbounds %struct.State, %struct.State* %0, i32 0, i32 6
  %371 = getelementptr inbounds %struct.GPR, %struct.GPR* %370, i32 0, i32 11
  %372 = getelementptr inbounds %struct.Reg, %struct.Reg* %371, i32 0, i32 0
  %RDI.i = bitcast %union.anon* %372 to i64*
  %373 = getelementptr inbounds %struct.State, %struct.State* %0, i32 0, i32 6
  %374 = getelementptr inbounds %struct.GPR, %struct.GPR* %373, i32 0, i32 15
  %375 = getelementptr inbounds %struct.Reg, %struct.Reg* %374, i32 0, i32 0
  %RBP.i30 = bitcast %union.anon* %375 to i64*
  %376 = load i64, i64* %RBP.i30
  %377 = sub i64 %376, 64
  %378 = load i64, i64* %PC.i29
  %379 = add i64 %378, 4
  store i64 %379, i64* %PC.i29
  store i64 %377, i64* %RDI.i, align 8
  store %struct.Memory* %loadMem_401a2b, %struct.Memory** %MEMORY
  %loadMem_401a2f = load %struct.Memory*, %struct.Memory** %MEMORY
  %380 = getelementptr inbounds %struct.State, %struct.State* %0, i32 0, i32 6
  %381 = getelementptr inbounds %struct.GPR, %struct.GPR* %380, i32 0, i32 33
  %382 = getelementptr inbounds %struct.Reg, %struct.Reg* %381, i32 0, i32 0
  %PC.i26 = bitcast %union.anon* %382 to i64*
  %383 = getelementptr inbounds %struct.State, %struct.State* %0, i32 0, i32 6
  %384 = getelementptr inbounds %struct.GPR, %struct.GPR* %383, i32 0, i32 15
  %385 = getelementptr inbounds %struct.Reg, %struct.Reg* %384, i32 0, i32 0
  %RBP.i27 = bitcast %union.anon* %385 to i64*
  %386 = getelementptr inbounds %struct.State, %struct.State* %0, i32 0, i32 1
  %387 = getelementptr inbounds [32 x %union.VectorReg], [32 x %union.VectorReg]* %386, i64 0, i64 0
  %XMM0.i28 = bitcast %union.VectorReg* %387 to %union.vec128_t*
  %388 = load i64, i64* %RBP.i27
  %389 = sub i64 %388, 64
  %390 = bitcast %union.vec128_t* %XMM0.i28 to i8*
  %391 = load i64, i64* %PC.i26
  %392 = add i64 %391, 5
  store i64 %392, i64* %PC.i26
  %393 = bitcast i8* %390 to double*
  %394 = load double, double* %393, align 1
  %395 = inttoptr i64 %389 to double*
  store double %394, double* %395
  store %struct.Memory* %loadMem_401a2f, %struct.Memory** %MEMORY
  %loadMem1_401a34 = load %struct.Memory*, %struct.Memory** %MEMORY
  %396 = getelementptr inbounds %struct.State, %struct.State* %0, i32 0, i32 6
  %397 = getelementptr inbounds %struct.GPR, %struct.GPR* %396, i32 0, i32 33
  %398 = getelementptr inbounds %struct.Reg, %struct.Reg* %397, i32 0, i32 0
  %PC.i25 = bitcast %union.anon* %398 to i64*
  %399 = load i64, i64* %PC.i25
  %400 = add i64 %399, 524
  %401 = load i64, i64* %PC.i25
  %402 = add i64 %401, 5
  %403 = load i64, i64* %PC.i25
  %404 = add i64 %403, 5
  store i64 %404, i64* %PC.i25
  %405 = getelementptr inbounds %struct.State, %struct.State* %0, i64 0, i32 6, i32 13, i32 0, i32 0
  %406 = load i64, i64* %405, align 8
  %407 = add i64 %406, -8
  %408 = inttoptr i64 %407 to i64*
  store i64 %402, i64* %408
  store i64 %407, i64* %405, align 8
  %409 = getelementptr inbounds %struct.State, %struct.State* %0, i64 0, i32 6, i32 33, i32 0, i32 0
  store i64 %400, i64* %409, align 8
  store %struct.Memory* %loadMem1_401a34, %struct.Memory** %MEMORY
  %loadMem2_401a34 = load %struct.Memory*, %struct.Memory** %MEMORY
  %loadPC_401a34 = load i64, i64* %3
  %call2_401a34 = call %struct.Memory* @sub_401c40._ZN6DoublecvdEv(%struct.State* %0, i64 %loadPC_401a34, %struct.Memory* %loadMem2_401a34)
  store %struct.Memory* %call2_401a34, %struct.Memory** %MEMORY
  %loadMem1_401a39 = load %struct.Memory*, %struct.Memory** %MEMORY
  %410 = getelementptr inbounds %struct.State, %struct.State* %0, i32 0, i32 6
  %411 = getelementptr inbounds %struct.GPR, %struct.GPR* %410, i32 0, i32 33
  %412 = getelementptr inbounds %struct.Reg, %struct.Reg* %411, i32 0, i32 0
  %PC.i24 = bitcast %union.anon* %412 to i64*
  %413 = load i64, i64* %PC.i24
  %414 = add i64 %413, -1769
  %415 = load i64, i64* %PC.i24
  %416 = add i64 %415, 5
  %417 = load i64, i64* %PC.i24
  %418 = add i64 %417, 5
  store i64 %418, i64* %PC.i24
  %419 = getelementptr inbounds %struct.State, %struct.State* %0, i64 0, i32 6, i32 13, i32 0, i32 0
  %420 = load i64, i64* %419, align 8
  %421 = add i64 %420, -8
  %422 = inttoptr i64 %421 to i64*
  store i64 %416, i64* %422
  store i64 %421, i64* %419, align 8
  %423 = getelementptr inbounds %struct.State, %struct.State* %0, i64 0, i32 6, i32 33, i32 0, i32 0
  store i64 %414, i64* %423, align 8
  store %struct.Memory* %loadMem1_401a39, %struct.Memory** %MEMORY
  %loadMem2_401a39 = load %struct.Memory*, %struct.Memory** %MEMORY
  %loadPC_401a39 = load i64, i64* %3
  %call2_401a39 = call %struct.Memory* @sub_401350._Z5checkd(%struct.State* %0, i64 %loadPC_401a39, %struct.Memory* %loadMem2_401a39)
  store %struct.Memory* %call2_401a39, %struct.Memory** %MEMORY
  %loadMem_401a3e = load %struct.Memory*, %struct.Memory** %MEMORY
  %424 = getelementptr inbounds %struct.State, %struct.State* %0, i32 0, i32 6
  %425 = getelementptr inbounds %struct.GPR, %struct.GPR* %424, i32 0, i32 33
  %426 = getelementptr inbounds %struct.Reg, %struct.Reg* %425, i32 0, i32 0
  %PC.i21 = bitcast %union.anon* %426 to i64*
  %427 = getelementptr inbounds %struct.State, %struct.State* %0, i32 0, i32 6
  %428 = getelementptr inbounds %struct.GPR, %struct.GPR* %427, i32 0, i32 1
  %429 = getelementptr inbounds %struct.Reg, %struct.Reg* %428, i32 0, i32 0
  %RAX.i22 = bitcast %union.anon* %429 to i64*
  %430 = getelementptr inbounds %struct.State, %struct.State* %0, i32 0, i32 6
  %431 = getelementptr inbounds %struct.GPR, %struct.GPR* %430, i32 0, i32 15
  %432 = getelementptr inbounds %struct.Reg, %struct.Reg* %431, i32 0, i32 0
  %RBP.i23 = bitcast %union.anon* %432 to i64*
  %433 = load i64, i64* %RBP.i23
  %434 = sub i64 %433, 28
  %435 = load i64, i64* %PC.i21
  %436 = add i64 %435, 3
  store i64 %436, i64* %PC.i21
  %437 = inttoptr i64 %434 to i32*
  %438 = load i32, i32* %437
  %439 = zext i32 %438 to i64
  store i64 %439, i64* %RAX.i22, align 8
  store %struct.Memory* %loadMem_401a3e, %struct.Memory** %MEMORY
  %loadMem_401a41 = load %struct.Memory*, %struct.Memory** %MEMORY
  %440 = getelementptr inbounds %struct.State, %struct.State* %0, i32 0, i32 6
  %441 = getelementptr inbounds %struct.GPR, %struct.GPR* %440, i32 0, i32 33
  %442 = getelementptr inbounds %struct.Reg, %struct.Reg* %441, i32 0, i32 0
  %PC.i19 = bitcast %union.anon* %442 to i64*
  %443 = getelementptr inbounds %struct.State, %struct.State* %0, i32 0, i32 6
  %444 = getelementptr inbounds %struct.GPR, %struct.GPR* %443, i32 0, i32 1
  %445 = getelementptr inbounds %struct.Reg, %struct.Reg* %444, i32 0, i32 0
  %RAX.i20 = bitcast %union.anon* %445 to i64*
  %446 = load i64, i64* %RAX.i20
  %447 = load i64, i64* %PC.i19
  %448 = add i64 %447, 3
  store i64 %448, i64* %PC.i19
  %449 = trunc i64 %446 to i32
  %450 = add i32 1, %449
  %451 = zext i32 %450 to i64
  store i64 %451, i64* %RAX.i20, align 8
  %452 = icmp ult i32 %450, %449
  %453 = icmp ult i32 %450, 1
  %454 = or i1 %452, %453
  %455 = zext i1 %454 to i8
  %456 = getelementptr inbounds %struct.State, %struct.State* %0, i64 0, i32 2, i32 1
  store i8 %455, i8* %456, align 1
  %457 = and i32 %450, 255
  %458 = call i32 @llvm.ctpop.i32(i32 %457)
  %459 = trunc i32 %458 to i8
  %460 = and i8 %459, 1
  %461 = xor i8 %460, 1
  %462 = getelementptr inbounds %struct.State, %struct.State* %0, i64 0, i32 2, i32 3
  store i8 %461, i8* %462, align 1
  %463 = xor i64 1, %446
  %464 = trunc i64 %463 to i32
  %465 = xor i32 %464, %450
  %466 = lshr i32 %465, 4
  %467 = trunc i32 %466 to i8
  %468 = and i8 %467, 1
  %469 = getelementptr inbounds %struct.State, %struct.State* %0, i64 0, i32 2, i32 5
  store i8 %468, i8* %469, align 1
  %470 = icmp eq i32 %450, 0
  %471 = zext i1 %470 to i8
  %472 = getelementptr inbounds %struct.State, %struct.State* %0, i64 0, i32 2, i32 7
  store i8 %471, i8* %472, align 1
  %473 = lshr i32 %450, 31
  %474 = trunc i32 %473 to i8
  %475 = getelementptr inbounds %struct.State, %struct.State* %0, i64 0, i32 2, i32 9
  store i8 %474, i8* %475, align 1
  %476 = lshr i32 %449, 31
  %477 = xor i32 %473, %476
  %478 = add i32 %477, %473
  %479 = icmp eq i32 %478, 2
  %480 = zext i1 %479 to i8
  %481 = getelementptr inbounds %struct.State, %struct.State* %0, i64 0, i32 2, i32 13
  store i8 %480, i8* %481, align 1
  store %struct.Memory* %loadMem_401a41, %struct.Memory** %MEMORY
  %loadMem_401a44 = load %struct.Memory*, %struct.Memory** %MEMORY
  %482 = getelementptr inbounds %struct.State, %struct.State* %0, i32 0, i32 6
  %483 = getelementptr inbounds %struct.GPR, %struct.GPR* %482, i32 0, i32 33
  %484 = getelementptr inbounds %struct.Reg, %struct.Reg* %483, i32 0, i32 0
  %PC.i16 = bitcast %union.anon* %484 to i64*
  %485 = getelementptr inbounds %struct.State, %struct.State* %0, i32 0, i32 6
  %486 = getelementptr inbounds %struct.GPR, %struct.GPR* %485, i32 0, i32 1
  %487 = getelementptr inbounds %struct.Reg, %struct.Reg* %486, i32 0, i32 0
  %EAX.i17 = bitcast %union.anon* %487 to i32*
  %488 = getelementptr inbounds %struct.State, %struct.State* %0, i32 0, i32 6
  %489 = getelementptr inbounds %struct.GPR, %struct.GPR* %488, i32 0, i32 15
  %490 = getelementptr inbounds %struct.Reg, %struct.Reg* %489, i32 0, i32 0
  %RBP.i18 = bitcast %union.anon* %490 to i64*
  %491 = load i64, i64* %RBP.i18
  %492 = sub i64 %491, 28
  %493 = load i32, i32* %EAX.i17
  %494 = zext i32 %493 to i64
  %495 = load i64, i64* %PC.i16
  %496 = add i64 %495, 3
  store i64 %496, i64* %PC.i16
  %497 = inttoptr i64 %492 to i32*
  store i32 %493, i32* %497
  store %struct.Memory* %loadMem_401a44, %struct.Memory** %MEMORY
  %loadMem_401a47 = load %struct.Memory*, %struct.Memory** %MEMORY
  %498 = getelementptr inbounds %struct.State, %struct.State* %0, i32 0, i32 6
  %499 = getelementptr inbounds %struct.GPR, %struct.GPR* %498, i32 0, i32 33
  %500 = getelementptr inbounds %struct.Reg, %struct.Reg* %499, i32 0, i32 0
  %PC.i15 = bitcast %union.anon* %500 to i64*
  %501 = load i64, i64* %PC.i15
  %502 = add i64 %501, -86
  %503 = load i64, i64* %PC.i15
  %504 = add i64 %503, 5
  store i64 %504, i64* %PC.i15
  %505 = getelementptr inbounds %struct.State, %struct.State* %0, i64 0, i32 6, i32 33, i32 0, i32 0
  store i64 %502, i64* %505, align 8
  store %struct.Memory* %loadMem_401a47, %struct.Memory** %MEMORY
  br label %block_.L_4019f1

block_.L_401a4c:                                  ; preds = %block_.L_4019f1
  %loadMem1_401a4c = load %struct.Memory*, %struct.Memory** %MEMORY
  %506 = getelementptr inbounds %struct.State, %struct.State* %0, i32 0, i32 6
  %507 = getelementptr inbounds %struct.GPR, %struct.GPR* %506, i32 0, i32 33
  %508 = getelementptr inbounds %struct.Reg, %struct.Reg* %507, i32 0, i32 0
  %PC.i14 = bitcast %union.anon* %508 to i64*
  %509 = load i64, i64* %PC.i14
  %510 = add i64 %509, -1708
  %511 = load i64, i64* %PC.i14
  %512 = add i64 %511, 5
  %513 = load i64, i64* %PC.i14
  %514 = add i64 %513, 5
  store i64 %514, i64* %PC.i14
  %515 = getelementptr inbounds %struct.State, %struct.State* %0, i64 0, i32 6, i32 13, i32 0, i32 0
  %516 = load i64, i64* %515, align 8
  %517 = add i64 %516, -8
  %518 = inttoptr i64 %517 to i64*
  store i64 %512, i64* %518
  store i64 %517, i64* %515, align 8
  %519 = getelementptr inbounds %struct.State, %struct.State* %0, i64 0, i32 6, i32 33, i32 0, i32 0
  store i64 %510, i64* %519, align 8
  store %struct.Memory* %loadMem1_401a4c, %struct.Memory** %MEMORY
  %loadMem2_401a4c = load %struct.Memory*, %struct.Memory** %MEMORY
  %loadPC_401a4c = load i64, i64* %3
  %call2_401a4c = call %struct.Memory* @sub_4013a0._Z5timerv(%struct.State* %0, i64 %loadPC_401a4c, %struct.Memory* %loadMem2_401a4c)
  store %struct.Memory* %call2_401a4c, %struct.Memory** %MEMORY
  %loadMem_401a51 = load %struct.Memory*, %struct.Memory** %MEMORY
  %520 = getelementptr inbounds %struct.State, %struct.State* %0, i32 0, i32 6
  %521 = getelementptr inbounds %struct.GPR, %struct.GPR* %520, i32 0, i32 33
  %522 = getelementptr inbounds %struct.Reg, %struct.Reg* %521, i32 0, i32 0
  %PC.i13 = bitcast %union.anon* %522 to i64*
  %523 = getelementptr inbounds %struct.State, %struct.State* %0, i32 0, i32 6
  %524 = getelementptr inbounds %struct.GPR, %struct.GPR* %523, i32 0, i32 1
  %525 = getelementptr inbounds %struct.Reg, %struct.Reg* %524, i32 0, i32 0
  %RAX.i = bitcast %union.anon* %525 to i64*
  %526 = load i64, i64* %PC.i13
  %527 = add i64 %526, 7
  store i64 %527, i64* %PC.i13
  %528 = load i32, i32* inttoptr (i64 6312080 to i32*)
  %529 = zext i32 %528 to i64
  store i64 %529, i64* %RAX.i, align 8
  store %struct.Memory* %loadMem_401a51, %struct.Memory** %MEMORY
  %loadMem_401a58 = load %struct.Memory*, %struct.Memory** %MEMORY
  %530 = getelementptr inbounds %struct.State, %struct.State* %0, i32 0, i32 6
  %531 = getelementptr inbounds %struct.GPR, %struct.GPR* %530, i32 0, i32 33
  %532 = getelementptr inbounds %struct.Reg, %struct.Reg* %531, i32 0, i32 0
  %PC.i10 = bitcast %union.anon* %532 to i64*
  %533 = getelementptr inbounds %struct.State, %struct.State* %0, i32 0, i32 6
  %534 = getelementptr inbounds %struct.GPR, %struct.GPR* %533, i32 0, i32 1
  %535 = getelementptr inbounds %struct.Reg, %struct.Reg* %534, i32 0, i32 0
  %EAX.i11 = bitcast %union.anon* %535 to i32*
  %536 = getelementptr inbounds %struct.State, %struct.State* %0, i32 0, i32 6
  %537 = getelementptr inbounds %struct.GPR, %struct.GPR* %536, i32 0, i32 5
  %538 = getelementptr inbounds %struct.Reg, %struct.Reg* %537, i32 0, i32 0
  %RCX.i12 = bitcast %union.anon* %538 to i64*
  %539 = load i32, i32* %EAX.i11
  %540 = zext i32 %539 to i64
  %541 = load i64, i64* %PC.i10
  %542 = add i64 %541, 2
  store i64 %542, i64* %PC.i10
  %543 = and i64 %540, 4294967295
  store i64 %543, i64* %RCX.i12, align 8
  store %struct.Memory* %loadMem_401a58, %struct.Memory** %MEMORY
  %loadMem_401a5a = load %struct.Memory*, %struct.Memory** %MEMORY
  %544 = getelementptr inbounds %struct.State, %struct.State* %0, i32 0, i32 6
  %545 = getelementptr inbounds %struct.GPR, %struct.GPR* %544, i32 0, i32 33
  %546 = getelementptr inbounds %struct.Reg, %struct.Reg* %545, i32 0, i32 0
  %PC.i9 = bitcast %union.anon* %546 to i64*
  %547 = getelementptr inbounds %struct.State, %struct.State* %0, i32 0, i32 6
  %548 = getelementptr inbounds %struct.GPR, %struct.GPR* %547, i32 0, i32 5
  %549 = getelementptr inbounds %struct.Reg, %struct.Reg* %548, i32 0, i32 0
  %RCX.i = bitcast %union.anon* %549 to i64*
  %550 = load i64, i64* %RCX.i
  %551 = load i64, i64* %PC.i9
  %552 = add i64 %551, 3
  store i64 %552, i64* %PC.i9
  %553 = trunc i64 %550 to i32
  %554 = add i32 1, %553
  %555 = zext i32 %554 to i64
  store i64 %555, i64* %RCX.i, align 8
  %556 = icmp ult i32 %554, %553
  %557 = icmp ult i32 %554, 1
  %558 = or i1 %556, %557
  %559 = zext i1 %558 to i8
  %560 = getelementptr inbounds %struct.State, %struct.State* %0, i64 0, i32 2, i32 1
  store i8 %559, i8* %560, align 1
  %561 = and i32 %554, 255
  %562 = call i32 @llvm.ctpop.i32(i32 %561)
  %563 = trunc i32 %562 to i8
  %564 = and i8 %563, 1
  %565 = xor i8 %564, 1
  %566 = getelementptr inbounds %struct.State, %struct.State* %0, i64 0, i32 2, i32 3
  store i8 %565, i8* %566, align 1
  %567 = xor i64 1, %550
  %568 = trunc i64 %567 to i32
  %569 = xor i32 %568, %554
  %570 = lshr i32 %569, 4
  %571 = trunc i32 %570 to i8
  %572 = and i8 %571, 1
  %573 = getelementptr inbounds %struct.State, %struct.State* %0, i64 0, i32 2, i32 5
  store i8 %572, i8* %573, align 1
  %574 = icmp eq i32 %554, 0
  %575 = zext i1 %574 to i8
  %576 = getelementptr inbounds %struct.State, %struct.State* %0, i64 0, i32 2, i32 7
  store i8 %575, i8* %576, align 1
  %577 = lshr i32 %554, 31
  %578 = trunc i32 %577 to i8
  %579 = getelementptr inbounds %struct.State, %struct.State* %0, i64 0, i32 2, i32 9
  store i8 %578, i8* %579, align 1
  %580 = lshr i32 %553, 31
  %581 = xor i32 %577, %580
  %582 = add i32 %581, %577
  %583 = icmp eq i32 %582, 2
  %584 = zext i1 %583 to i8
  %585 = getelementptr inbounds %struct.State, %struct.State* %0, i64 0, i32 2, i32 13
  store i8 %584, i8* %585, align 1
  store %struct.Memory* %loadMem_401a5a, %struct.Memory** %MEMORY
  %loadMem_401a5d = load %struct.Memory*, %struct.Memory** %MEMORY
  %586 = getelementptr inbounds %struct.State, %struct.State* %0, i32 0, i32 6
  %587 = getelementptr inbounds %struct.GPR, %struct.GPR* %586, i32 0, i32 33
  %588 = getelementptr inbounds %struct.Reg, %struct.Reg* %587, i32 0, i32 0
  %PC.i8 = bitcast %union.anon* %588 to i64*
  %589 = getelementptr inbounds %struct.State, %struct.State* %0, i32 0, i32 6
  %590 = getelementptr inbounds %struct.GPR, %struct.GPR* %589, i32 0, i32 5
  %591 = getelementptr inbounds %struct.Reg, %struct.Reg* %590, i32 0, i32 0
  %ECX.i = bitcast %union.anon* %591 to i32*
  %592 = load i32, i32* %ECX.i
  %593 = zext i32 %592 to i64
  %594 = load i64, i64* %PC.i8
  %595 = add i64 %594, 7
  store i64 %595, i64* %PC.i8
  store i32 %592, i32* inttoptr (i64 6312080 to i32*)
  store %struct.Memory* %loadMem_401a5d, %struct.Memory** %MEMORY
  %loadMem_401a64 = load %struct.Memory*, %struct.Memory** %MEMORY
  %596 = getelementptr inbounds %struct.State, %struct.State* %0, i32 0, i32 6
  %597 = getelementptr inbounds %struct.GPR, %struct.GPR* %596, i32 0, i32 33
  %598 = getelementptr inbounds %struct.Reg, %struct.Reg* %597, i32 0, i32 0
  %PC.i6 = bitcast %union.anon* %598 to i64*
  %599 = getelementptr inbounds %struct.State, %struct.State* %0, i32 0, i32 6
  %600 = getelementptr inbounds %struct.GPR, %struct.GPR* %599, i32 0, i32 1
  %601 = getelementptr inbounds %struct.Reg, %struct.Reg* %600, i32 0, i32 0
  %EAX.i = bitcast %union.anon* %601 to i32*
  %602 = getelementptr inbounds %struct.State, %struct.State* %0, i32 0, i32 6
  %603 = getelementptr inbounds %struct.GPR, %struct.GPR* %602, i32 0, i32 7
  %604 = getelementptr inbounds %struct.Reg, %struct.Reg* %603, i32 0, i32 0
  %RDX.i7 = bitcast %union.anon* %604 to i64*
  %605 = load i32, i32* %EAX.i
  %606 = zext i32 %605 to i64
  %607 = load i64, i64* %PC.i6
  %608 = add i64 %607, 3
  store i64 %608, i64* %PC.i6
  %609 = shl i64 %606, 32
  %610 = ashr exact i64 %609, 32
  store i64 %610, i64* %RDX.i7, align 8
  store %struct.Memory* %loadMem_401a64, %struct.Memory** %MEMORY
  %loadMem_401a67 = load %struct.Memory*, %struct.Memory** %MEMORY
  %611 = getelementptr inbounds %struct.State, %struct.State* %0, i32 0, i32 6
  %612 = getelementptr inbounds %struct.GPR, %struct.GPR* %611, i32 0, i32 33
  %613 = getelementptr inbounds %struct.Reg, %struct.Reg* %612, i32 0, i32 0
  %PC.i5 = bitcast %union.anon* %613 to i64*
  %614 = getelementptr inbounds %struct.State, %struct.State* %0, i32 0, i32 6
  %615 = getelementptr inbounds %struct.GPR, %struct.GPR* %614, i32 0, i32 7
  %616 = getelementptr inbounds %struct.Reg, %struct.Reg* %615, i32 0, i32 0
  %RDX.i = bitcast %union.anon* %616 to i64*
  %617 = getelementptr inbounds %struct.State, %struct.State* %0, i32 0, i32 1
  %618 = getelementptr inbounds [32 x %union.VectorReg], [32 x %union.VectorReg]* %617, i64 0, i64 0
  %XMM0.i = bitcast %union.VectorReg* %618 to %union.vec128_t*
  %619 = load i64, i64* %RDX.i
  %620 = mul i64 %619, 8
  %621 = add i64 %620, 6312096
  %622 = bitcast %union.vec128_t* %XMM0.i to i8*
  %623 = load i64, i64* %PC.i5
  %624 = add i64 %623, 9
  store i64 %624, i64* %PC.i5
  %625 = bitcast i8* %622 to double*
  %626 = load double, double* %625, align 1
  %627 = inttoptr i64 %621 to double*
  store double %626, double* %627
  store %struct.Memory* %loadMem_401a67, %struct.Memory** %MEMORY
  %loadMem_401a70 = load %struct.Memory*, %struct.Memory** %MEMORY
  %628 = getelementptr inbounds %struct.State, %struct.State* %0, i32 0, i32 6
  %629 = getelementptr inbounds %struct.GPR, %struct.GPR* %628, i32 0, i32 33
  %630 = getelementptr inbounds %struct.Reg, %struct.Reg* %629, i32 0, i32 0
  %PC.i4 = bitcast %union.anon* %630 to i64*
  %631 = getelementptr inbounds %struct.State, %struct.State* %0, i32 0, i32 6
  %632 = getelementptr inbounds %struct.GPR, %struct.GPR* %631, i32 0, i32 13
  %633 = getelementptr inbounds %struct.Reg, %struct.Reg* %632, i32 0, i32 0
  %RSP.i = bitcast %union.anon* %633 to i64*
  %634 = load i64, i64* %RSP.i
  %635 = load i64, i64* %PC.i4
  %636 = add i64 %635, 4
  store i64 %636, i64* %PC.i4
  %637 = add i64 64, %634
  store i64 %637, i64* %RSP.i, align 8
  %638 = icmp ult i64 %637, %634
  %639 = icmp ult i64 %637, 64
  %640 = or i1 %638, %639
  %641 = zext i1 %640 to i8
  %642 = getelementptr inbounds %struct.State, %struct.State* %0, i64 0, i32 2, i32 1
  store i8 %641, i8* %642, align 1
  %643 = trunc i64 %637 to i32
  %644 = and i32 %643, 255
  %645 = call i32 @llvm.ctpop.i32(i32 %644)
  %646 = trunc i32 %645 to i8
  %647 = and i8 %646, 1
  %648 = xor i8 %647, 1
  %649 = getelementptr inbounds %struct.State, %struct.State* %0, i64 0, i32 2, i32 3
  store i8 %648, i8* %649, align 1
  %650 = xor i64 64, %634
  %651 = xor i64 %650, %637
  %652 = lshr i64 %651, 4
  %653 = trunc i64 %652 to i8
  %654 = and i8 %653, 1
  %655 = getelementptr inbounds %struct.State, %struct.State* %0, i64 0, i32 2, i32 5
  store i8 %654, i8* %655, align 1
  %656 = icmp eq i64 %637, 0
  %657 = zext i1 %656 to i8
  %658 = getelementptr inbounds %struct.State, %struct.State* %0, i64 0, i32 2, i32 7
  store i8 %657, i8* %658, align 1
  %659 = lshr i64 %637, 63
  %660 = trunc i64 %659 to i8
  %661 = getelementptr inbounds %struct.State, %struct.State* %0, i64 0, i32 2, i32 9
  store i8 %660, i8* %661, align 1
  %662 = lshr i64 %634, 63
  %663 = xor i64 %659, %662
  %664 = add i64 %663, %659
  %665 = icmp eq i64 %664, 2
  %666 = zext i1 %665 to i8
  %667 = getelementptr inbounds %struct.State, %struct.State* %0, i64 0, i32 2, i32 13
  store i8 %666, i8* %667, align 1
  store %struct.Memory* %loadMem_401a70, %struct.Memory** %MEMORY
  %loadMem_401a74 = load %struct.Memory*, %struct.Memory** %MEMORY
  %668 = getelementptr inbounds %struct.State, %struct.State* %0, i32 0, i32 6
  %669 = getelementptr inbounds %struct.GPR, %struct.GPR* %668, i32 0, i32 33
  %670 = getelementptr inbounds %struct.Reg, %struct.Reg* %669, i32 0, i32 0
  %PC.i2 = bitcast %union.anon* %670 to i64*
  %671 = getelementptr inbounds %struct.State, %struct.State* %0, i32 0, i32 6
  %672 = getelementptr inbounds %struct.GPR, %struct.GPR* %671, i32 0, i32 15
  %673 = getelementptr inbounds %struct.Reg, %struct.Reg* %672, i32 0, i32 0
  %RBP.i3 = bitcast %union.anon* %673 to i64*
  %674 = load i64, i64* %PC.i2
  %675 = add i64 %674, 1
  store i64 %675, i64* %PC.i2
  %676 = getelementptr inbounds %struct.State, %struct.State* %0, i64 0, i32 6, i32 13, i32 0, i32 0
  %677 = load i64, i64* %676, align 8
  %678 = add i64 %677, 8
  %679 = inttoptr i64 %677 to i64*
  %680 = load i64, i64* %679
  store i64 %680, i64* %RBP.i3, align 8
  store i64 %678, i64* %676, align 8
  store %struct.Memory* %loadMem_401a74, %struct.Memory** %MEMORY
  %loadMem_401a75 = load %struct.Memory*, %struct.Memory** %MEMORY
  %681 = getelementptr inbounds %struct.State, %struct.State* %0, i32 0, i32 6
  %682 = getelementptr inbounds %struct.GPR, %struct.GPR* %681, i32 0, i32 33
  %683 = getelementptr inbounds %struct.Reg, %struct.Reg* %682, i32 0, i32 0
  %PC.i1 = bitcast %union.anon* %683 to i64*
  %684 = load i64, i64* %PC.i1
  %685 = add i64 %684, 1
  store i64 %685, i64* %PC.i1
  %686 = getelementptr inbounds %struct.State, %struct.State* %0, i64 0, i32 6, i32 33, i32 0, i32 0
  %687 = getelementptr inbounds %struct.State, %struct.State* %0, i64 0, i32 6, i32 13, i32 0, i32 0
  %688 = load i64, i64* %687, align 8
  %689 = inttoptr i64 %688 to i64*
  %690 = load i64, i64* %689
  store i64 %690, i64* %686, align 8
  %691 = add i64 %688, 8
  store i64 %691, i64* %687, align 8
  store %struct.Memory* %loadMem_401a75, %struct.Memory** %MEMORY
  ret %struct.Memory* %loadMem_401a75
}

define %struct.Memory* @routine_pushq__rbp(%struct.State* dereferenceable(3376), i64, %struct.Memory*) {
block_400488:
  %3 = getelementptr inbounds %struct.State, %struct.State* %0, i32 0, i32 6
  %4 = getelementptr inbounds %struct.GPR, %struct.GPR* %3, i32 0, i32 33
  %5 = getelementptr inbounds %struct.Reg, %struct.Reg* %4, i32 0, i32 0
  %PC = bitcast %union.anon* %5 to i64*
  %6 = getelementptr inbounds %struct.State, %struct.State* %0, i32 0, i32 6
  %7 = getelementptr inbounds %struct.GPR, %struct.GPR* %6, i32 0, i32 15
  %8 = getelementptr inbounds %struct.Reg, %struct.Reg* %7, i32 0, i32 0
  %RBP = bitcast %union.anon* %8 to i64*
  %9 = load i64, i64* %RBP
  %10 = load i64, i64* %PC
  %11 = add i64 %10, 1
  store i64 %11, i64* %PC
  %12 = getelementptr inbounds %struct.State, %struct.State* %0, i64 0, i32 6, i32 13, i32 0, i32 0
  %13 = load i64, i64* %12, align 8
  %14 = add i64 %13, -8
  %15 = inttoptr i64 %14 to i64*
  store i64 %9, i64* %15
  store i64 %14, i64* %12, align 8
  ret %struct.Memory* %2
}

define %struct.Memory* @routine_movq__rsp___rbp(%struct.State* dereferenceable(3376), i64, %struct.Memory*) {
block_400488:
  %3 = getelementptr inbounds %struct.State, %struct.State* %0, i32 0, i32 6
  %4 = getelementptr inbounds %struct.GPR, %struct.GPR* %3, i32 0, i32 33
  %5 = getelementptr inbounds %struct.Reg, %struct.Reg* %4, i32 0, i32 0
  %PC = bitcast %union.anon* %5 to i64*
  %6 = getelementptr inbounds %struct.State, %struct.State* %0, i32 0, i32 6
  %7 = getelementptr inbounds %struct.GPR, %struct.GPR* %6, i32 0, i32 13
  %8 = getelementptr inbounds %struct.Reg, %struct.Reg* %7, i32 0, i32 0
  %RSP = bitcast %union.anon* %8 to i64*
  %9 = getelementptr inbounds %struct.State, %struct.State* %0, i32 0, i32 6
  %10 = getelementptr inbounds %struct.GPR, %struct.GPR* %9, i32 0, i32 15
  %11 = getelementptr inbounds %struct.Reg, %struct.Reg* %10, i32 0, i32 0
  %RBP = bitcast %union.anon* %11 to i64*
  %12 = load i64, i64* %RSP
  %13 = load i64, i64* %PC
  %14 = add i64 %13, 3
  store i64 %14, i64* %PC
  store i64 %12, i64* %RBP, align 8
  ret %struct.Memory* %2
}

define %struct.Memory* @routine_subq__0x40___rsp(%struct.State* dereferenceable(3376), i64, %struct.Memory*) {
block_400488:
  %3 = getelementptr inbounds %struct.State, %struct.State* %0, i32 0, i32 6
  %4 = getelementptr inbounds %struct.GPR, %struct.GPR* %3, i32 0, i32 33
  %5 = getelementptr inbounds %struct.Reg, %struct.Reg* %4, i32 0, i32 0
  %PC = bitcast %union.anon* %5 to i64*
  %6 = getelementptr inbounds %struct.State, %struct.State* %0, i32 0, i32 6
  %7 = getelementptr inbounds %struct.GPR, %struct.GPR* %6, i32 0, i32 13
  %8 = getelementptr inbounds %struct.Reg, %struct.Reg* %7, i32 0, i32 0
  %RSP = bitcast %union.anon* %8 to i64*
  %9 = load i64, i64* %RSP
  %10 = load i64, i64* %PC
  %11 = add i64 %10, 4
  store i64 %11, i64* %PC
  %12 = sub i64 %9, 64
  store i64 %12, i64* %RSP, align 8
  %13 = icmp ult i64 %9, 64
  %14 = zext i1 %13 to i8
  %15 = getelementptr inbounds %struct.State, %struct.State* %0, i64 0, i32 2, i32 1
  store i8 %14, i8* %15, align 1
  %16 = trunc i64 %12 to i32
  %17 = and i32 %16, 255
  %18 = call i32 @llvm.ctpop.i32(i32 %17)
  %19 = trunc i32 %18 to i8
  %20 = and i8 %19, 1
  %21 = xor i8 %20, 1
  %22 = getelementptr inbounds %struct.State, %struct.State* %0, i64 0, i32 2, i32 3
  store i8 %21, i8* %22, align 1
  %23 = xor i64 64, %9
  %24 = xor i64 %23, %12
  %25 = lshr i64 %24, 4
  %26 = trunc i64 %25 to i8
  %27 = and i8 %26, 1
  %28 = getelementptr inbounds %struct.State, %struct.State* %0, i64 0, i32 2, i32 5
  store i8 %27, i8* %28, align 1
  %29 = icmp eq i64 %12, 0
  %30 = zext i1 %29 to i8
  %31 = getelementptr inbounds %struct.State, %struct.State* %0, i64 0, i32 2, i32 7
  store i8 %30, i8* %31, align 1
  %32 = lshr i64 %12, 63
  %33 = trunc i64 %32 to i8
  %34 = getelementptr inbounds %struct.State, %struct.State* %0, i64 0, i32 2, i32 9
  store i8 %33, i8* %34, align 1
  %35 = lshr i64 %9, 63
  %36 = xor i64 %32, %35
  %37 = add i64 %36, %35
  %38 = icmp eq i64 %37, 2
  %39 = zext i1 %38 to i8
  %40 = getelementptr inbounds %struct.State, %struct.State* %0, i64 0, i32 2, i32 13
  store i8 %39, i8* %40, align 1
  ret %struct.Memory* %2
}

define %struct.Memory* @routine_movq__rdi__MINUS0x8__rbp_(%struct.State* dereferenceable(3376), i64, %struct.Memory*) {
block_400488:
  %3 = getelementptr inbounds %struct.State, %struct.State* %0, i32 0, i32 6
  %4 = getelementptr inbounds %struct.GPR, %struct.GPR* %3, i32 0, i32 33
  %5 = getelementptr inbounds %struct.Reg, %struct.Reg* %4, i32 0, i32 0
  %PC = bitcast %union.anon* %5 to i64*
  %6 = getelementptr inbounds %struct.State, %struct.State* %0, i32 0, i32 6
  %7 = getelementptr inbounds %struct.GPR, %struct.GPR* %6, i32 0, i32 11
  %8 = getelementptr inbounds %struct.Reg, %struct.Reg* %7, i32 0, i32 0
  %RDI = bitcast %union.anon* %8 to i64*
  %9 = getelementptr inbounds %struct.State, %struct.State* %0, i32 0, i32 6
  %10 = getelementptr inbounds %struct.GPR, %struct.GPR* %9, i32 0, i32 15
  %11 = getelementptr inbounds %struct.Reg, %struct.Reg* %10, i32 0, i32 0
  %RBP = bitcast %union.anon* %11 to i64*
  %12 = load i64, i64* %RBP
  %13 = sub i64 %12, 8
  %14 = load i64, i64* %RDI
  %15 = load i64, i64* %PC
  %16 = add i64 %15, 4
  store i64 %16, i64* %PC
  %17 = inttoptr i64 %13 to i64*
  store i64 %14, i64* %17
  ret %struct.Memory* %2
}

define %struct.Memory* @routine_movq__rsi__MINUS0x10__rbp_(%struct.State* dereferenceable(3376), i64, %struct.Memory*) {
block_400488:
  %3 = getelementptr inbounds %struct.State, %struct.State* %0, i32 0, i32 6
  %4 = getelementptr inbounds %struct.GPR, %struct.GPR* %3, i32 0, i32 33
  %5 = getelementptr inbounds %struct.Reg, %struct.Reg* %4, i32 0, i32 0
  %PC = bitcast %union.anon* %5 to i64*
  %6 = getelementptr inbounds %struct.State, %struct.State* %0, i32 0, i32 6
  %7 = getelementptr inbounds %struct.GPR, %struct.GPR* %6, i32 0, i32 9
  %8 = getelementptr inbounds %struct.Reg, %struct.Reg* %7, i32 0, i32 0
  %RSI = bitcast %union.anon* %8 to i64*
  %9 = getelementptr inbounds %struct.State, %struct.State* %0, i32 0, i32 6
  %10 = getelementptr inbounds %struct.GPR, %struct.GPR* %9, i32 0, i32 15
  %11 = getelementptr inbounds %struct.Reg, %struct.Reg* %10, i32 0, i32 0
  %RBP = bitcast %union.anon* %11 to i64*
  %12 = load i64, i64* %RBP
  %13 = sub i64 %12, 16
  %14 = load i64, i64* %RSI
  %15 = load i64, i64* %PC
  %16 = add i64 %15, 4
  store i64 %16, i64* %PC
  %17 = inttoptr i64 %13 to i64*
  store i64 %14, i64* %17
  ret %struct.Memory* %2
}

define %struct.Memory* @routine_movsd__xmm0__MINUS0x18__rbp_(%struct.State* dereferenceable(3376), i64, %struct.Memory*) {
block_400488:
  %3 = getelementptr inbounds %struct.State, %struct.State* %0, i32 0, i32 6
  %4 = getelementptr inbounds %struct.GPR, %struct.GPR* %3, i32 0, i32 33
  %5 = getelementptr inbounds %struct.Reg, %struct.Reg* %4, i32 0, i32 0
  %PC = bitcast %union.anon* %5 to i64*
  %6 = getelementptr inbounds %struct.State, %struct.State* %0, i32 0, i32 6
  %7 = getelementptr inbounds %struct.GPR, %struct.GPR* %6, i32 0, i32 15
  %8 = getelementptr inbounds %struct.Reg, %struct.Reg* %7, i32 0, i32 0
  %RBP = bitcast %union.anon* %8 to i64*
  %9 = getelementptr inbounds %struct.State, %struct.State* %0, i32 0, i32 1
  %10 = getelementptr inbounds [32 x %union.VectorReg], [32 x %union.VectorReg]* %9, i64 0, i64 0
  %XMM0 = bitcast %union.VectorReg* %10 to %union.vec128_t*
  %11 = load i64, i64* %RBP
  %12 = sub i64 %11, 24
  %13 = bitcast %union.vec128_t* %XMM0 to i8*
  %14 = load i64, i64* %PC
  %15 = add i64 %14, 5
  store i64 %15, i64* %PC
  %16 = bitcast i8* %13 to double*
  %17 = load double, double* %16, align 1
  %18 = inttoptr i64 %12 to double*
  store double %17, double* %18
  ret %struct.Memory* %2
}

define %struct.Memory* @routine_callq_._Z11start_timerv(%struct.State* dereferenceable(3376), i64, %struct.Memory*, i64 %rel_off1, i64 %rel_off2, i64 %rel_off3) {
block_400488:
  %3 = getelementptr inbounds %struct.State, %struct.State* %0, i32 0, i32 6
  %4 = getelementptr inbounds %struct.GPR, %struct.GPR* %3, i32 0, i32 33
  %5 = getelementptr inbounds %struct.Reg, %struct.Reg* %4, i32 0, i32 0
  %PC = bitcast %union.anon* %5 to i64*
  %6 = load i64, i64* %PC
  %7 = add i64 %6, %rel_off1
  %8 = load i64, i64* %PC
  %9 = add i64 %8, %rel_off2
  %10 = load i64, i64* %PC
  %11 = add i64 %10, %rel_off3
  store i64 %11, i64* %PC
  %12 = getelementptr inbounds %struct.State, %struct.State* %0, i64 0, i32 6, i32 13, i32 0, i32 0
  %13 = load i64, i64* %12, align 8
  %14 = add i64 %13, -8
  %15 = inttoptr i64 %14 to i64*
  store i64 %9, i64* %15
  store i64 %14, i64* %12, align 8
  %16 = getelementptr inbounds %struct.State, %struct.State* %0, i64 0, i32 6, i32 33, i32 0, i32 0
  store i64 %7, i64* %16, align 8
  ret %struct.Memory* %2
}

define %struct.Memory* @routine_movl__0x0__MINUS0x1c__rbp_(%struct.State* dereferenceable(3376), i64, %struct.Memory*) {
block_400488:
  %3 = getelementptr inbounds %struct.State, %struct.State* %0, i32 0, i32 6
  %4 = getelementptr inbounds %struct.GPR, %struct.GPR* %3, i32 0, i32 33
  %5 = getelementptr inbounds %struct.Reg, %struct.Reg* %4, i32 0, i32 0
  %PC = bitcast %union.anon* %5 to i64*
  %6 = getelementptr inbounds %struct.State, %struct.State* %0, i32 0, i32 6
  %7 = getelementptr inbounds %struct.GPR, %struct.GPR* %6, i32 0, i32 15
  %8 = getelementptr inbounds %struct.Reg, %struct.Reg* %7, i32 0, i32 0
  %RBP = bitcast %union.anon* %8 to i64*
  %9 = load i64, i64* %RBP
  %10 = sub i64 %9, 28
  %11 = load i64, i64* %PC
  %12 = add i64 %11, 7
  store i64 %12, i64* %PC
  %13 = inttoptr i64 %10 to i32*
  store i32 0, i32* %13
  ret %struct.Memory* %2
}

define %struct.Memory* @routine_movl_MINUS0x1c__rbp____eax(%struct.State* dereferenceable(3376), i64, %struct.Memory*) {
block_400488:
  %3 = getelementptr inbounds %struct.State, %struct.State* %0, i32 0, i32 6
  %4 = getelementptr inbounds %struct.GPR, %struct.GPR* %3, i32 0, i32 33
  %5 = getelementptr inbounds %struct.Reg, %struct.Reg* %4, i32 0, i32 0
  %PC = bitcast %union.anon* %5 to i64*
  %6 = getelementptr inbounds %struct.State, %struct.State* %0, i32 0, i32 6
  %7 = getelementptr inbounds %struct.GPR, %struct.GPR* %6, i32 0, i32 1
  %8 = getelementptr inbounds %struct.Reg, %struct.Reg* %7, i32 0, i32 0
  %RAX = bitcast %union.anon* %8 to i64*
  %9 = getelementptr inbounds %struct.State, %struct.State* %0, i32 0, i32 6
  %10 = getelementptr inbounds %struct.GPR, %struct.GPR* %9, i32 0, i32 15
  %11 = getelementptr inbounds %struct.Reg, %struct.Reg* %10, i32 0, i32 0
  %RBP = bitcast %union.anon* %11 to i64*
  %12 = load i64, i64* %RBP
  %13 = sub i64 %12, 28
  %14 = load i64, i64* %PC
  %15 = add i64 %14, 3
  store i64 %15, i64* %PC
  %16 = inttoptr i64 %13 to i32*
  %17 = load i32, i32* %16
  %18 = zext i32 %17 to i64
  store i64 %18, i64* %RAX, align 8
  ret %struct.Memory* %2
}

define %struct.Memory* @routine_cmpl_0x605050___eax(%struct.State* dereferenceable(3376), i64, %struct.Memory*) {
block_400488:
  %3 = getelementptr inbounds %struct.State, %struct.State* %0, i32 0, i32 6
  %4 = getelementptr inbounds %struct.GPR, %struct.GPR* %3, i32 0, i32 33
  %5 = getelementptr inbounds %struct.Reg, %struct.Reg* %4, i32 0, i32 0
  %PC = bitcast %union.anon* %5 to i64*
  %6 = getelementptr inbounds %struct.State, %struct.State* %0, i32 0, i32 6
  %7 = getelementptr inbounds %struct.GPR, %struct.GPR* %6, i32 0, i32 1
  %8 = getelementptr inbounds %struct.Reg, %struct.Reg* %7, i32 0, i32 0
  %EAX = bitcast %union.anon* %8 to i32*
  %9 = load i32, i32* %EAX
  %10 = zext i32 %9 to i64
  %11 = load i64, i64* %PC
  %12 = add i64 %11, 7
  store i64 %12, i64* %PC
  %13 = load i32, i32* inttoptr (i64 6312016 to i32*)
  %14 = sub i32 %9, %13
  %15 = icmp ult i32 %9, %13
  %16 = zext i1 %15 to i8
  %17 = getelementptr inbounds %struct.State, %struct.State* %0, i64 0, i32 2, i32 1
  store i8 %16, i8* %17, align 1
  %18 = and i32 %14, 255
  %19 = call i32 @llvm.ctpop.i32(i32 %18)
  %20 = trunc i32 %19 to i8
  %21 = and i8 %20, 1
  %22 = xor i8 %21, 1
  %23 = getelementptr inbounds %struct.State, %struct.State* %0, i64 0, i32 2, i32 3
  store i8 %22, i8* %23, align 1
  %24 = xor i32 %13, %9
  %25 = xor i32 %24, %14
  %26 = lshr i32 %25, 4
  %27 = trunc i32 %26 to i8
  %28 = and i8 %27, 1
  %29 = getelementptr inbounds %struct.State, %struct.State* %0, i64 0, i32 2, i32 5
  store i8 %28, i8* %29, align 1
  %30 = icmp eq i32 %14, 0
  %31 = zext i1 %30 to i8
  %32 = getelementptr inbounds %struct.State, %struct.State* %0, i64 0, i32 2, i32 7
  store i8 %31, i8* %32, align 1
  %33 = lshr i32 %14, 31
  %34 = trunc i32 %33 to i8
  %35 = getelementptr inbounds %struct.State, %struct.State* %0, i64 0, i32 2, i32 9
  store i8 %34, i8* %35, align 1
  %36 = lshr i32 %9, 31
  %37 = lshr i32 %13, 31
  %38 = xor i32 %37, %36
  %39 = xor i32 %33, %36
  %40 = add i32 %39, %38
  %41 = icmp eq i32 %40, 2
  %42 = zext i1 %41 to i8
  %43 = getelementptr inbounds %struct.State, %struct.State* %0, i64 0, i32 2, i32 13
  store i8 %42, i8* %43, align 1
  ret %struct.Memory* %2
}

define %struct.Memory* @routine_jge_.L_401a4c(%struct.State* dereferenceable(3376), i64, %struct.Memory*, i8* %BRANCH_TAKEN, i64 %rel_off1, i64 %rel_off2, i64 %rel_off3) {
block_400488:
  %3 = getelementptr inbounds %struct.State, %struct.State* %0, i32 0, i32 6
  %4 = getelementptr inbounds %struct.GPR, %struct.GPR* %3, i32 0, i32 33
  %5 = getelementptr inbounds %struct.Reg, %struct.Reg* %4, i32 0, i32 0
  %PC = bitcast %union.anon* %5 to i64*
  %6 = load i64, i64* %PC
  %7 = add i64 %6, %rel_off1
  %8 = load i64, i64* %PC
  %9 = add i64 %8, %rel_off2
  %10 = load i64, i64* %PC
  %11 = add i64 %10, %rel_off3
  store i64 %11, i64* %PC
  %12 = getelementptr inbounds %struct.State, %struct.State* %0, i64 0, i32 2, i32 9
  %13 = load i8, i8* %12, align 1
  %14 = icmp ne i8 %13, 0
  %15 = getelementptr inbounds %struct.State, %struct.State* %0, i64 0, i32 2, i32 13
  %16 = load i8, i8* %15, align 1
  %17 = icmp ne i8 %16, 0
  %18 = xor i1 %14, %17
  %19 = xor i1 %18, true
  %20 = zext i1 %19 to i8
  store i8 %20, i8* %BRANCH_TAKEN, align 1
  %21 = getelementptr inbounds %struct.State, %struct.State* %0, i64 0, i32 6, i32 33, i32 0, i32 0
  %22 = select i1 %18, i64 %9, i64 %7
  store i64 %22, i64* %21, align 8
  ret %struct.Memory* %2
}

define %struct.Memory* @routine_movq_MINUS0x8__rbp____rax(%struct.State* dereferenceable(3376), i64, %struct.Memory*) {
block_400488:
  %3 = getelementptr inbounds %struct.State, %struct.State* %0, i32 0, i32 6
  %4 = getelementptr inbounds %struct.GPR, %struct.GPR* %3, i32 0, i32 33
  %5 = getelementptr inbounds %struct.Reg, %struct.Reg* %4, i32 0, i32 0
  %PC = bitcast %union.anon* %5 to i64*
  %6 = getelementptr inbounds %struct.State, %struct.State* %0, i32 0, i32 6
  %7 = getelementptr inbounds %struct.GPR, %struct.GPR* %6, i32 0, i32 1
  %8 = getelementptr inbounds %struct.Reg, %struct.Reg* %7, i32 0, i32 0
  %RAX = bitcast %union.anon* %8 to i64*
  %9 = getelementptr inbounds %struct.State, %struct.State* %0, i32 0, i32 6
  %10 = getelementptr inbounds %struct.GPR, %struct.GPR* %9, i32 0, i32 15
  %11 = getelementptr inbounds %struct.Reg, %struct.Reg* %10, i32 0, i32 0
  %RBP = bitcast %union.anon* %11 to i64*
  %12 = load i64, i64* %RBP
  %13 = sub i64 %12, 8
  %14 = load i64, i64* %PC
  %15 = add i64 %14, 4
  store i64 %15, i64* %PC
  %16 = inttoptr i64 %13 to i64*
  %17 = load i64, i64* %16
  store i64 %17, i64* %RAX, align 8
  ret %struct.Memory* %2
}

define %struct.Memory* @routine_movq__rax__MINUS0x28__rbp_(%struct.State* dereferenceable(3376), i64, %struct.Memory*) {
block_400488:
  %3 = getelementptr inbounds %struct.State, %struct.State* %0, i32 0, i32 6
  %4 = getelementptr inbounds %struct.GPR, %struct.GPR* %3, i32 0, i32 33
  %5 = getelementptr inbounds %struct.Reg, %struct.Reg* %4, i32 0, i32 0
  %PC = bitcast %union.anon* %5 to i64*
  %6 = getelementptr inbounds %struct.State, %struct.State* %0, i32 0, i32 6
  %7 = getelementptr inbounds %struct.GPR, %struct.GPR* %6, i32 0, i32 1
  %8 = getelementptr inbounds %struct.Reg, %struct.Reg* %7, i32 0, i32 0
  %RAX = bitcast %union.anon* %8 to i64*
  %9 = getelementptr inbounds %struct.State, %struct.State* %0, i32 0, i32 6
  %10 = getelementptr inbounds %struct.GPR, %struct.GPR* %9, i32 0, i32 15
  %11 = getelementptr inbounds %struct.Reg, %struct.Reg* %10, i32 0, i32 0
  %RBP = bitcast %union.anon* %11 to i64*
  %12 = load i64, i64* %RBP
  %13 = sub i64 %12, 40
  %14 = load i64, i64* %RAX
  %15 = load i64, i64* %PC
  %16 = add i64 %15, 4
  store i64 %16, i64* %PC
  %17 = inttoptr i64 %13 to i64*
  store i64 %14, i64* %17
  ret %struct.Memory* %2
}

define %struct.Memory* @routine_movq_MINUS0x10__rbp____rax(%struct.State* dereferenceable(3376), i64, %struct.Memory*) {
block_400488:
  %3 = getelementptr inbounds %struct.State, %struct.State* %0, i32 0, i32 6
  %4 = getelementptr inbounds %struct.GPR, %struct.GPR* %3, i32 0, i32 33
  %5 = getelementptr inbounds %struct.Reg, %struct.Reg* %4, i32 0, i32 0
  %PC = bitcast %union.anon* %5 to i64*
  %6 = getelementptr inbounds %struct.State, %struct.State* %0, i32 0, i32 6
  %7 = getelementptr inbounds %struct.GPR, %struct.GPR* %6, i32 0, i32 1
  %8 = getelementptr inbounds %struct.Reg, %struct.Reg* %7, i32 0, i32 0
  %RAX = bitcast %union.anon* %8 to i64*
  %9 = getelementptr inbounds %struct.State, %struct.State* %0, i32 0, i32 6
  %10 = getelementptr inbounds %struct.GPR, %struct.GPR* %9, i32 0, i32 15
  %11 = getelementptr inbounds %struct.Reg, %struct.Reg* %10, i32 0, i32 0
  %RBP = bitcast %union.anon* %11 to i64*
  %12 = load i64, i64* %RBP
  %13 = sub i64 %12, 16
  %14 = load i64, i64* %PC
  %15 = add i64 %14, 4
  store i64 %15, i64* %PC
  %16 = inttoptr i64 %13 to i64*
  %17 = load i64, i64* %16
  store i64 %17, i64* %RAX, align 8
  ret %struct.Memory* %2
}

define %struct.Memory* @routine_movq__rax__MINUS0x30__rbp_(%struct.State* dereferenceable(3376), i64, %struct.Memory*) {
block_400488:
  %3 = getelementptr inbounds %struct.State, %struct.State* %0, i32 0, i32 6
  %4 = getelementptr inbounds %struct.GPR, %struct.GPR* %3, i32 0, i32 33
  %5 = getelementptr inbounds %struct.Reg, %struct.Reg* %4, i32 0, i32 0
  %PC = bitcast %union.anon* %5 to i64*
  %6 = getelementptr inbounds %struct.State, %struct.State* %0, i32 0, i32 6
  %7 = getelementptr inbounds %struct.GPR, %struct.GPR* %6, i32 0, i32 1
  %8 = getelementptr inbounds %struct.Reg, %struct.Reg* %7, i32 0, i32 0
  %RAX = bitcast %union.anon* %8 to i64*
  %9 = getelementptr inbounds %struct.State, %struct.State* %0, i32 0, i32 6
  %10 = getelementptr inbounds %struct.GPR, %struct.GPR* %9, i32 0, i32 15
  %11 = getelementptr inbounds %struct.Reg, %struct.Reg* %10, i32 0, i32 0
  %RBP = bitcast %union.anon* %11 to i64*
  %12 = load i64, i64* %RBP
  %13 = sub i64 %12, 48
  %14 = load i64, i64* %RAX
  %15 = load i64, i64* %PC
  %16 = add i64 %15, 4
  store i64 %16, i64* %PC
  %17 = inttoptr i64 %13 to i64*
  store i64 %14, i64* %17
  ret %struct.Memory* %2
}

define %struct.Memory* @routine_movq_MINUS0x18__rbp____rax(%struct.State* dereferenceable(3376), i64, %struct.Memory*) {
block_400488:
  %3 = getelementptr inbounds %struct.State, %struct.State* %0, i32 0, i32 6
  %4 = getelementptr inbounds %struct.GPR, %struct.GPR* %3, i32 0, i32 33
  %5 = getelementptr inbounds %struct.Reg, %struct.Reg* %4, i32 0, i32 0
  %PC = bitcast %union.anon* %5 to i64*
  %6 = getelementptr inbounds %struct.State, %struct.State* %0, i32 0, i32 6
  %7 = getelementptr inbounds %struct.GPR, %struct.GPR* %6, i32 0, i32 1
  %8 = getelementptr inbounds %struct.Reg, %struct.Reg* %7, i32 0, i32 0
  %RAX = bitcast %union.anon* %8 to i64*
  %9 = getelementptr inbounds %struct.State, %struct.State* %0, i32 0, i32 6
  %10 = getelementptr inbounds %struct.GPR, %struct.GPR* %9, i32 0, i32 15
  %11 = getelementptr inbounds %struct.Reg, %struct.Reg* %10, i32 0, i32 0
  %RBP = bitcast %union.anon* %11 to i64*
  %12 = load i64, i64* %RBP
  %13 = sub i64 %12, 24
  %14 = load i64, i64* %PC
  %15 = add i64 %14, 4
  store i64 %15, i64* %PC
  %16 = inttoptr i64 %13 to i64*
  %17 = load i64, i64* %16
  store i64 %17, i64* %RAX, align 8
  ret %struct.Memory* %2
}

define %struct.Memory* @routine_movq__rax__MINUS0x38__rbp_(%struct.State* dereferenceable(3376), i64, %struct.Memory*) {
block_400488:
  %3 = getelementptr inbounds %struct.State, %struct.State* %0, i32 0, i32 6
  %4 = getelementptr inbounds %struct.GPR, %struct.GPR* %3, i32 0, i32 33
  %5 = getelementptr inbounds %struct.Reg, %struct.Reg* %4, i32 0, i32 0
  %PC = bitcast %union.anon* %5 to i64*
  %6 = getelementptr inbounds %struct.State, %struct.State* %0, i32 0, i32 6
  %7 = getelementptr inbounds %struct.GPR, %struct.GPR* %6, i32 0, i32 1
  %8 = getelementptr inbounds %struct.Reg, %struct.Reg* %7, i32 0, i32 0
  %RAX = bitcast %union.anon* %8 to i64*
  %9 = getelementptr inbounds %struct.State, %struct.State* %0, i32 0, i32 6
  %10 = getelementptr inbounds %struct.GPR, %struct.GPR* %9, i32 0, i32 15
  %11 = getelementptr inbounds %struct.Reg, %struct.Reg* %10, i32 0, i32 0
  %RBP = bitcast %union.anon* %11 to i64*
  %12 = load i64, i64* %RBP
  %13 = sub i64 %12, 56
  %14 = load i64, i64* %RAX
  %15 = load i64, i64* %PC
  %16 = add i64 %15, 4
  store i64 %16, i64* %PC
  %17 = inttoptr i64 %13 to i64*
  store i64 %14, i64* %17
  ret %struct.Memory* %2
}

define %struct.Memory* @routine_movq_MINUS0x28__rbp____rdi(%struct.State* dereferenceable(3376), i64, %struct.Memory*) {
block_400488:
  %3 = getelementptr inbounds %struct.State, %struct.State* %0, i32 0, i32 6
  %4 = getelementptr inbounds %struct.GPR, %struct.GPR* %3, i32 0, i32 33
  %5 = getelementptr inbounds %struct.Reg, %struct.Reg* %4, i32 0, i32 0
  %PC = bitcast %union.anon* %5 to i64*
  %6 = getelementptr inbounds %struct.State, %struct.State* %0, i32 0, i32 6
  %7 = getelementptr inbounds %struct.GPR, %struct.GPR* %6, i32 0, i32 11
  %8 = getelementptr inbounds %struct.Reg, %struct.Reg* %7, i32 0, i32 0
  %RDI = bitcast %union.anon* %8 to i64*
  %9 = getelementptr inbounds %struct.State, %struct.State* %0, i32 0, i32 6
  %10 = getelementptr inbounds %struct.GPR, %struct.GPR* %9, i32 0, i32 15
  %11 = getelementptr inbounds %struct.Reg, %struct.Reg* %10, i32 0, i32 0
  %RBP = bitcast %union.anon* %11 to i64*
  %12 = load i64, i64* %RBP
  %13 = sub i64 %12, 40
  %14 = load i64, i64* %PC
  %15 = add i64 %14, 4
  store i64 %15, i64* %PC
  %16 = inttoptr i64 %13 to i64*
  %17 = load i64, i64* %16
  store i64 %17, i64* %RDI, align 8
  ret %struct.Memory* %2
}

define %struct.Memory* @routine_movq_MINUS0x30__rbp____rsi(%struct.State* dereferenceable(3376), i64, %struct.Memory*) {
block_400488:
  %3 = getelementptr inbounds %struct.State, %struct.State* %0, i32 0, i32 6
  %4 = getelementptr inbounds %struct.GPR, %struct.GPR* %3, i32 0, i32 33
  %5 = getelementptr inbounds %struct.Reg, %struct.Reg* %4, i32 0, i32 0
  %PC = bitcast %union.anon* %5 to i64*
  %6 = getelementptr inbounds %struct.State, %struct.State* %0, i32 0, i32 6
  %7 = getelementptr inbounds %struct.GPR, %struct.GPR* %6, i32 0, i32 9
  %8 = getelementptr inbounds %struct.Reg, %struct.Reg* %7, i32 0, i32 0
  %RSI = bitcast %union.anon* %8 to i64*
  %9 = getelementptr inbounds %struct.State, %struct.State* %0, i32 0, i32 6
  %10 = getelementptr inbounds %struct.GPR, %struct.GPR* %9, i32 0, i32 15
  %11 = getelementptr inbounds %struct.Reg, %struct.Reg* %10, i32 0, i32 0
  %RBP = bitcast %union.anon* %11 to i64*
  %12 = load i64, i64* %RBP
  %13 = sub i64 %12, 48
  %14 = load i64, i64* %PC
  %15 = add i64 %14, 4
  store i64 %15, i64* %PC
  %16 = inttoptr i64 %13 to i64*
  %17 = load i64, i64* %16
  store i64 %17, i64* %RSI, align 8
  ret %struct.Memory* %2
}

define %struct.Memory* @routine_movsd_MINUS0x38__rbp____xmm0(%struct.State* dereferenceable(3376), i64, %struct.Memory*) {
block_400488:
  %3 = getelementptr inbounds %struct.State, %struct.State* %0, i32 0, i32 6
  %4 = getelementptr inbounds %struct.GPR, %struct.GPR* %3, i32 0, i32 33
  %5 = getelementptr inbounds %struct.Reg, %struct.Reg* %4, i32 0, i32 0
  %PC = bitcast %union.anon* %5 to i64*
  %6 = getelementptr inbounds %struct.State, %struct.State* %0, i32 0, i32 6
  %7 = getelementptr inbounds %struct.GPR, %struct.GPR* %6, i32 0, i32 15
  %8 = getelementptr inbounds %struct.Reg, %struct.Reg* %7, i32 0, i32 0
  %RBP = bitcast %union.anon* %8 to i64*
  %9 = getelementptr inbounds %struct.State, %struct.State* %0, i32 0, i32 1
  %10 = getelementptr inbounds [32 x %union.VectorReg], [32 x %union.VectorReg]* %9, i64 0, i64 0
  %YMM0 = bitcast %union.VectorReg* %10 to %"class.std::bitset"*
  %11 = bitcast %"class.std::bitset"* %YMM0 to i8*
  %12 = load i64, i64* %RBP
  %13 = sub i64 %12, 56
  %14 = load i64, i64* %PC
  %15 = add i64 %14, 5
  store i64 %15, i64* %PC
  %16 = inttoptr i64 %13 to double*
  %17 = load double, double* %16
  %18 = bitcast i8* %11 to double*
  store double %17, double* %18, align 1
  %19 = getelementptr inbounds i8, i8* %11, i64 8
  %20 = bitcast i8* %19 to double*
  store double 0.000000e+00, double* %20, align 1
  ret %struct.Memory* %2
}

define %struct.Memory* @routine_callq_._Z10accumulateI16reverse_iteratorIS0_IP6DoubleS1_ES1_ES1_ET0_T_S6_S5_(%struct.State* dereferenceable(3376), i64, %struct.Memory*, i64 %rel_off1, i64 %rel_off2, i64 %rel_off3) {
block_400488:
  %3 = getelementptr inbounds %struct.State, %struct.State* %0, i32 0, i32 6
  %4 = getelementptr inbounds %struct.GPR, %struct.GPR* %3, i32 0, i32 33
  %5 = getelementptr inbounds %struct.Reg, %struct.Reg* %4, i32 0, i32 0
  %PC = bitcast %union.anon* %5 to i64*
  %6 = load i64, i64* %PC
  %7 = add i64 %6, %rel_off1
  %8 = load i64, i64* %PC
  %9 = add i64 %8, %rel_off2
  %10 = load i64, i64* %PC
  %11 = add i64 %10, %rel_off3
  store i64 %11, i64* %PC
  %12 = getelementptr inbounds %struct.State, %struct.State* %0, i64 0, i32 6, i32 13, i32 0, i32 0
  %13 = load i64, i64* %12, align 8
  %14 = add i64 %13, -8
  %15 = inttoptr i64 %14 to i64*
  store i64 %9, i64* %15
  store i64 %14, i64* %12, align 8
  %16 = getelementptr inbounds %struct.State, %struct.State* %0, i64 0, i32 6, i32 33, i32 0, i32 0
  store i64 %7, i64* %16, align 8
  ret %struct.Memory* %2
}

define %struct.Memory* @routine_leaq_MINUS0x40__rbp____rdi(%struct.State* dereferenceable(3376), i64, %struct.Memory*) {
block_400488:
  %3 = getelementptr inbounds %struct.State, %struct.State* %0, i32 0, i32 6
  %4 = getelementptr inbounds %struct.GPR, %struct.GPR* %3, i32 0, i32 33
  %5 = getelementptr inbounds %struct.Reg, %struct.Reg* %4, i32 0, i32 0
  %PC = bitcast %union.anon* %5 to i64*
  %6 = getelementptr inbounds %struct.State, %struct.State* %0, i32 0, i32 6
  %7 = getelementptr inbounds %struct.GPR, %struct.GPR* %6, i32 0, i32 11
  %8 = getelementptr inbounds %struct.Reg, %struct.Reg* %7, i32 0, i32 0
  %RDI = bitcast %union.anon* %8 to i64*
  %9 = getelementptr inbounds %struct.State, %struct.State* %0, i32 0, i32 6
  %10 = getelementptr inbounds %struct.GPR, %struct.GPR* %9, i32 0, i32 15
  %11 = getelementptr inbounds %struct.Reg, %struct.Reg* %10, i32 0, i32 0
  %RBP = bitcast %union.anon* %11 to i64*
  %12 = load i64, i64* %RBP
  %13 = sub i64 %12, 64
  %14 = load i64, i64* %PC
  %15 = add i64 %14, 4
  store i64 %15, i64* %PC
  store i64 %13, i64* %RDI, align 8
  ret %struct.Memory* %2
}

define %struct.Memory* @routine_movsd__xmm0__MINUS0x40__rbp_(%struct.State* dereferenceable(3376), i64, %struct.Memory*) {
block_400488:
  %3 = getelementptr inbounds %struct.State, %struct.State* %0, i32 0, i32 6
  %4 = getelementptr inbounds %struct.GPR, %struct.GPR* %3, i32 0, i32 33
  %5 = getelementptr inbounds %struct.Reg, %struct.Reg* %4, i32 0, i32 0
  %PC = bitcast %union.anon* %5 to i64*
  %6 = getelementptr inbounds %struct.State, %struct.State* %0, i32 0, i32 6
  %7 = getelementptr inbounds %struct.GPR, %struct.GPR* %6, i32 0, i32 15
  %8 = getelementptr inbounds %struct.Reg, %struct.Reg* %7, i32 0, i32 0
  %RBP = bitcast %union.anon* %8 to i64*
  %9 = getelementptr inbounds %struct.State, %struct.State* %0, i32 0, i32 1
  %10 = getelementptr inbounds [32 x %union.VectorReg], [32 x %union.VectorReg]* %9, i64 0, i64 0
  %XMM0 = bitcast %union.VectorReg* %10 to %union.vec128_t*
  %11 = load i64, i64* %RBP
  %12 = sub i64 %11, 64
  %13 = bitcast %union.vec128_t* %XMM0 to i8*
  %14 = load i64, i64* %PC
  %15 = add i64 %14, 5
  store i64 %15, i64* %PC
  %16 = bitcast i8* %13 to double*
  %17 = load double, double* %16, align 1
  %18 = inttoptr i64 %12 to double*
  store double %17, double* %18
  ret %struct.Memory* %2
}

define %struct.Memory* @routine_callq_._ZN6DoublecvdEv(%struct.State* dereferenceable(3376), i64, %struct.Memory*, i64 %rel_off1, i64 %rel_off2, i64 %rel_off3) {
block_400488:
  %3 = getelementptr inbounds %struct.State, %struct.State* %0, i32 0, i32 6
  %4 = getelementptr inbounds %struct.GPR, %struct.GPR* %3, i32 0, i32 33
  %5 = getelementptr inbounds %struct.Reg, %struct.Reg* %4, i32 0, i32 0
  %PC = bitcast %union.anon* %5 to i64*
  %6 = load i64, i64* %PC
  %7 = add i64 %6, %rel_off1
  %8 = load i64, i64* %PC
  %9 = add i64 %8, %rel_off2
  %10 = load i64, i64* %PC
  %11 = add i64 %10, %rel_off3
  store i64 %11, i64* %PC
  %12 = getelementptr inbounds %struct.State, %struct.State* %0, i64 0, i32 6, i32 13, i32 0, i32 0
  %13 = load i64, i64* %12, align 8
  %14 = add i64 %13, -8
  %15 = inttoptr i64 %14 to i64*
  store i64 %9, i64* %15
  store i64 %14, i64* %12, align 8
  %16 = getelementptr inbounds %struct.State, %struct.State* %0, i64 0, i32 6, i32 33, i32 0, i32 0
  store i64 %7, i64* %16, align 8
  ret %struct.Memory* %2
}

define %struct.Memory* @routine_callq_._Z5checkd(%struct.State* dereferenceable(3376), i64, %struct.Memory*, i64 %rel_off1, i64 %rel_off2, i64 %rel_off3) {
block_400488:
  %3 = getelementptr inbounds %struct.State, %struct.State* %0, i32 0, i32 6
  %4 = getelementptr inbounds %struct.GPR, %struct.GPR* %3, i32 0, i32 33
  %5 = getelementptr inbounds %struct.Reg, %struct.Reg* %4, i32 0, i32 0
  %PC = bitcast %union.anon* %5 to i64*
  %6 = load i64, i64* %PC
  %7 = add i64 %6, %rel_off1
  %8 = load i64, i64* %PC
  %9 = add i64 %8, %rel_off2
  %10 = load i64, i64* %PC
  %11 = add i64 %10, %rel_off3
  store i64 %11, i64* %PC
  %12 = getelementptr inbounds %struct.State, %struct.State* %0, i64 0, i32 6, i32 13, i32 0, i32 0
  %13 = load i64, i64* %12, align 8
  %14 = add i64 %13, -8
  %15 = inttoptr i64 %14 to i64*
  store i64 %9, i64* %15
  store i64 %14, i64* %12, align 8
  %16 = getelementptr inbounds %struct.State, %struct.State* %0, i64 0, i32 6, i32 33, i32 0, i32 0
  store i64 %7, i64* %16, align 8
  ret %struct.Memory* %2
}

define %struct.Memory* @routine_addl__0x1___eax(%struct.State* dereferenceable(3376), i64, %struct.Memory*) {
block_400488:
  %3 = getelementptr inbounds %struct.State, %struct.State* %0, i32 0, i32 6
  %4 = getelementptr inbounds %struct.GPR, %struct.GPR* %3, i32 0, i32 33
  %5 = getelementptr inbounds %struct.Reg, %struct.Reg* %4, i32 0, i32 0
  %PC = bitcast %union.anon* %5 to i64*
  %6 = getelementptr inbounds %struct.State, %struct.State* %0, i32 0, i32 6
  %7 = getelementptr inbounds %struct.GPR, %struct.GPR* %6, i32 0, i32 1
  %8 = getelementptr inbounds %struct.Reg, %struct.Reg* %7, i32 0, i32 0
  %RAX = bitcast %union.anon* %8 to i64*
  %9 = load i64, i64* %RAX
  %10 = load i64, i64* %PC
  %11 = add i64 %10, 3
  store i64 %11, i64* %PC
  %12 = trunc i64 %9 to i32
  %13 = add i32 1, %12
  %14 = zext i32 %13 to i64
  store i64 %14, i64* %RAX, align 8
  %15 = icmp ult i32 %13, %12
  %16 = icmp ult i32 %13, 1
  %17 = or i1 %15, %16
  %18 = zext i1 %17 to i8
  %19 = getelementptr inbounds %struct.State, %struct.State* %0, i64 0, i32 2, i32 1
  store i8 %18, i8* %19, align 1
  %20 = and i32 %13, 255
  %21 = call i32 @llvm.ctpop.i32(i32 %20)
  %22 = trunc i32 %21 to i8
  %23 = and i8 %22, 1
  %24 = xor i8 %23, 1
  %25 = getelementptr inbounds %struct.State, %struct.State* %0, i64 0, i32 2, i32 3
  store i8 %24, i8* %25, align 1
  %26 = xor i64 1, %9
  %27 = trunc i64 %26 to i32
  %28 = xor i32 %27, %13
  %29 = lshr i32 %28, 4
  %30 = trunc i32 %29 to i8
  %31 = and i8 %30, 1
  %32 = getelementptr inbounds %struct.State, %struct.State* %0, i64 0, i32 2, i32 5
  store i8 %31, i8* %32, align 1
  %33 = icmp eq i32 %13, 0
  %34 = zext i1 %33 to i8
  %35 = getelementptr inbounds %struct.State, %struct.State* %0, i64 0, i32 2, i32 7
  store i8 %34, i8* %35, align 1
  %36 = lshr i32 %13, 31
  %37 = trunc i32 %36 to i8
  %38 = getelementptr inbounds %struct.State, %struct.State* %0, i64 0, i32 2, i32 9
  store i8 %37, i8* %38, align 1
  %39 = lshr i32 %12, 31
  %40 = xor i32 %36, %39
  %41 = add i32 %40, %36
  %42 = icmp eq i32 %41, 2
  %43 = zext i1 %42 to i8
  %44 = getelementptr inbounds %struct.State, %struct.State* %0, i64 0, i32 2, i32 13
  store i8 %43, i8* %44, align 1
  ret %struct.Memory* %2
}

define %struct.Memory* @routine_movl__eax__MINUS0x1c__rbp_(%struct.State* dereferenceable(3376), i64, %struct.Memory*) {
block_400488:
  %3 = getelementptr inbounds %struct.State, %struct.State* %0, i32 0, i32 6
  %4 = getelementptr inbounds %struct.GPR, %struct.GPR* %3, i32 0, i32 33
  %5 = getelementptr inbounds %struct.Reg, %struct.Reg* %4, i32 0, i32 0
  %PC = bitcast %union.anon* %5 to i64*
  %6 = getelementptr inbounds %struct.State, %struct.State* %0, i32 0, i32 6
  %7 = getelementptr inbounds %struct.GPR, %struct.GPR* %6, i32 0, i32 1
  %8 = getelementptr inbounds %struct.Reg, %struct.Reg* %7, i32 0, i32 0
  %EAX = bitcast %union.anon* %8 to i32*
  %9 = getelementptr inbounds %struct.State, %struct.State* %0, i32 0, i32 6
  %10 = getelementptr inbounds %struct.GPR, %struct.GPR* %9, i32 0, i32 15
  %11 = getelementptr inbounds %struct.Reg, %struct.Reg* %10, i32 0, i32 0
  %RBP = bitcast %union.anon* %11 to i64*
  %12 = load i64, i64* %RBP
  %13 = sub i64 %12, 28
  %14 = load i32, i32* %EAX
  %15 = zext i32 %14 to i64
  %16 = load i64, i64* %PC
  %17 = add i64 %16, 3
  store i64 %17, i64* %PC
  %18 = inttoptr i64 %13 to i32*
  store i32 %14, i32* %18
  ret %struct.Memory* %2
}

define %struct.Memory* @routine_jmpq_.L_4019f1(%struct.State* dereferenceable(3376), i64, %struct.Memory*, i64 %rel_off1, i64 %rel_off2) {
block_400488:
  %3 = getelementptr inbounds %struct.State, %struct.State* %0, i32 0, i32 6
  %4 = getelementptr inbounds %struct.GPR, %struct.GPR* %3, i32 0, i32 33
  %5 = getelementptr inbounds %struct.Reg, %struct.Reg* %4, i32 0, i32 0
  %PC = bitcast %union.anon* %5 to i64*
  %6 = load i64, i64* %PC
  %7 = add i64 %6, %rel_off1
  %8 = load i64, i64* %PC
  %9 = add i64 %8, %rel_off2
  store i64 %9, i64* %PC
  %10 = getelementptr inbounds %struct.State, %struct.State* %0, i64 0, i32 6, i32 33, i32 0, i32 0
  store i64 %7, i64* %10, align 8
  ret %struct.Memory* %2
}

define %struct.Memory* @routine_callq_._Z5timerv(%struct.State* dereferenceable(3376), i64, %struct.Memory*, i64 %rel_off1, i64 %rel_off2, i64 %rel_off3) {
block_400488:
  %3 = getelementptr inbounds %struct.State, %struct.State* %0, i32 0, i32 6
  %4 = getelementptr inbounds %struct.GPR, %struct.GPR* %3, i32 0, i32 33
  %5 = getelementptr inbounds %struct.Reg, %struct.Reg* %4, i32 0, i32 0
  %PC = bitcast %union.anon* %5 to i64*
  %6 = load i64, i64* %PC
  %7 = add i64 %6, %rel_off1
  %8 = load i64, i64* %PC
  %9 = add i64 %8, %rel_off2
  %10 = load i64, i64* %PC
  %11 = add i64 %10, %rel_off3
  store i64 %11, i64* %PC
  %12 = getelementptr inbounds %struct.State, %struct.State* %0, i64 0, i32 6, i32 13, i32 0, i32 0
  %13 = load i64, i64* %12, align 8
  %14 = add i64 %13, -8
  %15 = inttoptr i64 %14 to i64*
  store i64 %9, i64* %15
  store i64 %14, i64* %12, align 8
  %16 = getelementptr inbounds %struct.State, %struct.State* %0, i64 0, i32 6, i32 33, i32 0, i32 0
  store i64 %7, i64* %16, align 8
  ret %struct.Memory* %2
}

define %struct.Memory* @routine_movl_0x605090___eax(%struct.State* dereferenceable(3376), i64, %struct.Memory*) {
block_400488:
  %3 = getelementptr inbounds %struct.State, %struct.State* %0, i32 0, i32 6
  %4 = getelementptr inbounds %struct.GPR, %struct.GPR* %3, i32 0, i32 33
  %5 = getelementptr inbounds %struct.Reg, %struct.Reg* %4, i32 0, i32 0
  %PC = bitcast %union.anon* %5 to i64*
  %6 = getelementptr inbounds %struct.State, %struct.State* %0, i32 0, i32 6
  %7 = getelementptr inbounds %struct.GPR, %struct.GPR* %6, i32 0, i32 1
  %8 = getelementptr inbounds %struct.Reg, %struct.Reg* %7, i32 0, i32 0
  %RAX = bitcast %union.anon* %8 to i64*
  %9 = load i64, i64* %PC
  %10 = add i64 %9, 7
  store i64 %10, i64* %PC
  %11 = load i32, i32* inttoptr (i64 6312080 to i32*)
  %12 = zext i32 %11 to i64
  store i64 %12, i64* %RAX, align 8
  ret %struct.Memory* %2
}

define %struct.Memory* @routine_movl__eax___ecx(%struct.State* dereferenceable(3376), i64, %struct.Memory*) {
block_400488:
  %3 = getelementptr inbounds %struct.State, %struct.State* %0, i32 0, i32 6
  %4 = getelementptr inbounds %struct.GPR, %struct.GPR* %3, i32 0, i32 33
  %5 = getelementptr inbounds %struct.Reg, %struct.Reg* %4, i32 0, i32 0
  %PC = bitcast %union.anon* %5 to i64*
  %6 = getelementptr inbounds %struct.State, %struct.State* %0, i32 0, i32 6
  %7 = getelementptr inbounds %struct.GPR, %struct.GPR* %6, i32 0, i32 1
  %8 = getelementptr inbounds %struct.Reg, %struct.Reg* %7, i32 0, i32 0
  %EAX = bitcast %union.anon* %8 to i32*
  %9 = getelementptr inbounds %struct.State, %struct.State* %0, i32 0, i32 6
  %10 = getelementptr inbounds %struct.GPR, %struct.GPR* %9, i32 0, i32 5
  %11 = getelementptr inbounds %struct.Reg, %struct.Reg* %10, i32 0, i32 0
  %RCX = bitcast %union.anon* %11 to i64*
  %12 = load i32, i32* %EAX
  %13 = zext i32 %12 to i64
  %14 = load i64, i64* %PC
  %15 = add i64 %14, 2
  store i64 %15, i64* %PC
  %16 = and i64 %13, 4294967295
  store i64 %16, i64* %RCX, align 8
  ret %struct.Memory* %2
}

define %struct.Memory* @routine_addl__0x1___ecx(%struct.State* dereferenceable(3376), i64, %struct.Memory*) {
block_400488:
  %3 = getelementptr inbounds %struct.State, %struct.State* %0, i32 0, i32 6
  %4 = getelementptr inbounds %struct.GPR, %struct.GPR* %3, i32 0, i32 33
  %5 = getelementptr inbounds %struct.Reg, %struct.Reg* %4, i32 0, i32 0
  %PC = bitcast %union.anon* %5 to i64*
  %6 = getelementptr inbounds %struct.State, %struct.State* %0, i32 0, i32 6
  %7 = getelementptr inbounds %struct.GPR, %struct.GPR* %6, i32 0, i32 5
  %8 = getelementptr inbounds %struct.Reg, %struct.Reg* %7, i32 0, i32 0
  %RCX = bitcast %union.anon* %8 to i64*
  %9 = load i64, i64* %RCX
  %10 = load i64, i64* %PC
  %11 = add i64 %10, 3
  store i64 %11, i64* %PC
  %12 = trunc i64 %9 to i32
  %13 = add i32 1, %12
  %14 = zext i32 %13 to i64
  store i64 %14, i64* %RCX, align 8
  %15 = icmp ult i32 %13, %12
  %16 = icmp ult i32 %13, 1
  %17 = or i1 %15, %16
  %18 = zext i1 %17 to i8
  %19 = getelementptr inbounds %struct.State, %struct.State* %0, i64 0, i32 2, i32 1
  store i8 %18, i8* %19, align 1
  %20 = and i32 %13, 255
  %21 = call i32 @llvm.ctpop.i32(i32 %20)
  %22 = trunc i32 %21 to i8
  %23 = and i8 %22, 1
  %24 = xor i8 %23, 1
  %25 = getelementptr inbounds %struct.State, %struct.State* %0, i64 0, i32 2, i32 3
  store i8 %24, i8* %25, align 1
  %26 = xor i64 1, %9
  %27 = trunc i64 %26 to i32
  %28 = xor i32 %27, %13
  %29 = lshr i32 %28, 4
  %30 = trunc i32 %29 to i8
  %31 = and i8 %30, 1
  %32 = getelementptr inbounds %struct.State, %struct.State* %0, i64 0, i32 2, i32 5
  store i8 %31, i8* %32, align 1
  %33 = icmp eq i32 %13, 0
  %34 = zext i1 %33 to i8
  %35 = getelementptr inbounds %struct.State, %struct.State* %0, i64 0, i32 2, i32 7
  store i8 %34, i8* %35, align 1
  %36 = lshr i32 %13, 31
  %37 = trunc i32 %36 to i8
  %38 = getelementptr inbounds %struct.State, %struct.State* %0, i64 0, i32 2, i32 9
  store i8 %37, i8* %38, align 1
  %39 = lshr i32 %12, 31
  %40 = xor i32 %36, %39
  %41 = add i32 %40, %36
  %42 = icmp eq i32 %41, 2
  %43 = zext i1 %42 to i8
  %44 = getelementptr inbounds %struct.State, %struct.State* %0, i64 0, i32 2, i32 13
  store i8 %43, i8* %44, align 1
  ret %struct.Memory* %2
}

define %struct.Memory* @routine_movl__ecx__0x605090(%struct.State* dereferenceable(3376), i64, %struct.Memory*) {
block_400488:
  %3 = getelementptr inbounds %struct.State, %struct.State* %0, i32 0, i32 6
  %4 = getelementptr inbounds %struct.GPR, %struct.GPR* %3, i32 0, i32 33
  %5 = getelementptr inbounds %struct.Reg, %struct.Reg* %4, i32 0, i32 0
  %PC = bitcast %union.anon* %5 to i64*
  %6 = getelementptr inbounds %struct.State, %struct.State* %0, i32 0, i32 6
  %7 = getelementptr inbounds %struct.GPR, %struct.GPR* %6, i32 0, i32 5
  %8 = getelementptr inbounds %struct.Reg, %struct.Reg* %7, i32 0, i32 0
  %ECX = bitcast %union.anon* %8 to i32*
  %9 = load i32, i32* %ECX
  %10 = zext i32 %9 to i64
  %11 = load i64, i64* %PC
  %12 = add i64 %11, 7
  store i64 %12, i64* %PC
  store i32 %9, i32* inttoptr (i64 6312080 to i32*)
  ret %struct.Memory* %2
}

define %struct.Memory* @routine_movslq__eax___rdx(%struct.State* dereferenceable(3376), i64, %struct.Memory*) {
block_400488:
  %3 = getelementptr inbounds %struct.State, %struct.State* %0, i32 0, i32 6
  %4 = getelementptr inbounds %struct.GPR, %struct.GPR* %3, i32 0, i32 33
  %5 = getelementptr inbounds %struct.Reg, %struct.Reg* %4, i32 0, i32 0
  %PC = bitcast %union.anon* %5 to i64*
  %6 = getelementptr inbounds %struct.State, %struct.State* %0, i32 0, i32 6
  %7 = getelementptr inbounds %struct.GPR, %struct.GPR* %6, i32 0, i32 1
  %8 = getelementptr inbounds %struct.Reg, %struct.Reg* %7, i32 0, i32 0
  %EAX = bitcast %union.anon* %8 to i32*
  %9 = getelementptr inbounds %struct.State, %struct.State* %0, i32 0, i32 6
  %10 = getelementptr inbounds %struct.GPR, %struct.GPR* %9, i32 0, i32 7
  %11 = getelementptr inbounds %struct.Reg, %struct.Reg* %10, i32 0, i32 0
  %RDX = bitcast %union.anon* %11 to i64*
  %12 = load i32, i32* %EAX
  %13 = zext i32 %12 to i64
  %14 = load i64, i64* %PC
  %15 = add i64 %14, 3
  store i64 %15, i64* %PC
  %16 = shl i64 %13, 32
  %17 = ashr exact i64 %16, 32
  store i64 %17, i64* %RDX, align 8
  ret %struct.Memory* %2
}

define %struct.Memory* @routine_movsd__xmm0__0x6050a0___rdx_8_(%struct.State* dereferenceable(3376), i64, %struct.Memory*) {
block_400488:
  %3 = getelementptr inbounds %struct.State, %struct.State* %0, i32 0, i32 6
  %4 = getelementptr inbounds %struct.GPR, %struct.GPR* %3, i32 0, i32 33
  %5 = getelementptr inbounds %struct.Reg, %struct.Reg* %4, i32 0, i32 0
  %PC = bitcast %union.anon* %5 to i64*
  %6 = getelementptr inbounds %struct.State, %struct.State* %0, i32 0, i32 6
  %7 = getelementptr inbounds %struct.GPR, %struct.GPR* %6, i32 0, i32 7
  %8 = getelementptr inbounds %struct.Reg, %struct.Reg* %7, i32 0, i32 0
  %RDX = bitcast %union.anon* %8 to i64*
  %9 = getelementptr inbounds %struct.State, %struct.State* %0, i32 0, i32 1
  %10 = getelementptr inbounds [32 x %union.VectorReg], [32 x %union.VectorReg]* %9, i64 0, i64 0
  %XMM0 = bitcast %union.VectorReg* %10 to %union.vec128_t*
  %11 = load i64, i64* %RDX
  %12 = mul i64 %11, 8
  %13 = add i64 %12, 6312096
  %14 = bitcast %union.vec128_t* %XMM0 to i8*
  %15 = load i64, i64* %PC
  %16 = add i64 %15, 9
  store i64 %16, i64* %PC
  %17 = bitcast i8* %14 to double*
  %18 = load double, double* %17, align 1
  %19 = inttoptr i64 %13 to double*
  store double %18, double* %19
  ret %struct.Memory* %2
}

define %struct.Memory* @routine_addq__0x40___rsp(%struct.State* dereferenceable(3376), i64, %struct.Memory*) {
block_400488:
  %3 = getelementptr inbounds %struct.State, %struct.State* %0, i32 0, i32 6
  %4 = getelementptr inbounds %struct.GPR, %struct.GPR* %3, i32 0, i32 33
  %5 = getelementptr inbounds %struct.Reg, %struct.Reg* %4, i32 0, i32 0
  %PC = bitcast %union.anon* %5 to i64*
  %6 = getelementptr inbounds %struct.State, %struct.State* %0, i32 0, i32 6
  %7 = getelementptr inbounds %struct.GPR, %struct.GPR* %6, i32 0, i32 13
  %8 = getelementptr inbounds %struct.Reg, %struct.Reg* %7, i32 0, i32 0
  %RSP = bitcast %union.anon* %8 to i64*
  %9 = load i64, i64* %RSP
  %10 = load i64, i64* %PC
  %11 = add i64 %10, 4
  store i64 %11, i64* %PC
  %12 = add i64 64, %9
  store i64 %12, i64* %RSP, align 8
  %13 = icmp ult i64 %12, %9
  %14 = icmp ult i64 %12, 64
  %15 = or i1 %13, %14
  %16 = zext i1 %15 to i8
  %17 = getelementptr inbounds %struct.State, %struct.State* %0, i64 0, i32 2, i32 1
  store i8 %16, i8* %17, align 1
  %18 = trunc i64 %12 to i32
  %19 = and i32 %18, 255
  %20 = call i32 @llvm.ctpop.i32(i32 %19)
  %21 = trunc i32 %20 to i8
  %22 = and i8 %21, 1
  %23 = xor i8 %22, 1
  %24 = getelementptr inbounds %struct.State, %struct.State* %0, i64 0, i32 2, i32 3
  store i8 %23, i8* %24, align 1
  %25 = xor i64 64, %9
  %26 = xor i64 %25, %12
  %27 = lshr i64 %26, 4
  %28 = trunc i64 %27 to i8
  %29 = and i8 %28, 1
  %30 = getelementptr inbounds %struct.State, %struct.State* %0, i64 0, i32 2, i32 5
  store i8 %29, i8* %30, align 1
  %31 = icmp eq i64 %12, 0
  %32 = zext i1 %31 to i8
  %33 = getelementptr inbounds %struct.State, %struct.State* %0, i64 0, i32 2, i32 7
  store i8 %32, i8* %33, align 1
  %34 = lshr i64 %12, 63
  %35 = trunc i64 %34 to i8
  %36 = getelementptr inbounds %struct.State, %struct.State* %0, i64 0, i32 2, i32 9
  store i8 %35, i8* %36, align 1
  %37 = lshr i64 %9, 63
  %38 = xor i64 %34, %37
  %39 = add i64 %38, %34
  %40 = icmp eq i64 %39, 2
  %41 = zext i1 %40 to i8
  %42 = getelementptr inbounds %struct.State, %struct.State* %0, i64 0, i32 2, i32 13
  store i8 %41, i8* %42, align 1
  ret %struct.Memory* %2
}

define %struct.Memory* @routine_popq__rbp(%struct.State* dereferenceable(3376), i64, %struct.Memory*) {
block_400488:
  %3 = getelementptr inbounds %struct.State, %struct.State* %0, i32 0, i32 6
  %4 = getelementptr inbounds %struct.GPR, %struct.GPR* %3, i32 0, i32 33
  %5 = getelementptr inbounds %struct.Reg, %struct.Reg* %4, i32 0, i32 0
  %PC = bitcast %union.anon* %5 to i64*
  %6 = getelementptr inbounds %struct.State, %struct.State* %0, i32 0, i32 6
  %7 = getelementptr inbounds %struct.GPR, %struct.GPR* %6, i32 0, i32 15
  %8 = getelementptr inbounds %struct.Reg, %struct.Reg* %7, i32 0, i32 0
  %RBP = bitcast %union.anon* %8 to i64*
  %9 = load i64, i64* %PC
  %10 = add i64 %9, 1
  store i64 %10, i64* %PC
  %11 = getelementptr inbounds %struct.State, %struct.State* %0, i64 0, i32 6, i32 13, i32 0, i32 0
  %12 = load i64, i64* %11, align 8
  %13 = add i64 %12, 8
  %14 = inttoptr i64 %12 to i64*
  %15 = load i64, i64* %14
  store i64 %15, i64* %RBP, align 8
  store i64 %13, i64* %11, align 8
  ret %struct.Memory* %2
}

define %struct.Memory* @routine_retq(%struct.State* dereferenceable(3376), i64, %struct.Memory*) {
block_400488:
  %3 = getelementptr inbounds %struct.State, %struct.State* %0, i32 0, i32 6
  %4 = getelementptr inbounds %struct.GPR, %struct.GPR* %3, i32 0, i32 33
  %5 = getelementptr inbounds %struct.Reg, %struct.Reg* %4, i32 0, i32 0
  %PC = bitcast %union.anon* %5 to i64*
  %6 = load i64, i64* %PC
  %7 = add i64 %6, 1
  store i64 %7, i64* %PC
  %8 = getelementptr inbounds %struct.State, %struct.State* %0, i64 0, i32 6, i32 33, i32 0, i32 0
  %9 = getelementptr inbounds %struct.State, %struct.State* %0, i64 0, i32 6, i32 13, i32 0, i32 0
  %10 = load i64, i64* %9, align 8
  %11 = inttoptr i64 %10 to i64*
  %12 = load i64, i64* %11
  store i64 %12, i64* %8, align 8
  %13 = add i64 %10, 8
  store i64 %13, i64* %9, align 8
  ret %struct.Memory* %2
}

attributes #0 = { nounwind readnone }
attributes #1 = { alwaysinline }
