; ModuleID = 'sum_2_n'
source_filename = "sum_2_n"
target datalayout = "m:e-n8:16:32:64-p0:64:64:64-p1:64:64:64"
target triple = "x86_64-unknown-linux"

%struct.x86_config = type { i32, i64, i32, i32, i32 }
%struct.x86_regs = type { %union.x86_qword_reg, %union.x86_qword_reg, %union.x86_qword_reg, %union.x86_qword_reg, %union.x86_qword_reg, %union.x86_qword_reg, %union.x86_qword_reg, %union.x86_qword_reg, %union.x86_qword_reg, %union.x86_qword_reg, %union.x86_qword_reg, %union.x86_qword_reg, %union.x86_qword_reg, %union.x86_qword_reg, %union.x86_qword_reg, %union.x86_qword_reg, %union.x86_qword_reg, %union.x86_qword_reg, %union.x86_qword_reg, %union.x86_qword_reg, %union.x86_qword_reg, %union.x86_qword_reg, %union.x86_qword_reg, %union.x86_qword_reg }
%union.x86_qword_reg = type { i64 }
%struct.x86_flags_reg = type { i8, i8, i8, i8, i8, i8, i8 }
%loopne.return = type {}
%loopne.return.0 = type {}
%clc.return = type {}

@config = private constant %struct.x86_config { i32 64, i64 8, i32 41, i32 44, i32 36 }

define void @"__cxa_finalize@@GLIBC_2.2.5"(%struct.x86_regs*) !fcd.vaddr !2 !fcd.recoverable !3 {
entry:
  %flags = alloca %struct.x86_flags_reg, align 8
  %1 = getelementptr inbounds %struct.x86_regs, %struct.x86_regs* %0, i64 0, i32 9, i32 0
  %2 = load i64, i64* %1, align 8, !tbaa !4, !alias.scope !8
  %3 = getelementptr inbounds %struct.x86_regs, %struct.x86_regs* %0, i64 0, i32 8, i32 0
  %4 = load i64, i64* %3, align 8, !tbaa !4, !alias.scope !11
  %5 = add i64 %4, -8
  %6 = inttoptr i64 %5 to i64*
  store i64 %2, i64* %6, align 4, !fcd.prgmem !3
  store i64 %5, i64* %3, align 8, !tbaa !4, !alias.scope !16
  %7 = getelementptr inbounds %struct.x86_flags_reg, %struct.x86_flags_reg* %flags, i64 0, i32 6
  store i8 0, i8* %7, align 2, !tbaa !19
  store i64 2, i64* %1, align 4
  %8 = getelementptr inbounds %struct.x86_flags_reg, %struct.x86_flags_reg* %flags, i64 0, i32 3
  %9 = getelementptr inbounds %struct.x86_flags_reg, %struct.x86_flags_reg* %flags, i64 0, i32 4
  %10 = getelementptr inbounds %struct.x86_flags_reg, %struct.x86_flags_reg* %flags, i64 0, i32 5
  br i1 true, label %"02", label %"47"

"47":                                             ; preds = %entry
  br label %"61"

"02":                                             ; preds = %entry
  %11 = getelementptr inbounds %struct.x86_regs, %struct.x86_regs* %0, i64 0, i32 10, i32 0
  %12 = bitcast i64* %11 to i8*
  %13 = getelementptr inbounds i8, i8* %12, i64 1
  %14 = load i8, i8* %13, align 1, !tbaa !22, !alias.scope !23, !noalias !30
  %15 = getelementptr inbounds %struct.x86_regs, %struct.x86_regs* %0, i64 0, i32 3, i32 0
  %16 = bitcast i64* %15 to i8**
  %17 = load i8*, i8** %16, align 8, !tbaa !4, !alias.scope !32, !noalias !41
  %18 = load i8, i8* %17, align 1, !fcd.prgmem !3
  %19 = getelementptr inbounds %struct.x86_flags_reg, %struct.x86_flags_reg* %flags, i64 0, i32 0
  tail call void @llvm.memset.p0i8.i64(i8* nonnull %19, i8 0, i64 7, i32 8, i1 false)
  %20 = add i8 %14, %18
  %21 = getelementptr inbounds %struct.x86_flags_reg, %struct.x86_flags_reg* %flags, i64 0, i32 2
  %22 = getelementptr inbounds %struct.x86_flags_reg, %struct.x86_flags_reg* %flags, i64 0, i32 1
  store i8 %20, i8* %13, align 1, !tbaa !22, !alias.scope !45, !noalias !52
  %23 = getelementptr inbounds %struct.x86_regs, %struct.x86_regs* %0, i64 0, i32 1, i32 0
  %24 = bitcast i64* %23 to i32**
  %25 = load i32*, i32** %24, align 8, !tbaa !4, !alias.scope !54, !noalias !1
  %26 = load i32, i32* %25, align 4, !fcd.prgmem !3
  %27 = bitcast i64* %23 to i32*
  %28 = ptrtoint i32* %25 to i64
  %29 = trunc i64 %28 to i32
  tail call void @llvm.memset.p0i8.i64(i8* nonnull %19, i8 0, i64 7, i32 8, i1 false)
  %30 = add i32 %26, %29
  store i32 %30, i32* %25, align 4, !fcd.prgmem !3
  %31 = bitcast i64* %23 to i8**
  %32 = bitcast i32* %25 to i8*
  %33 = load i8, i8* %32, align 1, !fcd.prgmem !3
  %34 = bitcast i64* %23 to i8*
  %35 = trunc i64 %28 to i8
  tail call void @llvm.memset.p0i8.i64(i8* nonnull %19, i8 0, i64 7, i32 8, i1 false)
  %36 = add i8 %33, %35
  store i8 %36, i8* %32, align 1, !fcd.prgmem !3
  tail call void @llvm.memset.p0i8.i64(i8* nonnull %19, i8 0, i64 7, i32 8, i1 false)
  %37 = add i8 %36, %35
  %38 = load i8*, i8** %31, align 8, !tbaa !4, !alias.scope !71, !noalias !1
  %39 = ptrtoint i8* %38 to i64
  %40 = trunc i64 %39 to i8
  tail call void @llvm.memset.p0i8.i64(i8* nonnull %19, i8 0, i64 7, i32 8, i1 false)
  %41 = add i8 %37, %40
  tail call void @llvm.memset.p0i8.i64(i8* nonnull %19, i8 0, i64 7, i32 8, i1 false)
  %42 = add i8 %41, %40
  store i8 %42, i8* %38, align 1, !fcd.prgmem !3
  %43 = trunc i64 %39 to i32
  %44 = bitcast i8* %38 to i32*
  %45 = load i32, i32* %44, align 4, !fcd.prgmem !3
  tail call void @llvm.memset.p0i8.i64(i8* nonnull %19, i8 0, i64 7, i32 8, i1 false)
  %46 = add i32 %43, %45
  %47 = zext i32 %46 to i64
  store i64 %47, i64* %23, align 8, !tbaa !4, !alias.scope !112, !noalias !119
  %48 = load i8*, i8** %16, align 8, !tbaa !4, !alias.scope !121, !noalias !1
  %49 = load i8, i8* %48, align 1, !fcd.prgmem !3
  %50 = trunc i32 %46 to i8
  tail call void @llvm.memset.p0i8.i64(i8* nonnull %19, i8 0, i64 7, i32 8, i1 false)
  %51 = add i8 %49, %50
  store i8 %51, i8* %48, align 1, !fcd.prgmem !3
  %52 = inttoptr i64 %47 to i8*
  %53 = load i8, i8* %52, align 1, !fcd.prgmem !3
  tail call void @llvm.memset.p0i8.i64(i8* nonnull %19, i8 0, i64 7, i32 8, i1 false)
  %54 = add i8 %53, %50
  store i8 %54, i8* %52, align 1, !fcd.prgmem !3
  %55 = getelementptr inbounds %struct.x86_regs, %struct.x86_regs* %0, i64 0, i32 4, i32 0
  %56 = bitcast i64* %55 to i8*
  %57 = getelementptr inbounds i8, i8* %56, i64 1
  %58 = load i8, i8* %57, align 1, !tbaa !22, !alias.scope !138, !noalias !145
  tail call void @llvm.memset.p0i8.i64(i8* nonnull %19, i8 0, i64 7, i32 8, i1 false)
  %59 = add i8 %54, %58
  %60 = load i8*, i8** %31, align 8, !tbaa !4, !alias.scope !147, !noalias !156
  store i8 %59, i8* %60, align 1, !fcd.prgmem !3
  %61 = ptrtoint i8* %60 to i64
  tail call void @llvm.memset.p0i8.i64(i8* nonnull %19, i8 0, i64 7, i32 8, i1 false)
  %62 = and i64 %61, 4294967295
  store i64 %62, i64* %23, align 8, !tbaa !4, !alias.scope !160, !noalias !167
  %63 = inttoptr i64 %62 to i8*
  %64 = load i8, i8* %63, align 1, !fcd.prgmem !3
  %65 = trunc i64 %61 to i8
  tail call void @llvm.memset.p0i8.i64(i8* nonnull %19, i8 0, i64 7, i32 8, i1 false)
  %66 = add i8 %64, %65
  tail call void @llvm.memset.p0i8.i64(i8* nonnull %19, i8 0, i64 7, i32 8, i1 false)
  %67 = add i8 %66, %65
  tail call void @llvm.memset.p0i8.i64(i8* nonnull %19, i8 0, i64 7, i32 8, i1 false)
  %68 = add i8 %67, %65
  store i8 %68, i8* %63, align 1, !fcd.prgmem !3
  %69 = load i8, i8* %34, align 1, !tbaa !22, !alias.scope !169, !noalias !176
  tail call void @llvm.memset.p0i8.i64(i8* nonnull %19, i8 0, i64 7, i32 8, i1 false)
  %70 = add i8 %68, %69
  %71 = load i8*, i8** %31, align 8, !tbaa !4, !alias.scope !178, !noalias !1
  store i8 %70, i8* %71, align 1, !fcd.prgmem !3
  %72 = ptrtoint i8* %71 to i64
  %73 = add i64 %72, 25
  %74 = inttoptr i64 %73 to i8*
  %75 = load i8, i8* %74, align 1, !fcd.prgmem !3
  %76 = getelementptr inbounds %struct.x86_regs, %struct.x86_regs* %0, i64 0, i32 2, i32 0
  %77 = bitcast i64* %76 to i8*
  %78 = load i8, i8* %77, align 1, !tbaa !22, !alias.scope !211, !noalias !218
  tail call void @llvm.memset.p0i8.i64(i8* nonnull %19, i8 0, i64 7, i32 8, i1 false)
  %79 = add i8 %75, %78
  store i8 %79, i8* %74, align 1, !fcd.prgmem !3
  %80 = load i8, i8* %71, align 1, !fcd.prgmem !3
  %81 = trunc i64 %72 to i8
  tail call void @llvm.memset.p0i8.i64(i8* nonnull %19, i8 0, i64 7, i32 8, i1 false)
  %82 = add i8 %80, %81
  store i8 %82, i8* %71, align 1, !fcd.prgmem !3
  tail call void @llvm.memset.p0i8.i64(i8* nonnull %19, i8 0, i64 7, i32 8, i1 false)
  %83 = add i8 %82, %81
  %84 = load i8*, i8** %31, align 8, !tbaa !4, !alias.scope !220, !noalias !1
  %85 = ptrtoint i8* %84 to i64
  %86 = trunc i64 %85 to i8
  tail call void @llvm.memset.p0i8.i64(i8* nonnull %19, i8 0, i64 7, i32 8, i1 false)
  %87 = add i8 %83, %86
  tail call void @llvm.memset.p0i8.i64(i8* nonnull %19, i8 0, i64 7, i32 8, i1 false)
  %88 = add i8 %87, %86
  store i8 %88, i8* %84, align 1, !fcd.prgmem !3
  tail call void @llvm.memset.p0i8.i64(i8* nonnull %19, i8 0, i64 7, i32 8, i1 false)
  %89 = bitcast i8* %84 to i32*
  %90 = load i32, i32* %89, align 4, !fcd.prgmem !3
  %91 = trunc i64 %85 to i32
  %92 = or i32 %91, %90
  %93 = load i32*, i32** %24, align 8, !tbaa !4, !alias.scope !269, !noalias !278
  store i32 %92, i32* %93, align 4, !fcd.prgmem !3
  %94 = load i8, i8* inttoptr (i64 100670529 to i8*), align 1, !fcd.prgmem !3
  %95 = load i8, i8* %77, align 1, !tbaa !22, !alias.scope !282, !noalias !289
  tail call void @llvm.memset.p0i8.i64(i8* nonnull %19, i8 0, i64 7, i32 8, i1 false)
  %96 = add i8 %94, %95
  store i8 %96, i8* inttoptr (i64 100670529 to i8*), align 1, !fcd.prgmem !3
  %97 = ptrtoint i32* %93 to i64
  %98 = bitcast i32* %93 to i8*
  %99 = load i8, i8* %98, align 1, !fcd.prgmem !3
  %100 = trunc i64 %97 to i8
  tail call void @llvm.memset.p0i8.i64(i8* nonnull %19, i8 0, i64 7, i32 8, i1 false)
  %101 = add i8 %99, %100
  store i8 %101, i8* %98, align 1, !fcd.prgmem !3
  %102 = load i8, i8* inttoptr (i64 1073741897 to i8*), align 1, !fcd.prgmem !3
  tail call void @llvm.memset.p0i8.i64(i8* nonnull %19, i8 0, i64 7, i32 8, i1 false)
  %103 = add i8 %102, %100
  store i8 %103, i8* inttoptr (i64 1073741897 to i8*), align 1, !fcd.prgmem !3
  %104 = load i8*, i8** %31, align 8, !tbaa !4, !alias.scope !291, !noalias !1
  %105 = load i8, i8* %104, align 1, !fcd.prgmem !3
  %106 = ptrtoint i8* %104 to i64
  %107 = trunc i64 %106 to i8
  tail call void @llvm.memset.p0i8.i64(i8* nonnull %19, i8 0, i64 7, i32 8, i1 false)
  %108 = add i8 %105, %107
  tail call void @llvm.memset.p0i8.i64(i8* nonnull %19, i8 0, i64 7, i32 8, i1 false)
  %109 = add i8 %108, %107
  tail call void @llvm.memset.p0i8.i64(i8* nonnull %19, i8 0, i64 7, i32 8, i1 false)
  %110 = add i8 %109, %107
  store i8 %110, i8* %104, align 1, !fcd.prgmem !3
  tail call void @llvm.memset.p0i8.i64(i8* nonnull %19, i8 0, i64 7, i32 8, i1 false)
  %111 = add i8 %110, %107
  %112 = load i8*, i8** %31, align 8, !tbaa !4, !alias.scope !348, !noalias !1
  %113 = ptrtoint i8* %112 to i64
  %114 = trunc i64 %113 to i8
  tail call void @llvm.memset.p0i8.i64(i8* nonnull %19, i8 0, i64 7, i32 8, i1 false)
  %115 = add i8 %111, %114
  tail call void @llvm.memset.p0i8.i64(i8* nonnull %19, i8 0, i64 7, i32 8, i1 false)
  %116 = add i8 %115, %114
  tail call void @llvm.memset.p0i8.i64(i8* nonnull %19, i8 0, i64 7, i32 8, i1 false)
  %117 = add i8 %116, %114
  store i8 %117, i8* %112, align 1, !fcd.prgmem !3
  tail call void @llvm.memset.p0i8.i64(i8* nonnull %19, i8 0, i64 7, i32 8, i1 false)
  %118 = add i8 %117, %114
  %119 = load i8*, i8** %31, align 8, !tbaa !4, !alias.scope !413, !noalias !1
  %120 = ptrtoint i8* %119 to i64
  %121 = trunc i64 %120 to i8
  tail call void @llvm.memset.p0i8.i64(i8* nonnull %19, i8 0, i64 7, i32 8, i1 false)
  %122 = add i8 %118, %121
  %123 = and i8 %121, 15
  tail call void @llvm.memset.p0i8.i64(i8* nonnull %19, i8 0, i64 7, i32 8, i1 false)
  %124 = add i8 %122, %121
  store i8 %124, i8* %119, align 1, !fcd.prgmem !3
  store i64 97, i64* %1, align 4
  %125 = getelementptr inbounds i8, i8* %77, i64 1
  %126 = load i8, i8* %125, align 1, !tbaa !22, !alias.scope !454, !noalias !461
  tail call void @llvm.memset.p0i8.i64(i8* nonnull %19, i8 0, i64 7, i32 8, i1 false)
  %127 = tail call { i8, i1 } @llvm.uadd.with.overflow.i8(i8 %121, i8 %126) #5
  %128 = extractvalue { i8, i1 } %127, 1
  %129 = extractvalue { i8, i1 } %127, 0
  %130 = zext i1 %128 to i8
  store i8 %130, i8* %19, align 8, !tbaa !463, !alias.scope !464
  %131 = tail call { i8, i1 } @llvm.sadd.with.overflow.i8(i8 %121, i8 %126) #5
  %132 = extractvalue { i8, i1 } %131, 1
  %133 = zext i1 %132 to i8
  store i8 %133, i8* %10, align 1, !tbaa !469, !alias.scope !464
  %134 = lshr i8 %129, 7
  store i8 %134, i8* %9, align 4, !tbaa !470, !alias.scope !464
  %135 = and i8 %126, 15
  %addconv125 = add nuw nsw i8 %135, %123
  %136 = icmp ugt i8 %addconv125, 15
  %137 = zext i1 %136 to i8
  store i8 %137, i8* %21, align 2, !tbaa !471, !alias.scope !472
  %138 = icmp eq i8 %129, 0
  %139 = zext i1 %138 to i8
  store i8 %139, i8* %8, align 1, !tbaa !473, !alias.scope !472
  %140 = zext i8 %129 to i32
  %141 = tail call i32 @llvm.ctpop.i32(i32 %140) #5
  %142 = trunc i32 %141 to i8
  %143 = and i8 %142, 1
  %144 = xor i8 %143, 1
  store i8 %144, i8* %22, align 1, !tbaa !474, !alias.scope !472
  store i8 %129, i8* %34, align 1, !tbaa !22, !alias.scope !475, !noalias !482
  %.pre = load i32*, i32** %24, align 8, !tbaa !4, !alias.scope !484, !noalias !493
  %.pre127 = load i32, i32* %.pre, align 4
  %145 = ptrtoint i32* %.pre to i64
  %146 = trunc i64 %145 to i32
  %147 = bitcast i32* %.pre to i8*
  %148 = trunc i64 %145 to i8
  %phitmp = bitcast i64* %76 to i8**
  %phitmp189 = bitcast i64* %55 to i8**
  br label %"61"

"61":                                             ; preds = %"02", %"47"
  %.pre-phi155 = phi i8** [ %16, %"02" ], [ undef, %"47" ]
  %.pre-phi153 = phi i8* [ %56, %"02" ], [ undef, %"47" ]
  %.pre-phi149 = phi i8** [ %phitmp189, %"02" ], [ undef, %"47" ]
  %.pre-phi147 = phi i64* [ %15, %"02" ], [ undef, %"47" ]
  %.pre-phi145 = phi i8* [ %125, %"02" ], [ undef, %"47" ]
  %.pre-phi139 = phi i8** [ %phitmp, %"02" ], [ undef, %"47" ]
  %.pre-phi137 = phi i8* [ %34, %"02" ], [ undef, %"47" ]
  %.pre-phi136 = phi i8** [ %31, %"02" ], [ undef, %"47" ]
  %.pre-phi135 = phi i8* [ %22, %"02" ], [ undef, %"47" ]
  %.pre-phi134 = phi i8* [ %21, %"02" ], [ undef, %"47" ]
  %.pre-phi133 = phi i8* [ %19, %"02" ], [ undef, %"47" ]
  %.pre-phi132 = phi i32* [ %27, %"02" ], [ undef, %"47" ]
  %.pre-phi129 = phi i32** [ %24, %"02" ], [ undef, %"47" ]
  %.pre-phi = phi i64* [ %23, %"02" ], [ undef, %"47" ]
  %149 = phi i8 [ %148, %"02" ], [ undef, %"47" ]
  %150 = phi i8* [ %147, %"02" ], [ undef, %"47" ]
  %151 = phi i8 [ %148, %"02" ], [ undef, %"47" ]
  %152 = phi i8* [ %147, %"02" ], [ undef, %"47" ]
  %153 = phi i32 [ %146, %"02" ], [ undef, %"47" ]
  %154 = phi i32 [ %.pre127, %"02" ], [ undef, %"47" ]
  %155 = phi i32* [ %.pre, %"02" ], [ undef, %"47" ]
  %156 = add i32 %154, %153
  store i32 %156, i32* %155, align 4, !fcd.prgmem !3
  %157 = load i8, i8* %152, align 1, !fcd.prgmem !3
  %158 = add i8 %157, %151
  store i8 %158, i8* %150, align 1, !fcd.prgmem !3
  store i64 103, i64* %1, align 4
  %159 = add i8 %158, %149
  %160 = load i8*, i8** %.pre-phi136, align 8, !tbaa !4, !alias.scope !497, !noalias !506
  store i8 %159, i8* %160, align 1, !fcd.prgmem !3
  store i64 105, i64* %1, align 4
  %161 = ptrtoint i8* %160 to i64
  %162 = trunc i64 %161 to i8
  %163 = load i8, i8* %.pre-phi145, align 1, !tbaa !22, !alias.scope !510, !noalias !517
  %164 = add i8 %162, %163
  store i8 %164, i8* %.pre-phi137, align 1, !tbaa !22, !alias.scope !519, !noalias !526
  store i64 107, i64* %1, align 4
  %165 = load i32*, i32** %.pre-phi129, align 8, !tbaa !4, !alias.scope !528, !noalias !1
  %166 = load i32, i32* %165, align 4, !fcd.prgmem !3
  %167 = ptrtoint i32* %165 to i64
  %168 = trunc i64 %167 to i32
  %169 = add i32 %166, %168
  store i32 %169, i32* %165, align 4, !fcd.prgmem !3
  %170 = bitcast i32* %165 to i8*
  %171 = load i8, i8* %170, align 1, !fcd.prgmem !3
  %172 = trunc i64 %167 to i8
  %173 = add i8 %171, %172
  store i8 %173, i8* %170, align 1, !fcd.prgmem !3
  store i64 111, i64* %1, align 4
  %174 = add i8 %173, %172
  %175 = load i8*, i8** %.pre-phi136, align 8, !tbaa !4, !alias.scope !545, !noalias !1
  store i64 113, i64* %1, align 4
  %176 = bitcast i64* %.pre-phi147 to i8*
  %177 = load i8, i8* %176, align 1, !tbaa !22, !alias.scope !610, !noalias !617
  %178 = add i8 %174, %177
  %179 = ptrtoint i8* %175 to i64
  %180 = trunc i64 %179 to i8
  %181 = add i8 %178, %180
  %182 = add i8 %181, %180
  store i8 %182, i8* %175, align 1, !fcd.prgmem !3
  store i64 119, i64* %1, align 4
  %183 = add i8 %182, %180
  %184 = load i8*, i8** %.pre-phi136, align 8, !tbaa !4, !alias.scope !619, !noalias !1
  store i8 %183, i8* %184, align 1, !fcd.prgmem !3
  store i64 121, i64* %1, align 4
  %185 = load i8*, i8** %.pre-phi139, align 8, !tbaa !4, !alias.scope !644, !noalias !1
  %186 = load i8, i8* %185, align 1, !fcd.prgmem !3
  %187 = ptrtoint i8* %184 to i64
  %188 = trunc i64 %187 to i8
  %189 = add i8 %186, %188
  store i8 %189, i8* %185, align 1, !fcd.prgmem !3
  %190 = load i8, i8* %184, align 1, !fcd.prgmem !3
  %191 = add i8 %190, %188
  store i8 %191, i8* %184, align 1, !fcd.prgmem !3
  store i64 126, i64* %1, align 4
  %192 = shl i64 %187, 1
  %193 = inttoptr i64 %192 to i8*
  %194 = load i8, i8* %193, align 2, !fcd.prgmem !3
  %195 = add i8 %194, %188
  %196 = load i64, i64* %.pre-phi, align 8, !tbaa !4, !alias.scope !661, !noalias !672
  %197 = shl i64 %196, 1
  %198 = inttoptr i64 %197 to i8*
  store i8 %195, i8* %198, align 2, !fcd.prgmem !3
  %199 = inttoptr i64 %196 to i8*
  %200 = load i8, i8* %199, align 1, !fcd.prgmem !3
  %201 = trunc i64 %196 to i8
  %202 = add i8 %200, %201
  store i8 %202, i8* %199, align 1, !fcd.prgmem !3
  store i64 132, i64* %1, align 4
  %203 = add i8 %202, %201
  %204 = load i8*, i8** %.pre-phi136, align 8, !tbaa !4, !alias.scope !676, !noalias !1
  %205 = ptrtoint i8* %204 to i64
  %206 = trunc i64 %205 to i8
  %207 = add i8 %203, %206
  %208 = add i8 %207, %206
  store i8 %208, i8* %204, align 1, !fcd.prgmem !3
  store i64 140, i64* %1, align 4
  %209 = add i8 %208, %206
  %210 = load i8*, i8** %.pre-phi136, align 8, !tbaa !4, !alias.scope !725, !noalias !1
  %211 = ptrtoint i8* %210 to i64
  %212 = trunc i64 %211 to i8
  %213 = add i8 %209, %212
  %214 = add i8 %213, %212
  store i8 %214, i8* %210, align 1, !fcd.prgmem !3
  store i64 148, i64* %1, align 4
  %215 = add i8 %214, %212
  %216 = load i8*, i8** %.pre-phi136, align 8, !tbaa !4, !alias.scope !774, !noalias !1
  %217 = ptrtoint i8* %216 to i64
  %218 = trunc i64 %217 to i8
  %219 = add i8 %215, %218
  %220 = tail call { i8, i1 } @llvm.uadd.with.overflow.i8(i8 %219, i8 %218) #5
  %221 = extractvalue { i8, i1 } %220, 1
  %222 = extractvalue { i8, i1 } %220, 0
  %223 = zext i1 %221 to i8
  store i8 %222, i8* %216, align 1, !fcd.prgmem !3
  %224 = sub i8 %218, %223
  store i8 %224, i8* %.pre-phi137, align 1, !tbaa !22, !alias.scope !815, !noalias !822
  store i64 156, i64* %1, align 4
  %225 = load i8*, i8** %.pre-phi136, align 8, !tbaa !4, !alias.scope !824, !noalias !1
  %226 = load i8, i8* %225, align 1, !fcd.prgmem !3
  %227 = ptrtoint i8* %225 to i64
  %228 = trunc i64 %227 to i8
  %229 = add i8 %226, %228
  %230 = add i8 %229, %228
  %231 = tail call { i8, i1 } @llvm.uadd.with.overflow.i8(i8 %230, i8 %228) #5
  %232 = extractvalue { i8, i1 } %231, 1
  %233 = extractvalue { i8, i1 } %231, 0
  %234 = zext i1 %232 to i8
  store i8 %233, i8* %225, align 1, !fcd.prgmem !3
  %235 = sub i8 %228, %234
  store i8 %235, i8* %.pre-phi137, align 1, !tbaa !22, !alias.scope !873, !noalias !880
  store i64 164, i64* %1, align 4
  %236 = load i8*, i8** %.pre-phi136, align 8, !tbaa !4, !alias.scope !882, !noalias !1
  %237 = load i8, i8* %236, align 1, !fcd.prgmem !3
  %238 = ptrtoint i8* %236 to i64
  %239 = trunc i64 %238 to i8
  %240 = add i8 %237, %239
  %241 = add i8 %240, %239
  %242 = add i8 %241, %239
  store i8 %242, i8* %236, align 1, !fcd.prgmem !3
  store i64 170, i64* %1, align 4
  %243 = bitcast i8* %236 to i32*
  %244 = load i32, i32* %243, align 4, !fcd.prgmem !3
  %245 = trunc i64 %238 to i32
  %246 = add i32 %244, %245
  %247 = load i32*, i32** %.pre-phi129, align 8, !tbaa !4, !alias.scope !931, !noalias !940
  store i32 %246, i32* %247, align 4, !fcd.prgmem !3
  %248 = ptrtoint i32* %247 to i64
  %249 = bitcast i32* %247 to i8*
  %250 = load i8, i8* %249, align 1, !fcd.prgmem !3
  %251 = trunc i64 %248 to i8
  %252 = add i8 %250, %251
  %253 = add i8 %252, %251
  store i8 %253, i8* %249, align 1, !fcd.prgmem !3
  store i64 176, i64* %1, align 4
  %254 = add i8 %253, %251
  %255 = load i8*, i8** %.pre-phi136, align 8, !tbaa !4, !alias.scope !944, !noalias !1
  store i8 %254, i8* %255, align 1, !fcd.prgmem !3
  %256 = ptrtoint i8* %255 to i64
  %257 = bitcast i8* %255 to i32*
  %258 = load i32, i32* %257, align 4, !fcd.prgmem !3
  %259 = trunc i64 %256 to i32
  %260 = add i32 %258, %259
  store i32 %260, i32* %257, align 4, !fcd.prgmem !3
  %261 = load i8, i8* %255, align 1, !fcd.prgmem !3
  %262 = trunc i64 %256 to i8
  %263 = add i8 %261, %262
  store i8 %263, i8* %255, align 1, !fcd.prgmem !3
  %264 = and i64 %256, 4294967295
  store i64 %264, i64* %.pre-phi, align 8, !tbaa !4, !alias.scope !969, !noalias !976
  %265 = inttoptr i64 %264 to i8*
  %266 = load i8, i8* %265, align 1, !fcd.prgmem !3
  %267 = trunc i64 %256 to i8
  %268 = add i8 %266, %267
  %269 = add i8 %268, %267
  %270 = add i8 %269, %267
  store i8 %270, i8* %265, align 1, !fcd.prgmem !3
  store i64 193, i64* %1, align 4
  %271 = load i8, i8* %.pre-phi137, align 1, !tbaa !22, !alias.scope !978, !noalias !985
  %272 = add i8 %270, %271
  %273 = load i8*, i8** %.pre-phi136, align 8, !tbaa !4, !alias.scope !987, !noalias !1
  %274 = ptrtoint i8* %273 to i64
  %275 = trunc i64 %274 to i8
  %276 = add i8 %272, %275
  %277 = add i8 %276, %275
  %278 = add i8 %277, %275
  store i8 %278, i8* %273, align 1, !fcd.prgmem !3
  store i64 201, i64* %1, align 4
  %279 = add i8 %278, %275
  %280 = load i8*, i8** %.pre-phi136, align 8, !tbaa !4, !alias.scope !1052, !noalias !1
  %281 = ptrtoint i8* %280 to i64
  %282 = trunc i64 %281 to i8
  %283 = add i8 %279, %282
  %284 = add i8 %283, %282
  %285 = add i8 %284, %282
  store i8 %285, i8* %280, align 1, !fcd.prgmem !3
  store i64 214, i64* %1, align 4
  %286 = load i64, i64* %.pre-phi147, align 8, !tbaa !4, !alias.scope !1109, !noalias !1
  %287 = add i64 %281, %286
  %288 = inttoptr i64 %287 to i8*
  %289 = load i8, i8* %288, align 1, !fcd.prgmem !3
  %290 = load i8, i8* %.pre-phi153, align 1, !tbaa !22, !alias.scope !1126, !noalias !1133
  %291 = add i8 %289, %290
  %292 = load i64, i64* %.pre-phi, align 8, !tbaa !4, !alias.scope !1135, !noalias !1138
  %293 = add i64 %292, %286
  %294 = inttoptr i64 %293 to i8*
  store i8 %291, i8* %294, align 1, !fcd.prgmem !3
  %295 = inttoptr i64 %292 to i8*
  %296 = load i8, i8* %295, align 1, !fcd.prgmem !3
  %297 = trunc i64 %292 to i8
  %298 = add i8 %296, %297
  store i8 %298, i8* %295, align 1, !fcd.prgmem !3
  %299 = and i64 %292, 4294967295
  %300 = bitcast i64* %3 to i32*
  %301 = load i32, i32* %300, align 4, !tbaa !1142, !alias.scope !1144, !noalias !1151
  %302 = zext i32 %301 to i64
  store i64 %302, i64* %.pre-phi, align 8, !tbaa !4, !alias.scope !1153, !noalias !1160
  store i64 %299, i64* %3, align 8, !tbaa !4, !alias.scope !1162, !noalias !1169
  %303 = inttoptr i64 %302 to i8*
  %304 = load i8, i8* %303, align 1, !fcd.prgmem !3
  %305 = trunc i32 %301 to i8
  %306 = or i8 %305, %304
  %307 = add i8 %306, %305
  %308 = add i8 %307, %305
  store i8 %308, i8* %303, align 1, !fcd.prgmem !3
  store i64 225, i64* %1, align 4
  %309 = add i8 %308, %305
  %310 = load i8*, i8** %.pre-phi136, align 8, !tbaa !4, !alias.scope !1171, !noalias !1
  store i64 227, i64* %1, align 4
  %311 = getelementptr inbounds i8, i8* %.pre-phi137, i64 1
  %312 = load i8, i8* %311, align 1, !tbaa !22, !alias.scope !1228, !noalias !1235
  %313 = add i8 %309, %312
  %314 = ptrtoint i8* %310 to i64
  %315 = trunc i64 %314 to i8
  %316 = add i8 %313, %315
  %317 = add i8 %316, %315
  store i8 %317, i8* %310, align 1, !fcd.prgmem !3
  store i64 233, i64* %1, align 4
  %318 = load i8*, i8** %.pre-phi155, align 8, !tbaa !4, !alias.scope !1237, !noalias !1
  %319 = load i8, i8* %318, align 1, !fcd.prgmem !3
  %320 = add i8 %319, %315
  store i8 %320, i8* %318, align 1, !fcd.prgmem !3
  store i64 235, i64* %1, align 4
  %321 = load i8*, i8** %.pre-phi136, align 8, !tbaa !4, !alias.scope !1254, !noalias !1
  %322 = load i8, i8* %321, align 1, !fcd.prgmem !3
  %323 = ptrtoint i8* %321 to i64
  %324 = trunc i64 %323 to i8
  %325 = add i8 %322, %324
  store i8 %325, i8* %321, align 1, !fcd.prgmem !3
  %326 = getelementptr inbounds %struct.x86_regs, %struct.x86_regs* %0, i64 0, i32 5, i32 0
  %327 = bitcast i64* %326 to i8**
  %328 = load i8*, i8** %327, align 8, !tbaa !4, !alias.scope !1287, !noalias !1
  %329 = load i8, i8* %328, align 1, !fcd.prgmem !3
  %330 = add i8 %329, %324
  store i8 %330, i8* %328, align 1, !fcd.prgmem !3
  %331 = load i8, i8* %321, align 1, !fcd.prgmem !3
  %332 = add i8 %331, %324
  store i8 %332, i8* %321, align 1, !fcd.prgmem !3
  store i64 241, i64* %1, align 4
  %333 = load i8, i8* %311, align 1, !tbaa !22, !alias.scope !1304, !noalias !1311
  %334 = add i8 %324, %333
  store i8 %334, i8* %.pre-phi137, align 1, !tbaa !22, !alias.scope !1313, !noalias !1320
  store i64 246, i64* %1, align 4
  %335 = load i32, i32* %.pre-phi132, align 4, !tbaa !1142, !alias.scope !1322, !noalias !1331
  %336 = zext i32 %335 to i64
  store i64 %336, i64* %.pre-phi, align 8, !tbaa !4, !alias.scope !1335, !noalias !1342
  %337 = inttoptr i64 %336 to i8*
  %338 = load i8, i8* %337, align 1, !fcd.prgmem !3
  %339 = trunc i32 %335 to i8
  tail call void @llvm.memset.p0i8.i64(i8* nonnull %.pre-phi133, i8 0, i64 7, i32 8, i1 false)
  %340 = tail call { i8, i1 } @llvm.uadd.with.overflow.i8(i8 %338, i8 %339) #5
  %341 = extractvalue { i8, i1 } %340, 1
  %342 = extractvalue { i8, i1 } %340, 0
  %343 = zext i1 %341 to i8
  store i8 %343, i8* %.pre-phi133, align 8, !tbaa !463, !alias.scope !1344
  %344 = tail call { i8, i1 } @llvm.sadd.with.overflow.i8(i8 %338, i8 %339) #5
  %345 = extractvalue { i8, i1 } %344, 1
  %346 = zext i1 %345 to i8
  store i8 %346, i8* %10, align 1, !tbaa !469, !alias.scope !1344
  %347 = lshr i8 %342, 7
  store i8 %347, i8* %9, align 4, !tbaa !470, !alias.scope !1344
  %348 = and i8 %338, 15
  %349 = and i8 %339, 15
  %addconv72 = add nuw nsw i8 %349, %348
  %350 = icmp ugt i8 %addconv72, 15
  %351 = zext i1 %350 to i8
  store i8 %351, i8* %.pre-phi134, align 2, !tbaa !471, !alias.scope !1349
  %352 = icmp eq i8 %342, 0
  %353 = zext i1 %352 to i8
  store i8 %353, i8* %8, align 1, !tbaa !473, !alias.scope !1349
  %354 = zext i8 %342 to i32
  %355 = tail call i32 @llvm.ctpop.i32(i32 %354) #5
  %356 = trunc i32 %355 to i8
  %357 = and i8 %356, 1
  %358 = xor i8 %357, 1
  store i8 %358, i8* %.pre-phi135, align 1, !tbaa !474, !alias.scope !1349
  store i8 %342, i8* %337, align 1, !fcd.prgmem !3
  store i64 250, i64* %1, align 4
  %359 = call %loopne.return @fcd.asm.2()
  store i64 252, i64* %1, align 4
  %360 = load i8*, i8** %.pre-phi136, align 8, !tbaa !4, !alias.scope !1350, !noalias !1
  %361 = load i8, i8* %360, align 1, !fcd.prgmem !3
  %362 = ptrtoint i8* %360 to i64
  %363 = trunc i64 %362 to i8
  %364 = and i8 %363, %361
  %365 = add i8 %364, %363
  %366 = and i8 %363, 15
  tail call void @llvm.memset.p0i8.i64(i8* nonnull %.pre-phi133, i8 0, i64 7, i32 8, i1 false)
  %367 = tail call { i8, i1 } @llvm.uadd.with.overflow.i8(i8 %365, i8 %363) #5
  %368 = extractvalue { i8, i1 } %367, 1
  %369 = extractvalue { i8, i1 } %367, 0
  %370 = zext i1 %368 to i8
  store i8 %370, i8* %.pre-phi133, align 8, !tbaa !463, !alias.scope !1401
  %371 = tail call { i8, i1 } @llvm.sadd.with.overflow.i8(i8 %365, i8 %363) #5
  %372 = extractvalue { i8, i1 } %371, 1
  %373 = zext i1 %372 to i8
  store i8 %373, i8* %10, align 1, !tbaa !469, !alias.scope !1401
  %374 = lshr i8 %369, 7
  store i8 %374, i8* %9, align 4, !tbaa !470, !alias.scope !1401
  %375 = and i8 %365, 15
  %addconv75 = add nuw nsw i8 %366, %375
  %376 = icmp ugt i8 %addconv75, 15
  %377 = zext i1 %376 to i8
  store i8 %377, i8* %.pre-phi134, align 2, !tbaa !471, !alias.scope !1406
  %378 = icmp eq i8 %369, 0
  %379 = zext i1 %378 to i8
  store i8 %379, i8* %8, align 1, !tbaa !473, !alias.scope !1406
  %380 = zext i8 %369 to i32
  %381 = tail call i32 @llvm.ctpop.i32(i32 %380) #5
  %382 = trunc i32 %381 to i8
  %383 = and i8 %382, 1
  %384 = xor i8 %383, 1
  store i8 %384, i8* %.pre-phi135, align 1, !tbaa !474, !alias.scope !1406
  store i8 %369, i8* %360, align 1, !fcd.prgmem !3
  store i64 258, i64* %1, align 4
  %385 = call %loopne.return.0 @fcd.asm.4()
  store i64 260, i64* %1, align 4
  %386 = load i8*, i8** %.pre-phi136, align 8, !tbaa !4, !alias.scope !1407, !noalias !1
  %387 = load i8, i8* %386, align 1, !fcd.prgmem !3
  %388 = ptrtoint i8* %386 to i64
  %389 = trunc i64 %388 to i8
  %390 = and i8 %389, %387
  %391 = add i8 %390, %389
  %392 = add i8 %391, %389
  store i8 %392, i8* %386, align 1, !fcd.prgmem !3
  store i64 266, i64* %1, align 4
  %393 = load i8*, i8** %.pre-phi149, align 8, !tbaa !4, !alias.scope !1458, !noalias !1
  %394 = load i8, i8* %393, align 1, !fcd.prgmem !3
  %395 = xor i8 %389, %394
  store i8 %395, i8* %393, align 1, !fcd.prgmem !3
  store i64 268, i64* %1, align 4
  %396 = load i8*, i8** %.pre-phi136, align 8, !tbaa !4, !alias.scope !1477, !noalias !1
  %397 = load i8, i8* %396, align 1, !fcd.prgmem !3
  %398 = ptrtoint i8* %396 to i64
  %399 = trunc i64 %398 to i8
  %400 = add i8 %397, %399
  %401 = add i8 %400, %399
  %402 = add i8 %401, %399
  store i8 %402, i8* %396, align 1, !fcd.prgmem !3
  store i64 276, i64* %1, align 4
  %403 = load i8*, i8** %.pre-phi136, align 8, !tbaa !4, !alias.scope !1526, !noalias !1
  %404 = load i8, i8* %403, align 1, !fcd.prgmem !3
  %405 = ptrtoint i8* %403 to i64
  %406 = trunc i64 %405 to i8
  %407 = add i8 %404, %406
  %408 = add i8 %407, %406
  %409 = add i8 %408, %406
  store i8 %409, i8* %403, align 1, !fcd.prgmem !3
  store i64 282, i64* %1, align 4
  %410 = add i8 %409, %406
  %411 = load i8*, i8** %.pre-phi136, align 8, !tbaa !4, !alias.scope !1583, !noalias !1
  %412 = ptrtoint i8* %411 to i64
  %413 = trunc i64 %412 to i8
  %414 = and i8 %413, %410
  %415 = add i8 %414, %413
  %416 = add i8 %415, %413
  store i8 %416, i8* %411, align 1, !fcd.prgmem !3
  %417 = add i8 %413, %416
  store i8 %417, i8* %.pre-phi137, align 1, !tbaa !22, !alias.scope !1650, !noalias !1657
  store i64 292, i64* %1, align 4
  %418 = load i8*, i8** %.pre-phi136, align 8, !tbaa !4, !alias.scope !1659, !noalias !1
  %419 = load i8, i8* %418, align 1, !fcd.prgmem !3
  %420 = ptrtoint i8* %418 to i64
  %421 = trunc i64 %420 to i8
  %422 = add i8 %419, %421
  store i8 %422, i8* %418, align 1, !fcd.prgmem !3
  ret void
}

; Function Attrs: argmemonly nounwind
declare void @llvm.memset.p0i8.i64(i8* nocapture writeonly, i8, i64, i32, i1) #0

declare void @x86_call_intrin(%struct.x86_config*, %struct.x86_regs*, i64) #1

; Function Attrs: noreturn nounwind
declare void @llvm.trap() #2

; Function Attrs: noreturn
declare void @x86_jump_intrin(%struct.x86_config*, %struct.x86_regs*, i64) #3

; Function Attrs: nounwind readnone
declare { i8, i1 } @llvm.uadd.with.overflow.i8(i8, i8) #4

; Function Attrs: nounwind readnone
declare { i8, i1 } @llvm.sadd.with.overflow.i8(i8, i8) #4

; Function Attrs: nounwind readnone
declare { i32, i1 } @llvm.ssub.with.overflow.i32(i32, i32) #4

; Function Attrs: nounwind readnone
declare i32 @llvm.ctpop.i32(i32) #4

define %clc.return @fcd.asm() !fcd.asm !1676 {
  %1 = call %clc.return @fcd.placeholder.1()
  ret %clc.return %1
}

declare extern_weak %clc.return @fcd.placeholder.1()

define %loopne.return @fcd.asm.2() !fcd.asm !1677 {
  %1 = call %loopne.return @fcd.placeholder.3()
  ret %loopne.return %1
}

declare extern_weak %loopne.return @fcd.placeholder.3()

define %loopne.return.0 @fcd.asm.4() !fcd.asm !1678 {
  %1 = call %loopne.return.0 @fcd.placeholder.5()
  ret %loopne.return.0 %1
}

declare extern_weak %loopne.return.0 @fcd.placeholder.5()

define void @_init(%struct.x86_regs*) !fcd.vaddr !1679 !fcd.recoverable !3 {
entry:
  %1 = getelementptr inbounds %struct.x86_regs, %struct.x86_regs* %0, i64 0, i32 9, i32 0
  %2 = load i64, i64* %1, align 8, !tbaa !4, !alias.scope !1680
  %3 = getelementptr inbounds %struct.x86_regs, %struct.x86_regs* %0, i64 0, i32 8, i32 0
  %4 = load i64, i64* %3, align 8, !tbaa !4, !alias.scope !1683
  %5 = add i64 %4, -8
  %6 = inttoptr i64 %5 to i64*
  store i64 %2, i64* %6, align 4, !fcd.prgmem !3
  %7 = add i64 %4, -16
  store i64 %7, i64* %3, align 8, !tbaa !4, !alias.scope !1688, !noalias !1695
  store i64 1283, i64* %1, align 4
  %8 = load i64, i64* inttoptr (i64 2101216 to i64*), align 32
  %9 = getelementptr inbounds %struct.x86_regs, %struct.x86_regs* %0, i64 0, i32 1, i32 0
  store i64 %8, i64* %9, align 8, !tbaa !4, !alias.scope !1697, !noalias !1706
  %10 = icmp eq i64 %8, 0
  store i64 1288, i64* %1, align 4
  br i1 %10, label %11, label %"0508"

; <label>:11:                                     ; preds = %entry
  br label %"050a"

"0508":                                           ; preds = %entry
  store i64 1290, i64* %1, align 4
  tail call void @x86_call_intrin(%struct.x86_config* nonnull @config, %struct.x86_regs* nonnull %0, i64 %8)
  %.pre = load i64, i64* %3, align 8, !tbaa !4, !alias.scope !1709, !noalias !1716
  br label %"050a"

"050a":                                           ; preds = %11, %"0508"
  %12 = phi i64 [ %7, %11 ], [ %.pre, %"0508" ]
  %13 = add i64 %12, 8
  %14 = inttoptr i64 %13 to i64*
  %15 = load i64, i64* %14, align 4, !fcd.prgmem !3
  %16 = add i64 %12, 16
  store i64 %16, i64* %3, align 8, !tbaa !4, !alias.scope !1718
  store i64 %15, i64* %1, align 8, !tbaa !4, !alias.scope !1723
  ret void
}

define void @_start(%struct.x86_regs*) !fcd.vaddr !1726 !fcd.recoverable !3 {
entry:
  %1 = getelementptr inbounds %struct.x86_regs, %struct.x86_regs* %0, i64 0, i32 9, i32 0
  %2 = load i64, i64* %1, align 8
  %3 = getelementptr inbounds %struct.x86_regs, %struct.x86_regs* %0, i64 0, i32 8, i32 0
  %4 = load i64, i64* %3, align 8, !tbaa !4, !alias.scope !1727
  %5 = add i64 %4, -8
  %6 = inttoptr i64 %5 to i64*
  store i64 %2, i64* %6, align 4, !fcd.prgmem !3
  %7 = getelementptr inbounds %struct.x86_regs, %struct.x86_regs* %0, i64 0, i32 7, i32 0
  store i64 0, i64* %7, align 8, !tbaa !4, !alias.scope !1748, !noalias !1755
  %8 = getelementptr inbounds %struct.x86_regs, %struct.x86_regs* %0, i64 0, i32 4, i32 0
  %9 = load i64, i64* %8, align 8, !tbaa !4, !alias.scope !1757, !noalias !1766
  %10 = getelementptr inbounds %struct.x86_regs, %struct.x86_regs* %0, i64 0, i32 11, i32 0
  store i64 %9, i64* %10, align 8, !tbaa !4, !alias.scope !1769, !noalias !1776
  %11 = getelementptr inbounds %struct.x86_regs, %struct.x86_regs* %0, i64 0, i32 5, i32 0
  store i64 %2, i64* %11, align 8, !tbaa !4, !alias.scope !1778, !noalias !1785
  store i64 %4, i64* %8, align 8, !tbaa !4, !alias.scope !1787, !noalias !1794
  %12 = and i64 %4, -16
  %13 = getelementptr inbounds %struct.x86_regs, %struct.x86_regs* %0, i64 0, i32 1, i32 0
  %14 = load i64, i64* %13, align 8, !tbaa !4, !alias.scope !1797, !noalias !1804
  %15 = add i64 %12, -8
  %16 = inttoptr i64 %15 to i64*
  store i64 %14, i64* %16, align 8, !fcd.prgmem !3
  %17 = add i64 %12, -16
  %18 = inttoptr i64 %17 to i64*
  store i64 %15, i64* %18, align 16, !fcd.prgmem !3
  store i64 %17, i64* %3, align 8, !tbaa !4, !alias.scope !1806
  %19 = getelementptr inbounds %struct.x86_regs, %struct.x86_regs* %0, i64 0, i32 10, i32 0
  store i64 1808, i64* %19, align 8, !tbaa !4, !alias.scope !1811, !noalias !1818
  %20 = getelementptr inbounds %struct.x86_regs, %struct.x86_regs* %0, i64 0, i32 3, i32 0
  store i64 1696, i64* %20, align 8, !tbaa !4, !alias.scope !1820, !noalias !1827
  %21 = getelementptr inbounds %struct.x86_regs, %struct.x86_regs* %0, i64 0, i32 6, i32 0
  store i64 1678, i64* %21, align 8, !tbaa !4, !alias.scope !1829, !noalias !1836
  store i64 1370, i64* %1, align 4
  %22 = load i64, i64* inttoptr (i64 2101208 to i64*), align 8, !fcd.prgmem !3
  tail call void @x86_call_intrin(%struct.x86_config* nonnull @config, %struct.x86_regs* nonnull %0, i64 %22)
  store i64 1371, i64* %1, align 4
  tail call void @llvm.trap()
  unreachable
}

define void @deregister_tm_clones(%struct.x86_regs*) !fcd.vaddr !1838 !fcd.recoverable !3 {
entry:
  %1 = getelementptr inbounds %struct.x86_regs, %struct.x86_regs* %0, i64 0, i32 9, i32 0
  %2 = load i64, i64* %1, align 8, !tbaa !4, !alias.scope !1839
  %3 = getelementptr inbounds %struct.x86_regs, %struct.x86_regs* %0, i64 0, i32 8, i32 0
  %4 = load i64, i64* %3, align 8, !tbaa !4, !alias.scope !1842
  %5 = add i64 %4, -8
  %6 = inttoptr i64 %5 to i64*
  store i64 %2, i64* %6, align 4, !fcd.prgmem !3
  %7 = getelementptr inbounds %struct.x86_regs, %struct.x86_regs* %0, i64 0, i32 6, i32 0
  store i64 2101264, i64* %7, align 8, !tbaa !4, !alias.scope !1847, !noalias !1854
  %8 = getelementptr inbounds %struct.x86_regs, %struct.x86_regs* %0, i64 0, i32 1, i32 0
  %9 = getelementptr inbounds %struct.x86_regs, %struct.x86_regs* %0, i64 0, i32 7, i32 0
  %10 = load i64, i64* %9, align 8, !tbaa !4, !alias.scope !1856, !noalias !1863
  %11 = add i64 %4, -16
  %12 = inttoptr i64 %11 to i64*
  store i64 %10, i64* %12, align 4, !fcd.prgmem !3
  store i64 %11, i64* %3, align 8, !tbaa !4, !alias.scope !1865
  store i64 7, i64* %8, align 8, !tbaa !4, !alias.scope !1870, !noalias !1877
  store i64 %11, i64* %9, align 8, !tbaa !4, !alias.scope !1879, !noalias !1888
  store i64 1403, i64* %1, align 4
  br i1 false, label %"057b", label %13

; <label>:13:                                     ; preds = %entry
  br label %"0590"

"057b":                                           ; preds = %entry
  br i1 undef, label %"0587", label %14

; <label>:14:                                     ; preds = %"057b"
  br label %"0590"

"0587":                                           ; preds = %"057b"
  unreachable

"0590":                                           ; preds = %13, %14
  store i64 %10, i64* %9, align 8, !tbaa !4, !alias.scope !1891, !noalias !1898
  %15 = load i64, i64* %6, align 4, !fcd.prgmem !3
  store i64 %4, i64* %3, align 8, !tbaa !4, !alias.scope !1900
  store i64 %15, i64* %1, align 8, !tbaa !4, !alias.scope !1905
  ret void
}

define void @register_tm_clones(%struct.x86_regs*) !fcd.vaddr !1908 !fcd.recoverable !3 {
entry:
  %1 = getelementptr inbounds %struct.x86_regs, %struct.x86_regs* %0, i64 0, i32 9, i32 0
  %2 = load i64, i64* %1, align 8, !tbaa !4, !alias.scope !1909
  %3 = getelementptr inbounds %struct.x86_regs, %struct.x86_regs* %0, i64 0, i32 8, i32 0
  %4 = load i64, i64* %3, align 8, !tbaa !4, !alias.scope !1912
  %5 = add i64 %4, -8
  %6 = inttoptr i64 %5 to i64*
  store i64 %2, i64* %6, align 4, !fcd.prgmem !3
  %7 = getelementptr inbounds %struct.x86_regs, %struct.x86_regs* %0, i64 0, i32 6, i32 0
  store i64 2101264, i64* %7, align 8, !tbaa !4, !alias.scope !1917, !noalias !1924
  %8 = getelementptr inbounds %struct.x86_regs, %struct.x86_regs* %0, i64 0, i32 5, i32 0
  %9 = getelementptr inbounds %struct.x86_regs, %struct.x86_regs* %0, i64 0, i32 7, i32 0
  %10 = load i64, i64* %9, align 8, !tbaa !4, !alias.scope !1926, !noalias !1933
  %11 = add i64 %4, -16
  %12 = inttoptr i64 %11 to i64*
  store i64 %10, i64* %12, align 4, !fcd.prgmem !3
  store i64 %11, i64* %3, align 8, !tbaa !4, !alias.scope !1935
  store i64 %11, i64* %9, align 8, !tbaa !4, !alias.scope !1940, !noalias !1949
  %13 = getelementptr inbounds %struct.x86_regs, %struct.x86_regs* %0, i64 0, i32 1, i32 0
  store i64 0, i64* %13, align 8, !tbaa !4, !alias.scope !1952, !noalias !1959
  store i64 0, i64* %8, align 8, !tbaa !4, !alias.scope !1961, !noalias !1968
  store i64 1480, i64* %1, align 4
  br i1 false, label %"05c8", label %14

; <label>:14:                                     ; preds = %entry
  br label %"05e0"

"05c8":                                           ; preds = %entry
  br i1 undef, label %"05d4", label %15

; <label>:15:                                     ; preds = %"05c8"
  br label %"05e0"

"05d4":                                           ; preds = %"05c8"
  unreachable

"05e0":                                           ; preds = %14, %15
  store i64 %10, i64* %9, align 8, !tbaa !4, !alias.scope !1970, !noalias !1977
  %16 = load i64, i64* %6, align 4, !fcd.prgmem !3
  store i64 %4, i64* %3, align 8, !tbaa !4, !alias.scope !1979
  store i64 %16, i64* %1, align 8, !tbaa !4, !alias.scope !1984
  ret void
}

define void @__do_global_dtors_aux(%struct.x86_regs*) !fcd.vaddr !1987 !fcd.recoverable !3 {
entry:
  %1 = getelementptr inbounds %struct.x86_regs, %struct.x86_regs* %0, i64 0, i32 9, i32 0
  %2 = load i64, i64* %1, align 8, !tbaa !4, !alias.scope !1988
  %3 = getelementptr inbounds %struct.x86_regs, %struct.x86_regs* %0, i64 0, i32 8, i32 0
  %4 = load i64, i64* %3, align 8, !tbaa !4, !alias.scope !1991
  %5 = add i64 %4, -8
  %6 = inttoptr i64 %5 to i64*
  store i64 %2, i64* %6, align 4, !fcd.prgmem !3
  store i64 %5, i64* %3, align 8, !tbaa !4, !alias.scope !1996
  %7 = load i8, i8* inttoptr (i64 2101264 to i8*), align 16
  %8 = icmp eq i8 %7, 0
  store i64 1529, i64* %1, align 4
  br i1 %8, label %"05f9", label %9

; <label>:9:                                      ; preds = %entry
  br label %"0620"

"05f9":                                           ; preds = %entry
  %10 = load i64, i64* inttoptr (i64 2101240 to i64*), align 8, !fcd.prgmem !3
  %11 = icmp eq i64 %10, 0
  %12 = getelementptr inbounds %struct.x86_regs, %struct.x86_regs* %0, i64 0, i32 7, i32 0
  %13 = load i64, i64* %12, align 8, !tbaa !4, !alias.scope !1999, !noalias !2006
  %14 = add i64 %4, -16
  %15 = inttoptr i64 %14 to i64*
  store i64 %13, i64* %15, align 4, !fcd.prgmem !3
  store i64 %14, i64* %3, align 8, !tbaa !4, !alias.scope !2008
  store i64 %14, i64* %12, align 8, !tbaa !4, !alias.scope !2013, !noalias !2022
  store i64 1543, i64* %1, align 4
  br i1 %11, label %16, label %"0607"

; <label>:16:                                     ; preds = %"05f9"
  br label %"0613"

"0607":                                           ; preds = %"05f9"
  %17 = load i64, i64* inttoptr (i64 2101256 to i64*), align 8, !fcd.prgmem !3
  %18 = getelementptr inbounds %struct.x86_regs, %struct.x86_regs* %0, i64 0, i32 6, i32 0
  store i64 %17, i64* %18, align 8, !tbaa !4, !alias.scope !2025, !noalias !2034
  store i64 1555, i64* %1, align 4
  call void @__cxa_finalize(%struct.x86_regs* %0)
  br label %"0613"

"0613":                                           ; preds = %16, %"0607"
  store i64 1560, i64* %1, align 4
  call void @deregister_tm_clones(%struct.x86_regs* %0)
  %19 = load i64, i64* %3, align 8, !tbaa !4, !alias.scope !2037
  %20 = inttoptr i64 %19 to i64*
  %21 = load i64, i64* %20, align 4, !fcd.prgmem !3
  %22 = add i64 %19, 8
  store i64 %22, i64* %3, align 8, !tbaa !4, !alias.scope !2042
  store i64 %21, i64* %12, align 8, !tbaa !4, !alias.scope !2045, !noalias !2052
  store i64 1568, i64* %1, align 4
  store i8 1, i8* inttoptr (i64 2101264 to i8*), align 16, !fcd.prgmem !3
  %.phi.trans.insert = inttoptr i64 %22 to i64*
  %.pre = load i64, i64* %.phi.trans.insert, align 4
  br label %"0620"

"0620":                                           ; preds = %9, %"0613"
  %23 = phi i64 [ %2, %9 ], [ %.pre, %"0613" ]
  %24 = phi i64 [ %5, %9 ], [ %22, %"0613" ]
  %25 = add i64 %24, 8
  store i64 %25, i64* %3, align 8, !tbaa !4, !alias.scope !2054
  store i64 %23, i64* %1, align 8, !tbaa !4, !alias.scope !2059
  ret void
}

define void @__cxa_finalize(%struct.x86_regs*) !fcd.vaddr !2062 !fcd.recoverable !3 {
entry:
  %1 = getelementptr inbounds %struct.x86_regs, %struct.x86_regs* %0, i64 0, i32 9, i32 0
  %2 = load i64, i64* %1, align 8, !tbaa !4, !alias.scope !2063
  %3 = getelementptr inbounds %struct.x86_regs, %struct.x86_regs* %0, i64 0, i32 8, i32 0
  %4 = load i64, i64* %3, align 8, !tbaa !4, !alias.scope !2066
  %5 = add i64 %4, -8
  %6 = inttoptr i64 %5 to i64*
  store i64 %2, i64* %6, align 4, !fcd.prgmem !3
  store i64 %5, i64* %3, align 8, !tbaa !4, !alias.scope !2071
  store i64 1318, i64* %1, align 4
  %7 = load i64, i64* inttoptr (i64 2101240 to i64*), align 8, !fcd.prgmem !3
  tail call void @x86_jump_intrin(%struct.x86_config* nonnull @config, %struct.x86_regs* nonnull %0, i64 %7) #6
  unreachable
}

define void @frame_dummy(%struct.x86_regs*) !fcd.vaddr !2074 !fcd.recoverable !3 {
entry:
  %1 = getelementptr inbounds %struct.x86_regs, %struct.x86_regs* %0, i64 0, i32 9, i32 0
  %2 = load i64, i64* %1, align 8, !tbaa !4, !alias.scope !2075
  %3 = getelementptr inbounds %struct.x86_regs, %struct.x86_regs* %0, i64 0, i32 8, i32 0
  %4 = load i64, i64* %3, align 8, !tbaa !4, !alias.scope !2078
  %5 = add i64 %4, -8
  %6 = inttoptr i64 %5 to i64*
  store i64 %2, i64* %6, align 4, !fcd.prgmem !3
  store i64 %5, i64* %3, align 8, !tbaa !4, !alias.scope !2083
  %7 = getelementptr inbounds %struct.x86_regs, %struct.x86_regs* %0, i64 0, i32 6, i32 0
  store i64 2100720, i64* %7, align 8, !tbaa !4, !alias.scope !2086, !noalias !2093
  %8 = load i64, i64* inttoptr (i64 2100720 to i64*), align 16, !fcd.prgmem !3
  %9 = icmp eq i64 %8, 0
  store i64 1597, i64* %1, align 4
  br i1 %9, label %13, label %"0648"

"0648":                                           ; preds = %entry
  store i64 1615, i64* %1, align 4
  %10 = load i64, i64* inttoptr (i64 2101224 to i64*), align 8
  %11 = getelementptr inbounds %struct.x86_regs, %struct.x86_regs* %0, i64 0, i32 1, i32 0
  store i64 %10, i64* %11, align 8, !tbaa !4, !alias.scope !2095, !noalias !2104
  %12 = icmp eq i64 %10, 0
  store i64 1620, i64* %1, align 4
  br i1 %12, label %24, label %"0654"

; <label>:13:                                     ; preds = %entry
  %.pre20 = getelementptr inbounds %struct.x86_regs, %struct.x86_regs* %0, i64 0, i32 1, i32 0
  br label %"063d"

"063d":                                           ; preds = %24, %13
  %.pre5.pre-phi = phi i64* [ %11, %24 ], [ %.pre20, %13 ]
  store i64 1602, i64* %1, align 4
  %.phi.trans.insert = getelementptr inbounds %struct.x86_regs, %struct.x86_regs* %0, i64 0, i32 7, i32 0
  %.pre = load i64, i64* %.phi.trans.insert, align 8, !tbaa !4, !alias.scope !2107, !noalias !2114
  br label %"05a0"

"05a0":                                           ; preds = %"0654", %"063d"
  %.pre-phi6 = phi i64* [ %11, %"0654" ], [ %.pre5.pre-phi, %"063d" ]
  %.pre-phi = phi i64* [ %25, %"0654" ], [ %.phi.trans.insert, %"063d" ]
  %14 = phi i64 [ %32, %"0654" ], [ %5, %"063d" ]
  %15 = phi i64 [ %31, %"0654" ], [ %.pre, %"063d" ]
  store i64 2101264, i64* %7, align 8, !tbaa !4, !alias.scope !2116, !noalias !2123
  %16 = getelementptr inbounds %struct.x86_regs, %struct.x86_regs* %0, i64 0, i32 5, i32 0
  %17 = add i64 %14, -8
  %18 = inttoptr i64 %17 to i64*
  store i64 %15, i64* %18, align 4, !fcd.prgmem !3
  store i64 %17, i64* %3, align 8, !tbaa !4, !alias.scope !2125
  store i64 %17, i64* %.pre-phi, align 8, !tbaa !4, !alias.scope !2130, !noalias !2139
  store i64 0, i64* %.pre-phi6, align 8, !tbaa !4, !alias.scope !2142, !noalias !2149
  store i64 0, i64* %16, align 8, !tbaa !4, !alias.scope !2151, !noalias !2158
  store i64 1480, i64* %1, align 4
  br i1 false, label %"05c8", label %19

; <label>:19:                                     ; preds = %"05a0"
  br label %"05e0"

"05c8":                                           ; preds = %"05a0"
  br i1 undef, label %"05d4", label %20

; <label>:20:                                     ; preds = %"05c8"
  br label %"05e0"

"05d4":                                           ; preds = %"05c8"
  unreachable

"05e0":                                           ; preds = %19, %20
  store i64 %15, i64* %.pre-phi, align 8, !tbaa !4, !alias.scope !2160, !noalias !2167
  %21 = inttoptr i64 %14 to i64*
  %22 = load i64, i64* %21, align 4, !fcd.prgmem !3
  %23 = add i64 %14, 8
  store i64 %23, i64* %3, align 8, !tbaa !4, !alias.scope !2169
  store i64 %22, i64* %1, align 8, !tbaa !4, !alias.scope !2174
  ret void

; <label>:24:                                     ; preds = %"0648"
  br label %"063d"

"0654":                                           ; preds = %"0648"
  %25 = getelementptr inbounds %struct.x86_regs, %struct.x86_regs* %0, i64 0, i32 7, i32 0
  %26 = load i64, i64* %25, align 8, !tbaa !4, !alias.scope !2177, !noalias !2184
  %27 = add i64 %4, -16
  %28 = inttoptr i64 %27 to i64*
  store i64 %26, i64* %28, align 4, !fcd.prgmem !3
  store i64 %27, i64* %3, align 8, !tbaa !4, !alias.scope !2186
  store i64 %27, i64* %25, align 8, !tbaa !4, !alias.scope !2191, !noalias !2200
  store i64 1626, i64* %1, align 4
  tail call void @x86_call_intrin(%struct.x86_config* nonnull @config, %struct.x86_regs* nonnull %0, i64 %10)
  %29 = load i64, i64* %3, align 8, !tbaa !4, !alias.scope !2203
  %30 = inttoptr i64 %29 to i64*
  %31 = load i64, i64* %30, align 4, !fcd.prgmem !3
  %32 = add i64 %29, 8
  store i64 %32, i64* %3, align 8, !tbaa !4, !alias.scope !2208
  store i64 %31, i64* %25, align 8, !tbaa !4, !alias.scope !2211, !noalias !2218
  store i64 1632, i64* %1, align 4
  br label %"05a0"
}

define void @sum_2_n(%struct.x86_regs*) !fcd.vaddr !2220 !fcd.recoverable !3 {
entry:
  %1 = getelementptr inbounds %struct.x86_regs, %struct.x86_regs* %0, i64 0, i32 9, i32 0
  %2 = load i64, i64* %1, align 8, !tbaa !4, !alias.scope !2221
  %3 = getelementptr inbounds %struct.x86_regs, %struct.x86_regs* %0, i64 0, i32 8, i32 0
  %4 = load i64, i64* %3, align 8, !tbaa !4, !alias.scope !2224
  %5 = add i64 %4, -8
  %6 = inttoptr i64 %5 to i64*
  store i64 %2, i64* %6, align 4, !fcd.prgmem !3
  %7 = getelementptr inbounds %struct.x86_regs, %struct.x86_regs* %0, i64 0, i32 7, i32 0
  %8 = load i64, i64* %7, align 8, !tbaa !4, !alias.scope !2229, !noalias !2236
  %9 = add i64 %4, -16
  %10 = inttoptr i64 %9 to i64*
  store i64 %8, i64* %10, align 4, !fcd.prgmem !3
  store i64 %9, i64* %3, align 8, !tbaa !4, !alias.scope !2238
  store i64 %9, i64* %7, align 8, !tbaa !4, !alias.scope !2243, !noalias !2252
  %11 = getelementptr inbounds %struct.x86_regs, %struct.x86_regs* %0, i64 0, i32 6, i32 0
  %12 = bitcast i64* %11 to i32*
  %13 = load i32, i32* %12, align 4, !tbaa !1142, !alias.scope !2255, !noalias !2264
  %14 = add i64 %4, -36
  %15 = inttoptr i64 %14 to i32*
  store i32 %13, i32* %15, align 4, !fcd.prgmem !3
  %16 = add i64 %4, -24
  %17 = inttoptr i64 %16 to i32*
  store i32 0, i32* %17, align 4, !fcd.prgmem !3
  %18 = add i64 %4, -20
  %19 = inttoptr i64 %18 to i32*
  store i32 0, i32* %19, align 4, !fcd.prgmem !3
  store i64 1655, i64* %1, align 4
  br label %"0681"

"0681":                                           ; preds = %"0677", %entry
  %20 = phi i32 [ %34, %"0677" ], [ 0, %entry ]
  %21 = zext i32 %20 to i64
  %22 = getelementptr inbounds %struct.x86_regs, %struct.x86_regs* %0, i64 0, i32 1, i32 0
  store i64 %21, i64* %22, align 8, !tbaa !4, !alias.scope !2267, !noalias !2276
  %23 = load i32, i32* %15, align 4, !fcd.prgmem !3
  %24 = sub i32 %20, %23
  %25 = tail call { i32, i1 } @llvm.ssub.with.overflow.i32(i32 %20, i32 %23) #5
  %26 = extractvalue { i32, i1 } %25, 1
  %27 = zext i1 %26 to i8
  %28 = lshr i32 %24, 31
  %29 = trunc i32 %28 to i8
  store i64 1673, i64* %1, align 4
  %30 = icmp eq i8 %29, %27
  br i1 %30, label %"0689", label %"0677"

"0677":                                           ; preds = %"0681"
  store i64 %21, i64* %22, align 8, !tbaa !4, !alias.scope !2279, !noalias !2288
  %31 = load i32, i32* %17, align 4, !fcd.prgmem !3
  %32 = add i32 %31, %20
  store i32 %32, i32* %17, align 4, !fcd.prgmem !3
  store i64 1665, i64* %1, align 4
  %33 = load i32, i32* %19, align 4, !fcd.prgmem !3
  %34 = add i32 %33, 1
  store i32 %34, i32* %19, align 4, !fcd.prgmem !3
  br label %"0681"

"0689":                                           ; preds = %"0681"
  %35 = load i32, i32* %17, align 4, !fcd.prgmem !3
  %36 = zext i32 %35 to i64
  store i64 %36, i64* %22, align 8, !tbaa !4, !alias.scope !2291, !noalias !2300
  %37 = load i64, i64* %10, align 4, !fcd.prgmem !3
  store i64 %37, i64* %7, align 8, !tbaa !4, !alias.scope !2303, !noalias !2310
  %38 = load i64, i64* %6, align 4, !fcd.prgmem !3
  store i64 %4, i64* %3, align 8, !tbaa !4, !alias.scope !2312
  store i64 %38, i64* %1, align 8, !tbaa !4, !alias.scope !2317
  ret void
}

define void @main(%struct.x86_regs*) !fcd.vaddr !2320 !fcd.recoverable !3 {
entry:
  %1 = getelementptr inbounds %struct.x86_regs, %struct.x86_regs* %0, i64 0, i32 9, i32 0
  %2 = load i64, i64* %1, align 8, !tbaa !4, !alias.scope !2321
  %3 = getelementptr inbounds %struct.x86_regs, %struct.x86_regs* %0, i64 0, i32 8, i32 0
  %4 = load i64, i64* %3, align 8, !tbaa !4, !alias.scope !2324
  %5 = add i64 %4, -8
  %6 = inttoptr i64 %5 to i64*
  store i64 %2, i64* %6, align 4, !fcd.prgmem !3
  %7 = getelementptr inbounds %struct.x86_regs, %struct.x86_regs* %0, i64 0, i32 7, i32 0
  %8 = load i64, i64* %7, align 8, !tbaa !4, !alias.scope !2329, !noalias !2336
  %9 = add i64 %4, -16
  %10 = inttoptr i64 %9 to i64*
  store i64 %8, i64* %10, align 4, !fcd.prgmem !3
  store i64 %9, i64* %3, align 8, !tbaa !4, !alias.scope !2338
  store i64 %9, i64* %7, align 8, !tbaa !4, !alias.scope !2343, !noalias !2352
  %11 = getelementptr inbounds %struct.x86_regs, %struct.x86_regs* %0, i64 0, i32 6, i32 0
  store i64 10, i64* %11, align 8, !tbaa !4, !alias.scope !2355, !noalias !2364
  store i64 1692, i64* %1, align 4
  call void @sum_2_n(%struct.x86_regs* %0)
  %12 = load i64, i64* %3, align 8, !tbaa !4, !alias.scope !2367
  %13 = inttoptr i64 %12 to i64*
  %14 = load i64, i64* %13, align 4, !fcd.prgmem !3
  %15 = add i64 %12, 8
  store i64 %14, i64* %7, align 8, !tbaa !4, !alias.scope !2372, !noalias !2379
  %16 = inttoptr i64 %15 to i64*
  %17 = load i64, i64* %16, align 4, !fcd.prgmem !3
  %18 = add i64 %12, 16
  store i64 %18, i64* %3, align 8, !tbaa !4, !alias.scope !2381
  store i64 %17, i64* %1, align 8, !tbaa !4, !alias.scope !2386
  ret void
}

define void @__libc_csu_init(%struct.x86_regs*) !fcd.vaddr !2389 !fcd.recoverable !3 {
entry:
  %1 = getelementptr inbounds %struct.x86_regs, %struct.x86_regs* %0, i64 0, i32 9, i32 0
  %2 = load i64, i64* %1, align 8, !tbaa !4, !alias.scope !2390
  %3 = getelementptr inbounds %struct.x86_regs, %struct.x86_regs* %0, i64 0, i32 8, i32 0
  %4 = load i64, i64* %3, align 8, !tbaa !4, !alias.scope !2393
  %5 = add i64 %4, -8
  %6 = inttoptr i64 %5 to i64*
  store i64 %2, i64* %6, align 4, !fcd.prgmem !3
  %7 = getelementptr inbounds %struct.x86_regs, %struct.x86_regs* %0, i64 0, i32 17, i32 0
  %8 = load i64, i64* %7, align 8, !tbaa !4, !alias.scope !2398, !noalias !2405
  %9 = add i64 %4, -16
  %10 = inttoptr i64 %9 to i64*
  store i64 %8, i64* %10, align 4, !fcd.prgmem !3
  %11 = getelementptr inbounds %struct.x86_regs, %struct.x86_regs* %0, i64 0, i32 16, i32 0
  %12 = load i64, i64* %11, align 8, !tbaa !4, !alias.scope !2407, !noalias !2414
  %13 = add i64 %4, -24
  %14 = inttoptr i64 %13 to i64*
  store i64 %12, i64* %14, align 4, !fcd.prgmem !3
  %15 = getelementptr inbounds %struct.x86_regs, %struct.x86_regs* %0, i64 0, i32 6, i32 0
  %16 = bitcast i64* %15 to i32*
  %17 = load i32, i32* %16, align 4, !tbaa !1142, !alias.scope !2416, !noalias !2425
  %18 = zext i32 %17 to i64
  store i64 %18, i64* %7, align 8, !tbaa !4, !alias.scope !2428, !noalias !2435
  %19 = getelementptr inbounds %struct.x86_regs, %struct.x86_regs* %0, i64 0, i32 15, i32 0
  %20 = load i64, i64* %19, align 8, !tbaa !4, !alias.scope !2437, !noalias !2444
  %21 = add i64 %4, -32
  %22 = inttoptr i64 %21 to i64*
  store i64 %20, i64* %22, align 4, !fcd.prgmem !3
  %23 = getelementptr inbounds %struct.x86_regs, %struct.x86_regs* %0, i64 0, i32 14, i32 0
  %24 = load i64, i64* %23, align 8, !tbaa !4, !alias.scope !2446, !noalias !2453
  %25 = add i64 %4, -40
  %26 = inttoptr i64 %25 to i64*
  store i64 %24, i64* %26, align 4, !fcd.prgmem !3
  store i64 2100704, i64* %23, align 8, !tbaa !4, !alias.scope !2455, !noalias !2462
  %27 = getelementptr inbounds %struct.x86_regs, %struct.x86_regs* %0, i64 0, i32 7, i32 0
  %28 = load i64, i64* %27, align 8, !tbaa !4, !alias.scope !2464, !noalias !2471
  %29 = add i64 %4, -48
  %30 = inttoptr i64 %29 to i64*
  store i64 %28, i64* %30, align 4, !fcd.prgmem !3
  %31 = getelementptr inbounds %struct.x86_regs, %struct.x86_regs* %0, i64 0, i32 2, i32 0
  %32 = load i64, i64* %31, align 8, !tbaa !4, !alias.scope !2473, !noalias !2480
  %33 = add i64 %4, -56
  %34 = inttoptr i64 %33 to i64*
  store i64 %32, i64* %34, align 4, !fcd.prgmem !3
  %35 = getelementptr inbounds %struct.x86_regs, %struct.x86_regs* %0, i64 0, i32 5, i32 0
  %36 = load i64, i64* %35, align 8, !tbaa !4, !alias.scope !2482, !noalias !2491
  store i64 %36, i64* %11, align 8, !tbaa !4, !alias.scope !2494, !noalias !2501
  %37 = getelementptr inbounds %struct.x86_regs, %struct.x86_regs* %0, i64 0, i32 4, i32 0
  %38 = load i64, i64* %37, align 8, !tbaa !4, !alias.scope !2503, !noalias !2512
  store i64 %38, i64* %19, align 8, !tbaa !4, !alias.scope !2515, !noalias !2522
  %39 = add i64 %4, -64
  store i64 %39, i64* %3, align 8, !tbaa !4, !alias.scope !2524, !noalias !2531
  store i64 1, i64* %27, align 8, !tbaa !4, !alias.scope !2533, !noalias !2540
  store i64 1745, i64* %1, align 4
  call void @_init(%struct.x86_regs* %0)
  %40 = load i64, i64* %27, align 8, !tbaa !4, !alias.scope !2542, !noalias !2557
  %41 = icmp eq i64 %40, 0
  store i64 1750, i64* %1, align 4
  br i1 %41, label %42, label %"06d6"

; <label>:42:                                     ; preds = %entry
  br label %"06f6"

"06d6":                                           ; preds = %entry
  store i64 0, i64* %31, align 8, !tbaa !4, !alias.scope !2560, !noalias !2567
  store i64 1760, i64* %1, align 4
  br label %"06e0"

"06e0":                                           ; preds = %58, %"06d6"
  %43 = phi i64 [ %55, %58 ], [ 0, %"06d6" ]
  %44 = load i64, i64* %19, align 8, !tbaa !4, !alias.scope !2569, !noalias !2578
  store i64 %44, i64* %37, align 8, !tbaa !4, !alias.scope !2581, !noalias !2588
  %45 = load i64, i64* %11, align 8, !tbaa !4, !alias.scope !2590, !noalias !2599
  store i64 %45, i64* %35, align 8, !tbaa !4, !alias.scope !2602, !noalias !2609
  %46 = bitcast i64* %7 to i32*
  %47 = load i32, i32* %46, align 4, !tbaa !1142, !alias.scope !2611, !noalias !2620
  %48 = zext i32 %47 to i64
  store i64 %48, i64* %15, align 8, !tbaa !4, !alias.scope !2623, !noalias !2630
  store i64 1773, i64* %1, align 4
  %49 = shl i64 %43, 3
  %50 = load i64, i64* %23, align 8, !tbaa !4, !alias.scope !2632, !noalias !2641
  %51 = add i64 %50, %49
  %52 = inttoptr i64 %51 to i64*
  %53 = load i64, i64* %52, align 4, !fcd.prgmem !3
  tail call void @x86_call_intrin(%struct.x86_config* nonnull @config, %struct.x86_regs* nonnull %0, i64 %53)
  %54 = load i64, i64* %31, align 8, !tbaa !4, !alias.scope !2645, !noalias !2652
  %55 = add i64 %54, 1
  store i64 %55, i64* %31, align 8, !tbaa !4, !alias.scope !2654, !noalias !2661
  %56 = load i64, i64* %27, align 8, !tbaa !4, !alias.scope !2663, !noalias !2670
  %57 = icmp eq i64 %56, %55
  store i64 1782, i64* %1, align 4
  br i1 %57, label %59, label %58

; <label>:58:                                     ; preds = %"06e0"
  br label %"06e0"

; <label>:59:                                     ; preds = %"06e0"
  br label %"06f6"

"06f6":                                           ; preds = %42, %59
  %60 = load i64, i64* %3, align 8, !tbaa !4, !alias.scope !2672, !noalias !2679
  %61 = add i64 %60, 8
  %62 = inttoptr i64 %61 to i64*
  %63 = load i64, i64* %62, align 4, !fcd.prgmem !3
  %64 = add i64 %60, 16
  store i64 %63, i64* %31, align 8, !tbaa !4, !alias.scope !2681, !noalias !2688
  %65 = inttoptr i64 %64 to i64*
  %66 = load i64, i64* %65, align 4, !fcd.prgmem !3
  %67 = add i64 %60, 24
  store i64 %66, i64* %27, align 8, !tbaa !4, !alias.scope !2690, !noalias !2697
  %68 = inttoptr i64 %67 to i64*
  %69 = load i64, i64* %68, align 4, !fcd.prgmem !3
  %70 = add i64 %60, 32
  store i64 %69, i64* %23, align 8, !tbaa !4, !alias.scope !2699, !noalias !2706
  %71 = inttoptr i64 %70 to i64*
  %72 = load i64, i64* %71, align 4, !fcd.prgmem !3
  %73 = add i64 %60, 40
  store i64 %72, i64* %19, align 8, !tbaa !4, !alias.scope !2708, !noalias !2715
  %74 = inttoptr i64 %73 to i64*
  %75 = load i64, i64* %74, align 4, !fcd.prgmem !3
  %76 = add i64 %60, 48
  store i64 %75, i64* %11, align 8, !tbaa !4, !alias.scope !2717, !noalias !2724
  %77 = inttoptr i64 %76 to i64*
  %78 = load i64, i64* %77, align 4, !fcd.prgmem !3
  %79 = add i64 %60, 56
  store i64 %78, i64* %7, align 8, !tbaa !4, !alias.scope !2726, !noalias !2733
  %80 = inttoptr i64 %79 to i64*
  %81 = load i64, i64* %80, align 4, !fcd.prgmem !3
  %82 = add i64 %60, 64
  store i64 %82, i64* %3, align 8, !tbaa !4, !alias.scope !2735
  store i64 %81, i64* %1, align 8, !tbaa !4, !alias.scope !2740
  ret void
}

define void @__libc_csu_fini(%struct.x86_regs*) !fcd.vaddr !2743 !fcd.recoverable !3 {
entry:
  %1 = getelementptr inbounds %struct.x86_regs, %struct.x86_regs* %0, i64 0, i32 9, i32 0
  %2 = load i64, i64* %1, align 8
  %3 = getelementptr inbounds %struct.x86_regs, %struct.x86_regs* %0, i64 0, i32 8, i32 0
  %4 = load i64, i64* %3, align 8, !tbaa !4, !alias.scope !2744
  %5 = add i64 %4, -8
  %6 = inttoptr i64 %5 to i64*
  store i64 %2, i64* %6, align 4, !fcd.prgmem !3
  store i64 %4, i64* %3, align 8, !tbaa !4, !alias.scope !2749
  store i64 %2, i64* %1, align 8, !tbaa !4, !alias.scope !2754
  ret void
}

define void @_fini(%struct.x86_regs*) !fcd.vaddr !2757 !fcd.recoverable !3 {
entry:
  %1 = getelementptr inbounds %struct.x86_regs, %struct.x86_regs* %0, i64 0, i32 9, i32 0
  %2 = load i64, i64* %1, align 8
  %3 = getelementptr inbounds %struct.x86_regs, %struct.x86_regs* %0, i64 0, i32 8, i32 0
  %4 = load i64, i64* %3, align 8, !tbaa !4, !alias.scope !2758
  %5 = add i64 %4, -8
  %6 = inttoptr i64 %5 to i64*
  store i64 %2, i64* %6, align 4, !fcd.prgmem !3
  store i64 %4, i64* %3, align 8, !tbaa !4, !alias.scope !2763
  store i64 %2, i64* %1, align 8, !tbaa !4, !alias.scope !2768
  ret void
}

attributes #0 = { argmemonly nounwind }
attributes #1 = { "correctly-rounded-divide-sqrt-fp-math"="false" "disable-tail-calls"="false" "less-precise-fpmad"="false" "no-frame-pointer-elim"="false" "no-infs-fp-math"="false" "no-nans-fp-math"="false" "no-signed-zeros-fp-math"="false" "no-trapping-math"="false" "stack-protector-buffer-size"="8" "target-cpu"="x86-64" "target-features"="+fxsr,+mmx,+sse,+sse2,+x87" "unsafe-fp-math"="false" "use-soft-float"="false" }
attributes #2 = { noreturn nounwind }
attributes #3 = { noreturn "correctly-rounded-divide-sqrt-fp-math"="false" "disable-tail-calls"="false" "less-precise-fpmad"="false" "no-frame-pointer-elim"="false" "no-infs-fp-math"="false" "no-nans-fp-math"="false" "no-signed-zeros-fp-math"="false" "no-trapping-math"="false" "stack-protector-buffer-size"="8" "target-cpu"="x86-64" "target-features"="+fxsr,+mmx,+sse,+sse2,+x87" "unsafe-fp-math"="false" "use-soft-float"="false" }
attributes #4 = { nounwind readnone }
attributes #5 = { nounwind }
attributes #6 = { noreturn }

!llvm.module.flags = !{!0}
!clc.return.fcd.fields = !{}
!loopne.return.fcd.fields = !{}
!loopne.return.0.fcd.fields = !{}

!0 = !{i32 6, !"fcd.includes", !1}
!1 = !{}
!2 = !{i64 0}
!3 = !{i1 true}
!4 = !{!5, !5, i64 0}
!5 = !{!"long", !6, i64 0}
!6 = !{!"omnipotent char", !7, i64 0}
!7 = !{!"Simple C++ TBAA"}
!8 = !{!9}
!9 = distinct !{!9, !10, !"_ZL12x86_read_regPK8x86_regs7x86_reg: argument 0"}
!10 = distinct !{!10, !"_ZL12x86_read_regPK8x86_regs7x86_reg"}
!11 = !{!12, !14}
!12 = distinct !{!12, !13, !"_ZL12x86_read_regPK8x86_regs7x86_reg: argument 0"}
!13 = distinct !{!13, !"_ZL12x86_read_regPK8x86_regs7x86_reg"}
!14 = distinct !{!14, !15, !"_ZL14x86_push_valuePK10x86_configP8x86_regsmm: argument 0"}
!15 = distinct !{!15, !"_ZL14x86_push_valuePK10x86_configP8x86_regsmm"}
!16 = !{!17, !14}
!17 = distinct !{!17, !18, !"_ZL13x86_write_regP8x86_regs7x86_regm: argument 0"}
!18 = distinct !{!18, !"_ZL13x86_write_regP8x86_regs7x86_regm"}
!19 = !{!20, !21, i64 6}
!20 = !{!"_ZTS13x86_flags_reg", !21, i64 0, !21, i64 1, !21, i64 2, !21, i64 3, !21, i64 4, !21, i64 5, !21, i64 6}
!21 = !{!"bool", !6, i64 0}
!22 = !{!6, !6, i64 0}
!23 = !{!24, !26, !28}
!24 = distinct !{!24, !25, !"_ZL12x86_read_regPK8x86_regs7x86_reg: argument 0"}
!25 = distinct !{!25, !"_ZL12x86_read_regPK8x86_regs7x86_reg"}
!26 = distinct !{!26, !27, !"_ZL12x86_read_regPK8x86_regsPK9cs_x86_op: argument 0"}
!27 = distinct !{!27, !"_ZL12x86_read_regPK8x86_regsPK9cs_x86_op"}
!28 = distinct !{!28, !29, !"_ZL28x86_read_destination_operandPK9cs_x86_opPK8x86_regs: argument 1"}
!29 = distinct !{!29, !"_ZL28x86_read_destination_operandPK9cs_x86_opPK8x86_regs"}
!30 = !{!31}
!31 = distinct !{!31, !29, !"_ZL28x86_read_destination_operandPK9cs_x86_opPK8x86_regs: argument 0"}
!32 = !{!33, !35, !37, !39}
!33 = distinct !{!33, !34, !"_ZL12x86_read_regPK8x86_regs7x86_reg: argument 0"}
!34 = distinct !{!34, !"_ZL12x86_read_regPK8x86_regs7x86_reg"}
!35 = distinct !{!35, !36, !"_ZL25x86_get_effective_addressPK8x86_regsPK9cs_x86_op: argument 0"}
!36 = distinct !{!36, !"_ZL25x86_get_effective_addressPK8x86_regsPK9cs_x86_op"}
!37 = distinct !{!37, !38, !"_ZL12x86_read_memPK8x86_regsPK9cs_x86_op: argument 0"}
!38 = distinct !{!38, !"_ZL12x86_read_memPK8x86_regsPK9cs_x86_op"}
!39 = distinct !{!39, !40, !"_ZL23x86_read_source_operandPK9cs_x86_opPK8x86_regs: argument 1"}
!40 = distinct !{!40, !"_ZL23x86_read_source_operandPK9cs_x86_opPK8x86_regs"}
!41 = !{!42, !43, !44}
!42 = distinct !{!42, !36, !"_ZL25x86_get_effective_addressPK8x86_regsPK9cs_x86_op: argument 1"}
!43 = distinct !{!43, !38, !"_ZL12x86_read_memPK8x86_regsPK9cs_x86_op: argument 1"}
!44 = distinct !{!44, !40, !"_ZL23x86_read_source_operandPK9cs_x86_opPK8x86_regs: argument 0"}
!45 = !{!46, !48, !50}
!46 = distinct !{!46, !47, !"_ZL13x86_write_regP8x86_regs7x86_regm: argument 0"}
!47 = distinct !{!47, !"_ZL13x86_write_regP8x86_regs7x86_regm"}
!48 = distinct !{!48, !49, !"_ZL13x86_write_regP8x86_regsPK9cs_x86_opm: argument 0"}
!49 = distinct !{!49, !"_ZL13x86_write_regP8x86_regsPK9cs_x86_opm"}
!50 = distinct !{!50, !51, !"_ZL29x86_write_destination_operandPK9cs_x86_opP8x86_regsm: argument 1"}
!51 = distinct !{!51, !"_ZL29x86_write_destination_operandPK9cs_x86_opP8x86_regsm"}
!52 = !{!53}
!53 = distinct !{!53, !51, !"_ZL29x86_write_destination_operandPK9cs_x86_opP8x86_regsm: argument 0"}
!54 = !{!55, !57, !59, !61, !63, !65, !67, !69}
!55 = distinct !{!55, !56, !"_ZL12x86_read_regPK8x86_regs7x86_reg: argument 0"}
!56 = distinct !{!56, !"_ZL12x86_read_regPK8x86_regs7x86_reg"}
!57 = distinct !{!57, !58, !"_ZL25x86_get_effective_addressPK8x86_regsPK9cs_x86_op: argument 0"}
!58 = distinct !{!58, !"_ZL25x86_get_effective_addressPK8x86_regsPK9cs_x86_op"}
!59 = distinct !{!59, !60, !"_ZL13x86_write_memPK8x86_regsPK9cs_x86_opm: argument 0"}
!60 = distinct !{!60, !"_ZL13x86_write_memPK8x86_regsPK9cs_x86_opm"}
!61 = distinct !{!61, !62, !"_ZL29x86_write_destination_operandPK9cs_x86_opP8x86_regsm: argument 1"}
!62 = distinct !{!62, !"_ZL29x86_write_destination_operandPK9cs_x86_opP8x86_regsm"}
!63 = distinct !{!63, !64, !"_ZL12x86_read_regPK8x86_regs7x86_reg: argument 0"}
!64 = distinct !{!64, !"_ZL12x86_read_regPK8x86_regs7x86_reg"}
!65 = distinct !{!65, !66, !"_ZL25x86_get_effective_addressPK8x86_regsPK9cs_x86_op: argument 0"}
!66 = distinct !{!66, !"_ZL25x86_get_effective_addressPK8x86_regsPK9cs_x86_op"}
!67 = distinct !{!67, !68, !"_ZL12x86_read_memPK8x86_regsPK9cs_x86_op: argument 0"}
!68 = distinct !{!68, !"_ZL12x86_read_memPK8x86_regsPK9cs_x86_op"}
!69 = distinct !{!69, !70, !"_ZL28x86_read_destination_operandPK9cs_x86_opPK8x86_regs: argument 1"}
!70 = distinct !{!70, !"_ZL28x86_read_destination_operandPK9cs_x86_opPK8x86_regs"}
!71 = !{!72, !74, !76, !78, !80, !82, !84, !86, !88, !90, !92, !94, !96, !98, !100, !102, !104, !106, !108, !110}
!72 = distinct !{!72, !73, !"_ZL12x86_read_regPK8x86_regs7x86_reg: argument 0"}
!73 = distinct !{!73, !"_ZL12x86_read_regPK8x86_regs7x86_reg"}
!74 = distinct !{!74, !75, !"_ZL25x86_get_effective_addressPK8x86_regsPK9cs_x86_op: argument 0"}
!75 = distinct !{!75, !"_ZL25x86_get_effective_addressPK8x86_regsPK9cs_x86_op"}
!76 = distinct !{!76, !77, !"_ZL13x86_write_memPK8x86_regsPK9cs_x86_opm: argument 0"}
!77 = distinct !{!77, !"_ZL13x86_write_memPK8x86_regsPK9cs_x86_opm"}
!78 = distinct !{!78, !79, !"_ZL29x86_write_destination_operandPK9cs_x86_opP8x86_regsm: argument 1"}
!79 = distinct !{!79, !"_ZL29x86_write_destination_operandPK9cs_x86_opP8x86_regsm"}
!80 = distinct !{!80, !81, !"_ZL12x86_read_regPK8x86_regs7x86_reg: argument 0"}
!81 = distinct !{!81, !"_ZL12x86_read_regPK8x86_regs7x86_reg"}
!82 = distinct !{!82, !83, !"_ZL25x86_get_effective_addressPK8x86_regsPK9cs_x86_op: argument 0"}
!83 = distinct !{!83, !"_ZL25x86_get_effective_addressPK8x86_regsPK9cs_x86_op"}
!84 = distinct !{!84, !85, !"_ZL12x86_read_memPK8x86_regsPK9cs_x86_op: argument 0"}
!85 = distinct !{!85, !"_ZL12x86_read_memPK8x86_regsPK9cs_x86_op"}
!86 = distinct !{!86, !87, !"_ZL28x86_read_destination_operandPK9cs_x86_opPK8x86_regs: argument 1"}
!87 = distinct !{!87, !"_ZL28x86_read_destination_operandPK9cs_x86_opPK8x86_regs"}
!88 = distinct !{!88, !89, !"_ZL12x86_read_regPK8x86_regs7x86_reg: argument 0"}
!89 = distinct !{!89, !"_ZL12x86_read_regPK8x86_regs7x86_reg"}
!90 = distinct !{!90, !91, !"_ZL25x86_get_effective_addressPK8x86_regsPK9cs_x86_op: argument 0"}
!91 = distinct !{!91, !"_ZL25x86_get_effective_addressPK8x86_regsPK9cs_x86_op"}
!92 = distinct !{!92, !93, !"_ZL13x86_write_memPK8x86_regsPK9cs_x86_opm: argument 0"}
!93 = distinct !{!93, !"_ZL13x86_write_memPK8x86_regsPK9cs_x86_opm"}
!94 = distinct !{!94, !95, !"_ZL29x86_write_destination_operandPK9cs_x86_opP8x86_regsm: argument 1"}
!95 = distinct !{!95, !"_ZL29x86_write_destination_operandPK9cs_x86_opP8x86_regsm"}
!96 = distinct !{!96, !97, !"_ZL12x86_read_regPK8x86_regs7x86_reg: argument 0"}
!97 = distinct !{!97, !"_ZL12x86_read_regPK8x86_regs7x86_reg"}
!98 = distinct !{!98, !99, !"_ZL25x86_get_effective_addressPK8x86_regsPK9cs_x86_op: argument 0"}
!99 = distinct !{!99, !"_ZL25x86_get_effective_addressPK8x86_regsPK9cs_x86_op"}
!100 = distinct !{!100, !101, !"_ZL12x86_read_memPK8x86_regsPK9cs_x86_op: argument 0"}
!101 = distinct !{!101, !"_ZL12x86_read_memPK8x86_regsPK9cs_x86_op"}
!102 = distinct !{!102, !103, !"_ZL28x86_read_destination_operandPK9cs_x86_opPK8x86_regs: argument 1"}
!103 = distinct !{!103, !"_ZL28x86_read_destination_operandPK9cs_x86_opPK8x86_regs"}
!104 = distinct !{!104, !105, !"_ZL12x86_read_regPK8x86_regs7x86_reg: argument 0"}
!105 = distinct !{!105, !"_ZL12x86_read_regPK8x86_regs7x86_reg"}
!106 = distinct !{!106, !107, !"_ZL25x86_get_effective_addressPK8x86_regsPK9cs_x86_op: argument 0"}
!107 = distinct !{!107, !"_ZL25x86_get_effective_addressPK8x86_regsPK9cs_x86_op"}
!108 = distinct !{!108, !109, !"_ZL13x86_write_memPK8x86_regsPK9cs_x86_opm: argument 0"}
!109 = distinct !{!109, !"_ZL13x86_write_memPK8x86_regsPK9cs_x86_opm"}
!110 = distinct !{!110, !111, !"_ZL29x86_write_destination_operandPK9cs_x86_opP8x86_regsm: argument 1"}
!111 = distinct !{!111, !"_ZL29x86_write_destination_operandPK9cs_x86_opP8x86_regsm"}
!112 = !{!113, !115, !117}
!113 = distinct !{!113, !114, !"_ZL13x86_write_regP8x86_regs7x86_regm: argument 0"}
!114 = distinct !{!114, !"_ZL13x86_write_regP8x86_regs7x86_regm"}
!115 = distinct !{!115, !116, !"_ZL13x86_write_regP8x86_regsPK9cs_x86_opm: argument 0"}
!116 = distinct !{!116, !"_ZL13x86_write_regP8x86_regsPK9cs_x86_opm"}
!117 = distinct !{!117, !118, !"_ZL29x86_write_destination_operandPK9cs_x86_opP8x86_regsm: argument 1"}
!118 = distinct !{!118, !"_ZL29x86_write_destination_operandPK9cs_x86_opP8x86_regsm"}
!119 = !{!120}
!120 = distinct !{!120, !118, !"_ZL29x86_write_destination_operandPK9cs_x86_opP8x86_regsm: argument 0"}
!121 = !{!122, !124, !126, !128, !130, !132, !134, !136}
!122 = distinct !{!122, !123, !"_ZL12x86_read_regPK8x86_regs7x86_reg: argument 0"}
!123 = distinct !{!123, !"_ZL12x86_read_regPK8x86_regs7x86_reg"}
!124 = distinct !{!124, !125, !"_ZL25x86_get_effective_addressPK8x86_regsPK9cs_x86_op: argument 0"}
!125 = distinct !{!125, !"_ZL25x86_get_effective_addressPK8x86_regsPK9cs_x86_op"}
!126 = distinct !{!126, !127, !"_ZL13x86_write_memPK8x86_regsPK9cs_x86_opm: argument 0"}
!127 = distinct !{!127, !"_ZL13x86_write_memPK8x86_regsPK9cs_x86_opm"}
!128 = distinct !{!128, !129, !"_ZL29x86_write_destination_operandPK9cs_x86_opP8x86_regsm: argument 1"}
!129 = distinct !{!129, !"_ZL29x86_write_destination_operandPK9cs_x86_opP8x86_regsm"}
!130 = distinct !{!130, !131, !"_ZL12x86_read_regPK8x86_regs7x86_reg: argument 0"}
!131 = distinct !{!131, !"_ZL12x86_read_regPK8x86_regs7x86_reg"}
!132 = distinct !{!132, !133, !"_ZL25x86_get_effective_addressPK8x86_regsPK9cs_x86_op: argument 0"}
!133 = distinct !{!133, !"_ZL25x86_get_effective_addressPK8x86_regsPK9cs_x86_op"}
!134 = distinct !{!134, !135, !"_ZL12x86_read_memPK8x86_regsPK9cs_x86_op: argument 0"}
!135 = distinct !{!135, !"_ZL12x86_read_memPK8x86_regsPK9cs_x86_op"}
!136 = distinct !{!136, !137, !"_ZL28x86_read_destination_operandPK9cs_x86_opPK8x86_regs: argument 1"}
!137 = distinct !{!137, !"_ZL28x86_read_destination_operandPK9cs_x86_opPK8x86_regs"}
!138 = !{!139, !141, !143}
!139 = distinct !{!139, !140, !"_ZL12x86_read_regPK8x86_regs7x86_reg: argument 0"}
!140 = distinct !{!140, !"_ZL12x86_read_regPK8x86_regs7x86_reg"}
!141 = distinct !{!141, !142, !"_ZL12x86_read_regPK8x86_regsPK9cs_x86_op: argument 0"}
!142 = distinct !{!142, !"_ZL12x86_read_regPK8x86_regsPK9cs_x86_op"}
!143 = distinct !{!143, !144, !"_ZL23x86_read_source_operandPK9cs_x86_opPK8x86_regs: argument 1"}
!144 = distinct !{!144, !"_ZL23x86_read_source_operandPK9cs_x86_opPK8x86_regs"}
!145 = !{!146}
!146 = distinct !{!146, !144, !"_ZL23x86_read_source_operandPK9cs_x86_opPK8x86_regs: argument 0"}
!147 = !{!148, !150, !152, !154}
!148 = distinct !{!148, !149, !"_ZL12x86_read_regPK8x86_regs7x86_reg: argument 0"}
!149 = distinct !{!149, !"_ZL12x86_read_regPK8x86_regs7x86_reg"}
!150 = distinct !{!150, !151, !"_ZL25x86_get_effective_addressPK8x86_regsPK9cs_x86_op: argument 0"}
!151 = distinct !{!151, !"_ZL25x86_get_effective_addressPK8x86_regsPK9cs_x86_op"}
!152 = distinct !{!152, !153, !"_ZL13x86_write_memPK8x86_regsPK9cs_x86_opm: argument 0"}
!153 = distinct !{!153, !"_ZL13x86_write_memPK8x86_regsPK9cs_x86_opm"}
!154 = distinct !{!154, !155, !"_ZL29x86_write_destination_operandPK9cs_x86_opP8x86_regsm: argument 1"}
!155 = distinct !{!155, !"_ZL29x86_write_destination_operandPK9cs_x86_opP8x86_regsm"}
!156 = !{!157, !158, !159}
!157 = distinct !{!157, !151, !"_ZL25x86_get_effective_addressPK8x86_regsPK9cs_x86_op: argument 1"}
!158 = distinct !{!158, !153, !"_ZL13x86_write_memPK8x86_regsPK9cs_x86_opm: argument 1"}
!159 = distinct !{!159, !155, !"_ZL29x86_write_destination_operandPK9cs_x86_opP8x86_regsm: argument 0"}
!160 = !{!161, !163, !165}
!161 = distinct !{!161, !162, !"_ZL13x86_write_regP8x86_regs7x86_regm: argument 0"}
!162 = distinct !{!162, !"_ZL13x86_write_regP8x86_regs7x86_regm"}
!163 = distinct !{!163, !164, !"_ZL13x86_write_regP8x86_regsPK9cs_x86_opm: argument 0"}
!164 = distinct !{!164, !"_ZL13x86_write_regP8x86_regsPK9cs_x86_opm"}
!165 = distinct !{!165, !166, !"_ZL29x86_write_destination_operandPK9cs_x86_opP8x86_regsm: argument 1"}
!166 = distinct !{!166, !"_ZL29x86_write_destination_operandPK9cs_x86_opP8x86_regsm"}
!167 = !{!168}
!168 = distinct !{!168, !166, !"_ZL29x86_write_destination_operandPK9cs_x86_opP8x86_regsm: argument 0"}
!169 = !{!170, !172, !174}
!170 = distinct !{!170, !171, !"_ZL12x86_read_regPK8x86_regs7x86_reg: argument 0"}
!171 = distinct !{!171, !"_ZL12x86_read_regPK8x86_regs7x86_reg"}
!172 = distinct !{!172, !173, !"_ZL12x86_read_regPK8x86_regsPK9cs_x86_op: argument 0"}
!173 = distinct !{!173, !"_ZL12x86_read_regPK8x86_regsPK9cs_x86_op"}
!174 = distinct !{!174, !175, !"_ZL23x86_read_source_operandPK9cs_x86_opPK8x86_regs: argument 1"}
!175 = distinct !{!175, !"_ZL23x86_read_source_operandPK9cs_x86_opPK8x86_regs"}
!176 = !{!177}
!177 = distinct !{!177, !175, !"_ZL23x86_read_source_operandPK9cs_x86_opPK8x86_regs: argument 0"}
!178 = !{!179, !181, !183, !185, !187, !189, !191, !193, !195, !197, !199, !201, !203, !205, !207, !209}
!179 = distinct !{!179, !180, !"_ZL12x86_read_regPK8x86_regs7x86_reg: argument 0"}
!180 = distinct !{!180, !"_ZL12x86_read_regPK8x86_regs7x86_reg"}
!181 = distinct !{!181, !182, !"_ZL25x86_get_effective_addressPK8x86_regsPK9cs_x86_op: argument 0"}
!182 = distinct !{!182, !"_ZL25x86_get_effective_addressPK8x86_regsPK9cs_x86_op"}
!183 = distinct !{!183, !184, !"_ZL12x86_read_memPK8x86_regsPK9cs_x86_op: argument 0"}
!184 = distinct !{!184, !"_ZL12x86_read_memPK8x86_regsPK9cs_x86_op"}
!185 = distinct !{!185, !186, !"_ZL28x86_read_destination_operandPK9cs_x86_opPK8x86_regs: argument 1"}
!186 = distinct !{!186, !"_ZL28x86_read_destination_operandPK9cs_x86_opPK8x86_regs"}
!187 = distinct !{!187, !188, !"_ZL12x86_read_regPK8x86_regs7x86_reg: argument 0"}
!188 = distinct !{!188, !"_ZL12x86_read_regPK8x86_regs7x86_reg"}
!189 = distinct !{!189, !190, !"_ZL25x86_get_effective_addressPK8x86_regsPK9cs_x86_op: argument 0"}
!190 = distinct !{!190, !"_ZL25x86_get_effective_addressPK8x86_regsPK9cs_x86_op"}
!191 = distinct !{!191, !192, !"_ZL13x86_write_memPK8x86_regsPK9cs_x86_opm: argument 0"}
!192 = distinct !{!192, !"_ZL13x86_write_memPK8x86_regsPK9cs_x86_opm"}
!193 = distinct !{!193, !194, !"_ZL29x86_write_destination_operandPK9cs_x86_opP8x86_regsm: argument 1"}
!194 = distinct !{!194, !"_ZL29x86_write_destination_operandPK9cs_x86_opP8x86_regsm"}
!195 = distinct !{!195, !196, !"_ZL12x86_read_regPK8x86_regs7x86_reg: argument 0"}
!196 = distinct !{!196, !"_ZL12x86_read_regPK8x86_regs7x86_reg"}
!197 = distinct !{!197, !198, !"_ZL25x86_get_effective_addressPK8x86_regsPK9cs_x86_op: argument 0"}
!198 = distinct !{!198, !"_ZL25x86_get_effective_addressPK8x86_regsPK9cs_x86_op"}
!199 = distinct !{!199, !200, !"_ZL12x86_read_memPK8x86_regsPK9cs_x86_op: argument 0"}
!200 = distinct !{!200, !"_ZL12x86_read_memPK8x86_regsPK9cs_x86_op"}
!201 = distinct !{!201, !202, !"_ZL28x86_read_destination_operandPK9cs_x86_opPK8x86_regs: argument 1"}
!202 = distinct !{!202, !"_ZL28x86_read_destination_operandPK9cs_x86_opPK8x86_regs"}
!203 = distinct !{!203, !204, !"_ZL12x86_read_regPK8x86_regs7x86_reg: argument 0"}
!204 = distinct !{!204, !"_ZL12x86_read_regPK8x86_regs7x86_reg"}
!205 = distinct !{!205, !206, !"_ZL25x86_get_effective_addressPK8x86_regsPK9cs_x86_op: argument 0"}
!206 = distinct !{!206, !"_ZL25x86_get_effective_addressPK8x86_regsPK9cs_x86_op"}
!207 = distinct !{!207, !208, !"_ZL13x86_write_memPK8x86_regsPK9cs_x86_opm: argument 0"}
!208 = distinct !{!208, !"_ZL13x86_write_memPK8x86_regsPK9cs_x86_opm"}
!209 = distinct !{!209, !210, !"_ZL29x86_write_destination_operandPK9cs_x86_opP8x86_regsm: argument 1"}
!210 = distinct !{!210, !"_ZL29x86_write_destination_operandPK9cs_x86_opP8x86_regsm"}
!211 = !{!212, !214, !216}
!212 = distinct !{!212, !213, !"_ZL12x86_read_regPK8x86_regs7x86_reg: argument 0"}
!213 = distinct !{!213, !"_ZL12x86_read_regPK8x86_regs7x86_reg"}
!214 = distinct !{!214, !215, !"_ZL12x86_read_regPK8x86_regsPK9cs_x86_op: argument 0"}
!215 = distinct !{!215, !"_ZL12x86_read_regPK8x86_regsPK9cs_x86_op"}
!216 = distinct !{!216, !217, !"_ZL23x86_read_source_operandPK9cs_x86_opPK8x86_regs: argument 1"}
!217 = distinct !{!217, !"_ZL23x86_read_source_operandPK9cs_x86_opPK8x86_regs"}
!218 = !{!219}
!219 = distinct !{!219, !217, !"_ZL23x86_read_source_operandPK9cs_x86_opPK8x86_regs: argument 0"}
!220 = !{!221, !223, !225, !227, !229, !231, !233, !235, !237, !239, !241, !243, !245, !247, !249, !251, !253, !255, !257, !259, !261, !263, !265, !267}
!221 = distinct !{!221, !222, !"_ZL12x86_read_regPK8x86_regs7x86_reg: argument 0"}
!222 = distinct !{!222, !"_ZL12x86_read_regPK8x86_regs7x86_reg"}
!223 = distinct !{!223, !224, !"_ZL25x86_get_effective_addressPK8x86_regsPK9cs_x86_op: argument 0"}
!224 = distinct !{!224, !"_ZL25x86_get_effective_addressPK8x86_regsPK9cs_x86_op"}
!225 = distinct !{!225, !226, !"_ZL12x86_read_memPK8x86_regsPK9cs_x86_op: argument 0"}
!226 = distinct !{!226, !"_ZL12x86_read_memPK8x86_regsPK9cs_x86_op"}
!227 = distinct !{!227, !228, !"_ZL23x86_read_source_operandPK9cs_x86_opPK8x86_regs: argument 1"}
!228 = distinct !{!228, !"_ZL23x86_read_source_operandPK9cs_x86_opPK8x86_regs"}
!229 = distinct !{!229, !230, !"_ZL12x86_read_regPK8x86_regs7x86_reg: argument 0"}
!230 = distinct !{!230, !"_ZL12x86_read_regPK8x86_regs7x86_reg"}
!231 = distinct !{!231, !232, !"_ZL25x86_get_effective_addressPK8x86_regsPK9cs_x86_op: argument 0"}
!232 = distinct !{!232, !"_ZL25x86_get_effective_addressPK8x86_regsPK9cs_x86_op"}
!233 = distinct !{!233, !234, !"_ZL13x86_write_memPK8x86_regsPK9cs_x86_opm: argument 0"}
!234 = distinct !{!234, !"_ZL13x86_write_memPK8x86_regsPK9cs_x86_opm"}
!235 = distinct !{!235, !236, !"_ZL29x86_write_destination_operandPK9cs_x86_opP8x86_regsm: argument 1"}
!236 = distinct !{!236, !"_ZL29x86_write_destination_operandPK9cs_x86_opP8x86_regsm"}
!237 = distinct !{!237, !238, !"_ZL12x86_read_regPK8x86_regs7x86_reg: argument 0"}
!238 = distinct !{!238, !"_ZL12x86_read_regPK8x86_regs7x86_reg"}
!239 = distinct !{!239, !240, !"_ZL25x86_get_effective_addressPK8x86_regsPK9cs_x86_op: argument 0"}
!240 = distinct !{!240, !"_ZL25x86_get_effective_addressPK8x86_regsPK9cs_x86_op"}
!241 = distinct !{!241, !242, !"_ZL12x86_read_memPK8x86_regsPK9cs_x86_op: argument 0"}
!242 = distinct !{!242, !"_ZL12x86_read_memPK8x86_regsPK9cs_x86_op"}
!243 = distinct !{!243, !244, !"_ZL28x86_read_destination_operandPK9cs_x86_opPK8x86_regs: argument 1"}
!244 = distinct !{!244, !"_ZL28x86_read_destination_operandPK9cs_x86_opPK8x86_regs"}
!245 = distinct !{!245, !246, !"_ZL12x86_read_regPK8x86_regs7x86_reg: argument 0"}
!246 = distinct !{!246, !"_ZL12x86_read_regPK8x86_regs7x86_reg"}
!247 = distinct !{!247, !248, !"_ZL25x86_get_effective_addressPK8x86_regsPK9cs_x86_op: argument 0"}
!248 = distinct !{!248, !"_ZL25x86_get_effective_addressPK8x86_regsPK9cs_x86_op"}
!249 = distinct !{!249, !250, !"_ZL13x86_write_memPK8x86_regsPK9cs_x86_opm: argument 0"}
!250 = distinct !{!250, !"_ZL13x86_write_memPK8x86_regsPK9cs_x86_opm"}
!251 = distinct !{!251, !252, !"_ZL29x86_write_destination_operandPK9cs_x86_opP8x86_regsm: argument 1"}
!252 = distinct !{!252, !"_ZL29x86_write_destination_operandPK9cs_x86_opP8x86_regsm"}
!253 = distinct !{!253, !254, !"_ZL12x86_read_regPK8x86_regs7x86_reg: argument 0"}
!254 = distinct !{!254, !"_ZL12x86_read_regPK8x86_regs7x86_reg"}
!255 = distinct !{!255, !256, !"_ZL25x86_get_effective_addressPK8x86_regsPK9cs_x86_op: argument 0"}
!256 = distinct !{!256, !"_ZL25x86_get_effective_addressPK8x86_regsPK9cs_x86_op"}
!257 = distinct !{!257, !258, !"_ZL12x86_read_memPK8x86_regsPK9cs_x86_op: argument 0"}
!258 = distinct !{!258, !"_ZL12x86_read_memPK8x86_regsPK9cs_x86_op"}
!259 = distinct !{!259, !260, !"_ZL28x86_read_destination_operandPK9cs_x86_opPK8x86_regs: argument 1"}
!260 = distinct !{!260, !"_ZL28x86_read_destination_operandPK9cs_x86_opPK8x86_regs"}
!261 = distinct !{!261, !262, !"_ZL12x86_read_regPK8x86_regs7x86_reg: argument 0"}
!262 = distinct !{!262, !"_ZL12x86_read_regPK8x86_regs7x86_reg"}
!263 = distinct !{!263, !264, !"_ZL25x86_get_effective_addressPK8x86_regsPK9cs_x86_op: argument 0"}
!264 = distinct !{!264, !"_ZL25x86_get_effective_addressPK8x86_regsPK9cs_x86_op"}
!265 = distinct !{!265, !266, !"_ZL13x86_write_memPK8x86_regsPK9cs_x86_opm: argument 0"}
!266 = distinct !{!266, !"_ZL13x86_write_memPK8x86_regsPK9cs_x86_opm"}
!267 = distinct !{!267, !268, !"_ZL29x86_write_destination_operandPK9cs_x86_opP8x86_regsm: argument 1"}
!268 = distinct !{!268, !"_ZL29x86_write_destination_operandPK9cs_x86_opP8x86_regsm"}
!269 = !{!270, !272, !274, !276}
!270 = distinct !{!270, !271, !"_ZL12x86_read_regPK8x86_regs7x86_reg: argument 0"}
!271 = distinct !{!271, !"_ZL12x86_read_regPK8x86_regs7x86_reg"}
!272 = distinct !{!272, !273, !"_ZL25x86_get_effective_addressPK8x86_regsPK9cs_x86_op: argument 0"}
!273 = distinct !{!273, !"_ZL25x86_get_effective_addressPK8x86_regsPK9cs_x86_op"}
!274 = distinct !{!274, !275, !"_ZL13x86_write_memPK8x86_regsPK9cs_x86_opm: argument 0"}
!275 = distinct !{!275, !"_ZL13x86_write_memPK8x86_regsPK9cs_x86_opm"}
!276 = distinct !{!276, !277, !"_ZL29x86_write_destination_operandPK9cs_x86_opP8x86_regsm: argument 1"}
!277 = distinct !{!277, !"_ZL29x86_write_destination_operandPK9cs_x86_opP8x86_regsm"}
!278 = !{!279, !280, !281}
!279 = distinct !{!279, !273, !"_ZL25x86_get_effective_addressPK8x86_regsPK9cs_x86_op: argument 1"}
!280 = distinct !{!280, !275, !"_ZL13x86_write_memPK8x86_regsPK9cs_x86_opm: argument 1"}
!281 = distinct !{!281, !277, !"_ZL29x86_write_destination_operandPK9cs_x86_opP8x86_regsm: argument 0"}
!282 = !{!283, !285, !287}
!283 = distinct !{!283, !284, !"_ZL12x86_read_regPK8x86_regs7x86_reg: argument 0"}
!284 = distinct !{!284, !"_ZL12x86_read_regPK8x86_regs7x86_reg"}
!285 = distinct !{!285, !286, !"_ZL12x86_read_regPK8x86_regsPK9cs_x86_op: argument 0"}
!286 = distinct !{!286, !"_ZL12x86_read_regPK8x86_regsPK9cs_x86_op"}
!287 = distinct !{!287, !288, !"_ZL23x86_read_source_operandPK9cs_x86_opPK8x86_regs: argument 1"}
!288 = distinct !{!288, !"_ZL23x86_read_source_operandPK9cs_x86_opPK8x86_regs"}
!289 = !{!290}
!290 = distinct !{!290, !288, !"_ZL23x86_read_source_operandPK9cs_x86_opPK8x86_regs: argument 0"}
!291 = !{!292, !294, !296, !298, !300, !302, !304, !306, !308, !310, !312, !314, !316, !318, !320, !322, !324, !326, !328, !330, !332, !334, !336, !338, !340, !342, !344, !346}
!292 = distinct !{!292, !293, !"_ZL12x86_read_regPK8x86_regs7x86_reg: argument 0"}
!293 = distinct !{!293, !"_ZL12x86_read_regPK8x86_regs7x86_reg"}
!294 = distinct !{!294, !295, !"_ZL25x86_get_effective_addressPK8x86_regsPK9cs_x86_op: argument 0"}
!295 = distinct !{!295, !"_ZL25x86_get_effective_addressPK8x86_regsPK9cs_x86_op"}
!296 = distinct !{!296, !297, !"_ZL12x86_read_memPK8x86_regsPK9cs_x86_op: argument 0"}
!297 = distinct !{!297, !"_ZL12x86_read_memPK8x86_regsPK9cs_x86_op"}
!298 = distinct !{!298, !299, !"_ZL28x86_read_destination_operandPK9cs_x86_opPK8x86_regs: argument 1"}
!299 = distinct !{!299, !"_ZL28x86_read_destination_operandPK9cs_x86_opPK8x86_regs"}
!300 = distinct !{!300, !301, !"_ZL12x86_read_regPK8x86_regs7x86_reg: argument 0"}
!301 = distinct !{!301, !"_ZL12x86_read_regPK8x86_regs7x86_reg"}
!302 = distinct !{!302, !303, !"_ZL25x86_get_effective_addressPK8x86_regsPK9cs_x86_op: argument 0"}
!303 = distinct !{!303, !"_ZL25x86_get_effective_addressPK8x86_regsPK9cs_x86_op"}
!304 = distinct !{!304, !305, !"_ZL13x86_write_memPK8x86_regsPK9cs_x86_opm: argument 0"}
!305 = distinct !{!305, !"_ZL13x86_write_memPK8x86_regsPK9cs_x86_opm"}
!306 = distinct !{!306, !307, !"_ZL29x86_write_destination_operandPK9cs_x86_opP8x86_regsm: argument 1"}
!307 = distinct !{!307, !"_ZL29x86_write_destination_operandPK9cs_x86_opP8x86_regsm"}
!308 = distinct !{!308, !309, !"_ZL12x86_read_regPK8x86_regs7x86_reg: argument 0"}
!309 = distinct !{!309, !"_ZL12x86_read_regPK8x86_regs7x86_reg"}
!310 = distinct !{!310, !311, !"_ZL25x86_get_effective_addressPK8x86_regsPK9cs_x86_op: argument 0"}
!311 = distinct !{!311, !"_ZL25x86_get_effective_addressPK8x86_regsPK9cs_x86_op"}
!312 = distinct !{!312, !313, !"_ZL12x86_read_memPK8x86_regsPK9cs_x86_op: argument 0"}
!313 = distinct !{!313, !"_ZL12x86_read_memPK8x86_regsPK9cs_x86_op"}
!314 = distinct !{!314, !315, !"_ZL28x86_read_destination_operandPK9cs_x86_opPK8x86_regs: argument 1"}
!315 = distinct !{!315, !"_ZL28x86_read_destination_operandPK9cs_x86_opPK8x86_regs"}
!316 = distinct !{!316, !317, !"_ZL12x86_read_regPK8x86_regs7x86_reg: argument 0"}
!317 = distinct !{!317, !"_ZL12x86_read_regPK8x86_regs7x86_reg"}
!318 = distinct !{!318, !319, !"_ZL25x86_get_effective_addressPK8x86_regsPK9cs_x86_op: argument 0"}
!319 = distinct !{!319, !"_ZL25x86_get_effective_addressPK8x86_regsPK9cs_x86_op"}
!320 = distinct !{!320, !321, !"_ZL13x86_write_memPK8x86_regsPK9cs_x86_opm: argument 0"}
!321 = distinct !{!321, !"_ZL13x86_write_memPK8x86_regsPK9cs_x86_opm"}
!322 = distinct !{!322, !323, !"_ZL29x86_write_destination_operandPK9cs_x86_opP8x86_regsm: argument 1"}
!323 = distinct !{!323, !"_ZL29x86_write_destination_operandPK9cs_x86_opP8x86_regsm"}
!324 = distinct !{!324, !325, !"_ZL12x86_read_regPK8x86_regs7x86_reg: argument 0"}
!325 = distinct !{!325, !"_ZL12x86_read_regPK8x86_regs7x86_reg"}
!326 = distinct !{!326, !327, !"_ZL25x86_get_effective_addressPK8x86_regsPK9cs_x86_op: argument 0"}
!327 = distinct !{!327, !"_ZL25x86_get_effective_addressPK8x86_regsPK9cs_x86_op"}
!328 = distinct !{!328, !329, !"_ZL12x86_read_memPK8x86_regsPK9cs_x86_op: argument 0"}
!329 = distinct !{!329, !"_ZL12x86_read_memPK8x86_regsPK9cs_x86_op"}
!330 = distinct !{!330, !331, !"_ZL28x86_read_destination_operandPK9cs_x86_opPK8x86_regs: argument 1"}
!331 = distinct !{!331, !"_ZL28x86_read_destination_operandPK9cs_x86_opPK8x86_regs"}
!332 = distinct !{!332, !333, !"_ZL12x86_read_regPK8x86_regs7x86_reg: argument 0"}
!333 = distinct !{!333, !"_ZL12x86_read_regPK8x86_regs7x86_reg"}
!334 = distinct !{!334, !335, !"_ZL25x86_get_effective_addressPK8x86_regsPK9cs_x86_op: argument 0"}
!335 = distinct !{!335, !"_ZL25x86_get_effective_addressPK8x86_regsPK9cs_x86_op"}
!336 = distinct !{!336, !337, !"_ZL13x86_write_memPK8x86_regsPK9cs_x86_opm: argument 0"}
!337 = distinct !{!337, !"_ZL13x86_write_memPK8x86_regsPK9cs_x86_opm"}
!338 = distinct !{!338, !339, !"_ZL29x86_write_destination_operandPK9cs_x86_opP8x86_regsm: argument 1"}
!339 = distinct !{!339, !"_ZL29x86_write_destination_operandPK9cs_x86_opP8x86_regsm"}
!340 = distinct !{!340, !341, !"_ZL12x86_read_regPK8x86_regs7x86_reg: argument 0"}
!341 = distinct !{!341, !"_ZL12x86_read_regPK8x86_regs7x86_reg"}
!342 = distinct !{!342, !343, !"_ZL25x86_get_effective_addressPK8x86_regsPK9cs_x86_op: argument 0"}
!343 = distinct !{!343, !"_ZL25x86_get_effective_addressPK8x86_regsPK9cs_x86_op"}
!344 = distinct !{!344, !345, !"_ZL12x86_read_memPK8x86_regsPK9cs_x86_op: argument 0"}
!345 = distinct !{!345, !"_ZL12x86_read_memPK8x86_regsPK9cs_x86_op"}
!346 = distinct !{!346, !347, !"_ZL28x86_read_destination_operandPK9cs_x86_opPK8x86_regs: argument 1"}
!347 = distinct !{!347, !"_ZL28x86_read_destination_operandPK9cs_x86_opPK8x86_regs"}
!348 = !{!349, !351, !353, !355, !357, !359, !361, !363, !365, !367, !369, !371, !373, !375, !377, !379, !381, !383, !385, !387, !389, !391, !393, !395, !397, !399, !401, !403, !405, !407, !409, !411}
!349 = distinct !{!349, !350, !"_ZL12x86_read_regPK8x86_regs7x86_reg: argument 0"}
!350 = distinct !{!350, !"_ZL12x86_read_regPK8x86_regs7x86_reg"}
!351 = distinct !{!351, !352, !"_ZL25x86_get_effective_addressPK8x86_regsPK9cs_x86_op: argument 0"}
!352 = distinct !{!352, !"_ZL25x86_get_effective_addressPK8x86_regsPK9cs_x86_op"}
!353 = distinct !{!353, !354, !"_ZL12x86_read_memPK8x86_regsPK9cs_x86_op: argument 0"}
!354 = distinct !{!354, !"_ZL12x86_read_memPK8x86_regsPK9cs_x86_op"}
!355 = distinct !{!355, !356, !"_ZL28x86_read_destination_operandPK9cs_x86_opPK8x86_regs: argument 1"}
!356 = distinct !{!356, !"_ZL28x86_read_destination_operandPK9cs_x86_opPK8x86_regs"}
!357 = distinct !{!357, !358, !"_ZL12x86_read_regPK8x86_regs7x86_reg: argument 0"}
!358 = distinct !{!358, !"_ZL12x86_read_regPK8x86_regs7x86_reg"}
!359 = distinct !{!359, !360, !"_ZL25x86_get_effective_addressPK8x86_regsPK9cs_x86_op: argument 0"}
!360 = distinct !{!360, !"_ZL25x86_get_effective_addressPK8x86_regsPK9cs_x86_op"}
!361 = distinct !{!361, !362, !"_ZL13x86_write_memPK8x86_regsPK9cs_x86_opm: argument 0"}
!362 = distinct !{!362, !"_ZL13x86_write_memPK8x86_regsPK9cs_x86_opm"}
!363 = distinct !{!363, !364, !"_ZL29x86_write_destination_operandPK9cs_x86_opP8x86_regsm: argument 1"}
!364 = distinct !{!364, !"_ZL29x86_write_destination_operandPK9cs_x86_opP8x86_regsm"}
!365 = distinct !{!365, !366, !"_ZL12x86_read_regPK8x86_regs7x86_reg: argument 0"}
!366 = distinct !{!366, !"_ZL12x86_read_regPK8x86_regs7x86_reg"}
!367 = distinct !{!367, !368, !"_ZL25x86_get_effective_addressPK8x86_regsPK9cs_x86_op: argument 0"}
!368 = distinct !{!368, !"_ZL25x86_get_effective_addressPK8x86_regsPK9cs_x86_op"}
!369 = distinct !{!369, !370, !"_ZL12x86_read_memPK8x86_regsPK9cs_x86_op: argument 0"}
!370 = distinct !{!370, !"_ZL12x86_read_memPK8x86_regsPK9cs_x86_op"}
!371 = distinct !{!371, !372, !"_ZL28x86_read_destination_operandPK9cs_x86_opPK8x86_regs: argument 1"}
!372 = distinct !{!372, !"_ZL28x86_read_destination_operandPK9cs_x86_opPK8x86_regs"}
!373 = distinct !{!373, !374, !"_ZL12x86_read_regPK8x86_regs7x86_reg: argument 0"}
!374 = distinct !{!374, !"_ZL12x86_read_regPK8x86_regs7x86_reg"}
!375 = distinct !{!375, !376, !"_ZL25x86_get_effective_addressPK8x86_regsPK9cs_x86_op: argument 0"}
!376 = distinct !{!376, !"_ZL25x86_get_effective_addressPK8x86_regsPK9cs_x86_op"}
!377 = distinct !{!377, !378, !"_ZL13x86_write_memPK8x86_regsPK9cs_x86_opm: argument 0"}
!378 = distinct !{!378, !"_ZL13x86_write_memPK8x86_regsPK9cs_x86_opm"}
!379 = distinct !{!379, !380, !"_ZL29x86_write_destination_operandPK9cs_x86_opP8x86_regsm: argument 1"}
!380 = distinct !{!380, !"_ZL29x86_write_destination_operandPK9cs_x86_opP8x86_regsm"}
!381 = distinct !{!381, !382, !"_ZL12x86_read_regPK8x86_regs7x86_reg: argument 0"}
!382 = distinct !{!382, !"_ZL12x86_read_regPK8x86_regs7x86_reg"}
!383 = distinct !{!383, !384, !"_ZL25x86_get_effective_addressPK8x86_regsPK9cs_x86_op: argument 0"}
!384 = distinct !{!384, !"_ZL25x86_get_effective_addressPK8x86_regsPK9cs_x86_op"}
!385 = distinct !{!385, !386, !"_ZL12x86_read_memPK8x86_regsPK9cs_x86_op: argument 0"}
!386 = distinct !{!386, !"_ZL12x86_read_memPK8x86_regsPK9cs_x86_op"}
!387 = distinct !{!387, !388, !"_ZL28x86_read_destination_operandPK9cs_x86_opPK8x86_regs: argument 1"}
!388 = distinct !{!388, !"_ZL28x86_read_destination_operandPK9cs_x86_opPK8x86_regs"}
!389 = distinct !{!389, !390, !"_ZL12x86_read_regPK8x86_regs7x86_reg: argument 0"}
!390 = distinct !{!390, !"_ZL12x86_read_regPK8x86_regs7x86_reg"}
!391 = distinct !{!391, !392, !"_ZL25x86_get_effective_addressPK8x86_regsPK9cs_x86_op: argument 0"}
!392 = distinct !{!392, !"_ZL25x86_get_effective_addressPK8x86_regsPK9cs_x86_op"}
!393 = distinct !{!393, !394, !"_ZL13x86_write_memPK8x86_regsPK9cs_x86_opm: argument 0"}
!394 = distinct !{!394, !"_ZL13x86_write_memPK8x86_regsPK9cs_x86_opm"}
!395 = distinct !{!395, !396, !"_ZL29x86_write_destination_operandPK9cs_x86_opP8x86_regsm: argument 1"}
!396 = distinct !{!396, !"_ZL29x86_write_destination_operandPK9cs_x86_opP8x86_regsm"}
!397 = distinct !{!397, !398, !"_ZL12x86_read_regPK8x86_regs7x86_reg: argument 0"}
!398 = distinct !{!398, !"_ZL12x86_read_regPK8x86_regs7x86_reg"}
!399 = distinct !{!399, !400, !"_ZL25x86_get_effective_addressPK8x86_regsPK9cs_x86_op: argument 0"}
!400 = distinct !{!400, !"_ZL25x86_get_effective_addressPK8x86_regsPK9cs_x86_op"}
!401 = distinct !{!401, !402, !"_ZL12x86_read_memPK8x86_regsPK9cs_x86_op: argument 0"}
!402 = distinct !{!402, !"_ZL12x86_read_memPK8x86_regsPK9cs_x86_op"}
!403 = distinct !{!403, !404, !"_ZL28x86_read_destination_operandPK9cs_x86_opPK8x86_regs: argument 1"}
!404 = distinct !{!404, !"_ZL28x86_read_destination_operandPK9cs_x86_opPK8x86_regs"}
!405 = distinct !{!405, !406, !"_ZL12x86_read_regPK8x86_regs7x86_reg: argument 0"}
!406 = distinct !{!406, !"_ZL12x86_read_regPK8x86_regs7x86_reg"}
!407 = distinct !{!407, !408, !"_ZL25x86_get_effective_addressPK8x86_regsPK9cs_x86_op: argument 0"}
!408 = distinct !{!408, !"_ZL25x86_get_effective_addressPK8x86_regsPK9cs_x86_op"}
!409 = distinct !{!409, !410, !"_ZL13x86_write_memPK8x86_regsPK9cs_x86_opm: argument 0"}
!410 = distinct !{!410, !"_ZL13x86_write_memPK8x86_regsPK9cs_x86_opm"}
!411 = distinct !{!411, !412, !"_ZL29x86_write_destination_operandPK9cs_x86_opP8x86_regsm: argument 1"}
!412 = distinct !{!412, !"_ZL29x86_write_destination_operandPK9cs_x86_opP8x86_regsm"}
!413 = !{!414, !416, !418, !420, !422, !424, !426, !428, !430, !432, !434, !436, !438, !440, !442, !444, !446, !448, !450, !452}
!414 = distinct !{!414, !415, !"_ZL12x86_read_regPK8x86_regs7x86_reg: argument 0"}
!415 = distinct !{!415, !"_ZL12x86_read_regPK8x86_regs7x86_reg"}
!416 = distinct !{!416, !417, !"_ZL25x86_get_effective_addressPK8x86_regsPK9cs_x86_op: argument 0"}
!417 = distinct !{!417, !"_ZL25x86_get_effective_addressPK8x86_regsPK9cs_x86_op"}
!418 = distinct !{!418, !419, !"_ZL13x86_write_memPK8x86_regsPK9cs_x86_opm: argument 0"}
!419 = distinct !{!419, !"_ZL13x86_write_memPK8x86_regsPK9cs_x86_opm"}
!420 = distinct !{!420, !421, !"_ZL29x86_write_destination_operandPK9cs_x86_opP8x86_regsm: argument 1"}
!421 = distinct !{!421, !"_ZL29x86_write_destination_operandPK9cs_x86_opP8x86_regsm"}
!422 = distinct !{!422, !423, !"_ZL12x86_read_regPK8x86_regs7x86_reg: argument 0"}
!423 = distinct !{!423, !"_ZL12x86_read_regPK8x86_regs7x86_reg"}
!424 = distinct !{!424, !425, !"_ZL25x86_get_effective_addressPK8x86_regsPK9cs_x86_op: argument 0"}
!425 = distinct !{!425, !"_ZL25x86_get_effective_addressPK8x86_regsPK9cs_x86_op"}
!426 = distinct !{!426, !427, !"_ZL12x86_read_memPK8x86_regsPK9cs_x86_op: argument 0"}
!427 = distinct !{!427, !"_ZL12x86_read_memPK8x86_regsPK9cs_x86_op"}
!428 = distinct !{!428, !429, !"_ZL28x86_read_destination_operandPK9cs_x86_opPK8x86_regs: argument 1"}
!429 = distinct !{!429, !"_ZL28x86_read_destination_operandPK9cs_x86_opPK8x86_regs"}
!430 = distinct !{!430, !431, !"_ZL12x86_read_regPK8x86_regs7x86_reg: argument 0"}
!431 = distinct !{!431, !"_ZL12x86_read_regPK8x86_regs7x86_reg"}
!432 = distinct !{!432, !433, !"_ZL25x86_get_effective_addressPK8x86_regsPK9cs_x86_op: argument 0"}
!433 = distinct !{!433, !"_ZL25x86_get_effective_addressPK8x86_regsPK9cs_x86_op"}
!434 = distinct !{!434, !435, !"_ZL13x86_write_memPK8x86_regsPK9cs_x86_opm: argument 0"}
!435 = distinct !{!435, !"_ZL13x86_write_memPK8x86_regsPK9cs_x86_opm"}
!436 = distinct !{!436, !437, !"_ZL29x86_write_destination_operandPK9cs_x86_opP8x86_regsm: argument 1"}
!437 = distinct !{!437, !"_ZL29x86_write_destination_operandPK9cs_x86_opP8x86_regsm"}
!438 = distinct !{!438, !439, !"_ZL12x86_read_regPK8x86_regs7x86_reg: argument 0"}
!439 = distinct !{!439, !"_ZL12x86_read_regPK8x86_regs7x86_reg"}
!440 = distinct !{!440, !441, !"_ZL25x86_get_effective_addressPK8x86_regsPK9cs_x86_op: argument 0"}
!441 = distinct !{!441, !"_ZL25x86_get_effective_addressPK8x86_regsPK9cs_x86_op"}
!442 = distinct !{!442, !443, !"_ZL12x86_read_memPK8x86_regsPK9cs_x86_op: argument 0"}
!443 = distinct !{!443, !"_ZL12x86_read_memPK8x86_regsPK9cs_x86_op"}
!444 = distinct !{!444, !445, !"_ZL28x86_read_destination_operandPK9cs_x86_opPK8x86_regs: argument 1"}
!445 = distinct !{!445, !"_ZL28x86_read_destination_operandPK9cs_x86_opPK8x86_regs"}
!446 = distinct !{!446, !447, !"_ZL12x86_read_regPK8x86_regs7x86_reg: argument 0"}
!447 = distinct !{!447, !"_ZL12x86_read_regPK8x86_regs7x86_reg"}
!448 = distinct !{!448, !449, !"_ZL25x86_get_effective_addressPK8x86_regsPK9cs_x86_op: argument 0"}
!449 = distinct !{!449, !"_ZL25x86_get_effective_addressPK8x86_regsPK9cs_x86_op"}
!450 = distinct !{!450, !451, !"_ZL13x86_write_memPK8x86_regsPK9cs_x86_opm: argument 0"}
!451 = distinct !{!451, !"_ZL13x86_write_memPK8x86_regsPK9cs_x86_opm"}
!452 = distinct !{!452, !453, !"_ZL29x86_write_destination_operandPK9cs_x86_opP8x86_regsm: argument 1"}
!453 = distinct !{!453, !"_ZL29x86_write_destination_operandPK9cs_x86_opP8x86_regsm"}
!454 = !{!455, !457, !459}
!455 = distinct !{!455, !456, !"_ZL12x86_read_regPK8x86_regs7x86_reg: argument 0"}
!456 = distinct !{!456, !"_ZL12x86_read_regPK8x86_regs7x86_reg"}
!457 = distinct !{!457, !458, !"_ZL12x86_read_regPK8x86_regsPK9cs_x86_op: argument 0"}
!458 = distinct !{!458, !"_ZL12x86_read_regPK8x86_regsPK9cs_x86_op"}
!459 = distinct !{!459, !460, !"_ZL23x86_read_source_operandPK9cs_x86_opPK8x86_regs: argument 1"}
!460 = distinct !{!460, !"_ZL23x86_read_source_operandPK9cs_x86_opPK8x86_regs"}
!461 = !{!462}
!462 = distinct !{!462, !460, !"_ZL23x86_read_source_operandPK9cs_x86_opPK8x86_regs: argument 0"}
!463 = !{!20, !21, i64 0}
!464 = !{!465, !467}
!465 = distinct !{!465, !466, !"_ZL13x86_add_flagsIaENSt13make_unsignedIT_E4typeEP13x86_flags_regmm: argument 0"}
!466 = distinct !{!466, !"_ZL13x86_add_flagsIaENSt13make_unsignedIT_E4typeEP13x86_flags_regmm"}
!467 = distinct !{!467, !468, !"_ZL7x86_addP13x86_flags_regmmm: argument 0"}
!468 = distinct !{!468, !"_ZL7x86_addP13x86_flags_regmmm"}
!469 = !{!20, !21, i64 5}
!470 = !{!20, !21, i64 4}
!471 = !{!20, !21, i64 2}
!472 = !{!467}
!473 = !{!20, !21, i64 3}
!474 = !{!20, !21, i64 1}
!475 = !{!476, !478, !480}
!476 = distinct !{!476, !477, !"_ZL13x86_write_regP8x86_regs7x86_regm: argument 0"}
!477 = distinct !{!477, !"_ZL13x86_write_regP8x86_regs7x86_regm"}
!478 = distinct !{!478, !479, !"_ZL13x86_write_regP8x86_regsPK9cs_x86_opm: argument 0"}
!479 = distinct !{!479, !"_ZL13x86_write_regP8x86_regsPK9cs_x86_opm"}
!480 = distinct !{!480, !481, !"_ZL29x86_write_destination_operandPK9cs_x86_opP8x86_regsm: argument 1"}
!481 = distinct !{!481, !"_ZL29x86_write_destination_operandPK9cs_x86_opP8x86_regsm"}
!482 = !{!483}
!483 = distinct !{!483, !481, !"_ZL29x86_write_destination_operandPK9cs_x86_opP8x86_regsm: argument 0"}
!484 = !{!485, !487, !489, !491}
!485 = distinct !{!485, !486, !"_ZL12x86_read_regPK8x86_regs7x86_reg: argument 0"}
!486 = distinct !{!486, !"_ZL12x86_read_regPK8x86_regs7x86_reg"}
!487 = distinct !{!487, !488, !"_ZL25x86_get_effective_addressPK8x86_regsPK9cs_x86_op: argument 0"}
!488 = distinct !{!488, !"_ZL25x86_get_effective_addressPK8x86_regsPK9cs_x86_op"}
!489 = distinct !{!489, !490, !"_ZL12x86_read_memPK8x86_regsPK9cs_x86_op: argument 0"}
!490 = distinct !{!490, !"_ZL12x86_read_memPK8x86_regsPK9cs_x86_op"}
!491 = distinct !{!491, !492, !"_ZL28x86_read_destination_operandPK9cs_x86_opPK8x86_regs: argument 1"}
!492 = distinct !{!492, !"_ZL28x86_read_destination_operandPK9cs_x86_opPK8x86_regs"}
!493 = !{!494, !495, !496}
!494 = distinct !{!494, !488, !"_ZL25x86_get_effective_addressPK8x86_regsPK9cs_x86_op: argument 1"}
!495 = distinct !{!495, !490, !"_ZL12x86_read_memPK8x86_regsPK9cs_x86_op: argument 1"}
!496 = distinct !{!496, !492, !"_ZL28x86_read_destination_operandPK9cs_x86_opPK8x86_regs: argument 0"}
!497 = !{!498, !500, !502, !504}
!498 = distinct !{!498, !499, !"_ZL12x86_read_regPK8x86_regs7x86_reg: argument 0"}
!499 = distinct !{!499, !"_ZL12x86_read_regPK8x86_regs7x86_reg"}
!500 = distinct !{!500, !501, !"_ZL25x86_get_effective_addressPK8x86_regsPK9cs_x86_op: argument 0"}
!501 = distinct !{!501, !"_ZL25x86_get_effective_addressPK8x86_regsPK9cs_x86_op"}
!502 = distinct !{!502, !503, !"_ZL13x86_write_memPK8x86_regsPK9cs_x86_opm: argument 0"}
!503 = distinct !{!503, !"_ZL13x86_write_memPK8x86_regsPK9cs_x86_opm"}
!504 = distinct !{!504, !505, !"_ZL29x86_write_destination_operandPK9cs_x86_opP8x86_regsm: argument 1"}
!505 = distinct !{!505, !"_ZL29x86_write_destination_operandPK9cs_x86_opP8x86_regsm"}
!506 = !{!507, !508, !509}
!507 = distinct !{!507, !501, !"_ZL25x86_get_effective_addressPK8x86_regsPK9cs_x86_op: argument 1"}
!508 = distinct !{!508, !503, !"_ZL13x86_write_memPK8x86_regsPK9cs_x86_opm: argument 1"}
!509 = distinct !{!509, !505, !"_ZL29x86_write_destination_operandPK9cs_x86_opP8x86_regsm: argument 0"}
!510 = !{!511, !513, !515}
!511 = distinct !{!511, !512, !"_ZL12x86_read_regPK8x86_regs7x86_reg: argument 0"}
!512 = distinct !{!512, !"_ZL12x86_read_regPK8x86_regs7x86_reg"}
!513 = distinct !{!513, !514, !"_ZL12x86_read_regPK8x86_regsPK9cs_x86_op: argument 0"}
!514 = distinct !{!514, !"_ZL12x86_read_regPK8x86_regsPK9cs_x86_op"}
!515 = distinct !{!515, !516, !"_ZL23x86_read_source_operandPK9cs_x86_opPK8x86_regs: argument 1"}
!516 = distinct !{!516, !"_ZL23x86_read_source_operandPK9cs_x86_opPK8x86_regs"}
!517 = !{!518}
!518 = distinct !{!518, !516, !"_ZL23x86_read_source_operandPK9cs_x86_opPK8x86_regs: argument 0"}
!519 = !{!520, !522, !524}
!520 = distinct !{!520, !521, !"_ZL13x86_write_regP8x86_regs7x86_regm: argument 0"}
!521 = distinct !{!521, !"_ZL13x86_write_regP8x86_regs7x86_regm"}
!522 = distinct !{!522, !523, !"_ZL13x86_write_regP8x86_regsPK9cs_x86_opm: argument 0"}
!523 = distinct !{!523, !"_ZL13x86_write_regP8x86_regsPK9cs_x86_opm"}
!524 = distinct !{!524, !525, !"_ZL29x86_write_destination_operandPK9cs_x86_opP8x86_regsm: argument 1"}
!525 = distinct !{!525, !"_ZL29x86_write_destination_operandPK9cs_x86_opP8x86_regsm"}
!526 = !{!527}
!527 = distinct !{!527, !525, !"_ZL29x86_write_destination_operandPK9cs_x86_opP8x86_regsm: argument 0"}
!528 = !{!529, !531, !533, !535, !537, !539, !541, !543}
!529 = distinct !{!529, !530, !"_ZL12x86_read_regPK8x86_regs7x86_reg: argument 0"}
!530 = distinct !{!530, !"_ZL12x86_read_regPK8x86_regs7x86_reg"}
!531 = distinct !{!531, !532, !"_ZL25x86_get_effective_addressPK8x86_regsPK9cs_x86_op: argument 0"}
!532 = distinct !{!532, !"_ZL25x86_get_effective_addressPK8x86_regsPK9cs_x86_op"}
!533 = distinct !{!533, !534, !"_ZL13x86_write_memPK8x86_regsPK9cs_x86_opm: argument 0"}
!534 = distinct !{!534, !"_ZL13x86_write_memPK8x86_regsPK9cs_x86_opm"}
!535 = distinct !{!535, !536, !"_ZL29x86_write_destination_operandPK9cs_x86_opP8x86_regsm: argument 1"}
!536 = distinct !{!536, !"_ZL29x86_write_destination_operandPK9cs_x86_opP8x86_regsm"}
!537 = distinct !{!537, !538, !"_ZL12x86_read_regPK8x86_regs7x86_reg: argument 0"}
!538 = distinct !{!538, !"_ZL12x86_read_regPK8x86_regs7x86_reg"}
!539 = distinct !{!539, !540, !"_ZL25x86_get_effective_addressPK8x86_regsPK9cs_x86_op: argument 0"}
!540 = distinct !{!540, !"_ZL25x86_get_effective_addressPK8x86_regsPK9cs_x86_op"}
!541 = distinct !{!541, !542, !"_ZL12x86_read_memPK8x86_regsPK9cs_x86_op: argument 0"}
!542 = distinct !{!542, !"_ZL12x86_read_memPK8x86_regsPK9cs_x86_op"}
!543 = distinct !{!543, !544, !"_ZL28x86_read_destination_operandPK9cs_x86_opPK8x86_regs: argument 1"}
!544 = distinct !{!544, !"_ZL28x86_read_destination_operandPK9cs_x86_opPK8x86_regs"}
!545 = !{!546, !548, !550, !552, !554, !556, !558, !560, !562, !564, !566, !568, !570, !572, !574, !576, !578, !580, !582, !584, !586, !588, !590, !592, !594, !596, !598, !600, !602, !604, !606, !608}
!546 = distinct !{!546, !547, !"_ZL12x86_read_regPK8x86_regs7x86_reg: argument 0"}
!547 = distinct !{!547, !"_ZL12x86_read_regPK8x86_regs7x86_reg"}
!548 = distinct !{!548, !549, !"_ZL25x86_get_effective_addressPK8x86_regsPK9cs_x86_op: argument 0"}
!549 = distinct !{!549, !"_ZL25x86_get_effective_addressPK8x86_regsPK9cs_x86_op"}
!550 = distinct !{!550, !551, !"_ZL12x86_read_memPK8x86_regsPK9cs_x86_op: argument 0"}
!551 = distinct !{!551, !"_ZL12x86_read_memPK8x86_regsPK9cs_x86_op"}
!552 = distinct !{!552, !553, !"_ZL28x86_read_destination_operandPK9cs_x86_opPK8x86_regs: argument 1"}
!553 = distinct !{!553, !"_ZL28x86_read_destination_operandPK9cs_x86_opPK8x86_regs"}
!554 = distinct !{!554, !555, !"_ZL12x86_read_regPK8x86_regs7x86_reg: argument 0"}
!555 = distinct !{!555, !"_ZL12x86_read_regPK8x86_regs7x86_reg"}
!556 = distinct !{!556, !557, !"_ZL25x86_get_effective_addressPK8x86_regsPK9cs_x86_op: argument 0"}
!557 = distinct !{!557, !"_ZL25x86_get_effective_addressPK8x86_regsPK9cs_x86_op"}
!558 = distinct !{!558, !559, !"_ZL13x86_write_memPK8x86_regsPK9cs_x86_opm: argument 0"}
!559 = distinct !{!559, !"_ZL13x86_write_memPK8x86_regsPK9cs_x86_opm"}
!560 = distinct !{!560, !561, !"_ZL29x86_write_destination_operandPK9cs_x86_opP8x86_regsm: argument 1"}
!561 = distinct !{!561, !"_ZL29x86_write_destination_operandPK9cs_x86_opP8x86_regsm"}
!562 = distinct !{!562, !563, !"_ZL12x86_read_regPK8x86_regs7x86_reg: argument 0"}
!563 = distinct !{!563, !"_ZL12x86_read_regPK8x86_regs7x86_reg"}
!564 = distinct !{!564, !565, !"_ZL25x86_get_effective_addressPK8x86_regsPK9cs_x86_op: argument 0"}
!565 = distinct !{!565, !"_ZL25x86_get_effective_addressPK8x86_regsPK9cs_x86_op"}
!566 = distinct !{!566, !567, !"_ZL12x86_read_memPK8x86_regsPK9cs_x86_op: argument 0"}
!567 = distinct !{!567, !"_ZL12x86_read_memPK8x86_regsPK9cs_x86_op"}
!568 = distinct !{!568, !569, !"_ZL28x86_read_destination_operandPK9cs_x86_opPK8x86_regs: argument 1"}
!569 = distinct !{!569, !"_ZL28x86_read_destination_operandPK9cs_x86_opPK8x86_regs"}
!570 = distinct !{!570, !571, !"_ZL12x86_read_regPK8x86_regs7x86_reg: argument 0"}
!571 = distinct !{!571, !"_ZL12x86_read_regPK8x86_regs7x86_reg"}
!572 = distinct !{!572, !573, !"_ZL25x86_get_effective_addressPK8x86_regsPK9cs_x86_op: argument 0"}
!573 = distinct !{!573, !"_ZL25x86_get_effective_addressPK8x86_regsPK9cs_x86_op"}
!574 = distinct !{!574, !575, !"_ZL13x86_write_memPK8x86_regsPK9cs_x86_opm: argument 0"}
!575 = distinct !{!575, !"_ZL13x86_write_memPK8x86_regsPK9cs_x86_opm"}
!576 = distinct !{!576, !577, !"_ZL29x86_write_destination_operandPK9cs_x86_opP8x86_regsm: argument 1"}
!577 = distinct !{!577, !"_ZL29x86_write_destination_operandPK9cs_x86_opP8x86_regsm"}
!578 = distinct !{!578, !579, !"_ZL12x86_read_regPK8x86_regs7x86_reg: argument 0"}
!579 = distinct !{!579, !"_ZL12x86_read_regPK8x86_regs7x86_reg"}
!580 = distinct !{!580, !581, !"_ZL25x86_get_effective_addressPK8x86_regsPK9cs_x86_op: argument 0"}
!581 = distinct !{!581, !"_ZL25x86_get_effective_addressPK8x86_regsPK9cs_x86_op"}
!582 = distinct !{!582, !583, !"_ZL12x86_read_memPK8x86_regsPK9cs_x86_op: argument 0"}
!583 = distinct !{!583, !"_ZL12x86_read_memPK8x86_regsPK9cs_x86_op"}
!584 = distinct !{!584, !585, !"_ZL28x86_read_destination_operandPK9cs_x86_opPK8x86_regs: argument 1"}
!585 = distinct !{!585, !"_ZL28x86_read_destination_operandPK9cs_x86_opPK8x86_regs"}
!586 = distinct !{!586, !587, !"_ZL12x86_read_regPK8x86_regs7x86_reg: argument 0"}
!587 = distinct !{!587, !"_ZL12x86_read_regPK8x86_regs7x86_reg"}
!588 = distinct !{!588, !589, !"_ZL25x86_get_effective_addressPK8x86_regsPK9cs_x86_op: argument 0"}
!589 = distinct !{!589, !"_ZL25x86_get_effective_addressPK8x86_regsPK9cs_x86_op"}
!590 = distinct !{!590, !591, !"_ZL13x86_write_memPK8x86_regsPK9cs_x86_opm: argument 0"}
!591 = distinct !{!591, !"_ZL13x86_write_memPK8x86_regsPK9cs_x86_opm"}
!592 = distinct !{!592, !593, !"_ZL29x86_write_destination_operandPK9cs_x86_opP8x86_regsm: argument 1"}
!593 = distinct !{!593, !"_ZL29x86_write_destination_operandPK9cs_x86_opP8x86_regsm"}
!594 = distinct !{!594, !595, !"_ZL12x86_read_regPK8x86_regs7x86_reg: argument 0"}
!595 = distinct !{!595, !"_ZL12x86_read_regPK8x86_regs7x86_reg"}
!596 = distinct !{!596, !597, !"_ZL25x86_get_effective_addressPK8x86_regsPK9cs_x86_op: argument 0"}
!597 = distinct !{!597, !"_ZL25x86_get_effective_addressPK8x86_regsPK9cs_x86_op"}
!598 = distinct !{!598, !599, !"_ZL12x86_read_memPK8x86_regsPK9cs_x86_op: argument 0"}
!599 = distinct !{!599, !"_ZL12x86_read_memPK8x86_regsPK9cs_x86_op"}
!600 = distinct !{!600, !601, !"_ZL28x86_read_destination_operandPK9cs_x86_opPK8x86_regs: argument 1"}
!601 = distinct !{!601, !"_ZL28x86_read_destination_operandPK9cs_x86_opPK8x86_regs"}
!602 = distinct !{!602, !603, !"_ZL12x86_read_regPK8x86_regs7x86_reg: argument 0"}
!603 = distinct !{!603, !"_ZL12x86_read_regPK8x86_regs7x86_reg"}
!604 = distinct !{!604, !605, !"_ZL25x86_get_effective_addressPK8x86_regsPK9cs_x86_op: argument 0"}
!605 = distinct !{!605, !"_ZL25x86_get_effective_addressPK8x86_regsPK9cs_x86_op"}
!606 = distinct !{!606, !607, !"_ZL13x86_write_memPK8x86_regsPK9cs_x86_opm: argument 0"}
!607 = distinct !{!607, !"_ZL13x86_write_memPK8x86_regsPK9cs_x86_opm"}
!608 = distinct !{!608, !609, !"_ZL29x86_write_destination_operandPK9cs_x86_opP8x86_regsm: argument 1"}
!609 = distinct !{!609, !"_ZL29x86_write_destination_operandPK9cs_x86_opP8x86_regsm"}
!610 = !{!611, !613, !615}
!611 = distinct !{!611, !612, !"_ZL12x86_read_regPK8x86_regs7x86_reg: argument 0"}
!612 = distinct !{!612, !"_ZL12x86_read_regPK8x86_regs7x86_reg"}
!613 = distinct !{!613, !614, !"_ZL12x86_read_regPK8x86_regsPK9cs_x86_op: argument 0"}
!614 = distinct !{!614, !"_ZL12x86_read_regPK8x86_regsPK9cs_x86_op"}
!615 = distinct !{!615, !616, !"_ZL23x86_read_source_operandPK9cs_x86_opPK8x86_regs: argument 1"}
!616 = distinct !{!616, !"_ZL23x86_read_source_operandPK9cs_x86_opPK8x86_regs"}
!617 = !{!618}
!618 = distinct !{!618, !616, !"_ZL23x86_read_source_operandPK9cs_x86_opPK8x86_regs: argument 0"}
!619 = !{!620, !622, !624, !626, !628, !630, !632, !634, !636, !638, !640, !642}
!620 = distinct !{!620, !621, !"_ZL12x86_read_regPK8x86_regs7x86_reg: argument 0"}
!621 = distinct !{!621, !"_ZL12x86_read_regPK8x86_regs7x86_reg"}
!622 = distinct !{!622, !623, !"_ZL25x86_get_effective_addressPK8x86_regsPK9cs_x86_op: argument 0"}
!623 = distinct !{!623, !"_ZL25x86_get_effective_addressPK8x86_regsPK9cs_x86_op"}
!624 = distinct !{!624, !625, !"_ZL13x86_write_memPK8x86_regsPK9cs_x86_opm: argument 0"}
!625 = distinct !{!625, !"_ZL13x86_write_memPK8x86_regsPK9cs_x86_opm"}
!626 = distinct !{!626, !627, !"_ZL29x86_write_destination_operandPK9cs_x86_opP8x86_regsm: argument 1"}
!627 = distinct !{!627, !"_ZL29x86_write_destination_operandPK9cs_x86_opP8x86_regsm"}
!628 = distinct !{!628, !629, !"_ZL12x86_read_regPK8x86_regs7x86_reg: argument 0"}
!629 = distinct !{!629, !"_ZL12x86_read_regPK8x86_regs7x86_reg"}
!630 = distinct !{!630, !631, !"_ZL25x86_get_effective_addressPK8x86_regsPK9cs_x86_op: argument 0"}
!631 = distinct !{!631, !"_ZL25x86_get_effective_addressPK8x86_regsPK9cs_x86_op"}
!632 = distinct !{!632, !633, !"_ZL12x86_read_memPK8x86_regsPK9cs_x86_op: argument 0"}
!633 = distinct !{!633, !"_ZL12x86_read_memPK8x86_regsPK9cs_x86_op"}
!634 = distinct !{!634, !635, !"_ZL28x86_read_destination_operandPK9cs_x86_opPK8x86_regs: argument 1"}
!635 = distinct !{!635, !"_ZL28x86_read_destination_operandPK9cs_x86_opPK8x86_regs"}
!636 = distinct !{!636, !637, !"_ZL12x86_read_regPK8x86_regs7x86_reg: argument 0"}
!637 = distinct !{!637, !"_ZL12x86_read_regPK8x86_regs7x86_reg"}
!638 = distinct !{!638, !639, !"_ZL25x86_get_effective_addressPK8x86_regsPK9cs_x86_op: argument 0"}
!639 = distinct !{!639, !"_ZL25x86_get_effective_addressPK8x86_regsPK9cs_x86_op"}
!640 = distinct !{!640, !641, !"_ZL13x86_write_memPK8x86_regsPK9cs_x86_opm: argument 0"}
!641 = distinct !{!641, !"_ZL13x86_write_memPK8x86_regsPK9cs_x86_opm"}
!642 = distinct !{!642, !643, !"_ZL29x86_write_destination_operandPK9cs_x86_opP8x86_regsm: argument 1"}
!643 = distinct !{!643, !"_ZL29x86_write_destination_operandPK9cs_x86_opP8x86_regsm"}
!644 = !{!645, !647, !649, !651, !653, !655, !657, !659}
!645 = distinct !{!645, !646, !"_ZL12x86_read_regPK8x86_regs7x86_reg: argument 0"}
!646 = distinct !{!646, !"_ZL12x86_read_regPK8x86_regs7x86_reg"}
!647 = distinct !{!647, !648, !"_ZL25x86_get_effective_addressPK8x86_regsPK9cs_x86_op: argument 0"}
!648 = distinct !{!648, !"_ZL25x86_get_effective_addressPK8x86_regsPK9cs_x86_op"}
!649 = distinct !{!649, !650, !"_ZL13x86_write_memPK8x86_regsPK9cs_x86_opm: argument 0"}
!650 = distinct !{!650, !"_ZL13x86_write_memPK8x86_regsPK9cs_x86_opm"}
!651 = distinct !{!651, !652, !"_ZL29x86_write_destination_operandPK9cs_x86_opP8x86_regsm: argument 1"}
!652 = distinct !{!652, !"_ZL29x86_write_destination_operandPK9cs_x86_opP8x86_regsm"}
!653 = distinct !{!653, !654, !"_ZL12x86_read_regPK8x86_regs7x86_reg: argument 0"}
!654 = distinct !{!654, !"_ZL12x86_read_regPK8x86_regs7x86_reg"}
!655 = distinct !{!655, !656, !"_ZL25x86_get_effective_addressPK8x86_regsPK9cs_x86_op: argument 0"}
!656 = distinct !{!656, !"_ZL25x86_get_effective_addressPK8x86_regsPK9cs_x86_op"}
!657 = distinct !{!657, !658, !"_ZL12x86_read_memPK8x86_regsPK9cs_x86_op: argument 0"}
!658 = distinct !{!658, !"_ZL12x86_read_memPK8x86_regsPK9cs_x86_op"}
!659 = distinct !{!659, !660, !"_ZL28x86_read_destination_operandPK9cs_x86_opPK8x86_regs: argument 1"}
!660 = distinct !{!660, !"_ZL28x86_read_destination_operandPK9cs_x86_opPK8x86_regs"}
!661 = !{!662, !664, !666, !668, !670}
!662 = distinct !{!662, !663, !"_ZL12x86_read_regPK8x86_regs7x86_reg: argument 0"}
!663 = distinct !{!663, !"_ZL12x86_read_regPK8x86_regs7x86_reg"}
!664 = distinct !{!664, !665, !"_ZL25x86_get_effective_addressPK8x86_regsPK9cs_x86_op: argument 0"}
!665 = distinct !{!665, !"_ZL25x86_get_effective_addressPK8x86_regsPK9cs_x86_op"}
!666 = distinct !{!666, !667, !"_ZL13x86_write_memPK8x86_regsPK9cs_x86_opm: argument 0"}
!667 = distinct !{!667, !"_ZL13x86_write_memPK8x86_regsPK9cs_x86_opm"}
!668 = distinct !{!668, !669, !"_ZL29x86_write_destination_operandPK9cs_x86_opP8x86_regsm: argument 1"}
!669 = distinct !{!669, !"_ZL29x86_write_destination_operandPK9cs_x86_opP8x86_regsm"}
!670 = distinct !{!670, !671, !"_ZL12x86_read_regPK8x86_regs7x86_reg: argument 0"}
!671 = distinct !{!671, !"_ZL12x86_read_regPK8x86_regs7x86_reg"}
!672 = !{!673, !674, !675}
!673 = distinct !{!673, !665, !"_ZL25x86_get_effective_addressPK8x86_regsPK9cs_x86_op: argument 1"}
!674 = distinct !{!674, !667, !"_ZL13x86_write_memPK8x86_regsPK9cs_x86_opm: argument 1"}
!675 = distinct !{!675, !669, !"_ZL29x86_write_destination_operandPK9cs_x86_opP8x86_regsm: argument 0"}
!676 = !{!677, !679, !681, !683, !685, !687, !689, !691, !693, !695, !697, !699, !701, !703, !705, !707, !709, !711, !713, !715, !717, !719, !721, !723}
!677 = distinct !{!677, !678, !"_ZL12x86_read_regPK8x86_regs7x86_reg: argument 0"}
!678 = distinct !{!678, !"_ZL12x86_read_regPK8x86_regs7x86_reg"}
!679 = distinct !{!679, !680, !"_ZL25x86_get_effective_addressPK8x86_regsPK9cs_x86_op: argument 0"}
!680 = distinct !{!680, !"_ZL25x86_get_effective_addressPK8x86_regsPK9cs_x86_op"}
!681 = distinct !{!681, !682, !"_ZL12x86_read_memPK8x86_regsPK9cs_x86_op: argument 0"}
!682 = distinct !{!682, !"_ZL12x86_read_memPK8x86_regsPK9cs_x86_op"}
!683 = distinct !{!683, !684, !"_ZL28x86_read_destination_operandPK9cs_x86_opPK8x86_regs: argument 1"}
!684 = distinct !{!684, !"_ZL28x86_read_destination_operandPK9cs_x86_opPK8x86_regs"}
!685 = distinct !{!685, !686, !"_ZL12x86_read_regPK8x86_regs7x86_reg: argument 0"}
!686 = distinct !{!686, !"_ZL12x86_read_regPK8x86_regs7x86_reg"}
!687 = distinct !{!687, !688, !"_ZL25x86_get_effective_addressPK8x86_regsPK9cs_x86_op: argument 0"}
!688 = distinct !{!688, !"_ZL25x86_get_effective_addressPK8x86_regsPK9cs_x86_op"}
!689 = distinct !{!689, !690, !"_ZL13x86_write_memPK8x86_regsPK9cs_x86_opm: argument 0"}
!690 = distinct !{!690, !"_ZL13x86_write_memPK8x86_regsPK9cs_x86_opm"}
!691 = distinct !{!691, !692, !"_ZL29x86_write_destination_operandPK9cs_x86_opP8x86_regsm: argument 1"}
!692 = distinct !{!692, !"_ZL29x86_write_destination_operandPK9cs_x86_opP8x86_regsm"}
!693 = distinct !{!693, !694, !"_ZL12x86_read_regPK8x86_regs7x86_reg: argument 0"}
!694 = distinct !{!694, !"_ZL12x86_read_regPK8x86_regs7x86_reg"}
!695 = distinct !{!695, !696, !"_ZL25x86_get_effective_addressPK8x86_regsPK9cs_x86_op: argument 0"}
!696 = distinct !{!696, !"_ZL25x86_get_effective_addressPK8x86_regsPK9cs_x86_op"}
!697 = distinct !{!697, !698, !"_ZL12x86_read_memPK8x86_regsPK9cs_x86_op: argument 0"}
!698 = distinct !{!698, !"_ZL12x86_read_memPK8x86_regsPK9cs_x86_op"}
!699 = distinct !{!699, !700, !"_ZL28x86_read_destination_operandPK9cs_x86_opPK8x86_regs: argument 1"}
!700 = distinct !{!700, !"_ZL28x86_read_destination_operandPK9cs_x86_opPK8x86_regs"}
!701 = distinct !{!701, !702, !"_ZL12x86_read_regPK8x86_regs7x86_reg: argument 0"}
!702 = distinct !{!702, !"_ZL12x86_read_regPK8x86_regs7x86_reg"}
!703 = distinct !{!703, !704, !"_ZL25x86_get_effective_addressPK8x86_regsPK9cs_x86_op: argument 0"}
!704 = distinct !{!704, !"_ZL25x86_get_effective_addressPK8x86_regsPK9cs_x86_op"}
!705 = distinct !{!705, !706, !"_ZL13x86_write_memPK8x86_regsPK9cs_x86_opm: argument 0"}
!706 = distinct !{!706, !"_ZL13x86_write_memPK8x86_regsPK9cs_x86_opm"}
!707 = distinct !{!707, !708, !"_ZL29x86_write_destination_operandPK9cs_x86_opP8x86_regsm: argument 1"}
!708 = distinct !{!708, !"_ZL29x86_write_destination_operandPK9cs_x86_opP8x86_regsm"}
!709 = distinct !{!709, !710, !"_ZL12x86_read_regPK8x86_regs7x86_reg: argument 0"}
!710 = distinct !{!710, !"_ZL12x86_read_regPK8x86_regs7x86_reg"}
!711 = distinct !{!711, !712, !"_ZL25x86_get_effective_addressPK8x86_regsPK9cs_x86_op: argument 0"}
!712 = distinct !{!712, !"_ZL25x86_get_effective_addressPK8x86_regsPK9cs_x86_op"}
!713 = distinct !{!713, !714, !"_ZL12x86_read_memPK8x86_regsPK9cs_x86_op: argument 0"}
!714 = distinct !{!714, !"_ZL12x86_read_memPK8x86_regsPK9cs_x86_op"}
!715 = distinct !{!715, !716, !"_ZL28x86_read_destination_operandPK9cs_x86_opPK8x86_regs: argument 1"}
!716 = distinct !{!716, !"_ZL28x86_read_destination_operandPK9cs_x86_opPK8x86_regs"}
!717 = distinct !{!717, !718, !"_ZL12x86_read_regPK8x86_regs7x86_reg: argument 0"}
!718 = distinct !{!718, !"_ZL12x86_read_regPK8x86_regs7x86_reg"}
!719 = distinct !{!719, !720, !"_ZL25x86_get_effective_addressPK8x86_regsPK9cs_x86_op: argument 0"}
!720 = distinct !{!720, !"_ZL25x86_get_effective_addressPK8x86_regsPK9cs_x86_op"}
!721 = distinct !{!721, !722, !"_ZL13x86_write_memPK8x86_regsPK9cs_x86_opm: argument 0"}
!722 = distinct !{!722, !"_ZL13x86_write_memPK8x86_regsPK9cs_x86_opm"}
!723 = distinct !{!723, !724, !"_ZL29x86_write_destination_operandPK9cs_x86_opP8x86_regsm: argument 1"}
!724 = distinct !{!724, !"_ZL29x86_write_destination_operandPK9cs_x86_opP8x86_regsm"}
!725 = !{!726, !728, !730, !732, !734, !736, !738, !740, !742, !744, !746, !748, !750, !752, !754, !756, !758, !760, !762, !764, !766, !768, !770, !772}
!726 = distinct !{!726, !727, !"_ZL12x86_read_regPK8x86_regs7x86_reg: argument 0"}
!727 = distinct !{!727, !"_ZL12x86_read_regPK8x86_regs7x86_reg"}
!728 = distinct !{!728, !729, !"_ZL25x86_get_effective_addressPK8x86_regsPK9cs_x86_op: argument 0"}
!729 = distinct !{!729, !"_ZL25x86_get_effective_addressPK8x86_regsPK9cs_x86_op"}
!730 = distinct !{!730, !731, !"_ZL12x86_read_memPK8x86_regsPK9cs_x86_op: argument 0"}
!731 = distinct !{!731, !"_ZL12x86_read_memPK8x86_regsPK9cs_x86_op"}
!732 = distinct !{!732, !733, !"_ZL28x86_read_destination_operandPK9cs_x86_opPK8x86_regs: argument 1"}
!733 = distinct !{!733, !"_ZL28x86_read_destination_operandPK9cs_x86_opPK8x86_regs"}
!734 = distinct !{!734, !735, !"_ZL12x86_read_regPK8x86_regs7x86_reg: argument 0"}
!735 = distinct !{!735, !"_ZL12x86_read_regPK8x86_regs7x86_reg"}
!736 = distinct !{!736, !737, !"_ZL25x86_get_effective_addressPK8x86_regsPK9cs_x86_op: argument 0"}
!737 = distinct !{!737, !"_ZL25x86_get_effective_addressPK8x86_regsPK9cs_x86_op"}
!738 = distinct !{!738, !739, !"_ZL13x86_write_memPK8x86_regsPK9cs_x86_opm: argument 0"}
!739 = distinct !{!739, !"_ZL13x86_write_memPK8x86_regsPK9cs_x86_opm"}
!740 = distinct !{!740, !741, !"_ZL29x86_write_destination_operandPK9cs_x86_opP8x86_regsm: argument 1"}
!741 = distinct !{!741, !"_ZL29x86_write_destination_operandPK9cs_x86_opP8x86_regsm"}
!742 = distinct !{!742, !743, !"_ZL12x86_read_regPK8x86_regs7x86_reg: argument 0"}
!743 = distinct !{!743, !"_ZL12x86_read_regPK8x86_regs7x86_reg"}
!744 = distinct !{!744, !745, !"_ZL25x86_get_effective_addressPK8x86_regsPK9cs_x86_op: argument 0"}
!745 = distinct !{!745, !"_ZL25x86_get_effective_addressPK8x86_regsPK9cs_x86_op"}
!746 = distinct !{!746, !747, !"_ZL12x86_read_memPK8x86_regsPK9cs_x86_op: argument 0"}
!747 = distinct !{!747, !"_ZL12x86_read_memPK8x86_regsPK9cs_x86_op"}
!748 = distinct !{!748, !749, !"_ZL28x86_read_destination_operandPK9cs_x86_opPK8x86_regs: argument 1"}
!749 = distinct !{!749, !"_ZL28x86_read_destination_operandPK9cs_x86_opPK8x86_regs"}
!750 = distinct !{!750, !751, !"_ZL12x86_read_regPK8x86_regs7x86_reg: argument 0"}
!751 = distinct !{!751, !"_ZL12x86_read_regPK8x86_regs7x86_reg"}
!752 = distinct !{!752, !753, !"_ZL25x86_get_effective_addressPK8x86_regsPK9cs_x86_op: argument 0"}
!753 = distinct !{!753, !"_ZL25x86_get_effective_addressPK8x86_regsPK9cs_x86_op"}
!754 = distinct !{!754, !755, !"_ZL13x86_write_memPK8x86_regsPK9cs_x86_opm: argument 0"}
!755 = distinct !{!755, !"_ZL13x86_write_memPK8x86_regsPK9cs_x86_opm"}
!756 = distinct !{!756, !757, !"_ZL29x86_write_destination_operandPK9cs_x86_opP8x86_regsm: argument 1"}
!757 = distinct !{!757, !"_ZL29x86_write_destination_operandPK9cs_x86_opP8x86_regsm"}
!758 = distinct !{!758, !759, !"_ZL12x86_read_regPK8x86_regs7x86_reg: argument 0"}
!759 = distinct !{!759, !"_ZL12x86_read_regPK8x86_regs7x86_reg"}
!760 = distinct !{!760, !761, !"_ZL25x86_get_effective_addressPK8x86_regsPK9cs_x86_op: argument 0"}
!761 = distinct !{!761, !"_ZL25x86_get_effective_addressPK8x86_regsPK9cs_x86_op"}
!762 = distinct !{!762, !763, !"_ZL12x86_read_memPK8x86_regsPK9cs_x86_op: argument 0"}
!763 = distinct !{!763, !"_ZL12x86_read_memPK8x86_regsPK9cs_x86_op"}
!764 = distinct !{!764, !765, !"_ZL28x86_read_destination_operandPK9cs_x86_opPK8x86_regs: argument 1"}
!765 = distinct !{!765, !"_ZL28x86_read_destination_operandPK9cs_x86_opPK8x86_regs"}
!766 = distinct !{!766, !767, !"_ZL12x86_read_regPK8x86_regs7x86_reg: argument 0"}
!767 = distinct !{!767, !"_ZL12x86_read_regPK8x86_regs7x86_reg"}
!768 = distinct !{!768, !769, !"_ZL25x86_get_effective_addressPK8x86_regsPK9cs_x86_op: argument 0"}
!769 = distinct !{!769, !"_ZL25x86_get_effective_addressPK8x86_regsPK9cs_x86_op"}
!770 = distinct !{!770, !771, !"_ZL13x86_write_memPK8x86_regsPK9cs_x86_opm: argument 0"}
!771 = distinct !{!771, !"_ZL13x86_write_memPK8x86_regsPK9cs_x86_opm"}
!772 = distinct !{!772, !773, !"_ZL29x86_write_destination_operandPK9cs_x86_opP8x86_regsm: argument 1"}
!773 = distinct !{!773, !"_ZL29x86_write_destination_operandPK9cs_x86_opP8x86_regsm"}
!774 = !{!775, !777, !779, !781, !783, !785, !787, !789, !791, !793, !795, !797, !799, !801, !803, !805, !807, !809, !811, !813}
!775 = distinct !{!775, !776, !"_ZL12x86_read_regPK8x86_regs7x86_reg: argument 0"}
!776 = distinct !{!776, !"_ZL12x86_read_regPK8x86_regs7x86_reg"}
!777 = distinct !{!777, !778, !"_ZL25x86_get_effective_addressPK8x86_regsPK9cs_x86_op: argument 0"}
!778 = distinct !{!778, !"_ZL25x86_get_effective_addressPK8x86_regsPK9cs_x86_op"}
!779 = distinct !{!779, !780, !"_ZL13x86_write_memPK8x86_regsPK9cs_x86_opm: argument 0"}
!780 = distinct !{!780, !"_ZL13x86_write_memPK8x86_regsPK9cs_x86_opm"}
!781 = distinct !{!781, !782, !"_ZL29x86_write_destination_operandPK9cs_x86_opP8x86_regsm: argument 1"}
!782 = distinct !{!782, !"_ZL29x86_write_destination_operandPK9cs_x86_opP8x86_regsm"}
!783 = distinct !{!783, !784, !"_ZL12x86_read_regPK8x86_regs7x86_reg: argument 0"}
!784 = distinct !{!784, !"_ZL12x86_read_regPK8x86_regs7x86_reg"}
!785 = distinct !{!785, !786, !"_ZL25x86_get_effective_addressPK8x86_regsPK9cs_x86_op: argument 0"}
!786 = distinct !{!786, !"_ZL25x86_get_effective_addressPK8x86_regsPK9cs_x86_op"}
!787 = distinct !{!787, !788, !"_ZL12x86_read_memPK8x86_regsPK9cs_x86_op: argument 0"}
!788 = distinct !{!788, !"_ZL12x86_read_memPK8x86_regsPK9cs_x86_op"}
!789 = distinct !{!789, !790, !"_ZL28x86_read_destination_operandPK9cs_x86_opPK8x86_regs: argument 1"}
!790 = distinct !{!790, !"_ZL28x86_read_destination_operandPK9cs_x86_opPK8x86_regs"}
!791 = distinct !{!791, !792, !"_ZL12x86_read_regPK8x86_regs7x86_reg: argument 0"}
!792 = distinct !{!792, !"_ZL12x86_read_regPK8x86_regs7x86_reg"}
!793 = distinct !{!793, !794, !"_ZL25x86_get_effective_addressPK8x86_regsPK9cs_x86_op: argument 0"}
!794 = distinct !{!794, !"_ZL25x86_get_effective_addressPK8x86_regsPK9cs_x86_op"}
!795 = distinct !{!795, !796, !"_ZL13x86_write_memPK8x86_regsPK9cs_x86_opm: argument 0"}
!796 = distinct !{!796, !"_ZL13x86_write_memPK8x86_regsPK9cs_x86_opm"}
!797 = distinct !{!797, !798, !"_ZL29x86_write_destination_operandPK9cs_x86_opP8x86_regsm: argument 1"}
!798 = distinct !{!798, !"_ZL29x86_write_destination_operandPK9cs_x86_opP8x86_regsm"}
!799 = distinct !{!799, !800, !"_ZL12x86_read_regPK8x86_regs7x86_reg: argument 0"}
!800 = distinct !{!800, !"_ZL12x86_read_regPK8x86_regs7x86_reg"}
!801 = distinct !{!801, !802, !"_ZL25x86_get_effective_addressPK8x86_regsPK9cs_x86_op: argument 0"}
!802 = distinct !{!802, !"_ZL25x86_get_effective_addressPK8x86_regsPK9cs_x86_op"}
!803 = distinct !{!803, !804, !"_ZL12x86_read_memPK8x86_regsPK9cs_x86_op: argument 0"}
!804 = distinct !{!804, !"_ZL12x86_read_memPK8x86_regsPK9cs_x86_op"}
!805 = distinct !{!805, !806, !"_ZL28x86_read_destination_operandPK9cs_x86_opPK8x86_regs: argument 1"}
!806 = distinct !{!806, !"_ZL28x86_read_destination_operandPK9cs_x86_opPK8x86_regs"}
!807 = distinct !{!807, !808, !"_ZL12x86_read_regPK8x86_regs7x86_reg: argument 0"}
!808 = distinct !{!808, !"_ZL12x86_read_regPK8x86_regs7x86_reg"}
!809 = distinct !{!809, !810, !"_ZL25x86_get_effective_addressPK8x86_regsPK9cs_x86_op: argument 0"}
!810 = distinct !{!810, !"_ZL25x86_get_effective_addressPK8x86_regsPK9cs_x86_op"}
!811 = distinct !{!811, !812, !"_ZL13x86_write_memPK8x86_regsPK9cs_x86_opm: argument 0"}
!812 = distinct !{!812, !"_ZL13x86_write_memPK8x86_regsPK9cs_x86_opm"}
!813 = distinct !{!813, !814, !"_ZL29x86_write_destination_operandPK9cs_x86_opP8x86_regsm: argument 1"}
!814 = distinct !{!814, !"_ZL29x86_write_destination_operandPK9cs_x86_opP8x86_regsm"}
!815 = !{!816, !818, !820}
!816 = distinct !{!816, !817, !"_ZL13x86_write_regP8x86_regs7x86_regm: argument 0"}
!817 = distinct !{!817, !"_ZL13x86_write_regP8x86_regs7x86_regm"}
!818 = distinct !{!818, !819, !"_ZL13x86_write_regP8x86_regsPK9cs_x86_opm: argument 0"}
!819 = distinct !{!819, !"_ZL13x86_write_regP8x86_regsPK9cs_x86_opm"}
!820 = distinct !{!820, !821, !"_ZL29x86_write_destination_operandPK9cs_x86_opP8x86_regsm: argument 1"}
!821 = distinct !{!821, !"_ZL29x86_write_destination_operandPK9cs_x86_opP8x86_regsm"}
!822 = !{!823}
!823 = distinct !{!823, !821, !"_ZL29x86_write_destination_operandPK9cs_x86_opP8x86_regsm: argument 0"}
!824 = !{!825, !827, !829, !831, !833, !835, !837, !839, !841, !843, !845, !847, !849, !851, !853, !855, !857, !859, !861, !863, !865, !867, !869, !871}
!825 = distinct !{!825, !826, !"_ZL12x86_read_regPK8x86_regs7x86_reg: argument 0"}
!826 = distinct !{!826, !"_ZL12x86_read_regPK8x86_regs7x86_reg"}
!827 = distinct !{!827, !828, !"_ZL25x86_get_effective_addressPK8x86_regsPK9cs_x86_op: argument 0"}
!828 = distinct !{!828, !"_ZL25x86_get_effective_addressPK8x86_regsPK9cs_x86_op"}
!829 = distinct !{!829, !830, !"_ZL13x86_write_memPK8x86_regsPK9cs_x86_opm: argument 0"}
!830 = distinct !{!830, !"_ZL13x86_write_memPK8x86_regsPK9cs_x86_opm"}
!831 = distinct !{!831, !832, !"_ZL29x86_write_destination_operandPK9cs_x86_opP8x86_regsm: argument 1"}
!832 = distinct !{!832, !"_ZL29x86_write_destination_operandPK9cs_x86_opP8x86_regsm"}
!833 = distinct !{!833, !834, !"_ZL12x86_read_regPK8x86_regs7x86_reg: argument 0"}
!834 = distinct !{!834, !"_ZL12x86_read_regPK8x86_regs7x86_reg"}
!835 = distinct !{!835, !836, !"_ZL25x86_get_effective_addressPK8x86_regsPK9cs_x86_op: argument 0"}
!836 = distinct !{!836, !"_ZL25x86_get_effective_addressPK8x86_regsPK9cs_x86_op"}
!837 = distinct !{!837, !838, !"_ZL12x86_read_memPK8x86_regsPK9cs_x86_op: argument 0"}
!838 = distinct !{!838, !"_ZL12x86_read_memPK8x86_regsPK9cs_x86_op"}
!839 = distinct !{!839, !840, !"_ZL28x86_read_destination_operandPK9cs_x86_opPK8x86_regs: argument 1"}
!840 = distinct !{!840, !"_ZL28x86_read_destination_operandPK9cs_x86_opPK8x86_regs"}
!841 = distinct !{!841, !842, !"_ZL12x86_read_regPK8x86_regs7x86_reg: argument 0"}
!842 = distinct !{!842, !"_ZL12x86_read_regPK8x86_regs7x86_reg"}
!843 = distinct !{!843, !844, !"_ZL25x86_get_effective_addressPK8x86_regsPK9cs_x86_op: argument 0"}
!844 = distinct !{!844, !"_ZL25x86_get_effective_addressPK8x86_regsPK9cs_x86_op"}
!845 = distinct !{!845, !846, !"_ZL13x86_write_memPK8x86_regsPK9cs_x86_opm: argument 0"}
!846 = distinct !{!846, !"_ZL13x86_write_memPK8x86_regsPK9cs_x86_opm"}
!847 = distinct !{!847, !848, !"_ZL29x86_write_destination_operandPK9cs_x86_opP8x86_regsm: argument 1"}
!848 = distinct !{!848, !"_ZL29x86_write_destination_operandPK9cs_x86_opP8x86_regsm"}
!849 = distinct !{!849, !850, !"_ZL12x86_read_regPK8x86_regs7x86_reg: argument 0"}
!850 = distinct !{!850, !"_ZL12x86_read_regPK8x86_regs7x86_reg"}
!851 = distinct !{!851, !852, !"_ZL25x86_get_effective_addressPK8x86_regsPK9cs_x86_op: argument 0"}
!852 = distinct !{!852, !"_ZL25x86_get_effective_addressPK8x86_regsPK9cs_x86_op"}
!853 = distinct !{!853, !854, !"_ZL12x86_read_memPK8x86_regsPK9cs_x86_op: argument 0"}
!854 = distinct !{!854, !"_ZL12x86_read_memPK8x86_regsPK9cs_x86_op"}
!855 = distinct !{!855, !856, !"_ZL28x86_read_destination_operandPK9cs_x86_opPK8x86_regs: argument 1"}
!856 = distinct !{!856, !"_ZL28x86_read_destination_operandPK9cs_x86_opPK8x86_regs"}
!857 = distinct !{!857, !858, !"_ZL12x86_read_regPK8x86_regs7x86_reg: argument 0"}
!858 = distinct !{!858, !"_ZL12x86_read_regPK8x86_regs7x86_reg"}
!859 = distinct !{!859, !860, !"_ZL25x86_get_effective_addressPK8x86_regsPK9cs_x86_op: argument 0"}
!860 = distinct !{!860, !"_ZL25x86_get_effective_addressPK8x86_regsPK9cs_x86_op"}
!861 = distinct !{!861, !862, !"_ZL13x86_write_memPK8x86_regsPK9cs_x86_opm: argument 0"}
!862 = distinct !{!862, !"_ZL13x86_write_memPK8x86_regsPK9cs_x86_opm"}
!863 = distinct !{!863, !864, !"_ZL29x86_write_destination_operandPK9cs_x86_opP8x86_regsm: argument 1"}
!864 = distinct !{!864, !"_ZL29x86_write_destination_operandPK9cs_x86_opP8x86_regsm"}
!865 = distinct !{!865, !866, !"_ZL12x86_read_regPK8x86_regs7x86_reg: argument 0"}
!866 = distinct !{!866, !"_ZL12x86_read_regPK8x86_regs7x86_reg"}
!867 = distinct !{!867, !868, !"_ZL25x86_get_effective_addressPK8x86_regsPK9cs_x86_op: argument 0"}
!868 = distinct !{!868, !"_ZL25x86_get_effective_addressPK8x86_regsPK9cs_x86_op"}
!869 = distinct !{!869, !870, !"_ZL12x86_read_memPK8x86_regsPK9cs_x86_op: argument 0"}
!870 = distinct !{!870, !"_ZL12x86_read_memPK8x86_regsPK9cs_x86_op"}
!871 = distinct !{!871, !872, !"_ZL28x86_read_destination_operandPK9cs_x86_opPK8x86_regs: argument 1"}
!872 = distinct !{!872, !"_ZL28x86_read_destination_operandPK9cs_x86_opPK8x86_regs"}
!873 = !{!874, !876, !878}
!874 = distinct !{!874, !875, !"_ZL13x86_write_regP8x86_regs7x86_regm: argument 0"}
!875 = distinct !{!875, !"_ZL13x86_write_regP8x86_regs7x86_regm"}
!876 = distinct !{!876, !877, !"_ZL13x86_write_regP8x86_regsPK9cs_x86_opm: argument 0"}
!877 = distinct !{!877, !"_ZL13x86_write_regP8x86_regsPK9cs_x86_opm"}
!878 = distinct !{!878, !879, !"_ZL29x86_write_destination_operandPK9cs_x86_opP8x86_regsm: argument 1"}
!879 = distinct !{!879, !"_ZL29x86_write_destination_operandPK9cs_x86_opP8x86_regsm"}
!880 = !{!881}
!881 = distinct !{!881, !879, !"_ZL29x86_write_destination_operandPK9cs_x86_opP8x86_regsm: argument 0"}
!882 = !{!883, !885, !887, !889, !891, !893, !895, !897, !899, !901, !903, !905, !907, !909, !911, !913, !915, !917, !919, !921, !923, !925, !927, !929}
!883 = distinct !{!883, !884, !"_ZL12x86_read_regPK8x86_regs7x86_reg: argument 0"}
!884 = distinct !{!884, !"_ZL12x86_read_regPK8x86_regs7x86_reg"}
!885 = distinct !{!885, !886, !"_ZL25x86_get_effective_addressPK8x86_regsPK9cs_x86_op: argument 0"}
!886 = distinct !{!886, !"_ZL25x86_get_effective_addressPK8x86_regsPK9cs_x86_op"}
!887 = distinct !{!887, !888, !"_ZL13x86_write_memPK8x86_regsPK9cs_x86_opm: argument 0"}
!888 = distinct !{!888, !"_ZL13x86_write_memPK8x86_regsPK9cs_x86_opm"}
!889 = distinct !{!889, !890, !"_ZL29x86_write_destination_operandPK9cs_x86_opP8x86_regsm: argument 1"}
!890 = distinct !{!890, !"_ZL29x86_write_destination_operandPK9cs_x86_opP8x86_regsm"}
!891 = distinct !{!891, !892, !"_ZL12x86_read_regPK8x86_regs7x86_reg: argument 0"}
!892 = distinct !{!892, !"_ZL12x86_read_regPK8x86_regs7x86_reg"}
!893 = distinct !{!893, !894, !"_ZL25x86_get_effective_addressPK8x86_regsPK9cs_x86_op: argument 0"}
!894 = distinct !{!894, !"_ZL25x86_get_effective_addressPK8x86_regsPK9cs_x86_op"}
!895 = distinct !{!895, !896, !"_ZL12x86_read_memPK8x86_regsPK9cs_x86_op: argument 0"}
!896 = distinct !{!896, !"_ZL12x86_read_memPK8x86_regsPK9cs_x86_op"}
!897 = distinct !{!897, !898, !"_ZL28x86_read_destination_operandPK9cs_x86_opPK8x86_regs: argument 1"}
!898 = distinct !{!898, !"_ZL28x86_read_destination_operandPK9cs_x86_opPK8x86_regs"}
!899 = distinct !{!899, !900, !"_ZL12x86_read_regPK8x86_regs7x86_reg: argument 0"}
!900 = distinct !{!900, !"_ZL12x86_read_regPK8x86_regs7x86_reg"}
!901 = distinct !{!901, !902, !"_ZL25x86_get_effective_addressPK8x86_regsPK9cs_x86_op: argument 0"}
!902 = distinct !{!902, !"_ZL25x86_get_effective_addressPK8x86_regsPK9cs_x86_op"}
!903 = distinct !{!903, !904, !"_ZL13x86_write_memPK8x86_regsPK9cs_x86_opm: argument 0"}
!904 = distinct !{!904, !"_ZL13x86_write_memPK8x86_regsPK9cs_x86_opm"}
!905 = distinct !{!905, !906, !"_ZL29x86_write_destination_operandPK9cs_x86_opP8x86_regsm: argument 1"}
!906 = distinct !{!906, !"_ZL29x86_write_destination_operandPK9cs_x86_opP8x86_regsm"}
!907 = distinct !{!907, !908, !"_ZL12x86_read_regPK8x86_regs7x86_reg: argument 0"}
!908 = distinct !{!908, !"_ZL12x86_read_regPK8x86_regs7x86_reg"}
!909 = distinct !{!909, !910, !"_ZL25x86_get_effective_addressPK8x86_regsPK9cs_x86_op: argument 0"}
!910 = distinct !{!910, !"_ZL25x86_get_effective_addressPK8x86_regsPK9cs_x86_op"}
!911 = distinct !{!911, !912, !"_ZL12x86_read_memPK8x86_regsPK9cs_x86_op: argument 0"}
!912 = distinct !{!912, !"_ZL12x86_read_memPK8x86_regsPK9cs_x86_op"}
!913 = distinct !{!913, !914, !"_ZL28x86_read_destination_operandPK9cs_x86_opPK8x86_regs: argument 1"}
!914 = distinct !{!914, !"_ZL28x86_read_destination_operandPK9cs_x86_opPK8x86_regs"}
!915 = distinct !{!915, !916, !"_ZL12x86_read_regPK8x86_regs7x86_reg: argument 0"}
!916 = distinct !{!916, !"_ZL12x86_read_regPK8x86_regs7x86_reg"}
!917 = distinct !{!917, !918, !"_ZL25x86_get_effective_addressPK8x86_regsPK9cs_x86_op: argument 0"}
!918 = distinct !{!918, !"_ZL25x86_get_effective_addressPK8x86_regsPK9cs_x86_op"}
!919 = distinct !{!919, !920, !"_ZL13x86_write_memPK8x86_regsPK9cs_x86_opm: argument 0"}
!920 = distinct !{!920, !"_ZL13x86_write_memPK8x86_regsPK9cs_x86_opm"}
!921 = distinct !{!921, !922, !"_ZL29x86_write_destination_operandPK9cs_x86_opP8x86_regsm: argument 1"}
!922 = distinct !{!922, !"_ZL29x86_write_destination_operandPK9cs_x86_opP8x86_regsm"}
!923 = distinct !{!923, !924, !"_ZL12x86_read_regPK8x86_regs7x86_reg: argument 0"}
!924 = distinct !{!924, !"_ZL12x86_read_regPK8x86_regs7x86_reg"}
!925 = distinct !{!925, !926, !"_ZL25x86_get_effective_addressPK8x86_regsPK9cs_x86_op: argument 0"}
!926 = distinct !{!926, !"_ZL25x86_get_effective_addressPK8x86_regsPK9cs_x86_op"}
!927 = distinct !{!927, !928, !"_ZL12x86_read_memPK8x86_regsPK9cs_x86_op: argument 0"}
!928 = distinct !{!928, !"_ZL12x86_read_memPK8x86_regsPK9cs_x86_op"}
!929 = distinct !{!929, !930, !"_ZL28x86_read_destination_operandPK9cs_x86_opPK8x86_regs: argument 1"}
!930 = distinct !{!930, !"_ZL28x86_read_destination_operandPK9cs_x86_opPK8x86_regs"}
!931 = !{!932, !934, !936, !938}
!932 = distinct !{!932, !933, !"_ZL12x86_read_regPK8x86_regs7x86_reg: argument 0"}
!933 = distinct !{!933, !"_ZL12x86_read_regPK8x86_regs7x86_reg"}
!934 = distinct !{!934, !935, !"_ZL25x86_get_effective_addressPK8x86_regsPK9cs_x86_op: argument 0"}
!935 = distinct !{!935, !"_ZL25x86_get_effective_addressPK8x86_regsPK9cs_x86_op"}
!936 = distinct !{!936, !937, !"_ZL13x86_write_memPK8x86_regsPK9cs_x86_opm: argument 0"}
!937 = distinct !{!937, !"_ZL13x86_write_memPK8x86_regsPK9cs_x86_opm"}
!938 = distinct !{!938, !939, !"_ZL29x86_write_destination_operandPK9cs_x86_opP8x86_regsm: argument 1"}
!939 = distinct !{!939, !"_ZL29x86_write_destination_operandPK9cs_x86_opP8x86_regsm"}
!940 = !{!941, !942, !943}
!941 = distinct !{!941, !935, !"_ZL25x86_get_effective_addressPK8x86_regsPK9cs_x86_op: argument 1"}
!942 = distinct !{!942, !937, !"_ZL13x86_write_memPK8x86_regsPK9cs_x86_opm: argument 1"}
!943 = distinct !{!943, !939, !"_ZL29x86_write_destination_operandPK9cs_x86_opP8x86_regsm: argument 0"}
!944 = !{!945, !947, !949, !951, !953, !955, !957, !959, !961, !963, !965, !967}
!945 = distinct !{!945, !946, !"_ZL12x86_read_regPK8x86_regs7x86_reg: argument 0"}
!946 = distinct !{!946, !"_ZL12x86_read_regPK8x86_regs7x86_reg"}
!947 = distinct !{!947, !948, !"_ZL25x86_get_effective_addressPK8x86_regsPK9cs_x86_op: argument 0"}
!948 = distinct !{!948, !"_ZL25x86_get_effective_addressPK8x86_regsPK9cs_x86_op"}
!949 = distinct !{!949, !950, !"_ZL13x86_write_memPK8x86_regsPK9cs_x86_opm: argument 0"}
!950 = distinct !{!950, !"_ZL13x86_write_memPK8x86_regsPK9cs_x86_opm"}
!951 = distinct !{!951, !952, !"_ZL29x86_write_destination_operandPK9cs_x86_opP8x86_regsm: argument 1"}
!952 = distinct !{!952, !"_ZL29x86_write_destination_operandPK9cs_x86_opP8x86_regsm"}
!953 = distinct !{!953, !954, !"_ZL12x86_read_regPK8x86_regs7x86_reg: argument 0"}
!954 = distinct !{!954, !"_ZL12x86_read_regPK8x86_regs7x86_reg"}
!955 = distinct !{!955, !956, !"_ZL25x86_get_effective_addressPK8x86_regsPK9cs_x86_op: argument 0"}
!956 = distinct !{!956, !"_ZL25x86_get_effective_addressPK8x86_regsPK9cs_x86_op"}
!957 = distinct !{!957, !958, !"_ZL12x86_read_memPK8x86_regsPK9cs_x86_op: argument 0"}
!958 = distinct !{!958, !"_ZL12x86_read_memPK8x86_regsPK9cs_x86_op"}
!959 = distinct !{!959, !960, !"_ZL28x86_read_destination_operandPK9cs_x86_opPK8x86_regs: argument 1"}
!960 = distinct !{!960, !"_ZL28x86_read_destination_operandPK9cs_x86_opPK8x86_regs"}
!961 = distinct !{!961, !962, !"_ZL12x86_read_regPK8x86_regs7x86_reg: argument 0"}
!962 = distinct !{!962, !"_ZL12x86_read_regPK8x86_regs7x86_reg"}
!963 = distinct !{!963, !964, !"_ZL25x86_get_effective_addressPK8x86_regsPK9cs_x86_op: argument 0"}
!964 = distinct !{!964, !"_ZL25x86_get_effective_addressPK8x86_regsPK9cs_x86_op"}
!965 = distinct !{!965, !966, !"_ZL13x86_write_memPK8x86_regsPK9cs_x86_opm: argument 0"}
!966 = distinct !{!966, !"_ZL13x86_write_memPK8x86_regsPK9cs_x86_opm"}
!967 = distinct !{!967, !968, !"_ZL29x86_write_destination_operandPK9cs_x86_opP8x86_regsm: argument 1"}
!968 = distinct !{!968, !"_ZL29x86_write_destination_operandPK9cs_x86_opP8x86_regsm"}
!969 = !{!970, !972, !974}
!970 = distinct !{!970, !971, !"_ZL13x86_write_regP8x86_regs7x86_regm: argument 0"}
!971 = distinct !{!971, !"_ZL13x86_write_regP8x86_regs7x86_regm"}
!972 = distinct !{!972, !973, !"_ZL13x86_write_regP8x86_regsPK9cs_x86_opm: argument 0"}
!973 = distinct !{!973, !"_ZL13x86_write_regP8x86_regsPK9cs_x86_opm"}
!974 = distinct !{!974, !975, !"_ZL29x86_write_destination_operandPK9cs_x86_opP8x86_regsm: argument 1"}
!975 = distinct !{!975, !"_ZL29x86_write_destination_operandPK9cs_x86_opP8x86_regsm"}
!976 = !{!977}
!977 = distinct !{!977, !975, !"_ZL29x86_write_destination_operandPK9cs_x86_opP8x86_regsm: argument 0"}
!978 = !{!979, !981, !983}
!979 = distinct !{!979, !980, !"_ZL12x86_read_regPK8x86_regs7x86_reg: argument 0"}
!980 = distinct !{!980, !"_ZL12x86_read_regPK8x86_regs7x86_reg"}
!981 = distinct !{!981, !982, !"_ZL12x86_read_regPK8x86_regsPK9cs_x86_op: argument 0"}
!982 = distinct !{!982, !"_ZL12x86_read_regPK8x86_regsPK9cs_x86_op"}
!983 = distinct !{!983, !984, !"_ZL23x86_read_source_operandPK9cs_x86_opPK8x86_regs: argument 1"}
!984 = distinct !{!984, !"_ZL23x86_read_source_operandPK9cs_x86_opPK8x86_regs"}
!985 = !{!986}
!986 = distinct !{!986, !984, !"_ZL23x86_read_source_operandPK9cs_x86_opPK8x86_regs: argument 0"}
!987 = !{!988, !990, !992, !994, !996, !998, !1000, !1002, !1004, !1006, !1008, !1010, !1012, !1014, !1016, !1018, !1020, !1022, !1024, !1026, !1028, !1030, !1032, !1034, !1036, !1038, !1040, !1042, !1044, !1046, !1048, !1050}
!988 = distinct !{!988, !989, !"_ZL12x86_read_regPK8x86_regs7x86_reg: argument 0"}
!989 = distinct !{!989, !"_ZL12x86_read_regPK8x86_regs7x86_reg"}
!990 = distinct !{!990, !991, !"_ZL25x86_get_effective_addressPK8x86_regsPK9cs_x86_op: argument 0"}
!991 = distinct !{!991, !"_ZL25x86_get_effective_addressPK8x86_regsPK9cs_x86_op"}
!992 = distinct !{!992, !993, !"_ZL12x86_read_memPK8x86_regsPK9cs_x86_op: argument 0"}
!993 = distinct !{!993, !"_ZL12x86_read_memPK8x86_regsPK9cs_x86_op"}
!994 = distinct !{!994, !995, !"_ZL28x86_read_destination_operandPK9cs_x86_opPK8x86_regs: argument 1"}
!995 = distinct !{!995, !"_ZL28x86_read_destination_operandPK9cs_x86_opPK8x86_regs"}
!996 = distinct !{!996, !997, !"_ZL12x86_read_regPK8x86_regs7x86_reg: argument 0"}
!997 = distinct !{!997, !"_ZL12x86_read_regPK8x86_regs7x86_reg"}
!998 = distinct !{!998, !999, !"_ZL25x86_get_effective_addressPK8x86_regsPK9cs_x86_op: argument 0"}
!999 = distinct !{!999, !"_ZL25x86_get_effective_addressPK8x86_regsPK9cs_x86_op"}
!1000 = distinct !{!1000, !1001, !"_ZL13x86_write_memPK8x86_regsPK9cs_x86_opm: argument 0"}
!1001 = distinct !{!1001, !"_ZL13x86_write_memPK8x86_regsPK9cs_x86_opm"}
!1002 = distinct !{!1002, !1003, !"_ZL29x86_write_destination_operandPK9cs_x86_opP8x86_regsm: argument 1"}
!1003 = distinct !{!1003, !"_ZL29x86_write_destination_operandPK9cs_x86_opP8x86_regsm"}
!1004 = distinct !{!1004, !1005, !"_ZL12x86_read_regPK8x86_regs7x86_reg: argument 0"}
!1005 = distinct !{!1005, !"_ZL12x86_read_regPK8x86_regs7x86_reg"}
!1006 = distinct !{!1006, !1007, !"_ZL25x86_get_effective_addressPK8x86_regsPK9cs_x86_op: argument 0"}
!1007 = distinct !{!1007, !"_ZL25x86_get_effective_addressPK8x86_regsPK9cs_x86_op"}
!1008 = distinct !{!1008, !1009, !"_ZL12x86_read_memPK8x86_regsPK9cs_x86_op: argument 0"}
!1009 = distinct !{!1009, !"_ZL12x86_read_memPK8x86_regsPK9cs_x86_op"}
!1010 = distinct !{!1010, !1011, !"_ZL28x86_read_destination_operandPK9cs_x86_opPK8x86_regs: argument 1"}
!1011 = distinct !{!1011, !"_ZL28x86_read_destination_operandPK9cs_x86_opPK8x86_regs"}
!1012 = distinct !{!1012, !1013, !"_ZL12x86_read_regPK8x86_regs7x86_reg: argument 0"}
!1013 = distinct !{!1013, !"_ZL12x86_read_regPK8x86_regs7x86_reg"}
!1014 = distinct !{!1014, !1015, !"_ZL25x86_get_effective_addressPK8x86_regsPK9cs_x86_op: argument 0"}
!1015 = distinct !{!1015, !"_ZL25x86_get_effective_addressPK8x86_regsPK9cs_x86_op"}
!1016 = distinct !{!1016, !1017, !"_ZL13x86_write_memPK8x86_regsPK9cs_x86_opm: argument 0"}
!1017 = distinct !{!1017, !"_ZL13x86_write_memPK8x86_regsPK9cs_x86_opm"}
!1018 = distinct !{!1018, !1019, !"_ZL29x86_write_destination_operandPK9cs_x86_opP8x86_regsm: argument 1"}
!1019 = distinct !{!1019, !"_ZL29x86_write_destination_operandPK9cs_x86_opP8x86_regsm"}
!1020 = distinct !{!1020, !1021, !"_ZL12x86_read_regPK8x86_regs7x86_reg: argument 0"}
!1021 = distinct !{!1021, !"_ZL12x86_read_regPK8x86_regs7x86_reg"}
!1022 = distinct !{!1022, !1023, !"_ZL25x86_get_effective_addressPK8x86_regsPK9cs_x86_op: argument 0"}
!1023 = distinct !{!1023, !"_ZL25x86_get_effective_addressPK8x86_regsPK9cs_x86_op"}
!1024 = distinct !{!1024, !1025, !"_ZL12x86_read_memPK8x86_regsPK9cs_x86_op: argument 0"}
!1025 = distinct !{!1025, !"_ZL12x86_read_memPK8x86_regsPK9cs_x86_op"}
!1026 = distinct !{!1026, !1027, !"_ZL28x86_read_destination_operandPK9cs_x86_opPK8x86_regs: argument 1"}
!1027 = distinct !{!1027, !"_ZL28x86_read_destination_operandPK9cs_x86_opPK8x86_regs"}
!1028 = distinct !{!1028, !1029, !"_ZL12x86_read_regPK8x86_regs7x86_reg: argument 0"}
!1029 = distinct !{!1029, !"_ZL12x86_read_regPK8x86_regs7x86_reg"}
!1030 = distinct !{!1030, !1031, !"_ZL25x86_get_effective_addressPK8x86_regsPK9cs_x86_op: argument 0"}
!1031 = distinct !{!1031, !"_ZL25x86_get_effective_addressPK8x86_regsPK9cs_x86_op"}
!1032 = distinct !{!1032, !1033, !"_ZL13x86_write_memPK8x86_regsPK9cs_x86_opm: argument 0"}
!1033 = distinct !{!1033, !"_ZL13x86_write_memPK8x86_regsPK9cs_x86_opm"}
!1034 = distinct !{!1034, !1035, !"_ZL29x86_write_destination_operandPK9cs_x86_opP8x86_regsm: argument 1"}
!1035 = distinct !{!1035, !"_ZL29x86_write_destination_operandPK9cs_x86_opP8x86_regsm"}
!1036 = distinct !{!1036, !1037, !"_ZL12x86_read_regPK8x86_regs7x86_reg: argument 0"}
!1037 = distinct !{!1037, !"_ZL12x86_read_regPK8x86_regs7x86_reg"}
!1038 = distinct !{!1038, !1039, !"_ZL25x86_get_effective_addressPK8x86_regsPK9cs_x86_op: argument 0"}
!1039 = distinct !{!1039, !"_ZL25x86_get_effective_addressPK8x86_regsPK9cs_x86_op"}
!1040 = distinct !{!1040, !1041, !"_ZL12x86_read_memPK8x86_regsPK9cs_x86_op: argument 0"}
!1041 = distinct !{!1041, !"_ZL12x86_read_memPK8x86_regsPK9cs_x86_op"}
!1042 = distinct !{!1042, !1043, !"_ZL28x86_read_destination_operandPK9cs_x86_opPK8x86_regs: argument 1"}
!1043 = distinct !{!1043, !"_ZL28x86_read_destination_operandPK9cs_x86_opPK8x86_regs"}
!1044 = distinct !{!1044, !1045, !"_ZL12x86_read_regPK8x86_regs7x86_reg: argument 0"}
!1045 = distinct !{!1045, !"_ZL12x86_read_regPK8x86_regs7x86_reg"}
!1046 = distinct !{!1046, !1047, !"_ZL25x86_get_effective_addressPK8x86_regsPK9cs_x86_op: argument 0"}
!1047 = distinct !{!1047, !"_ZL25x86_get_effective_addressPK8x86_regsPK9cs_x86_op"}
!1048 = distinct !{!1048, !1049, !"_ZL13x86_write_memPK8x86_regsPK9cs_x86_opm: argument 0"}
!1049 = distinct !{!1049, !"_ZL13x86_write_memPK8x86_regsPK9cs_x86_opm"}
!1050 = distinct !{!1050, !1051, !"_ZL29x86_write_destination_operandPK9cs_x86_opP8x86_regsm: argument 1"}
!1051 = distinct !{!1051, !"_ZL29x86_write_destination_operandPK9cs_x86_opP8x86_regsm"}
!1052 = !{!1053, !1055, !1057, !1059, !1061, !1063, !1065, !1067, !1069, !1071, !1073, !1075, !1077, !1079, !1081, !1083, !1085, !1087, !1089, !1091, !1093, !1095, !1097, !1099, !1101, !1103, !1105, !1107}
!1053 = distinct !{!1053, !1054, !"_ZL12x86_read_regPK8x86_regs7x86_reg: argument 0"}
!1054 = distinct !{!1054, !"_ZL12x86_read_regPK8x86_regs7x86_reg"}
!1055 = distinct !{!1055, !1056, !"_ZL25x86_get_effective_addressPK8x86_regsPK9cs_x86_op: argument 0"}
!1056 = distinct !{!1056, !"_ZL25x86_get_effective_addressPK8x86_regsPK9cs_x86_op"}
!1057 = distinct !{!1057, !1058, !"_ZL13x86_write_memPK8x86_regsPK9cs_x86_opm: argument 0"}
!1058 = distinct !{!1058, !"_ZL13x86_write_memPK8x86_regsPK9cs_x86_opm"}
!1059 = distinct !{!1059, !1060, !"_ZL29x86_write_destination_operandPK9cs_x86_opP8x86_regsm: argument 1"}
!1060 = distinct !{!1060, !"_ZL29x86_write_destination_operandPK9cs_x86_opP8x86_regsm"}
!1061 = distinct !{!1061, !1062, !"_ZL12x86_read_regPK8x86_regs7x86_reg: argument 0"}
!1062 = distinct !{!1062, !"_ZL12x86_read_regPK8x86_regs7x86_reg"}
!1063 = distinct !{!1063, !1064, !"_ZL25x86_get_effective_addressPK8x86_regsPK9cs_x86_op: argument 0"}
!1064 = distinct !{!1064, !"_ZL25x86_get_effective_addressPK8x86_regsPK9cs_x86_op"}
!1065 = distinct !{!1065, !1066, !"_ZL12x86_read_memPK8x86_regsPK9cs_x86_op: argument 0"}
!1066 = distinct !{!1066, !"_ZL12x86_read_memPK8x86_regsPK9cs_x86_op"}
!1067 = distinct !{!1067, !1068, !"_ZL28x86_read_destination_operandPK9cs_x86_opPK8x86_regs: argument 1"}
!1068 = distinct !{!1068, !"_ZL28x86_read_destination_operandPK9cs_x86_opPK8x86_regs"}
!1069 = distinct !{!1069, !1070, !"_ZL12x86_read_regPK8x86_regs7x86_reg: argument 0"}
!1070 = distinct !{!1070, !"_ZL12x86_read_regPK8x86_regs7x86_reg"}
!1071 = distinct !{!1071, !1072, !"_ZL25x86_get_effective_addressPK8x86_regsPK9cs_x86_op: argument 0"}
!1072 = distinct !{!1072, !"_ZL25x86_get_effective_addressPK8x86_regsPK9cs_x86_op"}
!1073 = distinct !{!1073, !1074, !"_ZL13x86_write_memPK8x86_regsPK9cs_x86_opm: argument 0"}
!1074 = distinct !{!1074, !"_ZL13x86_write_memPK8x86_regsPK9cs_x86_opm"}
!1075 = distinct !{!1075, !1076, !"_ZL29x86_write_destination_operandPK9cs_x86_opP8x86_regsm: argument 1"}
!1076 = distinct !{!1076, !"_ZL29x86_write_destination_operandPK9cs_x86_opP8x86_regsm"}
!1077 = distinct !{!1077, !1078, !"_ZL12x86_read_regPK8x86_regs7x86_reg: argument 0"}
!1078 = distinct !{!1078, !"_ZL12x86_read_regPK8x86_regs7x86_reg"}
!1079 = distinct !{!1079, !1080, !"_ZL25x86_get_effective_addressPK8x86_regsPK9cs_x86_op: argument 0"}
!1080 = distinct !{!1080, !"_ZL25x86_get_effective_addressPK8x86_regsPK9cs_x86_op"}
!1081 = distinct !{!1081, !1082, !"_ZL12x86_read_memPK8x86_regsPK9cs_x86_op: argument 0"}
!1082 = distinct !{!1082, !"_ZL12x86_read_memPK8x86_regsPK9cs_x86_op"}
!1083 = distinct !{!1083, !1084, !"_ZL28x86_read_destination_operandPK9cs_x86_opPK8x86_regs: argument 1"}
!1084 = distinct !{!1084, !"_ZL28x86_read_destination_operandPK9cs_x86_opPK8x86_regs"}
!1085 = distinct !{!1085, !1086, !"_ZL12x86_read_regPK8x86_regs7x86_reg: argument 0"}
!1086 = distinct !{!1086, !"_ZL12x86_read_regPK8x86_regs7x86_reg"}
!1087 = distinct !{!1087, !1088, !"_ZL25x86_get_effective_addressPK8x86_regsPK9cs_x86_op: argument 0"}
!1088 = distinct !{!1088, !"_ZL25x86_get_effective_addressPK8x86_regsPK9cs_x86_op"}
!1089 = distinct !{!1089, !1090, !"_ZL13x86_write_memPK8x86_regsPK9cs_x86_opm: argument 0"}
!1090 = distinct !{!1090, !"_ZL13x86_write_memPK8x86_regsPK9cs_x86_opm"}
!1091 = distinct !{!1091, !1092, !"_ZL29x86_write_destination_operandPK9cs_x86_opP8x86_regsm: argument 1"}
!1092 = distinct !{!1092, !"_ZL29x86_write_destination_operandPK9cs_x86_opP8x86_regsm"}
!1093 = distinct !{!1093, !1094, !"_ZL12x86_read_regPK8x86_regs7x86_reg: argument 0"}
!1094 = distinct !{!1094, !"_ZL12x86_read_regPK8x86_regs7x86_reg"}
!1095 = distinct !{!1095, !1096, !"_ZL25x86_get_effective_addressPK8x86_regsPK9cs_x86_op: argument 0"}
!1096 = distinct !{!1096, !"_ZL25x86_get_effective_addressPK8x86_regsPK9cs_x86_op"}
!1097 = distinct !{!1097, !1098, !"_ZL12x86_read_memPK8x86_regsPK9cs_x86_op: argument 0"}
!1098 = distinct !{!1098, !"_ZL12x86_read_memPK8x86_regsPK9cs_x86_op"}
!1099 = distinct !{!1099, !1100, !"_ZL28x86_read_destination_operandPK9cs_x86_opPK8x86_regs: argument 1"}
!1100 = distinct !{!1100, !"_ZL28x86_read_destination_operandPK9cs_x86_opPK8x86_regs"}
!1101 = distinct !{!1101, !1102, !"_ZL12x86_read_regPK8x86_regs7x86_reg: argument 0"}
!1102 = distinct !{!1102, !"_ZL12x86_read_regPK8x86_regs7x86_reg"}
!1103 = distinct !{!1103, !1104, !"_ZL25x86_get_effective_addressPK8x86_regsPK9cs_x86_op: argument 0"}
!1104 = distinct !{!1104, !"_ZL25x86_get_effective_addressPK8x86_regsPK9cs_x86_op"}
!1105 = distinct !{!1105, !1106, !"_ZL13x86_write_memPK8x86_regsPK9cs_x86_opm: argument 0"}
!1106 = distinct !{!1106, !"_ZL13x86_write_memPK8x86_regsPK9cs_x86_opm"}
!1107 = distinct !{!1107, !1108, !"_ZL29x86_write_destination_operandPK9cs_x86_opP8x86_regsm: argument 1"}
!1108 = distinct !{!1108, !"_ZL29x86_write_destination_operandPK9cs_x86_opP8x86_regsm"}
!1109 = !{!1110, !1112, !1114, !1116, !1118, !1120, !1122, !1124}
!1110 = distinct !{!1110, !1111, !"_ZL12x86_read_regPK8x86_regs7x86_reg: argument 0"}
!1111 = distinct !{!1111, !"_ZL12x86_read_regPK8x86_regs7x86_reg"}
!1112 = distinct !{!1112, !1113, !"_ZL25x86_get_effective_addressPK8x86_regsPK9cs_x86_op: argument 0"}
!1113 = distinct !{!1113, !"_ZL25x86_get_effective_addressPK8x86_regsPK9cs_x86_op"}
!1114 = distinct !{!1114, !1115, !"_ZL13x86_write_memPK8x86_regsPK9cs_x86_opm: argument 0"}
!1115 = distinct !{!1115, !"_ZL13x86_write_memPK8x86_regsPK9cs_x86_opm"}
!1116 = distinct !{!1116, !1117, !"_ZL29x86_write_destination_operandPK9cs_x86_opP8x86_regsm: argument 1"}
!1117 = distinct !{!1117, !"_ZL29x86_write_destination_operandPK9cs_x86_opP8x86_regsm"}
!1118 = distinct !{!1118, !1119, !"_ZL12x86_read_regPK8x86_regs7x86_reg: argument 0"}
!1119 = distinct !{!1119, !"_ZL12x86_read_regPK8x86_regs7x86_reg"}
!1120 = distinct !{!1120, !1121, !"_ZL25x86_get_effective_addressPK8x86_regsPK9cs_x86_op: argument 0"}
!1121 = distinct !{!1121, !"_ZL25x86_get_effective_addressPK8x86_regsPK9cs_x86_op"}
!1122 = distinct !{!1122, !1123, !"_ZL12x86_read_memPK8x86_regsPK9cs_x86_op: argument 0"}
!1123 = distinct !{!1123, !"_ZL12x86_read_memPK8x86_regsPK9cs_x86_op"}
!1124 = distinct !{!1124, !1125, !"_ZL28x86_read_destination_operandPK9cs_x86_opPK8x86_regs: argument 1"}
!1125 = distinct !{!1125, !"_ZL28x86_read_destination_operandPK9cs_x86_opPK8x86_regs"}
!1126 = !{!1127, !1129, !1131}
!1127 = distinct !{!1127, !1128, !"_ZL12x86_read_regPK8x86_regs7x86_reg: argument 0"}
!1128 = distinct !{!1128, !"_ZL12x86_read_regPK8x86_regs7x86_reg"}
!1129 = distinct !{!1129, !1130, !"_ZL12x86_read_regPK8x86_regsPK9cs_x86_op: argument 0"}
!1130 = distinct !{!1130, !"_ZL12x86_read_regPK8x86_regsPK9cs_x86_op"}
!1131 = distinct !{!1131, !1132, !"_ZL23x86_read_source_operandPK9cs_x86_opPK8x86_regs: argument 1"}
!1132 = distinct !{!1132, !"_ZL23x86_read_source_operandPK9cs_x86_opPK8x86_regs"}
!1133 = !{!1134}
!1134 = distinct !{!1134, !1132, !"_ZL23x86_read_source_operandPK9cs_x86_opPK8x86_regs: argument 0"}
!1135 = !{!1136, !1112, !1114, !1116}
!1136 = distinct !{!1136, !1137, !"_ZL12x86_read_regPK8x86_regs7x86_reg: argument 0"}
!1137 = distinct !{!1137, !"_ZL12x86_read_regPK8x86_regs7x86_reg"}
!1138 = !{!1139, !1140, !1141}
!1139 = distinct !{!1139, !1113, !"_ZL25x86_get_effective_addressPK8x86_regsPK9cs_x86_op: argument 1"}
!1140 = distinct !{!1140, !1115, !"_ZL13x86_write_memPK8x86_regsPK9cs_x86_opm: argument 1"}
!1141 = distinct !{!1141, !1117, !"_ZL29x86_write_destination_operandPK9cs_x86_opP8x86_regsm: argument 0"}
!1142 = !{!1143, !1143, i64 0}
!1143 = !{!"int", !6, i64 0}
!1144 = !{!1145, !1147, !1149}
!1145 = distinct !{!1145, !1146, !"_ZL12x86_read_regPK8x86_regs7x86_reg: argument 0"}
!1146 = distinct !{!1146, !"_ZL12x86_read_regPK8x86_regs7x86_reg"}
!1147 = distinct !{!1147, !1148, !"_ZL12x86_read_regPK8x86_regsPK9cs_x86_op: argument 0"}
!1148 = distinct !{!1148, !"_ZL12x86_read_regPK8x86_regsPK9cs_x86_op"}
!1149 = distinct !{!1149, !1150, !"_ZL28x86_read_destination_operandPK9cs_x86_opPK8x86_regs: argument 1"}
!1150 = distinct !{!1150, !"_ZL28x86_read_destination_operandPK9cs_x86_opPK8x86_regs"}
!1151 = !{!1152}
!1152 = distinct !{!1152, !1150, !"_ZL28x86_read_destination_operandPK9cs_x86_opPK8x86_regs: argument 0"}
!1153 = !{!1154, !1156, !1158}
!1154 = distinct !{!1154, !1155, !"_ZL13x86_write_regP8x86_regs7x86_regm: argument 0"}
!1155 = distinct !{!1155, !"_ZL13x86_write_regP8x86_regs7x86_regm"}
!1156 = distinct !{!1156, !1157, !"_ZL13x86_write_regP8x86_regsPK9cs_x86_opm: argument 0"}
!1157 = distinct !{!1157, !"_ZL13x86_write_regP8x86_regsPK9cs_x86_opm"}
!1158 = distinct !{!1158, !1159, !"_ZL29x86_write_destination_operandPK9cs_x86_opP8x86_regsm: argument 1"}
!1159 = distinct !{!1159, !"_ZL29x86_write_destination_operandPK9cs_x86_opP8x86_regsm"}
!1160 = !{!1161}
!1161 = distinct !{!1161, !1159, !"_ZL29x86_write_destination_operandPK9cs_x86_opP8x86_regsm: argument 0"}
!1162 = !{!1163, !1165, !1167}
!1163 = distinct !{!1163, !1164, !"_ZL13x86_write_regP8x86_regs7x86_regm: argument 0"}
!1164 = distinct !{!1164, !"_ZL13x86_write_regP8x86_regs7x86_regm"}
!1165 = distinct !{!1165, !1166, !"_ZL13x86_write_regP8x86_regsPK9cs_x86_opm: argument 0"}
!1166 = distinct !{!1166, !"_ZL13x86_write_regP8x86_regsPK9cs_x86_opm"}
!1167 = distinct !{!1167, !1168, !"_ZL29x86_write_destination_operandPK9cs_x86_opP8x86_regsm: argument 1"}
!1168 = distinct !{!1168, !"_ZL29x86_write_destination_operandPK9cs_x86_opP8x86_regsm"}
!1169 = !{!1170}
!1170 = distinct !{!1170, !1168, !"_ZL29x86_write_destination_operandPK9cs_x86_opP8x86_regsm: argument 0"}
!1171 = !{!1172, !1174, !1176, !1178, !1180, !1182, !1184, !1186, !1188, !1190, !1192, !1194, !1196, !1198, !1200, !1202, !1204, !1206, !1208, !1210, !1212, !1214, !1216, !1218, !1220, !1222, !1224, !1226}
!1172 = distinct !{!1172, !1173, !"_ZL12x86_read_regPK8x86_regs7x86_reg: argument 0"}
!1173 = distinct !{!1173, !"_ZL12x86_read_regPK8x86_regs7x86_reg"}
!1174 = distinct !{!1174, !1175, !"_ZL25x86_get_effective_addressPK8x86_regsPK9cs_x86_op: argument 0"}
!1175 = distinct !{!1175, !"_ZL25x86_get_effective_addressPK8x86_regsPK9cs_x86_op"}
!1176 = distinct !{!1176, !1177, !"_ZL13x86_write_memPK8x86_regsPK9cs_x86_opm: argument 0"}
!1177 = distinct !{!1177, !"_ZL13x86_write_memPK8x86_regsPK9cs_x86_opm"}
!1178 = distinct !{!1178, !1179, !"_ZL29x86_write_destination_operandPK9cs_x86_opP8x86_regsm: argument 1"}
!1179 = distinct !{!1179, !"_ZL29x86_write_destination_operandPK9cs_x86_opP8x86_regsm"}
!1180 = distinct !{!1180, !1181, !"_ZL12x86_read_regPK8x86_regs7x86_reg: argument 0"}
!1181 = distinct !{!1181, !"_ZL12x86_read_regPK8x86_regs7x86_reg"}
!1182 = distinct !{!1182, !1183, !"_ZL25x86_get_effective_addressPK8x86_regsPK9cs_x86_op: argument 0"}
!1183 = distinct !{!1183, !"_ZL25x86_get_effective_addressPK8x86_regsPK9cs_x86_op"}
!1184 = distinct !{!1184, !1185, !"_ZL12x86_read_memPK8x86_regsPK9cs_x86_op: argument 0"}
!1185 = distinct !{!1185, !"_ZL12x86_read_memPK8x86_regsPK9cs_x86_op"}
!1186 = distinct !{!1186, !1187, !"_ZL28x86_read_destination_operandPK9cs_x86_opPK8x86_regs: argument 1"}
!1187 = distinct !{!1187, !"_ZL28x86_read_destination_operandPK9cs_x86_opPK8x86_regs"}
!1188 = distinct !{!1188, !1189, !"_ZL12x86_read_regPK8x86_regs7x86_reg: argument 0"}
!1189 = distinct !{!1189, !"_ZL12x86_read_regPK8x86_regs7x86_reg"}
!1190 = distinct !{!1190, !1191, !"_ZL25x86_get_effective_addressPK8x86_regsPK9cs_x86_op: argument 0"}
!1191 = distinct !{!1191, !"_ZL25x86_get_effective_addressPK8x86_regsPK9cs_x86_op"}
!1192 = distinct !{!1192, !1193, !"_ZL13x86_write_memPK8x86_regsPK9cs_x86_opm: argument 0"}
!1193 = distinct !{!1193, !"_ZL13x86_write_memPK8x86_regsPK9cs_x86_opm"}
!1194 = distinct !{!1194, !1195, !"_ZL29x86_write_destination_operandPK9cs_x86_opP8x86_regsm: argument 1"}
!1195 = distinct !{!1195, !"_ZL29x86_write_destination_operandPK9cs_x86_opP8x86_regsm"}
!1196 = distinct !{!1196, !1197, !"_ZL12x86_read_regPK8x86_regs7x86_reg: argument 0"}
!1197 = distinct !{!1197, !"_ZL12x86_read_regPK8x86_regs7x86_reg"}
!1198 = distinct !{!1198, !1199, !"_ZL25x86_get_effective_addressPK8x86_regsPK9cs_x86_op: argument 0"}
!1199 = distinct !{!1199, !"_ZL25x86_get_effective_addressPK8x86_regsPK9cs_x86_op"}
!1200 = distinct !{!1200, !1201, !"_ZL12x86_read_memPK8x86_regsPK9cs_x86_op: argument 0"}
!1201 = distinct !{!1201, !"_ZL12x86_read_memPK8x86_regsPK9cs_x86_op"}
!1202 = distinct !{!1202, !1203, !"_ZL28x86_read_destination_operandPK9cs_x86_opPK8x86_regs: argument 1"}
!1203 = distinct !{!1203, !"_ZL28x86_read_destination_operandPK9cs_x86_opPK8x86_regs"}
!1204 = distinct !{!1204, !1205, !"_ZL12x86_read_regPK8x86_regs7x86_reg: argument 0"}
!1205 = distinct !{!1205, !"_ZL12x86_read_regPK8x86_regs7x86_reg"}
!1206 = distinct !{!1206, !1207, !"_ZL25x86_get_effective_addressPK8x86_regsPK9cs_x86_op: argument 0"}
!1207 = distinct !{!1207, !"_ZL25x86_get_effective_addressPK8x86_regsPK9cs_x86_op"}
!1208 = distinct !{!1208, !1209, !"_ZL13x86_write_memPK8x86_regsPK9cs_x86_opm: argument 0"}
!1209 = distinct !{!1209, !"_ZL13x86_write_memPK8x86_regsPK9cs_x86_opm"}
!1210 = distinct !{!1210, !1211, !"_ZL29x86_write_destination_operandPK9cs_x86_opP8x86_regsm: argument 1"}
!1211 = distinct !{!1211, !"_ZL29x86_write_destination_operandPK9cs_x86_opP8x86_regsm"}
!1212 = distinct !{!1212, !1213, !"_ZL12x86_read_regPK8x86_regs7x86_reg: argument 0"}
!1213 = distinct !{!1213, !"_ZL12x86_read_regPK8x86_regs7x86_reg"}
!1214 = distinct !{!1214, !1215, !"_ZL25x86_get_effective_addressPK8x86_regsPK9cs_x86_op: argument 0"}
!1215 = distinct !{!1215, !"_ZL25x86_get_effective_addressPK8x86_regsPK9cs_x86_op"}
!1216 = distinct !{!1216, !1217, !"_ZL12x86_read_memPK8x86_regsPK9cs_x86_op: argument 0"}
!1217 = distinct !{!1217, !"_ZL12x86_read_memPK8x86_regsPK9cs_x86_op"}
!1218 = distinct !{!1218, !1219, !"_ZL28x86_read_destination_operandPK9cs_x86_opPK8x86_regs: argument 1"}
!1219 = distinct !{!1219, !"_ZL28x86_read_destination_operandPK9cs_x86_opPK8x86_regs"}
!1220 = distinct !{!1220, !1221, !"_ZL12x86_read_regPK8x86_regs7x86_reg: argument 0"}
!1221 = distinct !{!1221, !"_ZL12x86_read_regPK8x86_regs7x86_reg"}
!1222 = distinct !{!1222, !1223, !"_ZL25x86_get_effective_addressPK8x86_regsPK9cs_x86_op: argument 0"}
!1223 = distinct !{!1223, !"_ZL25x86_get_effective_addressPK8x86_regsPK9cs_x86_op"}
!1224 = distinct !{!1224, !1225, !"_ZL13x86_write_memPK8x86_regsPK9cs_x86_opm: argument 0"}
!1225 = distinct !{!1225, !"_ZL13x86_write_memPK8x86_regsPK9cs_x86_opm"}
!1226 = distinct !{!1226, !1227, !"_ZL29x86_write_destination_operandPK9cs_x86_opP8x86_regsm: argument 1"}
!1227 = distinct !{!1227, !"_ZL29x86_write_destination_operandPK9cs_x86_opP8x86_regsm"}
!1228 = !{!1229, !1231, !1233}
!1229 = distinct !{!1229, !1230, !"_ZL12x86_read_regPK8x86_regs7x86_reg: argument 0"}
!1230 = distinct !{!1230, !"_ZL12x86_read_regPK8x86_regs7x86_reg"}
!1231 = distinct !{!1231, !1232, !"_ZL12x86_read_regPK8x86_regsPK9cs_x86_op: argument 0"}
!1232 = distinct !{!1232, !"_ZL12x86_read_regPK8x86_regsPK9cs_x86_op"}
!1233 = distinct !{!1233, !1234, !"_ZL23x86_read_source_operandPK9cs_x86_opPK8x86_regs: argument 1"}
!1234 = distinct !{!1234, !"_ZL23x86_read_source_operandPK9cs_x86_opPK8x86_regs"}
!1235 = !{!1236}
!1236 = distinct !{!1236, !1234, !"_ZL23x86_read_source_operandPK9cs_x86_opPK8x86_regs: argument 0"}
!1237 = !{!1238, !1240, !1242, !1244, !1246, !1248, !1250, !1252}
!1238 = distinct !{!1238, !1239, !"_ZL12x86_read_regPK8x86_regs7x86_reg: argument 0"}
!1239 = distinct !{!1239, !"_ZL12x86_read_regPK8x86_regs7x86_reg"}
!1240 = distinct !{!1240, !1241, !"_ZL25x86_get_effective_addressPK8x86_regsPK9cs_x86_op: argument 0"}
!1241 = distinct !{!1241, !"_ZL25x86_get_effective_addressPK8x86_regsPK9cs_x86_op"}
!1242 = distinct !{!1242, !1243, !"_ZL13x86_write_memPK8x86_regsPK9cs_x86_opm: argument 0"}
!1243 = distinct !{!1243, !"_ZL13x86_write_memPK8x86_regsPK9cs_x86_opm"}
!1244 = distinct !{!1244, !1245, !"_ZL29x86_write_destination_operandPK9cs_x86_opP8x86_regsm: argument 1"}
!1245 = distinct !{!1245, !"_ZL29x86_write_destination_operandPK9cs_x86_opP8x86_regsm"}
!1246 = distinct !{!1246, !1247, !"_ZL12x86_read_regPK8x86_regs7x86_reg: argument 0"}
!1247 = distinct !{!1247, !"_ZL12x86_read_regPK8x86_regs7x86_reg"}
!1248 = distinct !{!1248, !1249, !"_ZL25x86_get_effective_addressPK8x86_regsPK9cs_x86_op: argument 0"}
!1249 = distinct !{!1249, !"_ZL25x86_get_effective_addressPK8x86_regsPK9cs_x86_op"}
!1250 = distinct !{!1250, !1251, !"_ZL12x86_read_memPK8x86_regsPK9cs_x86_op: argument 0"}
!1251 = distinct !{!1251, !"_ZL12x86_read_memPK8x86_regsPK9cs_x86_op"}
!1252 = distinct !{!1252, !1253, !"_ZL28x86_read_destination_operandPK9cs_x86_opPK8x86_regs: argument 1"}
!1253 = distinct !{!1253, !"_ZL28x86_read_destination_operandPK9cs_x86_opPK8x86_regs"}
!1254 = !{!1255, !1257, !1259, !1261, !1263, !1265, !1267, !1269, !1271, !1273, !1275, !1277, !1279, !1281, !1283, !1285}
!1255 = distinct !{!1255, !1256, !"_ZL12x86_read_regPK8x86_regs7x86_reg: argument 0"}
!1256 = distinct !{!1256, !"_ZL12x86_read_regPK8x86_regs7x86_reg"}
!1257 = distinct !{!1257, !1258, !"_ZL25x86_get_effective_addressPK8x86_regsPK9cs_x86_op: argument 0"}
!1258 = distinct !{!1258, !"_ZL25x86_get_effective_addressPK8x86_regsPK9cs_x86_op"}
!1259 = distinct !{!1259, !1260, !"_ZL13x86_write_memPK8x86_regsPK9cs_x86_opm: argument 0"}
!1260 = distinct !{!1260, !"_ZL13x86_write_memPK8x86_regsPK9cs_x86_opm"}
!1261 = distinct !{!1261, !1262, !"_ZL29x86_write_destination_operandPK9cs_x86_opP8x86_regsm: argument 1"}
!1262 = distinct !{!1262, !"_ZL29x86_write_destination_operandPK9cs_x86_opP8x86_regsm"}
!1263 = distinct !{!1263, !1264, !"_ZL12x86_read_regPK8x86_regs7x86_reg: argument 0"}
!1264 = distinct !{!1264, !"_ZL12x86_read_regPK8x86_regs7x86_reg"}
!1265 = distinct !{!1265, !1266, !"_ZL25x86_get_effective_addressPK8x86_regsPK9cs_x86_op: argument 0"}
!1266 = distinct !{!1266, !"_ZL25x86_get_effective_addressPK8x86_regsPK9cs_x86_op"}
!1267 = distinct !{!1267, !1268, !"_ZL12x86_read_memPK8x86_regsPK9cs_x86_op: argument 0"}
!1268 = distinct !{!1268, !"_ZL12x86_read_memPK8x86_regsPK9cs_x86_op"}
!1269 = distinct !{!1269, !1270, !"_ZL28x86_read_destination_operandPK9cs_x86_opPK8x86_regs: argument 1"}
!1270 = distinct !{!1270, !"_ZL28x86_read_destination_operandPK9cs_x86_opPK8x86_regs"}
!1271 = distinct !{!1271, !1272, !"_ZL12x86_read_regPK8x86_regs7x86_reg: argument 0"}
!1272 = distinct !{!1272, !"_ZL12x86_read_regPK8x86_regs7x86_reg"}
!1273 = distinct !{!1273, !1274, !"_ZL25x86_get_effective_addressPK8x86_regsPK9cs_x86_op: argument 0"}
!1274 = distinct !{!1274, !"_ZL25x86_get_effective_addressPK8x86_regsPK9cs_x86_op"}
!1275 = distinct !{!1275, !1276, !"_ZL13x86_write_memPK8x86_regsPK9cs_x86_opm: argument 0"}
!1276 = distinct !{!1276, !"_ZL13x86_write_memPK8x86_regsPK9cs_x86_opm"}
!1277 = distinct !{!1277, !1278, !"_ZL29x86_write_destination_operandPK9cs_x86_opP8x86_regsm: argument 1"}
!1278 = distinct !{!1278, !"_ZL29x86_write_destination_operandPK9cs_x86_opP8x86_regsm"}
!1279 = distinct !{!1279, !1280, !"_ZL12x86_read_regPK8x86_regs7x86_reg: argument 0"}
!1280 = distinct !{!1280, !"_ZL12x86_read_regPK8x86_regs7x86_reg"}
!1281 = distinct !{!1281, !1282, !"_ZL25x86_get_effective_addressPK8x86_regsPK9cs_x86_op: argument 0"}
!1282 = distinct !{!1282, !"_ZL25x86_get_effective_addressPK8x86_regsPK9cs_x86_op"}
!1283 = distinct !{!1283, !1284, !"_ZL12x86_read_memPK8x86_regsPK9cs_x86_op: argument 0"}
!1284 = distinct !{!1284, !"_ZL12x86_read_memPK8x86_regsPK9cs_x86_op"}
!1285 = distinct !{!1285, !1286, !"_ZL28x86_read_destination_operandPK9cs_x86_opPK8x86_regs: argument 1"}
!1286 = distinct !{!1286, !"_ZL28x86_read_destination_operandPK9cs_x86_opPK8x86_regs"}
!1287 = !{!1288, !1290, !1292, !1294, !1296, !1298, !1300, !1302}
!1288 = distinct !{!1288, !1289, !"_ZL12x86_read_regPK8x86_regs7x86_reg: argument 0"}
!1289 = distinct !{!1289, !"_ZL12x86_read_regPK8x86_regs7x86_reg"}
!1290 = distinct !{!1290, !1291, !"_ZL25x86_get_effective_addressPK8x86_regsPK9cs_x86_op: argument 0"}
!1291 = distinct !{!1291, !"_ZL25x86_get_effective_addressPK8x86_regsPK9cs_x86_op"}
!1292 = distinct !{!1292, !1293, !"_ZL13x86_write_memPK8x86_regsPK9cs_x86_opm: argument 0"}
!1293 = distinct !{!1293, !"_ZL13x86_write_memPK8x86_regsPK9cs_x86_opm"}
!1294 = distinct !{!1294, !1295, !"_ZL29x86_write_destination_operandPK9cs_x86_opP8x86_regsm: argument 1"}
!1295 = distinct !{!1295, !"_ZL29x86_write_destination_operandPK9cs_x86_opP8x86_regsm"}
!1296 = distinct !{!1296, !1297, !"_ZL12x86_read_regPK8x86_regs7x86_reg: argument 0"}
!1297 = distinct !{!1297, !"_ZL12x86_read_regPK8x86_regs7x86_reg"}
!1298 = distinct !{!1298, !1299, !"_ZL25x86_get_effective_addressPK8x86_regsPK9cs_x86_op: argument 0"}
!1299 = distinct !{!1299, !"_ZL25x86_get_effective_addressPK8x86_regsPK9cs_x86_op"}
!1300 = distinct !{!1300, !1301, !"_ZL12x86_read_memPK8x86_regsPK9cs_x86_op: argument 0"}
!1301 = distinct !{!1301, !"_ZL12x86_read_memPK8x86_regsPK9cs_x86_op"}
!1302 = distinct !{!1302, !1303, !"_ZL28x86_read_destination_operandPK9cs_x86_opPK8x86_regs: argument 1"}
!1303 = distinct !{!1303, !"_ZL28x86_read_destination_operandPK9cs_x86_opPK8x86_regs"}
!1304 = !{!1305, !1307, !1309}
!1305 = distinct !{!1305, !1306, !"_ZL12x86_read_regPK8x86_regs7x86_reg: argument 0"}
!1306 = distinct !{!1306, !"_ZL12x86_read_regPK8x86_regs7x86_reg"}
!1307 = distinct !{!1307, !1308, !"_ZL12x86_read_regPK8x86_regsPK9cs_x86_op: argument 0"}
!1308 = distinct !{!1308, !"_ZL12x86_read_regPK8x86_regsPK9cs_x86_op"}
!1309 = distinct !{!1309, !1310, !"_ZL23x86_read_source_operandPK9cs_x86_opPK8x86_regs: argument 1"}
!1310 = distinct !{!1310, !"_ZL23x86_read_source_operandPK9cs_x86_opPK8x86_regs"}
!1311 = !{!1312}
!1312 = distinct !{!1312, !1310, !"_ZL23x86_read_source_operandPK9cs_x86_opPK8x86_regs: argument 0"}
!1313 = !{!1314, !1316, !1318}
!1314 = distinct !{!1314, !1315, !"_ZL13x86_write_regP8x86_regs7x86_regm: argument 0"}
!1315 = distinct !{!1315, !"_ZL13x86_write_regP8x86_regs7x86_regm"}
!1316 = distinct !{!1316, !1317, !"_ZL13x86_write_regP8x86_regsPK9cs_x86_opm: argument 0"}
!1317 = distinct !{!1317, !"_ZL13x86_write_regP8x86_regsPK9cs_x86_opm"}
!1318 = distinct !{!1318, !1319, !"_ZL29x86_write_destination_operandPK9cs_x86_opP8x86_regsm: argument 1"}
!1319 = distinct !{!1319, !"_ZL29x86_write_destination_operandPK9cs_x86_opP8x86_regsm"}
!1320 = !{!1321}
!1321 = distinct !{!1321, !1319, !"_ZL29x86_write_destination_operandPK9cs_x86_opP8x86_regsm: argument 0"}
!1322 = !{!1323, !1325, !1327, !1329}
!1323 = distinct !{!1323, !1324, !"_ZL12x86_read_regPK8x86_regs7x86_reg: argument 0"}
!1324 = distinct !{!1324, !"_ZL12x86_read_regPK8x86_regs7x86_reg"}
!1325 = distinct !{!1325, !1326, !"_ZL12x86_read_regPK8x86_regsPK9cs_x86_op: argument 0"}
!1326 = distinct !{!1326, !"_ZL12x86_read_regPK8x86_regsPK9cs_x86_op"}
!1327 = distinct !{!1327, !1328, !"_ZL28x86_read_destination_operandPK9cs_x86_opPK8x86_regs: argument 1"}
!1328 = distinct !{!1328, !"_ZL28x86_read_destination_operandPK9cs_x86_opPK8x86_regs"}
!1329 = distinct !{!1329, !1330, !"_ZL20x86_logical_operatorIZ6x86_orE3$_1EmP8x86_regsP13x86_flags_regPK6cs_x86OT_: argument 0"}
!1330 = distinct !{!1330, !"_ZL20x86_logical_operatorIZ6x86_orE3$_1EmP8x86_regsP13x86_flags_regPK6cs_x86OT_"}
!1331 = !{!1332, !1333, !1334}
!1332 = distinct !{!1332, !1328, !"_ZL28x86_read_destination_operandPK9cs_x86_opPK8x86_regs: argument 0"}
!1333 = distinct !{!1333, !1330, !"_ZL20x86_logical_operatorIZ6x86_orE3$_1EmP8x86_regsP13x86_flags_regPK6cs_x86OT_: argument 1"}
!1334 = distinct !{!1334, !1330, !"_ZL20x86_logical_operatorIZ6x86_orE3$_1EmP8x86_regsP13x86_flags_regPK6cs_x86OT_: argument 2"}
!1335 = !{!1336, !1338, !1340}
!1336 = distinct !{!1336, !1337, !"_ZL13x86_write_regP8x86_regs7x86_regm: argument 0"}
!1337 = distinct !{!1337, !"_ZL13x86_write_regP8x86_regs7x86_regm"}
!1338 = distinct !{!1338, !1339, !"_ZL13x86_write_regP8x86_regsPK9cs_x86_opm: argument 0"}
!1339 = distinct !{!1339, !"_ZL13x86_write_regP8x86_regsPK9cs_x86_opm"}
!1340 = distinct !{!1340, !1341, !"_ZL29x86_write_destination_operandPK9cs_x86_opP8x86_regsm: argument 1"}
!1341 = distinct !{!1341, !"_ZL29x86_write_destination_operandPK9cs_x86_opP8x86_regsm"}
!1342 = !{!1343}
!1343 = distinct !{!1343, !1341, !"_ZL29x86_write_destination_operandPK9cs_x86_opP8x86_regsm: argument 0"}
!1344 = !{!1345, !1347}
!1345 = distinct !{!1345, !1346, !"_ZL13x86_add_flagsIaENSt13make_unsignedIT_E4typeEP13x86_flags_regmm: argument 0"}
!1346 = distinct !{!1346, !"_ZL13x86_add_flagsIaENSt13make_unsignedIT_E4typeEP13x86_flags_regmm"}
!1347 = distinct !{!1347, !1348, !"_ZL7x86_addP13x86_flags_regmmm: argument 0"}
!1348 = distinct !{!1348, !"_ZL7x86_addP13x86_flags_regmmm"}
!1349 = !{!1347}
!1350 = !{!1351, !1353, !1355, !1357, !1359, !1361, !1363, !1365, !1367, !1369, !1371, !1373, !1375, !1377, !1379, !1381, !1383, !1385, !1387, !1389, !1391, !1393, !1395, !1397, !1399}
!1351 = distinct !{!1351, !1352, !"_ZL12x86_read_regPK8x86_regs7x86_reg: argument 0"}
!1352 = distinct !{!1352, !"_ZL12x86_read_regPK8x86_regs7x86_reg"}
!1353 = distinct !{!1353, !1354, !"_ZL25x86_get_effective_addressPK8x86_regsPK9cs_x86_op: argument 0"}
!1354 = distinct !{!1354, !"_ZL25x86_get_effective_addressPK8x86_regsPK9cs_x86_op"}
!1355 = distinct !{!1355, !1356, !"_ZL13x86_write_memPK8x86_regsPK9cs_x86_opm: argument 0"}
!1356 = distinct !{!1356, !"_ZL13x86_write_memPK8x86_regsPK9cs_x86_opm"}
!1357 = distinct !{!1357, !1358, !"_ZL29x86_write_destination_operandPK9cs_x86_opP8x86_regsm: argument 1"}
!1358 = distinct !{!1358, !"_ZL29x86_write_destination_operandPK9cs_x86_opP8x86_regsm"}
!1359 = distinct !{!1359, !1360, !"_ZL12x86_read_regPK8x86_regs7x86_reg: argument 0"}
!1360 = distinct !{!1360, !"_ZL12x86_read_regPK8x86_regs7x86_reg"}
!1361 = distinct !{!1361, !1362, !"_ZL25x86_get_effective_addressPK8x86_regsPK9cs_x86_op: argument 0"}
!1362 = distinct !{!1362, !"_ZL25x86_get_effective_addressPK8x86_regsPK9cs_x86_op"}
!1363 = distinct !{!1363, !1364, !"_ZL12x86_read_memPK8x86_regsPK9cs_x86_op: argument 0"}
!1364 = distinct !{!1364, !"_ZL12x86_read_memPK8x86_regsPK9cs_x86_op"}
!1365 = distinct !{!1365, !1366, !"_ZL28x86_read_destination_operandPK9cs_x86_opPK8x86_regs: argument 1"}
!1366 = distinct !{!1366, !"_ZL28x86_read_destination_operandPK9cs_x86_opPK8x86_regs"}
!1367 = distinct !{!1367, !1368, !"_ZL12x86_read_regPK8x86_regs7x86_reg: argument 0"}
!1368 = distinct !{!1368, !"_ZL12x86_read_regPK8x86_regs7x86_reg"}
!1369 = distinct !{!1369, !1370, !"_ZL25x86_get_effective_addressPK8x86_regsPK9cs_x86_op: argument 0"}
!1370 = distinct !{!1370, !"_ZL25x86_get_effective_addressPK8x86_regsPK9cs_x86_op"}
!1371 = distinct !{!1371, !1372, !"_ZL13x86_write_memPK8x86_regsPK9cs_x86_opm: argument 0"}
!1372 = distinct !{!1372, !"_ZL13x86_write_memPK8x86_regsPK9cs_x86_opm"}
!1373 = distinct !{!1373, !1374, !"_ZL29x86_write_destination_operandPK9cs_x86_opP8x86_regsm: argument 1"}
!1374 = distinct !{!1374, !"_ZL29x86_write_destination_operandPK9cs_x86_opP8x86_regsm"}
!1375 = distinct !{!1375, !1376, !"_ZL12x86_read_regPK8x86_regs7x86_reg: argument 0"}
!1376 = distinct !{!1376, !"_ZL12x86_read_regPK8x86_regs7x86_reg"}
!1377 = distinct !{!1377, !1378, !"_ZL25x86_get_effective_addressPK8x86_regsPK9cs_x86_op: argument 0"}
!1378 = distinct !{!1378, !"_ZL25x86_get_effective_addressPK8x86_regsPK9cs_x86_op"}
!1379 = distinct !{!1379, !1380, !"_ZL12x86_read_memPK8x86_regsPK9cs_x86_op: argument 0"}
!1380 = distinct !{!1380, !"_ZL12x86_read_memPK8x86_regsPK9cs_x86_op"}
!1381 = distinct !{!1381, !1382, !"_ZL28x86_read_destination_operandPK9cs_x86_opPK8x86_regs: argument 1"}
!1382 = distinct !{!1382, !"_ZL28x86_read_destination_operandPK9cs_x86_opPK8x86_regs"}
!1383 = distinct !{!1383, !1384, !"_ZL12x86_read_regPK8x86_regs7x86_reg: argument 0"}
!1384 = distinct !{!1384, !"_ZL12x86_read_regPK8x86_regs7x86_reg"}
!1385 = distinct !{!1385, !1386, !"_ZL25x86_get_effective_addressPK8x86_regsPK9cs_x86_op: argument 0"}
!1386 = distinct !{!1386, !"_ZL25x86_get_effective_addressPK8x86_regsPK9cs_x86_op"}
!1387 = distinct !{!1387, !1388, !"_ZL13x86_write_memPK8x86_regsPK9cs_x86_opm: argument 0"}
!1388 = distinct !{!1388, !"_ZL13x86_write_memPK8x86_regsPK9cs_x86_opm"}
!1389 = distinct !{!1389, !1390, !"_ZL29x86_write_destination_operandPK9cs_x86_opP8x86_regsm: argument 1"}
!1390 = distinct !{!1390, !"_ZL29x86_write_destination_operandPK9cs_x86_opP8x86_regsm"}
!1391 = distinct !{!1391, !1392, !"_ZL12x86_read_regPK8x86_regs7x86_reg: argument 0"}
!1392 = distinct !{!1392, !"_ZL12x86_read_regPK8x86_regs7x86_reg"}
!1393 = distinct !{!1393, !1394, !"_ZL25x86_get_effective_addressPK8x86_regsPK9cs_x86_op: argument 0"}
!1394 = distinct !{!1394, !"_ZL25x86_get_effective_addressPK8x86_regsPK9cs_x86_op"}
!1395 = distinct !{!1395, !1396, !"_ZL12x86_read_memPK8x86_regsPK9cs_x86_op: argument 0"}
!1396 = distinct !{!1396, !"_ZL12x86_read_memPK8x86_regsPK9cs_x86_op"}
!1397 = distinct !{!1397, !1398, !"_ZL28x86_read_destination_operandPK9cs_x86_opPK8x86_regs: argument 1"}
!1398 = distinct !{!1398, !"_ZL28x86_read_destination_operandPK9cs_x86_opPK8x86_regs"}
!1399 = distinct !{!1399, !1400, !"_ZL20x86_logical_operatorIZ7x86_andE3$_0EmP8x86_regsP13x86_flags_regPK6cs_x86OT_: argument 0"}
!1400 = distinct !{!1400, !"_ZL20x86_logical_operatorIZ7x86_andE3$_0EmP8x86_regsP13x86_flags_regPK6cs_x86OT_"}
!1401 = !{!1402, !1404}
!1402 = distinct !{!1402, !1403, !"_ZL13x86_add_flagsIaENSt13make_unsignedIT_E4typeEP13x86_flags_regmm: argument 0"}
!1403 = distinct !{!1403, !"_ZL13x86_add_flagsIaENSt13make_unsignedIT_E4typeEP13x86_flags_regmm"}
!1404 = distinct !{!1404, !1405, !"_ZL7x86_addP13x86_flags_regmmm: argument 0"}
!1405 = distinct !{!1405, !"_ZL7x86_addP13x86_flags_regmmm"}
!1406 = !{!1404}
!1407 = !{!1408, !1410, !1412, !1414, !1416, !1418, !1420, !1422, !1424, !1426, !1428, !1430, !1432, !1434, !1436, !1438, !1440, !1442, !1444, !1446, !1448, !1450, !1452, !1454, !1456}
!1408 = distinct !{!1408, !1409, !"_ZL12x86_read_regPK8x86_regs7x86_reg: argument 0"}
!1409 = distinct !{!1409, !"_ZL12x86_read_regPK8x86_regs7x86_reg"}
!1410 = distinct !{!1410, !1411, !"_ZL25x86_get_effective_addressPK8x86_regsPK9cs_x86_op: argument 0"}
!1411 = distinct !{!1411, !"_ZL25x86_get_effective_addressPK8x86_regsPK9cs_x86_op"}
!1412 = distinct !{!1412, !1413, !"_ZL13x86_write_memPK8x86_regsPK9cs_x86_opm: argument 0"}
!1413 = distinct !{!1413, !"_ZL13x86_write_memPK8x86_regsPK9cs_x86_opm"}
!1414 = distinct !{!1414, !1415, !"_ZL29x86_write_destination_operandPK9cs_x86_opP8x86_regsm: argument 1"}
!1415 = distinct !{!1415, !"_ZL29x86_write_destination_operandPK9cs_x86_opP8x86_regsm"}
!1416 = distinct !{!1416, !1417, !"_ZL12x86_read_regPK8x86_regs7x86_reg: argument 0"}
!1417 = distinct !{!1417, !"_ZL12x86_read_regPK8x86_regs7x86_reg"}
!1418 = distinct !{!1418, !1419, !"_ZL25x86_get_effective_addressPK8x86_regsPK9cs_x86_op: argument 0"}
!1419 = distinct !{!1419, !"_ZL25x86_get_effective_addressPK8x86_regsPK9cs_x86_op"}
!1420 = distinct !{!1420, !1421, !"_ZL12x86_read_memPK8x86_regsPK9cs_x86_op: argument 0"}
!1421 = distinct !{!1421, !"_ZL12x86_read_memPK8x86_regsPK9cs_x86_op"}
!1422 = distinct !{!1422, !1423, !"_ZL28x86_read_destination_operandPK9cs_x86_opPK8x86_regs: argument 1"}
!1423 = distinct !{!1423, !"_ZL28x86_read_destination_operandPK9cs_x86_opPK8x86_regs"}
!1424 = distinct !{!1424, !1425, !"_ZL12x86_read_regPK8x86_regs7x86_reg: argument 0"}
!1425 = distinct !{!1425, !"_ZL12x86_read_regPK8x86_regs7x86_reg"}
!1426 = distinct !{!1426, !1427, !"_ZL25x86_get_effective_addressPK8x86_regsPK9cs_x86_op: argument 0"}
!1427 = distinct !{!1427, !"_ZL25x86_get_effective_addressPK8x86_regsPK9cs_x86_op"}
!1428 = distinct !{!1428, !1429, !"_ZL13x86_write_memPK8x86_regsPK9cs_x86_opm: argument 0"}
!1429 = distinct !{!1429, !"_ZL13x86_write_memPK8x86_regsPK9cs_x86_opm"}
!1430 = distinct !{!1430, !1431, !"_ZL29x86_write_destination_operandPK9cs_x86_opP8x86_regsm: argument 1"}
!1431 = distinct !{!1431, !"_ZL29x86_write_destination_operandPK9cs_x86_opP8x86_regsm"}
!1432 = distinct !{!1432, !1433, !"_ZL12x86_read_regPK8x86_regs7x86_reg: argument 0"}
!1433 = distinct !{!1433, !"_ZL12x86_read_regPK8x86_regs7x86_reg"}
!1434 = distinct !{!1434, !1435, !"_ZL25x86_get_effective_addressPK8x86_regsPK9cs_x86_op: argument 0"}
!1435 = distinct !{!1435, !"_ZL25x86_get_effective_addressPK8x86_regsPK9cs_x86_op"}
!1436 = distinct !{!1436, !1437, !"_ZL12x86_read_memPK8x86_regsPK9cs_x86_op: argument 0"}
!1437 = distinct !{!1437, !"_ZL12x86_read_memPK8x86_regsPK9cs_x86_op"}
!1438 = distinct !{!1438, !1439, !"_ZL28x86_read_destination_operandPK9cs_x86_opPK8x86_regs: argument 1"}
!1439 = distinct !{!1439, !"_ZL28x86_read_destination_operandPK9cs_x86_opPK8x86_regs"}
!1440 = distinct !{!1440, !1441, !"_ZL12x86_read_regPK8x86_regs7x86_reg: argument 0"}
!1441 = distinct !{!1441, !"_ZL12x86_read_regPK8x86_regs7x86_reg"}
!1442 = distinct !{!1442, !1443, !"_ZL25x86_get_effective_addressPK8x86_regsPK9cs_x86_op: argument 0"}
!1443 = distinct !{!1443, !"_ZL25x86_get_effective_addressPK8x86_regsPK9cs_x86_op"}
!1444 = distinct !{!1444, !1445, !"_ZL13x86_write_memPK8x86_regsPK9cs_x86_opm: argument 0"}
!1445 = distinct !{!1445, !"_ZL13x86_write_memPK8x86_regsPK9cs_x86_opm"}
!1446 = distinct !{!1446, !1447, !"_ZL29x86_write_destination_operandPK9cs_x86_opP8x86_regsm: argument 1"}
!1447 = distinct !{!1447, !"_ZL29x86_write_destination_operandPK9cs_x86_opP8x86_regsm"}
!1448 = distinct !{!1448, !1449, !"_ZL12x86_read_regPK8x86_regs7x86_reg: argument 0"}
!1449 = distinct !{!1449, !"_ZL12x86_read_regPK8x86_regs7x86_reg"}
!1450 = distinct !{!1450, !1451, !"_ZL25x86_get_effective_addressPK8x86_regsPK9cs_x86_op: argument 0"}
!1451 = distinct !{!1451, !"_ZL25x86_get_effective_addressPK8x86_regsPK9cs_x86_op"}
!1452 = distinct !{!1452, !1453, !"_ZL12x86_read_memPK8x86_regsPK9cs_x86_op: argument 0"}
!1453 = distinct !{!1453, !"_ZL12x86_read_memPK8x86_regsPK9cs_x86_op"}
!1454 = distinct !{!1454, !1455, !"_ZL28x86_read_destination_operandPK9cs_x86_opPK8x86_regs: argument 1"}
!1455 = distinct !{!1455, !"_ZL28x86_read_destination_operandPK9cs_x86_opPK8x86_regs"}
!1456 = distinct !{!1456, !1457, !"_ZL20x86_logical_operatorIZ7x86_andE3$_0EmP8x86_regsP13x86_flags_regPK6cs_x86OT_: argument 0"}
!1457 = distinct !{!1457, !"_ZL20x86_logical_operatorIZ7x86_andE3$_0EmP8x86_regsP13x86_flags_regPK6cs_x86OT_"}
!1458 = !{!1459, !1461, !1463, !1465, !1467, !1469, !1471, !1473, !1475}
!1459 = distinct !{!1459, !1460, !"_ZL12x86_read_regPK8x86_regs7x86_reg: argument 0"}
!1460 = distinct !{!1460, !"_ZL12x86_read_regPK8x86_regs7x86_reg"}
!1461 = distinct !{!1461, !1462, !"_ZL25x86_get_effective_addressPK8x86_regsPK9cs_x86_op: argument 0"}
!1462 = distinct !{!1462, !"_ZL25x86_get_effective_addressPK8x86_regsPK9cs_x86_op"}
!1463 = distinct !{!1463, !1464, !"_ZL13x86_write_memPK8x86_regsPK9cs_x86_opm: argument 0"}
!1464 = distinct !{!1464, !"_ZL13x86_write_memPK8x86_regsPK9cs_x86_opm"}
!1465 = distinct !{!1465, !1466, !"_ZL29x86_write_destination_operandPK9cs_x86_opP8x86_regsm: argument 1"}
!1466 = distinct !{!1466, !"_ZL29x86_write_destination_operandPK9cs_x86_opP8x86_regsm"}
!1467 = distinct !{!1467, !1468, !"_ZL12x86_read_regPK8x86_regs7x86_reg: argument 0"}
!1468 = distinct !{!1468, !"_ZL12x86_read_regPK8x86_regs7x86_reg"}
!1469 = distinct !{!1469, !1470, !"_ZL25x86_get_effective_addressPK8x86_regsPK9cs_x86_op: argument 0"}
!1470 = distinct !{!1470, !"_ZL25x86_get_effective_addressPK8x86_regsPK9cs_x86_op"}
!1471 = distinct !{!1471, !1472, !"_ZL12x86_read_memPK8x86_regsPK9cs_x86_op: argument 0"}
!1472 = distinct !{!1472, !"_ZL12x86_read_memPK8x86_regsPK9cs_x86_op"}
!1473 = distinct !{!1473, !1474, !"_ZL28x86_read_destination_operandPK9cs_x86_opPK8x86_regs: argument 1"}
!1474 = distinct !{!1474, !"_ZL28x86_read_destination_operandPK9cs_x86_opPK8x86_regs"}
!1475 = distinct !{!1475, !1476, !"_ZL20x86_logical_operatorIZ7x86_xorE3$_3EmP8x86_regsP13x86_flags_regPK6cs_x86OT_: argument 0"}
!1476 = distinct !{!1476, !"_ZL20x86_logical_operatorIZ7x86_xorE3$_3EmP8x86_regsP13x86_flags_regPK6cs_x86OT_"}
!1477 = !{!1478, !1480, !1482, !1484, !1486, !1488, !1490, !1492, !1494, !1496, !1498, !1500, !1502, !1504, !1506, !1508, !1510, !1512, !1514, !1516, !1518, !1520, !1522, !1524}
!1478 = distinct !{!1478, !1479, !"_ZL12x86_read_regPK8x86_regs7x86_reg: argument 0"}
!1479 = distinct !{!1479, !"_ZL12x86_read_regPK8x86_regs7x86_reg"}
!1480 = distinct !{!1480, !1481, !"_ZL25x86_get_effective_addressPK8x86_regsPK9cs_x86_op: argument 0"}
!1481 = distinct !{!1481, !"_ZL25x86_get_effective_addressPK8x86_regsPK9cs_x86_op"}
!1482 = distinct !{!1482, !1483, !"_ZL13x86_write_memPK8x86_regsPK9cs_x86_opm: argument 0"}
!1483 = distinct !{!1483, !"_ZL13x86_write_memPK8x86_regsPK9cs_x86_opm"}
!1484 = distinct !{!1484, !1485, !"_ZL29x86_write_destination_operandPK9cs_x86_opP8x86_regsm: argument 1"}
!1485 = distinct !{!1485, !"_ZL29x86_write_destination_operandPK9cs_x86_opP8x86_regsm"}
!1486 = distinct !{!1486, !1487, !"_ZL12x86_read_regPK8x86_regs7x86_reg: argument 0"}
!1487 = distinct !{!1487, !"_ZL12x86_read_regPK8x86_regs7x86_reg"}
!1488 = distinct !{!1488, !1489, !"_ZL25x86_get_effective_addressPK8x86_regsPK9cs_x86_op: argument 0"}
!1489 = distinct !{!1489, !"_ZL25x86_get_effective_addressPK8x86_regsPK9cs_x86_op"}
!1490 = distinct !{!1490, !1491, !"_ZL12x86_read_memPK8x86_regsPK9cs_x86_op: argument 0"}
!1491 = distinct !{!1491, !"_ZL12x86_read_memPK8x86_regsPK9cs_x86_op"}
!1492 = distinct !{!1492, !1493, !"_ZL28x86_read_destination_operandPK9cs_x86_opPK8x86_regs: argument 1"}
!1493 = distinct !{!1493, !"_ZL28x86_read_destination_operandPK9cs_x86_opPK8x86_regs"}
!1494 = distinct !{!1494, !1495, !"_ZL12x86_read_regPK8x86_regs7x86_reg: argument 0"}
!1495 = distinct !{!1495, !"_ZL12x86_read_regPK8x86_regs7x86_reg"}
!1496 = distinct !{!1496, !1497, !"_ZL25x86_get_effective_addressPK8x86_regsPK9cs_x86_op: argument 0"}
!1497 = distinct !{!1497, !"_ZL25x86_get_effective_addressPK8x86_regsPK9cs_x86_op"}
!1498 = distinct !{!1498, !1499, !"_ZL13x86_write_memPK8x86_regsPK9cs_x86_opm: argument 0"}
!1499 = distinct !{!1499, !"_ZL13x86_write_memPK8x86_regsPK9cs_x86_opm"}
!1500 = distinct !{!1500, !1501, !"_ZL29x86_write_destination_operandPK9cs_x86_opP8x86_regsm: argument 1"}
!1501 = distinct !{!1501, !"_ZL29x86_write_destination_operandPK9cs_x86_opP8x86_regsm"}
!1502 = distinct !{!1502, !1503, !"_ZL12x86_read_regPK8x86_regs7x86_reg: argument 0"}
!1503 = distinct !{!1503, !"_ZL12x86_read_regPK8x86_regs7x86_reg"}
!1504 = distinct !{!1504, !1505, !"_ZL25x86_get_effective_addressPK8x86_regsPK9cs_x86_op: argument 0"}
!1505 = distinct !{!1505, !"_ZL25x86_get_effective_addressPK8x86_regsPK9cs_x86_op"}
!1506 = distinct !{!1506, !1507, !"_ZL12x86_read_memPK8x86_regsPK9cs_x86_op: argument 0"}
!1507 = distinct !{!1507, !"_ZL12x86_read_memPK8x86_regsPK9cs_x86_op"}
!1508 = distinct !{!1508, !1509, !"_ZL28x86_read_destination_operandPK9cs_x86_opPK8x86_regs: argument 1"}
!1509 = distinct !{!1509, !"_ZL28x86_read_destination_operandPK9cs_x86_opPK8x86_regs"}
!1510 = distinct !{!1510, !1511, !"_ZL12x86_read_regPK8x86_regs7x86_reg: argument 0"}
!1511 = distinct !{!1511, !"_ZL12x86_read_regPK8x86_regs7x86_reg"}
!1512 = distinct !{!1512, !1513, !"_ZL25x86_get_effective_addressPK8x86_regsPK9cs_x86_op: argument 0"}
!1513 = distinct !{!1513, !"_ZL25x86_get_effective_addressPK8x86_regsPK9cs_x86_op"}
!1514 = distinct !{!1514, !1515, !"_ZL13x86_write_memPK8x86_regsPK9cs_x86_opm: argument 0"}
!1515 = distinct !{!1515, !"_ZL13x86_write_memPK8x86_regsPK9cs_x86_opm"}
!1516 = distinct !{!1516, !1517, !"_ZL29x86_write_destination_operandPK9cs_x86_opP8x86_regsm: argument 1"}
!1517 = distinct !{!1517, !"_ZL29x86_write_destination_operandPK9cs_x86_opP8x86_regsm"}
!1518 = distinct !{!1518, !1519, !"_ZL12x86_read_regPK8x86_regs7x86_reg: argument 0"}
!1519 = distinct !{!1519, !"_ZL12x86_read_regPK8x86_regs7x86_reg"}
!1520 = distinct !{!1520, !1521, !"_ZL25x86_get_effective_addressPK8x86_regsPK9cs_x86_op: argument 0"}
!1521 = distinct !{!1521, !"_ZL25x86_get_effective_addressPK8x86_regsPK9cs_x86_op"}
!1522 = distinct !{!1522, !1523, !"_ZL12x86_read_memPK8x86_regsPK9cs_x86_op: argument 0"}
!1523 = distinct !{!1523, !"_ZL12x86_read_memPK8x86_regsPK9cs_x86_op"}
!1524 = distinct !{!1524, !1525, !"_ZL28x86_read_destination_operandPK9cs_x86_opPK8x86_regs: argument 1"}
!1525 = distinct !{!1525, !"_ZL28x86_read_destination_operandPK9cs_x86_opPK8x86_regs"}
!1526 = !{!1527, !1529, !1531, !1533, !1535, !1537, !1539, !1541, !1543, !1545, !1547, !1549, !1551, !1553, !1555, !1557, !1559, !1561, !1563, !1565, !1567, !1569, !1571, !1573, !1575, !1577, !1579, !1581}
!1527 = distinct !{!1527, !1528, !"_ZL12x86_read_regPK8x86_regs7x86_reg: argument 0"}
!1528 = distinct !{!1528, !"_ZL12x86_read_regPK8x86_regs7x86_reg"}
!1529 = distinct !{!1529, !1530, !"_ZL25x86_get_effective_addressPK8x86_regsPK9cs_x86_op: argument 0"}
!1530 = distinct !{!1530, !"_ZL25x86_get_effective_addressPK8x86_regsPK9cs_x86_op"}
!1531 = distinct !{!1531, !1532, !"_ZL12x86_read_memPK8x86_regsPK9cs_x86_op: argument 0"}
!1532 = distinct !{!1532, !"_ZL12x86_read_memPK8x86_regsPK9cs_x86_op"}
!1533 = distinct !{!1533, !1534, !"_ZL28x86_read_destination_operandPK9cs_x86_opPK8x86_regs: argument 1"}
!1534 = distinct !{!1534, !"_ZL28x86_read_destination_operandPK9cs_x86_opPK8x86_regs"}
!1535 = distinct !{!1535, !1536, !"_ZL12x86_read_regPK8x86_regs7x86_reg: argument 0"}
!1536 = distinct !{!1536, !"_ZL12x86_read_regPK8x86_regs7x86_reg"}
!1537 = distinct !{!1537, !1538, !"_ZL25x86_get_effective_addressPK8x86_regsPK9cs_x86_op: argument 0"}
!1538 = distinct !{!1538, !"_ZL25x86_get_effective_addressPK8x86_regsPK9cs_x86_op"}
!1539 = distinct !{!1539, !1540, !"_ZL13x86_write_memPK8x86_regsPK9cs_x86_opm: argument 0"}
!1540 = distinct !{!1540, !"_ZL13x86_write_memPK8x86_regsPK9cs_x86_opm"}
!1541 = distinct !{!1541, !1542, !"_ZL29x86_write_destination_operandPK9cs_x86_opP8x86_regsm: argument 1"}
!1542 = distinct !{!1542, !"_ZL29x86_write_destination_operandPK9cs_x86_opP8x86_regsm"}
!1543 = distinct !{!1543, !1544, !"_ZL12x86_read_regPK8x86_regs7x86_reg: argument 0"}
!1544 = distinct !{!1544, !"_ZL12x86_read_regPK8x86_regs7x86_reg"}
!1545 = distinct !{!1545, !1546, !"_ZL25x86_get_effective_addressPK8x86_regsPK9cs_x86_op: argument 0"}
!1546 = distinct !{!1546, !"_ZL25x86_get_effective_addressPK8x86_regsPK9cs_x86_op"}
!1547 = distinct !{!1547, !1548, !"_ZL12x86_read_memPK8x86_regsPK9cs_x86_op: argument 0"}
!1548 = distinct !{!1548, !"_ZL12x86_read_memPK8x86_regsPK9cs_x86_op"}
!1549 = distinct !{!1549, !1550, !"_ZL28x86_read_destination_operandPK9cs_x86_opPK8x86_regs: argument 1"}
!1550 = distinct !{!1550, !"_ZL28x86_read_destination_operandPK9cs_x86_opPK8x86_regs"}
!1551 = distinct !{!1551, !1552, !"_ZL12x86_read_regPK8x86_regs7x86_reg: argument 0"}
!1552 = distinct !{!1552, !"_ZL12x86_read_regPK8x86_regs7x86_reg"}
!1553 = distinct !{!1553, !1554, !"_ZL25x86_get_effective_addressPK8x86_regsPK9cs_x86_op: argument 0"}
!1554 = distinct !{!1554, !"_ZL25x86_get_effective_addressPK8x86_regsPK9cs_x86_op"}
!1555 = distinct !{!1555, !1556, !"_ZL13x86_write_memPK8x86_regsPK9cs_x86_opm: argument 0"}
!1556 = distinct !{!1556, !"_ZL13x86_write_memPK8x86_regsPK9cs_x86_opm"}
!1557 = distinct !{!1557, !1558, !"_ZL29x86_write_destination_operandPK9cs_x86_opP8x86_regsm: argument 1"}
!1558 = distinct !{!1558, !"_ZL29x86_write_destination_operandPK9cs_x86_opP8x86_regsm"}
!1559 = distinct !{!1559, !1560, !"_ZL12x86_read_regPK8x86_regs7x86_reg: argument 0"}
!1560 = distinct !{!1560, !"_ZL12x86_read_regPK8x86_regs7x86_reg"}
!1561 = distinct !{!1561, !1562, !"_ZL25x86_get_effective_addressPK8x86_regsPK9cs_x86_op: argument 0"}
!1562 = distinct !{!1562, !"_ZL25x86_get_effective_addressPK8x86_regsPK9cs_x86_op"}
!1563 = distinct !{!1563, !1564, !"_ZL12x86_read_memPK8x86_regsPK9cs_x86_op: argument 0"}
!1564 = distinct !{!1564, !"_ZL12x86_read_memPK8x86_regsPK9cs_x86_op"}
!1565 = distinct !{!1565, !1566, !"_ZL28x86_read_destination_operandPK9cs_x86_opPK8x86_regs: argument 1"}
!1566 = distinct !{!1566, !"_ZL28x86_read_destination_operandPK9cs_x86_opPK8x86_regs"}
!1567 = distinct !{!1567, !1568, !"_ZL12x86_read_regPK8x86_regs7x86_reg: argument 0"}
!1568 = distinct !{!1568, !"_ZL12x86_read_regPK8x86_regs7x86_reg"}
!1569 = distinct !{!1569, !1570, !"_ZL25x86_get_effective_addressPK8x86_regsPK9cs_x86_op: argument 0"}
!1570 = distinct !{!1570, !"_ZL25x86_get_effective_addressPK8x86_regsPK9cs_x86_op"}
!1571 = distinct !{!1571, !1572, !"_ZL13x86_write_memPK8x86_regsPK9cs_x86_opm: argument 0"}
!1572 = distinct !{!1572, !"_ZL13x86_write_memPK8x86_regsPK9cs_x86_opm"}
!1573 = distinct !{!1573, !1574, !"_ZL29x86_write_destination_operandPK9cs_x86_opP8x86_regsm: argument 1"}
!1574 = distinct !{!1574, !"_ZL29x86_write_destination_operandPK9cs_x86_opP8x86_regsm"}
!1575 = distinct !{!1575, !1576, !"_ZL12x86_read_regPK8x86_regs7x86_reg: argument 0"}
!1576 = distinct !{!1576, !"_ZL12x86_read_regPK8x86_regs7x86_reg"}
!1577 = distinct !{!1577, !1578, !"_ZL25x86_get_effective_addressPK8x86_regsPK9cs_x86_op: argument 0"}
!1578 = distinct !{!1578, !"_ZL25x86_get_effective_addressPK8x86_regsPK9cs_x86_op"}
!1579 = distinct !{!1579, !1580, !"_ZL12x86_read_memPK8x86_regsPK9cs_x86_op: argument 0"}
!1580 = distinct !{!1580, !"_ZL12x86_read_memPK8x86_regsPK9cs_x86_op"}
!1581 = distinct !{!1581, !1582, !"_ZL28x86_read_destination_operandPK9cs_x86_opPK8x86_regs: argument 1"}
!1582 = distinct !{!1582, !"_ZL28x86_read_destination_operandPK9cs_x86_opPK8x86_regs"}
!1583 = !{!1584, !1586, !1588, !1590, !1592, !1594, !1596, !1598, !1600, !1602, !1604, !1606, !1608, !1610, !1612, !1614, !1616, !1618, !1620, !1622, !1624, !1626, !1628, !1630, !1632, !1634, !1636, !1638, !1640, !1642, !1644, !1646, !1648}
!1584 = distinct !{!1584, !1585, !"_ZL12x86_read_regPK8x86_regs7x86_reg: argument 0"}
!1585 = distinct !{!1585, !"_ZL12x86_read_regPK8x86_regs7x86_reg"}
!1586 = distinct !{!1586, !1587, !"_ZL25x86_get_effective_addressPK8x86_regsPK9cs_x86_op: argument 0"}
!1587 = distinct !{!1587, !"_ZL25x86_get_effective_addressPK8x86_regsPK9cs_x86_op"}
!1588 = distinct !{!1588, !1589, !"_ZL12x86_read_memPK8x86_regsPK9cs_x86_op: argument 0"}
!1589 = distinct !{!1589, !"_ZL12x86_read_memPK8x86_regsPK9cs_x86_op"}
!1590 = distinct !{!1590, !1591, !"_ZL23x86_read_source_operandPK9cs_x86_opPK8x86_regs: argument 1"}
!1591 = distinct !{!1591, !"_ZL23x86_read_source_operandPK9cs_x86_opPK8x86_regs"}
!1592 = distinct !{!1592, !1593, !"_ZL12x86_read_regPK8x86_regs7x86_reg: argument 0"}
!1593 = distinct !{!1593, !"_ZL12x86_read_regPK8x86_regs7x86_reg"}
!1594 = distinct !{!1594, !1595, !"_ZL25x86_get_effective_addressPK8x86_regsPK9cs_x86_op: argument 0"}
!1595 = distinct !{!1595, !"_ZL25x86_get_effective_addressPK8x86_regsPK9cs_x86_op"}
!1596 = distinct !{!1596, !1597, !"_ZL13x86_write_memPK8x86_regsPK9cs_x86_opm: argument 0"}
!1597 = distinct !{!1597, !"_ZL13x86_write_memPK8x86_regsPK9cs_x86_opm"}
!1598 = distinct !{!1598, !1599, !"_ZL29x86_write_destination_operandPK9cs_x86_opP8x86_regsm: argument 1"}
!1599 = distinct !{!1599, !"_ZL29x86_write_destination_operandPK9cs_x86_opP8x86_regsm"}
!1600 = distinct !{!1600, !1601, !"_ZL12x86_read_regPK8x86_regs7x86_reg: argument 0"}
!1601 = distinct !{!1601, !"_ZL12x86_read_regPK8x86_regs7x86_reg"}
!1602 = distinct !{!1602, !1603, !"_ZL25x86_get_effective_addressPK8x86_regsPK9cs_x86_op: argument 0"}
!1603 = distinct !{!1603, !"_ZL25x86_get_effective_addressPK8x86_regsPK9cs_x86_op"}
!1604 = distinct !{!1604, !1605, !"_ZL12x86_read_memPK8x86_regsPK9cs_x86_op: argument 0"}
!1605 = distinct !{!1605, !"_ZL12x86_read_memPK8x86_regsPK9cs_x86_op"}
!1606 = distinct !{!1606, !1607, !"_ZL28x86_read_destination_operandPK9cs_x86_opPK8x86_regs: argument 1"}
!1607 = distinct !{!1607, !"_ZL28x86_read_destination_operandPK9cs_x86_opPK8x86_regs"}
!1608 = distinct !{!1608, !1609, !"_ZL12x86_read_regPK8x86_regs7x86_reg: argument 0"}
!1609 = distinct !{!1609, !"_ZL12x86_read_regPK8x86_regs7x86_reg"}
!1610 = distinct !{!1610, !1611, !"_ZL25x86_get_effective_addressPK8x86_regsPK9cs_x86_op: argument 0"}
!1611 = distinct !{!1611, !"_ZL25x86_get_effective_addressPK8x86_regsPK9cs_x86_op"}
!1612 = distinct !{!1612, !1613, !"_ZL13x86_write_memPK8x86_regsPK9cs_x86_opm: argument 0"}
!1613 = distinct !{!1613, !"_ZL13x86_write_memPK8x86_regsPK9cs_x86_opm"}
!1614 = distinct !{!1614, !1615, !"_ZL29x86_write_destination_operandPK9cs_x86_opP8x86_regsm: argument 1"}
!1615 = distinct !{!1615, !"_ZL29x86_write_destination_operandPK9cs_x86_opP8x86_regsm"}
!1616 = distinct !{!1616, !1617, !"_ZL12x86_read_regPK8x86_regs7x86_reg: argument 0"}
!1617 = distinct !{!1617, !"_ZL12x86_read_regPK8x86_regs7x86_reg"}
!1618 = distinct !{!1618, !1619, !"_ZL25x86_get_effective_addressPK8x86_regsPK9cs_x86_op: argument 0"}
!1619 = distinct !{!1619, !"_ZL25x86_get_effective_addressPK8x86_regsPK9cs_x86_op"}
!1620 = distinct !{!1620, !1621, !"_ZL12x86_read_memPK8x86_regsPK9cs_x86_op: argument 0"}
!1621 = distinct !{!1621, !"_ZL12x86_read_memPK8x86_regsPK9cs_x86_op"}
!1622 = distinct !{!1622, !1623, !"_ZL28x86_read_destination_operandPK9cs_x86_opPK8x86_regs: argument 1"}
!1623 = distinct !{!1623, !"_ZL28x86_read_destination_operandPK9cs_x86_opPK8x86_regs"}
!1624 = distinct !{!1624, !1625, !"_ZL12x86_read_regPK8x86_regs7x86_reg: argument 0"}
!1625 = distinct !{!1625, !"_ZL12x86_read_regPK8x86_regs7x86_reg"}
!1626 = distinct !{!1626, !1627, !"_ZL25x86_get_effective_addressPK8x86_regsPK9cs_x86_op: argument 0"}
!1627 = distinct !{!1627, !"_ZL25x86_get_effective_addressPK8x86_regsPK9cs_x86_op"}
!1628 = distinct !{!1628, !1629, !"_ZL13x86_write_memPK8x86_regsPK9cs_x86_opm: argument 0"}
!1629 = distinct !{!1629, !"_ZL13x86_write_memPK8x86_regsPK9cs_x86_opm"}
!1630 = distinct !{!1630, !1631, !"_ZL29x86_write_destination_operandPK9cs_x86_opP8x86_regsm: argument 1"}
!1631 = distinct !{!1631, !"_ZL29x86_write_destination_operandPK9cs_x86_opP8x86_regsm"}
!1632 = distinct !{!1632, !1633, !"_ZL12x86_read_regPK8x86_regs7x86_reg: argument 0"}
!1633 = distinct !{!1633, !"_ZL12x86_read_regPK8x86_regs7x86_reg"}
!1634 = distinct !{!1634, !1635, !"_ZL25x86_get_effective_addressPK8x86_regsPK9cs_x86_op: argument 0"}
!1635 = distinct !{!1635, !"_ZL25x86_get_effective_addressPK8x86_regsPK9cs_x86_op"}
!1636 = distinct !{!1636, !1637, !"_ZL12x86_read_memPK8x86_regsPK9cs_x86_op: argument 0"}
!1637 = distinct !{!1637, !"_ZL12x86_read_memPK8x86_regsPK9cs_x86_op"}
!1638 = distinct !{!1638, !1639, !"_ZL28x86_read_destination_operandPK9cs_x86_opPK8x86_regs: argument 1"}
!1639 = distinct !{!1639, !"_ZL28x86_read_destination_operandPK9cs_x86_opPK8x86_regs"}
!1640 = distinct !{!1640, !1641, !"_ZL20x86_logical_operatorIZ7x86_andE3$_0EmP8x86_regsP13x86_flags_regPK6cs_x86OT_: argument 0"}
!1641 = distinct !{!1641, !"_ZL20x86_logical_operatorIZ7x86_andE3$_0EmP8x86_regsP13x86_flags_regPK6cs_x86OT_"}
!1642 = distinct !{!1642, !1643, !"_ZL12x86_read_regPK8x86_regs7x86_reg: argument 0"}
!1643 = distinct !{!1643, !"_ZL12x86_read_regPK8x86_regs7x86_reg"}
!1644 = distinct !{!1644, !1645, !"_ZL25x86_get_effective_addressPK8x86_regsPK9cs_x86_op: argument 0"}
!1645 = distinct !{!1645, !"_ZL25x86_get_effective_addressPK8x86_regsPK9cs_x86_op"}
!1646 = distinct !{!1646, !1647, !"_ZL13x86_write_memPK8x86_regsPK9cs_x86_opm: argument 0"}
!1647 = distinct !{!1647, !"_ZL13x86_write_memPK8x86_regsPK9cs_x86_opm"}
!1648 = distinct !{!1648, !1649, !"_ZL29x86_write_destination_operandPK9cs_x86_opP8x86_regsm: argument 1"}
!1649 = distinct !{!1649, !"_ZL29x86_write_destination_operandPK9cs_x86_opP8x86_regsm"}
!1650 = !{!1651, !1653, !1655}
!1651 = distinct !{!1651, !1652, !"_ZL13x86_write_regP8x86_regs7x86_regm: argument 0"}
!1652 = distinct !{!1652, !"_ZL13x86_write_regP8x86_regs7x86_regm"}
!1653 = distinct !{!1653, !1654, !"_ZL13x86_write_regP8x86_regsPK9cs_x86_opm: argument 0"}
!1654 = distinct !{!1654, !"_ZL13x86_write_regP8x86_regsPK9cs_x86_opm"}
!1655 = distinct !{!1655, !1656, !"_ZL29x86_write_destination_operandPK9cs_x86_opP8x86_regsm: argument 1"}
!1656 = distinct !{!1656, !"_ZL29x86_write_destination_operandPK9cs_x86_opP8x86_regsm"}
!1657 = !{!1658}
!1658 = distinct !{!1658, !1656, !"_ZL29x86_write_destination_operandPK9cs_x86_opP8x86_regsm: argument 0"}
!1659 = !{!1660, !1662, !1664, !1666, !1668, !1670, !1672, !1674}
!1660 = distinct !{!1660, !1661, !"_ZL12x86_read_regPK8x86_regs7x86_reg: argument 0"}
!1661 = distinct !{!1661, !"_ZL12x86_read_regPK8x86_regs7x86_reg"}
!1662 = distinct !{!1662, !1663, !"_ZL25x86_get_effective_addressPK8x86_regsPK9cs_x86_op: argument 0"}
!1663 = distinct !{!1663, !"_ZL25x86_get_effective_addressPK8x86_regsPK9cs_x86_op"}
!1664 = distinct !{!1664, !1665, !"_ZL13x86_write_memPK8x86_regsPK9cs_x86_opm: argument 0"}
!1665 = distinct !{!1665, !"_ZL13x86_write_memPK8x86_regsPK9cs_x86_opm"}
!1666 = distinct !{!1666, !1667, !"_ZL29x86_write_destination_operandPK9cs_x86_opP8x86_regsm: argument 1"}
!1667 = distinct !{!1667, !"_ZL29x86_write_destination_operandPK9cs_x86_opP8x86_regsm"}
!1668 = distinct !{!1668, !1669, !"_ZL12x86_read_regPK8x86_regs7x86_reg: argument 0"}
!1669 = distinct !{!1669, !"_ZL12x86_read_regPK8x86_regs7x86_reg"}
!1670 = distinct !{!1670, !1671, !"_ZL25x86_get_effective_addressPK8x86_regsPK9cs_x86_op: argument 0"}
!1671 = distinct !{!1671, !"_ZL25x86_get_effective_addressPK8x86_regsPK9cs_x86_op"}
!1672 = distinct !{!1672, !1673, !"_ZL12x86_read_memPK8x86_regsPK9cs_x86_op: argument 0"}
!1673 = distinct !{!1673, !"_ZL12x86_read_memPK8x86_regsPK9cs_x86_op"}
!1674 = distinct !{!1674, !1675, !"_ZL28x86_read_destination_operandPK9cs_x86_opPK8x86_regs: argument 1"}
!1675 = distinct !{!1675, !"_ZL28x86_read_destination_operandPK9cs_x86_opPK8x86_regs"}
!1676 = !{!"clc "}
!1677 = !{!"loopne 0x107"}
!1678 = !{!"loopne 0x10f"}
!1679 = !{i64 1272}
!1680 = !{!1681}
!1681 = distinct !{!1681, !1682, !"_ZL12x86_read_regPK8x86_regs7x86_reg: argument 0"}
!1682 = distinct !{!1682, !"_ZL12x86_read_regPK8x86_regs7x86_reg"}
!1683 = !{!1684, !1686}
!1684 = distinct !{!1684, !1685, !"_ZL12x86_read_regPK8x86_regs7x86_reg: argument 0"}
!1685 = distinct !{!1685, !"_ZL12x86_read_regPK8x86_regs7x86_reg"}
!1686 = distinct !{!1686, !1687, !"_ZL14x86_push_valuePK10x86_configP8x86_regsmm: argument 0"}
!1687 = distinct !{!1687, !"_ZL14x86_push_valuePK10x86_configP8x86_regsmm"}
!1688 = !{!1689, !1691, !1693}
!1689 = distinct !{!1689, !1690, !"_ZL13x86_write_regP8x86_regs7x86_regm: argument 0"}
!1690 = distinct !{!1690, !"_ZL13x86_write_regP8x86_regs7x86_regm"}
!1691 = distinct !{!1691, !1692, !"_ZL13x86_write_regP8x86_regsPK9cs_x86_opm: argument 0"}
!1692 = distinct !{!1692, !"_ZL13x86_write_regP8x86_regsPK9cs_x86_opm"}
!1693 = distinct !{!1693, !1694, !"_ZL29x86_write_destination_operandPK9cs_x86_opP8x86_regsm: argument 1"}
!1694 = distinct !{!1694, !"_ZL29x86_write_destination_operandPK9cs_x86_opP8x86_regsm"}
!1695 = !{!1696}
!1696 = distinct !{!1696, !1694, !"_ZL29x86_write_destination_operandPK9cs_x86_opP8x86_regsm: argument 0"}
!1697 = !{!1698, !1700, !1702, !1704}
!1698 = distinct !{!1698, !1699, !"_ZL13x86_write_regP8x86_regs7x86_regm: argument 0"}
!1699 = distinct !{!1699, !"_ZL13x86_write_regP8x86_regs7x86_regm"}
!1700 = distinct !{!1700, !1701, !"_ZL13x86_write_regP8x86_regsPK9cs_x86_opm: argument 0"}
!1701 = distinct !{!1701, !"_ZL13x86_write_regP8x86_regsPK9cs_x86_opm"}
!1702 = distinct !{!1702, !1703, !"_ZL29x86_write_destination_operandPK9cs_x86_opP8x86_regsm: argument 1"}
!1703 = distinct !{!1703, !"_ZL29x86_write_destination_operandPK9cs_x86_opP8x86_regsm"}
!1704 = distinct !{!1704, !1705, !"_ZL20x86_move_zero_extendP8x86_regsPK6cs_x86: argument 0"}
!1705 = distinct !{!1705, !"_ZL20x86_move_zero_extendP8x86_regsPK6cs_x86"}
!1706 = !{!1707, !1708}
!1707 = distinct !{!1707, !1703, !"_ZL29x86_write_destination_operandPK9cs_x86_opP8x86_regsm: argument 0"}
!1708 = distinct !{!1708, !1705, !"_ZL20x86_move_zero_extendP8x86_regsPK6cs_x86: argument 1"}
!1709 = !{!1710, !1712, !1714}
!1710 = distinct !{!1710, !1711, !"_ZL12x86_read_regPK8x86_regs7x86_reg: argument 0"}
!1711 = distinct !{!1711, !"_ZL12x86_read_regPK8x86_regs7x86_reg"}
!1712 = distinct !{!1712, !1713, !"_ZL12x86_read_regPK8x86_regsPK9cs_x86_op: argument 0"}
!1713 = distinct !{!1713, !"_ZL12x86_read_regPK8x86_regsPK9cs_x86_op"}
!1714 = distinct !{!1714, !1715, !"_ZL28x86_read_destination_operandPK9cs_x86_opPK8x86_regs: argument 1"}
!1715 = distinct !{!1715, !"_ZL28x86_read_destination_operandPK9cs_x86_opPK8x86_regs"}
!1716 = !{!1717}
!1717 = distinct !{!1717, !1715, !"_ZL28x86_read_destination_operandPK9cs_x86_opPK8x86_regs: argument 0"}
!1718 = !{!1719, !1721}
!1719 = distinct !{!1719, !1720, !"_ZL13x86_write_regP8x86_regs7x86_regm: argument 0"}
!1720 = distinct !{!1720, !"_ZL13x86_write_regP8x86_regs7x86_regm"}
!1721 = distinct !{!1721, !1722, !"_ZL13x86_pop_valuePK10x86_configP8x86_regsm: argument 0"}
!1722 = distinct !{!1722, !"_ZL13x86_pop_valuePK10x86_configP8x86_regsm"}
!1723 = !{!1724}
!1724 = distinct !{!1724, !1725, !"_ZL13x86_write_regP8x86_regs7x86_regm: argument 0"}
!1725 = distinct !{!1725, !"_ZL13x86_write_regP8x86_regs7x86_regm"}
!1726 = !{i64 1328}
!1727 = !{!1728, !1730, !1732, !1734, !1736, !1738, !1740, !1742, !1744, !1746}
!1728 = distinct !{!1728, !1729, !"_ZL12x86_read_regPK8x86_regs7x86_reg: argument 0"}
!1729 = distinct !{!1729, !"_ZL12x86_read_regPK8x86_regs7x86_reg"}
!1730 = distinct !{!1730, !1731, !"_ZL12x86_read_regPK8x86_regsPK9cs_x86_op: argument 0"}
!1731 = distinct !{!1731, !"_ZL12x86_read_regPK8x86_regsPK9cs_x86_op"}
!1732 = distinct !{!1732, !1733, !"_ZL28x86_read_destination_operandPK9cs_x86_opPK8x86_regs: argument 1"}
!1733 = distinct !{!1733, !"_ZL28x86_read_destination_operandPK9cs_x86_opPK8x86_regs"}
!1734 = distinct !{!1734, !1735, !"_ZL20x86_logical_operatorIZ7x86_andE3$_0EmP8x86_regsP13x86_flags_regPK6cs_x86OT_: argument 0"}
!1735 = distinct !{!1735, !"_ZL20x86_logical_operatorIZ7x86_andE3$_0EmP8x86_regsP13x86_flags_regPK6cs_x86OT_"}
!1736 = distinct !{!1736, !1737, !"_ZL12x86_read_regPK8x86_regs7x86_reg: argument 0"}
!1737 = distinct !{!1737, !"_ZL12x86_read_regPK8x86_regs7x86_reg"}
!1738 = distinct !{!1738, !1739, !"_ZL12x86_read_regPK8x86_regsPK9cs_x86_op: argument 0"}
!1739 = distinct !{!1739, !"_ZL12x86_read_regPK8x86_regsPK9cs_x86_op"}
!1740 = distinct !{!1740, !1741, !"_ZL23x86_read_source_operandPK9cs_x86_opPK8x86_regs: argument 1"}
!1741 = distinct !{!1741, !"_ZL23x86_read_source_operandPK9cs_x86_opPK8x86_regs"}
!1742 = distinct !{!1742, !1743, !"_ZL20x86_move_zero_extendP8x86_regsPK6cs_x86: argument 0"}
!1743 = distinct !{!1743, !"_ZL20x86_move_zero_extendP8x86_regsPK6cs_x86"}
!1744 = distinct !{!1744, !1745, !"_ZL12x86_read_regPK8x86_regs7x86_reg: argument 0"}
!1745 = distinct !{!1745, !"_ZL12x86_read_regPK8x86_regs7x86_reg"}
!1746 = distinct !{!1746, !1747, !"_ZL14x86_push_valuePK10x86_configP8x86_regsmm: argument 0"}
!1747 = distinct !{!1747, !"_ZL14x86_push_valuePK10x86_configP8x86_regsmm"}
!1748 = !{!1749, !1751, !1753}
!1749 = distinct !{!1749, !1750, !"_ZL13x86_write_regP8x86_regs7x86_regm: argument 0"}
!1750 = distinct !{!1750, !"_ZL13x86_write_regP8x86_regs7x86_regm"}
!1751 = distinct !{!1751, !1752, !"_ZL13x86_write_regP8x86_regsPK9cs_x86_opm: argument 0"}
!1752 = distinct !{!1752, !"_ZL13x86_write_regP8x86_regsPK9cs_x86_opm"}
!1753 = distinct !{!1753, !1754, !"_ZL29x86_write_destination_operandPK9cs_x86_opP8x86_regsm: argument 1"}
!1754 = distinct !{!1754, !"_ZL29x86_write_destination_operandPK9cs_x86_opP8x86_regsm"}
!1755 = !{!1756}
!1756 = distinct !{!1756, !1754, !"_ZL29x86_write_destination_operandPK9cs_x86_opP8x86_regsm: argument 0"}
!1757 = !{!1758, !1760, !1762, !1764}
!1758 = distinct !{!1758, !1759, !"_ZL12x86_read_regPK8x86_regs7x86_reg: argument 0"}
!1759 = distinct !{!1759, !"_ZL12x86_read_regPK8x86_regs7x86_reg"}
!1760 = distinct !{!1760, !1761, !"_ZL12x86_read_regPK8x86_regsPK9cs_x86_op: argument 0"}
!1761 = distinct !{!1761, !"_ZL12x86_read_regPK8x86_regsPK9cs_x86_op"}
!1762 = distinct !{!1762, !1763, !"_ZL23x86_read_source_operandPK9cs_x86_opPK8x86_regs: argument 1"}
!1763 = distinct !{!1763, !"_ZL23x86_read_source_operandPK9cs_x86_opPK8x86_regs"}
!1764 = distinct !{!1764, !1765, !"_ZL20x86_move_zero_extendP8x86_regsPK6cs_x86: argument 0"}
!1765 = distinct !{!1765, !"_ZL20x86_move_zero_extendP8x86_regsPK6cs_x86"}
!1766 = !{!1767, !1768}
!1767 = distinct !{!1767, !1763, !"_ZL23x86_read_source_operandPK9cs_x86_opPK8x86_regs: argument 0"}
!1768 = distinct !{!1768, !1765, !"_ZL20x86_move_zero_extendP8x86_regsPK6cs_x86: argument 1"}
!1769 = !{!1770, !1772, !1774, !1764}
!1770 = distinct !{!1770, !1771, !"_ZL13x86_write_regP8x86_regs7x86_regm: argument 0"}
!1771 = distinct !{!1771, !"_ZL13x86_write_regP8x86_regs7x86_regm"}
!1772 = distinct !{!1772, !1773, !"_ZL13x86_write_regP8x86_regsPK9cs_x86_opm: argument 0"}
!1773 = distinct !{!1773, !"_ZL13x86_write_regP8x86_regsPK9cs_x86_opm"}
!1774 = distinct !{!1774, !1775, !"_ZL29x86_write_destination_operandPK9cs_x86_opP8x86_regsm: argument 1"}
!1775 = distinct !{!1775, !"_ZL29x86_write_destination_operandPK9cs_x86_opP8x86_regsm"}
!1776 = !{!1777, !1768}
!1777 = distinct !{!1777, !1775, !"_ZL29x86_write_destination_operandPK9cs_x86_opP8x86_regsm: argument 0"}
!1778 = !{!1779, !1781, !1783}
!1779 = distinct !{!1779, !1780, !"_ZL13x86_write_regP8x86_regs7x86_regm: argument 0"}
!1780 = distinct !{!1780, !"_ZL13x86_write_regP8x86_regs7x86_regm"}
!1781 = distinct !{!1781, !1782, !"_ZL13x86_write_regP8x86_regsPK9cs_x86_opm: argument 0"}
!1782 = distinct !{!1782, !"_ZL13x86_write_regP8x86_regsPK9cs_x86_opm"}
!1783 = distinct !{!1783, !1784, !"_ZL29x86_write_destination_operandPK9cs_x86_opP8x86_regsm: argument 1"}
!1784 = distinct !{!1784, !"_ZL29x86_write_destination_operandPK9cs_x86_opP8x86_regsm"}
!1785 = !{!1786}
!1786 = distinct !{!1786, !1784, !"_ZL29x86_write_destination_operandPK9cs_x86_opP8x86_regsm: argument 0"}
!1787 = !{!1788, !1790, !1792, !1742}
!1788 = distinct !{!1788, !1789, !"_ZL13x86_write_regP8x86_regs7x86_regm: argument 0"}
!1789 = distinct !{!1789, !"_ZL13x86_write_regP8x86_regs7x86_regm"}
!1790 = distinct !{!1790, !1791, !"_ZL13x86_write_regP8x86_regsPK9cs_x86_opm: argument 0"}
!1791 = distinct !{!1791, !"_ZL13x86_write_regP8x86_regsPK9cs_x86_opm"}
!1792 = distinct !{!1792, !1793, !"_ZL29x86_write_destination_operandPK9cs_x86_opP8x86_regsm: argument 1"}
!1793 = distinct !{!1793, !"_ZL29x86_write_destination_operandPK9cs_x86_opP8x86_regsm"}
!1794 = !{!1795, !1796}
!1795 = distinct !{!1795, !1793, !"_ZL29x86_write_destination_operandPK9cs_x86_opP8x86_regsm: argument 0"}
!1796 = distinct !{!1796, !1743, !"_ZL20x86_move_zero_extendP8x86_regsPK6cs_x86: argument 1"}
!1797 = !{!1798, !1800, !1802}
!1798 = distinct !{!1798, !1799, !"_ZL12x86_read_regPK8x86_regs7x86_reg: argument 0"}
!1799 = distinct !{!1799, !"_ZL12x86_read_regPK8x86_regs7x86_reg"}
!1800 = distinct !{!1800, !1801, !"_ZL12x86_read_regPK8x86_regsPK9cs_x86_op: argument 0"}
!1801 = distinct !{!1801, !"_ZL12x86_read_regPK8x86_regsPK9cs_x86_op"}
!1802 = distinct !{!1802, !1803, !"_ZL23x86_read_source_operandPK9cs_x86_opPK8x86_regs: argument 1"}
!1803 = distinct !{!1803, !"_ZL23x86_read_source_operandPK9cs_x86_opPK8x86_regs"}
!1804 = !{!1805}
!1805 = distinct !{!1805, !1803, !"_ZL23x86_read_source_operandPK9cs_x86_opPK8x86_regs: argument 0"}
!1806 = !{!1807, !1809}
!1807 = distinct !{!1807, !1808, !"_ZL13x86_write_regP8x86_regs7x86_regm: argument 0"}
!1808 = distinct !{!1808, !"_ZL13x86_write_regP8x86_regs7x86_regm"}
!1809 = distinct !{!1809, !1810, !"_ZL14x86_push_valuePK10x86_configP8x86_regsmm: argument 0"}
!1810 = distinct !{!1810, !"_ZL14x86_push_valuePK10x86_configP8x86_regsmm"}
!1811 = !{!1812, !1814, !1816}
!1812 = distinct !{!1812, !1813, !"_ZL13x86_write_regP8x86_regs7x86_regm: argument 0"}
!1813 = distinct !{!1813, !"_ZL13x86_write_regP8x86_regs7x86_regm"}
!1814 = distinct !{!1814, !1815, !"_ZL13x86_write_regP8x86_regsPK9cs_x86_opm: argument 0"}
!1815 = distinct !{!1815, !"_ZL13x86_write_regP8x86_regsPK9cs_x86_opm"}
!1816 = distinct !{!1816, !1817, !"_ZL29x86_write_destination_operandPK9cs_x86_opP8x86_regsm: argument 1"}
!1817 = distinct !{!1817, !"_ZL29x86_write_destination_operandPK9cs_x86_opP8x86_regsm"}
!1818 = !{!1819}
!1819 = distinct !{!1819, !1817, !"_ZL29x86_write_destination_operandPK9cs_x86_opP8x86_regsm: argument 0"}
!1820 = !{!1821, !1823, !1825}
!1821 = distinct !{!1821, !1822, !"_ZL13x86_write_regP8x86_regs7x86_regm: argument 0"}
!1822 = distinct !{!1822, !"_ZL13x86_write_regP8x86_regs7x86_regm"}
!1823 = distinct !{!1823, !1824, !"_ZL13x86_write_regP8x86_regsPK9cs_x86_opm: argument 0"}
!1824 = distinct !{!1824, !"_ZL13x86_write_regP8x86_regsPK9cs_x86_opm"}
!1825 = distinct !{!1825, !1826, !"_ZL29x86_write_destination_operandPK9cs_x86_opP8x86_regsm: argument 1"}
!1826 = distinct !{!1826, !"_ZL29x86_write_destination_operandPK9cs_x86_opP8x86_regsm"}
!1827 = !{!1828}
!1828 = distinct !{!1828, !1826, !"_ZL29x86_write_destination_operandPK9cs_x86_opP8x86_regsm: argument 0"}
!1829 = !{!1830, !1832, !1834}
!1830 = distinct !{!1830, !1831, !"_ZL13x86_write_regP8x86_regs7x86_regm: argument 0"}
!1831 = distinct !{!1831, !"_ZL13x86_write_regP8x86_regs7x86_regm"}
!1832 = distinct !{!1832, !1833, !"_ZL13x86_write_regP8x86_regsPK9cs_x86_opm: argument 0"}
!1833 = distinct !{!1833, !"_ZL13x86_write_regP8x86_regsPK9cs_x86_opm"}
!1834 = distinct !{!1834, !1835, !"_ZL29x86_write_destination_operandPK9cs_x86_opP8x86_regsm: argument 1"}
!1835 = distinct !{!1835, !"_ZL29x86_write_destination_operandPK9cs_x86_opP8x86_regsm"}
!1836 = !{!1837}
!1837 = distinct !{!1837, !1835, !"_ZL29x86_write_destination_operandPK9cs_x86_opP8x86_regsm: argument 0"}
!1838 = !{i64 1376}
!1839 = !{!1840}
!1840 = distinct !{!1840, !1841, !"_ZL12x86_read_regPK8x86_regs7x86_reg: argument 0"}
!1841 = distinct !{!1841, !"_ZL12x86_read_regPK8x86_regs7x86_reg"}
!1842 = !{!1843, !1845}
!1843 = distinct !{!1843, !1844, !"_ZL12x86_read_regPK8x86_regs7x86_reg: argument 0"}
!1844 = distinct !{!1844, !"_ZL12x86_read_regPK8x86_regs7x86_reg"}
!1845 = distinct !{!1845, !1846, !"_ZL14x86_push_valuePK10x86_configP8x86_regsmm: argument 0"}
!1846 = distinct !{!1846, !"_ZL14x86_push_valuePK10x86_configP8x86_regsmm"}
!1847 = !{!1848, !1850, !1852}
!1848 = distinct !{!1848, !1849, !"_ZL13x86_write_regP8x86_regs7x86_regm: argument 0"}
!1849 = distinct !{!1849, !"_ZL13x86_write_regP8x86_regs7x86_regm"}
!1850 = distinct !{!1850, !1851, !"_ZL13x86_write_regP8x86_regsPK9cs_x86_opm: argument 0"}
!1851 = distinct !{!1851, !"_ZL13x86_write_regP8x86_regsPK9cs_x86_opm"}
!1852 = distinct !{!1852, !1853, !"_ZL29x86_write_destination_operandPK9cs_x86_opP8x86_regsm: argument 1"}
!1853 = distinct !{!1853, !"_ZL29x86_write_destination_operandPK9cs_x86_opP8x86_regsm"}
!1854 = !{!1855}
!1855 = distinct !{!1855, !1853, !"_ZL29x86_write_destination_operandPK9cs_x86_opP8x86_regsm: argument 0"}
!1856 = !{!1857, !1859, !1861}
!1857 = distinct !{!1857, !1858, !"_ZL12x86_read_regPK8x86_regs7x86_reg: argument 0"}
!1858 = distinct !{!1858, !"_ZL12x86_read_regPK8x86_regs7x86_reg"}
!1859 = distinct !{!1859, !1860, !"_ZL12x86_read_regPK8x86_regsPK9cs_x86_op: argument 0"}
!1860 = distinct !{!1860, !"_ZL12x86_read_regPK8x86_regsPK9cs_x86_op"}
!1861 = distinct !{!1861, !1862, !"_ZL23x86_read_source_operandPK9cs_x86_opPK8x86_regs: argument 1"}
!1862 = distinct !{!1862, !"_ZL23x86_read_source_operandPK9cs_x86_opPK8x86_regs"}
!1863 = !{!1864}
!1864 = distinct !{!1864, !1862, !"_ZL23x86_read_source_operandPK9cs_x86_opPK8x86_regs: argument 0"}
!1865 = !{!1866, !1868}
!1866 = distinct !{!1866, !1867, !"_ZL13x86_write_regP8x86_regs7x86_regm: argument 0"}
!1867 = distinct !{!1867, !"_ZL13x86_write_regP8x86_regs7x86_regm"}
!1868 = distinct !{!1868, !1869, !"_ZL14x86_push_valuePK10x86_configP8x86_regsmm: argument 0"}
!1869 = distinct !{!1869, !"_ZL14x86_push_valuePK10x86_configP8x86_regsmm"}
!1870 = !{!1871, !1873, !1875}
!1871 = distinct !{!1871, !1872, !"_ZL13x86_write_regP8x86_regs7x86_regm: argument 0"}
!1872 = distinct !{!1872, !"_ZL13x86_write_regP8x86_regs7x86_regm"}
!1873 = distinct !{!1873, !1874, !"_ZL13x86_write_regP8x86_regsPK9cs_x86_opm: argument 0"}
!1874 = distinct !{!1874, !"_ZL13x86_write_regP8x86_regsPK9cs_x86_opm"}
!1875 = distinct !{!1875, !1876, !"_ZL29x86_write_destination_operandPK9cs_x86_opP8x86_regsm: argument 1"}
!1876 = distinct !{!1876, !"_ZL29x86_write_destination_operandPK9cs_x86_opP8x86_regsm"}
!1877 = !{!1878}
!1878 = distinct !{!1878, !1876, !"_ZL29x86_write_destination_operandPK9cs_x86_opP8x86_regsm: argument 0"}
!1879 = !{!1880, !1882, !1884, !1886}
!1880 = distinct !{!1880, !1881, !"_ZL13x86_write_regP8x86_regs7x86_regm: argument 0"}
!1881 = distinct !{!1881, !"_ZL13x86_write_regP8x86_regs7x86_regm"}
!1882 = distinct !{!1882, !1883, !"_ZL13x86_write_regP8x86_regsPK9cs_x86_opm: argument 0"}
!1883 = distinct !{!1883, !"_ZL13x86_write_regP8x86_regsPK9cs_x86_opm"}
!1884 = distinct !{!1884, !1885, !"_ZL29x86_write_destination_operandPK9cs_x86_opP8x86_regsm: argument 1"}
!1885 = distinct !{!1885, !"_ZL29x86_write_destination_operandPK9cs_x86_opP8x86_regsm"}
!1886 = distinct !{!1886, !1887, !"_ZL20x86_move_zero_extendP8x86_regsPK6cs_x86: argument 0"}
!1887 = distinct !{!1887, !"_ZL20x86_move_zero_extendP8x86_regsPK6cs_x86"}
!1888 = !{!1889, !1890}
!1889 = distinct !{!1889, !1885, !"_ZL29x86_write_destination_operandPK9cs_x86_opP8x86_regsm: argument 0"}
!1890 = distinct !{!1890, !1887, !"_ZL20x86_move_zero_extendP8x86_regsPK6cs_x86: argument 1"}
!1891 = !{!1892, !1894, !1896}
!1892 = distinct !{!1892, !1893, !"_ZL13x86_write_regP8x86_regs7x86_regm: argument 0"}
!1893 = distinct !{!1893, !"_ZL13x86_write_regP8x86_regs7x86_regm"}
!1894 = distinct !{!1894, !1895, !"_ZL13x86_write_regP8x86_regsPK9cs_x86_opm: argument 0"}
!1895 = distinct !{!1895, !"_ZL13x86_write_regP8x86_regsPK9cs_x86_opm"}
!1896 = distinct !{!1896, !1897, !"_ZL29x86_write_destination_operandPK9cs_x86_opP8x86_regsm: argument 1"}
!1897 = distinct !{!1897, !"_ZL29x86_write_destination_operandPK9cs_x86_opP8x86_regsm"}
!1898 = !{!1899}
!1899 = distinct !{!1899, !1897, !"_ZL29x86_write_destination_operandPK9cs_x86_opP8x86_regsm: argument 0"}
!1900 = !{!1901, !1903}
!1901 = distinct !{!1901, !1902, !"_ZL13x86_write_regP8x86_regs7x86_regm: argument 0"}
!1902 = distinct !{!1902, !"_ZL13x86_write_regP8x86_regs7x86_regm"}
!1903 = distinct !{!1903, !1904, !"_ZL13x86_pop_valuePK10x86_configP8x86_regsm: argument 0"}
!1904 = distinct !{!1904, !"_ZL13x86_pop_valuePK10x86_configP8x86_regsm"}
!1905 = !{!1906}
!1906 = distinct !{!1906, !1907, !"_ZL13x86_write_regP8x86_regs7x86_regm: argument 0"}
!1907 = distinct !{!1907, !"_ZL13x86_write_regP8x86_regs7x86_regm"}
!1908 = !{i64 1440}
!1909 = !{!1910}
!1910 = distinct !{!1910, !1911, !"_ZL12x86_read_regPK8x86_regs7x86_reg: argument 0"}
!1911 = distinct !{!1911, !"_ZL12x86_read_regPK8x86_regs7x86_reg"}
!1912 = !{!1913, !1915}
!1913 = distinct !{!1913, !1914, !"_ZL12x86_read_regPK8x86_regs7x86_reg: argument 0"}
!1914 = distinct !{!1914, !"_ZL12x86_read_regPK8x86_regs7x86_reg"}
!1915 = distinct !{!1915, !1916, !"_ZL14x86_push_valuePK10x86_configP8x86_regsmm: argument 0"}
!1916 = distinct !{!1916, !"_ZL14x86_push_valuePK10x86_configP8x86_regsmm"}
!1917 = !{!1918, !1920, !1922}
!1918 = distinct !{!1918, !1919, !"_ZL13x86_write_regP8x86_regs7x86_regm: argument 0"}
!1919 = distinct !{!1919, !"_ZL13x86_write_regP8x86_regs7x86_regm"}
!1920 = distinct !{!1920, !1921, !"_ZL13x86_write_regP8x86_regsPK9cs_x86_opm: argument 0"}
!1921 = distinct !{!1921, !"_ZL13x86_write_regP8x86_regsPK9cs_x86_opm"}
!1922 = distinct !{!1922, !1923, !"_ZL29x86_write_destination_operandPK9cs_x86_opP8x86_regsm: argument 1"}
!1923 = distinct !{!1923, !"_ZL29x86_write_destination_operandPK9cs_x86_opP8x86_regsm"}
!1924 = !{!1925}
!1925 = distinct !{!1925, !1923, !"_ZL29x86_write_destination_operandPK9cs_x86_opP8x86_regsm: argument 0"}
!1926 = !{!1927, !1929, !1931}
!1927 = distinct !{!1927, !1928, !"_ZL12x86_read_regPK8x86_regs7x86_reg: argument 0"}
!1928 = distinct !{!1928, !"_ZL12x86_read_regPK8x86_regs7x86_reg"}
!1929 = distinct !{!1929, !1930, !"_ZL12x86_read_regPK8x86_regsPK9cs_x86_op: argument 0"}
!1930 = distinct !{!1930, !"_ZL12x86_read_regPK8x86_regsPK9cs_x86_op"}
!1931 = distinct !{!1931, !1932, !"_ZL23x86_read_source_operandPK9cs_x86_opPK8x86_regs: argument 1"}
!1932 = distinct !{!1932, !"_ZL23x86_read_source_operandPK9cs_x86_opPK8x86_regs"}
!1933 = !{!1934}
!1934 = distinct !{!1934, !1932, !"_ZL23x86_read_source_operandPK9cs_x86_opPK8x86_regs: argument 0"}
!1935 = !{!1936, !1938}
!1936 = distinct !{!1936, !1937, !"_ZL13x86_write_regP8x86_regs7x86_regm: argument 0"}
!1937 = distinct !{!1937, !"_ZL13x86_write_regP8x86_regs7x86_regm"}
!1938 = distinct !{!1938, !1939, !"_ZL14x86_push_valuePK10x86_configP8x86_regsmm: argument 0"}
!1939 = distinct !{!1939, !"_ZL14x86_push_valuePK10x86_configP8x86_regsmm"}
!1940 = !{!1941, !1943, !1945, !1947}
!1941 = distinct !{!1941, !1942, !"_ZL13x86_write_regP8x86_regs7x86_regm: argument 0"}
!1942 = distinct !{!1942, !"_ZL13x86_write_regP8x86_regs7x86_regm"}
!1943 = distinct !{!1943, !1944, !"_ZL13x86_write_regP8x86_regsPK9cs_x86_opm: argument 0"}
!1944 = distinct !{!1944, !"_ZL13x86_write_regP8x86_regsPK9cs_x86_opm"}
!1945 = distinct !{!1945, !1946, !"_ZL29x86_write_destination_operandPK9cs_x86_opP8x86_regsm: argument 1"}
!1946 = distinct !{!1946, !"_ZL29x86_write_destination_operandPK9cs_x86_opP8x86_regsm"}
!1947 = distinct !{!1947, !1948, !"_ZL20x86_move_zero_extendP8x86_regsPK6cs_x86: argument 0"}
!1948 = distinct !{!1948, !"_ZL20x86_move_zero_extendP8x86_regsPK6cs_x86"}
!1949 = !{!1950, !1951}
!1950 = distinct !{!1950, !1946, !"_ZL29x86_write_destination_operandPK9cs_x86_opP8x86_regsm: argument 0"}
!1951 = distinct !{!1951, !1948, !"_ZL20x86_move_zero_extendP8x86_regsPK6cs_x86: argument 1"}
!1952 = !{!1953, !1955, !1957}
!1953 = distinct !{!1953, !1954, !"_ZL13x86_write_regP8x86_regs7x86_regm: argument 0"}
!1954 = distinct !{!1954, !"_ZL13x86_write_regP8x86_regs7x86_regm"}
!1955 = distinct !{!1955, !1956, !"_ZL13x86_write_regP8x86_regsPK9cs_x86_opm: argument 0"}
!1956 = distinct !{!1956, !"_ZL13x86_write_regP8x86_regsPK9cs_x86_opm"}
!1957 = distinct !{!1957, !1958, !"_ZL29x86_write_destination_operandPK9cs_x86_opP8x86_regsm: argument 1"}
!1958 = distinct !{!1958, !"_ZL29x86_write_destination_operandPK9cs_x86_opP8x86_regsm"}
!1959 = !{!1960}
!1960 = distinct !{!1960, !1958, !"_ZL29x86_write_destination_operandPK9cs_x86_opP8x86_regsm: argument 0"}
!1961 = !{!1962, !1964, !1966}
!1962 = distinct !{!1962, !1963, !"_ZL13x86_write_regP8x86_regs7x86_regm: argument 0"}
!1963 = distinct !{!1963, !"_ZL13x86_write_regP8x86_regs7x86_regm"}
!1964 = distinct !{!1964, !1965, !"_ZL13x86_write_regP8x86_regsPK9cs_x86_opm: argument 0"}
!1965 = distinct !{!1965, !"_ZL13x86_write_regP8x86_regsPK9cs_x86_opm"}
!1966 = distinct !{!1966, !1967, !"_ZL29x86_write_destination_operandPK9cs_x86_opP8x86_regsm: argument 1"}
!1967 = distinct !{!1967, !"_ZL29x86_write_destination_operandPK9cs_x86_opP8x86_regsm"}
!1968 = !{!1969}
!1969 = distinct !{!1969, !1967, !"_ZL29x86_write_destination_operandPK9cs_x86_opP8x86_regsm: argument 0"}
!1970 = !{!1971, !1973, !1975}
!1971 = distinct !{!1971, !1972, !"_ZL13x86_write_regP8x86_regs7x86_regm: argument 0"}
!1972 = distinct !{!1972, !"_ZL13x86_write_regP8x86_regs7x86_regm"}
!1973 = distinct !{!1973, !1974, !"_ZL13x86_write_regP8x86_regsPK9cs_x86_opm: argument 0"}
!1974 = distinct !{!1974, !"_ZL13x86_write_regP8x86_regsPK9cs_x86_opm"}
!1975 = distinct !{!1975, !1976, !"_ZL29x86_write_destination_operandPK9cs_x86_opP8x86_regsm: argument 1"}
!1976 = distinct !{!1976, !"_ZL29x86_write_destination_operandPK9cs_x86_opP8x86_regsm"}
!1977 = !{!1978}
!1978 = distinct !{!1978, !1976, !"_ZL29x86_write_destination_operandPK9cs_x86_opP8x86_regsm: argument 0"}
!1979 = !{!1980, !1982}
!1980 = distinct !{!1980, !1981, !"_ZL13x86_write_regP8x86_regs7x86_regm: argument 0"}
!1981 = distinct !{!1981, !"_ZL13x86_write_regP8x86_regs7x86_regm"}
!1982 = distinct !{!1982, !1983, !"_ZL13x86_pop_valuePK10x86_configP8x86_regsm: argument 0"}
!1983 = distinct !{!1983, !"_ZL13x86_pop_valuePK10x86_configP8x86_regsm"}
!1984 = !{!1985}
!1985 = distinct !{!1985, !1986, !"_ZL13x86_write_regP8x86_regs7x86_regm: argument 0"}
!1986 = distinct !{!1986, !"_ZL13x86_write_regP8x86_regs7x86_regm"}
!1987 = !{i64 1520}
!1988 = !{!1989}
!1989 = distinct !{!1989, !1990, !"_ZL12x86_read_regPK8x86_regs7x86_reg: argument 0"}
!1990 = distinct !{!1990, !"_ZL12x86_read_regPK8x86_regs7x86_reg"}
!1991 = !{!1992, !1994}
!1992 = distinct !{!1992, !1993, !"_ZL12x86_read_regPK8x86_regs7x86_reg: argument 0"}
!1993 = distinct !{!1993, !"_ZL12x86_read_regPK8x86_regs7x86_reg"}
!1994 = distinct !{!1994, !1995, !"_ZL14x86_push_valuePK10x86_configP8x86_regsmm: argument 0"}
!1995 = distinct !{!1995, !"_ZL14x86_push_valuePK10x86_configP8x86_regsmm"}
!1996 = !{!1997, !1994}
!1997 = distinct !{!1997, !1998, !"_ZL13x86_write_regP8x86_regs7x86_regm: argument 0"}
!1998 = distinct !{!1998, !"_ZL13x86_write_regP8x86_regs7x86_regm"}
!1999 = !{!2000, !2002, !2004}
!2000 = distinct !{!2000, !2001, !"_ZL12x86_read_regPK8x86_regs7x86_reg: argument 0"}
!2001 = distinct !{!2001, !"_ZL12x86_read_regPK8x86_regs7x86_reg"}
!2002 = distinct !{!2002, !2003, !"_ZL12x86_read_regPK8x86_regsPK9cs_x86_op: argument 0"}
!2003 = distinct !{!2003, !"_ZL12x86_read_regPK8x86_regsPK9cs_x86_op"}
!2004 = distinct !{!2004, !2005, !"_ZL23x86_read_source_operandPK9cs_x86_opPK8x86_regs: argument 1"}
!2005 = distinct !{!2005, !"_ZL23x86_read_source_operandPK9cs_x86_opPK8x86_regs"}
!2006 = !{!2007}
!2007 = distinct !{!2007, !2005, !"_ZL23x86_read_source_operandPK9cs_x86_opPK8x86_regs: argument 0"}
!2008 = !{!2009, !2011}
!2009 = distinct !{!2009, !2010, !"_ZL13x86_write_regP8x86_regs7x86_regm: argument 0"}
!2010 = distinct !{!2010, !"_ZL13x86_write_regP8x86_regs7x86_regm"}
!2011 = distinct !{!2011, !2012, !"_ZL14x86_push_valuePK10x86_configP8x86_regsmm: argument 0"}
!2012 = distinct !{!2012, !"_ZL14x86_push_valuePK10x86_configP8x86_regsmm"}
!2013 = !{!2014, !2016, !2018, !2020}
!2014 = distinct !{!2014, !2015, !"_ZL13x86_write_regP8x86_regs7x86_regm: argument 0"}
!2015 = distinct !{!2015, !"_ZL13x86_write_regP8x86_regs7x86_regm"}
!2016 = distinct !{!2016, !2017, !"_ZL13x86_write_regP8x86_regsPK9cs_x86_opm: argument 0"}
!2017 = distinct !{!2017, !"_ZL13x86_write_regP8x86_regsPK9cs_x86_opm"}
!2018 = distinct !{!2018, !2019, !"_ZL29x86_write_destination_operandPK9cs_x86_opP8x86_regsm: argument 1"}
!2019 = distinct !{!2019, !"_ZL29x86_write_destination_operandPK9cs_x86_opP8x86_regsm"}
!2020 = distinct !{!2020, !2021, !"_ZL20x86_move_zero_extendP8x86_regsPK6cs_x86: argument 0"}
!2021 = distinct !{!2021, !"_ZL20x86_move_zero_extendP8x86_regsPK6cs_x86"}
!2022 = !{!2023, !2024}
!2023 = distinct !{!2023, !2019, !"_ZL29x86_write_destination_operandPK9cs_x86_opP8x86_regsm: argument 0"}
!2024 = distinct !{!2024, !2021, !"_ZL20x86_move_zero_extendP8x86_regsPK6cs_x86: argument 1"}
!2025 = !{!2026, !2028, !2030, !2032}
!2026 = distinct !{!2026, !2027, !"_ZL13x86_write_regP8x86_regs7x86_regm: argument 0"}
!2027 = distinct !{!2027, !"_ZL13x86_write_regP8x86_regs7x86_regm"}
!2028 = distinct !{!2028, !2029, !"_ZL13x86_write_regP8x86_regsPK9cs_x86_opm: argument 0"}
!2029 = distinct !{!2029, !"_ZL13x86_write_regP8x86_regsPK9cs_x86_opm"}
!2030 = distinct !{!2030, !2031, !"_ZL29x86_write_destination_operandPK9cs_x86_opP8x86_regsm: argument 1"}
!2031 = distinct !{!2031, !"_ZL29x86_write_destination_operandPK9cs_x86_opP8x86_regsm"}
!2032 = distinct !{!2032, !2033, !"_ZL20x86_move_zero_extendP8x86_regsPK6cs_x86: argument 0"}
!2033 = distinct !{!2033, !"_ZL20x86_move_zero_extendP8x86_regsPK6cs_x86"}
!2034 = !{!2035, !2036}
!2035 = distinct !{!2035, !2031, !"_ZL29x86_write_destination_operandPK9cs_x86_opP8x86_regsm: argument 0"}
!2036 = distinct !{!2036, !2033, !"_ZL20x86_move_zero_extendP8x86_regsPK6cs_x86: argument 1"}
!2037 = !{!2038, !2040}
!2038 = distinct !{!2038, !2039, !"_ZL12x86_read_regPK8x86_regs7x86_reg: argument 0"}
!2039 = distinct !{!2039, !"_ZL12x86_read_regPK8x86_regs7x86_reg"}
!2040 = distinct !{!2040, !2041, !"_ZL13x86_pop_valuePK10x86_configP8x86_regsm: argument 0"}
!2041 = distinct !{!2041, !"_ZL13x86_pop_valuePK10x86_configP8x86_regsm"}
!2042 = !{!2043, !2040}
!2043 = distinct !{!2043, !2044, !"_ZL13x86_write_regP8x86_regs7x86_regm: argument 0"}
!2044 = distinct !{!2044, !"_ZL13x86_write_regP8x86_regs7x86_regm"}
!2045 = !{!2046, !2048, !2050}
!2046 = distinct !{!2046, !2047, !"_ZL13x86_write_regP8x86_regs7x86_regm: argument 0"}
!2047 = distinct !{!2047, !"_ZL13x86_write_regP8x86_regs7x86_regm"}
!2048 = distinct !{!2048, !2049, !"_ZL13x86_write_regP8x86_regsPK9cs_x86_opm: argument 0"}
!2049 = distinct !{!2049, !"_ZL13x86_write_regP8x86_regsPK9cs_x86_opm"}
!2050 = distinct !{!2050, !2051, !"_ZL29x86_write_destination_operandPK9cs_x86_opP8x86_regsm: argument 1"}
!2051 = distinct !{!2051, !"_ZL29x86_write_destination_operandPK9cs_x86_opP8x86_regsm"}
!2052 = !{!2053}
!2053 = distinct !{!2053, !2051, !"_ZL29x86_write_destination_operandPK9cs_x86_opP8x86_regsm: argument 0"}
!2054 = !{!2055, !2057}
!2055 = distinct !{!2055, !2056, !"_ZL13x86_write_regP8x86_regs7x86_regm: argument 0"}
!2056 = distinct !{!2056, !"_ZL13x86_write_regP8x86_regs7x86_regm"}
!2057 = distinct !{!2057, !2058, !"_ZL13x86_pop_valuePK10x86_configP8x86_regsm: argument 0"}
!2058 = distinct !{!2058, !"_ZL13x86_pop_valuePK10x86_configP8x86_regsm"}
!2059 = !{!2060}
!2060 = distinct !{!2060, !2061, !"_ZL13x86_write_regP8x86_regs7x86_regm: argument 0"}
!2061 = distinct !{!2061, !"_ZL13x86_write_regP8x86_regs7x86_regm"}
!2062 = !{i64 1312}
!2063 = !{!2064}
!2064 = distinct !{!2064, !2065, !"_ZL12x86_read_regPK8x86_regs7x86_reg: argument 0"}
!2065 = distinct !{!2065, !"_ZL12x86_read_regPK8x86_regs7x86_reg"}
!2066 = !{!2067, !2069}
!2067 = distinct !{!2067, !2068, !"_ZL12x86_read_regPK8x86_regs7x86_reg: argument 0"}
!2068 = distinct !{!2068, !"_ZL12x86_read_regPK8x86_regs7x86_reg"}
!2069 = distinct !{!2069, !2070, !"_ZL14x86_push_valuePK10x86_configP8x86_regsmm: argument 0"}
!2070 = distinct !{!2070, !"_ZL14x86_push_valuePK10x86_configP8x86_regsmm"}
!2071 = !{!2072, !2069}
!2072 = distinct !{!2072, !2073, !"_ZL13x86_write_regP8x86_regs7x86_regm: argument 0"}
!2073 = distinct !{!2073, !"_ZL13x86_write_regP8x86_regs7x86_regm"}
!2074 = !{i64 1584}
!2075 = !{!2076}
!2076 = distinct !{!2076, !2077, !"_ZL12x86_read_regPK8x86_regs7x86_reg: argument 0"}
!2077 = distinct !{!2077, !"_ZL12x86_read_regPK8x86_regs7x86_reg"}
!2078 = !{!2079, !2081}
!2079 = distinct !{!2079, !2080, !"_ZL12x86_read_regPK8x86_regs7x86_reg: argument 0"}
!2080 = distinct !{!2080, !"_ZL12x86_read_regPK8x86_regs7x86_reg"}
!2081 = distinct !{!2081, !2082, !"_ZL14x86_push_valuePK10x86_configP8x86_regsmm: argument 0"}
!2082 = distinct !{!2082, !"_ZL14x86_push_valuePK10x86_configP8x86_regsmm"}
!2083 = !{!2084, !2081}
!2084 = distinct !{!2084, !2085, !"_ZL13x86_write_regP8x86_regs7x86_regm: argument 0"}
!2085 = distinct !{!2085, !"_ZL13x86_write_regP8x86_regs7x86_regm"}
!2086 = !{!2087, !2089, !2091}
!2087 = distinct !{!2087, !2088, !"_ZL13x86_write_regP8x86_regs7x86_regm: argument 0"}
!2088 = distinct !{!2088, !"_ZL13x86_write_regP8x86_regs7x86_regm"}
!2089 = distinct !{!2089, !2090, !"_ZL13x86_write_regP8x86_regsPK9cs_x86_opm: argument 0"}
!2090 = distinct !{!2090, !"_ZL13x86_write_regP8x86_regsPK9cs_x86_opm"}
!2091 = distinct !{!2091, !2092, !"_ZL29x86_write_destination_operandPK9cs_x86_opP8x86_regsm: argument 1"}
!2092 = distinct !{!2092, !"_ZL29x86_write_destination_operandPK9cs_x86_opP8x86_regsm"}
!2093 = !{!2094}
!2094 = distinct !{!2094, !2092, !"_ZL29x86_write_destination_operandPK9cs_x86_opP8x86_regsm: argument 0"}
!2095 = !{!2096, !2098, !2100, !2102}
!2096 = distinct !{!2096, !2097, !"_ZL13x86_write_regP8x86_regs7x86_regm: argument 0"}
!2097 = distinct !{!2097, !"_ZL13x86_write_regP8x86_regs7x86_regm"}
!2098 = distinct !{!2098, !2099, !"_ZL13x86_write_regP8x86_regsPK9cs_x86_opm: argument 0"}
!2099 = distinct !{!2099, !"_ZL13x86_write_regP8x86_regsPK9cs_x86_opm"}
!2100 = distinct !{!2100, !2101, !"_ZL29x86_write_destination_operandPK9cs_x86_opP8x86_regsm: argument 1"}
!2101 = distinct !{!2101, !"_ZL29x86_write_destination_operandPK9cs_x86_opP8x86_regsm"}
!2102 = distinct !{!2102, !2103, !"_ZL20x86_move_zero_extendP8x86_regsPK6cs_x86: argument 0"}
!2103 = distinct !{!2103, !"_ZL20x86_move_zero_extendP8x86_regsPK6cs_x86"}
!2104 = !{!2105, !2106}
!2105 = distinct !{!2105, !2101, !"_ZL29x86_write_destination_operandPK9cs_x86_opP8x86_regsm: argument 0"}
!2106 = distinct !{!2106, !2103, !"_ZL20x86_move_zero_extendP8x86_regsPK6cs_x86: argument 1"}
!2107 = !{!2108, !2110, !2112}
!2108 = distinct !{!2108, !2109, !"_ZL12x86_read_regPK8x86_regs7x86_reg: argument 0"}
!2109 = distinct !{!2109, !"_ZL12x86_read_regPK8x86_regs7x86_reg"}
!2110 = distinct !{!2110, !2111, !"_ZL12x86_read_regPK8x86_regsPK9cs_x86_op: argument 0"}
!2111 = distinct !{!2111, !"_ZL12x86_read_regPK8x86_regsPK9cs_x86_op"}
!2112 = distinct !{!2112, !2113, !"_ZL23x86_read_source_operandPK9cs_x86_opPK8x86_regs: argument 1"}
!2113 = distinct !{!2113, !"_ZL23x86_read_source_operandPK9cs_x86_opPK8x86_regs"}
!2114 = !{!2115}
!2115 = distinct !{!2115, !2113, !"_ZL23x86_read_source_operandPK9cs_x86_opPK8x86_regs: argument 0"}
!2116 = !{!2117, !2119, !2121}
!2117 = distinct !{!2117, !2118, !"_ZL13x86_write_regP8x86_regs7x86_regm: argument 0"}
!2118 = distinct !{!2118, !"_ZL13x86_write_regP8x86_regs7x86_regm"}
!2119 = distinct !{!2119, !2120, !"_ZL13x86_write_regP8x86_regsPK9cs_x86_opm: argument 0"}
!2120 = distinct !{!2120, !"_ZL13x86_write_regP8x86_regsPK9cs_x86_opm"}
!2121 = distinct !{!2121, !2122, !"_ZL29x86_write_destination_operandPK9cs_x86_opP8x86_regsm: argument 1"}
!2122 = distinct !{!2122, !"_ZL29x86_write_destination_operandPK9cs_x86_opP8x86_regsm"}
!2123 = !{!2124}
!2124 = distinct !{!2124, !2122, !"_ZL29x86_write_destination_operandPK9cs_x86_opP8x86_regsm: argument 0"}
!2125 = !{!2126, !2128}
!2126 = distinct !{!2126, !2127, !"_ZL13x86_write_regP8x86_regs7x86_regm: argument 0"}
!2127 = distinct !{!2127, !"_ZL13x86_write_regP8x86_regs7x86_regm"}
!2128 = distinct !{!2128, !2129, !"_ZL14x86_push_valuePK10x86_configP8x86_regsmm: argument 0"}
!2129 = distinct !{!2129, !"_ZL14x86_push_valuePK10x86_configP8x86_regsmm"}
!2130 = !{!2131, !2133, !2135, !2137}
!2131 = distinct !{!2131, !2132, !"_ZL13x86_write_regP8x86_regs7x86_regm: argument 0"}
!2132 = distinct !{!2132, !"_ZL13x86_write_regP8x86_regs7x86_regm"}
!2133 = distinct !{!2133, !2134, !"_ZL13x86_write_regP8x86_regsPK9cs_x86_opm: argument 0"}
!2134 = distinct !{!2134, !"_ZL13x86_write_regP8x86_regsPK9cs_x86_opm"}
!2135 = distinct !{!2135, !2136, !"_ZL29x86_write_destination_operandPK9cs_x86_opP8x86_regsm: argument 1"}
!2136 = distinct !{!2136, !"_ZL29x86_write_destination_operandPK9cs_x86_opP8x86_regsm"}
!2137 = distinct !{!2137, !2138, !"_ZL20x86_move_zero_extendP8x86_regsPK6cs_x86: argument 0"}
!2138 = distinct !{!2138, !"_ZL20x86_move_zero_extendP8x86_regsPK6cs_x86"}
!2139 = !{!2140, !2141}
!2140 = distinct !{!2140, !2136, !"_ZL29x86_write_destination_operandPK9cs_x86_opP8x86_regsm: argument 0"}
!2141 = distinct !{!2141, !2138, !"_ZL20x86_move_zero_extendP8x86_regsPK6cs_x86: argument 1"}
!2142 = !{!2143, !2145, !2147}
!2143 = distinct !{!2143, !2144, !"_ZL13x86_write_regP8x86_regs7x86_regm: argument 0"}
!2144 = distinct !{!2144, !"_ZL13x86_write_regP8x86_regs7x86_regm"}
!2145 = distinct !{!2145, !2146, !"_ZL13x86_write_regP8x86_regsPK9cs_x86_opm: argument 0"}
!2146 = distinct !{!2146, !"_ZL13x86_write_regP8x86_regsPK9cs_x86_opm"}
!2147 = distinct !{!2147, !2148, !"_ZL29x86_write_destination_operandPK9cs_x86_opP8x86_regsm: argument 1"}
!2148 = distinct !{!2148, !"_ZL29x86_write_destination_operandPK9cs_x86_opP8x86_regsm"}
!2149 = !{!2150}
!2150 = distinct !{!2150, !2148, !"_ZL29x86_write_destination_operandPK9cs_x86_opP8x86_regsm: argument 0"}
!2151 = !{!2152, !2154, !2156}
!2152 = distinct !{!2152, !2153, !"_ZL13x86_write_regP8x86_regs7x86_regm: argument 0"}
!2153 = distinct !{!2153, !"_ZL13x86_write_regP8x86_regs7x86_regm"}
!2154 = distinct !{!2154, !2155, !"_ZL13x86_write_regP8x86_regsPK9cs_x86_opm: argument 0"}
!2155 = distinct !{!2155, !"_ZL13x86_write_regP8x86_regsPK9cs_x86_opm"}
!2156 = distinct !{!2156, !2157, !"_ZL29x86_write_destination_operandPK9cs_x86_opP8x86_regsm: argument 1"}
!2157 = distinct !{!2157, !"_ZL29x86_write_destination_operandPK9cs_x86_opP8x86_regsm"}
!2158 = !{!2159}
!2159 = distinct !{!2159, !2157, !"_ZL29x86_write_destination_operandPK9cs_x86_opP8x86_regsm: argument 0"}
!2160 = !{!2161, !2163, !2165}
!2161 = distinct !{!2161, !2162, !"_ZL13x86_write_regP8x86_regs7x86_regm: argument 0"}
!2162 = distinct !{!2162, !"_ZL13x86_write_regP8x86_regs7x86_regm"}
!2163 = distinct !{!2163, !2164, !"_ZL13x86_write_regP8x86_regsPK9cs_x86_opm: argument 0"}
!2164 = distinct !{!2164, !"_ZL13x86_write_regP8x86_regsPK9cs_x86_opm"}
!2165 = distinct !{!2165, !2166, !"_ZL29x86_write_destination_operandPK9cs_x86_opP8x86_regsm: argument 1"}
!2166 = distinct !{!2166, !"_ZL29x86_write_destination_operandPK9cs_x86_opP8x86_regsm"}
!2167 = !{!2168}
!2168 = distinct !{!2168, !2166, !"_ZL29x86_write_destination_operandPK9cs_x86_opP8x86_regsm: argument 0"}
!2169 = !{!2170, !2172}
!2170 = distinct !{!2170, !2171, !"_ZL13x86_write_regP8x86_regs7x86_regm: argument 0"}
!2171 = distinct !{!2171, !"_ZL13x86_write_regP8x86_regs7x86_regm"}
!2172 = distinct !{!2172, !2173, !"_ZL13x86_pop_valuePK10x86_configP8x86_regsm: argument 0"}
!2173 = distinct !{!2173, !"_ZL13x86_pop_valuePK10x86_configP8x86_regsm"}
!2174 = !{!2175}
!2175 = distinct !{!2175, !2176, !"_ZL13x86_write_regP8x86_regs7x86_regm: argument 0"}
!2176 = distinct !{!2176, !"_ZL13x86_write_regP8x86_regs7x86_regm"}
!2177 = !{!2178, !2180, !2182}
!2178 = distinct !{!2178, !2179, !"_ZL12x86_read_regPK8x86_regs7x86_reg: argument 0"}
!2179 = distinct !{!2179, !"_ZL12x86_read_regPK8x86_regs7x86_reg"}
!2180 = distinct !{!2180, !2181, !"_ZL12x86_read_regPK8x86_regsPK9cs_x86_op: argument 0"}
!2181 = distinct !{!2181, !"_ZL12x86_read_regPK8x86_regsPK9cs_x86_op"}
!2182 = distinct !{!2182, !2183, !"_ZL23x86_read_source_operandPK9cs_x86_opPK8x86_regs: argument 1"}
!2183 = distinct !{!2183, !"_ZL23x86_read_source_operandPK9cs_x86_opPK8x86_regs"}
!2184 = !{!2185}
!2185 = distinct !{!2185, !2183, !"_ZL23x86_read_source_operandPK9cs_x86_opPK8x86_regs: argument 0"}
!2186 = !{!2187, !2189}
!2187 = distinct !{!2187, !2188, !"_ZL13x86_write_regP8x86_regs7x86_regm: argument 0"}
!2188 = distinct !{!2188, !"_ZL13x86_write_regP8x86_regs7x86_regm"}
!2189 = distinct !{!2189, !2190, !"_ZL14x86_push_valuePK10x86_configP8x86_regsmm: argument 0"}
!2190 = distinct !{!2190, !"_ZL14x86_push_valuePK10x86_configP8x86_regsmm"}
!2191 = !{!2192, !2194, !2196, !2198}
!2192 = distinct !{!2192, !2193, !"_ZL13x86_write_regP8x86_regs7x86_regm: argument 0"}
!2193 = distinct !{!2193, !"_ZL13x86_write_regP8x86_regs7x86_regm"}
!2194 = distinct !{!2194, !2195, !"_ZL13x86_write_regP8x86_regsPK9cs_x86_opm: argument 0"}
!2195 = distinct !{!2195, !"_ZL13x86_write_regP8x86_regsPK9cs_x86_opm"}
!2196 = distinct !{!2196, !2197, !"_ZL29x86_write_destination_operandPK9cs_x86_opP8x86_regsm: argument 1"}
!2197 = distinct !{!2197, !"_ZL29x86_write_destination_operandPK9cs_x86_opP8x86_regsm"}
!2198 = distinct !{!2198, !2199, !"_ZL20x86_move_zero_extendP8x86_regsPK6cs_x86: argument 0"}
!2199 = distinct !{!2199, !"_ZL20x86_move_zero_extendP8x86_regsPK6cs_x86"}
!2200 = !{!2201, !2202}
!2201 = distinct !{!2201, !2197, !"_ZL29x86_write_destination_operandPK9cs_x86_opP8x86_regsm: argument 0"}
!2202 = distinct !{!2202, !2199, !"_ZL20x86_move_zero_extendP8x86_regsPK6cs_x86: argument 1"}
!2203 = !{!2204, !2206}
!2204 = distinct !{!2204, !2205, !"_ZL12x86_read_regPK8x86_regs7x86_reg: argument 0"}
!2205 = distinct !{!2205, !"_ZL12x86_read_regPK8x86_regs7x86_reg"}
!2206 = distinct !{!2206, !2207, !"_ZL13x86_pop_valuePK10x86_configP8x86_regsm: argument 0"}
!2207 = distinct !{!2207, !"_ZL13x86_pop_valuePK10x86_configP8x86_regsm"}
!2208 = !{!2209, !2206}
!2209 = distinct !{!2209, !2210, !"_ZL13x86_write_regP8x86_regs7x86_regm: argument 0"}
!2210 = distinct !{!2210, !"_ZL13x86_write_regP8x86_regs7x86_regm"}
!2211 = !{!2212, !2214, !2216}
!2212 = distinct !{!2212, !2213, !"_ZL13x86_write_regP8x86_regs7x86_regm: argument 0"}
!2213 = distinct !{!2213, !"_ZL13x86_write_regP8x86_regs7x86_regm"}
!2214 = distinct !{!2214, !2215, !"_ZL13x86_write_regP8x86_regsPK9cs_x86_opm: argument 0"}
!2215 = distinct !{!2215, !"_ZL13x86_write_regP8x86_regsPK9cs_x86_opm"}
!2216 = distinct !{!2216, !2217, !"_ZL29x86_write_destination_operandPK9cs_x86_opP8x86_regsm: argument 1"}
!2217 = distinct !{!2217, !"_ZL29x86_write_destination_operandPK9cs_x86_opP8x86_regsm"}
!2218 = !{!2219}
!2219 = distinct !{!2219, !2217, !"_ZL29x86_write_destination_operandPK9cs_x86_opP8x86_regsm: argument 0"}
!2220 = !{i64 1632}
!2221 = !{!2222}
!2222 = distinct !{!2222, !2223, !"_ZL12x86_read_regPK8x86_regs7x86_reg: argument 0"}
!2223 = distinct !{!2223, !"_ZL12x86_read_regPK8x86_regs7x86_reg"}
!2224 = !{!2225, !2227}
!2225 = distinct !{!2225, !2226, !"_ZL12x86_read_regPK8x86_regs7x86_reg: argument 0"}
!2226 = distinct !{!2226, !"_ZL12x86_read_regPK8x86_regs7x86_reg"}
!2227 = distinct !{!2227, !2228, !"_ZL14x86_push_valuePK10x86_configP8x86_regsmm: argument 0"}
!2228 = distinct !{!2228, !"_ZL14x86_push_valuePK10x86_configP8x86_regsmm"}
!2229 = !{!2230, !2232, !2234}
!2230 = distinct !{!2230, !2231, !"_ZL12x86_read_regPK8x86_regs7x86_reg: argument 0"}
!2231 = distinct !{!2231, !"_ZL12x86_read_regPK8x86_regs7x86_reg"}
!2232 = distinct !{!2232, !2233, !"_ZL12x86_read_regPK8x86_regsPK9cs_x86_op: argument 0"}
!2233 = distinct !{!2233, !"_ZL12x86_read_regPK8x86_regsPK9cs_x86_op"}
!2234 = distinct !{!2234, !2235, !"_ZL23x86_read_source_operandPK9cs_x86_opPK8x86_regs: argument 1"}
!2235 = distinct !{!2235, !"_ZL23x86_read_source_operandPK9cs_x86_opPK8x86_regs"}
!2236 = !{!2237}
!2237 = distinct !{!2237, !2235, !"_ZL23x86_read_source_operandPK9cs_x86_opPK8x86_regs: argument 0"}
!2238 = !{!2239, !2241}
!2239 = distinct !{!2239, !2240, !"_ZL13x86_write_regP8x86_regs7x86_regm: argument 0"}
!2240 = distinct !{!2240, !"_ZL13x86_write_regP8x86_regs7x86_regm"}
!2241 = distinct !{!2241, !2242, !"_ZL14x86_push_valuePK10x86_configP8x86_regsmm: argument 0"}
!2242 = distinct !{!2242, !"_ZL14x86_push_valuePK10x86_configP8x86_regsmm"}
!2243 = !{!2244, !2246, !2248, !2250}
!2244 = distinct !{!2244, !2245, !"_ZL13x86_write_regP8x86_regs7x86_regm: argument 0"}
!2245 = distinct !{!2245, !"_ZL13x86_write_regP8x86_regs7x86_regm"}
!2246 = distinct !{!2246, !2247, !"_ZL13x86_write_regP8x86_regsPK9cs_x86_opm: argument 0"}
!2247 = distinct !{!2247, !"_ZL13x86_write_regP8x86_regsPK9cs_x86_opm"}
!2248 = distinct !{!2248, !2249, !"_ZL29x86_write_destination_operandPK9cs_x86_opP8x86_regsm: argument 1"}
!2249 = distinct !{!2249, !"_ZL29x86_write_destination_operandPK9cs_x86_opP8x86_regsm"}
!2250 = distinct !{!2250, !2251, !"_ZL20x86_move_zero_extendP8x86_regsPK6cs_x86: argument 0"}
!2251 = distinct !{!2251, !"_ZL20x86_move_zero_extendP8x86_regsPK6cs_x86"}
!2252 = !{!2253, !2254}
!2253 = distinct !{!2253, !2249, !"_ZL29x86_write_destination_operandPK9cs_x86_opP8x86_regsm: argument 0"}
!2254 = distinct !{!2254, !2251, !"_ZL20x86_move_zero_extendP8x86_regsPK6cs_x86: argument 1"}
!2255 = !{!2256, !2258, !2260, !2262}
!2256 = distinct !{!2256, !2257, !"_ZL12x86_read_regPK8x86_regs7x86_reg: argument 0"}
!2257 = distinct !{!2257, !"_ZL12x86_read_regPK8x86_regs7x86_reg"}
!2258 = distinct !{!2258, !2259, !"_ZL12x86_read_regPK8x86_regsPK9cs_x86_op: argument 0"}
!2259 = distinct !{!2259, !"_ZL12x86_read_regPK8x86_regsPK9cs_x86_op"}
!2260 = distinct !{!2260, !2261, !"_ZL23x86_read_source_operandPK9cs_x86_opPK8x86_regs: argument 1"}
!2261 = distinct !{!2261, !"_ZL23x86_read_source_operandPK9cs_x86_opPK8x86_regs"}
!2262 = distinct !{!2262, !2263, !"_ZL20x86_move_zero_extendP8x86_regsPK6cs_x86: argument 0"}
!2263 = distinct !{!2263, !"_ZL20x86_move_zero_extendP8x86_regsPK6cs_x86"}
!2264 = !{!2265, !2266}
!2265 = distinct !{!2265, !2261, !"_ZL23x86_read_source_operandPK9cs_x86_opPK8x86_regs: argument 0"}
!2266 = distinct !{!2266, !2263, !"_ZL20x86_move_zero_extendP8x86_regsPK6cs_x86: argument 1"}
!2267 = !{!2268, !2270, !2272, !2274}
!2268 = distinct !{!2268, !2269, !"_ZL13x86_write_regP8x86_regs7x86_regm: argument 0"}
!2269 = distinct !{!2269, !"_ZL13x86_write_regP8x86_regs7x86_regm"}
!2270 = distinct !{!2270, !2271, !"_ZL13x86_write_regP8x86_regsPK9cs_x86_opm: argument 0"}
!2271 = distinct !{!2271, !"_ZL13x86_write_regP8x86_regsPK9cs_x86_opm"}
!2272 = distinct !{!2272, !2273, !"_ZL29x86_write_destination_operandPK9cs_x86_opP8x86_regsm: argument 1"}
!2273 = distinct !{!2273, !"_ZL29x86_write_destination_operandPK9cs_x86_opP8x86_regsm"}
!2274 = distinct !{!2274, !2275, !"_ZL20x86_move_zero_extendP8x86_regsPK6cs_x86: argument 0"}
!2275 = distinct !{!2275, !"_ZL20x86_move_zero_extendP8x86_regsPK6cs_x86"}
!2276 = !{!2277, !2278}
!2277 = distinct !{!2277, !2273, !"_ZL29x86_write_destination_operandPK9cs_x86_opP8x86_regsm: argument 0"}
!2278 = distinct !{!2278, !2275, !"_ZL20x86_move_zero_extendP8x86_regsPK6cs_x86: argument 1"}
!2279 = !{!2280, !2282, !2284, !2286}
!2280 = distinct !{!2280, !2281, !"_ZL13x86_write_regP8x86_regs7x86_regm: argument 0"}
!2281 = distinct !{!2281, !"_ZL13x86_write_regP8x86_regs7x86_regm"}
!2282 = distinct !{!2282, !2283, !"_ZL13x86_write_regP8x86_regsPK9cs_x86_opm: argument 0"}
!2283 = distinct !{!2283, !"_ZL13x86_write_regP8x86_regsPK9cs_x86_opm"}
!2284 = distinct !{!2284, !2285, !"_ZL29x86_write_destination_operandPK9cs_x86_opP8x86_regsm: argument 1"}
!2285 = distinct !{!2285, !"_ZL29x86_write_destination_operandPK9cs_x86_opP8x86_regsm"}
!2286 = distinct !{!2286, !2287, !"_ZL20x86_move_zero_extendP8x86_regsPK6cs_x86: argument 0"}
!2287 = distinct !{!2287, !"_ZL20x86_move_zero_extendP8x86_regsPK6cs_x86"}
!2288 = !{!2289, !2290}
!2289 = distinct !{!2289, !2285, !"_ZL29x86_write_destination_operandPK9cs_x86_opP8x86_regsm: argument 0"}
!2290 = distinct !{!2290, !2287, !"_ZL20x86_move_zero_extendP8x86_regsPK6cs_x86: argument 1"}
!2291 = !{!2292, !2294, !2296, !2298}
!2292 = distinct !{!2292, !2293, !"_ZL13x86_write_regP8x86_regs7x86_regm: argument 0"}
!2293 = distinct !{!2293, !"_ZL13x86_write_regP8x86_regs7x86_regm"}
!2294 = distinct !{!2294, !2295, !"_ZL13x86_write_regP8x86_regsPK9cs_x86_opm: argument 0"}
!2295 = distinct !{!2295, !"_ZL13x86_write_regP8x86_regsPK9cs_x86_opm"}
!2296 = distinct !{!2296, !2297, !"_ZL29x86_write_destination_operandPK9cs_x86_opP8x86_regsm: argument 1"}
!2297 = distinct !{!2297, !"_ZL29x86_write_destination_operandPK9cs_x86_opP8x86_regsm"}
!2298 = distinct !{!2298, !2299, !"_ZL20x86_move_zero_extendP8x86_regsPK6cs_x86: argument 0"}
!2299 = distinct !{!2299, !"_ZL20x86_move_zero_extendP8x86_regsPK6cs_x86"}
!2300 = !{!2301, !2302}
!2301 = distinct !{!2301, !2297, !"_ZL29x86_write_destination_operandPK9cs_x86_opP8x86_regsm: argument 0"}
!2302 = distinct !{!2302, !2299, !"_ZL20x86_move_zero_extendP8x86_regsPK6cs_x86: argument 1"}
!2303 = !{!2304, !2306, !2308}
!2304 = distinct !{!2304, !2305, !"_ZL13x86_write_regP8x86_regs7x86_regm: argument 0"}
!2305 = distinct !{!2305, !"_ZL13x86_write_regP8x86_regs7x86_regm"}
!2306 = distinct !{!2306, !2307, !"_ZL13x86_write_regP8x86_regsPK9cs_x86_opm: argument 0"}
!2307 = distinct !{!2307, !"_ZL13x86_write_regP8x86_regsPK9cs_x86_opm"}
!2308 = distinct !{!2308, !2309, !"_ZL29x86_write_destination_operandPK9cs_x86_opP8x86_regsm: argument 1"}
!2309 = distinct !{!2309, !"_ZL29x86_write_destination_operandPK9cs_x86_opP8x86_regsm"}
!2310 = !{!2311}
!2311 = distinct !{!2311, !2309, !"_ZL29x86_write_destination_operandPK9cs_x86_opP8x86_regsm: argument 0"}
!2312 = !{!2313, !2315}
!2313 = distinct !{!2313, !2314, !"_ZL13x86_write_regP8x86_regs7x86_regm: argument 0"}
!2314 = distinct !{!2314, !"_ZL13x86_write_regP8x86_regs7x86_regm"}
!2315 = distinct !{!2315, !2316, !"_ZL13x86_pop_valuePK10x86_configP8x86_regsm: argument 0"}
!2316 = distinct !{!2316, !"_ZL13x86_pop_valuePK10x86_configP8x86_regsm"}
!2317 = !{!2318}
!2318 = distinct !{!2318, !2319, !"_ZL13x86_write_regP8x86_regs7x86_regm: argument 0"}
!2319 = distinct !{!2319, !"_ZL13x86_write_regP8x86_regs7x86_regm"}
!2320 = !{i64 1678}
!2321 = !{!2322}
!2322 = distinct !{!2322, !2323, !"_ZL12x86_read_regPK8x86_regs7x86_reg: argument 0"}
!2323 = distinct !{!2323, !"_ZL12x86_read_regPK8x86_regs7x86_reg"}
!2324 = !{!2325, !2327}
!2325 = distinct !{!2325, !2326, !"_ZL12x86_read_regPK8x86_regs7x86_reg: argument 0"}
!2326 = distinct !{!2326, !"_ZL12x86_read_regPK8x86_regs7x86_reg"}
