; ModuleID = 'mcsema/test.proposed.ll'
source_filename = "llvm-link"
target datalayout = "e-m:e-i64:64-f80:128-n8:16:32:64-S128"
target triple = "x86_64-pc-linux-gnu-elf"

%union.anon = type { i64 }
%seg_400388__init_type = type <{ [23 x i8] }>
%seg_4003a0__text_type = type <{ [354 x i8] }>
%seg_400504__fini_type = type <{ [9 x i8] }>
%seg_400510__rodata_type = type <{ [4 x i8] }>
%seg_400514__eh_frame_hdr_type = type <{ [52 x i8] }>
%seg_400548__eh_frame_type = type <{ [208 x i8] }>
%seg_601018__data_type = type <{ [16 x i8] }>
%__bss_start_type = type <{ [8 x i8] }>
%struct.State = type { %struct.ArchState, [32 x %union.VectorReg], %struct.ArithFlags, %union.anon, %struct.Segments, %struct.AddressSpace, %struct.GPR, %struct.X87Stack, %struct.MMX, %struct.FPUStatusFlags, %union.anon, %union.FPU, %struct.SegmentCaches }
%struct.ArchState = type { i32, i32, %union.anon }
%union.VectorReg = type { %union.vec512_t }
%union.vec512_t = type { %struct.uint64v8_t }
%struct.uint64v8_t = type { [8 x i64] }
%struct.ArithFlags = type { i8, i8, i8, i8, i8, i8, i8, i8, i8, i8, i8, i8, i8, i8, i8, i8 }
%struct.Segments = type { i16, %union.SegmentSelector, i16, %union.SegmentSelector, i16, %union.SegmentSelector, i16, %union.SegmentSelector, i16, %union.SegmentSelector, i16, %union.SegmentSelector }
%union.SegmentSelector = type { i16 }
%struct.AddressSpace = type { i64, %struct.Reg, i64, %struct.Reg, i64, %struct.Reg, i64, %struct.Reg, i64, %struct.Reg, i64, %struct.Reg }
%struct.Reg = type { %union.anon }
%struct.GPR = type { i64, %struct.Reg, i64, %struct.Reg, i64, %struct.Reg, i64, %struct.Reg, i64, %struct.Reg, i64, %struct.Reg, i64, %struct.Reg, i64, %struct.Reg, i64, %struct.Reg, i64, %struct.Reg, i64, %struct.Reg, i64, %struct.Reg, i64, %struct.Reg, i64, %struct.Reg, i64, %struct.Reg, i64, %struct.Reg, i64, %struct.Reg }
%struct.X87Stack = type { [8 x %struct.anon.3] }
%struct.anon.3 = type { i64, double }
%struct.MMX = type { [8 x %struct.anon.4] }
%struct.anon.4 = type { i64, %union.vec64_t }
%union.vec64_t = type { %struct.uint64v1_t }
%struct.uint64v1_t = type { [1 x i64] }
%struct.FPUStatusFlags = type { i8, i8, i8, i8, i8, i8, i8, i8, i8, i8, i8, i8, i8, i8, i8, i8, i8, i8, i8, i8, [4 x i8] }
%union.FPU = type { %struct.anon.13 }
%struct.anon.13 = type { %struct.FpuFXSAVE, [96 x i8] }
%struct.FpuFXSAVE = type { %union.SegmentSelector, %union.SegmentSelector, %union.FPUAbridgedTagWord, i8, i16, i32, %union.SegmentSelector, i16, i32, %union.SegmentSelector, i16, %union.FPUControlStatus, %union.FPUControlStatus, [8 x %struct.FPUStackElem], [16 x %union.vec128_t] }
%union.FPUAbridgedTagWord = type { i8 }
%union.FPUControlStatus = type { i32 }
%struct.FPUStackElem = type { %union.anon.11, [6 x i8] }
%union.anon.11 = type { %struct.float80_t }
%struct.float80_t = type { [10 x i8] }
%union.vec128_t = type { %struct.uint128v1_t }
%struct.uint128v1_t = type { [1 x i128] }
%struct.SegmentCaches = type { %struct.SegmentShadow, %struct.SegmentShadow, %struct.SegmentShadow, %struct.SegmentShadow, %struct.SegmentShadow, %struct.SegmentShadow }
%struct.SegmentShadow = type { %union.anon, i32, i32 }
%struct.Memory = type opaque

@switch.table = private unnamed_addr constant [4 x i32] [i32 2048, i32 3072, i32 0, i32 1024]
@DR0 = external global i64, align 8
@DR1 = external global i64, align 8
@DR2 = external global i64, align 8
@DR3 = external global i64, align 8
@DR4 = external global i64, align 8
@DR5 = external global i64, align 8
@DR6 = external global i64, align 8
@DR7 = external global i64, align 8
@gCR0 = external global %union.anon, align 1
@gCR1 = external global %union.anon, align 1
@gCR2 = external global %union.anon, align 1
@gCR3 = external global %union.anon, align 1
@gCR4 = external global %union.anon, align 1
@gCR8 = external global %union.anon, align 1
@seg_400388__init = internal constant %seg_400388__init_type <{ [23 x i8] c"H\83\EC\08H\8B\05e\0C \00H\85\C0t\02\FF\D0H\83\C4\08\C3" }>
@seg_4003a0__text = internal constant %seg_4003a0__text_type <{ [354 x i8] c"1\EDI\89\D1^H\89\E2H\83\E4\F0PTI\C7\C0\00\05@\00H\C7\C1\90\04@\00H\C7\C7\88\04@\00\FF\15&\0C \00\F4\0F\1FD\00\00\F3\C3f.\0F\1F\84\00\00\00\00\00\0F\1F@\00U\B8(\10`\00H=(\10`\00H\89\E5t\17\B8\00\00\00\00H\85\C0t\0D]\BF(\10`\00\FF\E0\0F\1FD\00\00]\C3f\0F\1FD\00\00\BE(\10`\00UH\81\EE(\10`\00H\89\E5H\C1\FE\03H\89\F0H\C1\E8?H\01\C6H\D1\FEt\15\B8\00\00\00\00H\85\C0t\0B]\BF(\10`\00\FF\E0\0F\1F\00]\C3f\0F\1FD\00\00\80=\D1\0B \00\00u\17UH\89\E5\E8~\FF\FF\FF\C6\05\BF\0B \00\01]\C3\0F\1FD\00\00\F3\C3\0F\1F@\00f.\0F\1F\84\00\00\00\00\00UH\89\E5]\EB\89\90U\C3f\0F\1FD\00\00AWAVI\89\D7AUATL\8D%\9E\09 \00UH\8D-\9E\09 \00SA\89\FDI\89\F6L)\E5H\83\EC\08H\C1\FD\03\E8\C7\FE\FF\FFH\85\EDt 1\DB\0F\1F\84\00\00\00\00\00L\89\FAL\89\F6D\89\EFA\FF\14\DCH\83\C3\01H9\DDu\EAH\83\C4\08[]A\5CA]A^A_\C3\90f.\0F\1F\84\00\00\00\00\00\F3\C3" }>
@seg_400504__fini = internal constant %seg_400504__fini_type <{ [9 x i8] c"H\83\EC\08H\83\C4\08\C3" }>
@seg_400510__rodata = internal constant %seg_400510__rodata_type <{ [4 x i8] c"\01\00\02\00" }>
@seg_400514__eh_frame_hdr = internal constant %seg_400514__eh_frame_hdr_type <{ [52 x i8] c"\01\1B\03;0\00\00\00\05\00\00\00\8C\FE\FF\FFL\00\00\00\BC\FE\FF\FFx\00\00\00t\FF\FF\FF\8C\00\00\00|\FF\FF\FF\A4\00\00\00\EC\FF\FF\FF\EC\00\00\00" }>
@seg_400548__eh_frame = internal constant %seg_400548__eh_frame_type <{ [208 x i8] c"\14\00\00\00\00\00\00\00\01zR\00\01x\10\01\1B\0C\07\08\90\01\07\10\10\00\00\00\1C\00\00\008\FE\FF\FF+\00\00\00\00\00\00\00\14\00\00\00\00\00\00\00\01zR\00\01x\10\01\1B\0C\07\08\90\01\00\00\10\00\00\00\1C\00\00\00<\FE\FF\FF\02\00\00\00\00\00\00\00\14\00\00\000\00\00\00\E0\FE\FF\FF\02\00\00\00\00\00\00\00\00\00\00\00D\00\00\00H\00\00\00\D0\FE\FF\FFe\00\00\00\00B\0E\10\8F\02B\0E\18\8E\03E\0E \8D\04B\0E(\8C\05H\0E0\86\06H\0E8\83\07M\0E@r\0E8A\0E0A\0E(B\0E B\0E\18B\0E\10B\0E\08\00\10\00\00\00\90\00\00\00\F8\FE\FF\FF\02\00\00\00\00\00\00\00\00\00\00\00" }>
@seg_601018__data = internal global %seg_601018__data_type zeroinitializer
@__bss_start = global %__bss_start_type zeroinitializer
@0 = internal global i1 false

; Function Attrs: nounwind readnone
declare i32 @llvm.ctpop.i32(i32) #0

declare %struct.Memory* @__remill_error(%struct.State* dereferenceable(3376), i64, %struct.Memory*)

declare %struct.Memory* @sub_400e80._Z11start_timerv(%struct.State* dereferenceable(3376), i64, %struct.Memory*)

declare %struct.Memory* @sub_414060._ZN18custom_constant_orItE8do_shiftEt(%struct.State* dereferenceable(3376), i64, %struct.Memory*)

declare %struct.Memory* @sub_414080._Z17check_shifted_sumIt18custom_constant_orItEEvT_(%struct.State* dereferenceable(3376), i64, %struct.Memory*)

declare %struct.Memory* @sub_400ea0._Z5timerv(%struct.State* dereferenceable(3376), i64, %struct.Memory*)

declare %struct.Memory* @sub_400840._Z13record_resultdPKc(%struct.State* dereferenceable(3376), i64, %struct.Memory*)

; Function Attrs: alwaysinline
define %struct.Memory* @_Z13test_constantIt18custom_constant_orItEEvPT_iPKc(%struct.State* noalias, i64, %struct.Memory* noalias) #1 {
entry:
  %3 = getelementptr inbounds %struct.State, %struct.State* %0, i64 0, i32 6, i32 33, i32 0, i32 0
  store i64 %1, i64* %3, align 8
  %BRANCH_TAKEN = alloca i8, align 1
  store i8 0, i8* %BRANCH_TAKEN, align 1
  %MEMORY = alloca %struct.Memory*, align 8
  store %struct.Memory* %2, %struct.Memory** %MEMORY, align 8
  %loadMem_407da0 = load %struct.Memory*, %struct.Memory** %MEMORY
  %4 = getelementptr inbounds %struct.State, %struct.State* %0, i32 0, i32 6
  %5 = getelementptr inbounds %struct.GPR, %struct.GPR* %4, i32 0, i32 33
  %6 = getelementptr inbounds %struct.Reg, %struct.Reg* %5, i32 0, i32 0
  %PC.i = bitcast %union.anon* %6 to i64*
  %7 = getelementptr inbounds %struct.State, %struct.State* %0, i32 0, i32 6
  %8 = getelementptr inbounds %struct.GPR, %struct.GPR* %7, i32 0, i32 15
  %9 = getelementptr inbounds %struct.Reg, %struct.Reg* %8, i32 0, i32 0
  %RBP.i = bitcast %union.anon* %9 to i64*
  %10 = load i64, i64* %RBP.i
  %11 = load i64, i64* %PC.i
  %12 = add i64 %11, 1
  store i64 %12, i64* %PC.i
  %13 = getelementptr inbounds %struct.State, %struct.State* %0, i64 0, i32 6, i32 13, i32 0, i32 0
  %14 = load i64, i64* %13, align 8
  %15 = add i64 %14, -8
  %16 = inttoptr i64 %15 to i64*
  store i64 %10, i64* %16
  store i64 %15, i64* %13, align 8
  store %struct.Memory* %loadMem_407da0, %struct.Memory** %MEMORY
  %loadMem_407da1 = load %struct.Memory*, %struct.Memory** %MEMORY
  %17 = getelementptr inbounds %struct.State, %struct.State* %0, i32 0, i32 6
  %18 = getelementptr inbounds %struct.GPR, %struct.GPR* %17, i32 0, i32 33
  %19 = getelementptr inbounds %struct.Reg, %struct.Reg* %18, i32 0, i32 0
  %PC.i80 = bitcast %union.anon* %19 to i64*
  %20 = getelementptr inbounds %struct.State, %struct.State* %0, i32 0, i32 6
  %21 = getelementptr inbounds %struct.GPR, %struct.GPR* %20, i32 0, i32 13
  %22 = getelementptr inbounds %struct.Reg, %struct.Reg* %21, i32 0, i32 0
  %RSP.i81 = bitcast %union.anon* %22 to i64*
  %23 = getelementptr inbounds %struct.State, %struct.State* %0, i32 0, i32 6
  %24 = getelementptr inbounds %struct.GPR, %struct.GPR* %23, i32 0, i32 15
  %25 = getelementptr inbounds %struct.Reg, %struct.Reg* %24, i32 0, i32 0
  %RBP.i82 = bitcast %union.anon* %25 to i64*
  %26 = load i64, i64* %RSP.i81
  %27 = load i64, i64* %PC.i80
  %28 = add i64 %27, 3
  store i64 %28, i64* %PC.i80
  store i64 %26, i64* %RBP.i82, align 8
  store %struct.Memory* %loadMem_407da1, %struct.Memory** %MEMORY
  %loadMem_407da4 = load %struct.Memory*, %struct.Memory** %MEMORY
  %29 = getelementptr inbounds %struct.State, %struct.State* %0, i32 0, i32 6
  %30 = getelementptr inbounds %struct.GPR, %struct.GPR* %29, i32 0, i32 33
  %31 = getelementptr inbounds %struct.Reg, %struct.Reg* %30, i32 0, i32 0
  %PC.i78 = bitcast %union.anon* %31 to i64*
  %32 = getelementptr inbounds %struct.State, %struct.State* %0, i32 0, i32 6
  %33 = getelementptr inbounds %struct.GPR, %struct.GPR* %32, i32 0, i32 13
  %34 = getelementptr inbounds %struct.Reg, %struct.Reg* %33, i32 0, i32 0
  %RSP.i79 = bitcast %union.anon* %34 to i64*
  %35 = load i64, i64* %RSP.i79
  %36 = load i64, i64* %PC.i78
  %37 = add i64 %36, 4
  store i64 %37, i64* %PC.i78
  %38 = sub i64 %35, 48
  store i64 %38, i64* %RSP.i79, align 8
  %39 = icmp ult i64 %35, 48
  %40 = zext i1 %39 to i8
  %41 = getelementptr inbounds %struct.State, %struct.State* %0, i64 0, i32 2, i32 1
  store i8 %40, i8* %41, align 1
  %42 = trunc i64 %38 to i32
  %43 = and i32 %42, 255
  %44 = call i32 @llvm.ctpop.i32(i32 %43)
  %45 = trunc i32 %44 to i8
  %46 = and i8 %45, 1
  %47 = xor i8 %46, 1
  %48 = getelementptr inbounds %struct.State, %struct.State* %0, i64 0, i32 2, i32 3
  store i8 %47, i8* %48, align 1
  %49 = xor i64 48, %35
  %50 = xor i64 %49, %38
  %51 = lshr i64 %50, 4
  %52 = trunc i64 %51 to i8
  %53 = and i8 %52, 1
  %54 = getelementptr inbounds %struct.State, %struct.State* %0, i64 0, i32 2, i32 5
  store i8 %53, i8* %54, align 1
  %55 = icmp eq i64 %38, 0
  %56 = zext i1 %55 to i8
  %57 = getelementptr inbounds %struct.State, %struct.State* %0, i64 0, i32 2, i32 7
  store i8 %56, i8* %57, align 1
  %58 = lshr i64 %38, 63
  %59 = trunc i64 %58 to i8
  %60 = getelementptr inbounds %struct.State, %struct.State* %0, i64 0, i32 2, i32 9
  store i8 %59, i8* %60, align 1
  %61 = lshr i64 %35, 63
  %62 = xor i64 %58, %61
  %63 = add i64 %62, %61
  %64 = icmp eq i64 %63, 2
  %65 = zext i1 %64 to i8
  %66 = getelementptr inbounds %struct.State, %struct.State* %0, i64 0, i32 2, i32 13
  store i8 %65, i8* %66, align 1
  store %struct.Memory* %loadMem_407da4, %struct.Memory** %MEMORY
  %loadMem_407da8 = load %struct.Memory*, %struct.Memory** %MEMORY
  %67 = getelementptr inbounds %struct.State, %struct.State* %0, i32 0, i32 6
  %68 = getelementptr inbounds %struct.GPR, %struct.GPR* %67, i32 0, i32 33
  %69 = getelementptr inbounds %struct.Reg, %struct.Reg* %68, i32 0, i32 0
  %PC.i75 = bitcast %union.anon* %69 to i64*
  %70 = getelementptr inbounds %struct.State, %struct.State* %0, i32 0, i32 6
  %71 = getelementptr inbounds %struct.GPR, %struct.GPR* %70, i32 0, i32 11
  %72 = getelementptr inbounds %struct.Reg, %struct.Reg* %71, i32 0, i32 0
  %RDI.i76 = bitcast %union.anon* %72 to i64*
  %73 = getelementptr inbounds %struct.State, %struct.State* %0, i32 0, i32 6
  %74 = getelementptr inbounds %struct.GPR, %struct.GPR* %73, i32 0, i32 15
  %75 = getelementptr inbounds %struct.Reg, %struct.Reg* %74, i32 0, i32 0
  %RBP.i77 = bitcast %union.anon* %75 to i64*
  %76 = load i64, i64* %RBP.i77
  %77 = sub i64 %76, 8
  %78 = load i64, i64* %RDI.i76
  %79 = load i64, i64* %PC.i75
  %80 = add i64 %79, 4
  store i64 %80, i64* %PC.i75
  %81 = inttoptr i64 %77 to i64*
  store i64 %78, i64* %81
  store %struct.Memory* %loadMem_407da8, %struct.Memory** %MEMORY
  %loadMem_407dac = load %struct.Memory*, %struct.Memory** %MEMORY
  %82 = getelementptr inbounds %struct.State, %struct.State* %0, i32 0, i32 6
  %83 = getelementptr inbounds %struct.GPR, %struct.GPR* %82, i32 0, i32 33
  %84 = getelementptr inbounds %struct.Reg, %struct.Reg* %83, i32 0, i32 0
  %PC.i73 = bitcast %union.anon* %84 to i64*
  %85 = getelementptr inbounds %struct.State, %struct.State* %0, i32 0, i32 6
  %86 = getelementptr inbounds %struct.GPR, %struct.GPR* %85, i32 0, i32 9
  %87 = getelementptr inbounds %struct.Reg, %struct.Reg* %86, i32 0, i32 0
  %ESI.i = bitcast %union.anon* %87 to i32*
  %88 = getelementptr inbounds %struct.State, %struct.State* %0, i32 0, i32 6
  %89 = getelementptr inbounds %struct.GPR, %struct.GPR* %88, i32 0, i32 15
  %90 = getelementptr inbounds %struct.Reg, %struct.Reg* %89, i32 0, i32 0
  %RBP.i74 = bitcast %union.anon* %90 to i64*
  %91 = load i64, i64* %RBP.i74
  %92 = sub i64 %91, 12
  %93 = load i32, i32* %ESI.i
  %94 = zext i32 %93 to i64
  %95 = load i64, i64* %PC.i73
  %96 = add i64 %95, 3
  store i64 %96, i64* %PC.i73
  %97 = inttoptr i64 %92 to i32*
  store i32 %93, i32* %97
  store %struct.Memory* %loadMem_407dac, %struct.Memory** %MEMORY
  %loadMem_407daf = load %struct.Memory*, %struct.Memory** %MEMORY
  %98 = getelementptr inbounds %struct.State, %struct.State* %0, i32 0, i32 6
  %99 = getelementptr inbounds %struct.GPR, %struct.GPR* %98, i32 0, i32 33
  %100 = getelementptr inbounds %struct.Reg, %struct.Reg* %99, i32 0, i32 0
  %PC.i70 = bitcast %union.anon* %100 to i64*
  %101 = getelementptr inbounds %struct.State, %struct.State* %0, i32 0, i32 6
  %102 = getelementptr inbounds %struct.GPR, %struct.GPR* %101, i32 0, i32 7
  %103 = getelementptr inbounds %struct.Reg, %struct.Reg* %102, i32 0, i32 0
  %RDX.i71 = bitcast %union.anon* %103 to i64*
  %104 = getelementptr inbounds %struct.State, %struct.State* %0, i32 0, i32 6
  %105 = getelementptr inbounds %struct.GPR, %struct.GPR* %104, i32 0, i32 15
  %106 = getelementptr inbounds %struct.Reg, %struct.Reg* %105, i32 0, i32 0
  %RBP.i72 = bitcast %union.anon* %106 to i64*
  %107 = load i64, i64* %RBP.i72
  %108 = sub i64 %107, 24
  %109 = load i64, i64* %RDX.i71
  %110 = load i64, i64* %PC.i70
  %111 = add i64 %110, 4
  store i64 %111, i64* %PC.i70
  %112 = inttoptr i64 %108 to i64*
  store i64 %109, i64* %112
  store %struct.Memory* %loadMem_407daf, %struct.Memory** %MEMORY
  %loadMem1_407db3 = load %struct.Memory*, %struct.Memory** %MEMORY
  %113 = getelementptr inbounds %struct.State, %struct.State* %0, i32 0, i32 6
  %114 = getelementptr inbounds %struct.GPR, %struct.GPR* %113, i32 0, i32 33
  %115 = getelementptr inbounds %struct.Reg, %struct.Reg* %114, i32 0, i32 0
  %PC.i69 = bitcast %union.anon* %115 to i64*
  %116 = load i64, i64* %PC.i69
  %117 = add i64 %116, -28467
  %118 = load i64, i64* %PC.i69
  %119 = add i64 %118, 5
  %120 = load i64, i64* %PC.i69
  %121 = add i64 %120, 5
  store i64 %121, i64* %PC.i69
  %122 = getelementptr inbounds %struct.State, %struct.State* %0, i64 0, i32 6, i32 13, i32 0, i32 0
  %123 = load i64, i64* %122, align 8
  %124 = add i64 %123, -8
  %125 = inttoptr i64 %124 to i64*
  store i64 %119, i64* %125
  store i64 %124, i64* %122, align 8
  %126 = getelementptr inbounds %struct.State, %struct.State* %0, i64 0, i32 6, i32 33, i32 0, i32 0
  store i64 %117, i64* %126, align 8
  store %struct.Memory* %loadMem1_407db3, %struct.Memory** %MEMORY
  %loadMem2_407db3 = load %struct.Memory*, %struct.Memory** %MEMORY
  %loadPC_407db3 = load i64, i64* %3
  %call2_407db3 = call %struct.Memory* @sub_400e80._Z11start_timerv(%struct.State* %0, i64 %loadPC_407db3, %struct.Memory* %loadMem2_407db3)
  store %struct.Memory* %call2_407db3, %struct.Memory** %MEMORY
  %loadMem_407db8 = load %struct.Memory*, %struct.Memory** %MEMORY
  %127 = getelementptr inbounds %struct.State, %struct.State* %0, i32 0, i32 6
  %128 = getelementptr inbounds %struct.GPR, %struct.GPR* %127, i32 0, i32 33
  %129 = getelementptr inbounds %struct.Reg, %struct.Reg* %128, i32 0, i32 0
  %PC.i67 = bitcast %union.anon* %129 to i64*
  %130 = getelementptr inbounds %struct.State, %struct.State* %0, i32 0, i32 6
  %131 = getelementptr inbounds %struct.GPR, %struct.GPR* %130, i32 0, i32 15
  %132 = getelementptr inbounds %struct.Reg, %struct.Reg* %131, i32 0, i32 0
  %RBP.i68 = bitcast %union.anon* %132 to i64*
  %133 = load i64, i64* %RBP.i68
  %134 = sub i64 %133, 28
  %135 = load i64, i64* %PC.i67
  %136 = add i64 %135, 7
  store i64 %136, i64* %PC.i67
  %137 = inttoptr i64 %134 to i32*
  store i32 0, i32* %137
  store %struct.Memory* %loadMem_407db8, %struct.Memory** %MEMORY
  br label %block_.L_407dbf

block_.L_407dbf:                                  ; preds = %block_.L_407e17, %entry
  %loadMem_407dbf = load %struct.Memory*, %struct.Memory** %MEMORY
  %138 = getelementptr inbounds %struct.State, %struct.State* %0, i32 0, i32 6
  %139 = getelementptr inbounds %struct.GPR, %struct.GPR* %138, i32 0, i32 33
  %140 = getelementptr inbounds %struct.Reg, %struct.Reg* %139, i32 0, i32 0
  %PC.i64 = bitcast %union.anon* %140 to i64*
  %141 = getelementptr inbounds %struct.State, %struct.State* %0, i32 0, i32 6
  %142 = getelementptr inbounds %struct.GPR, %struct.GPR* %141, i32 0, i32 1
  %143 = getelementptr inbounds %struct.Reg, %struct.Reg* %142, i32 0, i32 0
  %RAX.i65 = bitcast %union.anon* %143 to i64*
  %144 = getelementptr inbounds %struct.State, %struct.State* %0, i32 0, i32 6
  %145 = getelementptr inbounds %struct.GPR, %struct.GPR* %144, i32 0, i32 15
  %146 = getelementptr inbounds %struct.Reg, %struct.Reg* %145, i32 0, i32 0
  %RBP.i66 = bitcast %union.anon* %146 to i64*
  %147 = load i64, i64* %RBP.i66
  %148 = sub i64 %147, 28
  %149 = load i64, i64* %PC.i64
  %150 = add i64 %149, 3
  store i64 %150, i64* %PC.i64
  %151 = inttoptr i64 %148 to i32*
  %152 = load i32, i32* %151
  %153 = zext i32 %152 to i64
  store i64 %153, i64* %RAX.i65, align 8
  store %struct.Memory* %loadMem_407dbf, %struct.Memory** %MEMORY
  %loadMem_407dc2 = load %struct.Memory*, %struct.Memory** %MEMORY
  %154 = getelementptr inbounds %struct.State, %struct.State* %0, i32 0, i32 6
  %155 = getelementptr inbounds %struct.GPR, %struct.GPR* %154, i32 0, i32 33
  %156 = getelementptr inbounds %struct.Reg, %struct.Reg* %155, i32 0, i32 0
  %PC.i62 = bitcast %union.anon* %156 to i64*
  %157 = getelementptr inbounds %struct.State, %struct.State* %0, i32 0, i32 6
  %158 = getelementptr inbounds %struct.GPR, %struct.GPR* %157, i32 0, i32 1
  %159 = getelementptr inbounds %struct.Reg, %struct.Reg* %158, i32 0, i32 0
  %EAX.i63 = bitcast %union.anon* %159 to i32*
  %160 = load i32, i32* %EAX.i63
  %161 = zext i32 %160 to i64
  %162 = load i64, i64* %PC.i62
  %163 = add i64 %162, 7
  store i64 %163, i64* %PC.i62
  %164 = load i32, i32* inttoptr (i64 6430912 to i32*)
  %165 = sub i32 %160, %164
  %166 = icmp ult i32 %160, %164
  %167 = zext i1 %166 to i8
  %168 = getelementptr inbounds %struct.State, %struct.State* %0, i64 0, i32 2, i32 1
  store i8 %167, i8* %168, align 1
  %169 = and i32 %165, 255
  %170 = call i32 @llvm.ctpop.i32(i32 %169)
  %171 = trunc i32 %170 to i8
  %172 = and i8 %171, 1
  %173 = xor i8 %172, 1
  %174 = getelementptr inbounds %struct.State, %struct.State* %0, i64 0, i32 2, i32 3
  store i8 %173, i8* %174, align 1
  %175 = xor i32 %164, %160
  %176 = xor i32 %175, %165
  %177 = lshr i32 %176, 4
  %178 = trunc i32 %177 to i8
  %179 = and i8 %178, 1
  %180 = getelementptr inbounds %struct.State, %struct.State* %0, i64 0, i32 2, i32 5
  store i8 %179, i8* %180, align 1
  %181 = icmp eq i32 %165, 0
  %182 = zext i1 %181 to i8
  %183 = getelementptr inbounds %struct.State, %struct.State* %0, i64 0, i32 2, i32 7
  store i8 %182, i8* %183, align 1
  %184 = lshr i32 %165, 31
  %185 = trunc i32 %184 to i8
  %186 = getelementptr inbounds %struct.State, %struct.State* %0, i64 0, i32 2, i32 9
  store i8 %185, i8* %186, align 1
  %187 = lshr i32 %160, 31
  %188 = lshr i32 %164, 31
  %189 = xor i32 %188, %187
  %190 = xor i32 %184, %187
  %191 = add i32 %190, %189
  %192 = icmp eq i32 %191, 2
  %193 = zext i1 %192 to i8
  %194 = getelementptr inbounds %struct.State, %struct.State* %0, i64 0, i32 2, i32 13
  store i8 %193, i8* %194, align 1
  store %struct.Memory* %loadMem_407dc2, %struct.Memory** %MEMORY
  %loadMem_407dc9 = load %struct.Memory*, %struct.Memory** %MEMORY
  %195 = getelementptr inbounds %struct.State, %struct.State* %0, i32 0, i32 6
  %196 = getelementptr inbounds %struct.GPR, %struct.GPR* %195, i32 0, i32 33
  %197 = getelementptr inbounds %struct.Reg, %struct.Reg* %196, i32 0, i32 0
  %PC.i61 = bitcast %union.anon* %197 to i64*
  %198 = load i64, i64* %PC.i61
  %199 = add i64 %198, 101
  %200 = load i64, i64* %PC.i61
  %201 = add i64 %200, 6
  %202 = load i64, i64* %PC.i61
  %203 = add i64 %202, 6
  store i64 %203, i64* %PC.i61
  %204 = getelementptr inbounds %struct.State, %struct.State* %0, i64 0, i32 2, i32 9
  %205 = load i8, i8* %204, align 1
  %206 = icmp ne i8 %205, 0
  %207 = getelementptr inbounds %struct.State, %struct.State* %0, i64 0, i32 2, i32 13
  %208 = load i8, i8* %207, align 1
  %209 = icmp ne i8 %208, 0
  %210 = xor i1 %206, %209
  %211 = xor i1 %210, true
  %212 = zext i1 %211 to i8
  store i8 %212, i8* %BRANCH_TAKEN, align 1
  %213 = getelementptr inbounds %struct.State, %struct.State* %0, i64 0, i32 6, i32 33, i32 0, i32 0
  %214 = select i1 %210, i64 %201, i64 %199
  store i64 %214, i64* %213, align 8
  store %struct.Memory* %loadMem_407dc9, %struct.Memory** %MEMORY
  %loadBr_407dc9 = load i8, i8* %BRANCH_TAKEN
  %cmpBr_407dc9 = icmp eq i8 %loadBr_407dc9, 1
  br i1 %cmpBr_407dc9, label %block_.L_407e2e, label %block_407dcf

block_407dcf:                                     ; preds = %block_.L_407dbf
  %loadMem_407dcf = load %struct.Memory*, %struct.Memory** %MEMORY
  %215 = getelementptr inbounds %struct.State, %struct.State* %0, i32 0, i32 6
  %216 = getelementptr inbounds %struct.GPR, %struct.GPR* %215, i32 0, i32 33
  %217 = getelementptr inbounds %struct.Reg, %struct.Reg* %216, i32 0, i32 0
  %PC.i59 = bitcast %union.anon* %217 to i64*
  %218 = getelementptr inbounds %struct.State, %struct.State* %0, i32 0, i32 6
  %219 = getelementptr inbounds %struct.GPR, %struct.GPR* %218, i32 0, i32 15
  %220 = getelementptr inbounds %struct.Reg, %struct.Reg* %219, i32 0, i32 0
  %RBP.i60 = bitcast %union.anon* %220 to i64*
  %221 = load i64, i64* %RBP.i60
  %222 = sub i64 %221, 30
  %223 = load i64, i64* %PC.i59
  %224 = add i64 %223, 6
  store i64 %224, i64* %PC.i59
  %225 = inttoptr i64 %222 to i16*
  store i16 0, i16* %225
  store %struct.Memory* %loadMem_407dcf, %struct.Memory** %MEMORY
  %loadMem_407dd5 = load %struct.Memory*, %struct.Memory** %MEMORY
  %226 = getelementptr inbounds %struct.State, %struct.State* %0, i32 0, i32 6
  %227 = getelementptr inbounds %struct.GPR, %struct.GPR* %226, i32 0, i32 33
  %228 = getelementptr inbounds %struct.Reg, %struct.Reg* %227, i32 0, i32 0
  %PC.i57 = bitcast %union.anon* %228 to i64*
  %229 = getelementptr inbounds %struct.State, %struct.State* %0, i32 0, i32 6
  %230 = getelementptr inbounds %struct.GPR, %struct.GPR* %229, i32 0, i32 15
  %231 = getelementptr inbounds %struct.Reg, %struct.Reg* %230, i32 0, i32 0
  %RBP.i58 = bitcast %union.anon* %231 to i64*
  %232 = load i64, i64* %RBP.i58
  %233 = sub i64 %232, 36
  %234 = load i64, i64* %PC.i57
  %235 = add i64 %234, 7
  store i64 %235, i64* %PC.i57
  %236 = inttoptr i64 %233 to i32*
  store i32 0, i32* %236
  store %struct.Memory* %loadMem_407dd5, %struct.Memory** %MEMORY
  br label %block_.L_407ddc

block_.L_407ddc:                                  ; preds = %block_407de8, %block_407dcf
  %loadMem_407ddc = load %struct.Memory*, %struct.Memory** %MEMORY
  %237 = getelementptr inbounds %struct.State, %struct.State* %0, i32 0, i32 6
  %238 = getelementptr inbounds %struct.GPR, %struct.GPR* %237, i32 0, i32 33
  %239 = getelementptr inbounds %struct.Reg, %struct.Reg* %238, i32 0, i32 0
  %PC.i54 = bitcast %union.anon* %239 to i64*
  %240 = getelementptr inbounds %struct.State, %struct.State* %0, i32 0, i32 6
  %241 = getelementptr inbounds %struct.GPR, %struct.GPR* %240, i32 0, i32 1
  %242 = getelementptr inbounds %struct.Reg, %struct.Reg* %241, i32 0, i32 0
  %RAX.i55 = bitcast %union.anon* %242 to i64*
  %243 = getelementptr inbounds %struct.State, %struct.State* %0, i32 0, i32 6
  %244 = getelementptr inbounds %struct.GPR, %struct.GPR* %243, i32 0, i32 15
  %245 = getelementptr inbounds %struct.Reg, %struct.Reg* %244, i32 0, i32 0
  %RBP.i56 = bitcast %union.anon* %245 to i64*
  %246 = load i64, i64* %RBP.i56
  %247 = sub i64 %246, 36
  %248 = load i64, i64* %PC.i54
  %249 = add i64 %248, 3
  store i64 %249, i64* %PC.i54
  %250 = inttoptr i64 %247 to i32*
  %251 = load i32, i32* %250
  %252 = zext i32 %251 to i64
  store i64 %252, i64* %RAX.i55, align 8
  store %struct.Memory* %loadMem_407ddc, %struct.Memory** %MEMORY
  %loadMem_407ddf = load %struct.Memory*, %struct.Memory** %MEMORY
  %253 = getelementptr inbounds %struct.State, %struct.State* %0, i32 0, i32 6
  %254 = getelementptr inbounds %struct.GPR, %struct.GPR* %253, i32 0, i32 33
  %255 = getelementptr inbounds %struct.Reg, %struct.Reg* %254, i32 0, i32 0
  %PC.i51 = bitcast %union.anon* %255 to i64*
  %256 = getelementptr inbounds %struct.State, %struct.State* %0, i32 0, i32 6
  %257 = getelementptr inbounds %struct.GPR, %struct.GPR* %256, i32 0, i32 1
  %258 = getelementptr inbounds %struct.Reg, %struct.Reg* %257, i32 0, i32 0
  %EAX.i52 = bitcast %union.anon* %258 to i32*
  %259 = getelementptr inbounds %struct.State, %struct.State* %0, i32 0, i32 6
  %260 = getelementptr inbounds %struct.GPR, %struct.GPR* %259, i32 0, i32 15
  %261 = getelementptr inbounds %struct.Reg, %struct.Reg* %260, i32 0, i32 0
  %RBP.i53 = bitcast %union.anon* %261 to i64*
  %262 = load i32, i32* %EAX.i52
  %263 = zext i32 %262 to i64
  %264 = load i64, i64* %RBP.i53
  %265 = sub i64 %264, 12
  %266 = load i64, i64* %PC.i51
  %267 = add i64 %266, 3
  store i64 %267, i64* %PC.i51
  %268 = inttoptr i64 %265 to i32*
  %269 = load i32, i32* %268
  %270 = sub i32 %262, %269
  %271 = icmp ult i32 %262, %269
  %272 = zext i1 %271 to i8
  %273 = getelementptr inbounds %struct.State, %struct.State* %0, i64 0, i32 2, i32 1
  store i8 %272, i8* %273, align 1
  %274 = and i32 %270, 255
  %275 = call i32 @llvm.ctpop.i32(i32 %274)
  %276 = trunc i32 %275 to i8
  %277 = and i8 %276, 1
  %278 = xor i8 %277, 1
  %279 = getelementptr inbounds %struct.State, %struct.State* %0, i64 0, i32 2, i32 3
  store i8 %278, i8* %279, align 1
  %280 = xor i32 %269, %262
  %281 = xor i32 %280, %270
  %282 = lshr i32 %281, 4
  %283 = trunc i32 %282 to i8
  %284 = and i8 %283, 1
  %285 = getelementptr inbounds %struct.State, %struct.State* %0, i64 0, i32 2, i32 5
  store i8 %284, i8* %285, align 1
  %286 = icmp eq i32 %270, 0
  %287 = zext i1 %286 to i8
  %288 = getelementptr inbounds %struct.State, %struct.State* %0, i64 0, i32 2, i32 7
  store i8 %287, i8* %288, align 1
  %289 = lshr i32 %270, 31
  %290 = trunc i32 %289 to i8
  %291 = getelementptr inbounds %struct.State, %struct.State* %0, i64 0, i32 2, i32 9
  store i8 %290, i8* %291, align 1
  %292 = lshr i32 %262, 31
  %293 = lshr i32 %269, 31
  %294 = xor i32 %293, %292
  %295 = xor i32 %289, %292
  %296 = add i32 %295, %294
  %297 = icmp eq i32 %296, 2
  %298 = zext i1 %297 to i8
  %299 = getelementptr inbounds %struct.State, %struct.State* %0, i64 0, i32 2, i32 13
  store i8 %298, i8* %299, align 1
  store %struct.Memory* %loadMem_407ddf, %struct.Memory** %MEMORY
  %loadMem_407de2 = load %struct.Memory*, %struct.Memory** %MEMORY
  %300 = getelementptr inbounds %struct.State, %struct.State* %0, i32 0, i32 6
  %301 = getelementptr inbounds %struct.GPR, %struct.GPR* %300, i32 0, i32 33
  %302 = getelementptr inbounds %struct.Reg, %struct.Reg* %301, i32 0, i32 0
  %PC.i50 = bitcast %union.anon* %302 to i64*
  %303 = load i64, i64* %PC.i50
  %304 = add i64 %303, 53
  %305 = load i64, i64* %PC.i50
  %306 = add i64 %305, 6
  %307 = load i64, i64* %PC.i50
  %308 = add i64 %307, 6
  store i64 %308, i64* %PC.i50
  %309 = getelementptr inbounds %struct.State, %struct.State* %0, i64 0, i32 2, i32 9
  %310 = load i8, i8* %309, align 1
  %311 = icmp ne i8 %310, 0
  %312 = getelementptr inbounds %struct.State, %struct.State* %0, i64 0, i32 2, i32 13
  %313 = load i8, i8* %312, align 1
  %314 = icmp ne i8 %313, 0
  %315 = xor i1 %311, %314
  %316 = xor i1 %315, true
  %317 = zext i1 %316 to i8
  store i8 %317, i8* %BRANCH_TAKEN, align 1
  %318 = getelementptr inbounds %struct.State, %struct.State* %0, i64 0, i32 6, i32 33, i32 0, i32 0
  %319 = select i1 %315, i64 %306, i64 %304
  store i64 %319, i64* %318, align 8
  store %struct.Memory* %loadMem_407de2, %struct.Memory** %MEMORY
  %loadBr_407de2 = load i8, i8* %BRANCH_TAKEN
  %cmpBr_407de2 = icmp eq i8 %loadBr_407de2, 1
  br i1 %cmpBr_407de2, label %block_.L_407e17, label %block_407de8

block_407de8:                                     ; preds = %block_.L_407ddc
  %loadMem_407de8 = load %struct.Memory*, %struct.Memory** %MEMORY
  %320 = getelementptr inbounds %struct.State, %struct.State* %0, i32 0, i32 6
  %321 = getelementptr inbounds %struct.GPR, %struct.GPR* %320, i32 0, i32 33
  %322 = getelementptr inbounds %struct.Reg, %struct.Reg* %321, i32 0, i32 0
  %PC.i47 = bitcast %union.anon* %322 to i64*
  %323 = getelementptr inbounds %struct.State, %struct.State* %0, i32 0, i32 6
  %324 = getelementptr inbounds %struct.GPR, %struct.GPR* %323, i32 0, i32 1
  %325 = getelementptr inbounds %struct.Reg, %struct.Reg* %324, i32 0, i32 0
  %RAX.i48 = bitcast %union.anon* %325 to i64*
  %326 = getelementptr inbounds %struct.State, %struct.State* %0, i32 0, i32 6
  %327 = getelementptr inbounds %struct.GPR, %struct.GPR* %326, i32 0, i32 15
  %328 = getelementptr inbounds %struct.Reg, %struct.Reg* %327, i32 0, i32 0
  %RBP.i49 = bitcast %union.anon* %328 to i64*
  %329 = load i64, i64* %RBP.i49
  %330 = sub i64 %329, 8
  %331 = load i64, i64* %PC.i47
  %332 = add i64 %331, 4
  store i64 %332, i64* %PC.i47
  %333 = inttoptr i64 %330 to i64*
  %334 = load i64, i64* %333
  store i64 %334, i64* %RAX.i48, align 8
  store %struct.Memory* %loadMem_407de8, %struct.Memory** %MEMORY
  %loadMem_407dec = load %struct.Memory*, %struct.Memory** %MEMORY
  %335 = getelementptr inbounds %struct.State, %struct.State* %0, i32 0, i32 6
  %336 = getelementptr inbounds %struct.GPR, %struct.GPR* %335, i32 0, i32 33
  %337 = getelementptr inbounds %struct.Reg, %struct.Reg* %336, i32 0, i32 0
  %PC.i44 = bitcast %union.anon* %337 to i64*
  %338 = getelementptr inbounds %struct.State, %struct.State* %0, i32 0, i32 6
  %339 = getelementptr inbounds %struct.GPR, %struct.GPR* %338, i32 0, i32 5
  %340 = getelementptr inbounds %struct.Reg, %struct.Reg* %339, i32 0, i32 0
  %RCX.i45 = bitcast %union.anon* %340 to i64*
  %341 = getelementptr inbounds %struct.State, %struct.State* %0, i32 0, i32 6
  %342 = getelementptr inbounds %struct.GPR, %struct.GPR* %341, i32 0, i32 15
  %343 = getelementptr inbounds %struct.Reg, %struct.Reg* %342, i32 0, i32 0
  %RBP.i46 = bitcast %union.anon* %343 to i64*
  %344 = load i64, i64* %RBP.i46
  %345 = sub i64 %344, 36
  %346 = load i64, i64* %PC.i44
  %347 = add i64 %346, 4
  store i64 %347, i64* %PC.i44
  %348 = inttoptr i64 %345 to i32*
  %349 = load i32, i32* %348
  %350 = sext i32 %349 to i64
  store i64 %350, i64* %RCX.i45, align 8
  store %struct.Memory* %loadMem_407dec, %struct.Memory** %MEMORY
  %loadMem_407df0 = load %struct.Memory*, %struct.Memory** %MEMORY
  %351 = getelementptr inbounds %struct.State, %struct.State* %0, i32 0, i32 6
  %352 = getelementptr inbounds %struct.GPR, %struct.GPR* %351, i32 0, i32 33
  %353 = getelementptr inbounds %struct.Reg, %struct.Reg* %352, i32 0, i32 0
  %PC.i41 = bitcast %union.anon* %353 to i64*
  %354 = getelementptr inbounds %struct.State, %struct.State* %0, i32 0, i32 6
  %355 = getelementptr inbounds %struct.GPR, %struct.GPR* %354, i32 0, i32 1
  %356 = getelementptr inbounds %struct.Reg, %struct.Reg* %355, i32 0, i32 0
  %RAX.i42 = bitcast %union.anon* %356 to i64*
  %357 = getelementptr inbounds %struct.State, %struct.State* %0, i32 0, i32 6
  %358 = getelementptr inbounds %struct.GPR, %struct.GPR* %357, i32 0, i32 5
  %359 = getelementptr inbounds %struct.Reg, %struct.Reg* %358, i32 0, i32 0
  %RCX.i = bitcast %union.anon* %359 to i64*
  %360 = getelementptr inbounds %struct.State, %struct.State* %0, i32 0, i32 6
  %361 = getelementptr inbounds %struct.GPR, %struct.GPR* %360, i32 0, i32 11
  %362 = getelementptr inbounds %struct.Reg, %struct.Reg* %361, i32 0, i32 0
  %RDI.i43 = bitcast %union.anon* %362 to i64*
  %363 = load i64, i64* %RAX.i42
  %364 = load i64, i64* %RCX.i
  %365 = mul i64 %364, 2
  %366 = add i64 %365, %363
  %367 = load i64, i64* %PC.i41
  %368 = add i64 %367, 4
  store i64 %368, i64* %PC.i41
  %369 = inttoptr i64 %366 to i16*
  %370 = load i16, i16* %369
  %371 = zext i16 %370 to i64
  store i64 %371, i64* %RDI.i43, align 8
  store %struct.Memory* %loadMem_407df0, %struct.Memory** %MEMORY
  %loadMem1_407df4 = load %struct.Memory*, %struct.Memory** %MEMORY
  %372 = getelementptr inbounds %struct.State, %struct.State* %0, i32 0, i32 6
  %373 = getelementptr inbounds %struct.GPR, %struct.GPR* %372, i32 0, i32 33
  %374 = getelementptr inbounds %struct.Reg, %struct.Reg* %373, i32 0, i32 0
  %PC.i40 = bitcast %union.anon* %374 to i64*
  %375 = load i64, i64* %PC.i40
  %376 = add i64 %375, 49772
  %377 = load i64, i64* %PC.i40
  %378 = add i64 %377, 5
  %379 = load i64, i64* %PC.i40
  %380 = add i64 %379, 5
  store i64 %380, i64* %PC.i40
  %381 = getelementptr inbounds %struct.State, %struct.State* %0, i64 0, i32 6, i32 13, i32 0, i32 0
  %382 = load i64, i64* %381, align 8
  %383 = add i64 %382, -8
  %384 = inttoptr i64 %383 to i64*
  store i64 %378, i64* %384
  store i64 %383, i64* %381, align 8
  %385 = getelementptr inbounds %struct.State, %struct.State* %0, i64 0, i32 6, i32 33, i32 0, i32 0
  store i64 %376, i64* %385, align 8
  store %struct.Memory* %loadMem1_407df4, %struct.Memory** %MEMORY
  %loadMem2_407df4 = load %struct.Memory*, %struct.Memory** %MEMORY
  %loadPC_407df4 = load i64, i64* %3
  %call2_407df4 = call %struct.Memory* @sub_414060._ZN18custom_constant_orItE8do_shiftEt(%struct.State* %0, i64 %loadPC_407df4, %struct.Memory* %loadMem2_407df4)
  store %struct.Memory* %call2_407df4, %struct.Memory** %MEMORY
  %loadMem_407df9 = load %struct.Memory*, %struct.Memory** %MEMORY
  %386 = getelementptr inbounds %struct.State, %struct.State* %0, i32 0, i32 6
  %387 = getelementptr inbounds %struct.GPR, %struct.GPR* %386, i32 0, i32 33
  %388 = getelementptr inbounds %struct.Reg, %struct.Reg* %387, i32 0, i32 0
  %PC.i37 = bitcast %union.anon* %388 to i64*
  %389 = getelementptr inbounds %struct.State, %struct.State* %0, i32 0, i32 6
  %390 = getelementptr inbounds %struct.GPR, %struct.GPR* %389, i32 0, i32 1
  %391 = getelementptr inbounds %struct.Reg, %struct.Reg* %390, i32 0, i32 0
  %AX.i38 = bitcast %union.anon* %391 to i16*
  %392 = getelementptr inbounds %struct.State, %struct.State* %0, i32 0, i32 6
  %393 = getelementptr inbounds %struct.GPR, %struct.GPR* %392, i32 0, i32 11
  %394 = getelementptr inbounds %struct.Reg, %struct.Reg* %393, i32 0, i32 0
  %RDI.i39 = bitcast %union.anon* %394 to i64*
  %395 = load i16, i16* %AX.i38
  %396 = zext i16 %395 to i64
  %397 = load i64, i64* %PC.i37
  %398 = add i64 %397, 3
  store i64 %398, i64* %PC.i37
  %399 = and i64 %396, 65535
  store i64 %399, i64* %RDI.i39, align 8
  store %struct.Memory* %loadMem_407df9, %struct.Memory** %MEMORY
  %loadMem_407dfc = load %struct.Memory*, %struct.Memory** %MEMORY
  %400 = getelementptr inbounds %struct.State, %struct.State* %0, i32 0, i32 6
  %401 = getelementptr inbounds %struct.GPR, %struct.GPR* %400, i32 0, i32 33
  %402 = getelementptr inbounds %struct.Reg, %struct.Reg* %401, i32 0, i32 0
  %PC.i34 = bitcast %union.anon* %402 to i64*
  %403 = getelementptr inbounds %struct.State, %struct.State* %0, i32 0, i32 6
  %404 = getelementptr inbounds %struct.GPR, %struct.GPR* %403, i32 0, i32 7
  %405 = getelementptr inbounds %struct.Reg, %struct.Reg* %404, i32 0, i32 0
  %RDX.i35 = bitcast %union.anon* %405 to i64*
  %406 = getelementptr inbounds %struct.State, %struct.State* %0, i32 0, i32 6
  %407 = getelementptr inbounds %struct.GPR, %struct.GPR* %406, i32 0, i32 15
  %408 = getelementptr inbounds %struct.Reg, %struct.Reg* %407, i32 0, i32 0
  %RBP.i36 = bitcast %union.anon* %408 to i64*
  %409 = load i64, i64* %RBP.i36
  %410 = sub i64 %409, 30
  %411 = load i64, i64* %PC.i34
  %412 = add i64 %411, 4
  store i64 %412, i64* %PC.i34
  %413 = inttoptr i64 %410 to i16*
  %414 = load i16, i16* %413
  %415 = zext i16 %414 to i64
  store i64 %415, i64* %RDX.i35, align 8
  store %struct.Memory* %loadMem_407dfc, %struct.Memory** %MEMORY
  %loadMem_407e00 = load %struct.Memory*, %struct.Memory** %MEMORY
  %416 = getelementptr inbounds %struct.State, %struct.State* %0, i32 0, i32 6
  %417 = getelementptr inbounds %struct.GPR, %struct.GPR* %416, i32 0, i32 33
  %418 = getelementptr inbounds %struct.Reg, %struct.Reg* %417, i32 0, i32 0
  %PC.i33 = bitcast %union.anon* %418 to i64*
  %419 = getelementptr inbounds %struct.State, %struct.State* %0, i32 0, i32 6
  %420 = getelementptr inbounds %struct.GPR, %struct.GPR* %419, i32 0, i32 11
  %421 = getelementptr inbounds %struct.Reg, %struct.Reg* %420, i32 0, i32 0
  %EDI.i = bitcast %union.anon* %421 to i32*
  %422 = getelementptr inbounds %struct.State, %struct.State* %0, i32 0, i32 6
  %423 = getelementptr inbounds %struct.GPR, %struct.GPR* %422, i32 0, i32 7
  %424 = getelementptr inbounds %struct.Reg, %struct.Reg* %423, i32 0, i32 0
  %RDX.i = bitcast %union.anon* %424 to i64*
  %425 = load i64, i64* %RDX.i
  %426 = load i32, i32* %EDI.i
  %427 = zext i32 %426 to i64
  %428 = load i64, i64* %PC.i33
  %429 = add i64 %428, 2
  store i64 %429, i64* %PC.i33
  %430 = trunc i64 %425 to i32
  %431 = add i32 %426, %430
  %432 = zext i32 %431 to i64
  store i64 %432, i64* %RDX.i, align 8
  %433 = icmp ult i32 %431, %430
  %434 = icmp ult i32 %431, %426
  %435 = or i1 %433, %434
  %436 = zext i1 %435 to i8
  %437 = getelementptr inbounds %struct.State, %struct.State* %0, i64 0, i32 2, i32 1
  store i8 %436, i8* %437, align 1
  %438 = and i32 %431, 255
  %439 = call i32 @llvm.ctpop.i32(i32 %438)
  %440 = trunc i32 %439 to i8
  %441 = and i8 %440, 1
  %442 = xor i8 %441, 1
  %443 = getelementptr inbounds %struct.State, %struct.State* %0, i64 0, i32 2, i32 3
  store i8 %442, i8* %443, align 1
  %444 = xor i64 %427, %425
  %445 = trunc i64 %444 to i32
  %446 = xor i32 %445, %431
  %447 = lshr i32 %446, 4
  %448 = trunc i32 %447 to i8
  %449 = and i8 %448, 1
  %450 = getelementptr inbounds %struct.State, %struct.State* %0, i64 0, i32 2, i32 5
  store i8 %449, i8* %450, align 1
  %451 = icmp eq i32 %431, 0
  %452 = zext i1 %451 to i8
  %453 = getelementptr inbounds %struct.State, %struct.State* %0, i64 0, i32 2, i32 7
  store i8 %452, i8* %453, align 1
  %454 = lshr i32 %431, 31
  %455 = trunc i32 %454 to i8
  %456 = getelementptr inbounds %struct.State, %struct.State* %0, i64 0, i32 2, i32 9
  store i8 %455, i8* %456, align 1
  %457 = lshr i32 %430, 31
  %458 = lshr i32 %426, 31
  %459 = xor i32 %454, %457
  %460 = xor i32 %454, %458
  %461 = add i32 %459, %460
  %462 = icmp eq i32 %461, 2
  %463 = zext i1 %462 to i8
  %464 = getelementptr inbounds %struct.State, %struct.State* %0, i64 0, i32 2, i32 13
  store i8 %463, i8* %464, align 1
  store %struct.Memory* %loadMem_407e00, %struct.Memory** %MEMORY
  %loadMem_407e02 = load %struct.Memory*, %struct.Memory** %MEMORY
  %465 = getelementptr inbounds %struct.State, %struct.State* %0, i32 0, i32 6
  %466 = getelementptr inbounds %struct.GPR, %struct.GPR* %465, i32 0, i32 33
  %467 = getelementptr inbounds %struct.Reg, %struct.Reg* %466, i32 0, i32 0
  %PC.i31 = bitcast %union.anon* %467 to i64*
  %468 = getelementptr inbounds %struct.State, %struct.State* %0, i32 0, i32 6
  %469 = getelementptr inbounds %struct.GPR, %struct.GPR* %468, i32 0, i32 1
  %470 = getelementptr inbounds %struct.Reg, %struct.Reg* %469, i32 0, i32 0
  %AX.i32 = bitcast %union.anon* %470 to i16*
  %471 = getelementptr inbounds %struct.State, %struct.State* %0, i32 0, i32 6
  %472 = getelementptr inbounds %struct.GPR, %struct.GPR* %471, i32 0, i32 7
  %473 = getelementptr inbounds %struct.Reg, %struct.Reg* %472, i32 0, i32 0
  %DX.i = bitcast %union.anon* %473 to i16*
  %474 = load i16, i16* %DX.i
  %475 = zext i16 %474 to i64
  %476 = load i64, i64* %PC.i31
  %477 = add i64 %476, 3
  store i64 %477, i64* %PC.i31
  store i16 %474, i16* %AX.i32, align 2
  store %struct.Memory* %loadMem_407e02, %struct.Memory** %MEMORY
  %loadMem_407e05 = load %struct.Memory*, %struct.Memory** %MEMORY
  %478 = getelementptr inbounds %struct.State, %struct.State* %0, i32 0, i32 6
  %479 = getelementptr inbounds %struct.GPR, %struct.GPR* %478, i32 0, i32 33
  %480 = getelementptr inbounds %struct.Reg, %struct.Reg* %479, i32 0, i32 0
  %PC.i29 = bitcast %union.anon* %480 to i64*
  %481 = getelementptr inbounds %struct.State, %struct.State* %0, i32 0, i32 6
  %482 = getelementptr inbounds %struct.GPR, %struct.GPR* %481, i32 0, i32 1
  %483 = getelementptr inbounds %struct.Reg, %struct.Reg* %482, i32 0, i32 0
  %AX.i = bitcast %union.anon* %483 to i16*
  %484 = getelementptr inbounds %struct.State, %struct.State* %0, i32 0, i32 6
  %485 = getelementptr inbounds %struct.GPR, %struct.GPR* %484, i32 0, i32 15
  %486 = getelementptr inbounds %struct.Reg, %struct.Reg* %485, i32 0, i32 0
  %RBP.i30 = bitcast %union.anon* %486 to i64*
  %487 = load i64, i64* %RBP.i30
  %488 = sub i64 %487, 30
  %489 = load i16, i16* %AX.i
  %490 = zext i16 %489 to i64
  %491 = load i64, i64* %PC.i29
  %492 = add i64 %491, 4
  store i64 %492, i64* %PC.i29
  %493 = inttoptr i64 %488 to i16*
  store i16 %489, i16* %493
  store %struct.Memory* %loadMem_407e05, %struct.Memory** %MEMORY
  %loadMem_407e09 = load %struct.Memory*, %struct.Memory** %MEMORY
  %494 = getelementptr inbounds %struct.State, %struct.State* %0, i32 0, i32 6
  %495 = getelementptr inbounds %struct.GPR, %struct.GPR* %494, i32 0, i32 33
  %496 = getelementptr inbounds %struct.Reg, %struct.Reg* %495, i32 0, i32 0
  %PC.i26 = bitcast %union.anon* %496 to i64*
  %497 = getelementptr inbounds %struct.State, %struct.State* %0, i32 0, i32 6
  %498 = getelementptr inbounds %struct.GPR, %struct.GPR* %497, i32 0, i32 1
  %499 = getelementptr inbounds %struct.Reg, %struct.Reg* %498, i32 0, i32 0
  %RAX.i27 = bitcast %union.anon* %499 to i64*
  %500 = getelementptr inbounds %struct.State, %struct.State* %0, i32 0, i32 6
  %501 = getelementptr inbounds %struct.GPR, %struct.GPR* %500, i32 0, i32 15
  %502 = getelementptr inbounds %struct.Reg, %struct.Reg* %501, i32 0, i32 0
  %RBP.i28 = bitcast %union.anon* %502 to i64*
  %503 = load i64, i64* %RBP.i28
  %504 = sub i64 %503, 36
  %505 = load i64, i64* %PC.i26
  %506 = add i64 %505, 3
  store i64 %506, i64* %PC.i26
  %507 = inttoptr i64 %504 to i32*
  %508 = load i32, i32* %507
  %509 = zext i32 %508 to i64
  store i64 %509, i64* %RAX.i27, align 8
  store %struct.Memory* %loadMem_407e09, %struct.Memory** %MEMORY
  %loadMem_407e0c = load %struct.Memory*, %struct.Memory** %MEMORY
  %510 = getelementptr inbounds %struct.State, %struct.State* %0, i32 0, i32 6
  %511 = getelementptr inbounds %struct.GPR, %struct.GPR* %510, i32 0, i32 33
  %512 = getelementptr inbounds %struct.Reg, %struct.Reg* %511, i32 0, i32 0
  %PC.i24 = bitcast %union.anon* %512 to i64*
  %513 = getelementptr inbounds %struct.State, %struct.State* %0, i32 0, i32 6
  %514 = getelementptr inbounds %struct.GPR, %struct.GPR* %513, i32 0, i32 1
  %515 = getelementptr inbounds %struct.Reg, %struct.Reg* %514, i32 0, i32 0
  %RAX.i25 = bitcast %union.anon* %515 to i64*
  %516 = load i64, i64* %RAX.i25
  %517 = load i64, i64* %PC.i24
  %518 = add i64 %517, 3
  store i64 %518, i64* %PC.i24
  %519 = trunc i64 %516 to i32
  %520 = add i32 1, %519
  %521 = zext i32 %520 to i64
  store i64 %521, i64* %RAX.i25, align 8
  %522 = icmp ult i32 %520, %519
  %523 = icmp ult i32 %520, 1
  %524 = or i1 %522, %523
  %525 = zext i1 %524 to i8
  %526 = getelementptr inbounds %struct.State, %struct.State* %0, i64 0, i32 2, i32 1
  store i8 %525, i8* %526, align 1
  %527 = and i32 %520, 255
  %528 = call i32 @llvm.ctpop.i32(i32 %527)
  %529 = trunc i32 %528 to i8
  %530 = and i8 %529, 1
  %531 = xor i8 %530, 1
  %532 = getelementptr inbounds %struct.State, %struct.State* %0, i64 0, i32 2, i32 3
  store i8 %531, i8* %532, align 1
  %533 = xor i64 1, %516
  %534 = trunc i64 %533 to i32
  %535 = xor i32 %534, %520
  %536 = lshr i32 %535, 4
  %537 = trunc i32 %536 to i8
  %538 = and i8 %537, 1
  %539 = getelementptr inbounds %struct.State, %struct.State* %0, i64 0, i32 2, i32 5
  store i8 %538, i8* %539, align 1
  %540 = icmp eq i32 %520, 0
  %541 = zext i1 %540 to i8
  %542 = getelementptr inbounds %struct.State, %struct.State* %0, i64 0, i32 2, i32 7
  store i8 %541, i8* %542, align 1
  %543 = lshr i32 %520, 31
  %544 = trunc i32 %543 to i8
  %545 = getelementptr inbounds %struct.State, %struct.State* %0, i64 0, i32 2, i32 9
  store i8 %544, i8* %545, align 1
  %546 = lshr i32 %519, 31
  %547 = xor i32 %543, %546
  %548 = add i32 %547, %543
  %549 = icmp eq i32 %548, 2
  %550 = zext i1 %549 to i8
  %551 = getelementptr inbounds %struct.State, %struct.State* %0, i64 0, i32 2, i32 13
  store i8 %550, i8* %551, align 1
  store %struct.Memory* %loadMem_407e0c, %struct.Memory** %MEMORY
  %loadMem_407e0f = load %struct.Memory*, %struct.Memory** %MEMORY
  %552 = getelementptr inbounds %struct.State, %struct.State* %0, i32 0, i32 6
  %553 = getelementptr inbounds %struct.GPR, %struct.GPR* %552, i32 0, i32 33
  %554 = getelementptr inbounds %struct.Reg, %struct.Reg* %553, i32 0, i32 0
  %PC.i21 = bitcast %union.anon* %554 to i64*
  %555 = getelementptr inbounds %struct.State, %struct.State* %0, i32 0, i32 6
  %556 = getelementptr inbounds %struct.GPR, %struct.GPR* %555, i32 0, i32 1
  %557 = getelementptr inbounds %struct.Reg, %struct.Reg* %556, i32 0, i32 0
  %EAX.i22 = bitcast %union.anon* %557 to i32*
  %558 = getelementptr inbounds %struct.State, %struct.State* %0, i32 0, i32 6
  %559 = getelementptr inbounds %struct.GPR, %struct.GPR* %558, i32 0, i32 15
  %560 = getelementptr inbounds %struct.Reg, %struct.Reg* %559, i32 0, i32 0
  %RBP.i23 = bitcast %union.anon* %560 to i64*
  %561 = load i64, i64* %RBP.i23
  %562 = sub i64 %561, 36
  %563 = load i32, i32* %EAX.i22
  %564 = zext i32 %563 to i64
  %565 = load i64, i64* %PC.i21
  %566 = add i64 %565, 3
  store i64 %566, i64* %PC.i21
  %567 = inttoptr i64 %562 to i32*
  store i32 %563, i32* %567
  store %struct.Memory* %loadMem_407e0f, %struct.Memory** %MEMORY
  %loadMem_407e12 = load %struct.Memory*, %struct.Memory** %MEMORY
  %568 = getelementptr inbounds %struct.State, %struct.State* %0, i32 0, i32 6
  %569 = getelementptr inbounds %struct.GPR, %struct.GPR* %568, i32 0, i32 33
  %570 = getelementptr inbounds %struct.Reg, %struct.Reg* %569, i32 0, i32 0
  %PC.i20 = bitcast %union.anon* %570 to i64*
  %571 = load i64, i64* %PC.i20
  %572 = add i64 %571, -54
  %573 = load i64, i64* %PC.i20
  %574 = add i64 %573, 5
  store i64 %574, i64* %PC.i20
  %575 = getelementptr inbounds %struct.State, %struct.State* %0, i64 0, i32 6, i32 33, i32 0, i32 0
  store i64 %572, i64* %575, align 8
  store %struct.Memory* %loadMem_407e12, %struct.Memory** %MEMORY
  br label %block_.L_407ddc

block_.L_407e17:                                  ; preds = %block_.L_407ddc
  %loadMem_407e17 = load %struct.Memory*, %struct.Memory** %MEMORY
  %576 = getelementptr inbounds %struct.State, %struct.State* %0, i32 0, i32 6
  %577 = getelementptr inbounds %struct.GPR, %struct.GPR* %576, i32 0, i32 33
  %578 = getelementptr inbounds %struct.Reg, %struct.Reg* %577, i32 0, i32 0
  %PC.i17 = bitcast %union.anon* %578 to i64*
  %579 = getelementptr inbounds %struct.State, %struct.State* %0, i32 0, i32 6
  %580 = getelementptr inbounds %struct.GPR, %struct.GPR* %579, i32 0, i32 11
  %581 = getelementptr inbounds %struct.Reg, %struct.Reg* %580, i32 0, i32 0
  %RDI.i18 = bitcast %union.anon* %581 to i64*
  %582 = getelementptr inbounds %struct.State, %struct.State* %0, i32 0, i32 6
  %583 = getelementptr inbounds %struct.GPR, %struct.GPR* %582, i32 0, i32 15
  %584 = getelementptr inbounds %struct.Reg, %struct.Reg* %583, i32 0, i32 0
  %RBP.i19 = bitcast %union.anon* %584 to i64*
  %585 = load i64, i64* %RBP.i19
  %586 = sub i64 %585, 30
  %587 = load i64, i64* %PC.i17
  %588 = add i64 %587, 4
  store i64 %588, i64* %PC.i17
  %589 = inttoptr i64 %586 to i16*
  %590 = load i16, i16* %589
  %591 = zext i16 %590 to i64
  store i64 %591, i64* %RDI.i18, align 8
  store %struct.Memory* %loadMem_407e17, %struct.Memory** %MEMORY
  %loadMem1_407e1b = load %struct.Memory*, %struct.Memory** %MEMORY
  %592 = getelementptr inbounds %struct.State, %struct.State* %0, i32 0, i32 6
  %593 = getelementptr inbounds %struct.GPR, %struct.GPR* %592, i32 0, i32 33
  %594 = getelementptr inbounds %struct.Reg, %struct.Reg* %593, i32 0, i32 0
  %PC.i16 = bitcast %union.anon* %594 to i64*
  %595 = load i64, i64* %PC.i16
  %596 = add i64 %595, 49765
  %597 = load i64, i64* %PC.i16
  %598 = add i64 %597, 5
  %599 = load i64, i64* %PC.i16
  %600 = add i64 %599, 5
  store i64 %600, i64* %PC.i16
  %601 = getelementptr inbounds %struct.State, %struct.State* %0, i64 0, i32 6, i32 13, i32 0, i32 0
  %602 = load i64, i64* %601, align 8
  %603 = add i64 %602, -8
  %604 = inttoptr i64 %603 to i64*
  store i64 %598, i64* %604
  store i64 %603, i64* %601, align 8
  %605 = getelementptr inbounds %struct.State, %struct.State* %0, i64 0, i32 6, i32 33, i32 0, i32 0
  store i64 %596, i64* %605, align 8
  store %struct.Memory* %loadMem1_407e1b, %struct.Memory** %MEMORY
  %loadMem2_407e1b = load %struct.Memory*, %struct.Memory** %MEMORY
  %loadPC_407e1b = load i64, i64* %3
  %call2_407e1b = call %struct.Memory* @sub_414080._Z17check_shifted_sumIt18custom_constant_orItEEvT_(%struct.State* %0, i64 %loadPC_407e1b, %struct.Memory* %loadMem2_407e1b)
  store %struct.Memory* %call2_407e1b, %struct.Memory** %MEMORY
  %loadMem_407e20 = load %struct.Memory*, %struct.Memory** %MEMORY
  %606 = getelementptr inbounds %struct.State, %struct.State* %0, i32 0, i32 6
  %607 = getelementptr inbounds %struct.GPR, %struct.GPR* %606, i32 0, i32 33
  %608 = getelementptr inbounds %struct.Reg, %struct.Reg* %607, i32 0, i32 0
  %PC.i13 = bitcast %union.anon* %608 to i64*
  %609 = getelementptr inbounds %struct.State, %struct.State* %0, i32 0, i32 6
  %610 = getelementptr inbounds %struct.GPR, %struct.GPR* %609, i32 0, i32 1
  %611 = getelementptr inbounds %struct.Reg, %struct.Reg* %610, i32 0, i32 0
  %RAX.i14 = bitcast %union.anon* %611 to i64*
  %612 = getelementptr inbounds %struct.State, %struct.State* %0, i32 0, i32 6
  %613 = getelementptr inbounds %struct.GPR, %struct.GPR* %612, i32 0, i32 15
  %614 = getelementptr inbounds %struct.Reg, %struct.Reg* %613, i32 0, i32 0
  %RBP.i15 = bitcast %union.anon* %614 to i64*
  %615 = load i64, i64* %RBP.i15
  %616 = sub i64 %615, 28
  %617 = load i64, i64* %PC.i13
  %618 = add i64 %617, 3
  store i64 %618, i64* %PC.i13
  %619 = inttoptr i64 %616 to i32*
  %620 = load i32, i32* %619
  %621 = zext i32 %620 to i64
  store i64 %621, i64* %RAX.i14, align 8
  store %struct.Memory* %loadMem_407e20, %struct.Memory** %MEMORY
  %loadMem_407e23 = load %struct.Memory*, %struct.Memory** %MEMORY
  %622 = getelementptr inbounds %struct.State, %struct.State* %0, i32 0, i32 6
  %623 = getelementptr inbounds %struct.GPR, %struct.GPR* %622, i32 0, i32 33
  %624 = getelementptr inbounds %struct.Reg, %struct.Reg* %623, i32 0, i32 0
  %PC.i12 = bitcast %union.anon* %624 to i64*
  %625 = getelementptr inbounds %struct.State, %struct.State* %0, i32 0, i32 6
  %626 = getelementptr inbounds %struct.GPR, %struct.GPR* %625, i32 0, i32 1
  %627 = getelementptr inbounds %struct.Reg, %struct.Reg* %626, i32 0, i32 0
  %RAX.i = bitcast %union.anon* %627 to i64*
  %628 = load i64, i64* %RAX.i
  %629 = load i64, i64* %PC.i12
  %630 = add i64 %629, 3
  store i64 %630, i64* %PC.i12
  %631 = trunc i64 %628 to i32
  %632 = add i32 1, %631
  %633 = zext i32 %632 to i64
  store i64 %633, i64* %RAX.i, align 8
  %634 = icmp ult i32 %632, %631
  %635 = icmp ult i32 %632, 1
  %636 = or i1 %634, %635
  %637 = zext i1 %636 to i8
  %638 = getelementptr inbounds %struct.State, %struct.State* %0, i64 0, i32 2, i32 1
  store i8 %637, i8* %638, align 1
  %639 = and i32 %632, 255
  %640 = call i32 @llvm.ctpop.i32(i32 %639)
  %641 = trunc i32 %640 to i8
  %642 = and i8 %641, 1
  %643 = xor i8 %642, 1
  %644 = getelementptr inbounds %struct.State, %struct.State* %0, i64 0, i32 2, i32 3
  store i8 %643, i8* %644, align 1
  %645 = xor i64 1, %628
  %646 = trunc i64 %645 to i32
  %647 = xor i32 %646, %632
  %648 = lshr i32 %647, 4
  %649 = trunc i32 %648 to i8
  %650 = and i8 %649, 1
  %651 = getelementptr inbounds %struct.State, %struct.State* %0, i64 0, i32 2, i32 5
  store i8 %650, i8* %651, align 1
  %652 = icmp eq i32 %632, 0
  %653 = zext i1 %652 to i8
  %654 = getelementptr inbounds %struct.State, %struct.State* %0, i64 0, i32 2, i32 7
  store i8 %653, i8* %654, align 1
  %655 = lshr i32 %632, 31
  %656 = trunc i32 %655 to i8
  %657 = getelementptr inbounds %struct.State, %struct.State* %0, i64 0, i32 2, i32 9
  store i8 %656, i8* %657, align 1
  %658 = lshr i32 %631, 31
  %659 = xor i32 %655, %658
  %660 = add i32 %659, %655
  %661 = icmp eq i32 %660, 2
  %662 = zext i1 %661 to i8
  %663 = getelementptr inbounds %struct.State, %struct.State* %0, i64 0, i32 2, i32 13
  store i8 %662, i8* %663, align 1
  store %struct.Memory* %loadMem_407e23, %struct.Memory** %MEMORY
  %loadMem_407e26 = load %struct.Memory*, %struct.Memory** %MEMORY
  %664 = getelementptr inbounds %struct.State, %struct.State* %0, i32 0, i32 6
  %665 = getelementptr inbounds %struct.GPR, %struct.GPR* %664, i32 0, i32 33
  %666 = getelementptr inbounds %struct.Reg, %struct.Reg* %665, i32 0, i32 0
  %PC.i10 = bitcast %union.anon* %666 to i64*
  %667 = getelementptr inbounds %struct.State, %struct.State* %0, i32 0, i32 6
  %668 = getelementptr inbounds %struct.GPR, %struct.GPR* %667, i32 0, i32 1
  %669 = getelementptr inbounds %struct.Reg, %struct.Reg* %668, i32 0, i32 0
  %EAX.i = bitcast %union.anon* %669 to i32*
  %670 = getelementptr inbounds %struct.State, %struct.State* %0, i32 0, i32 6
  %671 = getelementptr inbounds %struct.GPR, %struct.GPR* %670, i32 0, i32 15
  %672 = getelementptr inbounds %struct.Reg, %struct.Reg* %671, i32 0, i32 0
  %RBP.i11 = bitcast %union.anon* %672 to i64*
  %673 = load i64, i64* %RBP.i11
  %674 = sub i64 %673, 28
  %675 = load i32, i32* %EAX.i
  %676 = zext i32 %675 to i64
  %677 = load i64, i64* %PC.i10
  %678 = add i64 %677, 3
  store i64 %678, i64* %PC.i10
  %679 = inttoptr i64 %674 to i32*
  store i32 %675, i32* %679
  store %struct.Memory* %loadMem_407e26, %struct.Memory** %MEMORY
  %loadMem_407e29 = load %struct.Memory*, %struct.Memory** %MEMORY
  %680 = getelementptr inbounds %struct.State, %struct.State* %0, i32 0, i32 6
  %681 = getelementptr inbounds %struct.GPR, %struct.GPR* %680, i32 0, i32 33
  %682 = getelementptr inbounds %struct.Reg, %struct.Reg* %681, i32 0, i32 0
  %PC.i9 = bitcast %union.anon* %682 to i64*
  %683 = load i64, i64* %PC.i9
  %684 = add i64 %683, -106
  %685 = load i64, i64* %PC.i9
  %686 = add i64 %685, 5
  store i64 %686, i64* %PC.i9
  %687 = getelementptr inbounds %struct.State, %struct.State* %0, i64 0, i32 6, i32 33, i32 0, i32 0
  store i64 %684, i64* %687, align 8
  store %struct.Memory* %loadMem_407e29, %struct.Memory** %MEMORY
  br label %block_.L_407dbf

block_.L_407e2e:                                  ; preds = %block_.L_407dbf
  %loadMem1_407e2e = load %struct.Memory*, %struct.Memory** %MEMORY
  %688 = getelementptr inbounds %struct.State, %struct.State* %0, i32 0, i32 6
  %689 = getelementptr inbounds %struct.GPR, %struct.GPR* %688, i32 0, i32 33
  %690 = getelementptr inbounds %struct.Reg, %struct.Reg* %689, i32 0, i32 0
  %PC.i8 = bitcast %union.anon* %690 to i64*
  %691 = load i64, i64* %PC.i8
  %692 = add i64 %691, -28558
  %693 = load i64, i64* %PC.i8
  %694 = add i64 %693, 5
  %695 = load i64, i64* %PC.i8
  %696 = add i64 %695, 5
  store i64 %696, i64* %PC.i8
  %697 = getelementptr inbounds %struct.State, %struct.State* %0, i64 0, i32 6, i32 13, i32 0, i32 0
  %698 = load i64, i64* %697, align 8
  %699 = add i64 %698, -8
  %700 = inttoptr i64 %699 to i64*
  store i64 %694, i64* %700
  store i64 %699, i64* %697, align 8
  %701 = getelementptr inbounds %struct.State, %struct.State* %0, i64 0, i32 6, i32 33, i32 0, i32 0
  store i64 %692, i64* %701, align 8
  store %struct.Memory* %loadMem1_407e2e, %struct.Memory** %MEMORY
  %loadMem2_407e2e = load %struct.Memory*, %struct.Memory** %MEMORY
  %loadPC_407e2e = load i64, i64* %3
  %call2_407e2e = call %struct.Memory* @sub_400ea0._Z5timerv(%struct.State* %0, i64 %loadPC_407e2e, %struct.Memory* %loadMem2_407e2e)
  store %struct.Memory* %call2_407e2e, %struct.Memory** %MEMORY
  %loadMem_407e33 = load %struct.Memory*, %struct.Memory** %MEMORY
  %702 = getelementptr inbounds %struct.State, %struct.State* %0, i32 0, i32 6
  %703 = getelementptr inbounds %struct.GPR, %struct.GPR* %702, i32 0, i32 33
  %704 = getelementptr inbounds %struct.Reg, %struct.Reg* %703, i32 0, i32 0
  %PC.i6 = bitcast %union.anon* %704 to i64*
  %705 = getelementptr inbounds %struct.State, %struct.State* %0, i32 0, i32 6
  %706 = getelementptr inbounds %struct.GPR, %struct.GPR* %705, i32 0, i32 11
  %707 = getelementptr inbounds %struct.Reg, %struct.Reg* %706, i32 0, i32 0
  %RDI.i = bitcast %union.anon* %707 to i64*
  %708 = getelementptr inbounds %struct.State, %struct.State* %0, i32 0, i32 6
  %709 = getelementptr inbounds %struct.GPR, %struct.GPR* %708, i32 0, i32 15
  %710 = getelementptr inbounds %struct.Reg, %struct.Reg* %709, i32 0, i32 0
  %RBP.i7 = bitcast %union.anon* %710 to i64*
  %711 = load i64, i64* %RBP.i7
  %712 = sub i64 %711, 24
  %713 = load i64, i64* %PC.i6
  %714 = add i64 %713, 4
  store i64 %714, i64* %PC.i6
  %715 = inttoptr i64 %712 to i64*
  %716 = load i64, i64* %715
  store i64 %716, i64* %RDI.i, align 8
  store %struct.Memory* %loadMem_407e33, %struct.Memory** %MEMORY
  %loadMem1_407e37 = load %struct.Memory*, %struct.Memory** %MEMORY
  %717 = getelementptr inbounds %struct.State, %struct.State* %0, i32 0, i32 6
  %718 = getelementptr inbounds %struct.GPR, %struct.GPR* %717, i32 0, i32 33
  %719 = getelementptr inbounds %struct.Reg, %struct.Reg* %718, i32 0, i32 0
  %PC.i5 = bitcast %union.anon* %719 to i64*
  %720 = load i64, i64* %PC.i5
  %721 = add i64 %720, -30199
  %722 = load i64, i64* %PC.i5
  %723 = add i64 %722, 5
  %724 = load i64, i64* %PC.i5
  %725 = add i64 %724, 5
  store i64 %725, i64* %PC.i5
  %726 = getelementptr inbounds %struct.State, %struct.State* %0, i64 0, i32 6, i32 13, i32 0, i32 0
  %727 = load i64, i64* %726, align 8
  %728 = add i64 %727, -8
  %729 = inttoptr i64 %728 to i64*
  store i64 %723, i64* %729
  store i64 %728, i64* %726, align 8
  %730 = getelementptr inbounds %struct.State, %struct.State* %0, i64 0, i32 6, i32 33, i32 0, i32 0
  store i64 %721, i64* %730, align 8
  store %struct.Memory* %loadMem1_407e37, %struct.Memory** %MEMORY
  %loadMem2_407e37 = load %struct.Memory*, %struct.Memory** %MEMORY
  %loadPC_407e37 = load i64, i64* %3
  %call2_407e37 = call %struct.Memory* @sub_400840._Z13record_resultdPKc(%struct.State* %0, i64 %loadPC_407e37, %struct.Memory* %loadMem2_407e37)
  store %struct.Memory* %call2_407e37, %struct.Memory** %MEMORY
  %loadMem_407e3c = load %struct.Memory*, %struct.Memory** %MEMORY
  %731 = getelementptr inbounds %struct.State, %struct.State* %0, i32 0, i32 6
  %732 = getelementptr inbounds %struct.GPR, %struct.GPR* %731, i32 0, i32 33
  %733 = getelementptr inbounds %struct.Reg, %struct.Reg* %732, i32 0, i32 0
  %PC.i4 = bitcast %union.anon* %733 to i64*
  %734 = getelementptr inbounds %struct.State, %struct.State* %0, i32 0, i32 6
  %735 = getelementptr inbounds %struct.GPR, %struct.GPR* %734, i32 0, i32 13
  %736 = getelementptr inbounds %struct.Reg, %struct.Reg* %735, i32 0, i32 0
  %RSP.i = bitcast %union.anon* %736 to i64*
  %737 = load i64, i64* %RSP.i
  %738 = load i64, i64* %PC.i4
  %739 = add i64 %738, 4
  store i64 %739, i64* %PC.i4
  %740 = add i64 48, %737
  store i64 %740, i64* %RSP.i, align 8
  %741 = icmp ult i64 %740, %737
  %742 = icmp ult i64 %740, 48
  %743 = or i1 %741, %742
  %744 = zext i1 %743 to i8
  %745 = getelementptr inbounds %struct.State, %struct.State* %0, i64 0, i32 2, i32 1
  store i8 %744, i8* %745, align 1
  %746 = trunc i64 %740 to i32
  %747 = and i32 %746, 255
  %748 = call i32 @llvm.ctpop.i32(i32 %747)
  %749 = trunc i32 %748 to i8
  %750 = and i8 %749, 1
  %751 = xor i8 %750, 1
  %752 = getelementptr inbounds %struct.State, %struct.State* %0, i64 0, i32 2, i32 3
  store i8 %751, i8* %752, align 1
  %753 = xor i64 48, %737
  %754 = xor i64 %753, %740
  %755 = lshr i64 %754, 4
  %756 = trunc i64 %755 to i8
  %757 = and i8 %756, 1
  %758 = getelementptr inbounds %struct.State, %struct.State* %0, i64 0, i32 2, i32 5
  store i8 %757, i8* %758, align 1
  %759 = icmp eq i64 %740, 0
  %760 = zext i1 %759 to i8
  %761 = getelementptr inbounds %struct.State, %struct.State* %0, i64 0, i32 2, i32 7
  store i8 %760, i8* %761, align 1
  %762 = lshr i64 %740, 63
  %763 = trunc i64 %762 to i8
  %764 = getelementptr inbounds %struct.State, %struct.State* %0, i64 0, i32 2, i32 9
  store i8 %763, i8* %764, align 1
  %765 = lshr i64 %737, 63
  %766 = xor i64 %762, %765
  %767 = add i64 %766, %762
  %768 = icmp eq i64 %767, 2
  %769 = zext i1 %768 to i8
  %770 = getelementptr inbounds %struct.State, %struct.State* %0, i64 0, i32 2, i32 13
  store i8 %769, i8* %770, align 1
  store %struct.Memory* %loadMem_407e3c, %struct.Memory** %MEMORY
  %loadMem_407e40 = load %struct.Memory*, %struct.Memory** %MEMORY
  %771 = getelementptr inbounds %struct.State, %struct.State* %0, i32 0, i32 6
  %772 = getelementptr inbounds %struct.GPR, %struct.GPR* %771, i32 0, i32 33
  %773 = getelementptr inbounds %struct.Reg, %struct.Reg* %772, i32 0, i32 0
  %PC.i2 = bitcast %union.anon* %773 to i64*
  %774 = getelementptr inbounds %struct.State, %struct.State* %0, i32 0, i32 6
  %775 = getelementptr inbounds %struct.GPR, %struct.GPR* %774, i32 0, i32 15
  %776 = getelementptr inbounds %struct.Reg, %struct.Reg* %775, i32 0, i32 0
  %RBP.i3 = bitcast %union.anon* %776 to i64*
  %777 = load i64, i64* %PC.i2
  %778 = add i64 %777, 1
  store i64 %778, i64* %PC.i2
  %779 = getelementptr inbounds %struct.State, %struct.State* %0, i64 0, i32 6, i32 13, i32 0, i32 0
  %780 = load i64, i64* %779, align 8
  %781 = add i64 %780, 8
  %782 = inttoptr i64 %780 to i64*
  %783 = load i64, i64* %782
  store i64 %783, i64* %RBP.i3, align 8
  store i64 %781, i64* %779, align 8
  store %struct.Memory* %loadMem_407e40, %struct.Memory** %MEMORY
  %loadMem_407e41 = load %struct.Memory*, %struct.Memory** %MEMORY
  %784 = getelementptr inbounds %struct.State, %struct.State* %0, i32 0, i32 6
  %785 = getelementptr inbounds %struct.GPR, %struct.GPR* %784, i32 0, i32 33
  %786 = getelementptr inbounds %struct.Reg, %struct.Reg* %785, i32 0, i32 0
  %PC.i1 = bitcast %union.anon* %786 to i64*
  %787 = load i64, i64* %PC.i1
  %788 = add i64 %787, 1
  store i64 %788, i64* %PC.i1
  %789 = getelementptr inbounds %struct.State, %struct.State* %0, i64 0, i32 6, i32 33, i32 0, i32 0
  %790 = getelementptr inbounds %struct.State, %struct.State* %0, i64 0, i32 6, i32 13, i32 0, i32 0
  %791 = load i64, i64* %790, align 8
  %792 = inttoptr i64 %791 to i64*
  %793 = load i64, i64* %792
  store i64 %793, i64* %789, align 8
  %794 = add i64 %791, 8
  store i64 %794, i64* %790, align 8
  store %struct.Memory* %loadMem_407e41, %struct.Memory** %MEMORY
  ret %struct.Memory* %loadMem_407e41
}

define %struct.Memory* @routine_pushq__rbp(%struct.State* dereferenceable(3376), i64, %struct.Memory*) {
block_400488:
  %3 = getelementptr inbounds %struct.State, %struct.State* %0, i32 0, i32 6
  %4 = getelementptr inbounds %struct.GPR, %struct.GPR* %3, i32 0, i32 33
  %5 = getelementptr inbounds %struct.Reg, %struct.Reg* %4, i32 0, i32 0
  %PC = bitcast %union.anon* %5 to i64*
  %6 = getelementptr inbounds %struct.State, %struct.State* %0, i32 0, i32 6
  %7 = getelementptr inbounds %struct.GPR, %struct.GPR* %6, i32 0, i32 15
  %8 = getelementptr inbounds %struct.Reg, %struct.Reg* %7, i32 0, i32 0
  %RBP = bitcast %union.anon* %8 to i64*
  %9 = load i64, i64* %RBP
  %10 = load i64, i64* %PC
  %11 = add i64 %10, 1
  store i64 %11, i64* %PC
  %12 = getelementptr inbounds %struct.State, %struct.State* %0, i64 0, i32 6, i32 13, i32 0, i32 0
  %13 = load i64, i64* %12, align 8
  %14 = add i64 %13, -8
  %15 = inttoptr i64 %14 to i64*
  store i64 %9, i64* %15
  store i64 %14, i64* %12, align 8
  ret %struct.Memory* %2
}

define %struct.Memory* @routine_movq__rsp___rbp(%struct.State* dereferenceable(3376), i64, %struct.Memory*) {
block_400488:
  %3 = getelementptr inbounds %struct.State, %struct.State* %0, i32 0, i32 6
  %4 = getelementptr inbounds %struct.GPR, %struct.GPR* %3, i32 0, i32 33
  %5 = getelementptr inbounds %struct.Reg, %struct.Reg* %4, i32 0, i32 0
  %PC = bitcast %union.anon* %5 to i64*
  %6 = getelementptr inbounds %struct.State, %struct.State* %0, i32 0, i32 6
  %7 = getelementptr inbounds %struct.GPR, %struct.GPR* %6, i32 0, i32 13
  %8 = getelementptr inbounds %struct.Reg, %struct.Reg* %7, i32 0, i32 0
  %RSP = bitcast %union.anon* %8 to i64*
  %9 = getelementptr inbounds %struct.State, %struct.State* %0, i32 0, i32 6
  %10 = getelementptr inbounds %struct.GPR, %struct.GPR* %9, i32 0, i32 15
  %11 = getelementptr inbounds %struct.Reg, %struct.Reg* %10, i32 0, i32 0
  %RBP = bitcast %union.anon* %11 to i64*
  %12 = load i64, i64* %RSP
  %13 = load i64, i64* %PC
  %14 = add i64 %13, 3
  store i64 %14, i64* %PC
  store i64 %12, i64* %RBP, align 8
  ret %struct.Memory* %2
}

define %struct.Memory* @routine_subq__0x30___rsp(%struct.State* dereferenceable(3376), i64, %struct.Memory*) {
block_400488:
  %3 = getelementptr inbounds %struct.State, %struct.State* %0, i32 0, i32 6
  %4 = getelementptr inbounds %struct.GPR, %struct.GPR* %3, i32 0, i32 33
  %5 = getelementptr inbounds %struct.Reg, %struct.Reg* %4, i32 0, i32 0
  %PC = bitcast %union.anon* %5 to i64*
  %6 = getelementptr inbounds %struct.State, %struct.State* %0, i32 0, i32 6
  %7 = getelementptr inbounds %struct.GPR, %struct.GPR* %6, i32 0, i32 13
  %8 = getelementptr inbounds %struct.Reg, %struct.Reg* %7, i32 0, i32 0
  %RSP = bitcast %union.anon* %8 to i64*
  %9 = load i64, i64* %RSP
  %10 = load i64, i64* %PC
  %11 = add i64 %10, 4
  store i64 %11, i64* %PC
  %12 = sub i64 %9, 48
  store i64 %12, i64* %RSP, align 8
  %13 = icmp ult i64 %9, 48
  %14 = zext i1 %13 to i8
  %15 = getelementptr inbounds %struct.State, %struct.State* %0, i64 0, i32 2, i32 1
  store i8 %14, i8* %15, align 1
  %16 = trunc i64 %12 to i32
  %17 = and i32 %16, 255
  %18 = call i32 @llvm.ctpop.i32(i32 %17)
  %19 = trunc i32 %18 to i8
  %20 = and i8 %19, 1
  %21 = xor i8 %20, 1
  %22 = getelementptr inbounds %struct.State, %struct.State* %0, i64 0, i32 2, i32 3
  store i8 %21, i8* %22, align 1
  %23 = xor i64 48, %9
  %24 = xor i64 %23, %12
  %25 = lshr i64 %24, 4
  %26 = trunc i64 %25 to i8
  %27 = and i8 %26, 1
  %28 = getelementptr inbounds %struct.State, %struct.State* %0, i64 0, i32 2, i32 5
  store i8 %27, i8* %28, align 1
  %29 = icmp eq i64 %12, 0
  %30 = zext i1 %29 to i8
  %31 = getelementptr inbounds %struct.State, %struct.State* %0, i64 0, i32 2, i32 7
  store i8 %30, i8* %31, align 1
  %32 = lshr i64 %12, 63
  %33 = trunc i64 %32 to i8
  %34 = getelementptr inbounds %struct.State, %struct.State* %0, i64 0, i32 2, i32 9
  store i8 %33, i8* %34, align 1
  %35 = lshr i64 %9, 63
  %36 = xor i64 %32, %35
  %37 = add i64 %36, %35
  %38 = icmp eq i64 %37, 2
  %39 = zext i1 %38 to i8
  %40 = getelementptr inbounds %struct.State, %struct.State* %0, i64 0, i32 2, i32 13
  store i8 %39, i8* %40, align 1
  ret %struct.Memory* %2
}

define %struct.Memory* @routine_movq__rdi__MINUS0x8__rbp_(%struct.State* dereferenceable(3376), i64, %struct.Memory*) {
block_400488:
  %3 = getelementptr inbounds %struct.State, %struct.State* %0, i32 0, i32 6
  %4 = getelementptr inbounds %struct.GPR, %struct.GPR* %3, i32 0, i32 33
  %5 = getelementptr inbounds %struct.Reg, %struct.Reg* %4, i32 0, i32 0
  %PC = bitcast %union.anon* %5 to i64*
  %6 = getelementptr inbounds %struct.State, %struct.State* %0, i32 0, i32 6
  %7 = getelementptr inbounds %struct.GPR, %struct.GPR* %6, i32 0, i32 11
  %8 = getelementptr inbounds %struct.Reg, %struct.Reg* %7, i32 0, i32 0
  %RDI = bitcast %union.anon* %8 to i64*
  %9 = getelementptr inbounds %struct.State, %struct.State* %0, i32 0, i32 6
  %10 = getelementptr inbounds %struct.GPR, %struct.GPR* %9, i32 0, i32 15
  %11 = getelementptr inbounds %struct.Reg, %struct.Reg* %10, i32 0, i32 0
  %RBP = bitcast %union.anon* %11 to i64*
  %12 = load i64, i64* %RBP
  %13 = sub i64 %12, 8
  %14 = load i64, i64* %RDI
  %15 = load i64, i64* %PC
  %16 = add i64 %15, 4
  store i64 %16, i64* %PC
  %17 = inttoptr i64 %13 to i64*
  store i64 %14, i64* %17
  ret %struct.Memory* %2
}

define %struct.Memory* @routine_movl__esi__MINUS0xc__rbp_(%struct.State* dereferenceable(3376), i64, %struct.Memory*) {
block_400488:
  %3 = getelementptr inbounds %struct.State, %struct.State* %0, i32 0, i32 6
  %4 = getelementptr inbounds %struct.GPR, %struct.GPR* %3, i32 0, i32 33
  %5 = getelementptr inbounds %struct.Reg, %struct.Reg* %4, i32 0, i32 0
  %PC = bitcast %union.anon* %5 to i64*
  %6 = getelementptr inbounds %struct.State, %struct.State* %0, i32 0, i32 6
  %7 = getelementptr inbounds %struct.GPR, %struct.GPR* %6, i32 0, i32 9
  %8 = getelementptr inbounds %struct.Reg, %struct.Reg* %7, i32 0, i32 0
  %ESI = bitcast %union.anon* %8 to i32*
  %9 = getelementptr inbounds %struct.State, %struct.State* %0, i32 0, i32 6
  %10 = getelementptr inbounds %struct.GPR, %struct.GPR* %9, i32 0, i32 15
  %11 = getelementptr inbounds %struct.Reg, %struct.Reg* %10, i32 0, i32 0
  %RBP = bitcast %union.anon* %11 to i64*
  %12 = load i64, i64* %RBP
  %13 = sub i64 %12, 12
  %14 = load i32, i32* %ESI
  %15 = zext i32 %14 to i64
  %16 = load i64, i64* %PC
  %17 = add i64 %16, 3
  store i64 %17, i64* %PC
  %18 = inttoptr i64 %13 to i32*
  store i32 %14, i32* %18
  ret %struct.Memory* %2
}

define %struct.Memory* @routine_movq__rdx__MINUS0x18__rbp_(%struct.State* dereferenceable(3376), i64, %struct.Memory*) {
block_400488:
  %3 = getelementptr inbounds %struct.State, %struct.State* %0, i32 0, i32 6
  %4 = getelementptr inbounds %struct.GPR, %struct.GPR* %3, i32 0, i32 33
  %5 = getelementptr inbounds %struct.Reg, %struct.Reg* %4, i32 0, i32 0
  %PC = bitcast %union.anon* %5 to i64*
  %6 = getelementptr inbounds %struct.State, %struct.State* %0, i32 0, i32 6
  %7 = getelementptr inbounds %struct.GPR, %struct.GPR* %6, i32 0, i32 7
  %8 = getelementptr inbounds %struct.Reg, %struct.Reg* %7, i32 0, i32 0
  %RDX = bitcast %union.anon* %8 to i64*
  %9 = getelementptr inbounds %struct.State, %struct.State* %0, i32 0, i32 6
  %10 = getelementptr inbounds %struct.GPR, %struct.GPR* %9, i32 0, i32 15
  %11 = getelementptr inbounds %struct.Reg, %struct.Reg* %10, i32 0, i32 0
  %RBP = bitcast %union.anon* %11 to i64*
  %12 = load i64, i64* %RBP
  %13 = sub i64 %12, 24
  %14 = load i64, i64* %RDX
  %15 = load i64, i64* %PC
  %16 = add i64 %15, 4
  store i64 %16, i64* %PC
  %17 = inttoptr i64 %13 to i64*
  store i64 %14, i64* %17
  ret %struct.Memory* %2
}

define %struct.Memory* @routine_callq_._Z11start_timerv(%struct.State* dereferenceable(3376), i64, %struct.Memory*, i64 %rel_off1, i64 %rel_off2, i64 %rel_off3) {
block_400488:
  %3 = getelementptr inbounds %struct.State, %struct.State* %0, i32 0, i32 6
  %4 = getelementptr inbounds %struct.GPR, %struct.GPR* %3, i32 0, i32 33
  %5 = getelementptr inbounds %struct.Reg, %struct.Reg* %4, i32 0, i32 0
  %PC = bitcast %union.anon* %5 to i64*
  %6 = load i64, i64* %PC
  %7 = add i64 %6, %rel_off1
  %8 = load i64, i64* %PC
  %9 = add i64 %8, %rel_off2
  %10 = load i64, i64* %PC
  %11 = add i64 %10, %rel_off3
  store i64 %11, i64* %PC
  %12 = getelementptr inbounds %struct.State, %struct.State* %0, i64 0, i32 6, i32 13, i32 0, i32 0
  %13 = load i64, i64* %12, align 8
  %14 = add i64 %13, -8
  %15 = inttoptr i64 %14 to i64*
  store i64 %9, i64* %15
  store i64 %14, i64* %12, align 8
  %16 = getelementptr inbounds %struct.State, %struct.State* %0, i64 0, i32 6, i32 33, i32 0, i32 0
  store i64 %7, i64* %16, align 8
  ret %struct.Memory* %2
}

define %struct.Memory* @routine_movl__0x0__MINUS0x1c__rbp_(%struct.State* dereferenceable(3376), i64, %struct.Memory*) {
block_400488:
  %3 = getelementptr inbounds %struct.State, %struct.State* %0, i32 0, i32 6
  %4 = getelementptr inbounds %struct.GPR, %struct.GPR* %3, i32 0, i32 33
  %5 = getelementptr inbounds %struct.Reg, %struct.Reg* %4, i32 0, i32 0
  %PC = bitcast %union.anon* %5 to i64*
  %6 = getelementptr inbounds %struct.State, %struct.State* %0, i32 0, i32 6
  %7 = getelementptr inbounds %struct.GPR, %struct.GPR* %6, i32 0, i32 15
  %8 = getelementptr inbounds %struct.Reg, %struct.Reg* %7, i32 0, i32 0
  %RBP = bitcast %union.anon* %8 to i64*
  %9 = load i64, i64* %RBP
  %10 = sub i64 %9, 28
  %11 = load i64, i64* %PC
  %12 = add i64 %11, 7
  store i64 %12, i64* %PC
  %13 = inttoptr i64 %10 to i32*
  store i32 0, i32* %13
  ret %struct.Memory* %2
}

define %struct.Memory* @routine_movl_MINUS0x1c__rbp____eax(%struct.State* dereferenceable(3376), i64, %struct.Memory*) {
block_400488:
  %3 = getelementptr inbounds %struct.State, %struct.State* %0, i32 0, i32 6
  %4 = getelementptr inbounds %struct.GPR, %struct.GPR* %3, i32 0, i32 33
  %5 = getelementptr inbounds %struct.Reg, %struct.Reg* %4, i32 0, i32 0
  %PC = bitcast %union.anon* %5 to i64*
  %6 = getelementptr inbounds %struct.State, %struct.State* %0, i32 0, i32 6
  %7 = getelementptr inbounds %struct.GPR, %struct.GPR* %6, i32 0, i32 1
  %8 = getelementptr inbounds %struct.Reg, %struct.Reg* %7, i32 0, i32 0
  %RAX = bitcast %union.anon* %8 to i64*
  %9 = getelementptr inbounds %struct.State, %struct.State* %0, i32 0, i32 6
  %10 = getelementptr inbounds %struct.GPR, %struct.GPR* %9, i32 0, i32 15
  %11 = getelementptr inbounds %struct.Reg, %struct.Reg* %10, i32 0, i32 0
  %RBP = bitcast %union.anon* %11 to i64*
  %12 = load i64, i64* %RBP
  %13 = sub i64 %12, 28
  %14 = load i64, i64* %PC
  %15 = add i64 %14, 3
  store i64 %15, i64* %PC
  %16 = inttoptr i64 %13 to i32*
  %17 = load i32, i32* %16
  %18 = zext i32 %17 to i64
  store i64 %18, i64* %RAX, align 8
  ret %struct.Memory* %2
}

define %struct.Memory* @routine_cmpl_0x6220c0___eax(%struct.State* dereferenceable(3376), i64, %struct.Memory*) {
block_400488:
  %3 = getelementptr inbounds %struct.State, %struct.State* %0, i32 0, i32 6
  %4 = getelementptr inbounds %struct.GPR, %struct.GPR* %3, i32 0, i32 33
  %5 = getelementptr inbounds %struct.Reg, %struct.Reg* %4, i32 0, i32 0
  %PC = bitcast %union.anon* %5 to i64*
  %6 = getelementptr inbounds %struct.State, %struct.State* %0, i32 0, i32 6
  %7 = getelementptr inbounds %struct.GPR, %struct.GPR* %6, i32 0, i32 1
  %8 = getelementptr inbounds %struct.Reg, %struct.Reg* %7, i32 0, i32 0
  %EAX = bitcast %union.anon* %8 to i32*
  %9 = load i32, i32* %EAX
  %10 = zext i32 %9 to i64
  %11 = load i64, i64* %PC
  %12 = add i64 %11, 7
  store i64 %12, i64* %PC
  %13 = load i32, i32* inttoptr (i64 6430912 to i32*)
  %14 = sub i32 %9, %13
  %15 = icmp ult i32 %9, %13
  %16 = zext i1 %15 to i8
  %17 = getelementptr inbounds %struct.State, %struct.State* %0, i64 0, i32 2, i32 1
  store i8 %16, i8* %17, align 1
  %18 = and i32 %14, 255
  %19 = call i32 @llvm.ctpop.i32(i32 %18)
  %20 = trunc i32 %19 to i8
  %21 = and i8 %20, 1
  %22 = xor i8 %21, 1
  %23 = getelementptr inbounds %struct.State, %struct.State* %0, i64 0, i32 2, i32 3
  store i8 %22, i8* %23, align 1
  %24 = xor i32 %13, %9
  %25 = xor i32 %24, %14
  %26 = lshr i32 %25, 4
  %27 = trunc i32 %26 to i8
  %28 = and i8 %27, 1
  %29 = getelementptr inbounds %struct.State, %struct.State* %0, i64 0, i32 2, i32 5
  store i8 %28, i8* %29, align 1
  %30 = icmp eq i32 %14, 0
  %31 = zext i1 %30 to i8
  %32 = getelementptr inbounds %struct.State, %struct.State* %0, i64 0, i32 2, i32 7
  store i8 %31, i8* %32, align 1
  %33 = lshr i32 %14, 31
  %34 = trunc i32 %33 to i8
  %35 = getelementptr inbounds %struct.State, %struct.State* %0, i64 0, i32 2, i32 9
  store i8 %34, i8* %35, align 1
  %36 = lshr i32 %9, 31
  %37 = lshr i32 %13, 31
  %38 = xor i32 %37, %36
  %39 = xor i32 %33, %36
  %40 = add i32 %39, %38
  %41 = icmp eq i32 %40, 2
  %42 = zext i1 %41 to i8
  %43 = getelementptr inbounds %struct.State, %struct.State* %0, i64 0, i32 2, i32 13
  store i8 %42, i8* %43, align 1
  ret %struct.Memory* %2
}

define %struct.Memory* @routine_jge_.L_407e2e(%struct.State* dereferenceable(3376), i64, %struct.Memory*, i8* %BRANCH_TAKEN, i64 %rel_off1, i64 %rel_off2, i64 %rel_off3) {
block_400488:
  %3 = getelementptr inbounds %struct.State, %struct.State* %0, i32 0, i32 6
  %4 = getelementptr inbounds %struct.GPR, %struct.GPR* %3, i32 0, i32 33
  %5 = getelementptr inbounds %struct.Reg, %struct.Reg* %4, i32 0, i32 0
  %PC = bitcast %union.anon* %5 to i64*
  %6 = load i64, i64* %PC
  %7 = add i64 %6, %rel_off1
  %8 = load i64, i64* %PC
  %9 = add i64 %8, %rel_off2
  %10 = load i64, i64* %PC
  %11 = add i64 %10, %rel_off3
  store i64 %11, i64* %PC
  %12 = getelementptr inbounds %struct.State, %struct.State* %0, i64 0, i32 2, i32 9
  %13 = load i8, i8* %12, align 1
  %14 = icmp ne i8 %13, 0
  %15 = getelementptr inbounds %struct.State, %struct.State* %0, i64 0, i32 2, i32 13
  %16 = load i8, i8* %15, align 1
  %17 = icmp ne i8 %16, 0
  %18 = xor i1 %14, %17
  %19 = xor i1 %18, true
  %20 = zext i1 %19 to i8
  store i8 %20, i8* %BRANCH_TAKEN, align 1
  %21 = getelementptr inbounds %struct.State, %struct.State* %0, i64 0, i32 6, i32 33, i32 0, i32 0
  %22 = select i1 %18, i64 %9, i64 %7
  store i64 %22, i64* %21, align 8
  ret %struct.Memory* %2
}

define %struct.Memory* @routine_movw__0x0__MINUS0x1e__rbp_(%struct.State* dereferenceable(3376), i64, %struct.Memory*) {
block_400488:
  %3 = getelementptr inbounds %struct.State, %struct.State* %0, i32 0, i32 6
  %4 = getelementptr inbounds %struct.GPR, %struct.GPR* %3, i32 0, i32 33
  %5 = getelementptr inbounds %struct.Reg, %struct.Reg* %4, i32 0, i32 0
  %PC = bitcast %union.anon* %5 to i64*
  %6 = getelementptr inbounds %struct.State, %struct.State* %0, i32 0, i32 6
  %7 = getelementptr inbounds %struct.GPR, %struct.GPR* %6, i32 0, i32 15
  %8 = getelementptr inbounds %struct.Reg, %struct.Reg* %7, i32 0, i32 0
  %RBP = bitcast %union.anon* %8 to i64*
  %9 = load i64, i64* %RBP
  %10 = sub i64 %9, 30
  %11 = load i64, i64* %PC
  %12 = add i64 %11, 6
  store i64 %12, i64* %PC
  %13 = inttoptr i64 %10 to i16*
  store i16 0, i16* %13
  ret %struct.Memory* %2
}

define %struct.Memory* @routine_movl__0x0__MINUS0x24__rbp_(%struct.State* dereferenceable(3376), i64, %struct.Memory*) {
block_400488:
  %3 = getelementptr inbounds %struct.State, %struct.State* %0, i32 0, i32 6
  %4 = getelementptr inbounds %struct.GPR, %struct.GPR* %3, i32 0, i32 33
  %5 = getelementptr inbounds %struct.Reg, %struct.Reg* %4, i32 0, i32 0
  %PC = bitcast %union.anon* %5 to i64*
  %6 = getelementptr inbounds %struct.State, %struct.State* %0, i32 0, i32 6
  %7 = getelementptr inbounds %struct.GPR, %struct.GPR* %6, i32 0, i32 15
  %8 = getelementptr inbounds %struct.Reg, %struct.Reg* %7, i32 0, i32 0
  %RBP = bitcast %union.anon* %8 to i64*
  %9 = load i64, i64* %RBP
  %10 = sub i64 %9, 36
  %11 = load i64, i64* %PC
  %12 = add i64 %11, 7
  store i64 %12, i64* %PC
  %13 = inttoptr i64 %10 to i32*
  store i32 0, i32* %13
  ret %struct.Memory* %2
}

define %struct.Memory* @routine_movl_MINUS0x24__rbp____eax(%struct.State* dereferenceable(3376), i64, %struct.Memory*) {
block_400488:
  %3 = getelementptr inbounds %struct.State, %struct.State* %0, i32 0, i32 6
  %4 = getelementptr inbounds %struct.GPR, %struct.GPR* %3, i32 0, i32 33
  %5 = getelementptr inbounds %struct.Reg, %struct.Reg* %4, i32 0, i32 0
  %PC = bitcast %union.anon* %5 to i64*
  %6 = getelementptr inbounds %struct.State, %struct.State* %0, i32 0, i32 6
  %7 = getelementptr inbounds %struct.GPR, %struct.GPR* %6, i32 0, i32 1
  %8 = getelementptr inbounds %struct.Reg, %struct.Reg* %7, i32 0, i32 0
  %RAX = bitcast %union.anon* %8 to i64*
  %9 = getelementptr inbounds %struct.State, %struct.State* %0, i32 0, i32 6
  %10 = getelementptr inbounds %struct.GPR, %struct.GPR* %9, i32 0, i32 15
  %11 = getelementptr inbounds %struct.Reg, %struct.Reg* %10, i32 0, i32 0
  %RBP = bitcast %union.anon* %11 to i64*
  %12 = load i64, i64* %RBP
  %13 = sub i64 %12, 36
  %14 = load i64, i64* %PC
  %15 = add i64 %14, 3
  store i64 %15, i64* %PC
  %16 = inttoptr i64 %13 to i32*
  %17 = load i32, i32* %16
  %18 = zext i32 %17 to i64
  store i64 %18, i64* %RAX, align 8
  ret %struct.Memory* %2
}

define %struct.Memory* @routine_cmpl_MINUS0xc__rbp____eax(%struct.State* dereferenceable(3376), i64, %struct.Memory*) {
block_400488:
  %3 = getelementptr inbounds %struct.State, %struct.State* %0, i32 0, i32 6
  %4 = getelementptr inbounds %struct.GPR, %struct.GPR* %3, i32 0, i32 33
  %5 = getelementptr inbounds %struct.Reg, %struct.Reg* %4, i32 0, i32 0
  %PC = bitcast %union.anon* %5 to i64*
  %6 = getelementptr inbounds %struct.State, %struct.State* %0, i32 0, i32 6
  %7 = getelementptr inbounds %struct.GPR, %struct.GPR* %6, i32 0, i32 1
  %8 = getelementptr inbounds %struct.Reg, %struct.Reg* %7, i32 0, i32 0
  %EAX = bitcast %union.anon* %8 to i32*
  %9 = getelementptr inbounds %struct.State, %struct.State* %0, i32 0, i32 6
  %10 = getelementptr inbounds %struct.GPR, %struct.GPR* %9, i32 0, i32 15
  %11 = getelementptr inbounds %struct.Reg, %struct.Reg* %10, i32 0, i32 0
  %RBP = bitcast %union.anon* %11 to i64*
  %12 = load i32, i32* %EAX
  %13 = zext i32 %12 to i64
  %14 = load i64, i64* %RBP
  %15 = sub i64 %14, 12
  %16 = load i64, i64* %PC
  %17 = add i64 %16, 3
  store i64 %17, i64* %PC
  %18 = inttoptr i64 %15 to i32*
  %19 = load i32, i32* %18
  %20 = sub i32 %12, %19
  %21 = icmp ult i32 %12, %19
  %22 = zext i1 %21 to i8
  %23 = getelementptr inbounds %struct.State, %struct.State* %0, i64 0, i32 2, i32 1
  store i8 %22, i8* %23, align 1
  %24 = and i32 %20, 255
  %25 = call i32 @llvm.ctpop.i32(i32 %24)
  %26 = trunc i32 %25 to i8
  %27 = and i8 %26, 1
  %28 = xor i8 %27, 1
  %29 = getelementptr inbounds %struct.State, %struct.State* %0, i64 0, i32 2, i32 3
  store i8 %28, i8* %29, align 1
  %30 = xor i32 %19, %12
  %31 = xor i32 %30, %20
  %32 = lshr i32 %31, 4
  %33 = trunc i32 %32 to i8
  %34 = and i8 %33, 1
  %35 = getelementptr inbounds %struct.State, %struct.State* %0, i64 0, i32 2, i32 5
  store i8 %34, i8* %35, align 1
  %36 = icmp eq i32 %20, 0
  %37 = zext i1 %36 to i8
  %38 = getelementptr inbounds %struct.State, %struct.State* %0, i64 0, i32 2, i32 7
  store i8 %37, i8* %38, align 1
  %39 = lshr i32 %20, 31
  %40 = trunc i32 %39 to i8
  %41 = getelementptr inbounds %struct.State, %struct.State* %0, i64 0, i32 2, i32 9
  store i8 %40, i8* %41, align 1
  %42 = lshr i32 %12, 31
  %43 = lshr i32 %19, 31
  %44 = xor i32 %43, %42
  %45 = xor i32 %39, %42
  %46 = add i32 %45, %44
  %47 = icmp eq i32 %46, 2
  %48 = zext i1 %47 to i8
  %49 = getelementptr inbounds %struct.State, %struct.State* %0, i64 0, i32 2, i32 13
  store i8 %48, i8* %49, align 1
  ret %struct.Memory* %2
}

define %struct.Memory* @routine_jge_.L_407e17(%struct.State* dereferenceable(3376), i64, %struct.Memory*, i8* %BRANCH_TAKEN, i64 %rel_off1, i64 %rel_off2, i64 %rel_off3) {
block_400488:
  %3 = getelementptr inbounds %struct.State, %struct.State* %0, i32 0, i32 6
  %4 = getelementptr inbounds %struct.GPR, %struct.GPR* %3, i32 0, i32 33
  %5 = getelementptr inbounds %struct.Reg, %struct.Reg* %4, i32 0, i32 0
  %PC = bitcast %union.anon* %5 to i64*
  %6 = load i64, i64* %PC
  %7 = add i64 %6, %rel_off1
  %8 = load i64, i64* %PC
  %9 = add i64 %8, %rel_off2
  %10 = load i64, i64* %PC
  %11 = add i64 %10, %rel_off3
  store i64 %11, i64* %PC
  %12 = getelementptr inbounds %struct.State, %struct.State* %0, i64 0, i32 2, i32 9
  %13 = load i8, i8* %12, align 1
  %14 = icmp ne i8 %13, 0
  %15 = getelementptr inbounds %struct.State, %struct.State* %0, i64 0, i32 2, i32 13
  %16 = load i8, i8* %15, align 1
  %17 = icmp ne i8 %16, 0
  %18 = xor i1 %14, %17
  %19 = xor i1 %18, true
  %20 = zext i1 %19 to i8
  store i8 %20, i8* %BRANCH_TAKEN, align 1
  %21 = getelementptr inbounds %struct.State, %struct.State* %0, i64 0, i32 6, i32 33, i32 0, i32 0
  %22 = select i1 %18, i64 %9, i64 %7
  store i64 %22, i64* %21, align 8
  ret %struct.Memory* %2
}

define %struct.Memory* @routine_movq_MINUS0x8__rbp____rax(%struct.State* dereferenceable(3376), i64, %struct.Memory*) {
block_400488:
  %3 = getelementptr inbounds %struct.State, %struct.State* %0, i32 0, i32 6
  %4 = getelementptr inbounds %struct.GPR, %struct.GPR* %3, i32 0, i32 33
  %5 = getelementptr inbounds %struct.Reg, %struct.Reg* %4, i32 0, i32 0
  %PC = bitcast %union.anon* %5 to i64*
  %6 = getelementptr inbounds %struct.State, %struct.State* %0, i32 0, i32 6
  %7 = getelementptr inbounds %struct.GPR, %struct.GPR* %6, i32 0, i32 1
  %8 = getelementptr inbounds %struct.Reg, %struct.Reg* %7, i32 0, i32 0
  %RAX = bitcast %union.anon* %8 to i64*
  %9 = getelementptr inbounds %struct.State, %struct.State* %0, i32 0, i32 6
  %10 = getelementptr inbounds %struct.GPR, %struct.GPR* %9, i32 0, i32 15
  %11 = getelementptr inbounds %struct.Reg, %struct.Reg* %10, i32 0, i32 0
  %RBP = bitcast %union.anon* %11 to i64*
  %12 = load i64, i64* %RBP
  %13 = sub i64 %12, 8
  %14 = load i64, i64* %PC
  %15 = add i64 %14, 4
  store i64 %15, i64* %PC
  %16 = inttoptr i64 %13 to i64*
  %17 = load i64, i64* %16
  store i64 %17, i64* %RAX, align 8
  ret %struct.Memory* %2
}

define %struct.Memory* @routine_movslq_MINUS0x24__rbp____rcx(%struct.State* dereferenceable(3376), i64, %struct.Memory*) {
block_400488:
  %3 = getelementptr inbounds %struct.State, %struct.State* %0, i32 0, i32 6
  %4 = getelementptr inbounds %struct.GPR, %struct.GPR* %3, i32 0, i32 33
  %5 = getelementptr inbounds %struct.Reg, %struct.Reg* %4, i32 0, i32 0
  %PC = bitcast %union.anon* %5 to i64*
  %6 = getelementptr inbounds %struct.State, %struct.State* %0, i32 0, i32 6
  %7 = getelementptr inbounds %struct.GPR, %struct.GPR* %6, i32 0, i32 5
  %8 = getelementptr inbounds %struct.Reg, %struct.Reg* %7, i32 0, i32 0
  %RCX = bitcast %union.anon* %8 to i64*
  %9 = getelementptr inbounds %struct.State, %struct.State* %0, i32 0, i32 6
  %10 = getelementptr inbounds %struct.GPR, %struct.GPR* %9, i32 0, i32 15
  %11 = getelementptr inbounds %struct.Reg, %struct.Reg* %10, i32 0, i32 0
  %RBP = bitcast %union.anon* %11 to i64*
  %12 = load i64, i64* %RBP
  %13 = sub i64 %12, 36
  %14 = load i64, i64* %PC
  %15 = add i64 %14, 4
  store i64 %15, i64* %PC
  %16 = inttoptr i64 %13 to i32*
  %17 = load i32, i32* %16
  %18 = sext i32 %17 to i64
  store i64 %18, i64* %RCX, align 8
  ret %struct.Memory* %2
}

define %struct.Memory* @routine_movzwl___rax__rcx_2____edi(%struct.State* dereferenceable(3376), i64, %struct.Memory*) {
block_400488:
  %3 = getelementptr inbounds %struct.State, %struct.State* %0, i32 0, i32 6
  %4 = getelementptr inbounds %struct.GPR, %struct.GPR* %3, i32 0, i32 33
  %5 = getelementptr inbounds %struct.Reg, %struct.Reg* %4, i32 0, i32 0
  %PC = bitcast %union.anon* %5 to i64*
  %6 = getelementptr inbounds %struct.State, %struct.State* %0, i32 0, i32 6
  %7 = getelementptr inbounds %struct.GPR, %struct.GPR* %6, i32 0, i32 1
  %8 = getelementptr inbounds %struct.Reg, %struct.Reg* %7, i32 0, i32 0
  %RAX = bitcast %union.anon* %8 to i64*
  %9 = getelementptr inbounds %struct.State, %struct.State* %0, i32 0, i32 6
  %10 = getelementptr inbounds %struct.GPR, %struct.GPR* %9, i32 0, i32 5
  %11 = getelementptr inbounds %struct.Reg, %struct.Reg* %10, i32 0, i32 0
  %RCX = bitcast %union.anon* %11 to i64*
  %12 = getelementptr inbounds %struct.State, %struct.State* %0, i32 0, i32 6
  %13 = getelementptr inbounds %struct.GPR, %struct.GPR* %12, i32 0, i32 11
  %14 = getelementptr inbounds %struct.Reg, %struct.Reg* %13, i32 0, i32 0
  %RDI = bitcast %union.anon* %14 to i64*
  %15 = load i64, i64* %RAX
  %16 = load i64, i64* %RCX
  %17 = mul i64 %16, 2
  %18 = add i64 %17, %15
  %19 = load i64, i64* %PC
  %20 = add i64 %19, 4
  store i64 %20, i64* %PC
  %21 = inttoptr i64 %18 to i16*
  %22 = load i16, i16* %21
  %23 = zext i16 %22 to i64
  store i64 %23, i64* %RDI, align 8
  ret %struct.Memory* %2
}

define %struct.Memory* @routine_callq_._ZN18custom_constant_orItE8do_shiftEt(%struct.State* dereferenceable(3376), i64, %struct.Memory*, i64 %rel_off1, i64 %rel_off2, i64 %rel_off3) {
block_400488:
  %3 = getelementptr inbounds %struct.State, %struct.State* %0, i32 0, i32 6
  %4 = getelementptr inbounds %struct.GPR, %struct.GPR* %3, i32 0, i32 33
  %5 = getelementptr inbounds %struct.Reg, %struct.Reg* %4, i32 0, i32 0
  %PC = bitcast %union.anon* %5 to i64*
  %6 = load i64, i64* %PC
  %7 = add i64 %6, %rel_off1
  %8 = load i64, i64* %PC
  %9 = add i64 %8, %rel_off2
  %10 = load i64, i64* %PC
  %11 = add i64 %10, %rel_off3
  store i64 %11, i64* %PC
  %12 = getelementptr inbounds %struct.State, %struct.State* %0, i64 0, i32 6, i32 13, i32 0, i32 0
  %13 = load i64, i64* %12, align 8
  %14 = add i64 %13, -8
  %15 = inttoptr i64 %14 to i64*
  store i64 %9, i64* %15
  store i64 %14, i64* %12, align 8
  %16 = getelementptr inbounds %struct.State, %struct.State* %0, i64 0, i32 6, i32 33, i32 0, i32 0
  store i64 %7, i64* %16, align 8
  ret %struct.Memory* %2
}

define %struct.Memory* @routine_movzwl__ax___edi(%struct.State* dereferenceable(3376), i64, %struct.Memory*) {
block_400488:
  %3 = getelementptr inbounds %struct.State, %struct.State* %0, i32 0, i32 6
  %4 = getelementptr inbounds %struct.GPR, %struct.GPR* %3, i32 0, i32 33
  %5 = getelementptr inbounds %struct.Reg, %struct.Reg* %4, i32 0, i32 0
  %PC = bitcast %union.anon* %5 to i64*
  %6 = getelementptr inbounds %struct.State, %struct.State* %0, i32 0, i32 6
  %7 = getelementptr inbounds %struct.GPR, %struct.GPR* %6, i32 0, i32 1
  %8 = getelementptr inbounds %struct.Reg, %struct.Reg* %7, i32 0, i32 0
  %AX = bitcast %union.anon* %8 to i16*
  %9 = getelementptr inbounds %struct.State, %struct.State* %0, i32 0, i32 6
  %10 = getelementptr inbounds %struct.GPR, %struct.GPR* %9, i32 0, i32 11
  %11 = getelementptr inbounds %struct.Reg, %struct.Reg* %10, i32 0, i32 0
  %RDI = bitcast %union.anon* %11 to i64*
  %12 = load i16, i16* %AX
  %13 = zext i16 %12 to i64
  %14 = load i64, i64* %PC
  %15 = add i64 %14, 3
  store i64 %15, i64* %PC
  %16 = and i64 %13, 65535
  store i64 %16, i64* %RDI, align 8
  ret %struct.Memory* %2
}

define %struct.Memory* @routine_movzwl_MINUS0x1e__rbp____edx(%struct.State* dereferenceable(3376), i64, %struct.Memory*) {
block_400488:
  %3 = getelementptr inbounds %struct.State, %struct.State* %0, i32 0, i32 6
  %4 = getelementptr inbounds %struct.GPR, %struct.GPR* %3, i32 0, i32 33
  %5 = getelementptr inbounds %struct.Reg, %struct.Reg* %4, i32 0, i32 0
  %PC = bitcast %union.anon* %5 to i64*
  %6 = getelementptr inbounds %struct.State, %struct.State* %0, i32 0, i32 6
  %7 = getelementptr inbounds %struct.GPR, %struct.GPR* %6, i32 0, i32 7
  %8 = getelementptr inbounds %struct.Reg, %struct.Reg* %7, i32 0, i32 0
  %RDX = bitcast %union.anon* %8 to i64*
  %9 = getelementptr inbounds %struct.State, %struct.State* %0, i32 0, i32 6
  %10 = getelementptr inbounds %struct.GPR, %struct.GPR* %9, i32 0, i32 15
  %11 = getelementptr inbounds %struct.Reg, %struct.Reg* %10, i32 0, i32 0
  %RBP = bitcast %union.anon* %11 to i64*
  %12 = load i64, i64* %RBP
  %13 = sub i64 %12, 30
  %14 = load i64, i64* %PC
  %15 = add i64 %14, 4
  store i64 %15, i64* %PC
  %16 = inttoptr i64 %13 to i16*
  %17 = load i16, i16* %16
  %18 = zext i16 %17 to i64
  store i64 %18, i64* %RDX, align 8
  ret %struct.Memory* %2
}

define %struct.Memory* @routine_addl__edi___edx(%struct.State* dereferenceable(3376), i64, %struct.Memory*) {
block_400488:
  %3 = getelementptr inbounds %struct.State, %struct.State* %0, i32 0, i32 6
  %4 = getelementptr inbounds %struct.GPR, %struct.GPR* %3, i32 0, i32 33
  %5 = getelementptr inbounds %struct.Reg, %struct.Reg* %4, i32 0, i32 0
  %PC = bitcast %union.anon* %5 to i64*
  %6 = getelementptr inbounds %struct.State, %struct.State* %0, i32 0, i32 6
  %7 = getelementptr inbounds %struct.GPR, %struct.GPR* %6, i32 0, i32 11
  %8 = getelementptr inbounds %struct.Reg, %struct.Reg* %7, i32 0, i32 0
  %EDI = bitcast %union.anon* %8 to i32*
  %9 = getelementptr inbounds %struct.State, %struct.State* %0, i32 0, i32 6
  %10 = getelementptr inbounds %struct.GPR, %struct.GPR* %9, i32 0, i32 7
  %11 = getelementptr inbounds %struct.Reg, %struct.Reg* %10, i32 0, i32 0
  %RDX = bitcast %union.anon* %11 to i64*
  %12 = load i64, i64* %RDX
  %13 = load i32, i32* %EDI
  %14 = zext i32 %13 to i64
  %15 = load i64, i64* %PC
  %16 = add i64 %15, 2
  store i64 %16, i64* %PC
  %17 = trunc i64 %12 to i32
  %18 = add i32 %13, %17
  %19 = zext i32 %18 to i64
  store i64 %19, i64* %RDX, align 8
  %20 = icmp ult i32 %18, %17
  %21 = icmp ult i32 %18, %13
  %22 = or i1 %20, %21
  %23 = zext i1 %22 to i8
  %24 = getelementptr inbounds %struct.State, %struct.State* %0, i64 0, i32 2, i32 1
  store i8 %23, i8* %24, align 1
  %25 = and i32 %18, 255
  %26 = call i32 @llvm.ctpop.i32(i32 %25)
  %27 = trunc i32 %26 to i8
  %28 = and i8 %27, 1
  %29 = xor i8 %28, 1
  %30 = getelementptr inbounds %struct.State, %struct.State* %0, i64 0, i32 2, i32 3
  store i8 %29, i8* %30, align 1
  %31 = xor i64 %14, %12
  %32 = trunc i64 %31 to i32
  %33 = xor i32 %32, %18
  %34 = lshr i32 %33, 4
  %35 = trunc i32 %34 to i8
  %36 = and i8 %35, 1
  %37 = getelementptr inbounds %struct.State, %struct.State* %0, i64 0, i32 2, i32 5
  store i8 %36, i8* %37, align 1
  %38 = icmp eq i32 %18, 0
  %39 = zext i1 %38 to i8
  %40 = getelementptr inbounds %struct.State, %struct.State* %0, i64 0, i32 2, i32 7
  store i8 %39, i8* %40, align 1
  %41 = lshr i32 %18, 31
  %42 = trunc i32 %41 to i8
  %43 = getelementptr inbounds %struct.State, %struct.State* %0, i64 0, i32 2, i32 9
  store i8 %42, i8* %43, align 1
  %44 = lshr i32 %17, 31
  %45 = lshr i32 %13, 31
  %46 = xor i32 %41, %44
  %47 = xor i32 %41, %45
  %48 = add i32 %46, %47
  %49 = icmp eq i32 %48, 2
  %50 = zext i1 %49 to i8
  %51 = getelementptr inbounds %struct.State, %struct.State* %0, i64 0, i32 2, i32 13
  store i8 %50, i8* %51, align 1
  ret %struct.Memory* %2
}

define %struct.Memory* @routine_movw__dx___ax(%struct.State* dereferenceable(3376), i64, %struct.Memory*) {
block_400488:
  %3 = getelementptr inbounds %struct.State, %struct.State* %0, i32 0, i32 6
  %4 = getelementptr inbounds %struct.GPR, %struct.GPR* %3, i32 0, i32 33
  %5 = getelementptr inbounds %struct.Reg, %struct.Reg* %4, i32 0, i32 0
  %PC = bitcast %union.anon* %5 to i64*
  %6 = getelementptr inbounds %struct.State, %struct.State* %0, i32 0, i32 6
  %7 = getelementptr inbounds %struct.GPR, %struct.GPR* %6, i32 0, i32 1
  %8 = getelementptr inbounds %struct.Reg, %struct.Reg* %7, i32 0, i32 0
  %AX = bitcast %union.anon* %8 to i16*
  %9 = getelementptr inbounds %struct.State, %struct.State* %0, i32 0, i32 6
  %10 = getelementptr inbounds %struct.GPR, %struct.GPR* %9, i32 0, i32 7
  %11 = getelementptr inbounds %struct.Reg, %struct.Reg* %10, i32 0, i32 0
  %DX = bitcast %union.anon* %11 to i16*
  %12 = load i16, i16* %DX
  %13 = zext i16 %12 to i64
  %14 = load i64, i64* %PC
  %15 = add i64 %14, 3
  store i64 %15, i64* %PC
  store i16 %12, i16* %AX, align 2
  ret %struct.Memory* %2
}

define %struct.Memory* @routine_movw__ax__MINUS0x1e__rbp_(%struct.State* dereferenceable(3376), i64, %struct.Memory*) {
block_400488:
  %3 = getelementptr inbounds %struct.State, %struct.State* %0, i32 0, i32 6
  %4 = getelementptr inbounds %struct.GPR, %struct.GPR* %3, i32 0, i32 33
  %5 = getelementptr inbounds %struct.Reg, %struct.Reg* %4, i32 0, i32 0
  %PC = bitcast %union.anon* %5 to i64*
  %6 = getelementptr inbounds %struct.State, %struct.State* %0, i32 0, i32 6
  %7 = getelementptr inbounds %struct.GPR, %struct.GPR* %6, i32 0, i32 1
  %8 = getelementptr inbounds %struct.Reg, %struct.Reg* %7, i32 0, i32 0
  %AX = bitcast %union.anon* %8 to i16*
  %9 = getelementptr inbounds %struct.State, %struct.State* %0, i32 0, i32 6
  %10 = getelementptr inbounds %struct.GPR, %struct.GPR* %9, i32 0, i32 15
  %11 = getelementptr inbounds %struct.Reg, %struct.Reg* %10, i32 0, i32 0
  %RBP = bitcast %union.anon* %11 to i64*
  %12 = load i64, i64* %RBP
  %13 = sub i64 %12, 30
  %14 = load i16, i16* %AX
  %15 = zext i16 %14 to i64
  %16 = load i64, i64* %PC
  %17 = add i64 %16, 4
  store i64 %17, i64* %PC
  %18 = inttoptr i64 %13 to i16*
  store i16 %14, i16* %18
  ret %struct.Memory* %2
}

define %struct.Memory* @routine_addl__0x1___eax(%struct.State* dereferenceable(3376), i64, %struct.Memory*) {
block_400488:
  %3 = getelementptr inbounds %struct.State, %struct.State* %0, i32 0, i32 6
  %4 = getelementptr inbounds %struct.GPR, %struct.GPR* %3, i32 0, i32 33
  %5 = getelementptr inbounds %struct.Reg, %struct.Reg* %4, i32 0, i32 0
  %PC = bitcast %union.anon* %5 to i64*
  %6 = getelementptr inbounds %struct.State, %struct.State* %0, i32 0, i32 6
  %7 = getelementptr inbounds %struct.GPR, %struct.GPR* %6, i32 0, i32 1
  %8 = getelementptr inbounds %struct.Reg, %struct.Reg* %7, i32 0, i32 0
  %RAX = bitcast %union.anon* %8 to i64*
  %9 = load i64, i64* %RAX
  %10 = load i64, i64* %PC
  %11 = add i64 %10, 3
  store i64 %11, i64* %PC
  %12 = trunc i64 %9 to i32
  %13 = add i32 1, %12
  %14 = zext i32 %13 to i64
  store i64 %14, i64* %RAX, align 8
  %15 = icmp ult i32 %13, %12
  %16 = icmp ult i32 %13, 1
  %17 = or i1 %15, %16
  %18 = zext i1 %17 to i8
  %19 = getelementptr inbounds %struct.State, %struct.State* %0, i64 0, i32 2, i32 1
  store i8 %18, i8* %19, align 1
  %20 = and i32 %13, 255
  %21 = call i32 @llvm.ctpop.i32(i32 %20)
  %22 = trunc i32 %21 to i8
  %23 = and i8 %22, 1
  %24 = xor i8 %23, 1
  %25 = getelementptr inbounds %struct.State, %struct.State* %0, i64 0, i32 2, i32 3
  store i8 %24, i8* %25, align 1
  %26 = xor i64 1, %9
  %27 = trunc i64 %26 to i32
  %28 = xor i32 %27, %13
  %29 = lshr i32 %28, 4
  %30 = trunc i32 %29 to i8
  %31 = and i8 %30, 1
  %32 = getelementptr inbounds %struct.State, %struct.State* %0, i64 0, i32 2, i32 5
  store i8 %31, i8* %32, align 1
  %33 = icmp eq i32 %13, 0
  %34 = zext i1 %33 to i8
  %35 = getelementptr inbounds %struct.State, %struct.State* %0, i64 0, i32 2, i32 7
  store i8 %34, i8* %35, align 1
  %36 = lshr i32 %13, 31
  %37 = trunc i32 %36 to i8
  %38 = getelementptr inbounds %struct.State, %struct.State* %0, i64 0, i32 2, i32 9
  store i8 %37, i8* %38, align 1
  %39 = lshr i32 %12, 31
  %40 = xor i32 %36, %39
  %41 = add i32 %40, %36
  %42 = icmp eq i32 %41, 2
  %43 = zext i1 %42 to i8
  %44 = getelementptr inbounds %struct.State, %struct.State* %0, i64 0, i32 2, i32 13
  store i8 %43, i8* %44, align 1
  ret %struct.Memory* %2
}

define %struct.Memory* @routine_movl__eax__MINUS0x24__rbp_(%struct.State* dereferenceable(3376), i64, %struct.Memory*) {
block_400488:
  %3 = getelementptr inbounds %struct.State, %struct.State* %0, i32 0, i32 6
  %4 = getelementptr inbounds %struct.GPR, %struct.GPR* %3, i32 0, i32 33
  %5 = getelementptr inbounds %struct.Reg, %struct.Reg* %4, i32 0, i32 0
  %PC = bitcast %union.anon* %5 to i64*
  %6 = getelementptr inbounds %struct.State, %struct.State* %0, i32 0, i32 6
  %7 = getelementptr inbounds %struct.GPR, %struct.GPR* %6, i32 0, i32 1
  %8 = getelementptr inbounds %struct.Reg, %struct.Reg* %7, i32 0, i32 0
  %EAX = bitcast %union.anon* %8 to i32*
  %9 = getelementptr inbounds %struct.State, %struct.State* %0, i32 0, i32 6
  %10 = getelementptr inbounds %struct.GPR, %struct.GPR* %9, i32 0, i32 15
  %11 = getelementptr inbounds %struct.Reg, %struct.Reg* %10, i32 0, i32 0
  %RBP = bitcast %union.anon* %11 to i64*
  %12 = load i64, i64* %RBP
  %13 = sub i64 %12, 36
  %14 = load i32, i32* %EAX
  %15 = zext i32 %14 to i64
  %16 = load i64, i64* %PC
  %17 = add i64 %16, 3
  store i64 %17, i64* %PC
  %18 = inttoptr i64 %13 to i32*
  store i32 %14, i32* %18
  ret %struct.Memory* %2
}

define %struct.Memory* @routine_jmpq_.L_407ddc(%struct.State* dereferenceable(3376), i64, %struct.Memory*, i64 %rel_off1, i64 %rel_off2) {
block_400488:
  %3 = getelementptr inbounds %struct.State, %struct.State* %0, i32 0, i32 6
  %4 = getelementptr inbounds %struct.GPR, %struct.GPR* %3, i32 0, i32 33
  %5 = getelementptr inbounds %struct.Reg, %struct.Reg* %4, i32 0, i32 0
  %PC = bitcast %union.anon* %5 to i64*
  %6 = load i64, i64* %PC
  %7 = add i64 %6, %rel_off1
  %8 = load i64, i64* %PC
  %9 = add i64 %8, %rel_off2
  store i64 %9, i64* %PC
  %10 = getelementptr inbounds %struct.State, %struct.State* %0, i64 0, i32 6, i32 33, i32 0, i32 0
  store i64 %7, i64* %10, align 8
  ret %struct.Memory* %2
}

define %struct.Memory* @routine_movzwl_MINUS0x1e__rbp____edi(%struct.State* dereferenceable(3376), i64, %struct.Memory*) {
block_400488:
  %3 = getelementptr inbounds %struct.State, %struct.State* %0, i32 0, i32 6
  %4 = getelementptr inbounds %struct.GPR, %struct.GPR* %3, i32 0, i32 33
  %5 = getelementptr inbounds %struct.Reg, %struct.Reg* %4, i32 0, i32 0
  %PC = bitcast %union.anon* %5 to i64*
  %6 = getelementptr inbounds %struct.State, %struct.State* %0, i32 0, i32 6
  %7 = getelementptr inbounds %struct.GPR, %struct.GPR* %6, i32 0, i32 11
  %8 = getelementptr inbounds %struct.Reg, %struct.Reg* %7, i32 0, i32 0
  %RDI = bitcast %union.anon* %8 to i64*
  %9 = getelementptr inbounds %struct.State, %struct.State* %0, i32 0, i32 6
  %10 = getelementptr inbounds %struct.GPR, %struct.GPR* %9, i32 0, i32 15
  %11 = getelementptr inbounds %struct.Reg, %struct.Reg* %10, i32 0, i32 0
  %RBP = bitcast %union.anon* %11 to i64*
  %12 = load i64, i64* %RBP
  %13 = sub i64 %12, 30
  %14 = load i64, i64* %PC
  %15 = add i64 %14, 4
  store i64 %15, i64* %PC
  %16 = inttoptr i64 %13 to i16*
  %17 = load i16, i16* %16
  %18 = zext i16 %17 to i64
  store i64 %18, i64* %RDI, align 8
  ret %struct.Memory* %2
}

define %struct.Memory* @routine_callq_._Z17check_shifted_sumIt18custom_constant_orItEEvT_(%struct.State* dereferenceable(3376), i64, %struct.Memory*, i64 %rel_off1, i64 %rel_off2, i64 %rel_off3) {
block_400488:
  %3 = getelementptr inbounds %struct.State, %struct.State* %0, i32 0, i32 6
  %4 = getelementptr inbounds %struct.GPR, %struct.GPR* %3, i32 0, i32 33
  %5 = getelementptr inbounds %struct.Reg, %struct.Reg* %4, i32 0, i32 0
  %PC = bitcast %union.anon* %5 to i64*
  %6 = load i64, i64* %PC
  %7 = add i64 %6, %rel_off1
  %8 = load i64, i64* %PC
  %9 = add i64 %8, %rel_off2
  %10 = load i64, i64* %PC
  %11 = add i64 %10, %rel_off3
  store i64 %11, i64* %PC
  %12 = getelementptr inbounds %struct.State, %struct.State* %0, i64 0, i32 6, i32 13, i32 0, i32 0
  %13 = load i64, i64* %12, align 8
  %14 = add i64 %13, -8
  %15 = inttoptr i64 %14 to i64*
  store i64 %9, i64* %15
  store i64 %14, i64* %12, align 8
  %16 = getelementptr inbounds %struct.State, %struct.State* %0, i64 0, i32 6, i32 33, i32 0, i32 0
  store i64 %7, i64* %16, align 8
  ret %struct.Memory* %2
}

define %struct.Memory* @routine_movl__eax__MINUS0x1c__rbp_(%struct.State* dereferenceable(3376), i64, %struct.Memory*) {
block_400488:
  %3 = getelementptr inbounds %struct.State, %struct.State* %0, i32 0, i32 6
  %4 = getelementptr inbounds %struct.GPR, %struct.GPR* %3, i32 0, i32 33
  %5 = getelementptr inbounds %struct.Reg, %struct.Reg* %4, i32 0, i32 0
  %PC = bitcast %union.anon* %5 to i64*
  %6 = getelementptr inbounds %struct.State, %struct.State* %0, i32 0, i32 6
  %7 = getelementptr inbounds %struct.GPR, %struct.GPR* %6, i32 0, i32 1
  %8 = getelementptr inbounds %struct.Reg, %struct.Reg* %7, i32 0, i32 0
  %EAX = bitcast %union.anon* %8 to i32*
  %9 = getelementptr inbounds %struct.State, %struct.State* %0, i32 0, i32 6
  %10 = getelementptr inbounds %struct.GPR, %struct.GPR* %9, i32 0, i32 15
  %11 = getelementptr inbounds %struct.Reg, %struct.Reg* %10, i32 0, i32 0
  %RBP = bitcast %union.anon* %11 to i64*
  %12 = load i64, i64* %RBP
  %13 = sub i64 %12, 28
  %14 = load i32, i32* %EAX
  %15 = zext i32 %14 to i64
  %16 = load i64, i64* %PC
  %17 = add i64 %16, 3
  store i64 %17, i64* %PC
  %18 = inttoptr i64 %13 to i32*
  store i32 %14, i32* %18
  ret %struct.Memory* %2
}

define %struct.Memory* @routine_jmpq_.L_407dbf(%struct.State* dereferenceable(3376), i64, %struct.Memory*, i64 %rel_off1, i64 %rel_off2) {
block_400488:
  %3 = getelementptr inbounds %struct.State, %struct.State* %0, i32 0, i32 6
  %4 = getelementptr inbounds %struct.GPR, %struct.GPR* %3, i32 0, i32 33
  %5 = getelementptr inbounds %struct.Reg, %struct.Reg* %4, i32 0, i32 0
  %PC = bitcast %union.anon* %5 to i64*
  %6 = load i64, i64* %PC
  %7 = add i64 %6, %rel_off1
  %8 = load i64, i64* %PC
  %9 = add i64 %8, %rel_off2
  store i64 %9, i64* %PC
  %10 = getelementptr inbounds %struct.State, %struct.State* %0, i64 0, i32 6, i32 33, i32 0, i32 0
  store i64 %7, i64* %10, align 8
  ret %struct.Memory* %2
}

define %struct.Memory* @routine_callq_._Z5timerv(%struct.State* dereferenceable(3376), i64, %struct.Memory*, i64 %rel_off1, i64 %rel_off2, i64 %rel_off3) {
block_400488:
  %3 = getelementptr inbounds %struct.State, %struct.State* %0, i32 0, i32 6
  %4 = getelementptr inbounds %struct.GPR, %struct.GPR* %3, i32 0, i32 33
  %5 = getelementptr inbounds %struct.Reg, %struct.Reg* %4, i32 0, i32 0
  %PC = bitcast %union.anon* %5 to i64*
  %6 = load i64, i64* %PC
  %7 = add i64 %6, %rel_off1
  %8 = load i64, i64* %PC
  %9 = add i64 %8, %rel_off2
  %10 = load i64, i64* %PC
  %11 = add i64 %10, %rel_off3
  store i64 %11, i64* %PC
  %12 = getelementptr inbounds %struct.State, %struct.State* %0, i64 0, i32 6, i32 13, i32 0, i32 0
  %13 = load i64, i64* %12, align 8
  %14 = add i64 %13, -8
  %15 = inttoptr i64 %14 to i64*
  store i64 %9, i64* %15
  store i64 %14, i64* %12, align 8
  %16 = getelementptr inbounds %struct.State, %struct.State* %0, i64 0, i32 6, i32 33, i32 0, i32 0
  store i64 %7, i64* %16, align 8
  ret %struct.Memory* %2
}

define %struct.Memory* @routine_movq_MINUS0x18__rbp____rdi(%struct.State* dereferenceable(3376), i64, %struct.Memory*) {
block_400488:
  %3 = getelementptr inbounds %struct.State, %struct.State* %0, i32 0, i32 6
  %4 = getelementptr inbounds %struct.GPR, %struct.GPR* %3, i32 0, i32 33
  %5 = getelementptr inbounds %struct.Reg, %struct.Reg* %4, i32 0, i32 0
  %PC = bitcast %union.anon* %5 to i64*
  %6 = getelementptr inbounds %struct.State, %struct.State* %0, i32 0, i32 6
  %7 = getelementptr inbounds %struct.GPR, %struct.GPR* %6, i32 0, i32 11
  %8 = getelementptr inbounds %struct.Reg, %struct.Reg* %7, i32 0, i32 0
  %RDI = bitcast %union.anon* %8 to i64*
  %9 = getelementptr inbounds %struct.State, %struct.State* %0, i32 0, i32 6
  %10 = getelementptr inbounds %struct.GPR, %struct.GPR* %9, i32 0, i32 15
  %11 = getelementptr inbounds %struct.Reg, %struct.Reg* %10, i32 0, i32 0
  %RBP = bitcast %union.anon* %11 to i64*
  %12 = load i64, i64* %RBP
  %13 = sub i64 %12, 24
  %14 = load i64, i64* %PC
  %15 = add i64 %14, 4
  store i64 %15, i64* %PC
  %16 = inttoptr i64 %13 to i64*
  %17 = load i64, i64* %16
  store i64 %17, i64* %RDI, align 8
  ret %struct.Memory* %2
}

define %struct.Memory* @routine_callq_._Z13record_resultdPKc(%struct.State* dereferenceable(3376), i64, %struct.Memory*, i64 %rel_off1, i64 %rel_off2, i64 %rel_off3) {
block_400488:
  %3 = getelementptr inbounds %struct.State, %struct.State* %0, i32 0, i32 6
  %4 = getelementptr inbounds %struct.GPR, %struct.GPR* %3, i32 0, i32 33
  %5 = getelementptr inbounds %struct.Reg, %struct.Reg* %4, i32 0, i32 0
  %PC = bitcast %union.anon* %5 to i64*
  %6 = load i64, i64* %PC
  %7 = add i64 %6, %rel_off1
  %8 = load i64, i64* %PC
  %9 = add i64 %8, %rel_off2
  %10 = load i64, i64* %PC
  %11 = add i64 %10, %rel_off3
  store i64 %11, i64* %PC
  %12 = getelementptr inbounds %struct.State, %struct.State* %0, i64 0, i32 6, i32 13, i32 0, i32 0
  %13 = load i64, i64* %12, align 8
  %14 = add i64 %13, -8
  %15 = inttoptr i64 %14 to i64*
  store i64 %9, i64* %15
  store i64 %14, i64* %12, align 8
  %16 = getelementptr inbounds %struct.State, %struct.State* %0, i64 0, i32 6, i32 33, i32 0, i32 0
  store i64 %7, i64* %16, align 8
  ret %struct.Memory* %2
}

define %struct.Memory* @routine_addq__0x30___rsp(%struct.State* dereferenceable(3376), i64, %struct.Memory*) {
block_400488:
  %3 = getelementptr inbounds %struct.State, %struct.State* %0, i32 0, i32 6
  %4 = getelementptr inbounds %struct.GPR, %struct.GPR* %3, i32 0, i32 33
  %5 = getelementptr inbounds %struct.Reg, %struct.Reg* %4, i32 0, i32 0
  %PC = bitcast %union.anon* %5 to i64*
  %6 = getelementptr inbounds %struct.State, %struct.State* %0, i32 0, i32 6
  %7 = getelementptr inbounds %struct.GPR, %struct.GPR* %6, i32 0, i32 13
  %8 = getelementptr inbounds %struct.Reg, %struct.Reg* %7, i32 0, i32 0
  %RSP = bitcast %union.anon* %8 to i64*
  %9 = load i64, i64* %RSP
  %10 = load i64, i64* %PC
  %11 = add i64 %10, 4
  store i64 %11, i64* %PC
  %12 = add i64 48, %9
  store i64 %12, i64* %RSP, align 8
  %13 = icmp ult i64 %12, %9
  %14 = icmp ult i64 %12, 48
  %15 = or i1 %13, %14
  %16 = zext i1 %15 to i8
  %17 = getelementptr inbounds %struct.State, %struct.State* %0, i64 0, i32 2, i32 1
  store i8 %16, i8* %17, align 1
  %18 = trunc i64 %12 to i32
  %19 = and i32 %18, 255
  %20 = call i32 @llvm.ctpop.i32(i32 %19)
  %21 = trunc i32 %20 to i8
  %22 = and i8 %21, 1
  %23 = xor i8 %22, 1
  %24 = getelementptr inbounds %struct.State, %struct.State* %0, i64 0, i32 2, i32 3
  store i8 %23, i8* %24, align 1
  %25 = xor i64 48, %9
  %26 = xor i64 %25, %12
  %27 = lshr i64 %26, 4
  %28 = trunc i64 %27 to i8
  %29 = and i8 %28, 1
  %30 = getelementptr inbounds %struct.State, %struct.State* %0, i64 0, i32 2, i32 5
  store i8 %29, i8* %30, align 1
  %31 = icmp eq i64 %12, 0
  %32 = zext i1 %31 to i8
  %33 = getelementptr inbounds %struct.State, %struct.State* %0, i64 0, i32 2, i32 7
  store i8 %32, i8* %33, align 1
  %34 = lshr i64 %12, 63
  %35 = trunc i64 %34 to i8
  %36 = getelementptr inbounds %struct.State, %struct.State* %0, i64 0, i32 2, i32 9
  store i8 %35, i8* %36, align 1
  %37 = lshr i64 %9, 63
  %38 = xor i64 %34, %37
  %39 = add i64 %38, %34
  %40 = icmp eq i64 %39, 2
  %41 = zext i1 %40 to i8
  %42 = getelementptr inbounds %struct.State, %struct.State* %0, i64 0, i32 2, i32 13
  store i8 %41, i8* %42, align 1
  ret %struct.Memory* %2
}

define %struct.Memory* @routine_popq__rbp(%struct.State* dereferenceable(3376), i64, %struct.Memory*) {
block_400488:
  %3 = getelementptr inbounds %struct.State, %struct.State* %0, i32 0, i32 6
  %4 = getelementptr inbounds %struct.GPR, %struct.GPR* %3, i32 0, i32 33
  %5 = getelementptr inbounds %struct.Reg, %struct.Reg* %4, i32 0, i32 0
  %PC = bitcast %union.anon* %5 to i64*
  %6 = getelementptr inbounds %struct.State, %struct.State* %0, i32 0, i32 6
  %7 = getelementptr inbounds %struct.GPR, %struct.GPR* %6, i32 0, i32 15
  %8 = getelementptr inbounds %struct.Reg, %struct.Reg* %7, i32 0, i32 0
  %RBP = bitcast %union.anon* %8 to i64*
  %9 = load i64, i64* %PC
  %10 = add i64 %9, 1
  store i64 %10, i64* %PC
  %11 = getelementptr inbounds %struct.State, %struct.State* %0, i64 0, i32 6, i32 13, i32 0, i32 0
  %12 = load i64, i64* %11, align 8
  %13 = add i64 %12, 8
  %14 = inttoptr i64 %12 to i64*
  %15 = load i64, i64* %14
  store i64 %15, i64* %RBP, align 8
  store i64 %13, i64* %11, align 8
  ret %struct.Memory* %2
}

define %struct.Memory* @routine_retq(%struct.State* dereferenceable(3376), i64, %struct.Memory*) {
block_400488:
  %3 = getelementptr inbounds %struct.State, %struct.State* %0, i32 0, i32 6
  %4 = getelementptr inbounds %struct.GPR, %struct.GPR* %3, i32 0, i32 33
  %5 = getelementptr inbounds %struct.Reg, %struct.Reg* %4, i32 0, i32 0
  %PC = bitcast %union.anon* %5 to i64*
  %6 = load i64, i64* %PC
  %7 = add i64 %6, 1
  store i64 %7, i64* %PC
  %8 = getelementptr inbounds %struct.State, %struct.State* %0, i64 0, i32 6, i32 33, i32 0, i32 0
  %9 = getelementptr inbounds %struct.State, %struct.State* %0, i64 0, i32 6, i32 13, i32 0, i32 0
  %10 = load i64, i64* %9, align 8
  %11 = inttoptr i64 %10 to i64*
  %12 = load i64, i64* %11
  store i64 %12, i64* %8, align 8
  %13 = add i64 %10, 8
  store i64 %13, i64* %9, align 8
  ret %struct.Memory* %2
}

attributes #0 = { nounwind readnone }
attributes #1 = { alwaysinline }
