; ModuleID = 'test.bc'
source_filename = "llvm-link"
target datalayout = "e-m:e-i64:64-f80:128-n8:16:32:64-S128"
target triple = "x86_64-pc-linux-gnu-elf"
%union.anon = type { i64 }
%seg_400388__init_type = type <{ [23 x i8] }>
%seg_4003a0__text_type = type <{ [354 x i8] }>
%seg_400504__fini_type = type <{ [9 x i8] }>
%seg_400510__rodata_type = type <{ [4 x i8] }>
%seg_400514__eh_frame_hdr_type = type <{ [52 x i8] }>
%seg_400548__eh_frame_type = type <{ [208 x i8] }>
%seg_600e40__init_array_type = type <{ i64, i64 }>
%seg_601018__data_type = type <{ [16 x i8] }>
%__bss_start_type = type <{ [8 x i8] }>
%struct.State = type { %struct.ArchState, [32 x %union.VectorReg], %struct.ArithFlags, %union.anon, %struct.Segments, %struct.AddressSpace, %struct.GPR, %struct.X87Stack, %struct.MMX, %struct.FPUStatusFlags, %union.anon, %union.FPU, %struct.SegmentCaches }
%struct.ArchState = type { i32, i32, %union.anon }
%union.VectorReg = type { %union.vec512_t }
%union.vec512_t = type { %struct.uint64v8_t }
%struct.uint64v8_t = type { [8 x i64] }
%struct.ArithFlags = type { i8, i8, i8, i8, i8, i8, i8, i8, i8, i8, i8, i8, i8, i8, i8, i8 }
%struct.Segments = type { i16, %union.SegmentSelector, i16, %union.SegmentSelector, i16, %union.SegmentSelector, i16, %union.SegmentSelector, i16, %union.SegmentSelector, i16, %union.SegmentSelector }
%union.SegmentSelector = type { i16 }
%struct.AddressSpace = type { i64, %struct.Reg, i64, %struct.Reg, i64, %struct.Reg, i64, %struct.Reg, i64, %struct.Reg, i64, %struct.Reg }
%struct.Reg = type { %union.anon }
%struct.GPR = type { i64, %struct.Reg, i64, %struct.Reg, i64, %struct.Reg, i64, %struct.Reg, i64, %struct.Reg, i64, %struct.Reg, i64, %struct.Reg, i64, %struct.Reg, i64, %struct.Reg, i64, %struct.Reg, i64, %struct.Reg, i64, %struct.Reg, i64, %struct.Reg, i64, %struct.Reg, i64, %struct.Reg, i64, %struct.Reg, i64, %struct.Reg }
%struct.X87Stack = type { [8 x %struct.anon.3] }
%struct.anon.3 = type { i64, double }
%struct.MMX = type { [8 x %struct.anon.4] }
%struct.anon.4 = type { i64, %union.vec64_t }
%union.vec64_t = type { %struct.uint64v1_t }
%struct.uint64v1_t = type { [1 x i64] }
%struct.FPUStatusFlags = type { i8, i8, i8, i8, i8, i8, i8, i8, i8, i8, i8, i8, i8, i8, i8, i8, i8, i8, i8, i8, [4 x i8] }
%union.FPU = type { %struct.anon.13 }
%struct.anon.13 = type { %struct.FpuFXSAVE, [96 x i8] }
%struct.FpuFXSAVE = type { %union.SegmentSelector, %union.SegmentSelector, %union.FPUAbridgedTagWord, i8, i16, i32, %union.SegmentSelector, i16, i32, %union.SegmentSelector, i16, %union.FPUControlStatus, %union.FPUControlStatus, [8 x %struct.FPUStackElem], [16 x %union.vec128_t] }
%union.FPUAbridgedTagWord = type { i8 }
%union.FPUControlStatus = type { i32 }
%struct.FPUStackElem = type { %union.anon.11, [6 x i8] }
%union.anon.11 = type { %struct.float80_t }
%struct.float80_t = type { [10 x i8] }
%union.vec128_t = type { %struct.uint128v1_t }
%struct.uint128v1_t = type { [1 x i128] }
%struct.SegmentCaches = type { %struct.SegmentShadow, %struct.SegmentShadow, %struct.SegmentShadow, %struct.SegmentShadow, %struct.SegmentShadow, %struct.SegmentShadow }
%struct.SegmentShadow = type { %union.anon, i32, i32 }
%struct.Memory = type opaque
%struct.uint8v32_t = type { [32 x i8] }
%struct.anon.2 = type { i8, i8 }
%struct.int32v8_t = type { [8 x i32] }
%struct.float32v8_t = type { [8 x float] }
%struct.uint8v8_t = type { [8 x i8] }
%struct.uint8v16_t = type { [16 x i8] }
%struct.uint16v8_t = type { [8 x i16] }
%struct.uint8v4_t = type { [4 x i8] }
%struct.int16v4_t = type { [4 x i16] }
%struct.int32v4_t = type { [4 x i32] }
%struct.uint64v2_t = type { [2 x i64] }
%struct.uint64v4_t = type { [4 x i64] }
%struct.uint128v2_t = type { [2 x i128] }
%struct.uint16v16_t = type { [16 x i16] }
%struct.float64v4_t = type { [4 x double] }
%"class.(anonymous namespace)::BitMatrix" = type { %"class.std::bitset", [16 x [16 x i8]] }
%"class.std::bitset" = type { %struct.uint64v4_t }
%struct.bcd80_t = type { [9 x %union.FPUAbridgedTagWord], %union.FPUAbridgedTagWord }
%struct.FpuFSAVE = type { %union.SegmentSelector, i16, %union.SegmentSelector, i16, %union.SegmentSelector, i16, i32, %union.SegmentSelector, i16, i32, %union.SegmentSelector, i16, [8 x %struct.FPUStackElem] }
%struct.anon.5 = type { i32, i32 }
@switch.table = private unnamed_addr constant [4 x i32] [i32 2048, i32 3072, i32 0, i32 1024]
@DR0 = external global i64, align 8
@DR1 = external global i64, align 8
@DR2 = external global i64, align 8
@DR3 = external global i64, align 8
@DR4 = external global i64, align 8
@DR5 = external global i64, align 8
@DR6 = external global i64, align 8
@DR7 = external global i64, align 8
@gCR0 = external global %union.anon, align 1
@gCR1 = external global %union.anon, align 1
@gCR2 = external global %union.anon, align 1
@gCR3 = external global %union.anon, align 1
@gCR4 = external global %union.anon, align 1
@gCR8 = external global %union.anon, align 1
@seg_400388__init = internal constant %seg_400388__init_type <{ [23 x i8] c"H\83\EC\08H\8B\05e\0C \00H\85\C0t\02\FF\D0H\83\C4\08\C3" }>
@seg_4003a0__text = internal constant %seg_4003a0__text_type <{ [354 x i8] c"1\EDI\89\D1^H\89\E2H\83\E4\F0PTI\C7\C0\00\05@\00H\C7\C1\90\04@\00H\C7\C7\88\04@\00\FF\15&\0C \00\F4\0F\1FD\00\00\F3\C3f.\0F\1F\84\00\00\00\00\00\0F\1F@\00U\B8(\10`\00H=(\10`\00H\89\E5t\17\B8\00\00\00\00H\85\C0t\0D]\BF(\10`\00\FF\E0\0F\1FD\00\00]\C3f\0F\1FD\00\00\BE(\10`\00UH\81\EE(\10`\00H\89\E5H\C1\FE\03H\89\F0H\C1\E8?H\01\C6H\D1\FEt\15\B8\00\00\00\00H\85\C0t\0B]\BF(\10`\00\FF\E0\0F\1F\00]\C3f\0F\1FD\00\00\80=\D1\0B \00\00u\17UH\89\E5\E8~\FF\FF\FF\C6\05\BF\0B \00\01]\C3\0F\1FD\00\00\F3\C3\0F\1F@\00f.\0F\1F\84\00\00\00\00\00UH\89\E5]\EB\89\90U\C3f\0F\1FD\00\00AWAVI\89\D7AUATL\8D%\9E\09 \00UH\8D-\9E\09 \00SA\89\FDI\89\F6L)\E5H\83\EC\08H\C1\FD\03\E8\C7\FE\FF\FFH\85\EDt 1\DB\0F\1F\84\00\00\00\00\00L\89\FAL\89\F6D\89\EFA\FF\14\DCH\83\C3\01H9\DDu\EAH\83\C4\08[]A\5CA]A^A_\C3\90f.\0F\1F\84\00\00\00\00\00\F3\C3" }>
@seg_400504__fini = internal constant %seg_400504__fini_type <{ [9 x i8] c"H\83\EC\08H\83\C4\08\C3" }>
@seg_400510__rodata = internal constant %seg_400510__rodata_type <{ [4 x i8] c"\01\00\02\00" }>
@seg_400514__eh_frame_hdr = internal constant %seg_400514__eh_frame_hdr_type <{ [52 x i8] c"\01\1B\03;0\00\00\00\05\00\00\00\8C\FE\FF\FFL\00\00\00\BC\FE\FF\FFx\00\00\00t\FF\FF\FF\8C\00\00\00|\FF\FF\FF\A4\00\00\00\EC\FF\FF\FF\EC\00\00\00" }>
@seg_400548__eh_frame = internal constant %seg_400548__eh_frame_type <{ [208 x i8] c"\14\00\00\00\00\00\00\00\01zR\00\01x\10\01\1B\0C\07\08\90\01\07\10\10\00\00\00\1C\00\00\008\FE\FF\FF+\00\00\00\00\00\00\00\14\00\00\00\00\00\00\00\01zR\00\01x\10\01\1B\0C\07\08\90\01\00\00\10\00\00\00\1C\00\00\00<\FE\FF\FF\02\00\00\00\00\00\00\00\14\00\00\000\00\00\00\E0\FE\FF\FF\02\00\00\00\00\00\00\00\00\00\00\00D\00\00\00H\00\00\00\D0\FE\FF\FFe\00\00\00\00B\0E\10\8F\02B\0E\18\8E\03E\0E \8D\04B\0E(\8C\05H\0E0\86\06H\0E8\83\07M\0E@r\0E8A\0E0A\0E(B\0E B\0E\18B\0E\10B\0E\08\00\10\00\00\00\90\00\00\00\F8\FE\FF\FF\02\00\00\00\00\00\00\00\00\00\00\00" }>
@seg_601018__data = internal global %seg_601018__data_type zeroinitializer
@__bss_start = global %__bss_start_type zeroinitializer
@0 = internal global i1 false
%seg_400514__fini_type = type <{ [9 x i8] }>
%seg_400520__rodata_type = type <{ [4 x i8] }>
%seg_400524__eh_frame_hdr_type = type <{ [52 x i8] }>
%seg_400558__eh_frame_type = type <{ [208 x i8] }>
@seg_400514__fini = internal constant %seg_400514__fini_type <{ [9 x i8] c"H\83\EC\08H\83\C4\08\C3" }>
@seg_400520__rodata = internal constant %seg_400520__rodata_type <{ [4 x i8] c"\01\00\02\00" }>
@seg_400524__eh_frame_hdr = internal constant %seg_400524__eh_frame_hdr_type <{ [52 x i8] c"\01\1B\03;0\00\00\00\05\00\00\00|\FE\FF\FFL\00\00\00\AC\FE\FF\FFx\00\00\00d\FF\FF\FF\8C\00\00\00|\FF\FF\FF\A4\00\00\00\EC\FF\FF\FF\EC\00\00\00" }>
@seg_400558__eh_frame = internal constant %seg_400558__eh_frame_type <{ [208 x i8] c"\14\00\00\00\00\00\00\00\01zR\00\01x\10\01\1B\0C\07\08\90\01\07\10\10\00\00\00\1C\00\00\00(\FE\FF\FF+\00\00\00\00\00\00\00\14\00\00\00\00\00\00\00\01zR\00\01x\10\01\1B\0C\07\08\90\01\00\00\10\00\00\00\1C\00\00\00,\FE\FF\FF\02\00\00\00\00\00\00\00\14\00\00\000\00\00\00\D0\FE\FF\FF\09\00\00\00\00\00\00\00\00\00\00\00D\00\00\00H\00\00\00\D0\FE\FF\FFe\00\00\00\00B\0E\10\8F\02B\0E\18\8E\03E\0E \8D\04B\0E(\8C\05H\0E0\86\06H\0E8\83\07M\0E@r\0E8A\0E0A\0E(B\0E B\0E\18B\0E\10B\0E\08\00\10\00\00\00\90\00\00\00\F8\FE\FF\FF\02\00\00\00\00\00\00\00\00\00\00\00" }>

; Function Declaraions
declare %struct.Memory* @__remill_error(%struct.State* dereferenceable(3376), i64, %struct.Memory*)
declare i32 @__remill_fpu_exception_test_and_clear(i32, i32)
declare void @llvm.lifetime.start(i64, i8* nocapture)
declare void @llvm.lifetime.end(i64, i8* nocapture)
declare i32 @llvm.ctpop.i32(i32)
declare i32 @llvm.bswap.i32(i32)
declare i64 @llvm.bswap.i64(i64)
declare i32 @llvm.cttz.i32(i32, i1)
declare i64 @llvm.cttz.i64(i64, i1)
declare i32 @llvm.ctlz.i32(i32, i1)
declare i64 @llvm.ctlz.i64(i64, i1)
declare void @llvm.memcpy.p0i8.p0i8.i64(i8* nocapture writeonly, i8* nocapture readonly, i64, i32, i1)
declare double @llvm.nearbyint.f64(double)
declare double @llvm.fabs.f64(double)
declare <4 x double> @llvm.nearbyint.v4f64(<4 x double>)
declare <4 x double> @llvm.fabs.v4f64(<4 x double>)
declare double @llvm.trunc.f64(double)
declare <4 x double> @llvm.trunc.v4f64(<4 x double>)
declare float @llvm.nearbyint.f32(float)
declare float @llvm.fabs.f32(float)
declare <4 x float> @llvm.nearbyint.v4f32(<4 x float>)
declare <4 x float> @llvm.fabs.v4f32(<4 x float>)
declare float @llvm.trunc.f32(float)
declare <4 x float> @llvm.trunc.v4f32(<4 x float>)
declare void @llvm.memset.p0i8.i64(i8* nocapture writeonly, i8, i64, i32, i1)

; Buiitins  
declare double @atan(double) local_unnamed_addr #9
declare double @cos(double) local_unnamed_addr #9
declare double @sin(double) local_unnamed_addr #9
declare double @sqrt(double) local_unnamed_addr #9
declare double @tan(double) local_unnamed_addr #9
declare extern_weak x86_64_sysvcc i64 @abort() #18
declare extern_weak x86_64_sysvcc i64 @abs(i64) #18
declare extern_weak x86_64_sysvcc i64 @asin(i64) #18
declare extern_weak x86_64_sysvcc i64 @atof(i64) #18
declare extern_weak x86_64_sysvcc i64 @atoi(i64) #18
declare extern_weak x86_64_sysvcc i64 @atol(i64) #18
declare extern_weak x86_64_sysvcc i64 @calloc(i64, i64) #18
declare extern_weak x86_64_sysvcc i64 @clock() #18
declare extern_weak x86_64_sysvcc i64 @cosf(i64) #18
declare extern_weak x86_64_sysvcc i64 @exit(i64) #18
declare extern_weak x86_64_sysvcc i64 @exp(i64) #18
declare extern_weak x86_64_sysvcc i64 @fflush(i64) #18
declare extern_weak x86_64_sysvcc i64 @floor(i64) #18
declare extern_weak x86_64_sysvcc i64 @fprintf(i64, i64, i64, i64, i64, i64, i64, i64, i64, i64, i64, i64, i64, i64, i64, i64) #18
declare extern_weak x86_64_sysvcc i64 @fputs(i64, i64) #18
declare extern_weak x86_64_sysvcc i64 @free(i64) #18
declare extern_weak x86_64_sysvcc i64 @fwrite(i64, i64, i64, i64) #18
declare extern_weak x86_64_sysvcc i64 @getchar() #18
declare extern_weak x86_64_sysvcc i64 @gettimeofday(i64, i64) #18
declare extern_weak x86_64_sysvcc i64 @__isoc99_fscanf(i64, i64, i64, i64, i64, i64, i64, i64, i64, i64, i64, i64, i64, i64, i64, i64) #18
declare extern_weak x86_64_sysvcc i64 @__isoc99_scanf(i64, i64, i64, i64, i64, i64, i64, i64, i64, i64, i64, i64, i64, i64, i64, i64) #18
declare extern_weak x86_64_sysvcc i64 @__isoc99_sscanf(i64, i64, i64, i64, i64, i64, i64, i64, i64, i64, i64, i64, i64, i64, i64, i64) #18
declare extern_weak x86_64_sysvcc i64 @log(i64) #18
declare extern_weak x86_64_sysvcc i64 @lrand48() #18
declare extern_weak x86_64_sysvcc i64 @malloc(i64) #18
declare extern_weak x86_64_sysvcc i64 @memalign(i64, i64) #18
declare extern_weak x86_64_sysvcc i64 @memcpy(i64, i64, i64) #18
declare extern_weak x86_64_sysvcc i64 @memset(i64, i64, i64) #18
declare extern_weak x86_64_sysvcc i64 @perror(i64) #18
declare extern_weak x86_64_sysvcc i64 @posix_memalign(i64, i64, i64) #18
declare extern_weak x86_64_sysvcc i64 @pow(i64, i64) #18
declare extern_weak x86_64_sysvcc i64 @printf(i64, i64, i64, i64, i64, i64, i64, i64, i64, i64, i64, i64, i64, i64, i64, i64) #18
declare extern_weak x86_64_sysvcc i64 @putchar(i64) #18
declare extern_weak x86_64_sysvcc i64 @puts(i64) #18
declare extern_weak x86_64_sysvcc i64 @rand() #18
declare extern_weak x86_64_sysvcc i64 @random() #18
declare extern_weak x86_64_sysvcc i64 @realloc(i64, i64) #18
declare extern_weak x86_64_sysvcc i64 @seed48(i64) #18
declare extern_weak x86_64_sysvcc i64 @sinf(i64) #18
declare extern_weak x86_64_sysvcc i64 @sprintf(i64, i64, i64, i64, i64, i64, i64, i64, i64, i64, i64, i64, i64, i64, i64, i64) #18
declare extern_weak x86_64_sysvcc i64 @srand(i64) #18
declare extern_weak x86_64_sysvcc i64 @strcat(i64, i64) #18
declare extern_weak x86_64_sysvcc i64 @strcmp(i64, i64) #18
declare extern_weak x86_64_sysvcc i64 @strcpy(i64, i64) #18
declare extern_weak x86_64_sysvcc i64 @strdup(i64) #18
declare extern_weak x86_64_sysvcc i64 @strlen(i64) #18
declare extern_weak x86_64_sysvcc i64 @strncmp(i64, i64, i64) #18
declare extern_weak x86_64_sysvcc i64 @strtoll(i64, i64, i64) #18
declare extern_weak x86_64_sysvcc i64 @time(i64) #18
declare extern_weak x86_64_sysvcc i64 @ungetc(i64, i64) #18
declare extern_weak x86_64_sysvcc i64 @pthread_join(i64, i64) #18
declare extern_weak x86_64_sysvcc i64 @pthread_create(i64, i64, i64, i64) #18

declare %struct.Memory* @__remill_function_call(%struct.State* dereferenceable(3376), i64, %struct.Memory*)

define internal %struct.Memory* @ext_pthread_create(%struct.State*, i64, %struct.Memory*) #18 {
  %4 = call %struct.Memory* @__remill_function_call(%struct.State* %0, i64 ptrtoint (i64 (i64, i64, i64, i64)* @pthread_create to i64), %struct.Memory* %2)
  ret %struct.Memory* %4
}

define internal %struct.Memory* @ext_pthread_join(%struct.State*, i64, %struct.Memory*) #18 {
  %4 = call %struct.Memory* @__remill_function_call(%struct.State* %0, i64 ptrtoint (i64 (i64, i64)* @pthread_join to i64), %struct.Memory* %2)
  ret %struct.Memory* %4
}

define internal %struct.Memory* @ext_gettimeofday(%struct.State*, i64, %struct.Memory*) #18 {
  %4 = call %struct.Memory* @__remill_function_call(%struct.State* %0, i64 ptrtoint (i64 (i64, i64)* @gettimeofday to i64), %struct.Memory* %2)
  ret %struct.Memory* %4
}

define internal %struct.Memory* @ext___isoc99_scanf(%struct.State*, i64, %struct.Memory*) #18 {
  %4 = call %struct.Memory* @__remill_function_call(%struct.State* %0, i64 ptrtoint (i64 (i64, i64, i64, i64, i64, i64, i64, i64, i64, i64, i64, i64, i64, i64, i64, i64)* @__isoc99_scanf to i64), %struct.Memory* %2)
  ret %struct.Memory* %4
}


define internal %struct.Memory* @ext_fflush(%struct.State*, i64, %struct.Memory*) #18 {
  %4 = call %struct.Memory* @__remill_function_call(%struct.State* %0, i64 ptrtoint (i64 (i64)* @fflush to i64), %struct.Memory* %2)
  ret %struct.Memory* %4
}

define internal %struct.Memory* @ext___isoc99_fscanf(%struct.State*, i64, %struct.Memory*) #18 {
  %4 = call %struct.Memory* @__remill_function_call(%struct.State* %0, i64 ptrtoint (i64 (i64, i64, i64, i64, i64, i64, i64, i64, i64, i64, i64, i64, i64, i64, i64, i64)* @__isoc99_fscanf to i64), %struct.Memory* %2)
  ret %struct.Memory* %4
}

define internal %struct.Memory* @ext___isoc99_sscanf(%struct.State*, i64, %struct.Memory*) #18 {
  %4 = call %struct.Memory* @__remill_function_call(%struct.State* %0, i64 ptrtoint (i64 (i64, i64, i64, i64, i64, i64, i64, i64, i64, i64, i64, i64, i64, i64, i64, i64)* @__isoc99_sscanf to i64), %struct.Memory* %2)
  ret %struct.Memory* %4
}

define internal %struct.Memory* @ext_memcpy(%struct.State*, i64, %struct.Memory*) #18 {
  %4 = call %struct.Memory* @__remill_function_call(%struct.State* %0, i64 ptrtoint (i64 (i64, i64, i64)* @memcpy to i64), %struct.Memory* %2)
  ret %struct.Memory* %4
}

define internal %struct.Memory* @ext_posix_memalign(%struct.State*, i64, %struct.Memory*) #18 {
  %4 = call %struct.Memory* @__remill_function_call(%struct.State* %0, i64 ptrtoint (i64 (i64, i64, i64)* @posix_memalign to i64), %struct.Memory* %2)
  ret %struct.Memory* %4
}

define internal %struct.Memory* @ext_fprintf(%struct.State*, i64, %struct.Memory*) #18 {
  %4 = call %struct.Memory* @__remill_function_call(%struct.State* %0, i64 ptrtoint (i64 (i64, i64, i64, i64, i64, i64, i64, i64, i64, i64, i64, i64, i64, i64, i64, i64)* @fprintf to i64), %struct.Memory* %2)
  ret %struct.Memory* %4
}

define internal %struct.Memory* @ext_memset(%struct.State*, i64, %struct.Memory*) #18 {
  %4 = call %struct.Memory* @__remill_function_call(%struct.State* %0, i64 ptrtoint (i64 (i64, i64, i64)* @memset to i64), %struct.Memory* %2)
  ret %struct.Memory* %4
}

define internal %struct.Memory* @ext_perror(%struct.State*, i64, %struct.Memory*) #18 {
  %4 = call %struct.Memory* @__remill_function_call(%struct.State* %0, i64 ptrtoint (i64 (i64)* @perror to i64), %struct.Memory* %2)
  ret %struct.Memory* %4
}

define internal %struct.Memory* @ext_floor(%struct.State*, i64, %struct.Memory*) #18 {
  %4 = call %struct.Memory* @__remill_function_call(%struct.State* %0, i64 ptrtoint (i64 (i64)* @floor to i64), %struct.Memory* %2)
  ret %struct.Memory* %4
}

define internal %struct.Memory* @ext_malloc(%struct.State*, i64, %struct.Memory*) #18 {
  %4 = call %struct.Memory* @__remill_function_call(%struct.State* %0, i64 ptrtoint (i64 (i64)* @malloc to i64), %struct.Memory* %2)
  ret %struct.Memory* %4
}

define internal %struct.Memory* @ext_atoi(%struct.State*, i64, %struct.Memory*) #18 {
  %4 = call %struct.Memory* @__remill_function_call(%struct.State* %0, i64 ptrtoint (i64 (i64)* @atoi to i64), %struct.Memory* %2)
  ret %struct.Memory* %4
}

define internal %struct.Memory* @ext_strcpy(%struct.State*, i64, %struct.Memory*) #18 {
  %4 = call %struct.Memory* @__remill_function_call(%struct.State* %0, i64 ptrtoint (i64 (i64, i64)* @strcpy to i64), %struct.Memory* %2)
  ret %struct.Memory* %4
}

define internal %struct.Memory* @ext_ungetc(%struct.State*, i64, %struct.Memory*) #18 {
  %4 = call %struct.Memory* @__remill_function_call(%struct.State* %0, i64 ptrtoint (i64 (i64, i64)* @ungetc to i64), %struct.Memory* %2)
  ret %struct.Memory* %4
}

define internal %struct.Memory* @ext_pow(%struct.State*, i64, %struct.Memory*) #18 {
  %4 = call %struct.Memory* @__remill_function_call(%struct.State* %0, i64 ptrtoint (i64 (i64, i64)* @pow to i64), %struct.Memory* %2)
  ret %struct.Memory* %4
}

define internal %struct.Memory* @ext_seed48(%struct.State*, i64, %struct.Memory*) #18 {
  %4 = call %struct.Memory* @__remill_function_call(%struct.State* %0, i64 ptrtoint (i64 (i64)* @seed48 to i64), %struct.Memory* %2)
  ret %struct.Memory* %4
}

define internal %struct.Memory* @ext_asin(%struct.State*, i64, %struct.Memory*) #18 {
  %4 = call %struct.Memory* @__remill_function_call(%struct.State* %0, i64 ptrtoint (i64 (i64)* @asin to i64), %struct.Memory* %2)
  ret %struct.Memory* %4
}

define internal %struct.Memory* @ext_strdup(%struct.State*, i64, %struct.Memory*) #18 {
  %4 = call %struct.Memory* @__remill_function_call(%struct.State* %0, i64 ptrtoint (i64 (i64)* @strdup to i64), %struct.Memory* %2)
  ret %struct.Memory* %4
}

define internal %struct.Memory* @ext_cosf(%struct.State*, i64, %struct.Memory*) #18 {
  %4 = call %struct.Memory* @__remill_function_call(%struct.State* %0, i64 ptrtoint (i64 (i64)* @cosf to i64), %struct.Memory* %2)
  ret %struct.Memory* %4
}

define internal %struct.Memory* @ext_abs(%struct.State*, i64, %struct.Memory*) #18 {
  %4 = call %struct.Memory* @__remill_function_call(%struct.State* %0, i64 ptrtoint (i64 (i64)* @abs to i64), %struct.Memory* %2)
  ret %struct.Memory* %4
}

define internal %struct.Memory* @ext_abort(%struct.State*, i64, %struct.Memory*) #18 {
  %4 = call %struct.Memory* @__remill_function_call(%struct.State* %0, i64 ptrtoint (i64 ()* @abort to i64), %struct.Memory* %2)
  ret %struct.Memory* %4
}

define internal %struct.Memory* @ext_exit(%struct.State*, i64, %struct.Memory*) #18 {
  %4 = call %struct.Memory* @__remill_function_call(%struct.State* %0, i64 ptrtoint (i64 (i64)* @exit to i64), %struct.Memory* %2)
  ret %struct.Memory* %4
}

define internal %struct.Memory* @ext_putchar(%struct.State*, i64, %struct.Memory*) #18 {
  %4 = call %struct.Memory* @__remill_function_call(%struct.State* %0, i64 ptrtoint (i64 (i64)* @putchar to i64), %struct.Memory* %2)
  ret %struct.Memory* %4
}

define internal %struct.Memory* @ext_strncmp(%struct.State*, i64, %struct.Memory*) #18 {
  %4 = call %struct.Memory* @__remill_function_call(%struct.State* %0, i64 ptrtoint (i64 (i64, i64, i64)* @strncmp to i64), %struct.Memory* %2)
  ret %struct.Memory* %4
}

define internal %struct.Memory* @ext_strcmp(%struct.State*, i64, %struct.Memory*) #18 {
  %4 = call %struct.Memory* @__remill_function_call(%struct.State* %0, i64 ptrtoint (i64 (i64, i64)* @strcmp to i64), %struct.Memory* %2)
  ret %struct.Memory* %4
}

define internal %struct.Memory* @ext_rand(%struct.State*, i64, %struct.Memory*) #18 {
  %4 = call %struct.Memory* @__remill_function_call(%struct.State* %0, i64 ptrtoint (i64 ()* @rand to i64), %struct.Memory* %2)
  ret %struct.Memory* %4
}

define internal %struct.Memory* @ext_calloc(%struct.State*, i64, %struct.Memory*) #18 {
  %4 = call %struct.Memory* @__remill_function_call(%struct.State* %0, i64 ptrtoint (i64 (i64, i64)* @calloc to i64), %struct.Memory* %2)
  ret %struct.Memory* %4
}

define internal %struct.Memory* @ext_fwrite(%struct.State*, i64, %struct.Memory*) #18 {
  %4 = call %struct.Memory* @__remill_function_call(%struct.State* %0, i64 ptrtoint (i64 (i64, i64, i64, i64)* @fwrite to i64), %struct.Memory* %2)
  ret %struct.Memory* %4
}

define internal %struct.Memory* @ext_realloc(%struct.State*, i64, %struct.Memory*) #18 {
  %4 = call %struct.Memory* @__remill_function_call(%struct.State* %0, i64 ptrtoint (i64 (i64, i64)* @realloc to i64), %struct.Memory* %2)
  ret %struct.Memory* %4
}


define internal %struct.Memory* @ext_log(%struct.State*, i64, %struct.Memory*) #18 {
  %4 = call %struct.Memory* @__remill_function_call(%struct.State* %0, i64 ptrtoint (i64 (i64)* @log to i64), %struct.Memory* %2)
  ret %struct.Memory* %4
}


define internal %struct.Memory* @ext_exp(%struct.State*, i64, %struct.Memory*) #18 {
  %4 = call %struct.Memory* @__remill_function_call(%struct.State* %0, i64 ptrtoint (i64 (i64)* @exp to i64), %struct.Memory* %2)
  ret %struct.Memory* %4
}

define internal %struct.Memory* @ext_sprintf(%struct.State*, i64, %struct.Memory*) #18 {
  %4 = call %struct.Memory* @__remill_function_call(%struct.State* %0, i64 ptrtoint (i64 (i64, i64, i64, i64, i64, i64, i64, i64, i64, i64, i64, i64, i64, i64, i64, i64)* @sprintf to i64), %struct.Memory* %2)
  ret %struct.Memory* %4
}

define internal %struct.Memory* @ext_strcat(%struct.State*, i64, %struct.Memory*) #18 {
  %4 = call %struct.Memory* @__remill_function_call(%struct.State* %0, i64 ptrtoint (i64 (i64, i64)* @strcat to i64), %struct.Memory* %2)
  ret %struct.Memory* %4
}

define internal %struct.Memory* @ext_puts(%struct.State*, i64, %struct.Memory*) #18 {
  %4 = call %struct.Memory* @__remill_function_call(%struct.State* %0, i64 ptrtoint (i64 (i64)* @puts to i64), %struct.Memory* %2)
  ret %struct.Memory* %4
}

define internal %struct.Memory* @ext_atol(%struct.State*, i64, %struct.Memory*) #18 {
  %4 = call %struct.Memory* @__remill_function_call(%struct.State* %0, i64 ptrtoint (i64 (i64)* @atol to i64), %struct.Memory* %2)
  ret %struct.Memory* %4
}

define internal %struct.Memory* @ext_atof(%struct.State*, i64, %struct.Memory*) #18 {
  %4 = call %struct.Memory* @__remill_function_call(%struct.State* %0, i64 ptrtoint (i64 (i64)* @atof to i64), %struct.Memory* %2)
  ret %struct.Memory* %4
}

define internal %struct.Memory* @ext_clock(%struct.State*, i64, %struct.Memory*) #18 {
  %4 = call %struct.Memory* @__remill_function_call(%struct.State* %0, i64 ptrtoint (i64 ()* @clock to i64), %struct.Memory* %2)
  ret %struct.Memory* %4
}

define internal %struct.Memory* @ext_strlen(%struct.State*, i64, %struct.Memory*) #18 {
  %4 = call %struct.Memory* @__remill_function_call(%struct.State* %0, i64 ptrtoint (i64 (i64)* @strlen to i64), %struct.Memory* %2)
  ret %struct.Memory* %4
}

define internal %struct.Memory* @ext_free(%struct.State*, i64, %struct.Memory*) #18 {
  %4 = call %struct.Memory* @__remill_function_call(%struct.State* %0, i64 ptrtoint (i64 (i64)* @free to i64), %struct.Memory* %2)
  ret %struct.Memory* %4
}

define internal %struct.Memory* @ext_srand(%struct.State*, i64, %struct.Memory*) #18 {
  %4 = call %struct.Memory* @__remill_function_call(%struct.State* %0, i64 ptrtoint (i64 (i64)* @srand to i64), %struct.Memory* %2)
  ret %struct.Memory* %4
}

define internal %struct.Memory* @ext_fputs(%struct.State*, i64, %struct.Memory*) #18 {
  %4 = call %struct.Memory* @__remill_function_call(%struct.State* %0, i64 ptrtoint (i64 (i64, i64)* @fputs to i64), %struct.Memory* %2)
  ret %struct.Memory* %4
}

define internal %struct.Memory* @ext_strtoll(%struct.State*, i64, %struct.Memory*) #18 {
  %4 = call %struct.Memory* @__remill_function_call(%struct.State* %0, i64 ptrtoint (i64 (i64, i64, i64)* @strtoll to i64), %struct.Memory* %2)
  ret %struct.Memory* %4
}

define internal %struct.Memory* @ext_sinf(%struct.State*, i64, %struct.Memory*) #18 {
  %4 = call %struct.Memory* @__remill_function_call(%struct.State* %0, i64 ptrtoint (i64 (i64)* @sinf to i64), %struct.Memory* %2)
  ret %struct.Memory* %4
}

define internal %struct.Memory* @ext_time(%struct.State*, i64, %struct.Memory*) #18 {
  %4 = call %struct.Memory* @__remill_function_call(%struct.State* %0, i64 ptrtoint (i64 (i64)* @time to i64), %struct.Memory* %2)
  ret %struct.Memory* %4
}

define internal %struct.Memory* @ext_printf(%struct.State*, i64, %struct.Memory*) #18 {
  %4 = call %struct.Memory* @__remill_function_call(%struct.State* %0, i64 ptrtoint (i64 (i64, i64, i64, i64, i64, i64, i64, i64, i64, i64, i64, i64, i64, i64, i64, i64)* @printf to i64), %struct.Memory* %2)
  ret %struct.Memory* %4
}

define internal %struct.Memory* @ext_memalign(%struct.State*, i64, %struct.Memory*) #18 {
  %4 = call %struct.Memory* @__remill_function_call(%struct.State* %0, i64 ptrtoint (i64 (i64, i64)* @memalign to i64), %struct.Memory* %2)
  ret %struct.Memory* %4
}

define internal %struct.Memory* @ext_random(%struct.State*, i64, %struct.Memory*) #18 {
  %4 = call %struct.Memory* @__remill_function_call(%struct.State* %0, i64 ptrtoint (i64 ()* @random to i64), %struct.Memory* %2)
  ret %struct.Memory* %4
}

define internal %struct.Memory* @ext_lrand48(%struct.State*, i64, %struct.Memory*) #18 {
  %4 = call %struct.Memory* @__remill_function_call(%struct.State* %0, i64 ptrtoint (i64 ()* @lrand48 to i64), %struct.Memory* %2)
  ret %struct.Memory* %4
}

define internal %struct.Memory* @ext_getchar(%struct.State*, i64, %struct.Memory*) #18 {
  %4 = call %struct.Memory* @__remill_function_call(%struct.State* %0, i64 ptrtoint (i64 ()* @getchar to i64), %struct.Memory* %2)
  ret %struct.Memory* %4
}

declare %struct.Memory* @ext_sqrt(%struct.State* noalias dereferenceable(3376), i64, %struct.Memory* noalias)
declare %struct.Memory* @ext_atan(%struct.State* noalias dereferenceable(3376), i64, %struct.Memory* noalias)
declare %struct.Memory* @ext_cos(%struct.State* noalias dereferenceable(3376), i64, %struct.Memory* noalias) 
declare %struct.Memory* @ext_tan(%struct.State* noalias dereferenceable(3376), i64, %struct.Memory* noalias) 
declare %struct.Memory* @ext_sin(%struct.State* noalias dereferenceable(3376), i64, %struct.Memory* noalias) 


; Data Access Globals
%G_0x4f8__rip__type = type <{ [8 x i8] }>
@G_0x4f8__rip_= global %G_0x4f8__rip__type <{ [8 x i8] c"\00\00\00\00\00\00\00\00" }>


define %struct.Memory* @kernel_durbin_StrictFP(%struct.State* noalias , i64, %struct.Memory* noalias) alwaysinline  {
entry:
  %3 = getelementptr inbounds %struct.State, %struct.State* %0, i64 0, i32 6, i32 33, i32 0, i32 0
  store i64 %1, i64* %3, align 8
  %BRANCH_TAKEN = alloca i8, align 1
  store i8 0, i8* %BRANCH_TAKEN, align 1
  %MEMORY = alloca %struct.Memory*, align 8
  store %struct.Memory* %2, %struct.Memory** %MEMORY, align 8

  ; Code: .kernel_durbin_StrictFP:	 RIP: 400e90	 Bytes: 0
  ; Code: pushq %rbp	 RIP: 400e90	 Bytes: 1
  %loadMem_400e90 = load %struct.Memory*, %struct.Memory** %MEMORY
  %call_400e90 = call %struct.Memory* @routine_pushq__rbp(%struct.State* %0, i64  0, %struct.Memory* %loadMem_400e90)
  store %struct.Memory* %call_400e90, %struct.Memory** %MEMORY

  ; Code: movq %rsp, %rbp	 RIP: 400e91	 Bytes: 3
  %loadMem_400e91 = load %struct.Memory*, %struct.Memory** %MEMORY
  %call_400e91 = call %struct.Memory* @routine_movq__rsp___rbp(%struct.State* %0, i64  0, %struct.Memory* %loadMem_400e91)
  store %struct.Memory* %call_400e91, %struct.Memory** %MEMORY

  ; Code: movq 0x10(%rbp), %rax	 RIP: 400e94	 Bytes: 4
  %loadMem_400e94 = load %struct.Memory*, %struct.Memory** %MEMORY
  %call_400e94 = call %struct.Memory* @routine_movq_0x10__rbp____rax(%struct.State* %0, i64  0, %struct.Memory* %loadMem_400e94)
  store %struct.Memory* %call_400e94, %struct.Memory** %MEMORY

  ; Code: movsd 0x4f8(%rip), %xmm0	 RIP: 400e98	 Bytes: 8
  %loadMem_400e98 = load %struct.Memory*, %struct.Memory** %MEMORY
  %call_400e98 = call %struct.Memory* @routine_movsd_0x4f8__rip____xmm0(%struct.State* %0, i64  0, %struct.Memory* %loadMem_400e98)
  store %struct.Memory* %call_400e98, %struct.Memory** %MEMORY

  ; Code: movl %edi, -0x4(%rbp)	 RIP: 400ea0	 Bytes: 3
  %loadMem_400ea0 = load %struct.Memory*, %struct.Memory** %MEMORY
  %call_400ea0 = call %struct.Memory* @routine_movl__edi__MINUS0x4__rbp_(%struct.State* %0, i64  0, %struct.Memory* %loadMem_400ea0)
  store %struct.Memory* %call_400ea0, %struct.Memory** %MEMORY

  ; Code: movq %rsi, -0x10(%rbp)	 RIP: 400ea3	 Bytes: 4
  %loadMem_400ea3 = load %struct.Memory*, %struct.Memory** %MEMORY
  %call_400ea3 = call %struct.Memory* @routine_movq__rsi__MINUS0x10__rbp_(%struct.State* %0, i64  0, %struct.Memory* %loadMem_400ea3)
  store %struct.Memory* %call_400ea3, %struct.Memory** %MEMORY

  ; Code: movq %rdx, -0x18(%rbp)	 RIP: 400ea7	 Bytes: 4
  %loadMem_400ea7 = load %struct.Memory*, %struct.Memory** %MEMORY
  %call_400ea7 = call %struct.Memory* @routine_movq__rdx__MINUS0x18__rbp_(%struct.State* %0, i64  0, %struct.Memory* %loadMem_400ea7)
  store %struct.Memory* %call_400ea7, %struct.Memory** %MEMORY

  ; Code: movq %rcx, -0x20(%rbp)	 RIP: 400eab	 Bytes: 4
  %loadMem_400eab = load %struct.Memory*, %struct.Memory** %MEMORY
  %call_400eab = call %struct.Memory* @routine_movq__rcx__MINUS0x20__rbp_(%struct.State* %0, i64  0, %struct.Memory* %loadMem_400eab)
  store %struct.Memory* %call_400eab, %struct.Memory** %MEMORY

  ; Code: movq %r8, -0x28(%rbp)	 RIP: 400eaf	 Bytes: 4
  %loadMem_400eaf = load %struct.Memory*, %struct.Memory** %MEMORY
  %call_400eaf = call %struct.Memory* @routine_movq__r8__MINUS0x28__rbp_(%struct.State* %0, i64  0, %struct.Memory* %loadMem_400eaf)
  store %struct.Memory* %call_400eaf, %struct.Memory** %MEMORY

  ; Code: movq %r9, -0x30(%rbp)	 RIP: 400eb3	 Bytes: 4
  %loadMem_400eb3 = load %struct.Memory*, %struct.Memory** %MEMORY
  %call_400eb3 = call %struct.Memory* @routine_movq__r9__MINUS0x30__rbp_(%struct.State* %0, i64  0, %struct.Memory* %loadMem_400eb3)
  store %struct.Memory* %call_400eb3, %struct.Memory** %MEMORY

  ; Code: movq %rax, -0x38(%rbp)	 RIP: 400eb7	 Bytes: 4
  %loadMem_400eb7 = load %struct.Memory*, %struct.Memory** %MEMORY
  %call_400eb7 = call %struct.Memory* @routine_movq__rax__MINUS0x38__rbp_(%struct.State* %0, i64  0, %struct.Memory* %loadMem_400eb7)
  store %struct.Memory* %call_400eb7, %struct.Memory** %MEMORY

  ; Code: movq -0x30(%rbp), %rax	 RIP: 400ebb	 Bytes: 4
  %loadMem_400ebb = load %struct.Memory*, %struct.Memory** %MEMORY
  %call_400ebb = call %struct.Memory* @routine_movq_MINUS0x30__rbp____rax(%struct.State* %0, i64  0, %struct.Memory* %loadMem_400ebb)
  store %struct.Memory* %call_400ebb, %struct.Memory** %MEMORY

  ; Code: movsd (%rax), %xmm1	 RIP: 400ebf	 Bytes: 4
  %loadMem_400ebf = load %struct.Memory*, %struct.Memory** %MEMORY
  %call_400ebf = call %struct.Memory* @routine_movsd___rax____xmm1(%struct.State* %0, i64  0, %struct.Memory* %loadMem_400ebf)
  store %struct.Memory* %call_400ebf, %struct.Memory** %MEMORY

  ; Code: movq -0x10(%rbp), %rax	 RIP: 400ec3	 Bytes: 4
  %loadMem_400ec3 = load %struct.Memory*, %struct.Memory** %MEMORY
  %call_400ec3 = call %struct.Memory* @routine_movq_MINUS0x10__rbp____rax(%struct.State* %0, i64  0, %struct.Memory* %loadMem_400ec3)
  store %struct.Memory* %call_400ec3, %struct.Memory** %MEMORY

  ; Code: movsd %xmm1, (%rax)	 RIP: 400ec7	 Bytes: 4
  %loadMem_400ec7 = load %struct.Memory*, %struct.Memory** %MEMORY
  %call_400ec7 = call %struct.Memory* @routine_movsd__xmm1____rax_(%struct.State* %0, i64  0, %struct.Memory* %loadMem_400ec7)
  store %struct.Memory* %call_400ec7, %struct.Memory** %MEMORY

  ; Code: movq -0x28(%rbp), %rax	 RIP: 400ecb	 Bytes: 4
  %loadMem_400ecb = load %struct.Memory*, %struct.Memory** %MEMORY
  %call_400ecb = call %struct.Memory* @routine_movq_MINUS0x28__rbp____rax(%struct.State* %0, i64  0, %struct.Memory* %loadMem_400ecb)
  store %struct.Memory* %call_400ecb, %struct.Memory** %MEMORY

  ; Code: movsd %xmm0, (%rax)	 RIP: 400ecf	 Bytes: 4
  %loadMem_400ecf = load %struct.Memory*, %struct.Memory** %MEMORY
  %call_400ecf = call %struct.Memory* @routine_movsd__xmm0____rax_(%struct.State* %0, i64  0, %struct.Memory* %loadMem_400ecf)
  store %struct.Memory* %call_400ecf, %struct.Memory** %MEMORY

  ; Code: movq -0x30(%rbp), %rax	 RIP: 400ed3	 Bytes: 4
  %loadMem_400ed3 = load %struct.Memory*, %struct.Memory** %MEMORY
  %call_400ed3 = call %struct.Memory* @routine_movq_MINUS0x30__rbp____rax(%struct.State* %0, i64  0, %struct.Memory* %loadMem_400ed3)
  store %struct.Memory* %call_400ed3, %struct.Memory** %MEMORY

  ; Code: movsd (%rax), %xmm0	 RIP: 400ed7	 Bytes: 4
  %loadMem_400ed7 = load %struct.Memory*, %struct.Memory** %MEMORY
  %call_400ed7 = call %struct.Memory* @routine_movsd___rax____xmm0(%struct.State* %0, i64  0, %struct.Memory* %loadMem_400ed7)
  store %struct.Memory* %call_400ed7, %struct.Memory** %MEMORY

  ; Code: movq -0x20(%rbp), %rax	 RIP: 400edb	 Bytes: 4
  %loadMem_400edb = load %struct.Memory*, %struct.Memory** %MEMORY
  %call_400edb = call %struct.Memory* @routine_movq_MINUS0x20__rbp____rax(%struct.State* %0, i64  0, %struct.Memory* %loadMem_400edb)
  store %struct.Memory* %call_400edb, %struct.Memory** %MEMORY

  ; Code: movsd %xmm0, (%rax)	 RIP: 400edf	 Bytes: 4
  %loadMem_400edf = load %struct.Memory*, %struct.Memory** %MEMORY
  %call_400edf = call %struct.Memory* @routine_movsd__xmm0____rax_(%struct.State* %0, i64  0, %struct.Memory* %loadMem_400edf)
  store %struct.Memory* %call_400edf, %struct.Memory** %MEMORY

  ; Code: movl $0x1, -0x40(%rbp)	 RIP: 400ee3	 Bytes: 7
  %loadMem_400ee3 = load %struct.Memory*, %struct.Memory** %MEMORY
  %call_400ee3 = call %struct.Memory* @routine_movl__0x1__MINUS0x40__rbp_(%struct.State* %0, i64  0, %struct.Memory* %loadMem_400ee3)
  store %struct.Memory* %call_400ee3, %struct.Memory** %MEMORY

  ; Code: .L_400eea:	 RIP: 400eea	 Bytes: 0
  br label %block_.L_400eea
block_.L_400eea:

  ; Code: movl -0x40(%rbp), %eax	 RIP: 400eea	 Bytes: 3
  %loadMem_400eea = load %struct.Memory*, %struct.Memory** %MEMORY
  %call_400eea = call %struct.Memory* @routine_movl_MINUS0x40__rbp____eax(%struct.State* %0, i64  0, %struct.Memory* %loadMem_400eea)
  store %struct.Memory* %call_400eea, %struct.Memory** %MEMORY

  ; Code: cmpl -0x4(%rbp), %eax	 RIP: 400eed	 Bytes: 3
  %loadMem_400eed = load %struct.Memory*, %struct.Memory** %MEMORY
  %call_400eed = call %struct.Memory* @routine_cmpl_MINUS0x4__rbp____eax(%struct.State* %0, i64  0, %struct.Memory* %loadMem_400eed)
  store %struct.Memory* %call_400eed, %struct.Memory** %MEMORY

  ; Code: jge .L_40111f	 RIP: 400ef0	 Bytes: 6
  %loadMem_400ef0 = load %struct.Memory*, %struct.Memory** %MEMORY
  %call_400ef0 = call %struct.Memory* @routine_jge_.L_40111f(%struct.State* %0, i64  0, %struct.Memory* %loadMem_400ef0, i8* %BRANCH_TAKEN, i64 559, i64 6, i64 6)
  store %struct.Memory* %call_400ef0, %struct.Memory** %MEMORY

  %loadBr_400ef0 = load i8, i8* %BRANCH_TAKEN
  %cmpBr_400ef0 = icmp eq i8 %loadBr_400ef0, 1
  br i1 %cmpBr_400ef0, label %block_.L_40111f, label %block_400ef6

block_400ef6:
  ; Code: movq -0x28(%rbp), %rax	 RIP: 400ef6	 Bytes: 4
  %loadMem_400ef6 = load %struct.Memory*, %struct.Memory** %MEMORY
  %call_400ef6 = call %struct.Memory* @routine_movq_MINUS0x28__rbp____rax(%struct.State* %0, i64  0, %struct.Memory* %loadMem_400ef6)
  store %struct.Memory* %call_400ef6, %struct.Memory** %MEMORY

  ; Code: movl -0x40(%rbp), %ecx	 RIP: 400efa	 Bytes: 3
  %loadMem_400efa = load %struct.Memory*, %struct.Memory** %MEMORY
  %call_400efa = call %struct.Memory* @routine_movl_MINUS0x40__rbp____ecx(%struct.State* %0, i64  0, %struct.Memory* %loadMem_400efa)
  store %struct.Memory* %call_400efa, %struct.Memory** %MEMORY

  ; Code: subl $0x1, %ecx	 RIP: 400efd	 Bytes: 3
  %loadMem_400efd = load %struct.Memory*, %struct.Memory** %MEMORY
  %call_400efd = call %struct.Memory* @routine_subl__0x1___ecx(%struct.State* %0, i64  0, %struct.Memory* %loadMem_400efd)
  store %struct.Memory* %call_400efd, %struct.Memory** %MEMORY

  ; Code: movslq %ecx, %rdx	 RIP: 400f00	 Bytes: 3
  %loadMem_400f00 = load %struct.Memory*, %struct.Memory** %MEMORY
  %call_400f00 = call %struct.Memory* @routine_movslq__ecx___rdx(%struct.State* %0, i64  0, %struct.Memory* %loadMem_400f00)
  store %struct.Memory* %call_400f00, %struct.Memory** %MEMORY

  ; Code: movsd (%rax,%rdx,8), %xmm0	 RIP: 400f03	 Bytes: 5
  %loadMem_400f03 = load %struct.Memory*, %struct.Memory** %MEMORY
  %call_400f03 = call %struct.Memory* @routine_movsd___rax__rdx_8____xmm0(%struct.State* %0, i64  0, %struct.Memory* %loadMem_400f03)
  store %struct.Memory* %call_400f03, %struct.Memory** %MEMORY

  ; Code: movq -0x20(%rbp), %rax	 RIP: 400f08	 Bytes: 4
  %loadMem_400f08 = load %struct.Memory*, %struct.Memory** %MEMORY
  %call_400f08 = call %struct.Memory* @routine_movq_MINUS0x20__rbp____rax(%struct.State* %0, i64  0, %struct.Memory* %loadMem_400f08)
  store %struct.Memory* %call_400f08, %struct.Memory** %MEMORY

  ; Code: movl -0x40(%rbp), %ecx	 RIP: 400f0c	 Bytes: 3
  %loadMem_400f0c = load %struct.Memory*, %struct.Memory** %MEMORY
  %call_400f0c = call %struct.Memory* @routine_movl_MINUS0x40__rbp____ecx(%struct.State* %0, i64  0, %struct.Memory* %loadMem_400f0c)
  store %struct.Memory* %call_400f0c, %struct.Memory** %MEMORY

  ; Code: subl $0x1, %ecx	 RIP: 400f0f	 Bytes: 3
  %loadMem_400f0f = load %struct.Memory*, %struct.Memory** %MEMORY
  %call_400f0f = call %struct.Memory* @routine_subl__0x1___ecx(%struct.State* %0, i64  0, %struct.Memory* %loadMem_400f0f)
  store %struct.Memory* %call_400f0f, %struct.Memory** %MEMORY

  ; Code: movslq %ecx, %rdx	 RIP: 400f12	 Bytes: 3
  %loadMem_400f12 = load %struct.Memory*, %struct.Memory** %MEMORY
  %call_400f12 = call %struct.Memory* @routine_movslq__ecx___rdx(%struct.State* %0, i64  0, %struct.Memory* %loadMem_400f12)
  store %struct.Memory* %call_400f12, %struct.Memory** %MEMORY

  ; Code: movsd (%rax,%rdx,8), %xmm1	 RIP: 400f15	 Bytes: 5
  %loadMem_400f15 = load %struct.Memory*, %struct.Memory** %MEMORY
  %call_400f15 = call %struct.Memory* @routine_movsd___rax__rdx_8____xmm1(%struct.State* %0, i64  0, %struct.Memory* %loadMem_400f15)
  store %struct.Memory* %call_400f15, %struct.Memory** %MEMORY

  ; Code: movq -0x20(%rbp), %rax	 RIP: 400f1a	 Bytes: 4
  %loadMem_400f1a = load %struct.Memory*, %struct.Memory** %MEMORY
  %call_400f1a = call %struct.Memory* @routine_movq_MINUS0x20__rbp____rax(%struct.State* %0, i64  0, %struct.Memory* %loadMem_400f1a)
  store %struct.Memory* %call_400f1a, %struct.Memory** %MEMORY

  ; Code: movl -0x40(%rbp), %ecx	 RIP: 400f1e	 Bytes: 3
  %loadMem_400f1e = load %struct.Memory*, %struct.Memory** %MEMORY
  %call_400f1e = call %struct.Memory* @routine_movl_MINUS0x40__rbp____ecx(%struct.State* %0, i64  0, %struct.Memory* %loadMem_400f1e)
  store %struct.Memory* %call_400f1e, %struct.Memory** %MEMORY

  ; Code: subl $0x1, %ecx	 RIP: 400f21	 Bytes: 3
  %loadMem_400f21 = load %struct.Memory*, %struct.Memory** %MEMORY
  %call_400f21 = call %struct.Memory* @routine_subl__0x1___ecx(%struct.State* %0, i64  0, %struct.Memory* %loadMem_400f21)
  store %struct.Memory* %call_400f21, %struct.Memory** %MEMORY

  ; Code: movslq %ecx, %rdx	 RIP: 400f24	 Bytes: 3
  %loadMem_400f24 = load %struct.Memory*, %struct.Memory** %MEMORY
  %call_400f24 = call %struct.Memory* @routine_movslq__ecx___rdx(%struct.State* %0, i64  0, %struct.Memory* %loadMem_400f24)
  store %struct.Memory* %call_400f24, %struct.Memory** %MEMORY

  ; Code: mulsd (%rax,%rdx,8), %xmm1	 RIP: 400f27	 Bytes: 5
  %loadMem_400f27 = load %struct.Memory*, %struct.Memory** %MEMORY
  %call_400f27 = call %struct.Memory* @routine_mulsd___rax__rdx_8____xmm1(%struct.State* %0, i64  0, %struct.Memory* %loadMem_400f27)
  store %struct.Memory* %call_400f27, %struct.Memory** %MEMORY

  ; Code: movq -0x28(%rbp), %rax	 RIP: 400f2c	 Bytes: 4
  %loadMem_400f2c = load %struct.Memory*, %struct.Memory** %MEMORY
  %call_400f2c = call %struct.Memory* @routine_movq_MINUS0x28__rbp____rax(%struct.State* %0, i64  0, %struct.Memory* %loadMem_400f2c)
  store %struct.Memory* %call_400f2c, %struct.Memory** %MEMORY

  ; Code: movl -0x40(%rbp), %ecx	 RIP: 400f30	 Bytes: 3
  %loadMem_400f30 = load %struct.Memory*, %struct.Memory** %MEMORY
  %call_400f30 = call %struct.Memory* @routine_movl_MINUS0x40__rbp____ecx(%struct.State* %0, i64  0, %struct.Memory* %loadMem_400f30)
  store %struct.Memory* %call_400f30, %struct.Memory** %MEMORY

  ; Code: subl $0x1, %ecx	 RIP: 400f33	 Bytes: 3
  %loadMem_400f33 = load %struct.Memory*, %struct.Memory** %MEMORY
  %call_400f33 = call %struct.Memory* @routine_subl__0x1___ecx(%struct.State* %0, i64  0, %struct.Memory* %loadMem_400f33)
  store %struct.Memory* %call_400f33, %struct.Memory** %MEMORY

  ; Code: movslq %ecx, %rdx	 RIP: 400f36	 Bytes: 3
  %loadMem_400f36 = load %struct.Memory*, %struct.Memory** %MEMORY
  %call_400f36 = call %struct.Memory* @routine_movslq__ecx___rdx(%struct.State* %0, i64  0, %struct.Memory* %loadMem_400f36)
  store %struct.Memory* %call_400f36, %struct.Memory** %MEMORY

  ; Code: mulsd (%rax,%rdx,8), %xmm1	 RIP: 400f39	 Bytes: 5
  %loadMem_400f39 = load %struct.Memory*, %struct.Memory** %MEMORY
  %call_400f39 = call %struct.Memory* @routine_mulsd___rax__rdx_8____xmm1(%struct.State* %0, i64  0, %struct.Memory* %loadMem_400f39)
  store %struct.Memory* %call_400f39, %struct.Memory** %MEMORY

  ; Code: subsd %xmm1, %xmm0	 RIP: 400f3e	 Bytes: 4
  %loadMem_400f3e = load %struct.Memory*, %struct.Memory** %MEMORY
  %call_400f3e = call %struct.Memory* @routine_subsd__xmm1___xmm0(%struct.State* %0, i64  0, %struct.Memory* %loadMem_400f3e)
  store %struct.Memory* %call_400f3e, %struct.Memory** %MEMORY

  ; Code: movq -0x28(%rbp), %rax	 RIP: 400f42	 Bytes: 4
  %loadMem_400f42 = load %struct.Memory*, %struct.Memory** %MEMORY
  %call_400f42 = call %struct.Memory* @routine_movq_MINUS0x28__rbp____rax(%struct.State* %0, i64  0, %struct.Memory* %loadMem_400f42)
  store %struct.Memory* %call_400f42, %struct.Memory** %MEMORY

  ; Code: movslq -0x40(%rbp), %rdx	 RIP: 400f46	 Bytes: 4
  %loadMem_400f46 = load %struct.Memory*, %struct.Memory** %MEMORY
  %call_400f46 = call %struct.Memory* @routine_movslq_MINUS0x40__rbp____rdx(%struct.State* %0, i64  0, %struct.Memory* %loadMem_400f46)
  store %struct.Memory* %call_400f46, %struct.Memory** %MEMORY

  ; Code: movsd %xmm0, (%rax,%rdx,8)	 RIP: 400f4a	 Bytes: 5
  %loadMem_400f4a = load %struct.Memory*, %struct.Memory** %MEMORY
  %call_400f4a = call %struct.Memory* @routine_movsd__xmm0____rax__rdx_8_(%struct.State* %0, i64  0, %struct.Memory* %loadMem_400f4a)
  store %struct.Memory* %call_400f4a, %struct.Memory** %MEMORY

  ; Code: movq -0x30(%rbp), %rax	 RIP: 400f4f	 Bytes: 4
  %loadMem_400f4f = load %struct.Memory*, %struct.Memory** %MEMORY
  %call_400f4f = call %struct.Memory* @routine_movq_MINUS0x30__rbp____rax(%struct.State* %0, i64  0, %struct.Memory* %loadMem_400f4f)
  store %struct.Memory* %call_400f4f, %struct.Memory** %MEMORY

  ; Code: movslq -0x40(%rbp), %rdx	 RIP: 400f53	 Bytes: 4
  %loadMem_400f53 = load %struct.Memory*, %struct.Memory** %MEMORY
  %call_400f53 = call %struct.Memory* @routine_movslq_MINUS0x40__rbp____rdx(%struct.State* %0, i64  0, %struct.Memory* %loadMem_400f53)
  store %struct.Memory* %call_400f53, %struct.Memory** %MEMORY

  ; Code: movsd (%rax,%rdx,8), %xmm0	 RIP: 400f57	 Bytes: 5
  %loadMem_400f57 = load %struct.Memory*, %struct.Memory** %MEMORY
  %call_400f57 = call %struct.Memory* @routine_movsd___rax__rdx_8____xmm0(%struct.State* %0, i64  0, %struct.Memory* %loadMem_400f57)
  store %struct.Memory* %call_400f57, %struct.Memory** %MEMORY

  ; Code: movq -0x18(%rbp), %rax	 RIP: 400f5c	 Bytes: 4
  %loadMem_400f5c = load %struct.Memory*, %struct.Memory** %MEMORY
  %call_400f5c = call %struct.Memory* @routine_movq_MINUS0x18__rbp____rax(%struct.State* %0, i64  0, %struct.Memory* %loadMem_400f5c)
  store %struct.Memory* %call_400f5c, %struct.Memory** %MEMORY

  ; Code: movslq -0x40(%rbp), %rdx	 RIP: 400f60	 Bytes: 4
  %loadMem_400f60 = load %struct.Memory*, %struct.Memory** %MEMORY
  %call_400f60 = call %struct.Memory* @routine_movslq_MINUS0x40__rbp____rdx(%struct.State* %0, i64  0, %struct.Memory* %loadMem_400f60)
  store %struct.Memory* %call_400f60, %struct.Memory** %MEMORY

  ; Code: movsd %xmm0, (%rax,%rdx,8)	 RIP: 400f64	 Bytes: 5
  %loadMem_400f64 = load %struct.Memory*, %struct.Memory** %MEMORY
  %call_400f64 = call %struct.Memory* @routine_movsd__xmm0____rax__rdx_8_(%struct.State* %0, i64  0, %struct.Memory* %loadMem_400f64)
  store %struct.Memory* %call_400f64, %struct.Memory** %MEMORY

  ; Code: movl $0x0, -0x3c(%rbp)	 RIP: 400f69	 Bytes: 7
  %loadMem_400f69 = load %struct.Memory*, %struct.Memory** %MEMORY
  %call_400f69 = call %struct.Memory* @routine_movl__0x0__MINUS0x3c__rbp_(%struct.State* %0, i64  0, %struct.Memory* %loadMem_400f69)
  store %struct.Memory* %call_400f69, %struct.Memory** %MEMORY

  ; Code: .L_400f70:	 RIP: 400f70	 Bytes: 0
  br label %block_.L_400f70
block_.L_400f70:

  ; Code: movl -0x3c(%rbp), %eax	 RIP: 400f70	 Bytes: 3
  %loadMem_400f70 = load %struct.Memory*, %struct.Memory** %MEMORY
  %call_400f70 = call %struct.Memory* @routine_movl_MINUS0x3c__rbp____eax(%struct.State* %0, i64  0, %struct.Memory* %loadMem_400f70)
  store %struct.Memory* %call_400f70, %struct.Memory** %MEMORY

  ; Code: movl -0x40(%rbp), %ecx	 RIP: 400f73	 Bytes: 3
  %loadMem_400f73 = load %struct.Memory*, %struct.Memory** %MEMORY
  %call_400f73 = call %struct.Memory* @routine_movl_MINUS0x40__rbp____ecx(%struct.State* %0, i64  0, %struct.Memory* %loadMem_400f73)
  store %struct.Memory* %call_400f73, %struct.Memory** %MEMORY

  ; Code: subl $0x1, %ecx	 RIP: 400f76	 Bytes: 3
  %loadMem_400f76 = load %struct.Memory*, %struct.Memory** %MEMORY
  %call_400f76 = call %struct.Memory* @routine_subl__0x1___ecx(%struct.State* %0, i64  0, %struct.Memory* %loadMem_400f76)
  store %struct.Memory* %call_400f76, %struct.Memory** %MEMORY

  ; Code: cmpl %ecx, %eax	 RIP: 400f79	 Bytes: 2
  %loadMem_400f79 = load %struct.Memory*, %struct.Memory** %MEMORY
  %call_400f79 = call %struct.Memory* @routine_cmpl__ecx___eax(%struct.State* %0, i64  0, %struct.Memory* %loadMem_400f79)
  store %struct.Memory* %call_400f79, %struct.Memory** %MEMORY

  ; Code: jg .L_401003	 RIP: 400f7b	 Bytes: 6
  %loadMem_400f7b = load %struct.Memory*, %struct.Memory** %MEMORY
  %call_400f7b = call %struct.Memory* @routine_jg_.L_401003(%struct.State* %0, i64  0, %struct.Memory* %loadMem_400f7b, i8* %BRANCH_TAKEN, i64 136, i64 6, i64 6)
  store %struct.Memory* %call_400f7b, %struct.Memory** %MEMORY

  %loadBr_400f7b = load i8, i8* %BRANCH_TAKEN
  %cmpBr_400f7b = icmp eq i8 %loadBr_400f7b, 1
  br i1 %cmpBr_400f7b, label %block_.L_401003, label %block_400f81

block_400f81:
  ; Code: movq -0x18(%rbp), %rax	 RIP: 400f81	 Bytes: 4
  %loadMem_400f81 = load %struct.Memory*, %struct.Memory** %MEMORY
  %call_400f81 = call %struct.Memory* @routine_movq_MINUS0x18__rbp____rax(%struct.State* %0, i64  0, %struct.Memory* %loadMem_400f81)
  store %struct.Memory* %call_400f81, %struct.Memory** %MEMORY

  ; Code: movslq -0x3c(%rbp), %rcx	 RIP: 400f85	 Bytes: 4
  %loadMem_400f85 = load %struct.Memory*, %struct.Memory** %MEMORY
  %call_400f85 = call %struct.Memory* @routine_movslq_MINUS0x3c__rbp____rcx(%struct.State* %0, i64  0, %struct.Memory* %loadMem_400f85)
  store %struct.Memory* %call_400f85, %struct.Memory** %MEMORY

  ; Code: imulq $0x7d00, %rcx, %rcx	 RIP: 400f89	 Bytes: 7
  %loadMem_400f89 = load %struct.Memory*, %struct.Memory** %MEMORY
  %call_400f89 = call %struct.Memory* @routine_imulq__0x7d00___rcx___rcx(%struct.State* %0, i64  0, %struct.Memory* %loadMem_400f89)
  store %struct.Memory* %call_400f89, %struct.Memory** %MEMORY

  ; Code: addq %rcx, %rax	 RIP: 400f90	 Bytes: 3
  %loadMem_400f90 = load %struct.Memory*, %struct.Memory** %MEMORY
  %call_400f90 = call %struct.Memory* @routine_addq__rcx___rax(%struct.State* %0, i64  0, %struct.Memory* %loadMem_400f90)
  store %struct.Memory* %call_400f90, %struct.Memory** %MEMORY

  ; Code: movslq -0x40(%rbp), %rcx	 RIP: 400f93	 Bytes: 4
  %loadMem_400f93 = load %struct.Memory*, %struct.Memory** %MEMORY
  %call_400f93 = call %struct.Memory* @routine_movslq_MINUS0x40__rbp____rcx(%struct.State* %0, i64  0, %struct.Memory* %loadMem_400f93)
  store %struct.Memory* %call_400f93, %struct.Memory** %MEMORY

  ; Code: movsd (%rax,%rcx,8), %xmm0	 RIP: 400f97	 Bytes: 5
  %loadMem_400f97 = load %struct.Memory*, %struct.Memory** %MEMORY
  %call_400f97 = call %struct.Memory* @routine_movsd___rax__rcx_8____xmm0(%struct.State* %0, i64  0, %struct.Memory* %loadMem_400f97)
  store %struct.Memory* %call_400f97, %struct.Memory** %MEMORY

  ; Code: movq -0x30(%rbp), %rax	 RIP: 400f9c	 Bytes: 4
  %loadMem_400f9c = load %struct.Memory*, %struct.Memory** %MEMORY
  %call_400f9c = call %struct.Memory* @routine_movq_MINUS0x30__rbp____rax(%struct.State* %0, i64  0, %struct.Memory* %loadMem_400f9c)
  store %struct.Memory* %call_400f9c, %struct.Memory** %MEMORY

  ; Code: movl -0x40(%rbp), %edx	 RIP: 400fa0	 Bytes: 3
  %loadMem_400fa0 = load %struct.Memory*, %struct.Memory** %MEMORY
  %call_400fa0 = call %struct.Memory* @routine_movl_MINUS0x40__rbp____edx(%struct.State* %0, i64  0, %struct.Memory* %loadMem_400fa0)
  store %struct.Memory* %call_400fa0, %struct.Memory** %MEMORY

  ; Code: subl -0x3c(%rbp), %edx	 RIP: 400fa3	 Bytes: 3
  %loadMem_400fa3 = load %struct.Memory*, %struct.Memory** %MEMORY
  %call_400fa3 = call %struct.Memory* @routine_subl_MINUS0x3c__rbp____edx(%struct.State* %0, i64  0, %struct.Memory* %loadMem_400fa3)
  store %struct.Memory* %call_400fa3, %struct.Memory** %MEMORY

  ; Code: subl $0x1, %edx	 RIP: 400fa6	 Bytes: 3
  %loadMem_400fa6 = load %struct.Memory*, %struct.Memory** %MEMORY
  %call_400fa6 = call %struct.Memory* @routine_subl__0x1___edx(%struct.State* %0, i64  0, %struct.Memory* %loadMem_400fa6)
  store %struct.Memory* %call_400fa6, %struct.Memory** %MEMORY

  ; Code: movslq %edx, %rcx	 RIP: 400fa9	 Bytes: 3
  %loadMem_400fa9 = load %struct.Memory*, %struct.Memory** %MEMORY
  %call_400fa9 = call %struct.Memory* @routine_movslq__edx___rcx(%struct.State* %0, i64  0, %struct.Memory* %loadMem_400fa9)
  store %struct.Memory* %call_400fa9, %struct.Memory** %MEMORY

  ; Code: movsd (%rax,%rcx,8), %xmm1	 RIP: 400fac	 Bytes: 5
  %loadMem_400fac = load %struct.Memory*, %struct.Memory** %MEMORY
  %call_400fac = call %struct.Memory* @routine_movsd___rax__rcx_8____xmm1(%struct.State* %0, i64  0, %struct.Memory* %loadMem_400fac)
  store %struct.Memory* %call_400fac, %struct.Memory** %MEMORY

  ; Code: movq -0x10(%rbp), %rax	 RIP: 400fb1	 Bytes: 4
  %loadMem_400fb1 = load %struct.Memory*, %struct.Memory** %MEMORY
  %call_400fb1 = call %struct.Memory* @routine_movq_MINUS0x10__rbp____rax(%struct.State* %0, i64  0, %struct.Memory* %loadMem_400fb1)
  store %struct.Memory* %call_400fb1, %struct.Memory** %MEMORY

  ; Code: movslq -0x3c(%rbp), %rcx	 RIP: 400fb5	 Bytes: 4
  %loadMem_400fb5 = load %struct.Memory*, %struct.Memory** %MEMORY
  %call_400fb5 = call %struct.Memory* @routine_movslq_MINUS0x3c__rbp____rcx(%struct.State* %0, i64  0, %struct.Memory* %loadMem_400fb5)
  store %struct.Memory* %call_400fb5, %struct.Memory** %MEMORY

  ; Code: imulq $0x7d00, %rcx, %rcx	 RIP: 400fb9	 Bytes: 7
  %loadMem_400fb9 = load %struct.Memory*, %struct.Memory** %MEMORY
  %call_400fb9 = call %struct.Memory* @routine_imulq__0x7d00___rcx___rcx(%struct.State* %0, i64  0, %struct.Memory* %loadMem_400fb9)
  store %struct.Memory* %call_400fb9, %struct.Memory** %MEMORY

  ; Code: addq %rcx, %rax	 RIP: 400fc0	 Bytes: 3
  %loadMem_400fc0 = load %struct.Memory*, %struct.Memory** %MEMORY
  %call_400fc0 = call %struct.Memory* @routine_addq__rcx___rax(%struct.State* %0, i64  0, %struct.Memory* %loadMem_400fc0)
  store %struct.Memory* %call_400fc0, %struct.Memory** %MEMORY

  ; Code: movl -0x40(%rbp), %edx	 RIP: 400fc3	 Bytes: 3
  %loadMem_400fc3 = load %struct.Memory*, %struct.Memory** %MEMORY
  %call_400fc3 = call %struct.Memory* @routine_movl_MINUS0x40__rbp____edx(%struct.State* %0, i64  0, %struct.Memory* %loadMem_400fc3)
  store %struct.Memory* %call_400fc3, %struct.Memory** %MEMORY

  ; Code: subl $0x1, %edx	 RIP: 400fc6	 Bytes: 3
  %loadMem_400fc6 = load %struct.Memory*, %struct.Memory** %MEMORY
  %call_400fc6 = call %struct.Memory* @routine_subl__0x1___edx(%struct.State* %0, i64  0, %struct.Memory* %loadMem_400fc6)
  store %struct.Memory* %call_400fc6, %struct.Memory** %MEMORY

  ; Code: movslq %edx, %rcx	 RIP: 400fc9	 Bytes: 3
  %loadMem_400fc9 = load %struct.Memory*, %struct.Memory** %MEMORY
  %call_400fc9 = call %struct.Memory* @routine_movslq__edx___rcx(%struct.State* %0, i64  0, %struct.Memory* %loadMem_400fc9)
  store %struct.Memory* %call_400fc9, %struct.Memory** %MEMORY

  ; Code: mulsd (%rax,%rcx,8), %xmm1	 RIP: 400fcc	 Bytes: 5
  %loadMem_400fcc = load %struct.Memory*, %struct.Memory** %MEMORY
  %call_400fcc = call %struct.Memory* @routine_mulsd___rax__rcx_8____xmm1(%struct.State* %0, i64  0, %struct.Memory* %loadMem_400fcc)
  store %struct.Memory* %call_400fcc, %struct.Memory** %MEMORY

  ; Code: addsd %xmm1, %xmm0	 RIP: 400fd1	 Bytes: 4
  %loadMem_400fd1 = load %struct.Memory*, %struct.Memory** %MEMORY
  %call_400fd1 = call %struct.Memory* @routine_addsd__xmm1___xmm0(%struct.State* %0, i64  0, %struct.Memory* %loadMem_400fd1)
  store %struct.Memory* %call_400fd1, %struct.Memory** %MEMORY

  ; Code: movq -0x18(%rbp), %rax	 RIP: 400fd5	 Bytes: 4
  %loadMem_400fd5 = load %struct.Memory*, %struct.Memory** %MEMORY
  %call_400fd5 = call %struct.Memory* @routine_movq_MINUS0x18__rbp____rax(%struct.State* %0, i64  0, %struct.Memory* %loadMem_400fd5)
  store %struct.Memory* %call_400fd5, %struct.Memory** %MEMORY

  ; Code: movl -0x3c(%rbp), %edx	 RIP: 400fd9	 Bytes: 3
  %loadMem_400fd9 = load %struct.Memory*, %struct.Memory** %MEMORY
  %call_400fd9 = call %struct.Memory* @routine_movl_MINUS0x3c__rbp____edx(%struct.State* %0, i64  0, %struct.Memory* %loadMem_400fd9)
  store %struct.Memory* %call_400fd9, %struct.Memory** %MEMORY

  ; Code: addl $0x1, %edx	 RIP: 400fdc	 Bytes: 3
  %loadMem_400fdc = load %struct.Memory*, %struct.Memory** %MEMORY
  %call_400fdc = call %struct.Memory* @routine_addl__0x1___edx(%struct.State* %0, i64  0, %struct.Memory* %loadMem_400fdc)
  store %struct.Memory* %call_400fdc, %struct.Memory** %MEMORY

  ; Code: movslq %edx, %rcx	 RIP: 400fdf	 Bytes: 3
  %loadMem_400fdf = load %struct.Memory*, %struct.Memory** %MEMORY
  %call_400fdf = call %struct.Memory* @routine_movslq__edx___rcx(%struct.State* %0, i64  0, %struct.Memory* %loadMem_400fdf)
  store %struct.Memory* %call_400fdf, %struct.Memory** %MEMORY

  ; Code: imulq $0x7d00, %rcx, %rcx	 RIP: 400fe2	 Bytes: 7
  %loadMem_400fe2 = load %struct.Memory*, %struct.Memory** %MEMORY
  %call_400fe2 = call %struct.Memory* @routine_imulq__0x7d00___rcx___rcx(%struct.State* %0, i64  0, %struct.Memory* %loadMem_400fe2)
  store %struct.Memory* %call_400fe2, %struct.Memory** %MEMORY

  ; Code: addq %rcx, %rax	 RIP: 400fe9	 Bytes: 3
  %loadMem_400fe9 = load %struct.Memory*, %struct.Memory** %MEMORY
  %call_400fe9 = call %struct.Memory* @routine_addq__rcx___rax(%struct.State* %0, i64  0, %struct.Memory* %loadMem_400fe9)
  store %struct.Memory* %call_400fe9, %struct.Memory** %MEMORY

  ; Code: movslq -0x40(%rbp), %rcx	 RIP: 400fec	 Bytes: 4
  %loadMem_400fec = load %struct.Memory*, %struct.Memory** %MEMORY
  %call_400fec = call %struct.Memory* @routine_movslq_MINUS0x40__rbp____rcx(%struct.State* %0, i64  0, %struct.Memory* %loadMem_400fec)
  store %struct.Memory* %call_400fec, %struct.Memory** %MEMORY

  ; Code: movsd %xmm0, (%rax,%rcx,8)	 RIP: 400ff0	 Bytes: 5
  %loadMem_400ff0 = load %struct.Memory*, %struct.Memory** %MEMORY
  %call_400ff0 = call %struct.Memory* @routine_movsd__xmm0____rax__rcx_8_(%struct.State* %0, i64  0, %struct.Memory* %loadMem_400ff0)
  store %struct.Memory* %call_400ff0, %struct.Memory** %MEMORY

  ; Code: movl -0x3c(%rbp), %eax	 RIP: 400ff5	 Bytes: 3
  %loadMem_400ff5 = load %struct.Memory*, %struct.Memory** %MEMORY
  %call_400ff5 = call %struct.Memory* @routine_movl_MINUS0x3c__rbp____eax(%struct.State* %0, i64  0, %struct.Memory* %loadMem_400ff5)
  store %struct.Memory* %call_400ff5, %struct.Memory** %MEMORY

  ; Code: addl $0x1, %eax	 RIP: 400ff8	 Bytes: 3
  %loadMem_400ff8 = load %struct.Memory*, %struct.Memory** %MEMORY
  %call_400ff8 = call %struct.Memory* @routine_addl__0x1___eax(%struct.State* %0, i64  0, %struct.Memory* %loadMem_400ff8)
  store %struct.Memory* %call_400ff8, %struct.Memory** %MEMORY

  ; Code: movl %eax, -0x3c(%rbp)	 RIP: 400ffb	 Bytes: 3
  %loadMem_400ffb = load %struct.Memory*, %struct.Memory** %MEMORY
  %call_400ffb = call %struct.Memory* @routine_movl__eax__MINUS0x3c__rbp_(%struct.State* %0, i64  0, %struct.Memory* %loadMem_400ffb)
  store %struct.Memory* %call_400ffb, %struct.Memory** %MEMORY

  ; Code: jmpq .L_400f70	 RIP: 400ffe	 Bytes: 5
  %loadMem_400ffe = load %struct.Memory*, %struct.Memory** %MEMORY
  %call_400ffe = call %struct.Memory* @routine_jmpq_.L_400f70(%struct.State* %0, i64  0, %struct.Memory* %loadMem_400ffe, i64 -142, i64 5)
  store %struct.Memory* %call_400ffe, %struct.Memory** %MEMORY

  br label %block_.L_400f70

  ; Code: .L_401003:	 RIP: 401003	 Bytes: 0
block_.L_401003:

  ; Code: movq $0x8000000000000000, %rax	 RIP: 401003	 Bytes: 10
  %loadMem_401003 = load %struct.Memory*, %struct.Memory** %MEMORY
  %call_401003 = call %struct.Memory* @routine_movq__0x8000000000000000___rax(%struct.State* %0, i64  0, %struct.Memory* %loadMem_401003)
  store %struct.Memory* %call_401003, %struct.Memory** %MEMORY

  ; Code: movq -0x18(%rbp), %rcx	 RIP: 40100d	 Bytes: 4
  %loadMem_40100d = load %struct.Memory*, %struct.Memory** %MEMORY
  %call_40100d = call %struct.Memory* @routine_movq_MINUS0x18__rbp____rcx(%struct.State* %0, i64  0, %struct.Memory* %loadMem_40100d)
  store %struct.Memory* %call_40100d, %struct.Memory** %MEMORY

  ; Code: movslq -0x40(%rbp), %rdx	 RIP: 401011	 Bytes: 4
  %loadMem_401011 = load %struct.Memory*, %struct.Memory** %MEMORY
  %call_401011 = call %struct.Memory* @routine_movslq_MINUS0x40__rbp____rdx(%struct.State* %0, i64  0, %struct.Memory* %loadMem_401011)
  store %struct.Memory* %call_401011, %struct.Memory** %MEMORY

  ; Code: imulq $0x7d00, %rdx, %rdx	 RIP: 401015	 Bytes: 7
  %loadMem_401015 = load %struct.Memory*, %struct.Memory** %MEMORY
  %call_401015 = call %struct.Memory* @routine_imulq__0x7d00___rdx___rdx(%struct.State* %0, i64  0, %struct.Memory* %loadMem_401015)
  store %struct.Memory* %call_401015, %struct.Memory** %MEMORY

  ; Code: addq %rdx, %rcx	 RIP: 40101c	 Bytes: 3
  %loadMem_40101c = load %struct.Memory*, %struct.Memory** %MEMORY
  %call_40101c = call %struct.Memory* @routine_addq__rdx___rcx(%struct.State* %0, i64  0, %struct.Memory* %loadMem_40101c)
  store %struct.Memory* %call_40101c, %struct.Memory** %MEMORY

  ; Code: movslq -0x40(%rbp), %rdx	 RIP: 40101f	 Bytes: 4
  %loadMem_40101f = load %struct.Memory*, %struct.Memory** %MEMORY
  %call_40101f = call %struct.Memory* @routine_movslq_MINUS0x40__rbp____rdx(%struct.State* %0, i64  0, %struct.Memory* %loadMem_40101f)
  store %struct.Memory* %call_40101f, %struct.Memory** %MEMORY

  ; Code: movsd (%rcx,%rdx,8), %xmm0	 RIP: 401023	 Bytes: 5
  %loadMem_401023 = load %struct.Memory*, %struct.Memory** %MEMORY
  %call_401023 = call %struct.Memory* @routine_movsd___rcx__rdx_8____xmm0(%struct.State* %0, i64  0, %struct.Memory* %loadMem_401023)
  store %struct.Memory* %call_401023, %struct.Memory** %MEMORY

  ; Code: movq %xmm0, %rcx	 RIP: 401028	 Bytes: 5
  %loadMem_401028 = load %struct.Memory*, %struct.Memory** %MEMORY
  %call_401028 = call %struct.Memory* @routine_movq__xmm0___rcx(%struct.State* %0, i64  0, %struct.Memory* %loadMem_401028)
  store %struct.Memory* %call_401028, %struct.Memory** %MEMORY

  ; Code: xorq %rax, %rcx	 RIP: 40102d	 Bytes: 3
  %loadMem_40102d = load %struct.Memory*, %struct.Memory** %MEMORY
  %call_40102d = call %struct.Memory* @routine_xorq__rax___rcx(%struct.State* %0, i64  0, %struct.Memory* %loadMem_40102d)
  store %struct.Memory* %call_40102d, %struct.Memory** %MEMORY

  ; Code: movq %rcx, %xmm0	 RIP: 401030	 Bytes: 5
  %loadMem_401030 = load %struct.Memory*, %struct.Memory** %MEMORY
  %call_401030 = call %struct.Memory* @routine_movq__rcx___xmm0(%struct.State* %0, i64  0, %struct.Memory* %loadMem_401030)
  store %struct.Memory* %call_401030, %struct.Memory** %MEMORY

  ; Code: movq -0x28(%rbp), %rax	 RIP: 401035	 Bytes: 4
  %loadMem_401035 = load %struct.Memory*, %struct.Memory** %MEMORY
  %call_401035 = call %struct.Memory* @routine_movq_MINUS0x28__rbp____rax(%struct.State* %0, i64  0, %struct.Memory* %loadMem_401035)
  store %struct.Memory* %call_401035, %struct.Memory** %MEMORY

  ; Code: movslq -0x40(%rbp), %rcx	 RIP: 401039	 Bytes: 4
  %loadMem_401039 = load %struct.Memory*, %struct.Memory** %MEMORY
  %call_401039 = call %struct.Memory* @routine_movslq_MINUS0x40__rbp____rcx(%struct.State* %0, i64  0, %struct.Memory* %loadMem_401039)
  store %struct.Memory* %call_401039, %struct.Memory** %MEMORY

  ; Code: mulsd (%rax,%rcx,8), %xmm0	 RIP: 40103d	 Bytes: 5
  %loadMem_40103d = load %struct.Memory*, %struct.Memory** %MEMORY
  %call_40103d = call %struct.Memory* @routine_mulsd___rax__rcx_8____xmm0(%struct.State* %0, i64  0, %struct.Memory* %loadMem_40103d)
  store %struct.Memory* %call_40103d, %struct.Memory** %MEMORY

  ; Code: movq -0x20(%rbp), %rax	 RIP: 401042	 Bytes: 4
  %loadMem_401042 = load %struct.Memory*, %struct.Memory** %MEMORY
  %call_401042 = call %struct.Memory* @routine_movq_MINUS0x20__rbp____rax(%struct.State* %0, i64  0, %struct.Memory* %loadMem_401042)
  store %struct.Memory* %call_401042, %struct.Memory** %MEMORY

  ; Code: movslq -0x40(%rbp), %rcx	 RIP: 401046	 Bytes: 4
  %loadMem_401046 = load %struct.Memory*, %struct.Memory** %MEMORY
  %call_401046 = call %struct.Memory* @routine_movslq_MINUS0x40__rbp____rcx(%struct.State* %0, i64  0, %struct.Memory* %loadMem_401046)
  store %struct.Memory* %call_401046, %struct.Memory** %MEMORY

  ; Code: movsd %xmm0, (%rax,%rcx,8)	 RIP: 40104a	 Bytes: 5
  %loadMem_40104a = load %struct.Memory*, %struct.Memory** %MEMORY
  %call_40104a = call %struct.Memory* @routine_movsd__xmm0____rax__rcx_8_(%struct.State* %0, i64  0, %struct.Memory* %loadMem_40104a)
  store %struct.Memory* %call_40104a, %struct.Memory** %MEMORY

  ; Code: movl $0x0, -0x3c(%rbp)	 RIP: 40104f	 Bytes: 7
  %loadMem_40104f = load %struct.Memory*, %struct.Memory** %MEMORY
  %call_40104f = call %struct.Memory* @routine_movl__0x0__MINUS0x3c__rbp_(%struct.State* %0, i64  0, %struct.Memory* %loadMem_40104f)
  store %struct.Memory* %call_40104f, %struct.Memory** %MEMORY

  ; Code: .L_401056:	 RIP: 401056	 Bytes: 0
  br label %block_.L_401056
block_.L_401056:

  ; Code: movl -0x3c(%rbp), %eax	 RIP: 401056	 Bytes: 3
  %loadMem_401056 = load %struct.Memory*, %struct.Memory** %MEMORY
  %call_401056 = call %struct.Memory* @routine_movl_MINUS0x3c__rbp____eax(%struct.State* %0, i64  0, %struct.Memory* %loadMem_401056)
  store %struct.Memory* %call_401056, %struct.Memory** %MEMORY

  ; Code: movl -0x40(%rbp), %ecx	 RIP: 401059	 Bytes: 3
  %loadMem_401059 = load %struct.Memory*, %struct.Memory** %MEMORY
  %call_401059 = call %struct.Memory* @routine_movl_MINUS0x40__rbp____ecx(%struct.State* %0, i64  0, %struct.Memory* %loadMem_401059)
  store %struct.Memory* %call_401059, %struct.Memory** %MEMORY

  ; Code: subl $0x1, %ecx	 RIP: 40105c	 Bytes: 3
  %loadMem_40105c = load %struct.Memory*, %struct.Memory** %MEMORY
  %call_40105c = call %struct.Memory* @routine_subl__0x1___ecx(%struct.State* %0, i64  0, %struct.Memory* %loadMem_40105c)
  store %struct.Memory* %call_40105c, %struct.Memory** %MEMORY

  ; Code: cmpl %ecx, %eax	 RIP: 40105f	 Bytes: 2
  %loadMem_40105f = load %struct.Memory*, %struct.Memory** %MEMORY
  %call_40105f = call %struct.Memory* @routine_cmpl__ecx___eax(%struct.State* %0, i64  0, %struct.Memory* %loadMem_40105f)
  store %struct.Memory* %call_40105f, %struct.Memory** %MEMORY

  ; Code: jg .L_4010e9	 RIP: 401061	 Bytes: 6
  %loadMem_401061 = load %struct.Memory*, %struct.Memory** %MEMORY
  %call_401061 = call %struct.Memory* @routine_jg_.L_4010e9(%struct.State* %0, i64  0, %struct.Memory* %loadMem_401061, i8* %BRANCH_TAKEN, i64 136, i64 6, i64 6)
  store %struct.Memory* %call_401061, %struct.Memory** %MEMORY

  %loadBr_401061 = load i8, i8* %BRANCH_TAKEN
  %cmpBr_401061 = icmp eq i8 %loadBr_401061, 1
  br i1 %cmpBr_401061, label %block_.L_4010e9, label %block_401067

block_401067:
  ; Code: movq -0x10(%rbp), %rax	 RIP: 401067	 Bytes: 4
  %loadMem_401067 = load %struct.Memory*, %struct.Memory** %MEMORY
  %call_401067 = call %struct.Memory* @routine_movq_MINUS0x10__rbp____rax(%struct.State* %0, i64  0, %struct.Memory* %loadMem_401067)
  store %struct.Memory* %call_401067, %struct.Memory** %MEMORY

  ; Code: movslq -0x3c(%rbp), %rcx	 RIP: 40106b	 Bytes: 4
  %loadMem_40106b = load %struct.Memory*, %struct.Memory** %MEMORY
  %call_40106b = call %struct.Memory* @routine_movslq_MINUS0x3c__rbp____rcx(%struct.State* %0, i64  0, %struct.Memory* %loadMem_40106b)
  store %struct.Memory* %call_40106b, %struct.Memory** %MEMORY

  ; Code: imulq $0x7d00, %rcx, %rcx	 RIP: 40106f	 Bytes: 7
  %loadMem_40106f = load %struct.Memory*, %struct.Memory** %MEMORY
  %call_40106f = call %struct.Memory* @routine_imulq__0x7d00___rcx___rcx(%struct.State* %0, i64  0, %struct.Memory* %loadMem_40106f)
  store %struct.Memory* %call_40106f, %struct.Memory** %MEMORY

  ; Code: addq %rcx, %rax	 RIP: 401076	 Bytes: 3
  %loadMem_401076 = load %struct.Memory*, %struct.Memory** %MEMORY
  %call_401076 = call %struct.Memory* @routine_addq__rcx___rax(%struct.State* %0, i64  0, %struct.Memory* %loadMem_401076)
  store %struct.Memory* %call_401076, %struct.Memory** %MEMORY

  ; Code: movl -0x40(%rbp), %edx	 RIP: 401079	 Bytes: 3
  %loadMem_401079 = load %struct.Memory*, %struct.Memory** %MEMORY
  %call_401079 = call %struct.Memory* @routine_movl_MINUS0x40__rbp____edx(%struct.State* %0, i64  0, %struct.Memory* %loadMem_401079)
  store %struct.Memory* %call_401079, %struct.Memory** %MEMORY

  ; Code: subl $0x1, %edx	 RIP: 40107c	 Bytes: 3
  %loadMem_40107c = load %struct.Memory*, %struct.Memory** %MEMORY
  %call_40107c = call %struct.Memory* @routine_subl__0x1___edx(%struct.State* %0, i64  0, %struct.Memory* %loadMem_40107c)
  store %struct.Memory* %call_40107c, %struct.Memory** %MEMORY

  ; Code: movslq %edx, %rcx	 RIP: 40107f	 Bytes: 3
  %loadMem_40107f = load %struct.Memory*, %struct.Memory** %MEMORY
  %call_40107f = call %struct.Memory* @routine_movslq__edx___rcx(%struct.State* %0, i64  0, %struct.Memory* %loadMem_40107f)
  store %struct.Memory* %call_40107f, %struct.Memory** %MEMORY

  ; Code: movsd (%rax,%rcx,8), %xmm0	 RIP: 401082	 Bytes: 5
  %loadMem_401082 = load %struct.Memory*, %struct.Memory** %MEMORY
  %call_401082 = call %struct.Memory* @routine_movsd___rax__rcx_8____xmm0(%struct.State* %0, i64  0, %struct.Memory* %loadMem_401082)
  store %struct.Memory* %call_401082, %struct.Memory** %MEMORY

  ; Code: movq -0x20(%rbp), %rax	 RIP: 401087	 Bytes: 4
  %loadMem_401087 = load %struct.Memory*, %struct.Memory** %MEMORY
  %call_401087 = call %struct.Memory* @routine_movq_MINUS0x20__rbp____rax(%struct.State* %0, i64  0, %struct.Memory* %loadMem_401087)
  store %struct.Memory* %call_401087, %struct.Memory** %MEMORY

  ; Code: movslq -0x40(%rbp), %rcx	 RIP: 40108b	 Bytes: 4
  %loadMem_40108b = load %struct.Memory*, %struct.Memory** %MEMORY
  %call_40108b = call %struct.Memory* @routine_movslq_MINUS0x40__rbp____rcx(%struct.State* %0, i64  0, %struct.Memory* %loadMem_40108b)
  store %struct.Memory* %call_40108b, %struct.Memory** %MEMORY

  ; Code: movsd (%rax,%rcx,8), %xmm1	 RIP: 40108f	 Bytes: 5
  %loadMem_40108f = load %struct.Memory*, %struct.Memory** %MEMORY
  %call_40108f = call %struct.Memory* @routine_movsd___rax__rcx_8____xmm1(%struct.State* %0, i64  0, %struct.Memory* %loadMem_40108f)
  store %struct.Memory* %call_40108f, %struct.Memory** %MEMORY

  ; Code: movq -0x10(%rbp), %rax	 RIP: 401094	 Bytes: 4
  %loadMem_401094 = load %struct.Memory*, %struct.Memory** %MEMORY
  %call_401094 = call %struct.Memory* @routine_movq_MINUS0x10__rbp____rax(%struct.State* %0, i64  0, %struct.Memory* %loadMem_401094)
  store %struct.Memory* %call_401094, %struct.Memory** %MEMORY

  ; Code: movl -0x40(%rbp), %edx	 RIP: 401098	 Bytes: 3
  %loadMem_401098 = load %struct.Memory*, %struct.Memory** %MEMORY
  %call_401098 = call %struct.Memory* @routine_movl_MINUS0x40__rbp____edx(%struct.State* %0, i64  0, %struct.Memory* %loadMem_401098)
  store %struct.Memory* %call_401098, %struct.Memory** %MEMORY

  ; Code: subl -0x3c(%rbp), %edx	 RIP: 40109b	 Bytes: 3
  %loadMem_40109b = load %struct.Memory*, %struct.Memory** %MEMORY
  %call_40109b = call %struct.Memory* @routine_subl_MINUS0x3c__rbp____edx(%struct.State* %0, i64  0, %struct.Memory* %loadMem_40109b)
  store %struct.Memory* %call_40109b, %struct.Memory** %MEMORY

  ; Code: subl $0x1, %edx	 RIP: 40109e	 Bytes: 3
  %loadMem_40109e = load %struct.Memory*, %struct.Memory** %MEMORY
  %call_40109e = call %struct.Memory* @routine_subl__0x1___edx(%struct.State* %0, i64  0, %struct.Memory* %loadMem_40109e)
  store %struct.Memory* %call_40109e, %struct.Memory** %MEMORY

  ; Code: movslq %edx, %rcx	 RIP: 4010a1	 Bytes: 3
  %loadMem_4010a1 = load %struct.Memory*, %struct.Memory** %MEMORY
  %call_4010a1 = call %struct.Memory* @routine_movslq__edx___rcx(%struct.State* %0, i64  0, %struct.Memory* %loadMem_4010a1)
  store %struct.Memory* %call_4010a1, %struct.Memory** %MEMORY

  ; Code: imulq $0x7d00, %rcx, %rcx	 RIP: 4010a4	 Bytes: 7
  %loadMem_4010a4 = load %struct.Memory*, %struct.Memory** %MEMORY
  %call_4010a4 = call %struct.Memory* @routine_imulq__0x7d00___rcx___rcx(%struct.State* %0, i64  0, %struct.Memory* %loadMem_4010a4)
  store %struct.Memory* %call_4010a4, %struct.Memory** %MEMORY

  ; Code: addq %rcx, %rax	 RIP: 4010ab	 Bytes: 3
  %loadMem_4010ab = load %struct.Memory*, %struct.Memory** %MEMORY
  %call_4010ab = call %struct.Memory* @routine_addq__rcx___rax(%struct.State* %0, i64  0, %struct.Memory* %loadMem_4010ab)
  store %struct.Memory* %call_4010ab, %struct.Memory** %MEMORY

  ; Code: movl -0x40(%rbp), %edx	 RIP: 4010ae	 Bytes: 3
  %loadMem_4010ae = load %struct.Memory*, %struct.Memory** %MEMORY
  %call_4010ae = call %struct.Memory* @routine_movl_MINUS0x40__rbp____edx(%struct.State* %0, i64  0, %struct.Memory* %loadMem_4010ae)
  store %struct.Memory* %call_4010ae, %struct.Memory** %MEMORY

  ; Code: subl $0x1, %edx	 RIP: 4010b1	 Bytes: 3
  %loadMem_4010b1 = load %struct.Memory*, %struct.Memory** %MEMORY
  %call_4010b1 = call %struct.Memory* @routine_subl__0x1___edx(%struct.State* %0, i64  0, %struct.Memory* %loadMem_4010b1)
  store %struct.Memory* %call_4010b1, %struct.Memory** %MEMORY

  ; Code: movslq %edx, %rcx	 RIP: 4010b4	 Bytes: 3
  %loadMem_4010b4 = load %struct.Memory*, %struct.Memory** %MEMORY
  %call_4010b4 = call %struct.Memory* @routine_movslq__edx___rcx(%struct.State* %0, i64  0, %struct.Memory* %loadMem_4010b4)
  store %struct.Memory* %call_4010b4, %struct.Memory** %MEMORY

  ; Code: mulsd (%rax,%rcx,8), %xmm1	 RIP: 4010b7	 Bytes: 5
  %loadMem_4010b7 = load %struct.Memory*, %struct.Memory** %MEMORY
  %call_4010b7 = call %struct.Memory* @routine_mulsd___rax__rcx_8____xmm1(%struct.State* %0, i64  0, %struct.Memory* %loadMem_4010b7)
  store %struct.Memory* %call_4010b7, %struct.Memory** %MEMORY

  ; Code: addsd %xmm1, %xmm0	 RIP: 4010bc	 Bytes: 4
  %loadMem_4010bc = load %struct.Memory*, %struct.Memory** %MEMORY
  %call_4010bc = call %struct.Memory* @routine_addsd__xmm1___xmm0(%struct.State* %0, i64  0, %struct.Memory* %loadMem_4010bc)
  store %struct.Memory* %call_4010bc, %struct.Memory** %MEMORY

  ; Code: movq -0x10(%rbp), %rax	 RIP: 4010c0	 Bytes: 4
  %loadMem_4010c0 = load %struct.Memory*, %struct.Memory** %MEMORY
  %call_4010c0 = call %struct.Memory* @routine_movq_MINUS0x10__rbp____rax(%struct.State* %0, i64  0, %struct.Memory* %loadMem_4010c0)
  store %struct.Memory* %call_4010c0, %struct.Memory** %MEMORY

  ; Code: movslq -0x3c(%rbp), %rcx	 RIP: 4010c4	 Bytes: 4
  %loadMem_4010c4 = load %struct.Memory*, %struct.Memory** %MEMORY
  %call_4010c4 = call %struct.Memory* @routine_movslq_MINUS0x3c__rbp____rcx(%struct.State* %0, i64  0, %struct.Memory* %loadMem_4010c4)
  store %struct.Memory* %call_4010c4, %struct.Memory** %MEMORY

  ; Code: imulq $0x7d00, %rcx, %rcx	 RIP: 4010c8	 Bytes: 7
  %loadMem_4010c8 = load %struct.Memory*, %struct.Memory** %MEMORY
  %call_4010c8 = call %struct.Memory* @routine_imulq__0x7d00___rcx___rcx(%struct.State* %0, i64  0, %struct.Memory* %loadMem_4010c8)
  store %struct.Memory* %call_4010c8, %struct.Memory** %MEMORY

  ; Code: addq %rcx, %rax	 RIP: 4010cf	 Bytes: 3
  %loadMem_4010cf = load %struct.Memory*, %struct.Memory** %MEMORY
  %call_4010cf = call %struct.Memory* @routine_addq__rcx___rax(%struct.State* %0, i64  0, %struct.Memory* %loadMem_4010cf)
  store %struct.Memory* %call_4010cf, %struct.Memory** %MEMORY

  ; Code: movslq -0x40(%rbp), %rcx	 RIP: 4010d2	 Bytes: 4
  %loadMem_4010d2 = load %struct.Memory*, %struct.Memory** %MEMORY
  %call_4010d2 = call %struct.Memory* @routine_movslq_MINUS0x40__rbp____rcx(%struct.State* %0, i64  0, %struct.Memory* %loadMem_4010d2)
  store %struct.Memory* %call_4010d2, %struct.Memory** %MEMORY

  ; Code: movsd %xmm0, (%rax,%rcx,8)	 RIP: 4010d6	 Bytes: 5
  %loadMem_4010d6 = load %struct.Memory*, %struct.Memory** %MEMORY
  %call_4010d6 = call %struct.Memory* @routine_movsd__xmm0____rax__rcx_8_(%struct.State* %0, i64  0, %struct.Memory* %loadMem_4010d6)
  store %struct.Memory* %call_4010d6, %struct.Memory** %MEMORY

  ; Code: movl -0x3c(%rbp), %eax	 RIP: 4010db	 Bytes: 3
  %loadMem_4010db = load %struct.Memory*, %struct.Memory** %MEMORY
  %call_4010db = call %struct.Memory* @routine_movl_MINUS0x3c__rbp____eax(%struct.State* %0, i64  0, %struct.Memory* %loadMem_4010db)
  store %struct.Memory* %call_4010db, %struct.Memory** %MEMORY

  ; Code: addl $0x1, %eax	 RIP: 4010de	 Bytes: 3
  %loadMem_4010de = load %struct.Memory*, %struct.Memory** %MEMORY
  %call_4010de = call %struct.Memory* @routine_addl__0x1___eax(%struct.State* %0, i64  0, %struct.Memory* %loadMem_4010de)
  store %struct.Memory* %call_4010de, %struct.Memory** %MEMORY

  ; Code: movl %eax, -0x3c(%rbp)	 RIP: 4010e1	 Bytes: 3
  %loadMem_4010e1 = load %struct.Memory*, %struct.Memory** %MEMORY
  %call_4010e1 = call %struct.Memory* @routine_movl__eax__MINUS0x3c__rbp_(%struct.State* %0, i64  0, %struct.Memory* %loadMem_4010e1)
  store %struct.Memory* %call_4010e1, %struct.Memory** %MEMORY

  ; Code: jmpq .L_401056	 RIP: 4010e4	 Bytes: 5
  %loadMem_4010e4 = load %struct.Memory*, %struct.Memory** %MEMORY
  %call_4010e4 = call %struct.Memory* @routine_jmpq_.L_401056(%struct.State* %0, i64  0, %struct.Memory* %loadMem_4010e4, i64 -142, i64 5)
  store %struct.Memory* %call_4010e4, %struct.Memory** %MEMORY

  br label %block_.L_401056

  ; Code: .L_4010e9:	 RIP: 4010e9	 Bytes: 0
block_.L_4010e9:

  ; Code: movq -0x20(%rbp), %rax	 RIP: 4010e9	 Bytes: 4
  %loadMem_4010e9 = load %struct.Memory*, %struct.Memory** %MEMORY
  %call_4010e9 = call %struct.Memory* @routine_movq_MINUS0x20__rbp____rax(%struct.State* %0, i64  0, %struct.Memory* %loadMem_4010e9)
  store %struct.Memory* %call_4010e9, %struct.Memory** %MEMORY

  ; Code: movslq -0x40(%rbp), %rcx	 RIP: 4010ed	 Bytes: 4
  %loadMem_4010ed = load %struct.Memory*, %struct.Memory** %MEMORY
  %call_4010ed = call %struct.Memory* @routine_movslq_MINUS0x40__rbp____rcx(%struct.State* %0, i64  0, %struct.Memory* %loadMem_4010ed)
  store %struct.Memory* %call_4010ed, %struct.Memory** %MEMORY

  ; Code: movsd (%rax,%rcx,8), %xmm0	 RIP: 4010f1	 Bytes: 5
  %loadMem_4010f1 = load %struct.Memory*, %struct.Memory** %MEMORY
  %call_4010f1 = call %struct.Memory* @routine_movsd___rax__rcx_8____xmm0(%struct.State* %0, i64  0, %struct.Memory* %loadMem_4010f1)
  store %struct.Memory* %call_4010f1, %struct.Memory** %MEMORY

  ; Code: movq -0x10(%rbp), %rax	 RIP: 4010f6	 Bytes: 4
  %loadMem_4010f6 = load %struct.Memory*, %struct.Memory** %MEMORY
  %call_4010f6 = call %struct.Memory* @routine_movq_MINUS0x10__rbp____rax(%struct.State* %0, i64  0, %struct.Memory* %loadMem_4010f6)
  store %struct.Memory* %call_4010f6, %struct.Memory** %MEMORY

  ; Code: movslq -0x40(%rbp), %rcx	 RIP: 4010fa	 Bytes: 4
  %loadMem_4010fa = load %struct.Memory*, %struct.Memory** %MEMORY
  %call_4010fa = call %struct.Memory* @routine_movslq_MINUS0x40__rbp____rcx(%struct.State* %0, i64  0, %struct.Memory* %loadMem_4010fa)
  store %struct.Memory* %call_4010fa, %struct.Memory** %MEMORY

  ; Code: imulq $0x7d00, %rcx, %rcx	 RIP: 4010fe	 Bytes: 7
  %loadMem_4010fe = load %struct.Memory*, %struct.Memory** %MEMORY
  %call_4010fe = call %struct.Memory* @routine_imulq__0x7d00___rcx___rcx(%struct.State* %0, i64  0, %struct.Memory* %loadMem_4010fe)
  store %struct.Memory* %call_4010fe, %struct.Memory** %MEMORY

  ; Code: addq %rcx, %rax	 RIP: 401105	 Bytes: 3
  %loadMem_401105 = load %struct.Memory*, %struct.Memory** %MEMORY
  %call_401105 = call %struct.Memory* @routine_addq__rcx___rax(%struct.State* %0, i64  0, %struct.Memory* %loadMem_401105)
  store %struct.Memory* %call_401105, %struct.Memory** %MEMORY

  ; Code: movslq -0x40(%rbp), %rcx	 RIP: 401108	 Bytes: 4
  %loadMem_401108 = load %struct.Memory*, %struct.Memory** %MEMORY
  %call_401108 = call %struct.Memory* @routine_movslq_MINUS0x40__rbp____rcx(%struct.State* %0, i64  0, %struct.Memory* %loadMem_401108)
  store %struct.Memory* %call_401108, %struct.Memory** %MEMORY

  ; Code: movsd %xmm0, (%rax,%rcx,8)	 RIP: 40110c	 Bytes: 5
  %loadMem_40110c = load %struct.Memory*, %struct.Memory** %MEMORY
  %call_40110c = call %struct.Memory* @routine_movsd__xmm0____rax__rcx_8_(%struct.State* %0, i64  0, %struct.Memory* %loadMem_40110c)
  store %struct.Memory* %call_40110c, %struct.Memory** %MEMORY

  ; Code: movl -0x40(%rbp), %eax	 RIP: 401111	 Bytes: 3
  %loadMem_401111 = load %struct.Memory*, %struct.Memory** %MEMORY
  %call_401111 = call %struct.Memory* @routine_movl_MINUS0x40__rbp____eax(%struct.State* %0, i64  0, %struct.Memory* %loadMem_401111)
  store %struct.Memory* %call_401111, %struct.Memory** %MEMORY

  ; Code: addl $0x1, %eax	 RIP: 401114	 Bytes: 3
  %loadMem_401114 = load %struct.Memory*, %struct.Memory** %MEMORY
  %call_401114 = call %struct.Memory* @routine_addl__0x1___eax(%struct.State* %0, i64  0, %struct.Memory* %loadMem_401114)
  store %struct.Memory* %call_401114, %struct.Memory** %MEMORY

  ; Code: movl %eax, -0x40(%rbp)	 RIP: 401117	 Bytes: 3
  %loadMem_401117 = load %struct.Memory*, %struct.Memory** %MEMORY
  %call_401117 = call %struct.Memory* @routine_movl__eax__MINUS0x40__rbp_(%struct.State* %0, i64  0, %struct.Memory* %loadMem_401117)
  store %struct.Memory* %call_401117, %struct.Memory** %MEMORY

  ; Code: jmpq .L_400eea	 RIP: 40111a	 Bytes: 5
  %loadMem_40111a = load %struct.Memory*, %struct.Memory** %MEMORY
  %call_40111a = call %struct.Memory* @routine_jmpq_.L_400eea(%struct.State* %0, i64  0, %struct.Memory* %loadMem_40111a, i64 -560, i64 5)
  store %struct.Memory* %call_40111a, %struct.Memory** %MEMORY

  br label %block_.L_400eea

  ; Code: .L_40111f:	 RIP: 40111f	 Bytes: 0
block_.L_40111f:

  ; Code: movl $0x0, -0x3c(%rbp)	 RIP: 40111f	 Bytes: 7
  %loadMem_40111f = load %struct.Memory*, %struct.Memory** %MEMORY
  %call_40111f = call %struct.Memory* @routine_movl__0x0__MINUS0x3c__rbp_(%struct.State* %0, i64  0, %struct.Memory* %loadMem_40111f)
  store %struct.Memory* %call_40111f, %struct.Memory** %MEMORY

  ; Code: .L_401126:	 RIP: 401126	 Bytes: 0
  br label %block_.L_401126
block_.L_401126:

  ; Code: movl -0x3c(%rbp), %eax	 RIP: 401126	 Bytes: 3
  %loadMem_401126 = load %struct.Memory*, %struct.Memory** %MEMORY
  %call_401126 = call %struct.Memory* @routine_movl_MINUS0x3c__rbp____eax(%struct.State* %0, i64  0, %struct.Memory* %loadMem_401126)
  store %struct.Memory* %call_401126, %struct.Memory** %MEMORY

  ; Code: cmpl -0x4(%rbp), %eax	 RIP: 401129	 Bytes: 3
  %loadMem_401129 = load %struct.Memory*, %struct.Memory** %MEMORY
  %call_401129 = call %struct.Memory* @routine_cmpl_MINUS0x4__rbp____eax(%struct.State* %0, i64  0, %struct.Memory* %loadMem_401129)
  store %struct.Memory* %call_401129, %struct.Memory** %MEMORY

  ; Code: jge .L_40116d	 RIP: 40112c	 Bytes: 6
  %loadMem_40112c = load %struct.Memory*, %struct.Memory** %MEMORY
  %call_40112c = call %struct.Memory* @routine_jge_.L_40116d(%struct.State* %0, i64  0, %struct.Memory* %loadMem_40112c, i8* %BRANCH_TAKEN, i64 65, i64 6, i64 6)
  store %struct.Memory* %call_40112c, %struct.Memory** %MEMORY

  %loadBr_40112c = load i8, i8* %BRANCH_TAKEN
  %cmpBr_40112c = icmp eq i8 %loadBr_40112c, 1
  br i1 %cmpBr_40112c, label %block_.L_40116d, label %block_401132

block_401132:
  ; Code: movq -0x10(%rbp), %rax	 RIP: 401132	 Bytes: 4
  %loadMem_401132 = load %struct.Memory*, %struct.Memory** %MEMORY
  %call_401132 = call %struct.Memory* @routine_movq_MINUS0x10__rbp____rax(%struct.State* %0, i64  0, %struct.Memory* %loadMem_401132)
  store %struct.Memory* %call_401132, %struct.Memory** %MEMORY

  ; Code: movslq -0x3c(%rbp), %rcx	 RIP: 401136	 Bytes: 4
  %loadMem_401136 = load %struct.Memory*, %struct.Memory** %MEMORY
  %call_401136 = call %struct.Memory* @routine_movslq_MINUS0x3c__rbp____rcx(%struct.State* %0, i64  0, %struct.Memory* %loadMem_401136)
  store %struct.Memory* %call_401136, %struct.Memory** %MEMORY

  ; Code: imulq $0x7d00, %rcx, %rcx	 RIP: 40113a	 Bytes: 7
  %loadMem_40113a = load %struct.Memory*, %struct.Memory** %MEMORY
  %call_40113a = call %struct.Memory* @routine_imulq__0x7d00___rcx___rcx(%struct.State* %0, i64  0, %struct.Memory* %loadMem_40113a)
  store %struct.Memory* %call_40113a, %struct.Memory** %MEMORY

  ; Code: addq %rcx, %rax	 RIP: 401141	 Bytes: 3
  %loadMem_401141 = load %struct.Memory*, %struct.Memory** %MEMORY
  %call_401141 = call %struct.Memory* @routine_addq__rcx___rax(%struct.State* %0, i64  0, %struct.Memory* %loadMem_401141)
  store %struct.Memory* %call_401141, %struct.Memory** %MEMORY

  ; Code: movl -0x4(%rbp), %edx	 RIP: 401144	 Bytes: 3
  %loadMem_401144 = load %struct.Memory*, %struct.Memory** %MEMORY
  %call_401144 = call %struct.Memory* @routine_movl_MINUS0x4__rbp____edx(%struct.State* %0, i64  0, %struct.Memory* %loadMem_401144)
  store %struct.Memory* %call_401144, %struct.Memory** %MEMORY

  ; Code: subl $0x1, %edx	 RIP: 401147	 Bytes: 3
  %loadMem_401147 = load %struct.Memory*, %struct.Memory** %MEMORY
  %call_401147 = call %struct.Memory* @routine_subl__0x1___edx(%struct.State* %0, i64  0, %struct.Memory* %loadMem_401147)
  store %struct.Memory* %call_401147, %struct.Memory** %MEMORY

  ; Code: movslq %edx, %rcx	 RIP: 40114a	 Bytes: 3
  %loadMem_40114a = load %struct.Memory*, %struct.Memory** %MEMORY
  %call_40114a = call %struct.Memory* @routine_movslq__edx___rcx(%struct.State* %0, i64  0, %struct.Memory* %loadMem_40114a)
  store %struct.Memory* %call_40114a, %struct.Memory** %MEMORY

  ; Code: movsd (%rax,%rcx,8), %xmm0	 RIP: 40114d	 Bytes: 5
  %loadMem_40114d = load %struct.Memory*, %struct.Memory** %MEMORY
  %call_40114d = call %struct.Memory* @routine_movsd___rax__rcx_8____xmm0(%struct.State* %0, i64  0, %struct.Memory* %loadMem_40114d)
  store %struct.Memory* %call_40114d, %struct.Memory** %MEMORY

  ; Code: movq -0x38(%rbp), %rax	 RIP: 401152	 Bytes: 4
  %loadMem_401152 = load %struct.Memory*, %struct.Memory** %MEMORY
  %call_401152 = call %struct.Memory* @routine_movq_MINUS0x38__rbp____rax(%struct.State* %0, i64  0, %struct.Memory* %loadMem_401152)
  store %struct.Memory* %call_401152, %struct.Memory** %MEMORY

  ; Code: movslq -0x3c(%rbp), %rcx	 RIP: 401156	 Bytes: 4
  %loadMem_401156 = load %struct.Memory*, %struct.Memory** %MEMORY
  %call_401156 = call %struct.Memory* @routine_movslq_MINUS0x3c__rbp____rcx(%struct.State* %0, i64  0, %struct.Memory* %loadMem_401156)
  store %struct.Memory* %call_401156, %struct.Memory** %MEMORY

  ; Code: movsd %xmm0, (%rax,%rcx,8)	 RIP: 40115a	 Bytes: 5
  %loadMem_40115a = load %struct.Memory*, %struct.Memory** %MEMORY
  %call_40115a = call %struct.Memory* @routine_movsd__xmm0____rax__rcx_8_(%struct.State* %0, i64  0, %struct.Memory* %loadMem_40115a)
  store %struct.Memory* %call_40115a, %struct.Memory** %MEMORY

  ; Code: movl -0x3c(%rbp), %eax	 RIP: 40115f	 Bytes: 3
  %loadMem_40115f = load %struct.Memory*, %struct.Memory** %MEMORY
  %call_40115f = call %struct.Memory* @routine_movl_MINUS0x3c__rbp____eax(%struct.State* %0, i64  0, %struct.Memory* %loadMem_40115f)
  store %struct.Memory* %call_40115f, %struct.Memory** %MEMORY

  ; Code: addl $0x1, %eax	 RIP: 401162	 Bytes: 3
  %loadMem_401162 = load %struct.Memory*, %struct.Memory** %MEMORY
  %call_401162 = call %struct.Memory* @routine_addl__0x1___eax(%struct.State* %0, i64  0, %struct.Memory* %loadMem_401162)
  store %struct.Memory* %call_401162, %struct.Memory** %MEMORY

  ; Code: movl %eax, -0x3c(%rbp)	 RIP: 401165	 Bytes: 3
  %loadMem_401165 = load %struct.Memory*, %struct.Memory** %MEMORY
  %call_401165 = call %struct.Memory* @routine_movl__eax__MINUS0x3c__rbp_(%struct.State* %0, i64  0, %struct.Memory* %loadMem_401165)
  store %struct.Memory* %call_401165, %struct.Memory** %MEMORY

  ; Code: jmpq .L_401126	 RIP: 401168	 Bytes: 5
  %loadMem_401168 = load %struct.Memory*, %struct.Memory** %MEMORY
  %call_401168 = call %struct.Memory* @routine_jmpq_.L_401126(%struct.State* %0, i64  0, %struct.Memory* %loadMem_401168, i64 -66, i64 5)
  store %struct.Memory* %call_401168, %struct.Memory** %MEMORY

  br label %block_.L_401126

  ; Code: .L_40116d:	 RIP: 40116d	 Bytes: 0
block_.L_40116d:

  ; Code: popq %rbp	 RIP: 40116d	 Bytes: 1
  %loadMem_40116d = load %struct.Memory*, %struct.Memory** %MEMORY
  %call_40116d = call %struct.Memory* @routine_popq__rbp(%struct.State* %0, i64  0, %struct.Memory* %loadMem_40116d)
  store %struct.Memory* %call_40116d, %struct.Memory** %MEMORY

  ; Code: retq	 RIP: 40116e	 Bytes: 1
  %loadMem_40116e = load %struct.Memory*, %struct.Memory** %MEMORY
  %call_40116e = call %struct.Memory* @routine_retq(%struct.State* %0, i64  0, %struct.Memory* %loadMem_40116e)
  store %struct.Memory* %call_40116e, %struct.Memory** %MEMORY

  ret %struct.Memory* %call_40116e
}

define internal %struct.Memory* @_ZN12_GLOBAL__N_1L4PUSHI2InImEEEP6MemoryS4_R5StateT_(%struct.Memory*, %struct.State* nocapture dereferenceable(3376), i64) #0 alwaysinline {
  %4 = getelementptr inbounds %struct.State, %struct.State* %1, i64 0, i32 6, i32 13, i32 0, i32 0
  %5 = load i64, i64* %4, align 8
  %6 = add i64 %5, -8
  %7 = inttoptr i64 %6 to i64*
  store i64 %2, i64* %7
  store i64 %6, i64* %4, align 8
  ret %struct.Memory* %0
}

define %struct.Memory* @routine_pushq__rbp(%struct.State*  dereferenceable(3376), i64, %struct.Memory* ) #19 alwaysinline {
block_400488:
  %3 = getelementptr inbounds %struct.State, %struct.State* %0, i32 0, i32 6
  %4 = getelementptr inbounds %struct.GPR, %struct.GPR* %3, i32 0, i32 33
  %5 = getelementptr inbounds %struct.Reg, %struct.Reg* %4, i32 0, i32 0
  %PC = bitcast %union.anon* %5 to i64*
  %6 = getelementptr inbounds %struct.State, %struct.State* %0, i32 0, i32 6
  %7 = getelementptr inbounds %struct.GPR, %struct.GPR* %6, i32 0, i32 15
  %8 = getelementptr inbounds %struct.Reg, %struct.Reg* %7, i32 0, i32 0
  %RBP = bitcast %union.anon* %8 to i64*
  %9 = load i64, i64* %RBP
  %10 = load i64, i64* %PC
  %11 = add i64 %10, 1
  store i64 %11, i64* %PC
  %12 = call %struct.Memory* @_ZN12_GLOBAL__N_1L4PUSHI2InImEEEP6MemoryS4_R5StateT_(%struct.Memory* %2, %struct.State* %0, i64 %9)
  ret %struct.Memory* %12
}

define internal %struct.Memory* @_ZN12_GLOBAL__N_1L3MOVI3RnWImE2RnImEEEP6MemoryS6_R5StateT_T0_(%struct.Memory* readnone returned, %struct.State* nocapture readnone dereferenceable(3376), i64* nocapture, i64) #2 alwaysinline {
  store i64 %3, i64* %2, align 8
  ret %struct.Memory* %0
}

define %struct.Memory* @routine_movq__rsp___rbp(%struct.State*  dereferenceable(3376), i64, %struct.Memory* ) #19 alwaysinline {
block_400488:
  %3 = getelementptr inbounds %struct.State, %struct.State* %0, i32 0, i32 6
  %4 = getelementptr inbounds %struct.GPR, %struct.GPR* %3, i32 0, i32 33
  %5 = getelementptr inbounds %struct.Reg, %struct.Reg* %4, i32 0, i32 0
  %PC = bitcast %union.anon* %5 to i64*
  %6 = getelementptr inbounds %struct.State, %struct.State* %0, i32 0, i32 6
  %7 = getelementptr inbounds %struct.GPR, %struct.GPR* %6, i32 0, i32 13
  %8 = getelementptr inbounds %struct.Reg, %struct.Reg* %7, i32 0, i32 0
  %RSP = bitcast %union.anon* %8 to i64*
  %9 = getelementptr inbounds %struct.State, %struct.State* %0, i32 0, i32 6
  %10 = getelementptr inbounds %struct.GPR, %struct.GPR* %9, i32 0, i32 15
  %11 = getelementptr inbounds %struct.Reg, %struct.Reg* %10, i32 0, i32 0
  %RBP = bitcast %union.anon* %11 to i64*
  %12 = load i64, i64* %RSP
  %13 = load i64, i64* %PC
  %14 = add i64 %13, 3
  store i64 %14, i64* %PC
  %15 = call %struct.Memory* @_ZN12_GLOBAL__N_1L3MOVI3RnWImE2RnImEEEP6MemoryS6_R5StateT_T0_(%struct.Memory* %2, %struct.State* %0, i64* %RBP, i64 %12)
  ret %struct.Memory* %15
}

define internal %struct.Memory* @_ZN12_GLOBAL__N_1L3MOVI3RnWImE2MnImEEEP6MemoryS6_R5StateT_T0_(%struct.Memory* returned, %struct.State* nocapture readnone dereferenceable(3376), i64* nocapture, i64) #0 alwaysinline {
  %5 = inttoptr i64 %3 to i64*
  %6 = load i64, i64* %5
  store i64 %6, i64* %2, align 8
  ret %struct.Memory* %0
}

define %struct.Memory* @routine_movq_0x10__rbp____rax(%struct.State*  dereferenceable(3376), i64, %struct.Memory* ) #19 alwaysinline {
block_400488:
  %3 = getelementptr inbounds %struct.State, %struct.State* %0, i32 0, i32 6
  %4 = getelementptr inbounds %struct.GPR, %struct.GPR* %3, i32 0, i32 33
  %5 = getelementptr inbounds %struct.Reg, %struct.Reg* %4, i32 0, i32 0
  %PC = bitcast %union.anon* %5 to i64*
  %6 = getelementptr inbounds %struct.State, %struct.State* %0, i32 0, i32 6
  %7 = getelementptr inbounds %struct.GPR, %struct.GPR* %6, i32 0, i32 1
  %8 = getelementptr inbounds %struct.Reg, %struct.Reg* %7, i32 0, i32 0
  %RAX = bitcast %union.anon* %8 to i64*
  %9 = getelementptr inbounds %struct.State, %struct.State* %0, i32 0, i32 6
  %10 = getelementptr inbounds %struct.GPR, %struct.GPR* %9, i32 0, i32 15
  %11 = getelementptr inbounds %struct.Reg, %struct.Reg* %10, i32 0, i32 0
  %RBP = bitcast %union.anon* %11 to i64*
  %12 = load i64, i64* %RBP
  %13 = add i64 %12, 16
  %14 = load i64, i64* %PC
  %15 = add i64 %14, 4
  store i64 %15, i64* %PC
  %16 = call %struct.Memory* @_ZN12_GLOBAL__N_1L3MOVI3RnWImE2MnImEEEP6MemoryS6_R5StateT_T0_(%struct.Memory* %2, %struct.State* %0, i64* %RAX, i64 %13)
  ret %struct.Memory* %16
}

define internal %struct.Memory* @_ZN12_GLOBAL__N_1L9MOVSD_MEMI3VnWI8vec128_tE3MVnI7vec64_tEEEP6MemoryS8_R5StateT_T0_(%struct.Memory* returned, %struct.State* nocapture readnone dereferenceable(3376), i8* nocapture, i64) #0 alwaysinline {
  %5 = inttoptr i64 %3 to double*
  %6 = load double, double* %5
  %7 = bitcast i8* %2 to double*
  store double %6, double* %7, align 1
  %8 = getelementptr inbounds i8, i8* %2, i64 8
  %9 = bitcast i8* %8 to double*
  store double 0.000000e+00, double* %9, align 1
  ret %struct.Memory* %0
}

define %struct.Memory* @routine_movsd_0x4f8__rip____xmm0(%struct.State*  dereferenceable(3376), i64, %struct.Memory* ) #19 alwaysinline {
block_400488:
  %3 = getelementptr inbounds %struct.State, %struct.State* %0, i32 0, i32 6
  %4 = getelementptr inbounds %struct.GPR, %struct.GPR* %3, i32 0, i32 33
  %5 = getelementptr inbounds %struct.Reg, %struct.Reg* %4, i32 0, i32 0
  %PC = bitcast %union.anon* %5 to i64*
  %6 = getelementptr inbounds %struct.State, %struct.State* %0, i32 0, i32 1
  %7 = getelementptr inbounds [32 x %union.VectorReg], [32 x %union.VectorReg]* %6, i64 0, i64 0
  %YMM0 = bitcast %union.VectorReg* %7 to %"class.std::bitset"*
  %8 = bitcast %"class.std::bitset"* %YMM0 to i8*
  %9 = load i64, i64* %PC
  %10 = add i64 %9, ptrtoint( %G_0x4f8__rip__type* @G_0x4f8__rip_ to i64)
  %11 = load i64, i64* %PC
  %12 = add i64 %11, 8
  store i64 %12, i64* %PC
  %13 = call %struct.Memory* @_ZN12_GLOBAL__N_1L9MOVSD_MEMI3VnWI8vec128_tE3MVnI7vec64_tEEEP6MemoryS8_R5StateT_T0_(%struct.Memory* %2, %struct.State* %0, i8* %8, i64 %10)
  ret %struct.Memory* %13
}

define internal %struct.Memory* @_ZN12_GLOBAL__N_1L3MOVI3MnWIjE2RnIjEEEP6MemoryS6_R5StateT_T0_(%struct.Memory* readnone, %struct.State* nocapture readnone dereferenceable(3376), i64, i64) #8 alwaysinline {
  %5 = trunc i64 %3 to i32
  %6 = inttoptr i64 %2 to i32*
  store i32 %5, i32* %6
  ret %struct.Memory* %0
}

define %struct.Memory* @routine_movl__edi__MINUS0x4__rbp_(%struct.State*  dereferenceable(3376), i64, %struct.Memory* ) #19 alwaysinline {
block_400488:
  %3 = getelementptr inbounds %struct.State, %struct.State* %0, i32 0, i32 6
  %4 = getelementptr inbounds %struct.GPR, %struct.GPR* %3, i32 0, i32 33
  %5 = getelementptr inbounds %struct.Reg, %struct.Reg* %4, i32 0, i32 0
  %PC = bitcast %union.anon* %5 to i64*
  %6 = getelementptr inbounds %struct.State, %struct.State* %0, i32 0, i32 6
  %7 = getelementptr inbounds %struct.GPR, %struct.GPR* %6, i32 0, i32 11
  %8 = getelementptr inbounds %struct.Reg, %struct.Reg* %7, i32 0, i32 0
  %EDI = bitcast %union.anon* %8 to i32*
  %9 = getelementptr inbounds %struct.State, %struct.State* %0, i32 0, i32 6
  %10 = getelementptr inbounds %struct.GPR, %struct.GPR* %9, i32 0, i32 15
  %11 = getelementptr inbounds %struct.Reg, %struct.Reg* %10, i32 0, i32 0
  %RBP = bitcast %union.anon* %11 to i64*
  %12 = load i64, i64* %RBP
  %13 = sub i64 %12, 4
  %14 = load i32, i32* %EDI
  %15 = zext i32 %14 to i64
  %16 = load i64, i64* %PC
  %17 = add i64 %16, 3
  store i64 %17, i64* %PC
  %18 = call %struct.Memory* @_ZN12_GLOBAL__N_1L3MOVI3MnWIjE2RnIjEEEP6MemoryS6_R5StateT_T0_(%struct.Memory* %2, %struct.State* %0, i64 %13, i64 %15)
  ret %struct.Memory* %18
}

define internal %struct.Memory* @_ZN12_GLOBAL__N_1L3MOVI3MnWImE2RnImEEEP6MemoryS6_R5StateT_T0_(%struct.Memory* readnone, %struct.State* nocapture readnone dereferenceable(3376), i64, i64) #8 alwaysinline {
  %5 = inttoptr i64 %2 to i64*
  store i64 %3, i64* %5
  ret %struct.Memory* %0
}

define %struct.Memory* @routine_movq__rsi__MINUS0x10__rbp_(%struct.State*  dereferenceable(3376), i64, %struct.Memory* ) #19 alwaysinline {
block_400488:
  %3 = getelementptr inbounds %struct.State, %struct.State* %0, i32 0, i32 6
  %4 = getelementptr inbounds %struct.GPR, %struct.GPR* %3, i32 0, i32 33
  %5 = getelementptr inbounds %struct.Reg, %struct.Reg* %4, i32 0, i32 0
  %PC = bitcast %union.anon* %5 to i64*
  %6 = getelementptr inbounds %struct.State, %struct.State* %0, i32 0, i32 6
  %7 = getelementptr inbounds %struct.GPR, %struct.GPR* %6, i32 0, i32 9
  %8 = getelementptr inbounds %struct.Reg, %struct.Reg* %7, i32 0, i32 0
  %RSI = bitcast %union.anon* %8 to i64*
  %9 = getelementptr inbounds %struct.State, %struct.State* %0, i32 0, i32 6
  %10 = getelementptr inbounds %struct.GPR, %struct.GPR* %9, i32 0, i32 15
  %11 = getelementptr inbounds %struct.Reg, %struct.Reg* %10, i32 0, i32 0
  %RBP = bitcast %union.anon* %11 to i64*
  %12 = load i64, i64* %RBP
  %13 = sub i64 %12, 16
  %14 = load i64, i64* %RSI
  %15 = load i64, i64* %PC
  %16 = add i64 %15, 4
  store i64 %16, i64* %PC
  %17 = call %struct.Memory* @_ZN12_GLOBAL__N_1L3MOVI3MnWImE2RnImEEEP6MemoryS6_R5StateT_T0_(%struct.Memory* %2, %struct.State* %0, i64 %13, i64 %14)
  ret %struct.Memory* %17
}


define %struct.Memory* @routine_movq__rdx__MINUS0x18__rbp_(%struct.State*  dereferenceable(3376), i64, %struct.Memory* ) #19 alwaysinline {
block_400488:
  %3 = getelementptr inbounds %struct.State, %struct.State* %0, i32 0, i32 6
  %4 = getelementptr inbounds %struct.GPR, %struct.GPR* %3, i32 0, i32 33
  %5 = getelementptr inbounds %struct.Reg, %struct.Reg* %4, i32 0, i32 0
  %PC = bitcast %union.anon* %5 to i64*
  %6 = getelementptr inbounds %struct.State, %struct.State* %0, i32 0, i32 6
  %7 = getelementptr inbounds %struct.GPR, %struct.GPR* %6, i32 0, i32 7
  %8 = getelementptr inbounds %struct.Reg, %struct.Reg* %7, i32 0, i32 0
  %RDX = bitcast %union.anon* %8 to i64*
  %9 = getelementptr inbounds %struct.State, %struct.State* %0, i32 0, i32 6
  %10 = getelementptr inbounds %struct.GPR, %struct.GPR* %9, i32 0, i32 15
  %11 = getelementptr inbounds %struct.Reg, %struct.Reg* %10, i32 0, i32 0
  %RBP = bitcast %union.anon* %11 to i64*
  %12 = load i64, i64* %RBP
  %13 = sub i64 %12, 24
  %14 = load i64, i64* %RDX
  %15 = load i64, i64* %PC
  %16 = add i64 %15, 4
  store i64 %16, i64* %PC
  %17 = call %struct.Memory* @_ZN12_GLOBAL__N_1L3MOVI3MnWImE2RnImEEEP6MemoryS6_R5StateT_T0_(%struct.Memory* %2, %struct.State* %0, i64 %13, i64 %14)
  ret %struct.Memory* %17
}


define %struct.Memory* @routine_movq__rcx__MINUS0x20__rbp_(%struct.State*  dereferenceable(3376), i64, %struct.Memory* ) #19 alwaysinline {
block_400488:
  %3 = getelementptr inbounds %struct.State, %struct.State* %0, i32 0, i32 6
  %4 = getelementptr inbounds %struct.GPR, %struct.GPR* %3, i32 0, i32 33
  %5 = getelementptr inbounds %struct.Reg, %struct.Reg* %4, i32 0, i32 0
  %PC = bitcast %union.anon* %5 to i64*
  %6 = getelementptr inbounds %struct.State, %struct.State* %0, i32 0, i32 6
  %7 = getelementptr inbounds %struct.GPR, %struct.GPR* %6, i32 0, i32 5
  %8 = getelementptr inbounds %struct.Reg, %struct.Reg* %7, i32 0, i32 0
  %RCX = bitcast %union.anon* %8 to i64*
  %9 = getelementptr inbounds %struct.State, %struct.State* %0, i32 0, i32 6
  %10 = getelementptr inbounds %struct.GPR, %struct.GPR* %9, i32 0, i32 15
  %11 = getelementptr inbounds %struct.Reg, %struct.Reg* %10, i32 0, i32 0
  %RBP = bitcast %union.anon* %11 to i64*
  %12 = load i64, i64* %RBP
  %13 = sub i64 %12, 32
  %14 = load i64, i64* %RCX
  %15 = load i64, i64* %PC
  %16 = add i64 %15, 4
  store i64 %16, i64* %PC
  %17 = call %struct.Memory* @_ZN12_GLOBAL__N_1L3MOVI3MnWImE2RnImEEEP6MemoryS6_R5StateT_T0_(%struct.Memory* %2, %struct.State* %0, i64 %13, i64 %14)
  ret %struct.Memory* %17
}


define %struct.Memory* @routine_movq__r8__MINUS0x28__rbp_(%struct.State*  dereferenceable(3376), i64, %struct.Memory* ) #19 alwaysinline {
block_400488:
  %3 = getelementptr inbounds %struct.State, %struct.State* %0, i32 0, i32 6
  %4 = getelementptr inbounds %struct.GPR, %struct.GPR* %3, i32 0, i32 33
  %5 = getelementptr inbounds %struct.Reg, %struct.Reg* %4, i32 0, i32 0
  %PC = bitcast %union.anon* %5 to i64*
  %6 = getelementptr inbounds %struct.State, %struct.State* %0, i32 0, i32 6
  %7 = getelementptr inbounds %struct.GPR, %struct.GPR* %6, i32 0, i32 15
  %8 = getelementptr inbounds %struct.Reg, %struct.Reg* %7, i32 0, i32 0
  %RBP = bitcast %union.anon* %8 to i64*
  %9 = getelementptr inbounds %struct.State, %struct.State* %0, i32 0, i32 6
  %10 = getelementptr inbounds %struct.GPR, %struct.GPR* %9, i32 0, i32 17
  %11 = getelementptr inbounds %struct.Reg, %struct.Reg* %10, i32 0, i32 0
  %R8 = bitcast %union.anon* %11 to i64*
  %12 = load i64, i64* %RBP
  %13 = sub i64 %12, 40
  %14 = load i64, i64* %R8
  %15 = load i64, i64* %PC
  %16 = add i64 %15, 4
  store i64 %16, i64* %PC
  %17 = call %struct.Memory* @_ZN12_GLOBAL__N_1L3MOVI3MnWImE2RnImEEEP6MemoryS6_R5StateT_T0_(%struct.Memory* %2, %struct.State* %0, i64 %13, i64 %14)
  ret %struct.Memory* %17
}


define %struct.Memory* @routine_movq__r9__MINUS0x30__rbp_(%struct.State*  dereferenceable(3376), i64, %struct.Memory* ) #19 alwaysinline {
block_400488:
  %3 = getelementptr inbounds %struct.State, %struct.State* %0, i32 0, i32 6
  %4 = getelementptr inbounds %struct.GPR, %struct.GPR* %3, i32 0, i32 33
  %5 = getelementptr inbounds %struct.Reg, %struct.Reg* %4, i32 0, i32 0
  %PC = bitcast %union.anon* %5 to i64*
  %6 = getelementptr inbounds %struct.State, %struct.State* %0, i32 0, i32 6
  %7 = getelementptr inbounds %struct.GPR, %struct.GPR* %6, i32 0, i32 15
  %8 = getelementptr inbounds %struct.Reg, %struct.Reg* %7, i32 0, i32 0
  %RBP = bitcast %union.anon* %8 to i64*
  %9 = getelementptr inbounds %struct.State, %struct.State* %0, i32 0, i32 6
  %10 = getelementptr inbounds %struct.GPR, %struct.GPR* %9, i32 0, i32 19
  %11 = getelementptr inbounds %struct.Reg, %struct.Reg* %10, i32 0, i32 0
  %R9 = bitcast %union.anon* %11 to i64*
  %12 = load i64, i64* %RBP
  %13 = sub i64 %12, 48
  %14 = load i64, i64* %R9
  %15 = load i64, i64* %PC
  %16 = add i64 %15, 4
  store i64 %16, i64* %PC
  %17 = call %struct.Memory* @_ZN12_GLOBAL__N_1L3MOVI3MnWImE2RnImEEEP6MemoryS6_R5StateT_T0_(%struct.Memory* %2, %struct.State* %0, i64 %13, i64 %14)
  ret %struct.Memory* %17
}


define %struct.Memory* @routine_movq__rax__MINUS0x38__rbp_(%struct.State*  dereferenceable(3376), i64, %struct.Memory* ) #19 alwaysinline {
block_400488:
  %3 = getelementptr inbounds %struct.State, %struct.State* %0, i32 0, i32 6
  %4 = getelementptr inbounds %struct.GPR, %struct.GPR* %3, i32 0, i32 33
  %5 = getelementptr inbounds %struct.Reg, %struct.Reg* %4, i32 0, i32 0
  %PC = bitcast %union.anon* %5 to i64*
  %6 = getelementptr inbounds %struct.State, %struct.State* %0, i32 0, i32 6
  %7 = getelementptr inbounds %struct.GPR, %struct.GPR* %6, i32 0, i32 1
  %8 = getelementptr inbounds %struct.Reg, %struct.Reg* %7, i32 0, i32 0
  %RAX = bitcast %union.anon* %8 to i64*
  %9 = getelementptr inbounds %struct.State, %struct.State* %0, i32 0, i32 6
  %10 = getelementptr inbounds %struct.GPR, %struct.GPR* %9, i32 0, i32 15
  %11 = getelementptr inbounds %struct.Reg, %struct.Reg* %10, i32 0, i32 0
  %RBP = bitcast %union.anon* %11 to i64*
  %12 = load i64, i64* %RBP
  %13 = sub i64 %12, 56
  %14 = load i64, i64* %RAX
  %15 = load i64, i64* %PC
  %16 = add i64 %15, 4
  store i64 %16, i64* %PC
  %17 = call %struct.Memory* @_ZN12_GLOBAL__N_1L3MOVI3MnWImE2RnImEEEP6MemoryS6_R5StateT_T0_(%struct.Memory* %2, %struct.State* %0, i64 %13, i64 %14)
  ret %struct.Memory* %17
}


define %struct.Memory* @routine_movq_MINUS0x30__rbp____rax(%struct.State*  dereferenceable(3376), i64, %struct.Memory* ) #19 alwaysinline {
block_400488:
  %3 = getelementptr inbounds %struct.State, %struct.State* %0, i32 0, i32 6
  %4 = getelementptr inbounds %struct.GPR, %struct.GPR* %3, i32 0, i32 33
  %5 = getelementptr inbounds %struct.Reg, %struct.Reg* %4, i32 0, i32 0
  %PC = bitcast %union.anon* %5 to i64*
  %6 = getelementptr inbounds %struct.State, %struct.State* %0, i32 0, i32 6
  %7 = getelementptr inbounds %struct.GPR, %struct.GPR* %6, i32 0, i32 1
  %8 = getelementptr inbounds %struct.Reg, %struct.Reg* %7, i32 0, i32 0
  %RAX = bitcast %union.anon* %8 to i64*
  %9 = getelementptr inbounds %struct.State, %struct.State* %0, i32 0, i32 6
  %10 = getelementptr inbounds %struct.GPR, %struct.GPR* %9, i32 0, i32 15
  %11 = getelementptr inbounds %struct.Reg, %struct.Reg* %10, i32 0, i32 0
  %RBP = bitcast %union.anon* %11 to i64*
  %12 = load i64, i64* %RBP
  %13 = sub i64 %12, 48
  %14 = load i64, i64* %PC
  %15 = add i64 %14, 4
  store i64 %15, i64* %PC
  %16 = call %struct.Memory* @_ZN12_GLOBAL__N_1L3MOVI3RnWImE2MnImEEEP6MemoryS6_R5StateT_T0_(%struct.Memory* %2, %struct.State* %0, i64* %RAX, i64 %13)
  ret %struct.Memory* %16
}


define %struct.Memory* @routine_movsd___rax____xmm1(%struct.State*  dereferenceable(3376), i64, %struct.Memory* ) #19 alwaysinline {
block_400488:
  %3 = getelementptr inbounds %struct.State, %struct.State* %0, i32 0, i32 6
  %4 = getelementptr inbounds %struct.GPR, %struct.GPR* %3, i32 0, i32 33
  %5 = getelementptr inbounds %struct.Reg, %struct.Reg* %4, i32 0, i32 0
  %PC = bitcast %union.anon* %5 to i64*
  %6 = getelementptr inbounds %struct.State, %struct.State* %0, i32 0, i32 6
  %7 = getelementptr inbounds %struct.GPR, %struct.GPR* %6, i32 0, i32 1
  %8 = getelementptr inbounds %struct.Reg, %struct.Reg* %7, i32 0, i32 0
  %RAX = bitcast %union.anon* %8 to i64*
  %9 = getelementptr inbounds %struct.State, %struct.State* %0, i32 0, i32 1
  %10 = getelementptr inbounds [32 x %union.VectorReg], [32 x %union.VectorReg]* %9, i64 0, i64 1
  %YMM1 = bitcast %union.VectorReg* %10 to %"class.std::bitset"*
  %11 = bitcast %"class.std::bitset"* %YMM1 to i8*
  %12 = load i64, i64* %RAX
  %13 = load i64, i64* %PC
  %14 = add i64 %13, 4
  store i64 %14, i64* %PC
  %15 = call %struct.Memory* @_ZN12_GLOBAL__N_1L9MOVSD_MEMI3VnWI8vec128_tE3MVnI7vec64_tEEEP6MemoryS8_R5StateT_T0_(%struct.Memory* %2, %struct.State* %0, i8* %11, i64 %12)
  ret %struct.Memory* %15
}


define %struct.Memory* @routine_movq_MINUS0x10__rbp____rax(%struct.State*  dereferenceable(3376), i64, %struct.Memory* ) #19 alwaysinline {
block_400488:
  %3 = getelementptr inbounds %struct.State, %struct.State* %0, i32 0, i32 6
  %4 = getelementptr inbounds %struct.GPR, %struct.GPR* %3, i32 0, i32 33
  %5 = getelementptr inbounds %struct.Reg, %struct.Reg* %4, i32 0, i32 0
  %PC = bitcast %union.anon* %5 to i64*
  %6 = getelementptr inbounds %struct.State, %struct.State* %0, i32 0, i32 6
  %7 = getelementptr inbounds %struct.GPR, %struct.GPR* %6, i32 0, i32 1
  %8 = getelementptr inbounds %struct.Reg, %struct.Reg* %7, i32 0, i32 0
  %RAX = bitcast %union.anon* %8 to i64*
  %9 = getelementptr inbounds %struct.State, %struct.State* %0, i32 0, i32 6
  %10 = getelementptr inbounds %struct.GPR, %struct.GPR* %9, i32 0, i32 15
  %11 = getelementptr inbounds %struct.Reg, %struct.Reg* %10, i32 0, i32 0
  %RBP = bitcast %union.anon* %11 to i64*
  %12 = load i64, i64* %RBP
  %13 = sub i64 %12, 16
  %14 = load i64, i64* %PC
  %15 = add i64 %14, 4
  store i64 %15, i64* %PC
  %16 = call %struct.Memory* @_ZN12_GLOBAL__N_1L3MOVI3RnWImE2MnImEEEP6MemoryS6_R5StateT_T0_(%struct.Memory* %2, %struct.State* %0, i64* %RAX, i64 %13)
  ret %struct.Memory* %16
}

define internal %struct.Memory* @_ZN12_GLOBAL__N_1L9MOVSD_MEMI4MVnWI7vec64_tE2VnI8vec128_tEEEP6MemoryS8_R5StateT_T0_(%struct.Memory* readnone, %struct.State* nocapture readnone dereferenceable(3376), i64, i8* nocapture readonly) #7 alwaysinline {
  %5 = bitcast i8* %3 to double*
  %6 = load double, double* %5, align 1
  %7 = inttoptr i64 %2 to double*
  store double %6, double* %7
  ret %struct.Memory* %0
}

define %struct.Memory* @routine_movsd__xmm1____rax_(%struct.State*  dereferenceable(3376), i64, %struct.Memory* ) #19 alwaysinline {
block_400488:
  %3 = getelementptr inbounds %struct.State, %struct.State* %0, i32 0, i32 6
  %4 = getelementptr inbounds %struct.GPR, %struct.GPR* %3, i32 0, i32 33
  %5 = getelementptr inbounds %struct.Reg, %struct.Reg* %4, i32 0, i32 0
  %PC = bitcast %union.anon* %5 to i64*
  %6 = getelementptr inbounds %struct.State, %struct.State* %0, i32 0, i32 6
  %7 = getelementptr inbounds %struct.GPR, %struct.GPR* %6, i32 0, i32 1
  %8 = getelementptr inbounds %struct.Reg, %struct.Reg* %7, i32 0, i32 0
  %RAX = bitcast %union.anon* %8 to i64*
  %9 = getelementptr inbounds %struct.State, %struct.State* %0, i32 0, i32 1
  %10 = getelementptr inbounds [32 x %union.VectorReg], [32 x %union.VectorReg]* %9, i64 0, i64 1
  %XMM1 = bitcast %union.VectorReg* %10 to %union.vec128_t*
  %11 = load i64, i64* %RAX
  %12 = bitcast %union.vec128_t* %XMM1 to i8*
  %13 = load i64, i64* %PC
  %14 = add i64 %13, 4
  store i64 %14, i64* %PC
  %15 = call %struct.Memory* @_ZN12_GLOBAL__N_1L9MOVSD_MEMI4MVnWI7vec64_tE2VnI8vec128_tEEEP6MemoryS8_R5StateT_T0_(%struct.Memory* %2, %struct.State* %0, i64 %11, i8* %12)
  ret %struct.Memory* %15
}


define %struct.Memory* @routine_movq_MINUS0x28__rbp____rax(%struct.State*  dereferenceable(3376), i64, %struct.Memory* ) #19 alwaysinline {
block_400488:
  %3 = getelementptr inbounds %struct.State, %struct.State* %0, i32 0, i32 6
  %4 = getelementptr inbounds %struct.GPR, %struct.GPR* %3, i32 0, i32 33
  %5 = getelementptr inbounds %struct.Reg, %struct.Reg* %4, i32 0, i32 0
  %PC = bitcast %union.anon* %5 to i64*
  %6 = getelementptr inbounds %struct.State, %struct.State* %0, i32 0, i32 6
  %7 = getelementptr inbounds %struct.GPR, %struct.GPR* %6, i32 0, i32 1
  %8 = getelementptr inbounds %struct.Reg, %struct.Reg* %7, i32 0, i32 0
  %RAX = bitcast %union.anon* %8 to i64*
  %9 = getelementptr inbounds %struct.State, %struct.State* %0, i32 0, i32 6
  %10 = getelementptr inbounds %struct.GPR, %struct.GPR* %9, i32 0, i32 15
  %11 = getelementptr inbounds %struct.Reg, %struct.Reg* %10, i32 0, i32 0
  %RBP = bitcast %union.anon* %11 to i64*
  %12 = load i64, i64* %RBP
  %13 = sub i64 %12, 40
  %14 = load i64, i64* %PC
  %15 = add i64 %14, 4
  store i64 %15, i64* %PC
  %16 = call %struct.Memory* @_ZN12_GLOBAL__N_1L3MOVI3RnWImE2MnImEEEP6MemoryS6_R5StateT_T0_(%struct.Memory* %2, %struct.State* %0, i64* %RAX, i64 %13)
  ret %struct.Memory* %16
}


define %struct.Memory* @routine_movsd__xmm0____rax_(%struct.State*  dereferenceable(3376), i64, %struct.Memory* ) #19 alwaysinline {
block_400488:
  %3 = getelementptr inbounds %struct.State, %struct.State* %0, i32 0, i32 6
  %4 = getelementptr inbounds %struct.GPR, %struct.GPR* %3, i32 0, i32 33
  %5 = getelementptr inbounds %struct.Reg, %struct.Reg* %4, i32 0, i32 0
  %PC = bitcast %union.anon* %5 to i64*
  %6 = getelementptr inbounds %struct.State, %struct.State* %0, i32 0, i32 6
  %7 = getelementptr inbounds %struct.GPR, %struct.GPR* %6, i32 0, i32 1
  %8 = getelementptr inbounds %struct.Reg, %struct.Reg* %7, i32 0, i32 0
  %RAX = bitcast %union.anon* %8 to i64*
  %9 = getelementptr inbounds %struct.State, %struct.State* %0, i32 0, i32 1
  %10 = getelementptr inbounds [32 x %union.VectorReg], [32 x %union.VectorReg]* %9, i64 0, i64 0
  %XMM0 = bitcast %union.VectorReg* %10 to %union.vec128_t*
  %11 = load i64, i64* %RAX
  %12 = bitcast %union.vec128_t* %XMM0 to i8*
  %13 = load i64, i64* %PC
  %14 = add i64 %13, 4
  store i64 %14, i64* %PC
  %15 = call %struct.Memory* @_ZN12_GLOBAL__N_1L9MOVSD_MEMI4MVnWI7vec64_tE2VnI8vec128_tEEEP6MemoryS8_R5StateT_T0_(%struct.Memory* %2, %struct.State* %0, i64 %11, i8* %12)
  ret %struct.Memory* %15
}




define %struct.Memory* @routine_movsd___rax____xmm0(%struct.State*  dereferenceable(3376), i64, %struct.Memory* ) #19 alwaysinline {
block_400488:
  %3 = getelementptr inbounds %struct.State, %struct.State* %0, i32 0, i32 6
  %4 = getelementptr inbounds %struct.GPR, %struct.GPR* %3, i32 0, i32 33
  %5 = getelementptr inbounds %struct.Reg, %struct.Reg* %4, i32 0, i32 0
  %PC = bitcast %union.anon* %5 to i64*
  %6 = getelementptr inbounds %struct.State, %struct.State* %0, i32 0, i32 6
  %7 = getelementptr inbounds %struct.GPR, %struct.GPR* %6, i32 0, i32 1
  %8 = getelementptr inbounds %struct.Reg, %struct.Reg* %7, i32 0, i32 0
  %RAX = bitcast %union.anon* %8 to i64*
  %9 = getelementptr inbounds %struct.State, %struct.State* %0, i32 0, i32 1
  %10 = getelementptr inbounds [32 x %union.VectorReg], [32 x %union.VectorReg]* %9, i64 0, i64 0
  %YMM0 = bitcast %union.VectorReg* %10 to %"class.std::bitset"*
  %11 = bitcast %"class.std::bitset"* %YMM0 to i8*
  %12 = load i64, i64* %RAX
  %13 = load i64, i64* %PC
  %14 = add i64 %13, 4
  store i64 %14, i64* %PC
  %15 = call %struct.Memory* @_ZN12_GLOBAL__N_1L9MOVSD_MEMI3VnWI8vec128_tE3MVnI7vec64_tEEEP6MemoryS8_R5StateT_T0_(%struct.Memory* %2, %struct.State* %0, i8* %11, i64 %12)
  ret %struct.Memory* %15
}


define %struct.Memory* @routine_movq_MINUS0x20__rbp____rax(%struct.State*  dereferenceable(3376), i64, %struct.Memory* ) #19 alwaysinline {
block_400488:
  %3 = getelementptr inbounds %struct.State, %struct.State* %0, i32 0, i32 6
  %4 = getelementptr inbounds %struct.GPR, %struct.GPR* %3, i32 0, i32 33
  %5 = getelementptr inbounds %struct.Reg, %struct.Reg* %4, i32 0, i32 0
  %PC = bitcast %union.anon* %5 to i64*
  %6 = getelementptr inbounds %struct.State, %struct.State* %0, i32 0, i32 6
  %7 = getelementptr inbounds %struct.GPR, %struct.GPR* %6, i32 0, i32 1
  %8 = getelementptr inbounds %struct.Reg, %struct.Reg* %7, i32 0, i32 0
  %RAX = bitcast %union.anon* %8 to i64*
  %9 = getelementptr inbounds %struct.State, %struct.State* %0, i32 0, i32 6
  %10 = getelementptr inbounds %struct.GPR, %struct.GPR* %9, i32 0, i32 15
  %11 = getelementptr inbounds %struct.Reg, %struct.Reg* %10, i32 0, i32 0
  %RBP = bitcast %union.anon* %11 to i64*
  %12 = load i64, i64* %RBP
  %13 = sub i64 %12, 32
  %14 = load i64, i64* %PC
  %15 = add i64 %14, 4
  store i64 %15, i64* %PC
  %16 = call %struct.Memory* @_ZN12_GLOBAL__N_1L3MOVI3RnWImE2MnImEEEP6MemoryS6_R5StateT_T0_(%struct.Memory* %2, %struct.State* %0, i64* %RAX, i64 %13)
  ret %struct.Memory* %16
}



define internal %struct.Memory* @_ZN12_GLOBAL__N_1L3MOVI3MnWIjE2InIjEEEP6MemoryS6_R5StateT_T0_(%struct.Memory* readnone, %struct.State* nocapture readnone dereferenceable(3376), i64, i64) #8 alwaysinline {
  %5 = trunc i64 %3 to i32
  %6 = inttoptr i64 %2 to i32*
  store i32 %5, i32* %6
  ret %struct.Memory* %0
}

define %struct.Memory* @routine_movl__0x1__MINUS0x40__rbp_(%struct.State*  dereferenceable(3376), i64, %struct.Memory* ) #19 alwaysinline {
block_400488:
  %3 = getelementptr inbounds %struct.State, %struct.State* %0, i32 0, i32 6
  %4 = getelementptr inbounds %struct.GPR, %struct.GPR* %3, i32 0, i32 33
  %5 = getelementptr inbounds %struct.Reg, %struct.Reg* %4, i32 0, i32 0
  %PC = bitcast %union.anon* %5 to i64*
  %6 = getelementptr inbounds %struct.State, %struct.State* %0, i32 0, i32 6
  %7 = getelementptr inbounds %struct.GPR, %struct.GPR* %6, i32 0, i32 15
  %8 = getelementptr inbounds %struct.Reg, %struct.Reg* %7, i32 0, i32 0
  %RBP = bitcast %union.anon* %8 to i64*
  %9 = load i64, i64* %RBP
  %10 = sub i64 %9, 64
  %11 = load i64, i64* %PC
  %12 = add i64 %11, 7
  store i64 %12, i64* %PC
  %13 = call %struct.Memory* @_ZN12_GLOBAL__N_1L3MOVI3MnWIjE2InIjEEEP6MemoryS6_R5StateT_T0_(%struct.Memory* %2, %struct.State* %0, i64 %10, i64 1)
  ret %struct.Memory* %13
}

define internal %struct.Memory* @_ZN12_GLOBAL__N_1L3MOVI3RnWImE2MnIjEEEP6MemoryS6_R5StateT_T0_(%struct.Memory* returned, %struct.State* nocapture readnone dereferenceable(3376), i64* nocapture, i64) #0 alwaysinline {
  %5 = inttoptr i64 %3 to i32*
  %6 = load i32, i32* %5
  %7 = zext i32 %6 to i64
  store i64 %7, i64* %2, align 8
  ret %struct.Memory* %0
}

define %struct.Memory* @routine_movl_MINUS0x40__rbp____eax(%struct.State*  dereferenceable(3376), i64, %struct.Memory* ) #19 alwaysinline {
block_400488:
  %3 = getelementptr inbounds %struct.State, %struct.State* %0, i32 0, i32 6
  %4 = getelementptr inbounds %struct.GPR, %struct.GPR* %3, i32 0, i32 33
  %5 = getelementptr inbounds %struct.Reg, %struct.Reg* %4, i32 0, i32 0
  %PC = bitcast %union.anon* %5 to i64*
  %6 = getelementptr inbounds %struct.State, %struct.State* %0, i32 0, i32 6
  %7 = getelementptr inbounds %struct.GPR, %struct.GPR* %6, i32 0, i32 1
  %8 = getelementptr inbounds %struct.Reg, %struct.Reg* %7, i32 0, i32 0
  %RAX = bitcast %union.anon* %8 to i64*
  %9 = getelementptr inbounds %struct.State, %struct.State* %0, i32 0, i32 6
  %10 = getelementptr inbounds %struct.GPR, %struct.GPR* %9, i32 0, i32 15
  %11 = getelementptr inbounds %struct.Reg, %struct.Reg* %10, i32 0, i32 0
  %RBP = bitcast %union.anon* %11 to i64*
  %12 = load i64, i64* %RBP
  %13 = sub i64 %12, 64
  %14 = load i64, i64* %PC
  %15 = add i64 %14, 3
  store i64 %15, i64* %PC
  %16 = call %struct.Memory* @_ZN12_GLOBAL__N_1L3MOVI3RnWImE2MnIjEEEP6MemoryS6_R5StateT_T0_(%struct.Memory* %2, %struct.State* %0, i64* %RAX, i64 %13)
  ret %struct.Memory* %16
}

define internal %struct.Memory* @_ZN12_GLOBAL__N_1L3CMPI2RnIjE2MnIjEEEP6MemoryS6_R5StateT_T0_(%struct.Memory*, %struct.State* nocapture dereferenceable(3376), i64, i64) #0 alwaysinline {
  %5 = trunc i64 %2 to i32
  %6 = inttoptr i64 %3 to i32*
  %7 = load i32, i32* %6
  %8 = sub i32 %5, %7
  %9 = icmp ult i32 %5, %7
  %10 = zext i1 %9 to i8
  %11 = getelementptr inbounds %struct.State, %struct.State* %1, i64 0, i32 2, i32 1
  store i8 %10, i8* %11, align 1
  %12 = and i32 %8, 255
  %13 = tail call i32 @llvm.ctpop.i32(i32 %12) #22
  %14 = trunc i32 %13 to i8
  %15 = and i8 %14, 1
  %16 = xor i8 %15, 1
  %17 = getelementptr inbounds %struct.State, %struct.State* %1, i64 0, i32 2, i32 3
  store i8 %16, i8* %17, align 1
  %18 = xor i32 %7, %5
  %19 = xor i32 %18, %8
  %20 = lshr i32 %19, 4
  %21 = trunc i32 %20 to i8
  %22 = and i8 %21, 1
  %23 = getelementptr inbounds %struct.State, %struct.State* %1, i64 0, i32 2, i32 5
  store i8 %22, i8* %23, align 1
  %24 = icmp eq i32 %8, 0
  %25 = zext i1 %24 to i8
  %26 = getelementptr inbounds %struct.State, %struct.State* %1, i64 0, i32 2, i32 7
  store i8 %25, i8* %26, align 1
  %27 = lshr i32 %8, 31
  %28 = trunc i32 %27 to i8
  %29 = getelementptr inbounds %struct.State, %struct.State* %1, i64 0, i32 2, i32 9
  store i8 %28, i8* %29, align 1
  %30 = lshr i32 %5, 31
  %31 = lshr i32 %7, 31
  %32 = xor i32 %31, %30
  %33 = xor i32 %27, %30
  %34 = add   i32 %33, %32
  %35 = icmp eq i32 %34, 2
  %36 = zext i1 %35 to i8
  %37 = getelementptr inbounds %struct.State, %struct.State* %1, i64 0, i32 2, i32 13
  store i8 %36, i8* %37, align 1
  ret %struct.Memory* %0
}

define %struct.Memory* @routine_cmpl_MINUS0x4__rbp____eax(%struct.State*  dereferenceable(3376), i64, %struct.Memory* ) #19 alwaysinline {
block_400488:
  %3 = getelementptr inbounds %struct.State, %struct.State* %0, i32 0, i32 6
  %4 = getelementptr inbounds %struct.GPR, %struct.GPR* %3, i32 0, i32 33
  %5 = getelementptr inbounds %struct.Reg, %struct.Reg* %4, i32 0, i32 0
  %PC = bitcast %union.anon* %5 to i64*
  %6 = getelementptr inbounds %struct.State, %struct.State* %0, i32 0, i32 6
  %7 = getelementptr inbounds %struct.GPR, %struct.GPR* %6, i32 0, i32 1
  %8 = getelementptr inbounds %struct.Reg, %struct.Reg* %7, i32 0, i32 0
  %EAX = bitcast %union.anon* %8 to i32*
  %9 = getelementptr inbounds %struct.State, %struct.State* %0, i32 0, i32 6
  %10 = getelementptr inbounds %struct.GPR, %struct.GPR* %9, i32 0, i32 15
  %11 = getelementptr inbounds %struct.Reg, %struct.Reg* %10, i32 0, i32 0
  %RBP = bitcast %union.anon* %11 to i64*
  %12 = load i32, i32* %EAX
  %13 = zext i32 %12 to i64
  %14 = load i64, i64* %RBP
  %15 = sub i64 %14, 4
  %16 = load i64, i64* %PC
  %17 = add i64 %16, 3
  store i64 %17, i64* %PC
  %18 = call %struct.Memory* @_ZN12_GLOBAL__N_1L3CMPI2RnIjE2MnIjEEEP6MemoryS6_R5StateT_T0_(%struct.Memory* %2, %struct.State* %0, i64 %13, i64 %15)
  ret %struct.Memory* %18
}

define internal %struct.Memory* @_ZN12_GLOBAL__N_1L3JNLEP6MemoryR5State3RnWIhE2InImES7_(%struct.Memory* readnone returned, %struct.State* nocapture dereferenceable(3376), i8* nocapture, i64, i64) #2 alwaysinline {
  %6 = getelementptr inbounds %struct.State, %struct.State* %1, i64 0, i32 2, i32 9
  %7 = load i8, i8* %6, align 1
  %8 = icmp ne i8 %7, 0
  %9 = getelementptr inbounds %struct.State, %struct.State* %1, i64 0, i32 2, i32 13
  %10 = load i8, i8* %9, align 1
  %11 = icmp ne i8 %10, 0
  %12 = xor i1 %8, %11
  %13 = xor i1 %12, true
  %14 = zext i1 %13 to i8
  store i8 %14, i8* %2, align 1
  %15 = getelementptr inbounds %struct.State, %struct.State* %1, i64 0, i32 6, i32 33, i32 0, i32 0
  %16 = select i1 %12, i64 %4, i64 %3
  store i64 %16, i64* %15, align 8
  ret %struct.Memory* %0
}

define %struct.Memory* @routine_jge_.L_40111f(%struct.State*  dereferenceable(3376), i64, %struct.Memory*, i8* %BRANCH_TAKEN, i64 %rel_off1, i64 %rel_off2, i64 %rel_off3) alwaysinline {
block_400488:
  %3 = getelementptr inbounds %struct.State, %struct.State* %0, i32 0, i32 6
  %4 = getelementptr inbounds %struct.GPR, %struct.GPR* %3, i32 0, i32 33
  %5 = getelementptr inbounds %struct.Reg, %struct.Reg* %4, i32 0, i32 0
  %PC = bitcast %union.anon* %5 to i64*
  %6 = load i64, i64* %PC
  %7 = add i64 %6, %rel_off1
  %8 = load i64, i64* %PC
  %9 = add i64 %8, %rel_off2
  %10 = load i64, i64* %PC
  %11 = add i64 %10, %rel_off3
  store i64 %11, i64* %PC
  %12 = call %struct.Memory* @_ZN12_GLOBAL__N_1L3JNLEP6MemoryR5State3RnWIhE2InImES7_(%struct.Memory* %2, %struct.State* %0, i8* %BRANCH_TAKEN, i64 %7, i64 %9)
  ret %struct.Memory* %12
}




define %struct.Memory* @routine_movl_MINUS0x40__rbp____ecx(%struct.State*  dereferenceable(3376), i64, %struct.Memory* ) #19 alwaysinline {
block_400488:
  %3 = getelementptr inbounds %struct.State, %struct.State* %0, i32 0, i32 6
  %4 = getelementptr inbounds %struct.GPR, %struct.GPR* %3, i32 0, i32 33
  %5 = getelementptr inbounds %struct.Reg, %struct.Reg* %4, i32 0, i32 0
  %PC = bitcast %union.anon* %5 to i64*
  %6 = getelementptr inbounds %struct.State, %struct.State* %0, i32 0, i32 6
  %7 = getelementptr inbounds %struct.GPR, %struct.GPR* %6, i32 0, i32 5
  %8 = getelementptr inbounds %struct.Reg, %struct.Reg* %7, i32 0, i32 0
  %RCX = bitcast %union.anon* %8 to i64*
  %9 = getelementptr inbounds %struct.State, %struct.State* %0, i32 0, i32 6
  %10 = getelementptr inbounds %struct.GPR, %struct.GPR* %9, i32 0, i32 15
  %11 = getelementptr inbounds %struct.Reg, %struct.Reg* %10, i32 0, i32 0
  %RBP = bitcast %union.anon* %11 to i64*
  %12 = load i64, i64* %RBP
  %13 = sub i64 %12, 64
  %14 = load i64, i64* %PC
  %15 = add i64 %14, 3
  store i64 %15, i64* %PC
  %16 = call %struct.Memory* @_ZN12_GLOBAL__N_1L3MOVI3RnWImE2MnIjEEEP6MemoryS6_R5StateT_T0_(%struct.Memory* %2, %struct.State* %0, i64* %RCX, i64 %13)
  ret %struct.Memory* %16
}

define internal %struct.Memory* @_ZN12_GLOBAL__N_1L3SUBI3RnWImE2RnIjE2InIjEEEP6MemoryS8_R5StateT_T0_T1_(%struct.Memory* readnone returned, %struct.State* nocapture dereferenceable(3376), i64* nocapture, i64, i64) #0 alwaysinline {
  %6 = trunc i64 %3 to i32
  %7 = trunc i64 %4 to i32
  %8 = sub i32 %6, %7
  %9 = zext i32 %8 to i64
  store i64 %9, i64* %2, align 8
  %10 = icmp ult i32 %6, %7
  %11 = zext i1 %10 to i8
  %12 = getelementptr inbounds %struct.State, %struct.State* %1, i64 0, i32 2, i32 1
  store i8 %11, i8* %12, align 1
  %13 = and i32 %8, 255
  %14 = tail call i32 @llvm.ctpop.i32(i32 %13) #22
  %15 = trunc i32 %14 to i8
  %16 = and i8 %15, 1
  %17 = xor i8 %16, 1
  %18 = getelementptr inbounds %struct.State, %struct.State* %1, i64 0, i32 2, i32 3
  store i8 %17, i8* %18, align 1
  %19 = xor i64 %4, %3
  %20 = trunc i64 %19 to i32
  %21 = xor i32 %20, %8
  %22 = lshr i32 %21, 4
  %23 = trunc i32 %22 to i8
  %24 = and i8 %23, 1
  %25 = getelementptr inbounds %struct.State, %struct.State* %1, i64 0, i32 2, i32 5
  store i8 %24, i8* %25, align 1
  %26 = icmp eq i32 %8, 0
  %27 = zext i1 %26 to i8
  %28 = getelementptr inbounds %struct.State, %struct.State* %1, i64 0, i32 2, i32 7
  store i8 %27, i8* %28, align 1
  %29 = lshr i32 %8, 31
  %30 = trunc i32 %29 to i8
  %31 = getelementptr inbounds %struct.State, %struct.State* %1, i64 0, i32 2, i32 9
  store i8 %30, i8* %31, align 1
  %32 = lshr i32 %6, 31
  %33 = lshr i32 %7, 31
  %34 = xor i32 %33, %32
  %35 = xor i32 %29, %32
  %36 = add   i32 %35, %34
  %37 = icmp eq i32 %36, 2
  %38 = zext i1 %37 to i8
  %39 = getelementptr inbounds %struct.State, %struct.State* %1, i64 0, i32 2, i32 13
  store i8 %38, i8* %39, align 1
  ret %struct.Memory* %0
}

define %struct.Memory* @routine_subl__0x1___ecx(%struct.State*  dereferenceable(3376), i64, %struct.Memory* ) #19 alwaysinline {
block_400488:
  %3 = getelementptr inbounds %struct.State, %struct.State* %0, i32 0, i32 6
  %4 = getelementptr inbounds %struct.GPR, %struct.GPR* %3, i32 0, i32 33
  %5 = getelementptr inbounds %struct.Reg, %struct.Reg* %4, i32 0, i32 0
  %PC = bitcast %union.anon* %5 to i64*
  %6 = getelementptr inbounds %struct.State, %struct.State* %0, i32 0, i32 6
  %7 = getelementptr inbounds %struct.GPR, %struct.GPR* %6, i32 0, i32 5
  %8 = getelementptr inbounds %struct.Reg, %struct.Reg* %7, i32 0, i32 0
  %RCX = bitcast %union.anon* %8 to i64*
  %9 = load i64, i64* %RCX
  %10 = load i64, i64* %PC
  %11 = add i64 %10, 3
  store i64 %11, i64* %PC
  %12 = call %struct.Memory* @_ZN12_GLOBAL__N_1L3SUBI3RnWImE2RnIjE2InIjEEEP6MemoryS8_R5StateT_T0_T1_(%struct.Memory* %2, %struct.State* %0, i64* %RCX, i64 %9, i64 1)
  ret %struct.Memory* %12
}

define internal %struct.Memory* @_ZN12_GLOBAL__N_1L5MOVSXI3RnWImE2RnIjElEEP6MemoryS6_R5StateT_T0_(%struct.Memory* readnone returned, %struct.State* nocapture readnone dereferenceable(3376), i64* nocapture, i64) #2 alwaysinline {
  %5 = shl i64 %3, 32
  %6 = ashr exact i64 %5, 32
  store i64 %6, i64* %2, align 8
  ret %struct.Memory* %0
}

define %struct.Memory* @routine_movslq__ecx___rdx(%struct.State*  dereferenceable(3376), i64, %struct.Memory* ) #19 alwaysinline {
block_400488:
  %3 = getelementptr inbounds %struct.State, %struct.State* %0, i32 0, i32 6
  %4 = getelementptr inbounds %struct.GPR, %struct.GPR* %3, i32 0, i32 33
  %5 = getelementptr inbounds %struct.Reg, %struct.Reg* %4, i32 0, i32 0
  %PC = bitcast %union.anon* %5 to i64*
  %6 = getelementptr inbounds %struct.State, %struct.State* %0, i32 0, i32 6
  %7 = getelementptr inbounds %struct.GPR, %struct.GPR* %6, i32 0, i32 5
  %8 = getelementptr inbounds %struct.Reg, %struct.Reg* %7, i32 0, i32 0
  %ECX = bitcast %union.anon* %8 to i32*
  %9 = getelementptr inbounds %struct.State, %struct.State* %0, i32 0, i32 6
  %10 = getelementptr inbounds %struct.GPR, %struct.GPR* %9, i32 0, i32 7
  %11 = getelementptr inbounds %struct.Reg, %struct.Reg* %10, i32 0, i32 0
  %RDX = bitcast %union.anon* %11 to i64*
  %12 = load i32, i32* %ECX
  %13 = zext i32 %12 to i64
  %14 = load i64, i64* %PC
  %15 = add i64 %14, 3
  store i64 %15, i64* %PC
  %16 = call %struct.Memory* @_ZN12_GLOBAL__N_1L5MOVSXI3RnWImE2RnIjElEEP6MemoryS6_R5StateT_T0_(%struct.Memory* %2, %struct.State* %0, i64* %RDX, i64 %13)
  ret %struct.Memory* %16
}


define %struct.Memory* @routine_movsd___rax__rdx_8____xmm0(%struct.State*  dereferenceable(3376), i64, %struct.Memory* ) #19 alwaysinline {
block_400488:
  %3 = getelementptr inbounds %struct.State, %struct.State* %0, i32 0, i32 6
  %4 = getelementptr inbounds %struct.GPR, %struct.GPR* %3, i32 0, i32 33
  %5 = getelementptr inbounds %struct.Reg, %struct.Reg* %4, i32 0, i32 0
  %PC = bitcast %union.anon* %5 to i64*
  %6 = getelementptr inbounds %struct.State, %struct.State* %0, i32 0, i32 6
  %7 = getelementptr inbounds %struct.GPR, %struct.GPR* %6, i32 0, i32 1
  %8 = getelementptr inbounds %struct.Reg, %struct.Reg* %7, i32 0, i32 0
  %RAX = bitcast %union.anon* %8 to i64*
  %9 = getelementptr inbounds %struct.State, %struct.State* %0, i32 0, i32 6
  %10 = getelementptr inbounds %struct.GPR, %struct.GPR* %9, i32 0, i32 7
  %11 = getelementptr inbounds %struct.Reg, %struct.Reg* %10, i32 0, i32 0
  %RDX = bitcast %union.anon* %11 to i64*
  %12 = getelementptr inbounds %struct.State, %struct.State* %0, i32 0, i32 1
  %13 = getelementptr inbounds [32 x %union.VectorReg], [32 x %union.VectorReg]* %12, i64 0, i64 0
  %YMM0 = bitcast %union.VectorReg* %13 to %"class.std::bitset"*
  %14 = bitcast %"class.std::bitset"* %YMM0 to i8*
  %15 = load i64, i64* %RAX
  %16 = load i64, i64* %RDX
  %17 = mul i64 %16, 8
  %18 = add i64 %17, %15
  %19 = load i64, i64* %PC
  %20 = add i64 %19, 5
  store i64 %20, i64* %PC
  %21 = call %struct.Memory* @_ZN12_GLOBAL__N_1L9MOVSD_MEMI3VnWI8vec128_tE3MVnI7vec64_tEEEP6MemoryS8_R5StateT_T0_(%struct.Memory* %2, %struct.State* %0, i8* %14, i64 %18)
  ret %struct.Memory* %21
}










define %struct.Memory* @routine_movsd___rax__rdx_8____xmm1(%struct.State*  dereferenceable(3376), i64, %struct.Memory* ) #19 alwaysinline {
block_400488:
  %3 = getelementptr inbounds %struct.State, %struct.State* %0, i32 0, i32 6
  %4 = getelementptr inbounds %struct.GPR, %struct.GPR* %3, i32 0, i32 33
  %5 = getelementptr inbounds %struct.Reg, %struct.Reg* %4, i32 0, i32 0
  %PC = bitcast %union.anon* %5 to i64*
  %6 = getelementptr inbounds %struct.State, %struct.State* %0, i32 0, i32 6
  %7 = getelementptr inbounds %struct.GPR, %struct.GPR* %6, i32 0, i32 1
  %8 = getelementptr inbounds %struct.Reg, %struct.Reg* %7, i32 0, i32 0
  %RAX = bitcast %union.anon* %8 to i64*
  %9 = getelementptr inbounds %struct.State, %struct.State* %0, i32 0, i32 6
  %10 = getelementptr inbounds %struct.GPR, %struct.GPR* %9, i32 0, i32 7
  %11 = getelementptr inbounds %struct.Reg, %struct.Reg* %10, i32 0, i32 0
  %RDX = bitcast %union.anon* %11 to i64*
  %12 = getelementptr inbounds %struct.State, %struct.State* %0, i32 0, i32 1
  %13 = getelementptr inbounds [32 x %union.VectorReg], [32 x %union.VectorReg]* %12, i64 0, i64 1
  %YMM1 = bitcast %union.VectorReg* %13 to %"class.std::bitset"*
  %14 = bitcast %"class.std::bitset"* %YMM1 to i8*
  %15 = load i64, i64* %RAX
  %16 = load i64, i64* %RDX
  %17 = mul i64 %16, 8
  %18 = add i64 %17, %15
  %19 = load i64, i64* %PC
  %20 = add i64 %19, 5
  store i64 %20, i64* %PC
  %21 = call %struct.Memory* @_ZN12_GLOBAL__N_1L9MOVSD_MEMI3VnWI8vec128_tE3MVnI7vec64_tEEEP6MemoryS8_R5StateT_T0_(%struct.Memory* %2, %struct.State* %0, i8* %14, i64 %18)
  ret %struct.Memory* %21
}









define internal %struct.Memory* @_ZN12_GLOBAL__N_1L5MULSDI3VnWI8vec128_tE2VnIS2_E3MVnIS2_EEEP6MemoryS9_R5StateT_T0_T1_(%struct.Memory* returned, %struct.State* nocapture readnone dereferenceable(3376), i8* nocapture, i8* nocapture readonly, i64) #0 alwaysinline {
  %6 = bitcast i8* %3 to double*
  %7 = load double, double* %6, align 1
  %8 = getelementptr inbounds i8, i8* %3, i64 8
  %9 = bitcast i8* %8 to i64*
  %10 = load i64, i64* %9, align 1
  %11 = inttoptr i64 %4 to double*
  %12 = load double, double* %11
  %13 = fmul double %7, %12
  %14 = bitcast i8* %2 to double*
  store double %13, double* %14, align 1
  %15 = getelementptr inbounds i8, i8* %2, i64 8
  %16 = bitcast i8* %15 to i64*
  store i64 %10, i64* %16, align 1
  ret %struct.Memory* %0
}

define %struct.Memory* @routine_mulsd___rax__rdx_8____xmm1(%struct.State*  dereferenceable(3376), i64, %struct.Memory* ) #19 alwaysinline {
block_400488:
  %3 = getelementptr inbounds %struct.State, %struct.State* %0, i32 0, i32 6
  %4 = getelementptr inbounds %struct.GPR, %struct.GPR* %3, i32 0, i32 33
  %5 = getelementptr inbounds %struct.Reg, %struct.Reg* %4, i32 0, i32 0
  %PC = bitcast %union.anon* %5 to i64*
  %6 = getelementptr inbounds %struct.State, %struct.State* %0, i32 0, i32 6
  %7 = getelementptr inbounds %struct.GPR, %struct.GPR* %6, i32 0, i32 1
  %8 = getelementptr inbounds %struct.Reg, %struct.Reg* %7, i32 0, i32 0
  %RAX = bitcast %union.anon* %8 to i64*
  %9 = getelementptr inbounds %struct.State, %struct.State* %0, i32 0, i32 6
  %10 = getelementptr inbounds %struct.GPR, %struct.GPR* %9, i32 0, i32 7
  %11 = getelementptr inbounds %struct.Reg, %struct.Reg* %10, i32 0, i32 0
  %RDX = bitcast %union.anon* %11 to i64*
  %12 = getelementptr inbounds %struct.State, %struct.State* %0, i32 0, i32 1
  %13 = getelementptr inbounds [32 x %union.VectorReg], [32 x %union.VectorReg]* %12, i64 0, i64 1
  %YMM1 = bitcast %union.VectorReg* %13 to %"class.std::bitset"*
  %14 = bitcast %"class.std::bitset"* %YMM1 to i8*
  %15 = bitcast %"class.std::bitset"* %YMM1 to i8*
  %16 = load i64, i64* %RAX
  %17 = load i64, i64* %RDX
  %18 = mul i64 %17, 8
  %19 = add i64 %18, %16
  %20 = load i64, i64* %PC
  %21 = add i64 %20, 5
  store i64 %21, i64* %PC
  %22 = call %struct.Memory* @_ZN12_GLOBAL__N_1L5MULSDI3VnWI8vec128_tE2VnIS2_E3MVnIS2_EEEP6MemoryS9_R5StateT_T0_T1_(%struct.Memory* %2, %struct.State* %0, i8* %14, i8* %15, i64 %19)
  ret %struct.Memory* %22
}











define internal %struct.Memory* @_ZN12_GLOBAL__N_1L5SUBSDI3VnWI8vec128_tE2VnIS2_ES5_EEP6MemoryS7_R5StateT_T0_T1_(%struct.Memory* readnone returned, %struct.State* nocapture readnone dereferenceable(3376), i8* nocapture, i8* nocapture readonly, i8* nocapture readonly) #0 alwaysinline {
  %6 = bitcast i8* %3 to double*
  %7 = load double, double* %6, align 1
  %8 = getelementptr inbounds i8, i8* %3, i64 8
  %9 = bitcast i8* %8 to i64*
  %10 = load i64, i64* %9, align 1
  %11 = bitcast i8* %4 to double*
  %12 = load double, double* %11, align 1
  %13 = fsub double %7, %12
  %14 = bitcast i8* %2 to double*
  store double %13, double* %14, align 1
  %15 = getelementptr inbounds i8, i8* %2, i64 8
  %16 = bitcast i8* %15 to i64*
  store i64 %10, i64* %16, align 1
  ret %struct.Memory* %0
}

define %struct.Memory* @routine_subsd__xmm1___xmm0(%struct.State*  dereferenceable(3376), i64, %struct.Memory* ) #19 alwaysinline {
block_400488:
  %3 = getelementptr inbounds %struct.State, %struct.State* %0, i32 0, i32 6
  %4 = getelementptr inbounds %struct.GPR, %struct.GPR* %3, i32 0, i32 33
  %5 = getelementptr inbounds %struct.Reg, %struct.Reg* %4, i32 0, i32 0
  %PC = bitcast %union.anon* %5 to i64*
  %6 = getelementptr inbounds %struct.State, %struct.State* %0, i32 0, i32 1
  %7 = getelementptr inbounds [32 x %union.VectorReg], [32 x %union.VectorReg]* %6, i64 0, i64 0
  %YMM0 = bitcast %union.VectorReg* %7 to %"class.std::bitset"*
  %8 = getelementptr inbounds %struct.State, %struct.State* %0, i32 0, i32 1
  %9 = getelementptr inbounds [32 x %union.VectorReg], [32 x %union.VectorReg]* %8, i64 0, i64 1
  %XMM1 = bitcast %union.VectorReg* %9 to %union.vec128_t*
  %10 = bitcast %"class.std::bitset"* %YMM0 to i8*
  %11 = bitcast %"class.std::bitset"* %YMM0 to i8*
  %12 = bitcast %union.vec128_t* %XMM1 to i8*
  %13 = load i64, i64* %PC
  %14 = add i64 %13, 4
  store i64 %14, i64* %PC
  %15 = call %struct.Memory* @_ZN12_GLOBAL__N_1L5SUBSDI3VnWI8vec128_tE2VnIS2_ES5_EEP6MemoryS7_R5StateT_T0_T1_(%struct.Memory* %2, %struct.State* %0, i8* %10, i8* %11, i8* %12)
  ret %struct.Memory* %15
}



define internal %struct.Memory* @_ZN12_GLOBAL__N_1L5MOVSXI3RnWImE2MnIjElEEP6MemoryS6_R5StateT_T0_(%struct.Memory* returned, %struct.State* nocapture readnone dereferenceable(3376), i64* nocapture, i64) #0 alwaysinline {
  %5 = inttoptr i64 %3 to i32*
  %6 = load i32, i32* %5
  %7 = sext i32 %6 to i64
  store i64 %7, i64* %2, align 8
  ret %struct.Memory* %0
}

define %struct.Memory* @routine_movslq_MINUS0x40__rbp____rdx(%struct.State*  dereferenceable(3376), i64, %struct.Memory* ) #19 alwaysinline {
block_400488:
  %3 = getelementptr inbounds %struct.State, %struct.State* %0, i32 0, i32 6
  %4 = getelementptr inbounds %struct.GPR, %struct.GPR* %3, i32 0, i32 33
  %5 = getelementptr inbounds %struct.Reg, %struct.Reg* %4, i32 0, i32 0
  %PC = bitcast %union.anon* %5 to i64*
  %6 = getelementptr inbounds %struct.State, %struct.State* %0, i32 0, i32 6
  %7 = getelementptr inbounds %struct.GPR, %struct.GPR* %6, i32 0, i32 7
  %8 = getelementptr inbounds %struct.Reg, %struct.Reg* %7, i32 0, i32 0
  %RDX = bitcast %union.anon* %8 to i64*
  %9 = getelementptr inbounds %struct.State, %struct.State* %0, i32 0, i32 6
  %10 = getelementptr inbounds %struct.GPR, %struct.GPR* %9, i32 0, i32 15
  %11 = getelementptr inbounds %struct.Reg, %struct.Reg* %10, i32 0, i32 0
  %RBP = bitcast %union.anon* %11 to i64*
  %12 = load i64, i64* %RBP
  %13 = sub i64 %12, 64
  %14 = load i64, i64* %PC
  %15 = add i64 %14, 4
  store i64 %15, i64* %PC
  %16 = call %struct.Memory* @_ZN12_GLOBAL__N_1L5MOVSXI3RnWImE2MnIjElEEP6MemoryS6_R5StateT_T0_(%struct.Memory* %2, %struct.State* %0, i64* %RDX, i64 %13)
  ret %struct.Memory* %16
}


define %struct.Memory* @routine_movsd__xmm0____rax__rdx_8_(%struct.State*  dereferenceable(3376), i64, %struct.Memory* ) #19 alwaysinline {
block_400488:
  %3 = getelementptr inbounds %struct.State, %struct.State* %0, i32 0, i32 6
  %4 = getelementptr inbounds %struct.GPR, %struct.GPR* %3, i32 0, i32 33
  %5 = getelementptr inbounds %struct.Reg, %struct.Reg* %4, i32 0, i32 0
  %PC = bitcast %union.anon* %5 to i64*
  %6 = getelementptr inbounds %struct.State, %struct.State* %0, i32 0, i32 6
  %7 = getelementptr inbounds %struct.GPR, %struct.GPR* %6, i32 0, i32 1
  %8 = getelementptr inbounds %struct.Reg, %struct.Reg* %7, i32 0, i32 0
  %RAX = bitcast %union.anon* %8 to i64*
  %9 = getelementptr inbounds %struct.State, %struct.State* %0, i32 0, i32 6
  %10 = getelementptr inbounds %struct.GPR, %struct.GPR* %9, i32 0, i32 7
  %11 = getelementptr inbounds %struct.Reg, %struct.Reg* %10, i32 0, i32 0
  %RDX = bitcast %union.anon* %11 to i64*
  %12 = getelementptr inbounds %struct.State, %struct.State* %0, i32 0, i32 1
  %13 = getelementptr inbounds [32 x %union.VectorReg], [32 x %union.VectorReg]* %12, i64 0, i64 0
  %XMM0 = bitcast %union.VectorReg* %13 to %union.vec128_t*
  %14 = load i64, i64* %RAX
  %15 = load i64, i64* %RDX
  %16 = mul i64 %15, 8
  %17 = add i64 %16, %14
  %18 = bitcast %union.vec128_t* %XMM0 to i8*
  %19 = load i64, i64* %PC
  %20 = add i64 %19, 5
  store i64 %20, i64* %PC
  %21 = call %struct.Memory* @_ZN12_GLOBAL__N_1L9MOVSD_MEMI4MVnWI7vec64_tE2VnI8vec128_tEEEP6MemoryS8_R5StateT_T0_(%struct.Memory* %2, %struct.State* %0, i64 %17, i8* %18)
  ret %struct.Memory* %21
}








define %struct.Memory* @routine_movq_MINUS0x18__rbp____rax(%struct.State*  dereferenceable(3376), i64, %struct.Memory* ) #19 alwaysinline {
block_400488:
  %3 = getelementptr inbounds %struct.State, %struct.State* %0, i32 0, i32 6
  %4 = getelementptr inbounds %struct.GPR, %struct.GPR* %3, i32 0, i32 33
  %5 = getelementptr inbounds %struct.Reg, %struct.Reg* %4, i32 0, i32 0
  %PC = bitcast %union.anon* %5 to i64*
  %6 = getelementptr inbounds %struct.State, %struct.State* %0, i32 0, i32 6
  %7 = getelementptr inbounds %struct.GPR, %struct.GPR* %6, i32 0, i32 1
  %8 = getelementptr inbounds %struct.Reg, %struct.Reg* %7, i32 0, i32 0
  %RAX = bitcast %union.anon* %8 to i64*
  %9 = getelementptr inbounds %struct.State, %struct.State* %0, i32 0, i32 6
  %10 = getelementptr inbounds %struct.GPR, %struct.GPR* %9, i32 0, i32 15
  %11 = getelementptr inbounds %struct.Reg, %struct.Reg* %10, i32 0, i32 0
  %RBP = bitcast %union.anon* %11 to i64*
  %12 = load i64, i64* %RBP
  %13 = sub i64 %12, 24
  %14 = load i64, i64* %PC
  %15 = add i64 %14, 4
  store i64 %15, i64* %PC
  %16 = call %struct.Memory* @_ZN12_GLOBAL__N_1L3MOVI3RnWImE2MnImEEEP6MemoryS6_R5StateT_T0_(%struct.Memory* %2, %struct.State* %0, i64* %RAX, i64 %13)
  ret %struct.Memory* %16
}






define %struct.Memory* @routine_movl__0x0__MINUS0x3c__rbp_(%struct.State*  dereferenceable(3376), i64, %struct.Memory* ) #19 alwaysinline {
block_400488:
  %3 = getelementptr inbounds %struct.State, %struct.State* %0, i32 0, i32 6
  %4 = getelementptr inbounds %struct.GPR, %struct.GPR* %3, i32 0, i32 33
  %5 = getelementptr inbounds %struct.Reg, %struct.Reg* %4, i32 0, i32 0
  %PC = bitcast %union.anon* %5 to i64*
  %6 = getelementptr inbounds %struct.State, %struct.State* %0, i32 0, i32 6
  %7 = getelementptr inbounds %struct.GPR, %struct.GPR* %6, i32 0, i32 15
  %8 = getelementptr inbounds %struct.Reg, %struct.Reg* %7, i32 0, i32 0
  %RBP = bitcast %union.anon* %8 to i64*
  %9 = load i64, i64* %RBP
  %10 = sub i64 %9, 60
  %11 = load i64, i64* %PC
  %12 = add i64 %11, 7
  store i64 %12, i64* %PC
  %13 = call %struct.Memory* @_ZN12_GLOBAL__N_1L3MOVI3MnWIjE2InIjEEEP6MemoryS6_R5StateT_T0_(%struct.Memory* %2, %struct.State* %0, i64 %10, i64 0)
  ret %struct.Memory* %13
}


define %struct.Memory* @routine_movl_MINUS0x3c__rbp____eax(%struct.State*  dereferenceable(3376), i64, %struct.Memory* ) #19 alwaysinline {
block_400488:
  %3 = getelementptr inbounds %struct.State, %struct.State* %0, i32 0, i32 6
  %4 = getelementptr inbounds %struct.GPR, %struct.GPR* %3, i32 0, i32 33
  %5 = getelementptr inbounds %struct.Reg, %struct.Reg* %4, i32 0, i32 0
  %PC = bitcast %union.anon* %5 to i64*
  %6 = getelementptr inbounds %struct.State, %struct.State* %0, i32 0, i32 6
  %7 = getelementptr inbounds %struct.GPR, %struct.GPR* %6, i32 0, i32 1
  %8 = getelementptr inbounds %struct.Reg, %struct.Reg* %7, i32 0, i32 0
  %RAX = bitcast %union.anon* %8 to i64*
  %9 = getelementptr inbounds %struct.State, %struct.State* %0, i32 0, i32 6
  %10 = getelementptr inbounds %struct.GPR, %struct.GPR* %9, i32 0, i32 15
  %11 = getelementptr inbounds %struct.Reg, %struct.Reg* %10, i32 0, i32 0
  %RBP = bitcast %union.anon* %11 to i64*
  %12 = load i64, i64* %RBP
  %13 = sub i64 %12, 60
  %14 = load i64, i64* %PC
  %15 = add i64 %14, 3
  store i64 %15, i64* %PC
  %16 = call %struct.Memory* @_ZN12_GLOBAL__N_1L3MOVI3RnWImE2MnIjEEEP6MemoryS6_R5StateT_T0_(%struct.Memory* %2, %struct.State* %0, i64* %RAX, i64 %13)
  ret %struct.Memory* %16
}





define internal %struct.Memory* @_ZN12_GLOBAL__N_1L3CMPI2RnIjES2_EEP6MemoryS4_R5StateT_T0_(%struct.Memory* readnone returned, %struct.State* nocapture dereferenceable(3376), i64, i64) #0 alwaysinline {
  %5 = trunc i64 %2 to i32
  %6 = trunc i64 %3 to i32
  %7 = sub i32 %5, %6
  %8 = icmp ult i32 %5, %6
  %9 = zext i1 %8 to i8
  %10 = getelementptr inbounds %struct.State, %struct.State* %1, i64 0, i32 2, i32 1
  store i8 %9, i8* %10, align 1
  %11 = and i32 %7, 255
  %12 = tail call i32 @llvm.ctpop.i32(i32 %11) #22
  %13 = trunc i32 %12 to i8
  %14 = and i8 %13, 1
  %15 = xor i8 %14, 1
  %16 = getelementptr inbounds %struct.State, %struct.State* %1, i64 0, i32 2, i32 3
  store i8 %15, i8* %16, align 1
  %17 = xor i64 %3, %2
  %18 = trunc i64 %17 to i32
  %19 = xor i32 %18, %7
  %20 = lshr i32 %19, 4
  %21 = trunc i32 %20 to i8
  %22 = and i8 %21, 1
  %23 = getelementptr inbounds %struct.State, %struct.State* %1, i64 0, i32 2, i32 5
  store i8 %22, i8* %23, align 1
  %24 = icmp eq i32 %7, 0
  %25 = zext i1 %24 to i8
  %26 = getelementptr inbounds %struct.State, %struct.State* %1, i64 0, i32 2, i32 7
  store i8 %25, i8* %26, align 1
  %27 = lshr i32 %7, 31
  %28 = trunc i32 %27 to i8
  %29 = getelementptr inbounds %struct.State, %struct.State* %1, i64 0, i32 2, i32 9
  store i8 %28, i8* %29, align 1
  %30 = lshr i32 %5, 31
  %31 = lshr i32 %6, 31
  %32 = xor i32 %31, %30
  %33 = xor i32 %27, %30
  %34 = add   i32 %33, %32
  %35 = icmp eq i32 %34, 2
  %36 = zext i1 %35 to i8
  %37 = getelementptr inbounds %struct.State, %struct.State* %1, i64 0, i32 2, i32 13
  store i8 %36, i8* %37, align 1
  ret %struct.Memory* %0
}

define %struct.Memory* @routine_cmpl__ecx___eax(%struct.State*  dereferenceable(3376), i64, %struct.Memory* ) #19 alwaysinline {
block_400488:
  %3 = getelementptr inbounds %struct.State, %struct.State* %0, i32 0, i32 6
  %4 = getelementptr inbounds %struct.GPR, %struct.GPR* %3, i32 0, i32 33
  %5 = getelementptr inbounds %struct.Reg, %struct.Reg* %4, i32 0, i32 0
  %PC = bitcast %union.anon* %5 to i64*
  %6 = getelementptr inbounds %struct.State, %struct.State* %0, i32 0, i32 6
  %7 = getelementptr inbounds %struct.GPR, %struct.GPR* %6, i32 0, i32 1
  %8 = getelementptr inbounds %struct.Reg, %struct.Reg* %7, i32 0, i32 0
  %EAX = bitcast %union.anon* %8 to i32*
  %9 = getelementptr inbounds %struct.State, %struct.State* %0, i32 0, i32 6
  %10 = getelementptr inbounds %struct.GPR, %struct.GPR* %9, i32 0, i32 5
  %11 = getelementptr inbounds %struct.Reg, %struct.Reg* %10, i32 0, i32 0
  %ECX = bitcast %union.anon* %11 to i32*
  %12 = load i32, i32* %EAX
  %13 = zext i32 %12 to i64
  %14 = load i32, i32* %ECX
  %15 = zext i32 %14 to i64
  %16 = load i64, i64* %PC
  %17 = add i64 %16, 2
  store i64 %17, i64* %PC
  %18 = call %struct.Memory* @_ZN12_GLOBAL__N_1L3CMPI2RnIjES2_EEP6MemoryS4_R5StateT_T0_(%struct.Memory* %2, %struct.State* %0, i64 %13, i64 %15)
  ret %struct.Memory* %18
}

define internal %struct.Memory* @_ZN12_GLOBAL__N_1L4JNLEEP6MemoryR5State3RnWIhE2InImES7_(%struct.Memory* readnone returned, %struct.State* nocapture dereferenceable(3376), i8* nocapture, i64, i64) #2 alwaysinline {
  %6 = getelementptr inbounds %struct.State, %struct.State* %1, i64 0, i32 2, i32 7
  %7 = load i8, i8* %6, align 1
  %8 = icmp eq i8 %7, 0
  %9 = getelementptr inbounds %struct.State, %struct.State* %1, i64 0, i32 2, i32 9
  %10 = load i8, i8* %9, align 1
  %11 = icmp ne i8 %10, 0
  %12 = getelementptr inbounds %struct.State, %struct.State* %1, i64 0, i32 2, i32 13
  %13 = load i8, i8* %12, align 1
  %14 = icmp ne i8 %13, 0
  %15 = xor i1 %11, %14
  %16 = xor i1 %15, true
  %17 = and i1 %8, %16
  %18 = zext i1 %17 to i8
  store i8 %18, i8* %2, align 1
  %19 = getelementptr inbounds %struct.State, %struct.State* %1, i64 0, i32 6, i32 33, i32 0, i32 0
  %20 = select i1 %17, i64 %3, i64 %4
  store i64 %20, i64* %19, align 8
  ret %struct.Memory* %0
}

define %struct.Memory* @routine_jg_.L_401003(%struct.State*  dereferenceable(3376), i64, %struct.Memory*, i8* %BRANCH_TAKEN, i64 %rel_off1, i64 %rel_off2, i64 %rel_off3) alwaysinline {
block_400488:
  %3 = getelementptr inbounds %struct.State, %struct.State* %0, i32 0, i32 6
  %4 = getelementptr inbounds %struct.GPR, %struct.GPR* %3, i32 0, i32 33
  %5 = getelementptr inbounds %struct.Reg, %struct.Reg* %4, i32 0, i32 0
  %PC = bitcast %union.anon* %5 to i64*
  %6 = load i64, i64* %PC
  %7 = add i64 %6, %rel_off1
  %8 = load i64, i64* %PC
  %9 = add i64 %8, %rel_off2
  %10 = load i64, i64* %PC
  %11 = add i64 %10, %rel_off3
  store i64 %11, i64* %PC
  %12 = call %struct.Memory* @_ZN12_GLOBAL__N_1L4JNLEEP6MemoryR5State3RnWIhE2InImES7_(%struct.Memory* %2, %struct.State* %0, i8* %BRANCH_TAKEN, i64 %7, i64 %9)
  ret %struct.Memory* %12
}




define %struct.Memory* @routine_movslq_MINUS0x3c__rbp____rcx(%struct.State*  dereferenceable(3376), i64, %struct.Memory* ) #19 alwaysinline {
block_400488:
  %3 = getelementptr inbounds %struct.State, %struct.State* %0, i32 0, i32 6
  %4 = getelementptr inbounds %struct.GPR, %struct.GPR* %3, i32 0, i32 33
  %5 = getelementptr inbounds %struct.Reg, %struct.Reg* %4, i32 0, i32 0
  %PC = bitcast %union.anon* %5 to i64*
  %6 = getelementptr inbounds %struct.State, %struct.State* %0, i32 0, i32 6
  %7 = getelementptr inbounds %struct.GPR, %struct.GPR* %6, i32 0, i32 5
  %8 = getelementptr inbounds %struct.Reg, %struct.Reg* %7, i32 0, i32 0
  %RCX = bitcast %union.anon* %8 to i64*
  %9 = getelementptr inbounds %struct.State, %struct.State* %0, i32 0, i32 6
  %10 = getelementptr inbounds %struct.GPR, %struct.GPR* %9, i32 0, i32 15
  %11 = getelementptr inbounds %struct.Reg, %struct.Reg* %10, i32 0, i32 0
  %RBP = bitcast %union.anon* %11 to i64*
  %12 = load i64, i64* %RBP
  %13 = sub i64 %12, 60
  %14 = load i64, i64* %PC
  %15 = add i64 %14, 4
  store i64 %15, i64* %PC
  %16 = call %struct.Memory* @_ZN12_GLOBAL__N_1L5MOVSXI3RnWImE2MnIjElEEP6MemoryS6_R5StateT_T0_(%struct.Memory* %2, %struct.State* %0, i64* %RCX, i64 %13)
  ret %struct.Memory* %16
}

define internal %struct.Memory* @_ZN12_GLOBAL__N_1L4IMULI3RnWImE2RnImE2InImEEEP6MemoryS8_R5StateT_T0_T1_(%struct.Memory* readnone returned, %struct.State* nocapture dereferenceable(3376), i64* nocapture, i64, i64) #0 alwaysinline {
  %6 = sext i64 %3 to i128
  %7 = and i128 %6, -18446744073709551616
  %8 = sext i64 %4 to i128
  %9 = and i128 %8, -18446744073709551616
  %10 = zext i64 %3 to i128
  %11 = or i128 %7, %10
  %12 = zext i64 %4 to i128
  %13 = or i128 %9, %12
  %14 = mul  i128 %13, %11
  %15 = trunc i128 %14 to i64
  store i64 %15, i64* %2, align 8
  %16 = sext i64 %15 to i128
  %17 = icmp ne i128 %16, %14
  %18 = zext i1 %17 to i8
  %19 = getelementptr inbounds %struct.State, %struct.State* %1, i64 0, i32 2, i32 1
  store i8 %18, i8* %19, align 1
  %20 = trunc i128 %14 to i32
  %21 = and i32 %20, 255
  %22 = tail call i32 @llvm.ctpop.i32(i32 %21) #22
  %23 = trunc i32 %22 to i8
  %24 = and i8 %23, 1
  %25 = xor i8 %24, 1
  %26 = getelementptr inbounds %struct.State, %struct.State* %1, i64 0, i32 2, i32 3
  store i8 %25, i8* %26, align 1
  %27 = getelementptr inbounds %struct.State, %struct.State* %1, i64 0, i32 2, i32 5
  store i8 0, i8* %27, align 1
  %28 = getelementptr inbounds %struct.State, %struct.State* %1, i64 0, i32 2, i32 7
  store i8 0, i8* %28, align 1
  %29 = lshr i64 %15, 63
  %30 = trunc i64 %29 to i8
  %31 = getelementptr inbounds %struct.State, %struct.State* %1, i64 0, i32 2, i32 9
  store i8 %30, i8* %31, align 1
  %32 = getelementptr inbounds %struct.State, %struct.State* %1, i64 0, i32 2, i32 13
  store i8 %18, i8* %32, align 1
  ret %struct.Memory* %0
}

define %struct.Memory* @routine_imulq__0x7d00___rcx___rcx(%struct.State*  dereferenceable(3376), i64, %struct.Memory* ) #19 alwaysinline {
block_400488:
  %3 = getelementptr inbounds %struct.State, %struct.State* %0, i32 0, i32 6
  %4 = getelementptr inbounds %struct.GPR, %struct.GPR* %3, i32 0, i32 33
  %5 = getelementptr inbounds %struct.Reg, %struct.Reg* %4, i32 0, i32 0
  %PC = bitcast %union.anon* %5 to i64*
  %6 = getelementptr inbounds %struct.State, %struct.State* %0, i32 0, i32 6
  %7 = getelementptr inbounds %struct.GPR, %struct.GPR* %6, i32 0, i32 5
  %8 = getelementptr inbounds %struct.Reg, %struct.Reg* %7, i32 0, i32 0
  %RCX = bitcast %union.anon* %8 to i64*
  %9 = load i64, i64* %RCX
  %10 = load i64, i64* %PC
  %11 = add i64 %10, 7
  store i64 %11, i64* %PC
  %12 = call %struct.Memory* @_ZN12_GLOBAL__N_1L4IMULI3RnWImE2RnImE2InImEEEP6MemoryS8_R5StateT_T0_T1_(%struct.Memory* %2, %struct.State* %0, i64* %RCX, i64 %9, i64 32000)
  ret %struct.Memory* %12
}

define internal %struct.Memory* @_ZN12_GLOBAL__N_1L3ADDI3RnWImE2RnImES4_EEP6MemoryS6_R5StateT_T0_T1_(%struct.Memory* readnone returned, %struct.State* nocapture dereferenceable(3376), i64* nocapture, i64, i64) #0 alwaysinline {
  %6 = add i64 %4, %3
  store i64 %6, i64* %2, align 8
  %7 = icmp ult i64 %6, %3
  %8 = icmp ult i64 %6, %4
  %9 = or i1 %7, %8
  %10 = zext i1 %9 to i8
  %11 = getelementptr inbounds %struct.State, %struct.State* %1, i64 0, i32 2, i32 1
  store i8 %10, i8* %11, align 1
  %12 = trunc i64 %6 to i32
  %13 = and i32 %12, 255
  %14 = tail call i32 @llvm.ctpop.i32(i32 %13) #22
  %15 = trunc i32 %14 to i8
  %16 = and i8 %15, 1
  %17 = xor i8 %16, 1
  %18 = getelementptr inbounds %struct.State, %struct.State* %1, i64 0, i32 2, i32 3
  store i8 %17, i8* %18, align 1
  %19 = xor i64 %4, %3
  %20 = xor i64 %19, %6
  %21 = lshr i64 %20, 4
  %22 = trunc i64 %21 to i8
  %23 = and i8 %22, 1
  %24 = getelementptr inbounds %struct.State, %struct.State* %1, i64 0, i32 2, i32 5
  store i8 %23, i8* %24, align 1
  %25 = icmp eq i64 %6, 0
  %26 = zext i1 %25 to i8
  %27 = getelementptr inbounds %struct.State, %struct.State* %1, i64 0, i32 2, i32 7
  store i8 %26, i8* %27, align 1
  %28 = lshr i64 %6, 63
  %29 = trunc i64 %28 to i8
  %30 = getelementptr inbounds %struct.State, %struct.State* %1, i64 0, i32 2, i32 9
  store i8 %29, i8* %30, align 1
  %31 = lshr i64 %3, 63
  %32 = lshr i64 %4, 63
  %33 = xor i64 %28, %31
  %34 = xor i64 %28, %32
  %35 = add   i64 %33, %34
  %36 = icmp eq i64 %35, 2
  %37 = zext i1 %36 to i8
  %38 = getelementptr inbounds %struct.State, %struct.State* %1, i64 0, i32 2, i32 13
  store i8 %37, i8* %38, align 1
  ret %struct.Memory* %0
}

define %struct.Memory* @routine_addq__rcx___rax(%struct.State*  dereferenceable(3376), i64, %struct.Memory* ) #19 alwaysinline {
block_400488:
  %3 = getelementptr inbounds %struct.State, %struct.State* %0, i32 0, i32 6
  %4 = getelementptr inbounds %struct.GPR, %struct.GPR* %3, i32 0, i32 33
  %5 = getelementptr inbounds %struct.Reg, %struct.Reg* %4, i32 0, i32 0
  %PC = bitcast %union.anon* %5 to i64*
  %6 = getelementptr inbounds %struct.State, %struct.State* %0, i32 0, i32 6
  %7 = getelementptr inbounds %struct.GPR, %struct.GPR* %6, i32 0, i32 1
  %8 = getelementptr inbounds %struct.Reg, %struct.Reg* %7, i32 0, i32 0
  %RAX = bitcast %union.anon* %8 to i64*
  %9 = getelementptr inbounds %struct.State, %struct.State* %0, i32 0, i32 6
  %10 = getelementptr inbounds %struct.GPR, %struct.GPR* %9, i32 0, i32 5
  %11 = getelementptr inbounds %struct.Reg, %struct.Reg* %10, i32 0, i32 0
  %RCX = bitcast %union.anon* %11 to i64*
  %12 = load i64, i64* %RAX
  %13 = load i64, i64* %RCX
  %14 = load i64, i64* %PC
  %15 = add i64 %14, 3
  store i64 %15, i64* %PC
  %16 = call %struct.Memory* @_ZN12_GLOBAL__N_1L3ADDI3RnWImE2RnImES4_EEP6MemoryS6_R5StateT_T0_T1_(%struct.Memory* %2, %struct.State* %0, i64* %RAX, i64 %12, i64 %13)
  ret %struct.Memory* %16
}


define %struct.Memory* @routine_movslq_MINUS0x40__rbp____rcx(%struct.State*  dereferenceable(3376), i64, %struct.Memory* ) #19 alwaysinline {
block_400488:
  %3 = getelementptr inbounds %struct.State, %struct.State* %0, i32 0, i32 6
  %4 = getelementptr inbounds %struct.GPR, %struct.GPR* %3, i32 0, i32 33
  %5 = getelementptr inbounds %struct.Reg, %struct.Reg* %4, i32 0, i32 0
  %PC = bitcast %union.anon* %5 to i64*
  %6 = getelementptr inbounds %struct.State, %struct.State* %0, i32 0, i32 6
  %7 = getelementptr inbounds %struct.GPR, %struct.GPR* %6, i32 0, i32 5
  %8 = getelementptr inbounds %struct.Reg, %struct.Reg* %7, i32 0, i32 0
  %RCX = bitcast %union.anon* %8 to i64*
  %9 = getelementptr inbounds %struct.State, %struct.State* %0, i32 0, i32 6
  %10 = getelementptr inbounds %struct.GPR, %struct.GPR* %9, i32 0, i32 15
  %11 = getelementptr inbounds %struct.Reg, %struct.Reg* %10, i32 0, i32 0
  %RBP = bitcast %union.anon* %11 to i64*
  %12 = load i64, i64* %RBP
  %13 = sub i64 %12, 64
  %14 = load i64, i64* %PC
  %15 = add i64 %14, 4
  store i64 %15, i64* %PC
  %16 = call %struct.Memory* @_ZN12_GLOBAL__N_1L5MOVSXI3RnWImE2MnIjElEEP6MemoryS6_R5StateT_T0_(%struct.Memory* %2, %struct.State* %0, i64* %RCX, i64 %13)
  ret %struct.Memory* %16
}


define %struct.Memory* @routine_movsd___rax__rcx_8____xmm0(%struct.State*  dereferenceable(3376), i64, %struct.Memory* ) #19 alwaysinline {
block_400488:
  %3 = getelementptr inbounds %struct.State, %struct.State* %0, i32 0, i32 6
  %4 = getelementptr inbounds %struct.GPR, %struct.GPR* %3, i32 0, i32 33
  %5 = getelementptr inbounds %struct.Reg, %struct.Reg* %4, i32 0, i32 0
  %PC = bitcast %union.anon* %5 to i64*
  %6 = getelementptr inbounds %struct.State, %struct.State* %0, i32 0, i32 6
  %7 = getelementptr inbounds %struct.GPR, %struct.GPR* %6, i32 0, i32 1
  %8 = getelementptr inbounds %struct.Reg, %struct.Reg* %7, i32 0, i32 0
  %RAX = bitcast %union.anon* %8 to i64*
  %9 = getelementptr inbounds %struct.State, %struct.State* %0, i32 0, i32 6
  %10 = getelementptr inbounds %struct.GPR, %struct.GPR* %9, i32 0, i32 5
  %11 = getelementptr inbounds %struct.Reg, %struct.Reg* %10, i32 0, i32 0
  %RCX = bitcast %union.anon* %11 to i64*
  %12 = getelementptr inbounds %struct.State, %struct.State* %0, i32 0, i32 1
  %13 = getelementptr inbounds [32 x %union.VectorReg], [32 x %union.VectorReg]* %12, i64 0, i64 0
  %YMM0 = bitcast %union.VectorReg* %13 to %"class.std::bitset"*
  %14 = bitcast %"class.std::bitset"* %YMM0 to i8*
  %15 = load i64, i64* %RAX
  %16 = load i64, i64* %RCX
  %17 = mul i64 %16, 8
  %18 = add i64 %17, %15
  %19 = load i64, i64* %PC
  %20 = add i64 %19, 5
  store i64 %20, i64* %PC
  %21 = call %struct.Memory* @_ZN12_GLOBAL__N_1L9MOVSD_MEMI3VnWI8vec128_tE3MVnI7vec64_tEEEP6MemoryS8_R5StateT_T0_(%struct.Memory* %2, %struct.State* %0, i8* %14, i64 %18)
  ret %struct.Memory* %21
}




define %struct.Memory* @routine_movl_MINUS0x40__rbp____edx(%struct.State*  dereferenceable(3376), i64, %struct.Memory* ) #19 alwaysinline {
block_400488:
  %3 = getelementptr inbounds %struct.State, %struct.State* %0, i32 0, i32 6
  %4 = getelementptr inbounds %struct.GPR, %struct.GPR* %3, i32 0, i32 33
  %5 = getelementptr inbounds %struct.Reg, %struct.Reg* %4, i32 0, i32 0
  %PC = bitcast %union.anon* %5 to i64*
  %6 = getelementptr inbounds %struct.State, %struct.State* %0, i32 0, i32 6
  %7 = getelementptr inbounds %struct.GPR, %struct.GPR* %6, i32 0, i32 7
  %8 = getelementptr inbounds %struct.Reg, %struct.Reg* %7, i32 0, i32 0
  %RDX = bitcast %union.anon* %8 to i64*
  %9 = getelementptr inbounds %struct.State, %struct.State* %0, i32 0, i32 6
  %10 = getelementptr inbounds %struct.GPR, %struct.GPR* %9, i32 0, i32 15
  %11 = getelementptr inbounds %struct.Reg, %struct.Reg* %10, i32 0, i32 0
  %RBP = bitcast %union.anon* %11 to i64*
  %12 = load i64, i64* %RBP
  %13 = sub i64 %12, 64
  %14 = load i64, i64* %PC
  %15 = add i64 %14, 3
  store i64 %15, i64* %PC
  %16 = call %struct.Memory* @_ZN12_GLOBAL__N_1L3MOVI3RnWImE2MnIjEEEP6MemoryS6_R5StateT_T0_(%struct.Memory* %2, %struct.State* %0, i64* %RDX, i64 %13)
  ret %struct.Memory* %16
}

define internal %struct.Memory* @_ZN12_GLOBAL__N_1L3SUBI3RnWImE2RnIjE2MnIjEEEP6MemoryS8_R5StateT_T0_T1_(%struct.Memory*, %struct.State* nocapture dereferenceable(3376), i64* nocapture, i64, i64) #0 alwaysinline {
  %6 = trunc i64 %3 to i32
  %7 = inttoptr i64 %4 to i32*
  %8 = load i32, i32* %7
  %9 = sub i32 %6, %8
  %10 = zext i32 %9 to i64
  store i64 %10, i64* %2, align 8
  %11 = icmp ult i32 %6, %8
  %12 = zext i1 %11 to i8
  %13 = getelementptr inbounds %struct.State, %struct.State* %1, i64 0, i32 2, i32 1
  store i8 %12, i8* %13, align 1
  %14 = and i32 %9, 255
  %15 = tail call i32 @llvm.ctpop.i32(i32 %14) #22
  %16 = trunc i32 %15 to i8
  %17 = and i8 %16, 1
  %18 = xor i8 %17, 1
  %19 = getelementptr inbounds %struct.State, %struct.State* %1, i64 0, i32 2, i32 3
  store i8 %18, i8* %19, align 1
  %20 = xor i32 %8, %6
  %21 = xor i32 %20, %9
  %22 = lshr i32 %21, 4
  %23 = trunc i32 %22 to i8
  %24 = and i8 %23, 1
  %25 = getelementptr inbounds %struct.State, %struct.State* %1, i64 0, i32 2, i32 5
  store i8 %24, i8* %25, align 1
  %26 = icmp eq i32 %9, 0
  %27 = zext i1 %26 to i8
  %28 = getelementptr inbounds %struct.State, %struct.State* %1, i64 0, i32 2, i32 7
  store i8 %27, i8* %28, align 1
  %29 = lshr i32 %9, 31
  %30 = trunc i32 %29 to i8
  %31 = getelementptr inbounds %struct.State, %struct.State* %1, i64 0, i32 2, i32 9
  store i8 %30, i8* %31, align 1
  %32 = lshr i32 %6, 31
  %33 = lshr i32 %8, 31
  %34 = xor i32 %33, %32
  %35 = xor i32 %29, %32
  %36 = add   i32 %35, %34
  %37 = icmp eq i32 %36, 2
  %38 = zext i1 %37 to i8
  %39 = getelementptr inbounds %struct.State, %struct.State* %1, i64 0, i32 2, i32 13
  store i8 %38, i8* %39, align 1
  ret %struct.Memory* %0
}

define %struct.Memory* @routine_subl_MINUS0x3c__rbp____edx(%struct.State*  dereferenceable(3376), i64, %struct.Memory* ) #19 alwaysinline {
block_400488:
  %3 = getelementptr inbounds %struct.State, %struct.State* %0, i32 0, i32 6
  %4 = getelementptr inbounds %struct.GPR, %struct.GPR* %3, i32 0, i32 33
  %5 = getelementptr inbounds %struct.Reg, %struct.Reg* %4, i32 0, i32 0
  %PC = bitcast %union.anon* %5 to i64*
  %6 = getelementptr inbounds %struct.State, %struct.State* %0, i32 0, i32 6
  %7 = getelementptr inbounds %struct.GPR, %struct.GPR* %6, i32 0, i32 7
  %8 = getelementptr inbounds %struct.Reg, %struct.Reg* %7, i32 0, i32 0
  %RDX = bitcast %union.anon* %8 to i64*
  %9 = getelementptr inbounds %struct.State, %struct.State* %0, i32 0, i32 6
  %10 = getelementptr inbounds %struct.GPR, %struct.GPR* %9, i32 0, i32 15
  %11 = getelementptr inbounds %struct.Reg, %struct.Reg* %10, i32 0, i32 0
  %RBP = bitcast %union.anon* %11 to i64*
  %12 = load i64, i64* %RDX
  %13 = load i64, i64* %RBP
  %14 = sub i64 %13, 60
  %15 = load i64, i64* %PC
  %16 = add i64 %15, 3
  store i64 %16, i64* %PC
  %17 = call %struct.Memory* @_ZN12_GLOBAL__N_1L3SUBI3RnWImE2RnIjE2MnIjEEEP6MemoryS8_R5StateT_T0_T1_(%struct.Memory* %2, %struct.State* %0, i64* %RDX, i64 %12, i64 %14)
  ret %struct.Memory* %17
}


define %struct.Memory* @routine_subl__0x1___edx(%struct.State*  dereferenceable(3376), i64, %struct.Memory* ) #19 alwaysinline {
block_400488:
  %3 = getelementptr inbounds %struct.State, %struct.State* %0, i32 0, i32 6
  %4 = getelementptr inbounds %struct.GPR, %struct.GPR* %3, i32 0, i32 33
  %5 = getelementptr inbounds %struct.Reg, %struct.Reg* %4, i32 0, i32 0
  %PC = bitcast %union.anon* %5 to i64*
  %6 = getelementptr inbounds %struct.State, %struct.State* %0, i32 0, i32 6
  %7 = getelementptr inbounds %struct.GPR, %struct.GPR* %6, i32 0, i32 7
  %8 = getelementptr inbounds %struct.Reg, %struct.Reg* %7, i32 0, i32 0
  %RDX = bitcast %union.anon* %8 to i64*
  %9 = load i64, i64* %RDX
  %10 = load i64, i64* %PC
  %11 = add i64 %10, 3
  store i64 %11, i64* %PC
  %12 = call %struct.Memory* @_ZN12_GLOBAL__N_1L3SUBI3RnWImE2RnIjE2InIjEEEP6MemoryS8_R5StateT_T0_T1_(%struct.Memory* %2, %struct.State* %0, i64* %RDX, i64 %9, i64 1)
  ret %struct.Memory* %12
}


define %struct.Memory* @routine_movslq__edx___rcx(%struct.State*  dereferenceable(3376), i64, %struct.Memory* ) #19 alwaysinline {
block_400488:
  %3 = getelementptr inbounds %struct.State, %struct.State* %0, i32 0, i32 6
  %4 = getelementptr inbounds %struct.GPR, %struct.GPR* %3, i32 0, i32 33
  %5 = getelementptr inbounds %struct.Reg, %struct.Reg* %4, i32 0, i32 0
  %PC = bitcast %union.anon* %5 to i64*
  %6 = getelementptr inbounds %struct.State, %struct.State* %0, i32 0, i32 6
  %7 = getelementptr inbounds %struct.GPR, %struct.GPR* %6, i32 0, i32 7
  %8 = getelementptr inbounds %struct.Reg, %struct.Reg* %7, i32 0, i32 0
  %EDX = bitcast %union.anon* %8 to i32*
  %9 = getelementptr inbounds %struct.State, %struct.State* %0, i32 0, i32 6
  %10 = getelementptr inbounds %struct.GPR, %struct.GPR* %9, i32 0, i32 5
  %11 = getelementptr inbounds %struct.Reg, %struct.Reg* %10, i32 0, i32 0
  %RCX = bitcast %union.anon* %11 to i64*
  %12 = load i32, i32* %EDX
  %13 = zext i32 %12 to i64
  %14 = load i64, i64* %PC
  %15 = add i64 %14, 3
  store i64 %15, i64* %PC
  %16 = call %struct.Memory* @_ZN12_GLOBAL__N_1L5MOVSXI3RnWImE2RnIjElEEP6MemoryS6_R5StateT_T0_(%struct.Memory* %2, %struct.State* %0, i64* %RCX, i64 %13)
  ret %struct.Memory* %16
}


define %struct.Memory* @routine_movsd___rax__rcx_8____xmm1(%struct.State*  dereferenceable(3376), i64, %struct.Memory* ) #19 alwaysinline {
block_400488:
  %3 = getelementptr inbounds %struct.State, %struct.State* %0, i32 0, i32 6
  %4 = getelementptr inbounds %struct.GPR, %struct.GPR* %3, i32 0, i32 33
  %5 = getelementptr inbounds %struct.Reg, %struct.Reg* %4, i32 0, i32 0
  %PC = bitcast %union.anon* %5 to i64*
  %6 = getelementptr inbounds %struct.State, %struct.State* %0, i32 0, i32 6
  %7 = getelementptr inbounds %struct.GPR, %struct.GPR* %6, i32 0, i32 1
  %8 = getelementptr inbounds %struct.Reg, %struct.Reg* %7, i32 0, i32 0
  %RAX = bitcast %union.anon* %8 to i64*
  %9 = getelementptr inbounds %struct.State, %struct.State* %0, i32 0, i32 6
  %10 = getelementptr inbounds %struct.GPR, %struct.GPR* %9, i32 0, i32 5
  %11 = getelementptr inbounds %struct.Reg, %struct.Reg* %10, i32 0, i32 0
  %RCX = bitcast %union.anon* %11 to i64*
  %12 = getelementptr inbounds %struct.State, %struct.State* %0, i32 0, i32 1
  %13 = getelementptr inbounds [32 x %union.VectorReg], [32 x %union.VectorReg]* %12, i64 0, i64 1
  %YMM1 = bitcast %union.VectorReg* %13 to %"class.std::bitset"*
  %14 = bitcast %"class.std::bitset"* %YMM1 to i8*
  %15 = load i64, i64* %RAX
  %16 = load i64, i64* %RCX
  %17 = mul i64 %16, 8
  %18 = add i64 %17, %15
  %19 = load i64, i64* %PC
  %20 = add i64 %19, 5
  store i64 %20, i64* %PC
  %21 = call %struct.Memory* @_ZN12_GLOBAL__N_1L9MOVSD_MEMI3VnWI8vec128_tE3MVnI7vec64_tEEEP6MemoryS8_R5StateT_T0_(%struct.Memory* %2, %struct.State* %0, i8* %14, i64 %18)
  ret %struct.Memory* %21
}
















define %struct.Memory* @routine_mulsd___rax__rcx_8____xmm1(%struct.State*  dereferenceable(3376), i64, %struct.Memory* ) #19 alwaysinline {
block_400488:
  %3 = getelementptr inbounds %struct.State, %struct.State* %0, i32 0, i32 6
  %4 = getelementptr inbounds %struct.GPR, %struct.GPR* %3, i32 0, i32 33
  %5 = getelementptr inbounds %struct.Reg, %struct.Reg* %4, i32 0, i32 0
  %PC = bitcast %union.anon* %5 to i64*
  %6 = getelementptr inbounds %struct.State, %struct.State* %0, i32 0, i32 6
  %7 = getelementptr inbounds %struct.GPR, %struct.GPR* %6, i32 0, i32 1
  %8 = getelementptr inbounds %struct.Reg, %struct.Reg* %7, i32 0, i32 0
  %RAX = bitcast %union.anon* %8 to i64*
  %9 = getelementptr inbounds %struct.State, %struct.State* %0, i32 0, i32 6
  %10 = getelementptr inbounds %struct.GPR, %struct.GPR* %9, i32 0, i32 5
  %11 = getelementptr inbounds %struct.Reg, %struct.Reg* %10, i32 0, i32 0
  %RCX = bitcast %union.anon* %11 to i64*
  %12 = getelementptr inbounds %struct.State, %struct.State* %0, i32 0, i32 1
  %13 = getelementptr inbounds [32 x %union.VectorReg], [32 x %union.VectorReg]* %12, i64 0, i64 1
  %YMM1 = bitcast %union.VectorReg* %13 to %"class.std::bitset"*
  %14 = bitcast %"class.std::bitset"* %YMM1 to i8*
  %15 = bitcast %"class.std::bitset"* %YMM1 to i8*
  %16 = load i64, i64* %RAX
  %17 = load i64, i64* %RCX
  %18 = mul i64 %17, 8
  %19 = add i64 %18, %16
  %20 = load i64, i64* %PC
  %21 = add i64 %20, 5
  store i64 %21, i64* %PC
  %22 = call %struct.Memory* @_ZN12_GLOBAL__N_1L5MULSDI3VnWI8vec128_tE2VnIS2_E3MVnIS2_EEEP6MemoryS9_R5StateT_T0_T1_(%struct.Memory* %2, %struct.State* %0, i8* %14, i8* %15, i64 %19)
  ret %struct.Memory* %22
}

define internal %struct.Memory* @_ZN12_GLOBAL__N_1L5ADDSDI3VnWI8vec128_tE2VnIS2_ES5_EEP6MemoryS7_R5StateT_T0_T1_(%struct.Memory* readnone returned, %struct.State* nocapture readnone dereferenceable(3376), i8* nocapture, i8* nocapture readonly, i8* nocapture readonly) #0 alwaysinline {
  %6 = bitcast i8* %3 to double*
  %7 = load double, double* %6, align 1
  %8 = getelementptr inbounds i8, i8* %3, i64 8
  %9 = bitcast i8* %8 to i64*
  %10 = load i64, i64* %9, align 1
  %11 = bitcast i8* %4 to double*
  %12 = load double, double* %11, align 1
  %13 = fadd double %7, %12
  %14 = bitcast i8* %2 to double*
  store double %13, double* %14, align 1
  %15 = getelementptr inbounds i8, i8* %2, i64 8
  %16 = bitcast i8* %15 to i64*
  store i64 %10, i64* %16, align 1
  ret %struct.Memory* %0
}

define %struct.Memory* @routine_addsd__xmm1___xmm0(%struct.State*  dereferenceable(3376), i64, %struct.Memory* ) #19 alwaysinline {
block_400488:
  %3 = getelementptr inbounds %struct.State, %struct.State* %0, i32 0, i32 6
  %4 = getelementptr inbounds %struct.GPR, %struct.GPR* %3, i32 0, i32 33
  %5 = getelementptr inbounds %struct.Reg, %struct.Reg* %4, i32 0, i32 0
  %PC = bitcast %union.anon* %5 to i64*
  %6 = getelementptr inbounds %struct.State, %struct.State* %0, i32 0, i32 1
  %7 = getelementptr inbounds [32 x %union.VectorReg], [32 x %union.VectorReg]* %6, i64 0, i64 0
  %YMM0 = bitcast %union.VectorReg* %7 to %"class.std::bitset"*
  %8 = getelementptr inbounds %struct.State, %struct.State* %0, i32 0, i32 1
  %9 = getelementptr inbounds [32 x %union.VectorReg], [32 x %union.VectorReg]* %8, i64 0, i64 1
  %XMM1 = bitcast %union.VectorReg* %9 to %union.vec128_t*
  %10 = bitcast %"class.std::bitset"* %YMM0 to i8*
  %11 = bitcast %"class.std::bitset"* %YMM0 to i8*
  %12 = bitcast %union.vec128_t* %XMM1 to i8*
  %13 = load i64, i64* %PC
  %14 = add i64 %13, 4
  store i64 %14, i64* %PC
  %15 = call %struct.Memory* @_ZN12_GLOBAL__N_1L5ADDSDI3VnWI8vec128_tE2VnIS2_ES5_EEP6MemoryS7_R5StateT_T0_T1_(%struct.Memory* %2, %struct.State* %0, i8* %10, i8* %11, i8* %12)
  ret %struct.Memory* %15
}




define %struct.Memory* @routine_movl_MINUS0x3c__rbp____edx(%struct.State*  dereferenceable(3376), i64, %struct.Memory* ) #19 alwaysinline {
block_400488:
  %3 = getelementptr inbounds %struct.State, %struct.State* %0, i32 0, i32 6
  %4 = getelementptr inbounds %struct.GPR, %struct.GPR* %3, i32 0, i32 33
  %5 = getelementptr inbounds %struct.Reg, %struct.Reg* %4, i32 0, i32 0
  %PC = bitcast %union.anon* %5 to i64*
  %6 = getelementptr inbounds %struct.State, %struct.State* %0, i32 0, i32 6
  %7 = getelementptr inbounds %struct.GPR, %struct.GPR* %6, i32 0, i32 7
  %8 = getelementptr inbounds %struct.Reg, %struct.Reg* %7, i32 0, i32 0
  %RDX = bitcast %union.anon* %8 to i64*
  %9 = getelementptr inbounds %struct.State, %struct.State* %0, i32 0, i32 6
  %10 = getelementptr inbounds %struct.GPR, %struct.GPR* %9, i32 0, i32 15
  %11 = getelementptr inbounds %struct.Reg, %struct.Reg* %10, i32 0, i32 0
  %RBP = bitcast %union.anon* %11 to i64*
  %12 = load i64, i64* %RBP
  %13 = sub i64 %12, 60
  %14 = load i64, i64* %PC
  %15 = add i64 %14, 3
  store i64 %15, i64* %PC
  %16 = call %struct.Memory* @_ZN12_GLOBAL__N_1L3MOVI3RnWImE2MnIjEEEP6MemoryS6_R5StateT_T0_(%struct.Memory* %2, %struct.State* %0, i64* %RDX, i64 %13)
  ret %struct.Memory* %16
}

define internal %struct.Memory* @_ZN12_GLOBAL__N_1L3ADDI3RnWImE2RnIjE2InIjEEEP6MemoryS8_R5StateT_T0_T1_(%struct.Memory* readnone returned, %struct.State* nocapture dereferenceable(3376), i64* nocapture, i64, i64) #0 alwaysinline {
  %6 = trunc i64 %3 to i32
  %7 = trunc i64 %4 to i32
  %8 = add i32 %7, %6
  %9 = zext i32 %8 to i64
  store i64 %9, i64* %2, align 8
  %10 = icmp ult i32 %8, %6
  %11 = icmp ult i32 %8, %7
  %12 = or i1 %10, %11
  %13 = zext i1 %12 to i8
  %14 = getelementptr inbounds %struct.State, %struct.State* %1, i64 0, i32 2, i32 1
  store i8 %13, i8* %14, align 1
  %15 = and i32 %8, 255
  %16 = tail call i32 @llvm.ctpop.i32(i32 %15) #22
  %17 = trunc i32 %16 to i8
  %18 = and i8 %17, 1
  %19 = xor i8 %18, 1
  %20 = getelementptr inbounds %struct.State, %struct.State* %1, i64 0, i32 2, i32 3
  store i8 %19, i8* %20, align 1
  %21 = xor i64 %4, %3
  %22 = trunc i64 %21 to i32
  %23 = xor i32 %22, %8
  %24 = lshr i32 %23, 4
  %25 = trunc i32 %24 to i8
  %26 = and i8 %25, 1
  %27 = getelementptr inbounds %struct.State, %struct.State* %1, i64 0, i32 2, i32 5
  store i8 %26, i8* %27, align 1
  %28 = icmp eq i32 %8, 0
  %29 = zext i1 %28 to i8
  %30 = getelementptr inbounds %struct.State, %struct.State* %1, i64 0, i32 2, i32 7
  store i8 %29, i8* %30, align 1
  %31 = lshr i32 %8, 31
  %32 = trunc i32 %31 to i8
  %33 = getelementptr inbounds %struct.State, %struct.State* %1, i64 0, i32 2, i32 9
  store i8 %32, i8* %33, align 1
  %34 = lshr i32 %6, 31
  %35 = lshr i32 %7, 31
  %36 = xor i32 %31, %34
  %37 = xor i32 %31, %35
  %38 = add   i32 %36, %37
  %39 = icmp eq i32 %38, 2
  %40 = zext i1 %39 to i8
  %41 = getelementptr inbounds %struct.State, %struct.State* %1, i64 0, i32 2, i32 13
  store i8 %40, i8* %41, align 1
  ret %struct.Memory* %0
}

define %struct.Memory* @routine_addl__0x1___edx(%struct.State*  dereferenceable(3376), i64, %struct.Memory* ) #19 alwaysinline {
block_400488:
  %3 = getelementptr inbounds %struct.State, %struct.State* %0, i32 0, i32 6
  %4 = getelementptr inbounds %struct.GPR, %struct.GPR* %3, i32 0, i32 33
  %5 = getelementptr inbounds %struct.Reg, %struct.Reg* %4, i32 0, i32 0
  %PC = bitcast %union.anon* %5 to i64*
  %6 = getelementptr inbounds %struct.State, %struct.State* %0, i32 0, i32 6
  %7 = getelementptr inbounds %struct.GPR, %struct.GPR* %6, i32 0, i32 7
  %8 = getelementptr inbounds %struct.Reg, %struct.Reg* %7, i32 0, i32 0
  %RDX = bitcast %union.anon* %8 to i64*
  %9 = load i64, i64* %RDX
  %10 = load i64, i64* %PC
  %11 = add i64 %10, 3
  store i64 %11, i64* %PC
  %12 = call %struct.Memory* @_ZN12_GLOBAL__N_1L3ADDI3RnWImE2RnIjE2InIjEEEP6MemoryS8_R5StateT_T0_T1_(%struct.Memory* %2, %struct.State* %0, i64* %RDX, i64 %9, i64 1)
  ret %struct.Memory* %12
}










define %struct.Memory* @routine_movsd__xmm0____rax__rcx_8_(%struct.State*  dereferenceable(3376), i64, %struct.Memory* ) #19 alwaysinline {
block_400488:
  %3 = getelementptr inbounds %struct.State, %struct.State* %0, i32 0, i32 6
  %4 = getelementptr inbounds %struct.GPR, %struct.GPR* %3, i32 0, i32 33
  %5 = getelementptr inbounds %struct.Reg, %struct.Reg* %4, i32 0, i32 0
  %PC = bitcast %union.anon* %5 to i64*
  %6 = getelementptr inbounds %struct.State, %struct.State* %0, i32 0, i32 6
  %7 = getelementptr inbounds %struct.GPR, %struct.GPR* %6, i32 0, i32 1
  %8 = getelementptr inbounds %struct.Reg, %struct.Reg* %7, i32 0, i32 0
  %RAX = bitcast %union.anon* %8 to i64*
  %9 = getelementptr inbounds %struct.State, %struct.State* %0, i32 0, i32 6
  %10 = getelementptr inbounds %struct.GPR, %struct.GPR* %9, i32 0, i32 5
  %11 = getelementptr inbounds %struct.Reg, %struct.Reg* %10, i32 0, i32 0
  %RCX = bitcast %union.anon* %11 to i64*
  %12 = getelementptr inbounds %struct.State, %struct.State* %0, i32 0, i32 1
  %13 = getelementptr inbounds [32 x %union.VectorReg], [32 x %union.VectorReg]* %12, i64 0, i64 0
  %XMM0 = bitcast %union.VectorReg* %13 to %union.vec128_t*
  %14 = load i64, i64* %RAX
  %15 = load i64, i64* %RCX
  %16 = mul i64 %15, 8
  %17 = add i64 %16, %14
  %18 = bitcast %union.vec128_t* %XMM0 to i8*
  %19 = load i64, i64* %PC
  %20 = add i64 %19, 5
  store i64 %20, i64* %PC
  %21 = call %struct.Memory* @_ZN12_GLOBAL__N_1L9MOVSD_MEMI4MVnWI7vec64_tE2VnI8vec128_tEEEP6MemoryS8_R5StateT_T0_(%struct.Memory* %2, %struct.State* %0, i64 %17, i8* %18)
  ret %struct.Memory* %21
}




define %struct.Memory* @routine_addl__0x1___eax(%struct.State*  dereferenceable(3376), i64, %struct.Memory* ) #19 alwaysinline {
block_400488:
  %3 = getelementptr inbounds %struct.State, %struct.State* %0, i32 0, i32 6
  %4 = getelementptr inbounds %struct.GPR, %struct.GPR* %3, i32 0, i32 33
  %5 = getelementptr inbounds %struct.Reg, %struct.Reg* %4, i32 0, i32 0
  %PC = bitcast %union.anon* %5 to i64*
  %6 = getelementptr inbounds %struct.State, %struct.State* %0, i32 0, i32 6
  %7 = getelementptr inbounds %struct.GPR, %struct.GPR* %6, i32 0, i32 1
  %8 = getelementptr inbounds %struct.Reg, %struct.Reg* %7, i32 0, i32 0
  %RAX = bitcast %union.anon* %8 to i64*
  %9 = load i64, i64* %RAX
  %10 = load i64, i64* %PC
  %11 = add i64 %10, 3
  store i64 %11, i64* %PC
  %12 = call %struct.Memory* @_ZN12_GLOBAL__N_1L3ADDI3RnWImE2RnIjE2InIjEEEP6MemoryS8_R5StateT_T0_T1_(%struct.Memory* %2, %struct.State* %0, i64* %RAX, i64 %9, i64 1)
  ret %struct.Memory* %12
}


define %struct.Memory* @routine_movl__eax__MINUS0x3c__rbp_(%struct.State*  dereferenceable(3376), i64, %struct.Memory* ) #19 alwaysinline {
block_400488:
  %3 = getelementptr inbounds %struct.State, %struct.State* %0, i32 0, i32 6
  %4 = getelementptr inbounds %struct.GPR, %struct.GPR* %3, i32 0, i32 33
  %5 = getelementptr inbounds %struct.Reg, %struct.Reg* %4, i32 0, i32 0
  %PC = bitcast %union.anon* %5 to i64*
  %6 = getelementptr inbounds %struct.State, %struct.State* %0, i32 0, i32 6
  %7 = getelementptr inbounds %struct.GPR, %struct.GPR* %6, i32 0, i32 1
  %8 = getelementptr inbounds %struct.Reg, %struct.Reg* %7, i32 0, i32 0
  %EAX = bitcast %union.anon* %8 to i32*
  %9 = getelementptr inbounds %struct.State, %struct.State* %0, i32 0, i32 6
  %10 = getelementptr inbounds %struct.GPR, %struct.GPR* %9, i32 0, i32 15
  %11 = getelementptr inbounds %struct.Reg, %struct.Reg* %10, i32 0, i32 0
  %RBP = bitcast %union.anon* %11 to i64*
  %12 = load i64, i64* %RBP
  %13 = sub i64 %12, 60
  %14 = load i32, i32* %EAX
  %15 = zext i32 %14 to i64
  %16 = load i64, i64* %PC
  %17 = add i64 %16, 3
  store i64 %17, i64* %PC
  %18 = call %struct.Memory* @_ZN12_GLOBAL__N_1L3MOVI3MnWIjE2RnIjEEEP6MemoryS6_R5StateT_T0_(%struct.Memory* %2, %struct.State* %0, i64 %13, i64 %15)
  ret %struct.Memory* %18
}

define internal %struct.Memory* @_ZN12_GLOBAL__N_1L3JMPI2InImEEEP6MemoryS4_R5StateT_(%struct.Memory* readnone returned, %struct.State* nocapture dereferenceable(3376), i64) #2 alwaysinline {
  %4 = getelementptr inbounds %struct.State, %struct.State* %1, i64 0, i32 6, i32 33, i32 0, i32 0
  store i64 %2, i64* %4, align 8
  ret %struct.Memory* %0
}

define %struct.Memory* @routine_jmpq_.L_400f70(%struct.State*  dereferenceable(3376), i64, %struct.Memory*, i64 %rel_off1, i64 %rel_off2) alwaysinline {
block_400488:
  %3 = getelementptr inbounds %struct.State, %struct.State* %0, i32 0, i32 6
  %4 = getelementptr inbounds %struct.GPR, %struct.GPR* %3, i32 0, i32 33
  %5 = getelementptr inbounds %struct.Reg, %struct.Reg* %4, i32 0, i32 0
  %PC = bitcast %union.anon* %5 to i64*
  %6 = load i64, i64* %PC
  %7 = add i64 %6, %rel_off1
  %8 = load i64, i64* %PC
  %9 = add i64 %8, %rel_off2
  store i64 %9, i64* %PC
  %10 = call %struct.Memory* @_ZN12_GLOBAL__N_1L3JMPI2InImEEEP6MemoryS4_R5StateT_(%struct.Memory* %2, %struct.State* %0, i64 %7)
  ret %struct.Memory* %10
}

define internal %struct.Memory* @_ZN12_GLOBAL__N_1L3MOVI3RnWImE2InImEEEP6MemoryS6_R5StateT_T0_(%struct.Memory* readnone returned, %struct.State* nocapture readnone dereferenceable(3376), i64* nocapture, i64) #2 alwaysinline {
  store i64 %3, i64* %2, align 8
  ret %struct.Memory* %0
}

define %struct.Memory* @routine_movq__0x8000000000000000___rax(%struct.State*  dereferenceable(3376), i64, %struct.Memory* ) #19 alwaysinline {
block_400488:
  %3 = getelementptr inbounds %struct.State, %struct.State* %0, i32 0, i32 6
  %4 = getelementptr inbounds %struct.GPR, %struct.GPR* %3, i32 0, i32 33
  %5 = getelementptr inbounds %struct.Reg, %struct.Reg* %4, i32 0, i32 0
  %PC = bitcast %union.anon* %5 to i64*
  %6 = getelementptr inbounds %struct.State, %struct.State* %0, i32 0, i32 6
  %7 = getelementptr inbounds %struct.GPR, %struct.GPR* %6, i32 0, i32 1
  %8 = getelementptr inbounds %struct.Reg, %struct.Reg* %7, i32 0, i32 0
  %RAX = bitcast %union.anon* %8 to i64*
  %9 = load i64, i64* %PC
  %10 = add i64 %9, 10
  store i64 %10, i64* %PC
  %11 = call %struct.Memory* @_ZN12_GLOBAL__N_1L3MOVI3RnWImE2InImEEEP6MemoryS6_R5StateT_T0_(%struct.Memory* %2, %struct.State* %0, i64* %RAX, i64 -9223372036854775808)
  ret %struct.Memory* %11
}


define %struct.Memory* @routine_movq_MINUS0x18__rbp____rcx(%struct.State*  dereferenceable(3376), i64, %struct.Memory* ) #19 alwaysinline {
block_400488:
  %3 = getelementptr inbounds %struct.State, %struct.State* %0, i32 0, i32 6
  %4 = getelementptr inbounds %struct.GPR, %struct.GPR* %3, i32 0, i32 33
  %5 = getelementptr inbounds %struct.Reg, %struct.Reg* %4, i32 0, i32 0
  %PC = bitcast %union.anon* %5 to i64*
  %6 = getelementptr inbounds %struct.State, %struct.State* %0, i32 0, i32 6
  %7 = getelementptr inbounds %struct.GPR, %struct.GPR* %6, i32 0, i32 5
  %8 = getelementptr inbounds %struct.Reg, %struct.Reg* %7, i32 0, i32 0
  %RCX = bitcast %union.anon* %8 to i64*
  %9 = getelementptr inbounds %struct.State, %struct.State* %0, i32 0, i32 6
  %10 = getelementptr inbounds %struct.GPR, %struct.GPR* %9, i32 0, i32 15
  %11 = getelementptr inbounds %struct.Reg, %struct.Reg* %10, i32 0, i32 0
  %RBP = bitcast %union.anon* %11 to i64*
  %12 = load i64, i64* %RBP
  %13 = sub i64 %12, 24
  %14 = load i64, i64* %PC
  %15 = add i64 %14, 4
  store i64 %15, i64* %PC
  %16 = call %struct.Memory* @_ZN12_GLOBAL__N_1L3MOVI3RnWImE2MnImEEEP6MemoryS6_R5StateT_T0_(%struct.Memory* %2, %struct.State* %0, i64* %RCX, i64 %13)
  ret %struct.Memory* %16
}




define %struct.Memory* @routine_imulq__0x7d00___rdx___rdx(%struct.State*  dereferenceable(3376), i64, %struct.Memory* ) #19 alwaysinline {
block_400488:
  %3 = getelementptr inbounds %struct.State, %struct.State* %0, i32 0, i32 6
  %4 = getelementptr inbounds %struct.GPR, %struct.GPR* %3, i32 0, i32 33
  %5 = getelementptr inbounds %struct.Reg, %struct.Reg* %4, i32 0, i32 0
  %PC = bitcast %union.anon* %5 to i64*
  %6 = getelementptr inbounds %struct.State, %struct.State* %0, i32 0, i32 6
  %7 = getelementptr inbounds %struct.GPR, %struct.GPR* %6, i32 0, i32 7
  %8 = getelementptr inbounds %struct.Reg, %struct.Reg* %7, i32 0, i32 0
  %RDX = bitcast %union.anon* %8 to i64*
  %9 = load i64, i64* %RDX
  %10 = load i64, i64* %PC
  %11 = add i64 %10, 7
  store i64 %11, i64* %PC
  %12 = call %struct.Memory* @_ZN12_GLOBAL__N_1L4IMULI3RnWImE2RnImE2InImEEEP6MemoryS8_R5StateT_T0_T1_(%struct.Memory* %2, %struct.State* %0, i64* %RDX, i64 %9, i64 32000)
  ret %struct.Memory* %12
}


define %struct.Memory* @routine_addq__rdx___rcx(%struct.State*  dereferenceable(3376), i64, %struct.Memory* ) #19 alwaysinline {
block_400488:
  %3 = getelementptr inbounds %struct.State, %struct.State* %0, i32 0, i32 6
  %4 = getelementptr inbounds %struct.GPR, %struct.GPR* %3, i32 0, i32 33
  %5 = getelementptr inbounds %struct.Reg, %struct.Reg* %4, i32 0, i32 0
  %PC = bitcast %union.anon* %5 to i64*
  %6 = getelementptr inbounds %struct.State, %struct.State* %0, i32 0, i32 6
  %7 = getelementptr inbounds %struct.GPR, %struct.GPR* %6, i32 0, i32 5
  %8 = getelementptr inbounds %struct.Reg, %struct.Reg* %7, i32 0, i32 0
  %RCX = bitcast %union.anon* %8 to i64*
  %9 = getelementptr inbounds %struct.State, %struct.State* %0, i32 0, i32 6
  %10 = getelementptr inbounds %struct.GPR, %struct.GPR* %9, i32 0, i32 7
  %11 = getelementptr inbounds %struct.Reg, %struct.Reg* %10, i32 0, i32 0
  %RDX = bitcast %union.anon* %11 to i64*
  %12 = load i64, i64* %RCX
  %13 = load i64, i64* %RDX
  %14 = load i64, i64* %PC
  %15 = add i64 %14, 3
  store i64 %15, i64* %PC
  %16 = call %struct.Memory* @_ZN12_GLOBAL__N_1L3ADDI3RnWImE2RnImES4_EEP6MemoryS6_R5StateT_T0_T1_(%struct.Memory* %2, %struct.State* %0, i64* %RCX, i64 %12, i64 %13)
  ret %struct.Memory* %16
}




define %struct.Memory* @routine_movsd___rcx__rdx_8____xmm0(%struct.State*  dereferenceable(3376), i64, %struct.Memory* ) #19 alwaysinline {
block_400488:
  %3 = getelementptr inbounds %struct.State, %struct.State* %0, i32 0, i32 6
  %4 = getelementptr inbounds %struct.GPR, %struct.GPR* %3, i32 0, i32 33
  %5 = getelementptr inbounds %struct.Reg, %struct.Reg* %4, i32 0, i32 0
  %PC = bitcast %union.anon* %5 to i64*
  %6 = getelementptr inbounds %struct.State, %struct.State* %0, i32 0, i32 6
  %7 = getelementptr inbounds %struct.GPR, %struct.GPR* %6, i32 0, i32 5
  %8 = getelementptr inbounds %struct.Reg, %struct.Reg* %7, i32 0, i32 0
  %RCX = bitcast %union.anon* %8 to i64*
  %9 = getelementptr inbounds %struct.State, %struct.State* %0, i32 0, i32 6
  %10 = getelementptr inbounds %struct.GPR, %struct.GPR* %9, i32 0, i32 7
  %11 = getelementptr inbounds %struct.Reg, %struct.Reg* %10, i32 0, i32 0
  %RDX = bitcast %union.anon* %11 to i64*
  %12 = getelementptr inbounds %struct.State, %struct.State* %0, i32 0, i32 1
  %13 = getelementptr inbounds [32 x %union.VectorReg], [32 x %union.VectorReg]* %12, i64 0, i64 0
  %YMM0 = bitcast %union.VectorReg* %13 to %"class.std::bitset"*
  %14 = bitcast %"class.std::bitset"* %YMM0 to i8*
  %15 = load i64, i64* %RCX
  %16 = load i64, i64* %RDX
  %17 = mul i64 %16, 8
  %18 = add i64 %17, %15
  %19 = load i64, i64* %PC
  %20 = add i64 %19, 5
  store i64 %20, i64* %PC
  %21 = call %struct.Memory* @_ZN12_GLOBAL__N_1L9MOVSD_MEMI3VnWI8vec128_tE3MVnI7vec64_tEEEP6MemoryS8_R5StateT_T0_(%struct.Memory* %2, %struct.State* %0, i8* %14, i64 %18)
  ret %struct.Memory* %21
}

define internal %struct.Memory* @_ZN12_GLOBAL__N_1L4MOVQI4RVnWI7vec64_tE2VnI8vec128_tEEEP6MemoryS8_R5StateT_T0_(%struct.Memory* readnone returned, %struct.State* nocapture readnone dereferenceable(3376), i64* nocapture, i8* nocapture readonly) #0 alwaysinline {
  %5 = bitcast i8* %3 to i64*
  %6 = load i64, i64* %5, align 1
  store i64 %6, i64* %2, align 1
  ret %struct.Memory* %0
}

define %struct.Memory* @routine_movq__xmm0___rcx(%struct.State*  dereferenceable(3376), i64, %struct.Memory* ) #19 alwaysinline {
block_400488:
  %3 = getelementptr inbounds %struct.State, %struct.State* %0, i32 0, i32 6
  %4 = getelementptr inbounds %struct.GPR, %struct.GPR* %3, i32 0, i32 33
  %5 = getelementptr inbounds %struct.Reg, %struct.Reg* %4, i32 0, i32 0
  %PC = bitcast %union.anon* %5 to i64*
  %6 = getelementptr inbounds %struct.State, %struct.State* %0, i32 0, i32 6
  %7 = getelementptr inbounds %struct.GPR, %struct.GPR* %6, i32 0, i32 5
  %8 = getelementptr inbounds %struct.Reg, %struct.Reg* %7, i32 0, i32 0
  %RCX = bitcast %union.anon* %8 to i64*
  %9 = getelementptr inbounds %struct.State, %struct.State* %0, i32 0, i32 1
  %10 = getelementptr inbounds [32 x %union.VectorReg], [32 x %union.VectorReg]* %9, i64 0, i64 0
  %XMM0 = bitcast %union.VectorReg* %10 to %union.vec128_t*
  %11 = bitcast %union.vec128_t* %XMM0 to i8*
  %12 = load i64, i64* %PC
  %13 = add i64 %12, 5
  store i64 %13, i64* %PC
  %14 = call %struct.Memory* @_ZN12_GLOBAL__N_1L4MOVQI4RVnWI7vec64_tE2VnI8vec128_tEEEP6MemoryS8_R5StateT_T0_(%struct.Memory* %2, %struct.State* %0, i64* %RCX, i8* %11)
  ret %struct.Memory* %14
}

define internal %struct.Memory* @_ZN12_GLOBAL__N_1L3XORI3RnWImE2RnImES4_EEP6MemoryS6_R5StateT_T0_T1_(%struct.Memory* readnone returned, %struct.State* nocapture dereferenceable(3376), i64* nocapture, i64, i64) #0 alwaysinline {
  %6 = xor i64 %4, %3
  store i64 %6, i64* %2, align 8
  %7 = getelementptr inbounds %struct.State, %struct.State* %1, i64 0, i32 2, i32 1
  store i8 0, i8* %7, align 1
  %8 = trunc i64 %6 to i32
  %9 = and i32 %8, 255
  %10 = tail call i32 @llvm.ctpop.i32(i32 %9) #22
  %11 = trunc i32 %10 to i8
  %12 = and i8 %11, 1
  %13 = xor i8 %12, 1
  %14 = getelementptr inbounds %struct.State, %struct.State* %1, i64 0, i32 2, i32 3
  store i8 %13, i8* %14, align 1
  %15 = icmp eq i64 %6, 0
  %16 = zext i1 %15 to i8
  %17 = getelementptr inbounds %struct.State, %struct.State* %1, i64 0, i32 2, i32 7
  store i8 %16, i8* %17, align 1
  %18 = lshr i64 %6, 63
  %19 = trunc i64 %18 to i8
  %20 = getelementptr inbounds %struct.State, %struct.State* %1, i64 0, i32 2, i32 9
  store i8 %19, i8* %20, align 1
  %21 = getelementptr inbounds %struct.State, %struct.State* %1, i64 0, i32 2, i32 13
  store i8 0, i8* %21, align 1
  %22 = getelementptr inbounds %struct.State, %struct.State* %1, i64 0, i32 2, i32 5
  store i8 0, i8* %22, align 1
  ret %struct.Memory* %0
}

define %struct.Memory* @routine_xorq__rax___rcx(%struct.State*  dereferenceable(3376), i64, %struct.Memory* ) #19 alwaysinline {
block_400488:
  %3 = getelementptr inbounds %struct.State, %struct.State* %0, i32 0, i32 6
  %4 = getelementptr inbounds %struct.GPR, %struct.GPR* %3, i32 0, i32 33
  %5 = getelementptr inbounds %struct.Reg, %struct.Reg* %4, i32 0, i32 0
  %PC = bitcast %union.anon* %5 to i64*
  %6 = getelementptr inbounds %struct.State, %struct.State* %0, i32 0, i32 6
  %7 = getelementptr inbounds %struct.GPR, %struct.GPR* %6, i32 0, i32 1
  %8 = getelementptr inbounds %struct.Reg, %struct.Reg* %7, i32 0, i32 0
  %RAX = bitcast %union.anon* %8 to i64*
  %9 = getelementptr inbounds %struct.State, %struct.State* %0, i32 0, i32 6
  %10 = getelementptr inbounds %struct.GPR, %struct.GPR* %9, i32 0, i32 5
  %11 = getelementptr inbounds %struct.Reg, %struct.Reg* %10, i32 0, i32 0
  %RCX = bitcast %union.anon* %11 to i64*
  %12 = load i64, i64* %RCX
  %13 = load i64, i64* %RAX
  %14 = load i64, i64* %PC
  %15 = add i64 %14, 3
  store i64 %15, i64* %PC
  %16 = call %struct.Memory* @_ZN12_GLOBAL__N_1L3XORI3RnWImE2RnImES4_EEP6MemoryS6_R5StateT_T0_T1_(%struct.Memory* %2, %struct.State* %0, i64* %RCX, i64 %12, i64 %13)
  ret %struct.Memory* %16
}

define internal %struct.Memory* @_ZN12_GLOBAL__N_1L4MOVQI3VnWI8vec128_tE3RVnI7vec64_tEEEP6MemoryS8_R5StateT_T0_(%struct.Memory* readnone returned, %struct.State* nocapture readnone dereferenceable(3376), i8* nocapture, i64) #0 alwaysinline {
  %5 = bitcast i8* %2 to i64*
  store i64 %3, i64* %5, align 1
  %6 = getelementptr inbounds i8, i8* %2, i64 8
  %7 = bitcast i8* %6 to i64*
  store i64 0, i64* %7, align 1
  ret %struct.Memory* %0
}

define %struct.Memory* @routine_movq__rcx___xmm0(%struct.State*  dereferenceable(3376), i64, %struct.Memory* ) #19 alwaysinline {
block_400488:
  %3 = getelementptr inbounds %struct.State, %struct.State* %0, i32 0, i32 6
  %4 = getelementptr inbounds %struct.GPR, %struct.GPR* %3, i32 0, i32 33
  %5 = getelementptr inbounds %struct.Reg, %struct.Reg* %4, i32 0, i32 0
  %PC = bitcast %union.anon* %5 to i64*
  %6 = getelementptr inbounds %struct.State, %struct.State* %0, i32 0, i32 6
  %7 = getelementptr inbounds %struct.GPR, %struct.GPR* %6, i32 0, i32 5
  %8 = getelementptr inbounds %struct.Reg, %struct.Reg* %7, i32 0, i32 0
  %RCX = bitcast %union.anon* %8 to i64*
  %9 = getelementptr inbounds %struct.State, %struct.State* %0, i32 0, i32 1
  %10 = getelementptr inbounds [32 x %union.VectorReg], [32 x %union.VectorReg]* %9, i64 0, i64 0
  %YMM0 = bitcast %union.VectorReg* %10 to %"class.std::bitset"*
  %11 = bitcast %"class.std::bitset"* %YMM0 to i8*
  %12 = load i64, i64* %RCX
  %13 = load i64, i64* %PC
  %14 = add i64 %13, 5
  store i64 %14, i64* %PC
  %15 = call %struct.Memory* @_ZN12_GLOBAL__N_1L4MOVQI3VnWI8vec128_tE3RVnI7vec64_tEEEP6MemoryS8_R5StateT_T0_(%struct.Memory* %2, %struct.State* %0, i8* %11, i64 %12)
  ret %struct.Memory* %15
}






define %struct.Memory* @routine_mulsd___rax__rcx_8____xmm0(%struct.State*  dereferenceable(3376), i64, %struct.Memory* ) #19 alwaysinline {
block_400488:
  %3 = getelementptr inbounds %struct.State, %struct.State* %0, i32 0, i32 6
  %4 = getelementptr inbounds %struct.GPR, %struct.GPR* %3, i32 0, i32 33
  %5 = getelementptr inbounds %struct.Reg, %struct.Reg* %4, i32 0, i32 0
  %PC = bitcast %union.anon* %5 to i64*
  %6 = getelementptr inbounds %struct.State, %struct.State* %0, i32 0, i32 6
  %7 = getelementptr inbounds %struct.GPR, %struct.GPR* %6, i32 0, i32 1
  %8 = getelementptr inbounds %struct.Reg, %struct.Reg* %7, i32 0, i32 0
  %RAX = bitcast %union.anon* %8 to i64*
  %9 = getelementptr inbounds %struct.State, %struct.State* %0, i32 0, i32 6
  %10 = getelementptr inbounds %struct.GPR, %struct.GPR* %9, i32 0, i32 5
  %11 = getelementptr inbounds %struct.Reg, %struct.Reg* %10, i32 0, i32 0
  %RCX = bitcast %union.anon* %11 to i64*
  %12 = getelementptr inbounds %struct.State, %struct.State* %0, i32 0, i32 1
  %13 = getelementptr inbounds [32 x %union.VectorReg], [32 x %union.VectorReg]* %12, i64 0, i64 0
  %YMM0 = bitcast %union.VectorReg* %13 to %"class.std::bitset"*
  %14 = bitcast %"class.std::bitset"* %YMM0 to i8*
  %15 = bitcast %"class.std::bitset"* %YMM0 to i8*
  %16 = load i64, i64* %RAX
  %17 = load i64, i64* %RCX
  %18 = mul i64 %17, 8
  %19 = add i64 %18, %16
  %20 = load i64, i64* %PC
  %21 = add i64 %20, 5
  store i64 %21, i64* %PC
  %22 = call %struct.Memory* @_ZN12_GLOBAL__N_1L5MULSDI3VnWI8vec128_tE2VnIS2_E3MVnIS2_EEEP6MemoryS9_R5StateT_T0_T1_(%struct.Memory* %2, %struct.State* %0, i8* %14, i8* %15, i64 %19)
  ret %struct.Memory* %22
}


















define %struct.Memory* @routine_jg_.L_4010e9(%struct.State*  dereferenceable(3376), i64, %struct.Memory*, i8* %BRANCH_TAKEN, i64 %rel_off1, i64 %rel_off2, i64 %rel_off3) alwaysinline {
block_400488:
  %3 = getelementptr inbounds %struct.State, %struct.State* %0, i32 0, i32 6
  %4 = getelementptr inbounds %struct.GPR, %struct.GPR* %3, i32 0, i32 33
  %5 = getelementptr inbounds %struct.Reg, %struct.Reg* %4, i32 0, i32 0
  %PC = bitcast %union.anon* %5 to i64*
  %6 = load i64, i64* %PC
  %7 = add i64 %6, %rel_off1
  %8 = load i64, i64* %PC
  %9 = add i64 %8, %rel_off2
  %10 = load i64, i64* %PC
  %11 = add i64 %10, %rel_off3
  store i64 %11, i64* %PC
  %12 = call %struct.Memory* @_ZN12_GLOBAL__N_1L4JNLEEP6MemoryR5State3RnWIhE2InImES7_(%struct.Memory* %2, %struct.State* %0, i8* %BRANCH_TAKEN, i64 %7, i64 %9)
  ret %struct.Memory* %12
}


































































define %struct.Memory* @routine_jmpq_.L_401056(%struct.State*  dereferenceable(3376), i64, %struct.Memory*, i64 %rel_off1, i64 %rel_off2) alwaysinline {
block_400488:
  %3 = getelementptr inbounds %struct.State, %struct.State* %0, i32 0, i32 6
  %4 = getelementptr inbounds %struct.GPR, %struct.GPR* %3, i32 0, i32 33
  %5 = getelementptr inbounds %struct.Reg, %struct.Reg* %4, i32 0, i32 0
  %PC = bitcast %union.anon* %5 to i64*
  %6 = load i64, i64* %PC
  %7 = add i64 %6, %rel_off1
  %8 = load i64, i64* %PC
  %9 = add i64 %8, %rel_off2
  store i64 %9, i64* %PC
  %10 = call %struct.Memory* @_ZN12_GLOBAL__N_1L3JMPI2InImEEEP6MemoryS4_R5StateT_(%struct.Memory* %2, %struct.State* %0, i64 %7)
  ret %struct.Memory* %10
}
























define %struct.Memory* @routine_movl__eax__MINUS0x40__rbp_(%struct.State*  dereferenceable(3376), i64, %struct.Memory* ) #19 alwaysinline {
block_400488:
  %3 = getelementptr inbounds %struct.State, %struct.State* %0, i32 0, i32 6
  %4 = getelementptr inbounds %struct.GPR, %struct.GPR* %3, i32 0, i32 33
  %5 = getelementptr inbounds %struct.Reg, %struct.Reg* %4, i32 0, i32 0
  %PC = bitcast %union.anon* %5 to i64*
  %6 = getelementptr inbounds %struct.State, %struct.State* %0, i32 0, i32 6
  %7 = getelementptr inbounds %struct.GPR, %struct.GPR* %6, i32 0, i32 1
  %8 = getelementptr inbounds %struct.Reg, %struct.Reg* %7, i32 0, i32 0
  %EAX = bitcast %union.anon* %8 to i32*
  %9 = getelementptr inbounds %struct.State, %struct.State* %0, i32 0, i32 6
  %10 = getelementptr inbounds %struct.GPR, %struct.GPR* %9, i32 0, i32 15
  %11 = getelementptr inbounds %struct.Reg, %struct.Reg* %10, i32 0, i32 0
  %RBP = bitcast %union.anon* %11 to i64*
  %12 = load i64, i64* %RBP
  %13 = sub i64 %12, 64
  %14 = load i32, i32* %EAX
  %15 = zext i32 %14 to i64
  %16 = load i64, i64* %PC
  %17 = add i64 %16, 3
  store i64 %17, i64* %PC
  %18 = call %struct.Memory* @_ZN12_GLOBAL__N_1L3MOVI3MnWIjE2RnIjEEEP6MemoryS6_R5StateT_T0_(%struct.Memory* %2, %struct.State* %0, i64 %13, i64 %15)
  ret %struct.Memory* %18
}


define %struct.Memory* @routine_jmpq_.L_400eea(%struct.State*  dereferenceable(3376), i64, %struct.Memory*, i64 %rel_off1, i64 %rel_off2) alwaysinline {
block_400488:
  %3 = getelementptr inbounds %struct.State, %struct.State* %0, i32 0, i32 6
  %4 = getelementptr inbounds %struct.GPR, %struct.GPR* %3, i32 0, i32 33
  %5 = getelementptr inbounds %struct.Reg, %struct.Reg* %4, i32 0, i32 0
  %PC = bitcast %union.anon* %5 to i64*
  %6 = load i64, i64* %PC
  %7 = add i64 %6, %rel_off1
  %8 = load i64, i64* %PC
  %9 = add i64 %8, %rel_off2
  store i64 %9, i64* %PC
  %10 = call %struct.Memory* @_ZN12_GLOBAL__N_1L3JMPI2InImEEEP6MemoryS4_R5StateT_(%struct.Memory* %2, %struct.State* %0, i64 %7)
  ret %struct.Memory* %10
}








define %struct.Memory* @routine_jge_.L_40116d(%struct.State*  dereferenceable(3376), i64, %struct.Memory*, i8* %BRANCH_TAKEN, i64 %rel_off1, i64 %rel_off2, i64 %rel_off3) alwaysinline {
block_400488:
  %3 = getelementptr inbounds %struct.State, %struct.State* %0, i32 0, i32 6
  %4 = getelementptr inbounds %struct.GPR, %struct.GPR* %3, i32 0, i32 33
  %5 = getelementptr inbounds %struct.Reg, %struct.Reg* %4, i32 0, i32 0
  %PC = bitcast %union.anon* %5 to i64*
  %6 = load i64, i64* %PC
  %7 = add i64 %6, %rel_off1
  %8 = load i64, i64* %PC
  %9 = add i64 %8, %rel_off2
  %10 = load i64, i64* %PC
  %11 = add i64 %10, %rel_off3
  store i64 %11, i64* %PC
  %12 = call %struct.Memory* @_ZN12_GLOBAL__N_1L3JNLEP6MemoryR5State3RnWIhE2InImES7_(%struct.Memory* %2, %struct.State* %0, i8* %BRANCH_TAKEN, i64 %7, i64 %9)
  ret %struct.Memory* %12
}










define %struct.Memory* @routine_movl_MINUS0x4__rbp____edx(%struct.State*  dereferenceable(3376), i64, %struct.Memory* ) #19 alwaysinline {
block_400488:
  %3 = getelementptr inbounds %struct.State, %struct.State* %0, i32 0, i32 6
  %4 = getelementptr inbounds %struct.GPR, %struct.GPR* %3, i32 0, i32 33
  %5 = getelementptr inbounds %struct.Reg, %struct.Reg* %4, i32 0, i32 0
  %PC = bitcast %union.anon* %5 to i64*
  %6 = getelementptr inbounds %struct.State, %struct.State* %0, i32 0, i32 6
  %7 = getelementptr inbounds %struct.GPR, %struct.GPR* %6, i32 0, i32 7
  %8 = getelementptr inbounds %struct.Reg, %struct.Reg* %7, i32 0, i32 0
  %RDX = bitcast %union.anon* %8 to i64*
  %9 = getelementptr inbounds %struct.State, %struct.State* %0, i32 0, i32 6
  %10 = getelementptr inbounds %struct.GPR, %struct.GPR* %9, i32 0, i32 15
  %11 = getelementptr inbounds %struct.Reg, %struct.Reg* %10, i32 0, i32 0
  %RBP = bitcast %union.anon* %11 to i64*
  %12 = load i64, i64* %RBP
  %13 = sub i64 %12, 4
  %14 = load i64, i64* %PC
  %15 = add i64 %14, 3
  store i64 %15, i64* %PC
  %16 = call %struct.Memory* @_ZN12_GLOBAL__N_1L3MOVI3RnWImE2MnIjEEEP6MemoryS6_R5StateT_T0_(%struct.Memory* %2, %struct.State* %0, i64* %RDX, i64 %13)
  ret %struct.Memory* %16
}








define %struct.Memory* @routine_movq_MINUS0x38__rbp____rax(%struct.State*  dereferenceable(3376), i64, %struct.Memory* ) #19 alwaysinline {
block_400488:
  %3 = getelementptr inbounds %struct.State, %struct.State* %0, i32 0, i32 6
  %4 = getelementptr inbounds %struct.GPR, %struct.GPR* %3, i32 0, i32 33
  %5 = getelementptr inbounds %struct.Reg, %struct.Reg* %4, i32 0, i32 0
  %PC = bitcast %union.anon* %5 to i64*
  %6 = getelementptr inbounds %struct.State, %struct.State* %0, i32 0, i32 6
  %7 = getelementptr inbounds %struct.GPR, %struct.GPR* %6, i32 0, i32 1
  %8 = getelementptr inbounds %struct.Reg, %struct.Reg* %7, i32 0, i32 0
  %RAX = bitcast %union.anon* %8 to i64*
  %9 = getelementptr inbounds %struct.State, %struct.State* %0, i32 0, i32 6
  %10 = getelementptr inbounds %struct.GPR, %struct.GPR* %9, i32 0, i32 15
  %11 = getelementptr inbounds %struct.Reg, %struct.Reg* %10, i32 0, i32 0
  %RBP = bitcast %union.anon* %11 to i64*
  %12 = load i64, i64* %RBP
  %13 = sub i64 %12, 56
  %14 = load i64, i64* %PC
  %15 = add i64 %14, 4
  store i64 %15, i64* %PC
  %16 = call %struct.Memory* @_ZN12_GLOBAL__N_1L3MOVI3RnWImE2MnImEEEP6MemoryS6_R5StateT_T0_(%struct.Memory* %2, %struct.State* %0, i64* %RAX, i64 %13)
  ret %struct.Memory* %16
}












define %struct.Memory* @routine_jmpq_.L_401126(%struct.State*  dereferenceable(3376), i64, %struct.Memory*, i64 %rel_off1, i64 %rel_off2) alwaysinline {
block_400488:
  %3 = getelementptr inbounds %struct.State, %struct.State* %0, i32 0, i32 6
  %4 = getelementptr inbounds %struct.GPR, %struct.GPR* %3, i32 0, i32 33
  %5 = getelementptr inbounds %struct.Reg, %struct.Reg* %4, i32 0, i32 0
  %PC = bitcast %union.anon* %5 to i64*
  %6 = load i64, i64* %PC
  %7 = add i64 %6, %rel_off1
  %8 = load i64, i64* %PC
  %9 = add i64 %8, %rel_off2
  store i64 %9, i64* %PC
  %10 = call %struct.Memory* @_ZN12_GLOBAL__N_1L3JMPI2InImEEEP6MemoryS4_R5StateT_(%struct.Memory* %2, %struct.State* %0, i64 %7)
  ret %struct.Memory* %10
}

define internal %struct.Memory* @_ZN12_GLOBAL__N_1L3POPI3RnWImEEEP6MemoryS4_R5StateT_(%struct.Memory*, %struct.State* nocapture dereferenceable(3376), i64* nocapture) #0 alwaysinline {
  %4 = getelementptr inbounds %struct.State, %struct.State* %1, i64 0, i32 6, i32 13, i32 0, i32 0
  %5 = load i64, i64* %4, align 8
  %6 = add i64 %5, 8
  %7 = inttoptr i64 %5 to i64*
  %8 = load i64, i64* %7
  store i64 %8, i64* %2, align 8
  store i64 %6, i64* %4, align 8
  ret %struct.Memory* %0
}

define %struct.Memory* @routine_popq__rbp(%struct.State*  dereferenceable(3376), i64, %struct.Memory* ) #19 alwaysinline {
block_400488:
  %3 = getelementptr inbounds %struct.State, %struct.State* %0, i32 0, i32 6
  %4 = getelementptr inbounds %struct.GPR, %struct.GPR* %3, i32 0, i32 33
  %5 = getelementptr inbounds %struct.Reg, %struct.Reg* %4, i32 0, i32 0
  %PC = bitcast %union.anon* %5 to i64*
  %6 = getelementptr inbounds %struct.State, %struct.State* %0, i32 0, i32 6
  %7 = getelementptr inbounds %struct.GPR, %struct.GPR* %6, i32 0, i32 15
  %8 = getelementptr inbounds %struct.Reg, %struct.Reg* %7, i32 0, i32 0
  %RBP = bitcast %union.anon* %8 to i64*
  %9 = load i64, i64* %PC
  %10 = add i64 %9, 1
  store i64 %10, i64* %PC
  %11 = call %struct.Memory* @_ZN12_GLOBAL__N_1L3POPI3RnWImEEEP6MemoryS4_R5StateT_(%struct.Memory* %2, %struct.State* %0, i64* %RBP)
  ret %struct.Memory* %11
}

define internal %struct.Memory* @_ZN12_GLOBAL__N_1L3RETEP6MemoryR5State(%struct.Memory* returned, %struct.State* nocapture dereferenceable(3376)) #0 alwaysinline {
  %3 = getelementptr inbounds %struct.State, %struct.State* %1, i64 0, i32 6, i32 33, i32 0, i32 0
  %4 = getelementptr inbounds %struct.State, %struct.State* %1, i64 0, i32 6, i32 13, i32 0, i32 0
  %5 = load i64, i64* %4, align 8
  %6 = inttoptr i64 %5 to i64*
  %7 = load i64, i64* %6
  store i64 %7, i64* %3, align 8
  %8 = add i64 %5, 8
  store i64 %8, i64* %4, align 8
  ret %struct.Memory* %0
}

define %struct.Memory* @routine_retq(%struct.State*  dereferenceable(3376), i64, %struct.Memory* ) #19 alwaysinline {
block_400488:
  %3 = getelementptr inbounds %struct.State, %struct.State* %0, i32 0, i32 6
  %4 = getelementptr inbounds %struct.GPR, %struct.GPR* %3, i32 0, i32 33
  %5 = getelementptr inbounds %struct.Reg, %struct.Reg* %4, i32 0, i32 0
  %PC = bitcast %union.anon* %5 to i64*
  %6 = load i64, i64* %PC
  %7 = add i64 %6, 1
  store i64 %7, i64* %PC
  %8 = call %struct.Memory* @_ZN12_GLOBAL__N_1L3RETEP6MemoryR5State(%struct.Memory* %2, %struct.State* %0)
  ret %struct.Memory* %8
}

