; ModuleID = '/tmp/tmpbjng3e3e-query.ll'
source_filename = "llvm-link"
target datalayout = "e-m:e-i64:64-f80:128-n8:16:32:64-S128"
target triple = "x86_64-pc-linux-gnu-elf"

%__bss_start_type = type <{ [8 x i8] }>
%G_0x61c078_type = type <{ [4 x i8] }>
%struct.State = type { %struct.ArchState, [32 x %union.VectorReg], %struct.ArithFlags, %union.anon, %struct.Segments, %struct.AddressSpace, %struct.GPR, %struct.X87Stack, %struct.MMX, %struct.FPUStatusFlags, %union.anon, %union.FPU, %struct.SegmentCaches }
%struct.ArchState = type { i32, i32, %union.anon }
%union.VectorReg = type { %union.vec512_t }
%union.vec512_t = type { %struct.uint64v8_t }
%struct.uint64v8_t = type { [8 x i64] }
%struct.ArithFlags = type { i8, i8, i8, i8, i8, i8, i8, i8, i8, i8, i8, i8, i8, i8, i8, i8 }
%struct.Segments = type { i16, %union.SegmentSelector, i16, %union.SegmentSelector, i16, %union.SegmentSelector, i16, %union.SegmentSelector, i16, %union.SegmentSelector, i16, %union.SegmentSelector }
%union.SegmentSelector = type { i16 }
%struct.AddressSpace = type { i64, %struct.Reg, i64, %struct.Reg, i64, %struct.Reg, i64, %struct.Reg, i64, %struct.Reg, i64, %struct.Reg }
%struct.Reg = type { %union.anon }
%struct.GPR = type { i64, %struct.Reg, i64, %struct.Reg, i64, %struct.Reg, i64, %struct.Reg, i64, %struct.Reg, i64, %struct.Reg, i64, %struct.Reg, i64, %struct.Reg, i64, %struct.Reg, i64, %struct.Reg, i64, %struct.Reg, i64, %struct.Reg, i64, %struct.Reg, i64, %struct.Reg, i64, %struct.Reg, i64, %struct.Reg, i64, %struct.Reg }
%struct.X87Stack = type { [8 x %struct.anon.3] }
%struct.anon.3 = type { i64, double }
%struct.MMX = type { [8 x %struct.anon.4] }
%struct.anon.4 = type { i64, %union.vec64_t }
%union.vec64_t = type { %struct.uint64v1_t }
%struct.uint64v1_t = type { [1 x i64] }
%struct.FPUStatusFlags = type { i8, i8, i8, i8, i8, i8, i8, i8, i8, i8, i8, i8, i8, i8, i8, i8, i8, i8, i8, i8, [4 x i8] }
%union.anon = type { i64 }
%union.FPU = type { %struct.anon.13 }
%struct.anon.13 = type { %struct.FpuFXSAVE, [96 x i8] }
%struct.FpuFXSAVE = type { %union.SegmentSelector, %union.SegmentSelector, %union.FPUAbridgedTagWord, i8, i16, i32, %union.SegmentSelector, i16, i32, %union.SegmentSelector, i16, %union.FPUControlStatus, %union.FPUControlStatus, [8 x %struct.FPUStackElem], [16 x %union.vec128_t] }
%union.FPUAbridgedTagWord = type { i8 }
%union.FPUControlStatus = type { i32 }
%struct.FPUStackElem = type { %union.anon.11, [6 x i8] }
%union.anon.11 = type { %struct.float80_t }
%struct.float80_t = type { [10 x i8] }
%union.vec128_t = type { %struct.uint128v1_t }
%struct.uint128v1_t = type { [1 x i128] }
%struct.SegmentCaches = type { %struct.SegmentShadow, %struct.SegmentShadow, %struct.SegmentShadow, %struct.SegmentShadow, %struct.SegmentShadow, %struct.SegmentShadow }
%struct.SegmentShadow = type { %union.anon, i32, i32 }
%struct.Memory = type opaque

@__bss_start = local_unnamed_addr global %__bss_start_type zeroinitializer
@G_0x61c078 = local_unnamed_addr global %G_0x61c078_type zeroinitializer

; Function Attrs: nounwind readnone
declare i32 @llvm.ctpop.i32(i32) #0

declare %struct.Memory* @sub_400e10._Z11start_timerv(%struct.State* noalias dereferenceable(3376), i64, %struct.Memory* noalias readnone returned) local_unnamed_addr

declare %struct.Memory* @sub_40c110._Z18complete_hash_funcIiET_S0_(%struct.State* noalias dereferenceable(3376), i64, %struct.Memory* noalias readnone returned) local_unnamed_addr

declare %struct.Memory* @sub_40c140._Z9check_sumIiEvT_(%struct.State* noalias dereferenceable(3376), i64, %struct.Memory* noalias readnone returned) local_unnamed_addr

declare %struct.Memory* @sub_400e30._Z5timerv(%struct.State* noalias dereferenceable(3376), i64, %struct.Memory* noalias readnone returned) local_unnamed_addr

declare %struct.Memory* @sub_4007d0._Z13record_resultdPKc(%struct.State* noalias dereferenceable(3376), i64, %struct.Memory* noalias readnone returned) local_unnamed_addr

; Function Attrs: alwaysinline
define %struct.Memory* @_Z27test_for_loop_unroll_factorILi23EiEvPKT0_iPKc(%struct.State* noalias, i64, %struct.Memory* noalias readnone returned) local_unnamed_addr #1 {
entry:
  %var_2_3 = getelementptr inbounds %struct.State, %struct.State* %0, i64 0, i32 6, i32 33, i32 0, i32 0
  %RBP.i = getelementptr inbounds %struct.State, %struct.State* %0, i64 0, i32 6, i32 15, i32 0, i32 0
  %var_2_6 = getelementptr inbounds %struct.State, %struct.State* %0, i64 0, i32 6, i32 13, i32 0, i32 0
  %var_2_57 = load i64, i64* %var_2_3, align 8
  %var_2_58 = add i64 %var_2_57, -81379
  %call2_414bf3 = tail call %struct.Memory* @sub_400e10._Z11start_timerv(%struct.State* %0, i64 %var_2_58, %struct.Memory* %2)
  %.pre = load i64, i64* %var_2_3, align 8
  %var_2_691 = load i64, i64* %RBP.i, align 8
  %var_2_702 = add i64 %var_2_691, -28
  %var_2_723 = inttoptr i64 %var_2_702 to i32*
  %var_2_734 = load i32, i32* %var_2_723, align 4
  %var_2_755 = load i32, i32* bitcast (%G_0x61c078_type* @G_0x61c078 to i32*), align 8
  %var_2_766 = sub i32 %var_2_734, %var_2_755
  %var_2_917 = lshr i32 %var_2_766, 31
  %var_2_938 = lshr i32 %var_2_734, 31
  %var_2_949 = lshr i32 %var_2_755, 31
  %var_2_9510 = xor i32 %var_2_949, %var_2_938
  %var_2_9611 = xor i32 %var_2_917, %var_2_938
  %var_2_9712 = add nuw nsw i32 %var_2_9611, %var_2_9510
  %var_2_9813 = icmp eq i32 %var_2_9712, 2
  %var_2_10014 = icmp ne i32 %var_2_917, 0
  %var_2_10115 = xor i1 %var_2_10014, %var_2_9813
  br i1 %var_2_10115, label %block_414c0f.preheader, label %block_.L_414c97

block_414c0f.preheader:                           ; preds = %entry
  br label %block_414c0f

block_414c0f:                                     ; preds = %block_414c0f.preheader, %block_.L_414c81
  %var_2_112 = phi i64 [ %var_2_69, %block_.L_414c81 ], [ %var_2_691, %block_414c0f.preheader ]
  %var_2_113 = add i64 %var_2_112, -36
  %var_2_115 = inttoptr i64 %var_2_113 to i32*
  %var_2_116 = load i32, i32* %var_2_115, align 4
  %var_2_118 = add i64 %var_2_112, -12
  %var_2_120 = inttoptr i64 %var_2_118 to i32*
  %var_2_121 = load i32, i32* %var_2_120, align 4
  %var_2_122 = add i32 %var_2_121, -22
  %var_2_124 = lshr i32 %var_2_122, 31
  %var_2_125 = sub i32 %var_2_116, %var_2_122
  %var_2_140 = lshr i32 %var_2_125, 31
  %var_2_142 = lshr i32 %var_2_116, 31
  %var_2_143 = xor i32 %var_2_124, %var_2_142
  %var_2_144 = xor i32 %var_2_140, %var_2_142
  %var_2_145 = add nuw nsw i32 %var_2_144, %var_2_143
  %var_2_146 = icmp eq i32 %var_2_145, 2
  %var_2_148 = icmp ne i32 %var_2_140, 0
  %var_2_149 = xor i1 %var_2_148, %var_2_146
  br i1 %var_2_149, label %block_414c2e.us.preheader, label %block_.L_414c4c

block_414c2e.us.preheader:                        ; preds = %block_414c0f
  br label %block_414c2e.us

block_414c2e.us:                                  ; preds = %block_414c2e.us.preheader, %block_414c2e.us
  br label %block_414c2e.us

block_.L_414c4c:                                  ; preds = %block_414c0f
  %.pre9 = load i64, i64* %var_2_3, align 8
  %var_2_196 = add i64 %.pre9, 52
  br label %block_.L_414c51

block_.L_414c51:                                  ; preds = %block_414c5d, %block_.L_414c4c
  %var_2_197 = phi i64 [ %var_2_112, %block_.L_414c4c ], [ %.pre10, %block_414c5d ]
  %storemerge = phi i64 [ %var_2_196, %block_.L_414c4c ], [ %var_2_319, %block_414c5d ]
  %var_2_198 = add i64 %var_2_197, -36
  %var_2_199 = add i64 %storemerge, 3
  store i64 %var_2_199, i64* %var_2_3, align 8
  %var_2_200 = inttoptr i64 %var_2_198 to i32*
  %var_2_201 = load i32, i32* %var_2_200, align 4
  %var_2_203 = add i64 %var_2_197, -12
  %var_2_204 = add i64 %storemerge, 6
  store i64 %var_2_204, i64* %var_2_3, align 8
  %var_2_205 = inttoptr i64 %var_2_203 to i32*
  %var_2_206 = load i32, i32* %var_2_205, align 4
  %var_2_207 = sub i32 %var_2_201, %var_2_206
  %var_2_222 = lshr i32 %var_2_207, 31
  %var_2_224 = lshr i32 %var_2_201, 31
  %var_2_225 = lshr i32 %var_2_206, 31
  %var_2_226 = xor i32 %var_2_225, %var_2_224
  %var_2_227 = xor i32 %var_2_222, %var_2_224
  %var_2_228 = add nuw nsw i32 %var_2_227, %var_2_226
  %var_2_229 = icmp eq i32 %var_2_228, 2
  %var_2_231 = icmp ne i32 %var_2_222, 0
  %var_2_232 = xor i1 %var_2_231, %var_2_229
  %.v12 = select i1 %var_2_232, i64 12, i64 48
  %var_2_233 = add i64 %.v12, %storemerge
  store i64 %var_2_233, i64* %var_2_3, align 8
  br i1 %var_2_232, label %block_414c5d, label %block_.L_414c81

block_414c5d:                                     ; preds = %block_.L_414c51
  %var_2_247 = add i64 %var_2_233, -35661
  %var_2_248 = add i64 %var_2_233, 16
  %var_2_249 = load i64, i64* %var_2_6, align 8
  %var_2_250 = add i64 %var_2_249, -8
  %var_2_251 = inttoptr i64 %var_2_250 to i64*
  store i64 %var_2_248, i64* %var_2_251, align 8
  store i64 %var_2_247, i64* %var_2_3, align 8
  %call2_414c68 = tail call %struct.Memory* @sub_40c110._Z18complete_hash_funcIiET_S0_(%struct.State* nonnull %0, i64 %var_2_247, %struct.Memory* %call2_414bf3)
  %var_2_318 = load i64, i64* %var_2_3, align 8
  %var_2_319 = add i64 %var_2_318, -43
  %.pre10 = load i64, i64* %RBP.i, align 8
  br label %block_.L_414c51

block_.L_414c81:                                  ; preds = %block_.L_414c51
  %var_2_326 = add i64 %var_2_233, -35649
  %var_2_327 = add i64 %var_2_233, 8
  %var_2_328 = load i64, i64* %var_2_6, align 8
  %var_2_329 = add i64 %var_2_328, -8
  %var_2_330 = inttoptr i64 %var_2_329 to i64*
  store i64 %var_2_327, i64* %var_2_330, align 8
  store i64 %var_2_326, i64* %var_2_3, align 8
  %call2_414c84 = tail call %struct.Memory* @sub_40c140._Z9check_sumIiEvT_(%struct.State* nonnull %0, i64 %var_2_326, %struct.Memory* %call2_414bf3)
  %var_2_69 = load i64, i64* %RBP.i, align 8
  %var_2_70 = add i64 %var_2_69, -28
  %var_2_72 = inttoptr i64 %var_2_70 to i32*
  %var_2_73 = load i32, i32* %var_2_72, align 4
  %var_2_75 = load i32, i32* bitcast (%G_0x61c078_type* @G_0x61c078 to i32*), align 8
  %var_2_76 = sub i32 %var_2_73, %var_2_75
  %var_2_91 = lshr i32 %var_2_76, 31
  %var_2_93 = lshr i32 %var_2_73, 31
  %var_2_94 = lshr i32 %var_2_75, 31
  %var_2_95 = xor i32 %var_2_94, %var_2_93
  %var_2_96 = xor i32 %var_2_91, %var_2_93
  %var_2_97 = add nuw nsw i32 %var_2_96, %var_2_95
  %var_2_98 = icmp eq i32 %var_2_97, 2
  %var_2_100 = icmp ne i32 %var_2_91, 0
  %var_2_101 = xor i1 %var_2_100, %var_2_98
  br i1 %var_2_101, label %block_414c0f, label %block_.L_414bff.block_.L_414c97_crit_edge

block_.L_414bff.block_.L_414c97_crit_edge:        ; preds = %block_.L_414c81
  %var_2_361 = load i64, i64* %var_2_3, align 8
  %var_2_362.le = add i64 %var_2_361, -147
  br label %block_.L_414c97

block_.L_414c97:                                  ; preds = %block_.L_414bff.block_.L_414c97_crit_edge, %entry
  %var_2_68.lcssa = phi i64 [ %var_2_362.le, %block_.L_414bff.block_.L_414c97_crit_edge ], [ %.pre, %entry ]
  %var_2_363 = add i64 %var_2_68.lcssa, -81359
  %call2_414c97 = tail call %struct.Memory* @sub_400e30._Z5timerv(%struct.State* nonnull %0, i64 %var_2_363, %struct.Memory* %call2_414bf3)
  %var_2_370 = load i64, i64* %var_2_3, align 8
  %var_2_374 = add i64 %var_2_370, -83148
  %call2_414ca0 = tail call %struct.Memory* @sub_4007d0._Z13record_resultdPKc(%struct.State* nonnull %0, i64 %var_2_374, %struct.Memory* %call2_414c97)
  ret %struct.Memory* %call2_414ca0
}

; Function Attrs: norecurse nounwind
define %struct.Memory* @routine_pushq__rbp(%struct.State* nocapture dereferenceable(3376), i64, %struct.Memory* readnone returned) local_unnamed_addr #2 {
block_400488:
  %PC = getelementptr inbounds %struct.State, %struct.State* %0, i64 0, i32 6, i32 33, i32 0, i32 0
  %RBP = getelementptr inbounds %struct.State, %struct.State* %0, i64 0, i32 6, i32 15, i32 0, i32 0
  %3 = load i64, i64* %RBP, align 8
  %4 = load i64, i64* %PC, align 8
  %5 = add i64 %4, 1
  store i64 %5, i64* %PC, align 8
  %6 = getelementptr inbounds %struct.State, %struct.State* %0, i64 0, i32 6, i32 13, i32 0, i32 0
  %7 = load i64, i64* %6, align 8
  %8 = add i64 %7, -8
  %9 = inttoptr i64 %8 to i64*
  store i64 %3, i64* %9, align 8
  store i64 %8, i64* %6, align 8
  ret %struct.Memory* %2
}

; Function Attrs: norecurse nounwind
define %struct.Memory* @routine_movq__rsp___rbp(%struct.State* nocapture dereferenceable(3376), i64, %struct.Memory* readnone returned) local_unnamed_addr #2 {
block_400488:
  %PC = getelementptr inbounds %struct.State, %struct.State* %0, i64 0, i32 6, i32 33, i32 0, i32 0
  %RSP = getelementptr inbounds %struct.State, %struct.State* %0, i64 0, i32 6, i32 13, i32 0, i32 0
  %RBP = getelementptr inbounds %struct.State, %struct.State* %0, i64 0, i32 6, i32 15, i32 0, i32 0
  %3 = load i64, i64* %RSP, align 8
  %4 = load i64, i64* %PC, align 8
  %5 = add i64 %4, 3
  store i64 %5, i64* %PC, align 8
  store i64 %3, i64* %RBP, align 8
  ret %struct.Memory* %2
}

; Function Attrs: nounwind
define %struct.Memory* @routine_subq__0x30___rsp(%struct.State* nocapture dereferenceable(3376), i64, %struct.Memory* readnone returned) local_unnamed_addr #3 {
block_400488:
  %PC = getelementptr inbounds %struct.State, %struct.State* %0, i64 0, i32 6, i32 33, i32 0, i32 0
  %RSP = getelementptr inbounds %struct.State, %struct.State* %0, i64 0, i32 6, i32 13, i32 0, i32 0
  %3 = load i64, i64* %RSP, align 8
  %4 = load i64, i64* %PC, align 8
  %5 = add i64 %4, 4
  store i64 %5, i64* %PC, align 8
  %6 = add i64 %3, -48
  store i64 %6, i64* %RSP, align 8
  %7 = icmp ult i64 %3, 48
  %8 = zext i1 %7 to i8
  %9 = getelementptr inbounds %struct.State, %struct.State* %0, i64 0, i32 2, i32 1
  store i8 %8, i8* %9, align 1
  %10 = trunc i64 %6 to i32
  %11 = and i32 %10, 255
  %12 = tail call i32 @llvm.ctpop.i32(i32 %11)
  %13 = trunc i32 %12 to i8
  %14 = and i8 %13, 1
  %15 = xor i8 %14, 1
  %16 = getelementptr inbounds %struct.State, %struct.State* %0, i64 0, i32 2, i32 3
  store i8 %15, i8* %16, align 1
  %17 = xor i64 %3, 16
  %18 = xor i64 %17, %6
  %19 = lshr i64 %18, 4
  %20 = trunc i64 %19 to i8
  %21 = and i8 %20, 1
  %22 = getelementptr inbounds %struct.State, %struct.State* %0, i64 0, i32 2, i32 5
  store i8 %21, i8* %22, align 1
  %23 = icmp eq i64 %6, 0
  %24 = zext i1 %23 to i8
  %25 = getelementptr inbounds %struct.State, %struct.State* %0, i64 0, i32 2, i32 7
  store i8 %24, i8* %25, align 1
  %26 = lshr i64 %6, 63
  %27 = trunc i64 %26 to i8
  %28 = getelementptr inbounds %struct.State, %struct.State* %0, i64 0, i32 2, i32 9
  store i8 %27, i8* %28, align 1
  %29 = lshr i64 %3, 63
  %30 = xor i64 %26, %29
  %31 = add nuw nsw i64 %30, %29
  %32 = icmp eq i64 %31, 2
  %33 = zext i1 %32 to i8
  %34 = getelementptr inbounds %struct.State, %struct.State* %0, i64 0, i32 2, i32 13
  store i8 %33, i8* %34, align 1
  ret %struct.Memory* %2
}

; Function Attrs: norecurse nounwind
define %struct.Memory* @routine_movq__rdi__MINUS0x8__rbp_(%struct.State* nocapture dereferenceable(3376), i64, %struct.Memory* readnone returned) local_unnamed_addr #2 {
block_400488:
  %PC = getelementptr inbounds %struct.State, %struct.State* %0, i64 0, i32 6, i32 33, i32 0, i32 0
  %RDI = getelementptr inbounds %struct.State, %struct.State* %0, i64 0, i32 6, i32 11, i32 0, i32 0
  %RBP = getelementptr inbounds %struct.State, %struct.State* %0, i64 0, i32 6, i32 15, i32 0, i32 0
  %3 = load i64, i64* %RBP, align 8
  %4 = add i64 %3, -8
  %5 = load i64, i64* %RDI, align 8
  %6 = load i64, i64* %PC, align 8
  %7 = add i64 %6, 4
  store i64 %7, i64* %PC, align 8
  %8 = inttoptr i64 %4 to i64*
  store i64 %5, i64* %8, align 8
  ret %struct.Memory* %2
}

; Function Attrs: norecurse nounwind
define %struct.Memory* @routine_movl__esi__MINUS0xc__rbp_(%struct.State* nocapture dereferenceable(3376), i64, %struct.Memory* readnone returned) local_unnamed_addr #2 {
block_400488:
  %PC = getelementptr inbounds %struct.State, %struct.State* %0, i64 0, i32 6, i32 33, i32 0, i32 0
  %3 = getelementptr inbounds %struct.State, %struct.State* %0, i64 0, i32 6, i32 9, i32 0
  %ESI = bitcast %union.anon* %3 to i32*
  %RBP = getelementptr inbounds %struct.State, %struct.State* %0, i64 0, i32 6, i32 15, i32 0, i32 0
  %4 = load i64, i64* %RBP, align 8
  %5 = add i64 %4, -12
  %6 = load i32, i32* %ESI, align 4
  %7 = load i64, i64* %PC, align 8
  %8 = add i64 %7, 3
  store i64 %8, i64* %PC, align 8
  %9 = inttoptr i64 %5 to i32*
  store i32 %6, i32* %9, align 4
  ret %struct.Memory* %2
}

; Function Attrs: norecurse nounwind
define %struct.Memory* @routine_movq__rdx__MINUS0x18__rbp_(%struct.State* nocapture dereferenceable(3376), i64, %struct.Memory* readnone returned) local_unnamed_addr #2 {
block_400488:
  %PC = getelementptr inbounds %struct.State, %struct.State* %0, i64 0, i32 6, i32 33, i32 0, i32 0
  %RDX = getelementptr inbounds %struct.State, %struct.State* %0, i64 0, i32 6, i32 7, i32 0, i32 0
  %RBP = getelementptr inbounds %struct.State, %struct.State* %0, i64 0, i32 6, i32 15, i32 0, i32 0
  %3 = load i64, i64* %RBP, align 8
  %4 = add i64 %3, -24
  %5 = load i64, i64* %RDX, align 8
  %6 = load i64, i64* %PC, align 8
  %7 = add i64 %6, 4
  store i64 %7, i64* %PC, align 8
  %8 = inttoptr i64 %4 to i64*
  store i64 %5, i64* %8, align 8
  ret %struct.Memory* %2
}

; Function Attrs: norecurse nounwind
define %struct.Memory* @routine_callq_._Z11start_timerv(%struct.State* nocapture dereferenceable(3376), i64, %struct.Memory* readnone returned, i64 %rel_off1, i64 %rel_off2, i64 %rel_off3) local_unnamed_addr #2 {
block_400488:
  %PC = getelementptr inbounds %struct.State, %struct.State* %0, i64 0, i32 6, i32 33, i32 0, i32 0
  %3 = load i64, i64* %PC, align 8
  %4 = add i64 %3, %rel_off1
  %5 = add i64 %3, %rel_off2
  %6 = getelementptr inbounds %struct.State, %struct.State* %0, i64 0, i32 6, i32 13, i32 0, i32 0
  %7 = load i64, i64* %6, align 8
  %8 = add i64 %7, -8
  %9 = inttoptr i64 %8 to i64*
  store i64 %5, i64* %9, align 8
  store i64 %8, i64* %6, align 8
  store i64 %4, i64* %PC, align 8
  ret %struct.Memory* %2
}

; Function Attrs: norecurse nounwind
define %struct.Memory* @routine_movl__0x0__MINUS0x1c__rbp_(%struct.State* nocapture dereferenceable(3376), i64, %struct.Memory* readnone returned) local_unnamed_addr #2 {
block_400488:
  %PC = getelementptr inbounds %struct.State, %struct.State* %0, i64 0, i32 6, i32 33, i32 0, i32 0
  %RBP = getelementptr inbounds %struct.State, %struct.State* %0, i64 0, i32 6, i32 15, i32 0, i32 0
  %3 = load i64, i64* %RBP, align 8
  %4 = add i64 %3, -28
  %5 = load i64, i64* %PC, align 8
  %6 = add i64 %5, 7
  store i64 %6, i64* %PC, align 8
  %7 = inttoptr i64 %4 to i32*
  store i32 0, i32* %7, align 4
  ret %struct.Memory* %2
}

; Function Attrs: norecurse nounwind
define %struct.Memory* @routine_movl_MINUS0x1c__rbp____eax(%struct.State* nocapture dereferenceable(3376), i64, %struct.Memory* readnone returned) local_unnamed_addr #2 {
block_400488:
  %PC = getelementptr inbounds %struct.State, %struct.State* %0, i64 0, i32 6, i32 33, i32 0, i32 0
  %RAX = getelementptr inbounds %struct.State, %struct.State* %0, i64 0, i32 6, i32 1, i32 0, i32 0
  %RBP = getelementptr inbounds %struct.State, %struct.State* %0, i64 0, i32 6, i32 15, i32 0, i32 0
  %3 = load i64, i64* %RBP, align 8
  %4 = add i64 %3, -28
  %5 = load i64, i64* %PC, align 8
  %6 = add i64 %5, 3
  store i64 %6, i64* %PC, align 8
  %7 = inttoptr i64 %4 to i32*
  %8 = load i32, i32* %7, align 4
  %9 = zext i32 %8 to i64
  store i64 %9, i64* %RAX, align 8
  ret %struct.Memory* %2
}

; Function Attrs: nounwind
define %struct.Memory* @routine_cmpl_0x61c078___eax(%struct.State* nocapture dereferenceable(3376), i64, %struct.Memory* readnone returned) local_unnamed_addr #3 {
block_400488:
  %PC = getelementptr inbounds %struct.State, %struct.State* %0, i64 0, i32 6, i32 33, i32 0, i32 0
  %3 = getelementptr inbounds %struct.State, %struct.State* %0, i64 0, i32 6, i32 1, i32 0
  %EAX = bitcast %union.anon* %3 to i32*
  %4 = load i32, i32* %EAX, align 4
  %5 = load i64, i64* %PC, align 8
  %6 = add i64 %5, 7
  store i64 %6, i64* %PC, align 8
  %7 = load i32, i32* bitcast (%G_0x61c078_type* @G_0x61c078 to i32*), align 8
  %8 = sub i32 %4, %7
  %9 = icmp ult i32 %4, %7
  %10 = zext i1 %9 to i8
  %11 = getelementptr inbounds %struct.State, %struct.State* %0, i64 0, i32 2, i32 1
  store i8 %10, i8* %11, align 1
  %12 = and i32 %8, 255
  %13 = tail call i32 @llvm.ctpop.i32(i32 %12)
  %14 = trunc i32 %13 to i8
  %15 = and i8 %14, 1
  %16 = xor i8 %15, 1
  %17 = getelementptr inbounds %struct.State, %struct.State* %0, i64 0, i32 2, i32 3
  store i8 %16, i8* %17, align 1
  %18 = xor i32 %7, %4
  %19 = xor i32 %18, %8
  %20 = lshr i32 %19, 4
  %21 = trunc i32 %20 to i8
  %22 = and i8 %21, 1
  %23 = getelementptr inbounds %struct.State, %struct.State* %0, i64 0, i32 2, i32 5
  store i8 %22, i8* %23, align 1
  %24 = icmp eq i32 %8, 0
  %25 = zext i1 %24 to i8
  %26 = getelementptr inbounds %struct.State, %struct.State* %0, i64 0, i32 2, i32 7
  store i8 %25, i8* %26, align 1
  %27 = lshr i32 %8, 31
  %28 = trunc i32 %27 to i8
  %29 = getelementptr inbounds %struct.State, %struct.State* %0, i64 0, i32 2, i32 9
  store i8 %28, i8* %29, align 1
  %30 = lshr i32 %4, 31
  %31 = lshr i32 %7, 31
  %32 = xor i32 %31, %30
  %33 = xor i32 %27, %30
  %34 = add nuw nsw i32 %33, %32
  %35 = icmp eq i32 %34, 2
  %36 = zext i1 %35 to i8
  %37 = getelementptr inbounds %struct.State, %struct.State* %0, i64 0, i32 2, i32 13
  store i8 %36, i8* %37, align 1
  ret %struct.Memory* %2
}

; Function Attrs: norecurse nounwind
define %struct.Memory* @routine_jge_.L_414c97(%struct.State* nocapture dereferenceable(3376), i64, %struct.Memory* readnone returned, i8* nocapture %BRANCH_TAKEN, i64 %rel_off1, i64 %rel_off2, i64 %rel_off3) local_unnamed_addr #2 {
block_400488:
  %PC = getelementptr inbounds %struct.State, %struct.State* %0, i64 0, i32 6, i32 33, i32 0, i32 0
  %3 = load i64, i64* %PC, align 8
  %4 = getelementptr inbounds %struct.State, %struct.State* %0, i64 0, i32 2, i32 9
  %5 = load i8, i8* %4, align 1
  %6 = icmp ne i8 %5, 0
  %7 = getelementptr inbounds %struct.State, %struct.State* %0, i64 0, i32 2, i32 13
  %8 = load i8, i8* %7, align 1
  %9 = icmp ne i8 %8, 0
  %10 = xor i1 %6, %9
  %11 = xor i1 %10, true
  %12 = zext i1 %11 to i8
  store i8 %12, i8* %BRANCH_TAKEN, align 1
  %.v = select i1 %10, i64 %rel_off2, i64 %rel_off1
  %13 = add i64 %.v, %3
  store i64 %13, i64* %PC, align 8
  ret %struct.Memory* %2
}

; Function Attrs: norecurse nounwind
define %struct.Memory* @routine_movl__0x0__MINUS0x20__rbp_(%struct.State* nocapture dereferenceable(3376), i64, %struct.Memory* readnone returned) local_unnamed_addr #2 {
block_400488:
  %PC = getelementptr inbounds %struct.State, %struct.State* %0, i64 0, i32 6, i32 33, i32 0, i32 0
  %RBP = getelementptr inbounds %struct.State, %struct.State* %0, i64 0, i32 6, i32 15, i32 0, i32 0
  %3 = load i64, i64* %RBP, align 8
  %4 = add i64 %3, -32
  %5 = load i64, i64* %PC, align 8
  %6 = add i64 %5, 7
  store i64 %6, i64* %PC, align 8
  %7 = inttoptr i64 %4 to i32*
  store i32 0, i32* %7, align 4
  ret %struct.Memory* %2
}

; Function Attrs: norecurse nounwind
define %struct.Memory* @routine_movl__0x0__MINUS0x24__rbp_(%struct.State* nocapture dereferenceable(3376), i64, %struct.Memory* readnone returned) local_unnamed_addr #2 {
block_400488:
  %PC = getelementptr inbounds %struct.State, %struct.State* %0, i64 0, i32 6, i32 33, i32 0, i32 0
  %RBP = getelementptr inbounds %struct.State, %struct.State* %0, i64 0, i32 6, i32 15, i32 0, i32 0
  %3 = load i64, i64* %RBP, align 8
  %4 = add i64 %3, -36
  %5 = load i64, i64* %PC, align 8
  %6 = add i64 %5, 7
  store i64 %6, i64* %PC, align 8
  %7 = inttoptr i64 %4 to i32*
  store i32 0, i32* %7, align 4
  ret %struct.Memory* %2
}

; Function Attrs: norecurse nounwind
define %struct.Memory* @routine_movl_MINUS0x24__rbp____eax(%struct.State* nocapture dereferenceable(3376), i64, %struct.Memory* readnone returned) local_unnamed_addr #2 {
block_400488:
  %PC = getelementptr inbounds %struct.State, %struct.State* %0, i64 0, i32 6, i32 33, i32 0, i32 0
  %RAX = getelementptr inbounds %struct.State, %struct.State* %0, i64 0, i32 6, i32 1, i32 0, i32 0
  %RBP = getelementptr inbounds %struct.State, %struct.State* %0, i64 0, i32 6, i32 15, i32 0, i32 0
  %3 = load i64, i64* %RBP, align 8
  %4 = add i64 %3, -36
  %5 = load i64, i64* %PC, align 8
  %6 = add i64 %5, 3
  store i64 %6, i64* %PC, align 8
  %7 = inttoptr i64 %4 to i32*
  %8 = load i32, i32* %7, align 4
  %9 = zext i32 %8 to i64
  store i64 %9, i64* %RAX, align 8
  ret %struct.Memory* %2
}

; Function Attrs: norecurse nounwind
define %struct.Memory* @routine_movl_MINUS0xc__rbp____ecx(%struct.State* nocapture dereferenceable(3376), i64, %struct.Memory* readnone returned) local_unnamed_addr #2 {
block_400488:
  %PC = getelementptr inbounds %struct.State, %struct.State* %0, i64 0, i32 6, i32 33, i32 0, i32 0
  %RCX = getelementptr inbounds %struct.State, %struct.State* %0, i64 0, i32 6, i32 5, i32 0, i32 0
  %RBP = getelementptr inbounds %struct.State, %struct.State* %0, i64 0, i32 6, i32 15, i32 0, i32 0
  %3 = load i64, i64* %RBP, align 8
  %4 = add i64 %3, -12
  %5 = load i64, i64* %PC, align 8
  %6 = add i64 %5, 3
  store i64 %6, i64* %PC, align 8
  %7 = inttoptr i64 %4 to i32*
  %8 = load i32, i32* %7, align 4
  %9 = zext i32 %8 to i64
  store i64 %9, i64* %RCX, align 8
  ret %struct.Memory* %2
}

; Function Attrs: nounwind
define %struct.Memory* @routine_subl__0x16___ecx(%struct.State* nocapture dereferenceable(3376), i64, %struct.Memory* readnone returned) local_unnamed_addr #3 {
block_400488:
  %PC = getelementptr inbounds %struct.State, %struct.State* %0, i64 0, i32 6, i32 33, i32 0, i32 0
  %RCX = getelementptr inbounds %struct.State, %struct.State* %0, i64 0, i32 6, i32 5, i32 0, i32 0
  %3 = load i64, i64* %RCX, align 8
  %4 = load i64, i64* %PC, align 8
  %5 = add i64 %4, 3
  store i64 %5, i64* %PC, align 8
  %6 = trunc i64 %3 to i32
  %7 = add i32 %6, -22
  %8 = zext i32 %7 to i64
  store i64 %8, i64* %RCX, align 8
  %9 = icmp ult i32 %6, 22
  %10 = zext i1 %9 to i8
  %11 = getelementptr inbounds %struct.State, %struct.State* %0, i64 0, i32 2, i32 1
  store i8 %10, i8* %11, align 1
  %12 = and i32 %7, 255
  %13 = tail call i32 @llvm.ctpop.i32(i32 %12)
  %14 = trunc i32 %13 to i8
  %15 = and i8 %14, 1
  %16 = xor i8 %15, 1
  %17 = getelementptr inbounds %struct.State, %struct.State* %0, i64 0, i32 2, i32 3
  store i8 %16, i8* %17, align 1
  %18 = xor i32 %6, 16
  %19 = xor i32 %18, %7
  %20 = lshr i32 %19, 4
  %21 = trunc i32 %20 to i8
  %22 = and i8 %21, 1
  %23 = getelementptr inbounds %struct.State, %struct.State* %0, i64 0, i32 2, i32 5
  store i8 %22, i8* %23, align 1
  %24 = icmp eq i32 %7, 0
  %25 = zext i1 %24 to i8
  %26 = getelementptr inbounds %struct.State, %struct.State* %0, i64 0, i32 2, i32 7
  store i8 %25, i8* %26, align 1
  %27 = lshr i32 %7, 31
  %28 = trunc i32 %27 to i8
  %29 = getelementptr inbounds %struct.State, %struct.State* %0, i64 0, i32 2, i32 9
  store i8 %28, i8* %29, align 1
  %30 = lshr i32 %6, 31
  %31 = xor i32 %27, %30
  %32 = add nuw nsw i32 %31, %30
  %33 = icmp eq i32 %32, 2
  %34 = zext i1 %33 to i8
  %35 = getelementptr inbounds %struct.State, %struct.State* %0, i64 0, i32 2, i32 13
  store i8 %34, i8* %35, align 1
  ret %struct.Memory* %2
}

; Function Attrs: nounwind
define %struct.Memory* @routine_cmpl__ecx___eax(%struct.State* nocapture dereferenceable(3376), i64, %struct.Memory* readnone returned) local_unnamed_addr #3 {
block_400488:
  %PC = getelementptr inbounds %struct.State, %struct.State* %0, i64 0, i32 6, i32 33, i32 0, i32 0
  %3 = getelementptr inbounds %struct.State, %struct.State* %0, i64 0, i32 6, i32 1, i32 0
  %EAX = bitcast %union.anon* %3 to i32*
  %4 = getelementptr inbounds %struct.State, %struct.State* %0, i64 0, i32 6, i32 5, i32 0
  %ECX = bitcast %union.anon* %4 to i32*
  %5 = load i32, i32* %EAX, align 4
  %6 = load i32, i32* %ECX, align 4
  %7 = load i64, i64* %PC, align 8
  %8 = add i64 %7, 2
  store i64 %8, i64* %PC, align 8
  %9 = sub i32 %5, %6
  %10 = icmp ult i32 %5, %6
  %11 = zext i1 %10 to i8
  %12 = getelementptr inbounds %struct.State, %struct.State* %0, i64 0, i32 2, i32 1
  store i8 %11, i8* %12, align 1
  %13 = and i32 %9, 255
  %14 = tail call i32 @llvm.ctpop.i32(i32 %13)
  %15 = trunc i32 %14 to i8
  %16 = and i8 %15, 1
  %17 = xor i8 %16, 1
  %18 = getelementptr inbounds %struct.State, %struct.State* %0, i64 0, i32 2, i32 3
  store i8 %17, i8* %18, align 1
  %19 = xor i32 %6, %5
  %20 = xor i32 %19, %9
  %21 = lshr i32 %20, 4
  %22 = trunc i32 %21 to i8
  %23 = and i8 %22, 1
  %24 = getelementptr inbounds %struct.State, %struct.State* %0, i64 0, i32 2, i32 5
  store i8 %23, i8* %24, align 1
  %25 = icmp eq i32 %9, 0
  %26 = zext i1 %25 to i8
  %27 = getelementptr inbounds %struct.State, %struct.State* %0, i64 0, i32 2, i32 7
  store i8 %26, i8* %27, align 1
  %28 = lshr i32 %9, 31
  %29 = trunc i32 %28 to i8
  %30 = getelementptr inbounds %struct.State, %struct.State* %0, i64 0, i32 2, i32 9
  store i8 %29, i8* %30, align 1
  %31 = lshr i32 %5, 31
  %32 = lshr i32 %6, 31
  %33 = xor i32 %32, %31
  %34 = xor i32 %28, %31
  %35 = add nuw nsw i32 %34, %33
  %36 = icmp eq i32 %35, 2
  %37 = zext i1 %36 to i8
  %38 = getelementptr inbounds %struct.State, %struct.State* %0, i64 0, i32 2, i32 13
  store i8 %37, i8* %38, align 1
  ret %struct.Memory* %2
}

; Function Attrs: norecurse nounwind
define %struct.Memory* @routine_jge_.L_414c4c(%struct.State* nocapture dereferenceable(3376), i64, %struct.Memory* readnone returned, i8* nocapture %BRANCH_TAKEN, i64 %rel_off1, i64 %rel_off2, i64 %rel_off3) local_unnamed_addr #2 {
block_400488:
  %PC = getelementptr inbounds %struct.State, %struct.State* %0, i64 0, i32 6, i32 33, i32 0, i32 0
  %3 = load i64, i64* %PC, align 8
  %4 = getelementptr inbounds %struct.State, %struct.State* %0, i64 0, i32 2, i32 9
  %5 = load i8, i8* %4, align 1
  %6 = icmp ne i8 %5, 0
  %7 = getelementptr inbounds %struct.State, %struct.State* %0, i64 0, i32 2, i32 13
  %8 = load i8, i8* %7, align 1
  %9 = icmp ne i8 %8, 0
  %10 = xor i1 %6, %9
  %11 = xor i1 %10, true
  %12 = zext i1 %11 to i8
  store i8 %12, i8* %BRANCH_TAKEN, align 1
  %.v = select i1 %10, i64 %rel_off2, i64 %rel_off1
  %13 = add i64 %.v, %3
  store i64 %13, i64* %PC, align 8
  ret %struct.Memory* %2
}

; Function Attrs: norecurse nounwind
define %struct.Memory* @routine_leaq_MINUS0x20__rbp____rdi(%struct.State* nocapture dereferenceable(3376), i64, %struct.Memory* readnone returned) local_unnamed_addr #2 {
block_400488:
  %PC = getelementptr inbounds %struct.State, %struct.State* %0, i64 0, i32 6, i32 33, i32 0, i32 0
  %RDI = getelementptr inbounds %struct.State, %struct.State* %0, i64 0, i32 6, i32 11, i32 0, i32 0
  %RBP = getelementptr inbounds %struct.State, %struct.State* %0, i64 0, i32 6, i32 15, i32 0, i32 0
  %3 = load i64, i64* %RBP, align 8
  %4 = add i64 %3, -32
  %5 = load i64, i64* %PC, align 8
  %6 = add i64 %5, 4
  store i64 %6, i64* %PC, align 8
  store i64 %4, i64* %RDI, align 8
  ret %struct.Memory* %2
}

; Function Attrs: norecurse nounwind
define %struct.Memory* @routine_movq_MINUS0x8__rbp____rsi(%struct.State* nocapture dereferenceable(3376), i64, %struct.Memory* readnone returned) local_unnamed_addr #2 {
block_400488:
  %PC = getelementptr inbounds %struct.State, %struct.State* %0, i64 0, i32 6, i32 33, i32 0, i32 0
  %RSI = getelementptr inbounds %struct.State, %struct.State* %0, i64 0, i32 6, i32 9, i32 0, i32 0
  %RBP = getelementptr inbounds %struct.State, %struct.State* %0, i64 0, i32 6, i32 15, i32 0, i32 0
  %3 = load i64, i64* %RBP, align 8
  %4 = add i64 %3, -8
  %5 = load i64, i64* %PC, align 8
  %6 = add i64 %5, 4
  store i64 %6, i64* %PC, align 8
  %7 = inttoptr i64 %4 to i64*
  %8 = load i64, i64* %7, align 8
  store i64 %8, i64* %RSI, align 8
  ret %struct.Memory* %2
}

; Function Attrs: norecurse nounwind
define %struct.Memory* @routine_movl_MINUS0x24__rbp____edx(%struct.State* nocapture dereferenceable(3376), i64, %struct.Memory* readnone returned) local_unnamed_addr #2 {
block_400488:
  %PC = getelementptr inbounds %struct.State, %struct.State* %0, i64 0, i32 6, i32 33, i32 0, i32 0
  %RDX = getelementptr inbounds %struct.State, %struct.State* %0, i64 0, i32 6, i32 7, i32 0, i32 0
  %RBP = getelementptr inbounds %struct.State, %struct.State* %0, i64 0, i32 6, i32 15, i32 0, i32 0
  %3 = load i64, i64* %RBP, align 8
  %4 = add i64 %3, -36
  %5 = load i64, i64* %PC, align 8
  %6 = add i64 %5, 3
  store i64 %6, i64* %PC, align 8
  %7 = inttoptr i64 %4 to i32*
  %8 = load i32, i32* %7, align 4
  %9 = zext i32 %8 to i64
  store i64 %9, i64* %RDX, align 8
  ret %struct.Memory* %2
}

; Function Attrs: norecurse nounwind
define %struct.Memory* @routine_callq_._ZN15loop_inner_bodyILi23EiE7do_workERiPKii(%struct.State* nocapture dereferenceable(3376), i64, %struct.Memory* readnone returned, i64 %rel_off1, i64 %rel_off2, i64 %rel_off3) local_unnamed_addr #2 {
block_400488:
  %PC = getelementptr inbounds %struct.State, %struct.State* %0, i64 0, i32 6, i32 33, i32 0, i32 0
  %3 = load i64, i64* %PC, align 8
  %4 = add i64 %3, %rel_off1
  %5 = add i64 %3, %rel_off2
  %6 = getelementptr inbounds %struct.State, %struct.State* %0, i64 0, i32 6, i32 13, i32 0, i32 0
  %7 = load i64, i64* %6, align 8
  %8 = add i64 %7, -8
  %9 = inttoptr i64 %8 to i64*
  store i64 %5, i64* %9, align 8
  store i64 %8, i64* %6, align 8
  store i64 %4, i64* %PC, align 8
  ret %struct.Memory* %2
}

; Function Attrs: nounwind
define %struct.Memory* @routine_addl__0x17___eax(%struct.State* nocapture dereferenceable(3376), i64, %struct.Memory* readnone returned) local_unnamed_addr #3 {
block_400488:
  %PC = getelementptr inbounds %struct.State, %struct.State* %0, i64 0, i32 6, i32 33, i32 0, i32 0
  %RAX = getelementptr inbounds %struct.State, %struct.State* %0, i64 0, i32 6, i32 1, i32 0, i32 0
  %3 = load i64, i64* %RAX, align 8
  %4 = load i64, i64* %PC, align 8
  %5 = add i64 %4, 3
  store i64 %5, i64* %PC, align 8
  %6 = trunc i64 %3 to i32
  %7 = add i32 %6, 23
  %8 = zext i32 %7 to i64
  store i64 %8, i64* %RAX, align 8
  %9 = icmp ugt i32 %6, -24
  %10 = zext i1 %9 to i8
  %11 = getelementptr inbounds %struct.State, %struct.State* %0, i64 0, i32 2, i32 1
  store i8 %10, i8* %11, align 1
  %12 = and i32 %7, 255
  %13 = tail call i32 @llvm.ctpop.i32(i32 %12)
  %14 = trunc i32 %13 to i8
  %15 = and i8 %14, 1
  %16 = xor i8 %15, 1
  %17 = getelementptr inbounds %struct.State, %struct.State* %0, i64 0, i32 2, i32 3
  store i8 %16, i8* %17, align 1
  %18 = xor i32 %6, 16
  %19 = xor i32 %18, %7
  %20 = lshr i32 %19, 4
  %21 = trunc i32 %20 to i8
  %22 = and i8 %21, 1
  %23 = getelementptr inbounds %struct.State, %struct.State* %0, i64 0, i32 2, i32 5
  store i8 %22, i8* %23, align 1
  %24 = icmp eq i32 %7, 0
  %25 = zext i1 %24 to i8
  %26 = getelementptr inbounds %struct.State, %struct.State* %0, i64 0, i32 2, i32 7
  store i8 %25, i8* %26, align 1
  %27 = lshr i32 %7, 31
  %28 = trunc i32 %27 to i8
  %29 = getelementptr inbounds %struct.State, %struct.State* %0, i64 0, i32 2, i32 9
  store i8 %28, i8* %29, align 1
  %30 = lshr i32 %6, 31
  %31 = xor i32 %27, %30
  %32 = add nuw nsw i32 %31, %27
  %33 = icmp eq i32 %32, 2
  %34 = zext i1 %33 to i8
  %35 = getelementptr inbounds %struct.State, %struct.State* %0, i64 0, i32 2, i32 13
  store i8 %34, i8* %35, align 1
  ret %struct.Memory* %2
}

; Function Attrs: norecurse nounwind
define %struct.Memory* @routine_movl__eax__MINUS0x24__rbp_(%struct.State* nocapture dereferenceable(3376), i64, %struct.Memory* readnone returned) local_unnamed_addr #2 {
block_400488:
  %PC = getelementptr inbounds %struct.State, %struct.State* %0, i64 0, i32 6, i32 33, i32 0, i32 0
  %3 = getelementptr inbounds %struct.State, %struct.State* %0, i64 0, i32 6, i32 1, i32 0
  %EAX = bitcast %union.anon* %3 to i32*
  %RBP = getelementptr inbounds %struct.State, %struct.State* %0, i64 0, i32 6, i32 15, i32 0, i32 0
  %4 = load i64, i64* %RBP, align 8
  %5 = add i64 %4, -36
  %6 = load i32, i32* %EAX, align 4
  %7 = load i64, i64* %PC, align 8
  %8 = add i64 %7, 3
  store i64 %8, i64* %PC, align 8
  %9 = inttoptr i64 %5 to i32*
  store i32 %6, i32* %9, align 4
  ret %struct.Memory* %2
}

; Function Attrs: norecurse nounwind
define %struct.Memory* @routine_jmpq_.L_414c1d(%struct.State* nocapture dereferenceable(3376), i64, %struct.Memory* readnone returned, i64 %rel_off1, i64 %rel_off2) local_unnamed_addr #2 {
block_400488:
  %PC = getelementptr inbounds %struct.State, %struct.State* %0, i64 0, i32 6, i32 33, i32 0, i32 0
  %3 = load i64, i64* %PC, align 8
  %4 = add i64 %3, %rel_off1
  store i64 %4, i64* %PC, align 8
  ret %struct.Memory* %2
}

; Function Attrs: norecurse nounwind
define %struct.Memory* @routine_jmpq_.L_414c51(%struct.State* nocapture dereferenceable(3376), i64, %struct.Memory* readnone returned, i64 %rel_off1, i64 %rel_off2) local_unnamed_addr #2 {
block_400488:
  %PC = getelementptr inbounds %struct.State, %struct.State* %0, i64 0, i32 6, i32 33, i32 0, i32 0
  %3 = load i64, i64* %PC, align 8
  %4 = add i64 %3, %rel_off1
  store i64 %4, i64* %PC, align 8
  ret %struct.Memory* %2
}

; Function Attrs: nounwind
define %struct.Memory* @routine_cmpl_MINUS0xc__rbp____eax(%struct.State* nocapture dereferenceable(3376), i64, %struct.Memory* readnone returned) local_unnamed_addr #3 {
block_400488:
  %PC = getelementptr inbounds %struct.State, %struct.State* %0, i64 0, i32 6, i32 33, i32 0, i32 0
  %3 = getelementptr inbounds %struct.State, %struct.State* %0, i64 0, i32 6, i32 1, i32 0
  %EAX = bitcast %union.anon* %3 to i32*
  %RBP = getelementptr inbounds %struct.State, %struct.State* %0, i64 0, i32 6, i32 15, i32 0, i32 0
  %4 = load i32, i32* %EAX, align 4
  %5 = load i64, i64* %RBP, align 8
  %6 = add i64 %5, -12
  %7 = load i64, i64* %PC, align 8
  %8 = add i64 %7, 3
  store i64 %8, i64* %PC, align 8
  %9 = inttoptr i64 %6 to i32*
  %10 = load i32, i32* %9, align 4
  %11 = sub i32 %4, %10
  %12 = icmp ult i32 %4, %10
  %13 = zext i1 %12 to i8
  %14 = getelementptr inbounds %struct.State, %struct.State* %0, i64 0, i32 2, i32 1
  store i8 %13, i8* %14, align 1
  %15 = and i32 %11, 255
  %16 = tail call i32 @llvm.ctpop.i32(i32 %15)
  %17 = trunc i32 %16 to i8
  %18 = and i8 %17, 1
  %19 = xor i8 %18, 1
  %20 = getelementptr inbounds %struct.State, %struct.State* %0, i64 0, i32 2, i32 3
  store i8 %19, i8* %20, align 1
  %21 = xor i32 %10, %4
  %22 = xor i32 %21, %11
  %23 = lshr i32 %22, 4
  %24 = trunc i32 %23 to i8
  %25 = and i8 %24, 1
  %26 = getelementptr inbounds %struct.State, %struct.State* %0, i64 0, i32 2, i32 5
  store i8 %25, i8* %26, align 1
  %27 = icmp eq i32 %11, 0
  %28 = zext i1 %27 to i8
  %29 = getelementptr inbounds %struct.State, %struct.State* %0, i64 0, i32 2, i32 7
  store i8 %28, i8* %29, align 1
  %30 = lshr i32 %11, 31
  %31 = trunc i32 %30 to i8
  %32 = getelementptr inbounds %struct.State, %struct.State* %0, i64 0, i32 2, i32 9
  store i8 %31, i8* %32, align 1
  %33 = lshr i32 %4, 31
  %34 = lshr i32 %10, 31
  %35 = xor i32 %34, %33
  %36 = xor i32 %30, %33
  %37 = add nuw nsw i32 %36, %35
  %38 = icmp eq i32 %37, 2
  %39 = zext i1 %38 to i8
  %40 = getelementptr inbounds %struct.State, %struct.State* %0, i64 0, i32 2, i32 13
  store i8 %39, i8* %40, align 1
  ret %struct.Memory* %2
}

; Function Attrs: norecurse nounwind
define %struct.Memory* @routine_jge_.L_414c81(%struct.State* nocapture dereferenceable(3376), i64, %struct.Memory* readnone returned, i8* nocapture %BRANCH_TAKEN, i64 %rel_off1, i64 %rel_off2, i64 %rel_off3) local_unnamed_addr #2 {
block_400488:
  %PC = getelementptr inbounds %struct.State, %struct.State* %0, i64 0, i32 6, i32 33, i32 0, i32 0
  %3 = load i64, i64* %PC, align 8
  %4 = getelementptr inbounds %struct.State, %struct.State* %0, i64 0, i32 2, i32 9
  %5 = load i8, i8* %4, align 1
  %6 = icmp ne i8 %5, 0
  %7 = getelementptr inbounds %struct.State, %struct.State* %0, i64 0, i32 2, i32 13
  %8 = load i8, i8* %7, align 1
  %9 = icmp ne i8 %8, 0
  %10 = xor i1 %6, %9
  %11 = xor i1 %10, true
  %12 = zext i1 %11 to i8
  store i8 %12, i8* %BRANCH_TAKEN, align 1
  %.v = select i1 %10, i64 %rel_off2, i64 %rel_off1
  %13 = add i64 %.v, %3
  store i64 %13, i64* %PC, align 8
  ret %struct.Memory* %2
}

; Function Attrs: norecurse nounwind
define %struct.Memory* @routine_movq_MINUS0x8__rbp____rax(%struct.State* nocapture dereferenceable(3376), i64, %struct.Memory* readnone returned) local_unnamed_addr #2 {
block_400488:
  %PC = getelementptr inbounds %struct.State, %struct.State* %0, i64 0, i32 6, i32 33, i32 0, i32 0
  %RAX = getelementptr inbounds %struct.State, %struct.State* %0, i64 0, i32 6, i32 1, i32 0, i32 0
  %RBP = getelementptr inbounds %struct.State, %struct.State* %0, i64 0, i32 6, i32 15, i32 0, i32 0
  %3 = load i64, i64* %RBP, align 8
  %4 = add i64 %3, -8
  %5 = load i64, i64* %PC, align 8
  %6 = add i64 %5, 4
  store i64 %6, i64* %PC, align 8
  %7 = inttoptr i64 %4 to i64*
  %8 = load i64, i64* %7, align 8
  store i64 %8, i64* %RAX, align 8
  ret %struct.Memory* %2
}

; Function Attrs: norecurse nounwind
define %struct.Memory* @routine_movslq_MINUS0x24__rbp____rcx(%struct.State* nocapture dereferenceable(3376), i64, %struct.Memory* readnone returned) local_unnamed_addr #2 {
block_400488:
  %PC = getelementptr inbounds %struct.State, %struct.State* %0, i64 0, i32 6, i32 33, i32 0, i32 0
  %RCX = getelementptr inbounds %struct.State, %struct.State* %0, i64 0, i32 6, i32 5, i32 0, i32 0
  %RBP = getelementptr inbounds %struct.State, %struct.State* %0, i64 0, i32 6, i32 15, i32 0, i32 0
  %3 = load i64, i64* %RBP, align 8
  %4 = add i64 %3, -36
  %5 = load i64, i64* %PC, align 8
  %6 = add i64 %5, 4
  store i64 %6, i64* %PC, align 8
  %7 = inttoptr i64 %4 to i32*
  %8 = load i32, i32* %7, align 4
  %9 = sext i32 %8 to i64
  store i64 %9, i64* %RCX, align 8
  ret %struct.Memory* %2
}

; Function Attrs: norecurse nounwind
define %struct.Memory* @routine_movl___rax__rcx_4____edi(%struct.State* nocapture dereferenceable(3376), i64, %struct.Memory* readnone returned) local_unnamed_addr #2 {
block_400488:
  %PC = getelementptr inbounds %struct.State, %struct.State* %0, i64 0, i32 6, i32 33, i32 0, i32 0
  %RAX = getelementptr inbounds %struct.State, %struct.State* %0, i64 0, i32 6, i32 1, i32 0, i32 0
  %RCX = getelementptr inbounds %struct.State, %struct.State* %0, i64 0, i32 6, i32 5, i32 0, i32 0
  %RDI = getelementptr inbounds %struct.State, %struct.State* %0, i64 0, i32 6, i32 11, i32 0, i32 0
  %3 = load i64, i64* %RAX, align 8
  %4 = load i64, i64* %RCX, align 8
  %5 = shl i64 %4, 2
  %6 = add i64 %5, %3
  %7 = load i64, i64* %PC, align 8
  %8 = add i64 %7, 3
  store i64 %8, i64* %PC, align 8
  %9 = inttoptr i64 %6 to i32*
  %10 = load i32, i32* %9, align 4
  %11 = zext i32 %10 to i64
  store i64 %11, i64* %RDI, align 8
  ret %struct.Memory* %2
}

; Function Attrs: norecurse nounwind
define %struct.Memory* @routine_callq_._Z18complete_hash_funcIiET_S0_(%struct.State* nocapture dereferenceable(3376), i64, %struct.Memory* readnone returned, i64 %rel_off1, i64 %rel_off2, i64 %rel_off3) local_unnamed_addr #2 {
block_400488:
  %PC = getelementptr inbounds %struct.State, %struct.State* %0, i64 0, i32 6, i32 33, i32 0, i32 0
  %3 = load i64, i64* %PC, align 8
  %4 = add i64 %3, %rel_off1
  %5 = add i64 %3, %rel_off2
  %6 = getelementptr inbounds %struct.State, %struct.State* %0, i64 0, i32 6, i32 13, i32 0, i32 0
  %7 = load i64, i64* %6, align 8
  %8 = add i64 %7, -8
  %9 = inttoptr i64 %8 to i64*
  store i64 %5, i64* %9, align 8
  store i64 %8, i64* %6, align 8
  store i64 %4, i64* %PC, align 8
  ret %struct.Memory* %2
}

; Function Attrs: nounwind
define %struct.Memory* @routine_addl_MINUS0x20__rbp____eax(%struct.State* nocapture dereferenceable(3376), i64, %struct.Memory* readnone returned) local_unnamed_addr #3 {
block_400488:
  %PC = getelementptr inbounds %struct.State, %struct.State* %0, i64 0, i32 6, i32 33, i32 0, i32 0
  %RAX = getelementptr inbounds %struct.State, %struct.State* %0, i64 0, i32 6, i32 1, i32 0, i32 0
  %RBP = getelementptr inbounds %struct.State, %struct.State* %0, i64 0, i32 6, i32 15, i32 0, i32 0
  %3 = load i64, i64* %RAX, align 8
  %4 = load i64, i64* %RBP, align 8
  %5 = add i64 %4, -32
  %6 = load i64, i64* %PC, align 8
  %7 = add i64 %6, 3
  store i64 %7, i64* %PC, align 8
  %8 = trunc i64 %3 to i32
  %9 = inttoptr i64 %5 to i32*
  %10 = load i32, i32* %9, align 4
  %11 = add i32 %10, %8
  %12 = zext i32 %11 to i64
  store i64 %12, i64* %RAX, align 8
  %13 = icmp ult i32 %11, %8
  %14 = icmp ult i32 %11, %10
  %15 = or i1 %13, %14
  %16 = zext i1 %15 to i8
  %17 = getelementptr inbounds %struct.State, %struct.State* %0, i64 0, i32 2, i32 1
  store i8 %16, i8* %17, align 1
  %18 = and i32 %11, 255
  %19 = tail call i32 @llvm.ctpop.i32(i32 %18)
  %20 = trunc i32 %19 to i8
  %21 = and i8 %20, 1
  %22 = xor i8 %21, 1
  %23 = getelementptr inbounds %struct.State, %struct.State* %0, i64 0, i32 2, i32 3
  store i8 %22, i8* %23, align 1
  %24 = xor i32 %10, %8
  %25 = xor i32 %24, %11
  %26 = lshr i32 %25, 4
  %27 = trunc i32 %26 to i8
  %28 = and i8 %27, 1
  %29 = getelementptr inbounds %struct.State, %struct.State* %0, i64 0, i32 2, i32 5
  store i8 %28, i8* %29, align 1
  %30 = icmp eq i32 %11, 0
  %31 = zext i1 %30 to i8
  %32 = getelementptr inbounds %struct.State, %struct.State* %0, i64 0, i32 2, i32 7
  store i8 %31, i8* %32, align 1
  %33 = lshr i32 %11, 31
  %34 = trunc i32 %33 to i8
  %35 = getelementptr inbounds %struct.State, %struct.State* %0, i64 0, i32 2, i32 9
  store i8 %34, i8* %35, align 1
  %36 = lshr i32 %8, 31
  %37 = lshr i32 %10, 31
  %38 = xor i32 %33, %36
  %39 = xor i32 %33, %37
  %40 = add nuw nsw i32 %38, %39
  %41 = icmp eq i32 %40, 2
  %42 = zext i1 %41 to i8
  %43 = getelementptr inbounds %struct.State, %struct.State* %0, i64 0, i32 2, i32 13
  store i8 %42, i8* %43, align 1
  ret %struct.Memory* %2
}

; Function Attrs: norecurse nounwind
define %struct.Memory* @routine_movl__eax__MINUS0x20__rbp_(%struct.State* nocapture dereferenceable(3376), i64, %struct.Memory* readnone returned) local_unnamed_addr #2 {
block_400488:
  %PC = getelementptr inbounds %struct.State, %struct.State* %0, i64 0, i32 6, i32 33, i32 0, i32 0
  %3 = getelementptr inbounds %struct.State, %struct.State* %0, i64 0, i32 6, i32 1, i32 0
  %EAX = bitcast %union.anon* %3 to i32*
  %RBP = getelementptr inbounds %struct.State, %struct.State* %0, i64 0, i32 6, i32 15, i32 0, i32 0
  %4 = load i64, i64* %RBP, align 8
  %5 = add i64 %4, -32
  %6 = load i32, i32* %EAX, align 4
  %7 = load i64, i64* %PC, align 8
  %8 = add i64 %7, 3
  store i64 %8, i64* %PC, align 8
  %9 = inttoptr i64 %5 to i32*
  store i32 %6, i32* %9, align 4
  ret %struct.Memory* %2
}

; Function Attrs: nounwind
define %struct.Memory* @routine_addl__0x1___eax(%struct.State* nocapture dereferenceable(3376), i64, %struct.Memory* readnone returned) local_unnamed_addr #3 {
block_400488:
  %PC = getelementptr inbounds %struct.State, %struct.State* %0, i64 0, i32 6, i32 33, i32 0, i32 0
  %RAX = getelementptr inbounds %struct.State, %struct.State* %0, i64 0, i32 6, i32 1, i32 0, i32 0
  %3 = load i64, i64* %RAX, align 8
  %4 = load i64, i64* %PC, align 8
  %5 = add i64 %4, 3
  store i64 %5, i64* %PC, align 8
  %6 = trunc i64 %3 to i32
  %7 = add i32 %6, 1
  %8 = zext i32 %7 to i64
  store i64 %8, i64* %RAX, align 8
  %9 = icmp eq i32 %6, -1
  %10 = icmp eq i32 %7, 0
  %11 = or i1 %9, %10
  %12 = zext i1 %11 to i8
  %13 = getelementptr inbounds %struct.State, %struct.State* %0, i64 0, i32 2, i32 1
  store i8 %12, i8* %13, align 1
  %14 = and i32 %7, 255
  %15 = tail call i32 @llvm.ctpop.i32(i32 %14)
  %16 = trunc i32 %15 to i8
  %17 = and i8 %16, 1
  %18 = xor i8 %17, 1
  %19 = getelementptr inbounds %struct.State, %struct.State* %0, i64 0, i32 2, i32 3
  store i8 %18, i8* %19, align 1
  %20 = xor i32 %7, %6
  %21 = lshr i32 %20, 4
  %22 = trunc i32 %21 to i8
  %23 = and i8 %22, 1
  %24 = getelementptr inbounds %struct.State, %struct.State* %0, i64 0, i32 2, i32 5
  store i8 %23, i8* %24, align 1
  %25 = zext i1 %10 to i8
  %26 = getelementptr inbounds %struct.State, %struct.State* %0, i64 0, i32 2, i32 7
  store i8 %25, i8* %26, align 1
  %27 = lshr i32 %7, 31
  %28 = trunc i32 %27 to i8
  %29 = getelementptr inbounds %struct.State, %struct.State* %0, i64 0, i32 2, i32 9
  store i8 %28, i8* %29, align 1
  %30 = lshr i32 %6, 31
  %31 = xor i32 %27, %30
  %32 = add nuw nsw i32 %31, %27
  %33 = icmp eq i32 %32, 2
  %34 = zext i1 %33 to i8
  %35 = getelementptr inbounds %struct.State, %struct.State* %0, i64 0, i32 2, i32 13
  store i8 %34, i8* %35, align 1
  ret %struct.Memory* %2
}

; Function Attrs: norecurse nounwind
define %struct.Memory* @routine_movl_MINUS0x20__rbp____edi(%struct.State* nocapture dereferenceable(3376), i64, %struct.Memory* readnone returned) local_unnamed_addr #2 {
block_400488:
  %PC = getelementptr inbounds %struct.State, %struct.State* %0, i64 0, i32 6, i32 33, i32 0, i32 0
  %RDI = getelementptr inbounds %struct.State, %struct.State* %0, i64 0, i32 6, i32 11, i32 0, i32 0
  %RBP = getelementptr inbounds %struct.State, %struct.State* %0, i64 0, i32 6, i32 15, i32 0, i32 0
  %3 = load i64, i64* %RBP, align 8
  %4 = add i64 %3, -32
  %5 = load i64, i64* %PC, align 8
  %6 = add i64 %5, 3
  store i64 %6, i64* %PC, align 8
  %7 = inttoptr i64 %4 to i32*
  %8 = load i32, i32* %7, align 4
  %9 = zext i32 %8 to i64
  store i64 %9, i64* %RDI, align 8
  ret %struct.Memory* %2
}

; Function Attrs: norecurse nounwind
define %struct.Memory* @routine_callq_._Z9check_sumIiEvT_(%struct.State* nocapture dereferenceable(3376), i64, %struct.Memory* readnone returned, i64 %rel_off1, i64 %rel_off2, i64 %rel_off3) local_unnamed_addr #2 {
block_400488:
  %PC = getelementptr inbounds %struct.State, %struct.State* %0, i64 0, i32 6, i32 33, i32 0, i32 0
  %3 = load i64, i64* %PC, align 8
  %4 = add i64 %3, %rel_off1
  %5 = add i64 %3, %rel_off2
  %6 = getelementptr inbounds %struct.State, %struct.State* %0, i64 0, i32 6, i32 13, i32 0, i32 0
  %7 = load i64, i64* %6, align 8
  %8 = add i64 %7, -8
  %9 = inttoptr i64 %8 to i64*
  store i64 %5, i64* %9, align 8
  store i64 %8, i64* %6, align 8
  store i64 %4, i64* %PC, align 8
  ret %struct.Memory* %2
}

; Function Attrs: norecurse nounwind
define %struct.Memory* @routine_movl__eax__MINUS0x1c__rbp_(%struct.State* nocapture dereferenceable(3376), i64, %struct.Memory* readnone returned) local_unnamed_addr #2 {
block_400488:
  %PC = getelementptr inbounds %struct.State, %struct.State* %0, i64 0, i32 6, i32 33, i32 0, i32 0
  %3 = getelementptr inbounds %struct.State, %struct.State* %0, i64 0, i32 6, i32 1, i32 0
  %EAX = bitcast %union.anon* %3 to i32*
  %RBP = getelementptr inbounds %struct.State, %struct.State* %0, i64 0, i32 6, i32 15, i32 0, i32 0
  %4 = load i64, i64* %RBP, align 8
  %5 = add i64 %4, -28
  %6 = load i32, i32* %EAX, align 4
  %7 = load i64, i64* %PC, align 8
  %8 = add i64 %7, 3
  store i64 %8, i64* %PC, align 8
  %9 = inttoptr i64 %5 to i32*
  store i32 %6, i32* %9, align 4
  ret %struct.Memory* %2
}

; Function Attrs: norecurse nounwind
define %struct.Memory* @routine_jmpq_.L_414bff(%struct.State* nocapture dereferenceable(3376), i64, %struct.Memory* readnone returned, i64 %rel_off1, i64 %rel_off2) local_unnamed_addr #2 {
block_400488:
  %PC = getelementptr inbounds %struct.State, %struct.State* %0, i64 0, i32 6, i32 33, i32 0, i32 0
  %3 = load i64, i64* %PC, align 8
  %4 = add i64 %3, %rel_off1
  store i64 %4, i64* %PC, align 8
  ret %struct.Memory* %2
}

; Function Attrs: norecurse nounwind
define %struct.Memory* @routine_callq_._Z5timerv(%struct.State* nocapture dereferenceable(3376), i64, %struct.Memory* readnone returned, i64 %rel_off1, i64 %rel_off2, i64 %rel_off3) local_unnamed_addr #2 {
block_400488:
  %PC = getelementptr inbounds %struct.State, %struct.State* %0, i64 0, i32 6, i32 33, i32 0, i32 0
  %3 = load i64, i64* %PC, align 8
  %4 = add i64 %3, %rel_off1
  %5 = add i64 %3, %rel_off2
  %6 = getelementptr inbounds %struct.State, %struct.State* %0, i64 0, i32 6, i32 13, i32 0, i32 0
  %7 = load i64, i64* %6, align 8
  %8 = add i64 %7, -8
  %9 = inttoptr i64 %8 to i64*
  store i64 %5, i64* %9, align 8
  store i64 %8, i64* %6, align 8
  store i64 %4, i64* %PC, align 8
  ret %struct.Memory* %2
}

; Function Attrs: norecurse nounwind
define %struct.Memory* @routine_movq_MINUS0x18__rbp____rdi(%struct.State* nocapture dereferenceable(3376), i64, %struct.Memory* readnone returned) local_unnamed_addr #2 {
block_400488:
  %PC = getelementptr inbounds %struct.State, %struct.State* %0, i64 0, i32 6, i32 33, i32 0, i32 0
  %RDI = getelementptr inbounds %struct.State, %struct.State* %0, i64 0, i32 6, i32 11, i32 0, i32 0
  %RBP = getelementptr inbounds %struct.State, %struct.State* %0, i64 0, i32 6, i32 15, i32 0, i32 0
  %3 = load i64, i64* %RBP, align 8
  %4 = add i64 %3, -24
  %5 = load i64, i64* %PC, align 8
  %6 = add i64 %5, 4
  store i64 %6, i64* %PC, align 8
  %7 = inttoptr i64 %4 to i64*
  %8 = load i64, i64* %7, align 8
  store i64 %8, i64* %RDI, align 8
  ret %struct.Memory* %2
}

; Function Attrs: norecurse nounwind
define %struct.Memory* @routine_callq_._Z13record_resultdPKc(%struct.State* nocapture dereferenceable(3376), i64, %struct.Memory* readnone returned, i64 %rel_off1, i64 %rel_off2, i64 %rel_off3) local_unnamed_addr #2 {
block_400488:
  %PC = getelementptr inbounds %struct.State, %struct.State* %0, i64 0, i32 6, i32 33, i32 0, i32 0
  %3 = load i64, i64* %PC, align 8
  %4 = add i64 %3, %rel_off1
  %5 = add i64 %3, %rel_off2
  %6 = getelementptr inbounds %struct.State, %struct.State* %0, i64 0, i32 6, i32 13, i32 0, i32 0
  %7 = load i64, i64* %6, align 8
  %8 = add i64 %7, -8
  %9 = inttoptr i64 %8 to i64*
  store i64 %5, i64* %9, align 8
  store i64 %8, i64* %6, align 8
  store i64 %4, i64* %PC, align 8
  ret %struct.Memory* %2
}

; Function Attrs: nounwind
define %struct.Memory* @routine_addq__0x30___rsp(%struct.State* nocapture dereferenceable(3376), i64, %struct.Memory* readnone returned) local_unnamed_addr #3 {
block_400488:
  %PC = getelementptr inbounds %struct.State, %struct.State* %0, i64 0, i32 6, i32 33, i32 0, i32 0
  %RSP = getelementptr inbounds %struct.State, %struct.State* %0, i64 0, i32 6, i32 13, i32 0, i32 0
  %3 = load i64, i64* %RSP, align 8
  %4 = load i64, i64* %PC, align 8
  %5 = add i64 %4, 4
  store i64 %5, i64* %PC, align 8
  %6 = add i64 %3, 48
  store i64 %6, i64* %RSP, align 8
  %7 = icmp ugt i64 %3, -49
  %8 = zext i1 %7 to i8
  %9 = getelementptr inbounds %struct.State, %struct.State* %0, i64 0, i32 2, i32 1
  store i8 %8, i8* %9, align 1
  %10 = trunc i64 %6 to i32
  %11 = and i32 %10, 255
  %12 = tail call i32 @llvm.ctpop.i32(i32 %11)
  %13 = trunc i32 %12 to i8
  %14 = and i8 %13, 1
  %15 = xor i8 %14, 1
  %16 = getelementptr inbounds %struct.State, %struct.State* %0, i64 0, i32 2, i32 3
  store i8 %15, i8* %16, align 1
  %17 = xor i64 %3, 16
  %18 = xor i64 %17, %6
  %19 = lshr i64 %18, 4
  %20 = trunc i64 %19 to i8
  %21 = and i8 %20, 1
  %22 = getelementptr inbounds %struct.State, %struct.State* %0, i64 0, i32 2, i32 5
  store i8 %21, i8* %22, align 1
  %23 = icmp eq i64 %6, 0
  %24 = zext i1 %23 to i8
  %25 = getelementptr inbounds %struct.State, %struct.State* %0, i64 0, i32 2, i32 7
  store i8 %24, i8* %25, align 1
  %26 = lshr i64 %6, 63
  %27 = trunc i64 %26 to i8
  %28 = getelementptr inbounds %struct.State, %struct.State* %0, i64 0, i32 2, i32 9
  store i8 %27, i8* %28, align 1
  %29 = lshr i64 %3, 63
  %30 = xor i64 %26, %29
  %31 = add nuw nsw i64 %30, %26
  %32 = icmp eq i64 %31, 2
  %33 = zext i1 %32 to i8
  %34 = getelementptr inbounds %struct.State, %struct.State* %0, i64 0, i32 2, i32 13
  store i8 %33, i8* %34, align 1
  ret %struct.Memory* %2
}

; Function Attrs: norecurse nounwind
define %struct.Memory* @routine_popq__rbp(%struct.State* nocapture dereferenceable(3376), i64, %struct.Memory* readnone returned) local_unnamed_addr #2 {
block_400488:
  %PC = getelementptr inbounds %struct.State, %struct.State* %0, i64 0, i32 6, i32 33, i32 0, i32 0
  %RBP = getelementptr inbounds %struct.State, %struct.State* %0, i64 0, i32 6, i32 15, i32 0, i32 0
  %3 = load i64, i64* %PC, align 8
  %4 = add i64 %3, 1
  store i64 %4, i64* %PC, align 8
  %5 = getelementptr inbounds %struct.State, %struct.State* %0, i64 0, i32 6, i32 13, i32 0, i32 0
  %6 = load i64, i64* %5, align 8
  %7 = add i64 %6, 8
  %8 = inttoptr i64 %6 to i64*
  %9 = load i64, i64* %8, align 8
  store i64 %9, i64* %RBP, align 8
  store i64 %7, i64* %5, align 8
  ret %struct.Memory* %2
}

; Function Attrs: norecurse nounwind
define %struct.Memory* @routine_retq(%struct.State* nocapture dereferenceable(3376), i64, %struct.Memory* readnone returned) local_unnamed_addr #2 {
block_400488:
  %PC = getelementptr inbounds %struct.State, %struct.State* %0, i64 0, i32 6, i32 33, i32 0, i32 0
  %3 = load i64, i64* %PC, align 8
  %4 = add i64 %3, 1
  store i64 %4, i64* %PC, align 8
  %5 = getelementptr inbounds %struct.State, %struct.State* %0, i64 0, i32 6, i32 13, i32 0, i32 0
  %6 = load i64, i64* %5, align 8
  %7 = inttoptr i64 %6 to i64*
  %8 = load i64, i64* %7, align 8
  store i64 %8, i64* %PC, align 8
  %9 = add i64 %6, 8
  store i64 %9, i64* %5, align 8
  ret %struct.Memory* %2
}

attributes #0 = { nounwind readnone }
attributes #1 = { alwaysinline }
attributes #2 = { norecurse nounwind }
attributes #3 = { nounwind }
