; ModuleID = 'mcsema/test.proposed.ll'
source_filename = "llvm-link"
target datalayout = "e-m:e-i64:64-f80:128-n8:16:32:64-S128"
target triple = "x86_64-pc-linux-gnu-elf"

%union.anon = type { i64 }
%seg_400388__init_type = type <{ [23 x i8] }>
%seg_4003a0__text_type = type <{ [354 x i8] }>
%seg_400504__fini_type = type <{ [9 x i8] }>
%seg_400510__rodata_type = type <{ [4 x i8] }>
%seg_400514__eh_frame_hdr_type = type <{ [52 x i8] }>
%seg_400548__eh_frame_type = type <{ [208 x i8] }>
%seg_601018__data_type = type <{ [16 x i8] }>
%__bss_start_type = type <{ [8 x i8] }>
%struct.State = type { %struct.ArchState, [32 x %union.VectorReg], %struct.ArithFlags, %union.anon, %struct.Segments, %struct.AddressSpace, %struct.GPR, %struct.X87Stack, %struct.MMX, %struct.FPUStatusFlags, %union.anon, %union.FPU, %struct.SegmentCaches }
%struct.ArchState = type { i32, i32, %union.anon }
%union.VectorReg = type { %union.vec512_t }
%union.vec512_t = type { %struct.uint64v8_t }
%struct.uint64v8_t = type { [8 x i64] }
%struct.ArithFlags = type { i8, i8, i8, i8, i8, i8, i8, i8, i8, i8, i8, i8, i8, i8, i8, i8 }
%struct.Segments = type { i16, %union.SegmentSelector, i16, %union.SegmentSelector, i16, %union.SegmentSelector, i16, %union.SegmentSelector, i16, %union.SegmentSelector, i16, %union.SegmentSelector }
%union.SegmentSelector = type { i16 }
%struct.AddressSpace = type { i64, %struct.Reg, i64, %struct.Reg, i64, %struct.Reg, i64, %struct.Reg, i64, %struct.Reg, i64, %struct.Reg }
%struct.Reg = type { %union.anon }
%struct.GPR = type { i64, %struct.Reg, i64, %struct.Reg, i64, %struct.Reg, i64, %struct.Reg, i64, %struct.Reg, i64, %struct.Reg, i64, %struct.Reg, i64, %struct.Reg, i64, %struct.Reg, i64, %struct.Reg, i64, %struct.Reg, i64, %struct.Reg, i64, %struct.Reg, i64, %struct.Reg, i64, %struct.Reg, i64, %struct.Reg, i64, %struct.Reg }
%struct.X87Stack = type { [8 x %struct.anon.3] }
%struct.anon.3 = type { i64, double }
%struct.MMX = type { [8 x %struct.anon.4] }
%struct.anon.4 = type { i64, %union.vec64_t }
%union.vec64_t = type { %struct.uint64v1_t }
%struct.uint64v1_t = type { [1 x i64] }
%struct.FPUStatusFlags = type { i8, i8, i8, i8, i8, i8, i8, i8, i8, i8, i8, i8, i8, i8, i8, i8, i8, i8, i8, i8, [4 x i8] }
%union.FPU = type { %struct.anon.13 }
%struct.anon.13 = type { %struct.FpuFXSAVE, [96 x i8] }
%struct.FpuFXSAVE = type { %union.SegmentSelector, %union.SegmentSelector, %union.FPUAbridgedTagWord, i8, i16, i32, %union.SegmentSelector, i16, i32, %union.SegmentSelector, i16, %union.FPUControlStatus, %union.FPUControlStatus, [8 x %struct.FPUStackElem], [16 x %union.vec128_t] }
%union.FPUAbridgedTagWord = type { i8 }
%union.FPUControlStatus = type { i32 }
%struct.FPUStackElem = type { %union.anon.11, [6 x i8] }
%union.anon.11 = type { %struct.float80_t }
%struct.float80_t = type { [10 x i8] }
%union.vec128_t = type { %struct.uint128v1_t }
%struct.uint128v1_t = type { [1 x i128] }
%struct.SegmentCaches = type { %struct.SegmentShadow, %struct.SegmentShadow, %struct.SegmentShadow, %struct.SegmentShadow, %struct.SegmentShadow, %struct.SegmentShadow }
%struct.SegmentShadow = type { %union.anon, i32, i32 }
%struct.Memory = type opaque

@switch.table = private unnamed_addr constant [4 x i32] [i32 2048, i32 3072, i32 0, i32 1024]
@DR0 = external global i64, align 8
@DR1 = external global i64, align 8
@DR2 = external global i64, align 8
@DR3 = external global i64, align 8
@DR4 = external global i64, align 8
@DR5 = external global i64, align 8
@DR6 = external global i64, align 8
@DR7 = external global i64, align 8
@gCR0 = external global %union.anon, align 1
@gCR1 = external global %union.anon, align 1
@gCR2 = external global %union.anon, align 1
@gCR3 = external global %union.anon, align 1
@gCR4 = external global %union.anon, align 1
@gCR8 = external global %union.anon, align 1
@seg_400388__init = internal constant %seg_400388__init_type <{ [23 x i8] c"H\83\EC\08H\8B\05e\0C \00H\85\C0t\02\FF\D0H\83\C4\08\C3" }>
@seg_4003a0__text = internal constant %seg_4003a0__text_type <{ [354 x i8] c"1\EDI\89\D1^H\89\E2H\83\E4\F0PTI\C7\C0\00\05@\00H\C7\C1\90\04@\00H\C7\C7\88\04@\00\FF\15&\0C \00\F4\0F\1FD\00\00\F3\C3f.\0F\1F\84\00\00\00\00\00\0F\1F@\00U\B8(\10`\00H=(\10`\00H\89\E5t\17\B8\00\00\00\00H\85\C0t\0D]\BF(\10`\00\FF\E0\0F\1FD\00\00]\C3f\0F\1FD\00\00\BE(\10`\00UH\81\EE(\10`\00H\89\E5H\C1\FE\03H\89\F0H\C1\E8?H\01\C6H\D1\FEt\15\B8\00\00\00\00H\85\C0t\0B]\BF(\10`\00\FF\E0\0F\1F\00]\C3f\0F\1FD\00\00\80=\D1\0B \00\00u\17UH\89\E5\E8~\FF\FF\FF\C6\05\BF\0B \00\01]\C3\0F\1FD\00\00\F3\C3\0F\1F@\00f.\0F\1F\84\00\00\00\00\00UH\89\E5]\EB\89\90U\C3f\0F\1FD\00\00AWAVI\89\D7AUATL\8D%\9E\09 \00UH\8D-\9E\09 \00SA\89\FDI\89\F6L)\E5H\83\EC\08H\C1\FD\03\E8\C7\FE\FF\FFH\85\EDt 1\DB\0F\1F\84\00\00\00\00\00L\89\FAL\89\F6D\89\EFA\FF\14\DCH\83\C3\01H9\DDu\EAH\83\C4\08[]A\5CA]A^A_\C3\90f.\0F\1F\84\00\00\00\00\00\F3\C3" }>
@seg_400504__fini = internal constant %seg_400504__fini_type <{ [9 x i8] c"H\83\EC\08H\83\C4\08\C3" }>
@seg_400510__rodata = internal constant %seg_400510__rodata_type <{ [4 x i8] c"\01\00\02\00" }>
@seg_400514__eh_frame_hdr = internal constant %seg_400514__eh_frame_hdr_type <{ [52 x i8] c"\01\1B\03;0\00\00\00\05\00\00\00\8C\FE\FF\FFL\00\00\00\BC\FE\FF\FFx\00\00\00t\FF\FF\FF\8C\00\00\00|\FF\FF\FF\A4\00\00\00\EC\FF\FF\FF\EC\00\00\00" }>
@seg_400548__eh_frame = internal constant %seg_400548__eh_frame_type <{ [208 x i8] c"\14\00\00\00\00\00\00\00\01zR\00\01x\10\01\1B\0C\07\08\90\01\07\10\10\00\00\00\1C\00\00\008\FE\FF\FF+\00\00\00\00\00\00\00\14\00\00\00\00\00\00\00\01zR\00\01x\10\01\1B\0C\07\08\90\01\00\00\10\00\00\00\1C\00\00\00<\FE\FF\FF\02\00\00\00\00\00\00\00\14\00\00\000\00\00\00\E0\FE\FF\FF\02\00\00\00\00\00\00\00\00\00\00\00D\00\00\00H\00\00\00\D0\FE\FF\FFe\00\00\00\00B\0E\10\8F\02B\0E\18\8E\03E\0E \8D\04B\0E(\8C\05H\0E0\86\06H\0E8\83\07M\0E@r\0E8A\0E0A\0E(B\0E B\0E\18B\0E\10B\0E\08\00\10\00\00\00\90\00\00\00\F8\FE\FF\FF\02\00\00\00\00\00\00\00\00\00\00\00" }>
@seg_601018__data = internal global %seg_601018__data_type zeroinitializer
@__bss_start = global %__bss_start_type zeroinitializer
@0 = internal global i1 false

; Function Attrs: nounwind readnone
declare i32 @llvm.ctpop.i32(i32) #0

declare %struct.Memory* @__remill_error(%struct.State* dereferenceable(3376), i64, %struct.Memory*)

; Function Attrs: alwaysinline
define %struct.Memory* @_ZN31custom_divide_multiple_variableIiE8do_shiftEiiiii(%struct.State* noalias, i64, %struct.Memory* noalias) #1 {
entry:
  %3 = getelementptr inbounds %struct.State, %struct.State* %0, i64 0, i32 6, i32 33, i32 0, i32 0
  store i64 %1, i64* %3, align 8
  %BRANCH_TAKEN = alloca i8, align 1
  store i8 0, i8* %BRANCH_TAKEN, align 1
  %MEMORY = alloca %struct.Memory*, align 8
  store %struct.Memory* %2, %struct.Memory** %MEMORY, align 8
  %loadMem_40fbe0 = load %struct.Memory*, %struct.Memory** %MEMORY
  %4 = getelementptr inbounds %struct.State, %struct.State* %0, i32 0, i32 6
  %5 = getelementptr inbounds %struct.GPR, %struct.GPR* %4, i32 0, i32 33
  %6 = getelementptr inbounds %struct.Reg, %struct.Reg* %5, i32 0, i32 0
  %PC.i = bitcast %union.anon* %6 to i64*
  %7 = getelementptr inbounds %struct.State, %struct.State* %0, i32 0, i32 6
  %8 = getelementptr inbounds %struct.GPR, %struct.GPR* %7, i32 0, i32 15
  %9 = getelementptr inbounds %struct.Reg, %struct.Reg* %8, i32 0, i32 0
  %RBP.i = bitcast %union.anon* %9 to i64*
  %10 = load i64, i64* %RBP.i
  %11 = load i64, i64* %PC.i
  %12 = add i64 %11, 1
  store i64 %12, i64* %PC.i
  %13 = getelementptr inbounds %struct.State, %struct.State* %0, i64 0, i32 6, i32 13, i32 0, i32 0
  %14 = load i64, i64* %13, align 8
  %15 = add i64 %14, -8
  %16 = inttoptr i64 %15 to i64*
  store i64 %10, i64* %16
  store i64 %15, i64* %13, align 8
  store %struct.Memory* %loadMem_40fbe0, %struct.Memory** %MEMORY
  %loadMem_40fbe1 = load %struct.Memory*, %struct.Memory** %MEMORY
  %17 = getelementptr inbounds %struct.State, %struct.State* %0, i32 0, i32 6
  %18 = getelementptr inbounds %struct.GPR, %struct.GPR* %17, i32 0, i32 33
  %19 = getelementptr inbounds %struct.Reg, %struct.Reg* %18, i32 0, i32 0
  %PC.i6 = bitcast %union.anon* %19 to i64*
  %20 = getelementptr inbounds %struct.State, %struct.State* %0, i32 0, i32 6
  %21 = getelementptr inbounds %struct.GPR, %struct.GPR* %20, i32 0, i32 13
  %22 = getelementptr inbounds %struct.Reg, %struct.Reg* %21, i32 0, i32 0
  %RSP.i = bitcast %union.anon* %22 to i64*
  %23 = getelementptr inbounds %struct.State, %struct.State* %0, i32 0, i32 6
  %24 = getelementptr inbounds %struct.GPR, %struct.GPR* %23, i32 0, i32 15
  %25 = getelementptr inbounds %struct.Reg, %struct.Reg* %24, i32 0, i32 0
  %RBP.i7 = bitcast %union.anon* %25 to i64*
  %26 = load i64, i64* %RSP.i
  %27 = load i64, i64* %PC.i6
  %28 = add i64 %27, 3
  store i64 %28, i64* %PC.i6
  store i64 %26, i64* %RBP.i7, align 8
  store %struct.Memory* %loadMem_40fbe1, %struct.Memory** %MEMORY
  %loadMem_40fbe4 = load %struct.Memory*, %struct.Memory** %MEMORY
  %29 = getelementptr inbounds %struct.State, %struct.State* %0, i32 0, i32 6
  %30 = getelementptr inbounds %struct.GPR, %struct.GPR* %29, i32 0, i32 33
  %31 = getelementptr inbounds %struct.Reg, %struct.Reg* %30, i32 0, i32 0
  %PC.i11 = bitcast %union.anon* %31 to i64*
  %32 = getelementptr inbounds %struct.State, %struct.State* %0, i32 0, i32 6
  %33 = getelementptr inbounds %struct.GPR, %struct.GPR* %32, i32 0, i32 11
  %34 = getelementptr inbounds %struct.Reg, %struct.Reg* %33, i32 0, i32 0
  %EDI.i = bitcast %union.anon* %34 to i32*
  %35 = getelementptr inbounds %struct.State, %struct.State* %0, i32 0, i32 6
  %36 = getelementptr inbounds %struct.GPR, %struct.GPR* %35, i32 0, i32 15
  %37 = getelementptr inbounds %struct.Reg, %struct.Reg* %36, i32 0, i32 0
  %RBP.i12 = bitcast %union.anon* %37 to i64*
  %38 = load i64, i64* %RBP.i12
  %39 = sub i64 %38, 4
  %40 = load i32, i32* %EDI.i
  %41 = zext i32 %40 to i64
  %42 = load i64, i64* %PC.i11
  %43 = add i64 %42, 3
  store i64 %43, i64* %PC.i11
  %44 = inttoptr i64 %39 to i32*
  store i32 %40, i32* %44
  store %struct.Memory* %loadMem_40fbe4, %struct.Memory** %MEMORY
  %loadMem_40fbe7 = load %struct.Memory*, %struct.Memory** %MEMORY
  %45 = getelementptr inbounds %struct.State, %struct.State* %0, i32 0, i32 6
  %46 = getelementptr inbounds %struct.GPR, %struct.GPR* %45, i32 0, i32 33
  %47 = getelementptr inbounds %struct.Reg, %struct.Reg* %46, i32 0, i32 0
  %PC.i16 = bitcast %union.anon* %47 to i64*
  %48 = getelementptr inbounds %struct.State, %struct.State* %0, i32 0, i32 6
  %49 = getelementptr inbounds %struct.GPR, %struct.GPR* %48, i32 0, i32 9
  %50 = getelementptr inbounds %struct.Reg, %struct.Reg* %49, i32 0, i32 0
  %ESI.i = bitcast %union.anon* %50 to i32*
  %51 = getelementptr inbounds %struct.State, %struct.State* %0, i32 0, i32 6
  %52 = getelementptr inbounds %struct.GPR, %struct.GPR* %51, i32 0, i32 15
  %53 = getelementptr inbounds %struct.Reg, %struct.Reg* %52, i32 0, i32 0
  %RBP.i17 = bitcast %union.anon* %53 to i64*
  %54 = load i64, i64* %RBP.i17
  %55 = sub i64 %54, 8
  %56 = load i32, i32* %ESI.i
  %57 = zext i32 %56 to i64
  %58 = load i64, i64* %PC.i16
  %59 = add i64 %58, 3
  store i64 %59, i64* %PC.i16
  %60 = inttoptr i64 %55 to i32*
  store i32 %56, i32* %60
  store %struct.Memory* %loadMem_40fbe7, %struct.Memory** %MEMORY
  %loadMem_40fbea = load %struct.Memory*, %struct.Memory** %MEMORY
  %61 = getelementptr inbounds %struct.State, %struct.State* %0, i32 0, i32 6
  %62 = getelementptr inbounds %struct.GPR, %struct.GPR* %61, i32 0, i32 33
  %63 = getelementptr inbounds %struct.Reg, %struct.Reg* %62, i32 0, i32 0
  %PC.i21 = bitcast %union.anon* %63 to i64*
  %64 = getelementptr inbounds %struct.State, %struct.State* %0, i32 0, i32 6
  %65 = getelementptr inbounds %struct.GPR, %struct.GPR* %64, i32 0, i32 7
  %66 = getelementptr inbounds %struct.Reg, %struct.Reg* %65, i32 0, i32 0
  %EDX.i = bitcast %union.anon* %66 to i32*
  %67 = getelementptr inbounds %struct.State, %struct.State* %0, i32 0, i32 6
  %68 = getelementptr inbounds %struct.GPR, %struct.GPR* %67, i32 0, i32 15
  %69 = getelementptr inbounds %struct.Reg, %struct.Reg* %68, i32 0, i32 0
  %RBP.i22 = bitcast %union.anon* %69 to i64*
  %70 = load i64, i64* %RBP.i22
  %71 = sub i64 %70, 12
  %72 = load i32, i32* %EDX.i
  %73 = zext i32 %72 to i64
  %74 = load i64, i64* %PC.i21
  %75 = add i64 %74, 3
  store i64 %75, i64* %PC.i21
  %76 = inttoptr i64 %71 to i32*
  store i32 %72, i32* %76
  store %struct.Memory* %loadMem_40fbea, %struct.Memory** %MEMORY
  %loadMem_40fbed = load %struct.Memory*, %struct.Memory** %MEMORY
  %77 = getelementptr inbounds %struct.State, %struct.State* %0, i32 0, i32 6
  %78 = getelementptr inbounds %struct.GPR, %struct.GPR* %77, i32 0, i32 33
  %79 = getelementptr inbounds %struct.Reg, %struct.Reg* %78, i32 0, i32 0
  %PC.i28 = bitcast %union.anon* %79 to i64*
  %80 = getelementptr inbounds %struct.State, %struct.State* %0, i32 0, i32 6
  %81 = getelementptr inbounds %struct.GPR, %struct.GPR* %80, i32 0, i32 5
  %82 = getelementptr inbounds %struct.Reg, %struct.Reg* %81, i32 0, i32 0
  %ECX.i = bitcast %union.anon* %82 to i32*
  %83 = getelementptr inbounds %struct.State, %struct.State* %0, i32 0, i32 6
  %84 = getelementptr inbounds %struct.GPR, %struct.GPR* %83, i32 0, i32 15
  %85 = getelementptr inbounds %struct.Reg, %struct.Reg* %84, i32 0, i32 0
  %RBP.i29 = bitcast %union.anon* %85 to i64*
  %86 = load i64, i64* %RBP.i29
  %87 = sub i64 %86, 16
  %88 = load i32, i32* %ECX.i
  %89 = zext i32 %88 to i64
  %90 = load i64, i64* %PC.i28
  %91 = add i64 %90, 3
  store i64 %91, i64* %PC.i28
  %92 = inttoptr i64 %87 to i32*
  store i32 %88, i32* %92
  store %struct.Memory* %loadMem_40fbed, %struct.Memory** %MEMORY
  %loadMem_40fbf0 = load %struct.Memory*, %struct.Memory** %MEMORY
  %93 = getelementptr inbounds %struct.State, %struct.State* %0, i32 0, i32 6
  %94 = getelementptr inbounds %struct.GPR, %struct.GPR* %93, i32 0, i32 33
  %95 = getelementptr inbounds %struct.Reg, %struct.Reg* %94, i32 0, i32 0
  %PC.i26 = bitcast %union.anon* %95 to i64*
  %96 = getelementptr inbounds %struct.State, %struct.State* %0, i32 0, i32 6
  %97 = getelementptr inbounds %struct.GPR, %struct.GPR* %96, i32 0, i32 17
  %98 = getelementptr inbounds %struct.Reg, %struct.Reg* %97, i32 0, i32 0
  %R8D.i = bitcast %union.anon* %98 to i32*
  %99 = getelementptr inbounds %struct.State, %struct.State* %0, i32 0, i32 6
  %100 = getelementptr inbounds %struct.GPR, %struct.GPR* %99, i32 0, i32 15
  %101 = getelementptr inbounds %struct.Reg, %struct.Reg* %100, i32 0, i32 0
  %RBP.i27 = bitcast %union.anon* %101 to i64*
  %102 = load i64, i64* %RBP.i27
  %103 = sub i64 %102, 20
  %104 = load i32, i32* %R8D.i
  %105 = zext i32 %104 to i64
  %106 = load i64, i64* %PC.i26
  %107 = add i64 %106, 4
  store i64 %107, i64* %PC.i26
  %108 = inttoptr i64 %103 to i32*
  store i32 %104, i32* %108
  store %struct.Memory* %loadMem_40fbf0, %struct.Memory** %MEMORY
  %loadMem_40fbf4 = load %struct.Memory*, %struct.Memory** %MEMORY
  %109 = getelementptr inbounds %struct.State, %struct.State* %0, i32 0, i32 6
  %110 = getelementptr inbounds %struct.GPR, %struct.GPR* %109, i32 0, i32 33
  %111 = getelementptr inbounds %struct.Reg, %struct.Reg* %110, i32 0, i32 0
  %PC.i24 = bitcast %union.anon* %111 to i64*
  %112 = getelementptr inbounds %struct.State, %struct.State* %0, i32 0, i32 6
  %113 = getelementptr inbounds %struct.GPR, %struct.GPR* %112, i32 0, i32 1
  %114 = getelementptr inbounds %struct.Reg, %struct.Reg* %113, i32 0, i32 0
  %RAX.i = bitcast %union.anon* %114 to i64*
  %115 = getelementptr inbounds %struct.State, %struct.State* %0, i32 0, i32 6
  %116 = getelementptr inbounds %struct.GPR, %struct.GPR* %115, i32 0, i32 15
  %117 = getelementptr inbounds %struct.Reg, %struct.Reg* %116, i32 0, i32 0
  %RBP.i25 = bitcast %union.anon* %117 to i64*
  %118 = load i64, i64* %RBP.i25
  %119 = sub i64 %118, 4
  %120 = load i64, i64* %PC.i24
  %121 = add i64 %120, 3
  store i64 %121, i64* %PC.i24
  %122 = inttoptr i64 %119 to i32*
  %123 = load i32, i32* %122
  %124 = zext i32 %123 to i64
  store i64 %124, i64* %RAX.i, align 8
  store %struct.Memory* %loadMem_40fbf4, %struct.Memory** %MEMORY
  %loadMem_40fbf7 = load %struct.Memory*, %struct.Memory** %MEMORY
  %125 = getelementptr inbounds %struct.State, %struct.State* %0, i32 0, i32 6
  %126 = getelementptr inbounds %struct.GPR, %struct.GPR* %125, i32 0, i32 33
  %127 = getelementptr inbounds %struct.Reg, %struct.Reg* %126, i32 0, i32 0
  %PC.i23 = bitcast %union.anon* %127 to i64*
  %128 = load i64, i64* %PC.i23
  %129 = add i64 %128, 1
  store i64 %129, i64* %PC.i23
  %130 = getelementptr inbounds %struct.State, %struct.State* %0, i64 0, i32 6, i32 7, i32 0, i32 0
  %131 = getelementptr inbounds %struct.State, %struct.State* %0, i64 0, i32 6, i32 1, i32 0
  %132 = bitcast %union.anon* %131 to i32*
  %133 = load i32, i32* %132, align 8
  %134 = sext i32 %133 to i64
  %135 = lshr i64 %134, 32
  store i64 %135, i64* %130, align 8
  store %struct.Memory* %loadMem_40fbf7, %struct.Memory** %MEMORY
  %loadMem_40fbf8 = load %struct.Memory*, %struct.Memory** %MEMORY
  %136 = getelementptr inbounds %struct.State, %struct.State* %0, i32 0, i32 6
  %137 = getelementptr inbounds %struct.GPR, %struct.GPR* %136, i32 0, i32 33
  %138 = getelementptr inbounds %struct.Reg, %struct.Reg* %137, i32 0, i32 0
  %PC.i19 = bitcast %union.anon* %138 to i64*
  %139 = getelementptr inbounds %struct.State, %struct.State* %0, i32 0, i32 6
  %140 = getelementptr inbounds %struct.GPR, %struct.GPR* %139, i32 0, i32 15
  %141 = getelementptr inbounds %struct.Reg, %struct.Reg* %140, i32 0, i32 0
  %RBP.i20 = bitcast %union.anon* %141 to i64*
  %142 = load i64, i64* %RBP.i20
  %143 = sub i64 %142, 8
  %144 = load i64, i64* %PC.i19
  %145 = add i64 %144, 3
  store i64 %145, i64* %PC.i19
  %146 = getelementptr inbounds %struct.State, %struct.State* %0, i64 0, i32 6, i32 1, i32 0
  %147 = bitcast %union.anon* %146 to i32*
  %148 = load i32, i32* %147, align 8
  %149 = zext i32 %148 to i64
  %150 = getelementptr inbounds %struct.State, %struct.State* %0, i64 0, i32 6, i32 7, i32 0
  %151 = bitcast %union.anon* %150 to i32*
  %152 = load i32, i32* %151, align 8
  %153 = zext i32 %152 to i64
  %154 = inttoptr i64 %143 to i32*
  %155 = load i32, i32* %154
  %156 = sext i32 %155 to i64
  %157 = shl i64 %153, 32
  %158 = or i64 %157, %149
  %159 = sdiv i64 %158, %156
  %160 = shl i64 %159, 32
  %161 = ashr exact i64 %160, 32
  %162 = icmp eq i64 %159, %161
  br i1 %162, label %167, label %163

; <label>:163:                                    ; preds = %entry
  %164 = getelementptr inbounds %struct.State, %struct.State* %0, i64 0, i32 6, i32 33, i32 0, i32 0
  %165 = load i64, i64* %164, align 8
  %166 = call %struct.Memory* @__remill_error(%struct.State* nonnull dereferenceable(3376) %0, i64 %165, %struct.Memory* %loadMem_40fbf8)
  br label %routine_idivl_MINUS0x8__rbp_.exit

; <label>:167:                                    ; preds = %entry
  %168 = srem i64 %158, %156
  %169 = getelementptr inbounds %union.anon, %union.anon* %146, i64 0, i32 0
  %170 = and i64 %159, 4294967295
  store i64 %170, i64* %169, align 8
  %171 = getelementptr inbounds %union.anon, %union.anon* %150, i64 0, i32 0
  %172 = and i64 %168, 4294967295
  store i64 %172, i64* %171, align 8
  %173 = getelementptr inbounds %struct.State, %struct.State* %0, i64 0, i32 2, i32 1
  store i8 0, i8* %173, align 1
  %174 = getelementptr inbounds %struct.State, %struct.State* %0, i64 0, i32 2, i32 3
  store i8 0, i8* %174, align 1
  %175 = getelementptr inbounds %struct.State, %struct.State* %0, i64 0, i32 2, i32 5
  store i8 0, i8* %175, align 1
  %176 = getelementptr inbounds %struct.State, %struct.State* %0, i64 0, i32 2, i32 7
  store i8 0, i8* %176, align 1
  %177 = getelementptr inbounds %struct.State, %struct.State* %0, i64 0, i32 2, i32 9
  store i8 0, i8* %177, align 1
  %178 = getelementptr inbounds %struct.State, %struct.State* %0, i64 0, i32 2, i32 13
  store i8 0, i8* %178, align 1
  br label %routine_idivl_MINUS0x8__rbp_.exit

routine_idivl_MINUS0x8__rbp_.exit:                ; preds = %163, %167
  %179 = phi %struct.Memory* [ %166, %163 ], [ %loadMem_40fbf8, %167 ]
  store %struct.Memory* %179, %struct.Memory** %MEMORY
  %loadMem_40fbfb = load %struct.Memory*, %struct.Memory** %MEMORY
  %180 = getelementptr inbounds %struct.State, %struct.State* %0, i32 0, i32 6
  %181 = getelementptr inbounds %struct.GPR, %struct.GPR* %180, i32 0, i32 33
  %182 = getelementptr inbounds %struct.Reg, %struct.Reg* %181, i32 0, i32 0
  %PC.i18 = bitcast %union.anon* %182 to i64*
  %183 = load i64, i64* %PC.i18
  %184 = add i64 %183, 1
  store i64 %184, i64* %PC.i18
  %185 = getelementptr inbounds %struct.State, %struct.State* %0, i64 0, i32 6, i32 7, i32 0, i32 0
  %186 = getelementptr inbounds %struct.State, %struct.State* %0, i64 0, i32 6, i32 1, i32 0
  %187 = bitcast %union.anon* %186 to i32*
  %188 = load i32, i32* %187, align 8
  %189 = sext i32 %188 to i64
  %190 = lshr i64 %189, 32
  store i64 %190, i64* %185, align 8
  store %struct.Memory* %loadMem_40fbfb, %struct.Memory** %MEMORY
  %loadMem_40fbfc = load %struct.Memory*, %struct.Memory** %MEMORY
  %191 = getelementptr inbounds %struct.State, %struct.State* %0, i32 0, i32 6
  %192 = getelementptr inbounds %struct.GPR, %struct.GPR* %191, i32 0, i32 33
  %193 = getelementptr inbounds %struct.Reg, %struct.Reg* %192, i32 0, i32 0
  %PC.i14 = bitcast %union.anon* %193 to i64*
  %194 = getelementptr inbounds %struct.State, %struct.State* %0, i32 0, i32 6
  %195 = getelementptr inbounds %struct.GPR, %struct.GPR* %194, i32 0, i32 15
  %196 = getelementptr inbounds %struct.Reg, %struct.Reg* %195, i32 0, i32 0
  %RBP.i15 = bitcast %union.anon* %196 to i64*
  %197 = load i64, i64* %RBP.i15
  %198 = sub i64 %197, 12
  %199 = load i64, i64* %PC.i14
  %200 = add i64 %199, 3
  store i64 %200, i64* %PC.i14
  %201 = getelementptr inbounds %struct.State, %struct.State* %0, i64 0, i32 6, i32 1, i32 0
  %202 = bitcast %union.anon* %201 to i32*
  %203 = load i32, i32* %202, align 8
  %204 = zext i32 %203 to i64
  %205 = getelementptr inbounds %struct.State, %struct.State* %0, i64 0, i32 6, i32 7, i32 0
  %206 = bitcast %union.anon* %205 to i32*
  %207 = load i32, i32* %206, align 8
  %208 = zext i32 %207 to i64
  %209 = inttoptr i64 %198 to i32*
  %210 = load i32, i32* %209
  %211 = sext i32 %210 to i64
  %212 = shl i64 %208, 32
  %213 = or i64 %212, %204
  %214 = sdiv i64 %213, %211
  %215 = shl i64 %214, 32
  %216 = ashr exact i64 %215, 32
  %217 = icmp eq i64 %214, %216
  br i1 %217, label %222, label %218

; <label>:218:                                    ; preds = %routine_idivl_MINUS0x8__rbp_.exit
  %219 = getelementptr inbounds %struct.State, %struct.State* %0, i64 0, i32 6, i32 33, i32 0, i32 0
  %220 = load i64, i64* %219, align 8
  %221 = call %struct.Memory* @__remill_error(%struct.State* nonnull dereferenceable(3376) %0, i64 %220, %struct.Memory* %loadMem_40fbfc)
  br label %routine_idivl_MINUS0xc__rbp_.exit

; <label>:222:                                    ; preds = %routine_idivl_MINUS0x8__rbp_.exit
  %223 = srem i64 %213, %211
  %224 = getelementptr inbounds %union.anon, %union.anon* %201, i64 0, i32 0
  %225 = and i64 %214, 4294967295
  store i64 %225, i64* %224, align 8
  %226 = getelementptr inbounds %union.anon, %union.anon* %205, i64 0, i32 0
  %227 = and i64 %223, 4294967295
  store i64 %227, i64* %226, align 8
  %228 = getelementptr inbounds %struct.State, %struct.State* %0, i64 0, i32 2, i32 1
  store i8 0, i8* %228, align 1
  %229 = getelementptr inbounds %struct.State, %struct.State* %0, i64 0, i32 2, i32 3
  store i8 0, i8* %229, align 1
  %230 = getelementptr inbounds %struct.State, %struct.State* %0, i64 0, i32 2, i32 5
  store i8 0, i8* %230, align 1
  %231 = getelementptr inbounds %struct.State, %struct.State* %0, i64 0, i32 2, i32 7
  store i8 0, i8* %231, align 1
  %232 = getelementptr inbounds %struct.State, %struct.State* %0, i64 0, i32 2, i32 9
  store i8 0, i8* %232, align 1
  %233 = getelementptr inbounds %struct.State, %struct.State* %0, i64 0, i32 2, i32 13
  store i8 0, i8* %233, align 1
  br label %routine_idivl_MINUS0xc__rbp_.exit

routine_idivl_MINUS0xc__rbp_.exit:                ; preds = %218, %222
  %234 = phi %struct.Memory* [ %221, %218 ], [ %loadMem_40fbfc, %222 ]
  store %struct.Memory* %234, %struct.Memory** %MEMORY
  %loadMem_40fbff = load %struct.Memory*, %struct.Memory** %MEMORY
  %235 = getelementptr inbounds %struct.State, %struct.State* %0, i32 0, i32 6
  %236 = getelementptr inbounds %struct.GPR, %struct.GPR* %235, i32 0, i32 33
  %237 = getelementptr inbounds %struct.Reg, %struct.Reg* %236, i32 0, i32 0
  %PC.i13 = bitcast %union.anon* %237 to i64*
  %238 = load i64, i64* %PC.i13
  %239 = add i64 %238, 1
  store i64 %239, i64* %PC.i13
  %240 = getelementptr inbounds %struct.State, %struct.State* %0, i64 0, i32 6, i32 7, i32 0, i32 0
  %241 = getelementptr inbounds %struct.State, %struct.State* %0, i64 0, i32 6, i32 1, i32 0
  %242 = bitcast %union.anon* %241 to i32*
  %243 = load i32, i32* %242, align 8
  %244 = sext i32 %243 to i64
  %245 = lshr i64 %244, 32
  store i64 %245, i64* %240, align 8
  store %struct.Memory* %loadMem_40fbff, %struct.Memory** %MEMORY
  %loadMem_40fc00 = load %struct.Memory*, %struct.Memory** %MEMORY
  %246 = getelementptr inbounds %struct.State, %struct.State* %0, i32 0, i32 6
  %247 = getelementptr inbounds %struct.GPR, %struct.GPR* %246, i32 0, i32 33
  %248 = getelementptr inbounds %struct.Reg, %struct.Reg* %247, i32 0, i32 0
  %PC.i9 = bitcast %union.anon* %248 to i64*
  %249 = getelementptr inbounds %struct.State, %struct.State* %0, i32 0, i32 6
  %250 = getelementptr inbounds %struct.GPR, %struct.GPR* %249, i32 0, i32 15
  %251 = getelementptr inbounds %struct.Reg, %struct.Reg* %250, i32 0, i32 0
  %RBP.i10 = bitcast %union.anon* %251 to i64*
  %252 = load i64, i64* %RBP.i10
  %253 = sub i64 %252, 16
  %254 = load i64, i64* %PC.i9
  %255 = add i64 %254, 3
  store i64 %255, i64* %PC.i9
  %256 = getelementptr inbounds %struct.State, %struct.State* %0, i64 0, i32 6, i32 1, i32 0
  %257 = bitcast %union.anon* %256 to i32*
  %258 = load i32, i32* %257, align 8
  %259 = zext i32 %258 to i64
  %260 = getelementptr inbounds %struct.State, %struct.State* %0, i64 0, i32 6, i32 7, i32 0
  %261 = bitcast %union.anon* %260 to i32*
  %262 = load i32, i32* %261, align 8
  %263 = zext i32 %262 to i64
  %264 = inttoptr i64 %253 to i32*
  %265 = load i32, i32* %264
  %266 = sext i32 %265 to i64
  %267 = shl i64 %263, 32
  %268 = or i64 %267, %259
  %269 = sdiv i64 %268, %266
  %270 = shl i64 %269, 32
  %271 = ashr exact i64 %270, 32
  %272 = icmp eq i64 %269, %271
  br i1 %272, label %277, label %273

; <label>:273:                                    ; preds = %routine_idivl_MINUS0xc__rbp_.exit
  %274 = getelementptr inbounds %struct.State, %struct.State* %0, i64 0, i32 6, i32 33, i32 0, i32 0
  %275 = load i64, i64* %274, align 8
  %276 = call %struct.Memory* @__remill_error(%struct.State* nonnull dereferenceable(3376) %0, i64 %275, %struct.Memory* %loadMem_40fc00)
  br label %routine_idivl_MINUS0x10__rbp_.exit

; <label>:277:                                    ; preds = %routine_idivl_MINUS0xc__rbp_.exit
  %278 = srem i64 %268, %266
  %279 = getelementptr inbounds %union.anon, %union.anon* %256, i64 0, i32 0
  %280 = and i64 %269, 4294967295
  store i64 %280, i64* %279, align 8
  %281 = getelementptr inbounds %union.anon, %union.anon* %260, i64 0, i32 0
  %282 = and i64 %278, 4294967295
  store i64 %282, i64* %281, align 8
  %283 = getelementptr inbounds %struct.State, %struct.State* %0, i64 0, i32 2, i32 1
  store i8 0, i8* %283, align 1
  %284 = getelementptr inbounds %struct.State, %struct.State* %0, i64 0, i32 2, i32 3
  store i8 0, i8* %284, align 1
  %285 = getelementptr inbounds %struct.State, %struct.State* %0, i64 0, i32 2, i32 5
  store i8 0, i8* %285, align 1
  %286 = getelementptr inbounds %struct.State, %struct.State* %0, i64 0, i32 2, i32 7
  store i8 0, i8* %286, align 1
  %287 = getelementptr inbounds %struct.State, %struct.State* %0, i64 0, i32 2, i32 9
  store i8 0, i8* %287, align 1
  %288 = getelementptr inbounds %struct.State, %struct.State* %0, i64 0, i32 2, i32 13
  store i8 0, i8* %288, align 1
  br label %routine_idivl_MINUS0x10__rbp_.exit

routine_idivl_MINUS0x10__rbp_.exit:               ; preds = %273, %277
  %289 = phi %struct.Memory* [ %276, %273 ], [ %loadMem_40fc00, %277 ]
  store %struct.Memory* %289, %struct.Memory** %MEMORY
  %loadMem_40fc03 = load %struct.Memory*, %struct.Memory** %MEMORY
  %290 = getelementptr inbounds %struct.State, %struct.State* %0, i32 0, i32 6
  %291 = getelementptr inbounds %struct.GPR, %struct.GPR* %290, i32 0, i32 33
  %292 = getelementptr inbounds %struct.Reg, %struct.Reg* %291, i32 0, i32 0
  %PC.i8 = bitcast %union.anon* %292 to i64*
  %293 = load i64, i64* %PC.i8
  %294 = add i64 %293, 1
  store i64 %294, i64* %PC.i8
  %295 = getelementptr inbounds %struct.State, %struct.State* %0, i64 0, i32 6, i32 7, i32 0, i32 0
  %296 = getelementptr inbounds %struct.State, %struct.State* %0, i64 0, i32 6, i32 1, i32 0
  %297 = bitcast %union.anon* %296 to i32*
  %298 = load i32, i32* %297, align 8
  %299 = sext i32 %298 to i64
  %300 = lshr i64 %299, 32
  store i64 %300, i64* %295, align 8
  store %struct.Memory* %loadMem_40fc03, %struct.Memory** %MEMORY
  %loadMem_40fc04 = load %struct.Memory*, %struct.Memory** %MEMORY
  %301 = getelementptr inbounds %struct.State, %struct.State* %0, i32 0, i32 6
  %302 = getelementptr inbounds %struct.GPR, %struct.GPR* %301, i32 0, i32 33
  %303 = getelementptr inbounds %struct.Reg, %struct.Reg* %302, i32 0, i32 0
  %PC.i4 = bitcast %union.anon* %303 to i64*
  %304 = getelementptr inbounds %struct.State, %struct.State* %0, i32 0, i32 6
  %305 = getelementptr inbounds %struct.GPR, %struct.GPR* %304, i32 0, i32 15
  %306 = getelementptr inbounds %struct.Reg, %struct.Reg* %305, i32 0, i32 0
  %RBP.i5 = bitcast %union.anon* %306 to i64*
  %307 = load i64, i64* %RBP.i5
  %308 = sub i64 %307, 20
  %309 = load i64, i64* %PC.i4
  %310 = add i64 %309, 3
  store i64 %310, i64* %PC.i4
  %311 = getelementptr inbounds %struct.State, %struct.State* %0, i64 0, i32 6, i32 1, i32 0
  %312 = bitcast %union.anon* %311 to i32*
  %313 = load i32, i32* %312, align 8
  %314 = zext i32 %313 to i64
  %315 = getelementptr inbounds %struct.State, %struct.State* %0, i64 0, i32 6, i32 7, i32 0
  %316 = bitcast %union.anon* %315 to i32*
  %317 = load i32, i32* %316, align 8
  %318 = zext i32 %317 to i64
  %319 = inttoptr i64 %308 to i32*
  %320 = load i32, i32* %319
  %321 = sext i32 %320 to i64
  %322 = shl i64 %318, 32
  %323 = or i64 %322, %314
  %324 = sdiv i64 %323, %321
  %325 = shl i64 %324, 32
  %326 = ashr exact i64 %325, 32
  %327 = icmp eq i64 %324, %326
  br i1 %327, label %332, label %328

; <label>:328:                                    ; preds = %routine_idivl_MINUS0x10__rbp_.exit
  %329 = getelementptr inbounds %struct.State, %struct.State* %0, i64 0, i32 6, i32 33, i32 0, i32 0
  %330 = load i64, i64* %329, align 8
  %331 = call %struct.Memory* @__remill_error(%struct.State* nonnull dereferenceable(3376) %0, i64 %330, %struct.Memory* %loadMem_40fc04)
  br label %routine_idivl_MINUS0x14__rbp_.exit

; <label>:332:                                    ; preds = %routine_idivl_MINUS0x10__rbp_.exit
  %333 = srem i64 %323, %321
  %334 = getelementptr inbounds %union.anon, %union.anon* %311, i64 0, i32 0
  %335 = and i64 %324, 4294967295
  store i64 %335, i64* %334, align 8
  %336 = getelementptr inbounds %union.anon, %union.anon* %315, i64 0, i32 0
  %337 = and i64 %333, 4294967295
  store i64 %337, i64* %336, align 8
  %338 = getelementptr inbounds %struct.State, %struct.State* %0, i64 0, i32 2, i32 1
  store i8 0, i8* %338, align 1
  %339 = getelementptr inbounds %struct.State, %struct.State* %0, i64 0, i32 2, i32 3
  store i8 0, i8* %339, align 1
  %340 = getelementptr inbounds %struct.State, %struct.State* %0, i64 0, i32 2, i32 5
  store i8 0, i8* %340, align 1
  %341 = getelementptr inbounds %struct.State, %struct.State* %0, i64 0, i32 2, i32 7
  store i8 0, i8* %341, align 1
  %342 = getelementptr inbounds %struct.State, %struct.State* %0, i64 0, i32 2, i32 9
  store i8 0, i8* %342, align 1
  %343 = getelementptr inbounds %struct.State, %struct.State* %0, i64 0, i32 2, i32 13
  store i8 0, i8* %343, align 1
  br label %routine_idivl_MINUS0x14__rbp_.exit

routine_idivl_MINUS0x14__rbp_.exit:               ; preds = %328, %332
  %344 = phi %struct.Memory* [ %331, %328 ], [ %loadMem_40fc04, %332 ]
  store %struct.Memory* %344, %struct.Memory** %MEMORY
  %loadMem_40fc07 = load %struct.Memory*, %struct.Memory** %MEMORY
  %345 = getelementptr inbounds %struct.State, %struct.State* %0, i32 0, i32 6
  %346 = getelementptr inbounds %struct.GPR, %struct.GPR* %345, i32 0, i32 33
  %347 = getelementptr inbounds %struct.Reg, %struct.Reg* %346, i32 0, i32 0
  %PC.i2 = bitcast %union.anon* %347 to i64*
  %348 = getelementptr inbounds %struct.State, %struct.State* %0, i32 0, i32 6
  %349 = getelementptr inbounds %struct.GPR, %struct.GPR* %348, i32 0, i32 15
  %350 = getelementptr inbounds %struct.Reg, %struct.Reg* %349, i32 0, i32 0
  %RBP.i3 = bitcast %union.anon* %350 to i64*
  %351 = load i64, i64* %PC.i2
  %352 = add i64 %351, 1
  store i64 %352, i64* %PC.i2
  %353 = getelementptr inbounds %struct.State, %struct.State* %0, i64 0, i32 6, i32 13, i32 0, i32 0
  %354 = load i64, i64* %353, align 8
  %355 = add i64 %354, 8
  %356 = inttoptr i64 %354 to i64*
  %357 = load i64, i64* %356
  store i64 %357, i64* %RBP.i3, align 8
  store i64 %355, i64* %353, align 8
  store %struct.Memory* %loadMem_40fc07, %struct.Memory** %MEMORY
  %loadMem_40fc08 = load %struct.Memory*, %struct.Memory** %MEMORY
  %358 = getelementptr inbounds %struct.State, %struct.State* %0, i32 0, i32 6
  %359 = getelementptr inbounds %struct.GPR, %struct.GPR* %358, i32 0, i32 33
  %360 = getelementptr inbounds %struct.Reg, %struct.Reg* %359, i32 0, i32 0
  %PC.i1 = bitcast %union.anon* %360 to i64*
  %361 = load i64, i64* %PC.i1
  %362 = add i64 %361, 1
  store i64 %362, i64* %PC.i1
  %363 = getelementptr inbounds %struct.State, %struct.State* %0, i64 0, i32 6, i32 33, i32 0, i32 0
  %364 = getelementptr inbounds %struct.State, %struct.State* %0, i64 0, i32 6, i32 13, i32 0, i32 0
  %365 = load i64, i64* %364, align 8
  %366 = inttoptr i64 %365 to i64*
  %367 = load i64, i64* %366
  store i64 %367, i64* %363, align 8
  %368 = add i64 %365, 8
  store i64 %368, i64* %364, align 8
  store %struct.Memory* %loadMem_40fc08, %struct.Memory** %MEMORY
  ret %struct.Memory* %loadMem_40fc08
}

define %struct.Memory* @routine_pushq__rbp(%struct.State* dereferenceable(3376), i64, %struct.Memory*) {
block_400488:
  %3 = getelementptr inbounds %struct.State, %struct.State* %0, i32 0, i32 6
  %4 = getelementptr inbounds %struct.GPR, %struct.GPR* %3, i32 0, i32 33
  %5 = getelementptr inbounds %struct.Reg, %struct.Reg* %4, i32 0, i32 0
  %PC = bitcast %union.anon* %5 to i64*
  %6 = getelementptr inbounds %struct.State, %struct.State* %0, i32 0, i32 6
  %7 = getelementptr inbounds %struct.GPR, %struct.GPR* %6, i32 0, i32 15
  %8 = getelementptr inbounds %struct.Reg, %struct.Reg* %7, i32 0, i32 0
  %RBP = bitcast %union.anon* %8 to i64*
  %9 = load i64, i64* %RBP
  %10 = load i64, i64* %PC
  %11 = add i64 %10, 1
  store i64 %11, i64* %PC
  %12 = getelementptr inbounds %struct.State, %struct.State* %0, i64 0, i32 6, i32 13, i32 0, i32 0
  %13 = load i64, i64* %12, align 8
  %14 = add i64 %13, -8
  %15 = inttoptr i64 %14 to i64*
  store i64 %9, i64* %15
  store i64 %14, i64* %12, align 8
  ret %struct.Memory* %2
}

define %struct.Memory* @routine_movq__rsp___rbp(%struct.State* dereferenceable(3376), i64, %struct.Memory*) {
block_400488:
  %3 = getelementptr inbounds %struct.State, %struct.State* %0, i32 0, i32 6
  %4 = getelementptr inbounds %struct.GPR, %struct.GPR* %3, i32 0, i32 33
  %5 = getelementptr inbounds %struct.Reg, %struct.Reg* %4, i32 0, i32 0
  %PC = bitcast %union.anon* %5 to i64*
  %6 = getelementptr inbounds %struct.State, %struct.State* %0, i32 0, i32 6
  %7 = getelementptr inbounds %struct.GPR, %struct.GPR* %6, i32 0, i32 13
  %8 = getelementptr inbounds %struct.Reg, %struct.Reg* %7, i32 0, i32 0
  %RSP = bitcast %union.anon* %8 to i64*
  %9 = getelementptr inbounds %struct.State, %struct.State* %0, i32 0, i32 6
  %10 = getelementptr inbounds %struct.GPR, %struct.GPR* %9, i32 0, i32 15
  %11 = getelementptr inbounds %struct.Reg, %struct.Reg* %10, i32 0, i32 0
  %RBP = bitcast %union.anon* %11 to i64*
  %12 = load i64, i64* %RSP
  %13 = load i64, i64* %PC
  %14 = add i64 %13, 3
  store i64 %14, i64* %PC
  store i64 %12, i64* %RBP, align 8
  ret %struct.Memory* %2
}

define %struct.Memory* @routine_movl__edi__MINUS0x4__rbp_(%struct.State* dereferenceable(3376), i64, %struct.Memory*) {
block_400488:
  %3 = getelementptr inbounds %struct.State, %struct.State* %0, i32 0, i32 6
  %4 = getelementptr inbounds %struct.GPR, %struct.GPR* %3, i32 0, i32 33
  %5 = getelementptr inbounds %struct.Reg, %struct.Reg* %4, i32 0, i32 0
  %PC = bitcast %union.anon* %5 to i64*
  %6 = getelementptr inbounds %struct.State, %struct.State* %0, i32 0, i32 6
  %7 = getelementptr inbounds %struct.GPR, %struct.GPR* %6, i32 0, i32 11
  %8 = getelementptr inbounds %struct.Reg, %struct.Reg* %7, i32 0, i32 0
  %EDI = bitcast %union.anon* %8 to i32*
  %9 = getelementptr inbounds %struct.State, %struct.State* %0, i32 0, i32 6
  %10 = getelementptr inbounds %struct.GPR, %struct.GPR* %9, i32 0, i32 15
  %11 = getelementptr inbounds %struct.Reg, %struct.Reg* %10, i32 0, i32 0
  %RBP = bitcast %union.anon* %11 to i64*
  %12 = load i64, i64* %RBP
  %13 = sub i64 %12, 4
  %14 = load i32, i32* %EDI
  %15 = zext i32 %14 to i64
  %16 = load i64, i64* %PC
  %17 = add i64 %16, 3
  store i64 %17, i64* %PC
  %18 = inttoptr i64 %13 to i32*
  store i32 %14, i32* %18
  ret %struct.Memory* %2
}

define %struct.Memory* @routine_movl__esi__MINUS0x8__rbp_(%struct.State* dereferenceable(3376), i64, %struct.Memory*) {
block_400488:
  %3 = getelementptr inbounds %struct.State, %struct.State* %0, i32 0, i32 6
  %4 = getelementptr inbounds %struct.GPR, %struct.GPR* %3, i32 0, i32 33
  %5 = getelementptr inbounds %struct.Reg, %struct.Reg* %4, i32 0, i32 0
  %PC = bitcast %union.anon* %5 to i64*
  %6 = getelementptr inbounds %struct.State, %struct.State* %0, i32 0, i32 6
  %7 = getelementptr inbounds %struct.GPR, %struct.GPR* %6, i32 0, i32 9
  %8 = getelementptr inbounds %struct.Reg, %struct.Reg* %7, i32 0, i32 0
  %ESI = bitcast %union.anon* %8 to i32*
  %9 = getelementptr inbounds %struct.State, %struct.State* %0, i32 0, i32 6
  %10 = getelementptr inbounds %struct.GPR, %struct.GPR* %9, i32 0, i32 15
  %11 = getelementptr inbounds %struct.Reg, %struct.Reg* %10, i32 0, i32 0
  %RBP = bitcast %union.anon* %11 to i64*
  %12 = load i64, i64* %RBP
  %13 = sub i64 %12, 8
  %14 = load i32, i32* %ESI
  %15 = zext i32 %14 to i64
  %16 = load i64, i64* %PC
  %17 = add i64 %16, 3
  store i64 %17, i64* %PC
  %18 = inttoptr i64 %13 to i32*
  store i32 %14, i32* %18
  ret %struct.Memory* %2
}

define %struct.Memory* @routine_movl__edx__MINUS0xc__rbp_(%struct.State* dereferenceable(3376), i64, %struct.Memory*) {
block_400488:
  %3 = getelementptr inbounds %struct.State, %struct.State* %0, i32 0, i32 6
  %4 = getelementptr inbounds %struct.GPR, %struct.GPR* %3, i32 0, i32 33
  %5 = getelementptr inbounds %struct.Reg, %struct.Reg* %4, i32 0, i32 0
  %PC = bitcast %union.anon* %5 to i64*
  %6 = getelementptr inbounds %struct.State, %struct.State* %0, i32 0, i32 6
  %7 = getelementptr inbounds %struct.GPR, %struct.GPR* %6, i32 0, i32 7
  %8 = getelementptr inbounds %struct.Reg, %struct.Reg* %7, i32 0, i32 0
  %EDX = bitcast %union.anon* %8 to i32*
  %9 = getelementptr inbounds %struct.State, %struct.State* %0, i32 0, i32 6
  %10 = getelementptr inbounds %struct.GPR, %struct.GPR* %9, i32 0, i32 15
  %11 = getelementptr inbounds %struct.Reg, %struct.Reg* %10, i32 0, i32 0
  %RBP = bitcast %union.anon* %11 to i64*
  %12 = load i64, i64* %RBP
  %13 = sub i64 %12, 12
  %14 = load i32, i32* %EDX
  %15 = zext i32 %14 to i64
  %16 = load i64, i64* %PC
  %17 = add i64 %16, 3
  store i64 %17, i64* %PC
  %18 = inttoptr i64 %13 to i32*
  store i32 %14, i32* %18
  ret %struct.Memory* %2
}

define %struct.Memory* @routine_movl__ecx__MINUS0x10__rbp_(%struct.State* dereferenceable(3376), i64, %struct.Memory*) {
block_400488:
  %3 = getelementptr inbounds %struct.State, %struct.State* %0, i32 0, i32 6
  %4 = getelementptr inbounds %struct.GPR, %struct.GPR* %3, i32 0, i32 33
  %5 = getelementptr inbounds %struct.Reg, %struct.Reg* %4, i32 0, i32 0
  %PC = bitcast %union.anon* %5 to i64*
  %6 = getelementptr inbounds %struct.State, %struct.State* %0, i32 0, i32 6
  %7 = getelementptr inbounds %struct.GPR, %struct.GPR* %6, i32 0, i32 5
  %8 = getelementptr inbounds %struct.Reg, %struct.Reg* %7, i32 0, i32 0
  %ECX = bitcast %union.anon* %8 to i32*
  %9 = getelementptr inbounds %struct.State, %struct.State* %0, i32 0, i32 6
  %10 = getelementptr inbounds %struct.GPR, %struct.GPR* %9, i32 0, i32 15
  %11 = getelementptr inbounds %struct.Reg, %struct.Reg* %10, i32 0, i32 0
  %RBP = bitcast %union.anon* %11 to i64*
  %12 = load i64, i64* %RBP
  %13 = sub i64 %12, 16
  %14 = load i32, i32* %ECX
  %15 = zext i32 %14 to i64
  %16 = load i64, i64* %PC
  %17 = add i64 %16, 3
  store i64 %17, i64* %PC
  %18 = inttoptr i64 %13 to i32*
  store i32 %14, i32* %18
  ret %struct.Memory* %2
}

define %struct.Memory* @routine_movl__r8d__MINUS0x14__rbp_(%struct.State* dereferenceable(3376), i64, %struct.Memory*) {
block_400488:
  %3 = getelementptr inbounds %struct.State, %struct.State* %0, i32 0, i32 6
  %4 = getelementptr inbounds %struct.GPR, %struct.GPR* %3, i32 0, i32 33
  %5 = getelementptr inbounds %struct.Reg, %struct.Reg* %4, i32 0, i32 0
  %PC = bitcast %union.anon* %5 to i64*
  %6 = getelementptr inbounds %struct.State, %struct.State* %0, i32 0, i32 6
  %7 = getelementptr inbounds %struct.GPR, %struct.GPR* %6, i32 0, i32 17
  %8 = getelementptr inbounds %struct.Reg, %struct.Reg* %7, i32 0, i32 0
  %R8D = bitcast %union.anon* %8 to i32*
  %9 = getelementptr inbounds %struct.State, %struct.State* %0, i32 0, i32 6
  %10 = getelementptr inbounds %struct.GPR, %struct.GPR* %9, i32 0, i32 15
  %11 = getelementptr inbounds %struct.Reg, %struct.Reg* %10, i32 0, i32 0
  %RBP = bitcast %union.anon* %11 to i64*
  %12 = load i64, i64* %RBP
  %13 = sub i64 %12, 20
  %14 = load i32, i32* %R8D
  %15 = zext i32 %14 to i64
  %16 = load i64, i64* %PC
  %17 = add i64 %16, 4
  store i64 %17, i64* %PC
  %18 = inttoptr i64 %13 to i32*
  store i32 %14, i32* %18
  ret %struct.Memory* %2
}

define %struct.Memory* @routine_movl_MINUS0x4__rbp____eax(%struct.State* dereferenceable(3376), i64, %struct.Memory*) {
block_400488:
  %3 = getelementptr inbounds %struct.State, %struct.State* %0, i32 0, i32 6
  %4 = getelementptr inbounds %struct.GPR, %struct.GPR* %3, i32 0, i32 33
  %5 = getelementptr inbounds %struct.Reg, %struct.Reg* %4, i32 0, i32 0
  %PC = bitcast %union.anon* %5 to i64*
  %6 = getelementptr inbounds %struct.State, %struct.State* %0, i32 0, i32 6
  %7 = getelementptr inbounds %struct.GPR, %struct.GPR* %6, i32 0, i32 1
  %8 = getelementptr inbounds %struct.Reg, %struct.Reg* %7, i32 0, i32 0
  %RAX = bitcast %union.anon* %8 to i64*
  %9 = getelementptr inbounds %struct.State, %struct.State* %0, i32 0, i32 6
  %10 = getelementptr inbounds %struct.GPR, %struct.GPR* %9, i32 0, i32 15
  %11 = getelementptr inbounds %struct.Reg, %struct.Reg* %10, i32 0, i32 0
  %RBP = bitcast %union.anon* %11 to i64*
  %12 = load i64, i64* %RBP
  %13 = sub i64 %12, 4
  %14 = load i64, i64* %PC
  %15 = add i64 %14, 3
  store i64 %15, i64* %PC
  %16 = inttoptr i64 %13 to i32*
  %17 = load i32, i32* %16
  %18 = zext i32 %17 to i64
  store i64 %18, i64* %RAX, align 8
  ret %struct.Memory* %2
}

define %struct.Memory* @routine_cltd(%struct.State* dereferenceable(3376), i64, %struct.Memory*) {
block_400488:
  %3 = getelementptr inbounds %struct.State, %struct.State* %0, i32 0, i32 6
  %4 = getelementptr inbounds %struct.GPR, %struct.GPR* %3, i32 0, i32 33
  %5 = getelementptr inbounds %struct.Reg, %struct.Reg* %4, i32 0, i32 0
  %PC = bitcast %union.anon* %5 to i64*
  %6 = load i64, i64* %PC
  %7 = add i64 %6, 1
  store i64 %7, i64* %PC
  %8 = getelementptr inbounds %struct.State, %struct.State* %0, i64 0, i32 6, i32 7, i32 0, i32 0
  %9 = getelementptr inbounds %struct.State, %struct.State* %0, i64 0, i32 6, i32 1, i32 0
  %10 = bitcast %union.anon* %9 to i32*
  %11 = load i32, i32* %10, align 8
  %12 = sext i32 %11 to i64
  %13 = lshr i64 %12, 32
  store i64 %13, i64* %8, align 8
  ret %struct.Memory* %2
}

define %struct.Memory* @routine_idivl_MINUS0x8__rbp_(%struct.State* dereferenceable(3376), i64, %struct.Memory*) {
block_400488:
  %3 = getelementptr inbounds %struct.State, %struct.State* %0, i32 0, i32 6
  %4 = getelementptr inbounds %struct.GPR, %struct.GPR* %3, i32 0, i32 33
  %5 = getelementptr inbounds %struct.Reg, %struct.Reg* %4, i32 0, i32 0
  %PC = bitcast %union.anon* %5 to i64*
  %6 = getelementptr inbounds %struct.State, %struct.State* %0, i32 0, i32 6
  %7 = getelementptr inbounds %struct.GPR, %struct.GPR* %6, i32 0, i32 15
  %8 = getelementptr inbounds %struct.Reg, %struct.Reg* %7, i32 0, i32 0
  %RBP = bitcast %union.anon* %8 to i64*
  %9 = load i64, i64* %RBP
  %10 = sub i64 %9, 8
  %11 = load i64, i64* %PC
  %12 = add i64 %11, 3
  store i64 %12, i64* %PC
  %13 = getelementptr inbounds %struct.State, %struct.State* %0, i64 0, i32 6, i32 1, i32 0
  %14 = bitcast %union.anon* %13 to i32*
  %15 = load i32, i32* %14, align 8
  %16 = zext i32 %15 to i64
  %17 = getelementptr inbounds %struct.State, %struct.State* %0, i64 0, i32 6, i32 7, i32 0
  %18 = bitcast %union.anon* %17 to i32*
  %19 = load i32, i32* %18, align 8
  %20 = zext i32 %19 to i64
  %21 = inttoptr i64 %10 to i32*
  %22 = load i32, i32* %21
  %23 = sext i32 %22 to i64
  %24 = shl i64 %20, 32
  %25 = or i64 %24, %16
  %26 = sdiv i64 %25, %23
  %27 = shl i64 %26, 32
  %28 = ashr exact i64 %27, 32
  %29 = icmp eq i64 %26, %28
  br i1 %29, label %34, label %30

; <label>:30:                                     ; preds = %block_400488
  %31 = getelementptr inbounds %struct.State, %struct.State* %0, i64 0, i32 6, i32 33, i32 0, i32 0
  %32 = load i64, i64* %31, align 8
  %33 = call %struct.Memory* @__remill_error(%struct.State* nonnull dereferenceable(3376) %0, i64 %32, %struct.Memory* %2)
  br label %_ZN12_GLOBAL__N_1L10IDIVedxeaxI2MnIjEEEP6MemoryS4_R5StateT_.exit

; <label>:34:                                     ; preds = %block_400488
  %35 = srem i64 %25, %23
  %36 = getelementptr inbounds %union.anon, %union.anon* %13, i64 0, i32 0
  %37 = and i64 %26, 4294967295
  store i64 %37, i64* %36, align 8
  %38 = getelementptr inbounds %union.anon, %union.anon* %17, i64 0, i32 0
  %39 = and i64 %35, 4294967295
  store i64 %39, i64* %38, align 8
  %40 = getelementptr inbounds %struct.State, %struct.State* %0, i64 0, i32 2, i32 1
  store i8 0, i8* %40, align 1
  %41 = getelementptr inbounds %struct.State, %struct.State* %0, i64 0, i32 2, i32 3
  store i8 0, i8* %41, align 1
  %42 = getelementptr inbounds %struct.State, %struct.State* %0, i64 0, i32 2, i32 5
  store i8 0, i8* %42, align 1
  %43 = getelementptr inbounds %struct.State, %struct.State* %0, i64 0, i32 2, i32 7
  store i8 0, i8* %43, align 1
  %44 = getelementptr inbounds %struct.State, %struct.State* %0, i64 0, i32 2, i32 9
  store i8 0, i8* %44, align 1
  %45 = getelementptr inbounds %struct.State, %struct.State* %0, i64 0, i32 2, i32 13
  store i8 0, i8* %45, align 1
  br label %_ZN12_GLOBAL__N_1L10IDIVedxeaxI2MnIjEEEP6MemoryS4_R5StateT_.exit

_ZN12_GLOBAL__N_1L10IDIVedxeaxI2MnIjEEEP6MemoryS4_R5StateT_.exit: ; preds = %30, %34
  %46 = phi %struct.Memory* [ %33, %30 ], [ %2, %34 ]
  ret %struct.Memory* %46
}

define %struct.Memory* @routine_idivl_MINUS0xc__rbp_(%struct.State* dereferenceable(3376), i64, %struct.Memory*) {
block_400488:
  %3 = getelementptr inbounds %struct.State, %struct.State* %0, i32 0, i32 6
  %4 = getelementptr inbounds %struct.GPR, %struct.GPR* %3, i32 0, i32 33
  %5 = getelementptr inbounds %struct.Reg, %struct.Reg* %4, i32 0, i32 0
  %PC = bitcast %union.anon* %5 to i64*
  %6 = getelementptr inbounds %struct.State, %struct.State* %0, i32 0, i32 6
  %7 = getelementptr inbounds %struct.GPR, %struct.GPR* %6, i32 0, i32 15
  %8 = getelementptr inbounds %struct.Reg, %struct.Reg* %7, i32 0, i32 0
  %RBP = bitcast %union.anon* %8 to i64*
  %9 = load i64, i64* %RBP
  %10 = sub i64 %9, 12
  %11 = load i64, i64* %PC
  %12 = add i64 %11, 3
  store i64 %12, i64* %PC
  %13 = getelementptr inbounds %struct.State, %struct.State* %0, i64 0, i32 6, i32 1, i32 0
  %14 = bitcast %union.anon* %13 to i32*
  %15 = load i32, i32* %14, align 8
  %16 = zext i32 %15 to i64
  %17 = getelementptr inbounds %struct.State, %struct.State* %0, i64 0, i32 6, i32 7, i32 0
  %18 = bitcast %union.anon* %17 to i32*
  %19 = load i32, i32* %18, align 8
  %20 = zext i32 %19 to i64
  %21 = inttoptr i64 %10 to i32*
  %22 = load i32, i32* %21
  %23 = sext i32 %22 to i64
  %24 = shl i64 %20, 32
  %25 = or i64 %24, %16
  %26 = sdiv i64 %25, %23
  %27 = shl i64 %26, 32
  %28 = ashr exact i64 %27, 32
  %29 = icmp eq i64 %26, %28
  br i1 %29, label %34, label %30

; <label>:30:                                     ; preds = %block_400488
  %31 = getelementptr inbounds %struct.State, %struct.State* %0, i64 0, i32 6, i32 33, i32 0, i32 0
  %32 = load i64, i64* %31, align 8
  %33 = call %struct.Memory* @__remill_error(%struct.State* nonnull dereferenceable(3376) %0, i64 %32, %struct.Memory* %2)
  br label %_ZN12_GLOBAL__N_1L10IDIVedxeaxI2MnIjEEEP6MemoryS4_R5StateT_.exit

; <label>:34:                                     ; preds = %block_400488
  %35 = srem i64 %25, %23
  %36 = getelementptr inbounds %union.anon, %union.anon* %13, i64 0, i32 0
  %37 = and i64 %26, 4294967295
  store i64 %37, i64* %36, align 8
  %38 = getelementptr inbounds %union.anon, %union.anon* %17, i64 0, i32 0
  %39 = and i64 %35, 4294967295
  store i64 %39, i64* %38, align 8
  %40 = getelementptr inbounds %struct.State, %struct.State* %0, i64 0, i32 2, i32 1
  store i8 0, i8* %40, align 1
  %41 = getelementptr inbounds %struct.State, %struct.State* %0, i64 0, i32 2, i32 3
  store i8 0, i8* %41, align 1
  %42 = getelementptr inbounds %struct.State, %struct.State* %0, i64 0, i32 2, i32 5
  store i8 0, i8* %42, align 1
  %43 = getelementptr inbounds %struct.State, %struct.State* %0, i64 0, i32 2, i32 7
  store i8 0, i8* %43, align 1
  %44 = getelementptr inbounds %struct.State, %struct.State* %0, i64 0, i32 2, i32 9
  store i8 0, i8* %44, align 1
  %45 = getelementptr inbounds %struct.State, %struct.State* %0, i64 0, i32 2, i32 13
  store i8 0, i8* %45, align 1
  br label %_ZN12_GLOBAL__N_1L10IDIVedxeaxI2MnIjEEEP6MemoryS4_R5StateT_.exit

_ZN12_GLOBAL__N_1L10IDIVedxeaxI2MnIjEEEP6MemoryS4_R5StateT_.exit: ; preds = %30, %34
  %46 = phi %struct.Memory* [ %33, %30 ], [ %2, %34 ]
  ret %struct.Memory* %46
}

define %struct.Memory* @routine_idivl_MINUS0x10__rbp_(%struct.State* dereferenceable(3376), i64, %struct.Memory*) {
block_400488:
  %3 = getelementptr inbounds %struct.State, %struct.State* %0, i32 0, i32 6
  %4 = getelementptr inbounds %struct.GPR, %struct.GPR* %3, i32 0, i32 33
  %5 = getelementptr inbounds %struct.Reg, %struct.Reg* %4, i32 0, i32 0
  %PC = bitcast %union.anon* %5 to i64*
  %6 = getelementptr inbounds %struct.State, %struct.State* %0, i32 0, i32 6
  %7 = getelementptr inbounds %struct.GPR, %struct.GPR* %6, i32 0, i32 15
  %8 = getelementptr inbounds %struct.Reg, %struct.Reg* %7, i32 0, i32 0
  %RBP = bitcast %union.anon* %8 to i64*
  %9 = load i64, i64* %RBP
  %10 = sub i64 %9, 16
  %11 = load i64, i64* %PC
  %12 = add i64 %11, 3
  store i64 %12, i64* %PC
  %13 = getelementptr inbounds %struct.State, %struct.State* %0, i64 0, i32 6, i32 1, i32 0
  %14 = bitcast %union.anon* %13 to i32*
  %15 = load i32, i32* %14, align 8
  %16 = zext i32 %15 to i64
  %17 = getelementptr inbounds %struct.State, %struct.State* %0, i64 0, i32 6, i32 7, i32 0
  %18 = bitcast %union.anon* %17 to i32*
  %19 = load i32, i32* %18, align 8
  %20 = zext i32 %19 to i64
  %21 = inttoptr i64 %10 to i32*
  %22 = load i32, i32* %21
  %23 = sext i32 %22 to i64
  %24 = shl i64 %20, 32
  %25 = or i64 %24, %16
  %26 = sdiv i64 %25, %23
  %27 = shl i64 %26, 32
  %28 = ashr exact i64 %27, 32
  %29 = icmp eq i64 %26, %28
  br i1 %29, label %34, label %30

; <label>:30:                                     ; preds = %block_400488
  %31 = getelementptr inbounds %struct.State, %struct.State* %0, i64 0, i32 6, i32 33, i32 0, i32 0
  %32 = load i64, i64* %31, align 8
  %33 = call %struct.Memory* @__remill_error(%struct.State* nonnull dereferenceable(3376) %0, i64 %32, %struct.Memory* %2)
  br label %_ZN12_GLOBAL__N_1L10IDIVedxeaxI2MnIjEEEP6MemoryS4_R5StateT_.exit

; <label>:34:                                     ; preds = %block_400488
  %35 = srem i64 %25, %23
  %36 = getelementptr inbounds %union.anon, %union.anon* %13, i64 0, i32 0
  %37 = and i64 %26, 4294967295
  store i64 %37, i64* %36, align 8
  %38 = getelementptr inbounds %union.anon, %union.anon* %17, i64 0, i32 0
  %39 = and i64 %35, 4294967295
  store i64 %39, i64* %38, align 8
  %40 = getelementptr inbounds %struct.State, %struct.State* %0, i64 0, i32 2, i32 1
  store i8 0, i8* %40, align 1
  %41 = getelementptr inbounds %struct.State, %struct.State* %0, i64 0, i32 2, i32 3
  store i8 0, i8* %41, align 1
  %42 = getelementptr inbounds %struct.State, %struct.State* %0, i64 0, i32 2, i32 5
  store i8 0, i8* %42, align 1
  %43 = getelementptr inbounds %struct.State, %struct.State* %0, i64 0, i32 2, i32 7
  store i8 0, i8* %43, align 1
  %44 = getelementptr inbounds %struct.State, %struct.State* %0, i64 0, i32 2, i32 9
  store i8 0, i8* %44, align 1
  %45 = getelementptr inbounds %struct.State, %struct.State* %0, i64 0, i32 2, i32 13
  store i8 0, i8* %45, align 1
  br label %_ZN12_GLOBAL__N_1L10IDIVedxeaxI2MnIjEEEP6MemoryS4_R5StateT_.exit

_ZN12_GLOBAL__N_1L10IDIVedxeaxI2MnIjEEEP6MemoryS4_R5StateT_.exit: ; preds = %30, %34
  %46 = phi %struct.Memory* [ %33, %30 ], [ %2, %34 ]
  ret %struct.Memory* %46
}

define %struct.Memory* @routine_idivl_MINUS0x14__rbp_(%struct.State* dereferenceable(3376), i64, %struct.Memory*) {
block_400488:
  %3 = getelementptr inbounds %struct.State, %struct.State* %0, i32 0, i32 6
  %4 = getelementptr inbounds %struct.GPR, %struct.GPR* %3, i32 0, i32 33
  %5 = getelementptr inbounds %struct.Reg, %struct.Reg* %4, i32 0, i32 0
  %PC = bitcast %union.anon* %5 to i64*
  %6 = getelementptr inbounds %struct.State, %struct.State* %0, i32 0, i32 6
  %7 = getelementptr inbounds %struct.GPR, %struct.GPR* %6, i32 0, i32 15
  %8 = getelementptr inbounds %struct.Reg, %struct.Reg* %7, i32 0, i32 0
  %RBP = bitcast %union.anon* %8 to i64*
  %9 = load i64, i64* %RBP
  %10 = sub i64 %9, 20
  %11 = load i64, i64* %PC
  %12 = add i64 %11, 3
  store i64 %12, i64* %PC
  %13 = getelementptr inbounds %struct.State, %struct.State* %0, i64 0, i32 6, i32 1, i32 0
  %14 = bitcast %union.anon* %13 to i32*
  %15 = load i32, i32* %14, align 8
  %16 = zext i32 %15 to i64
  %17 = getelementptr inbounds %struct.State, %struct.State* %0, i64 0, i32 6, i32 7, i32 0
  %18 = bitcast %union.anon* %17 to i32*
  %19 = load i32, i32* %18, align 8
  %20 = zext i32 %19 to i64
  %21 = inttoptr i64 %10 to i32*
  %22 = load i32, i32* %21
  %23 = sext i32 %22 to i64
  %24 = shl i64 %20, 32
  %25 = or i64 %24, %16
  %26 = sdiv i64 %25, %23
  %27 = shl i64 %26, 32
  %28 = ashr exact i64 %27, 32
  %29 = icmp eq i64 %26, %28
  br i1 %29, label %34, label %30

; <label>:30:                                     ; preds = %block_400488
  %31 = getelementptr inbounds %struct.State, %struct.State* %0, i64 0, i32 6, i32 33, i32 0, i32 0
  %32 = load i64, i64* %31, align 8
  %33 = call %struct.Memory* @__remill_error(%struct.State* nonnull dereferenceable(3376) %0, i64 %32, %struct.Memory* %2)
  br label %_ZN12_GLOBAL__N_1L10IDIVedxeaxI2MnIjEEEP6MemoryS4_R5StateT_.exit

; <label>:34:                                     ; preds = %block_400488
  %35 = srem i64 %25, %23
  %36 = getelementptr inbounds %union.anon, %union.anon* %13, i64 0, i32 0
  %37 = and i64 %26, 4294967295
  store i64 %37, i64* %36, align 8
  %38 = getelementptr inbounds %union.anon, %union.anon* %17, i64 0, i32 0
  %39 = and i64 %35, 4294967295
  store i64 %39, i64* %38, align 8
  %40 = getelementptr inbounds %struct.State, %struct.State* %0, i64 0, i32 2, i32 1
  store i8 0, i8* %40, align 1
  %41 = getelementptr inbounds %struct.State, %struct.State* %0, i64 0, i32 2, i32 3
  store i8 0, i8* %41, align 1
  %42 = getelementptr inbounds %struct.State, %struct.State* %0, i64 0, i32 2, i32 5
  store i8 0, i8* %42, align 1
  %43 = getelementptr inbounds %struct.State, %struct.State* %0, i64 0, i32 2, i32 7
  store i8 0, i8* %43, align 1
  %44 = getelementptr inbounds %struct.State, %struct.State* %0, i64 0, i32 2, i32 9
  store i8 0, i8* %44, align 1
  %45 = getelementptr inbounds %struct.State, %struct.State* %0, i64 0, i32 2, i32 13
  store i8 0, i8* %45, align 1
  br label %_ZN12_GLOBAL__N_1L10IDIVedxeaxI2MnIjEEEP6MemoryS4_R5StateT_.exit

_ZN12_GLOBAL__N_1L10IDIVedxeaxI2MnIjEEEP6MemoryS4_R5StateT_.exit: ; preds = %30, %34
  %46 = phi %struct.Memory* [ %33, %30 ], [ %2, %34 ]
  ret %struct.Memory* %46
}

define %struct.Memory* @routine_popq__rbp(%struct.State* dereferenceable(3376), i64, %struct.Memory*) {
block_400488:
  %3 = getelementptr inbounds %struct.State, %struct.State* %0, i32 0, i32 6
  %4 = getelementptr inbounds %struct.GPR, %struct.GPR* %3, i32 0, i32 33
  %5 = getelementptr inbounds %struct.Reg, %struct.Reg* %4, i32 0, i32 0
  %PC = bitcast %union.anon* %5 to i64*
  %6 = getelementptr inbounds %struct.State, %struct.State* %0, i32 0, i32 6
  %7 = getelementptr inbounds %struct.GPR, %struct.GPR* %6, i32 0, i32 15
  %8 = getelementptr inbounds %struct.Reg, %struct.Reg* %7, i32 0, i32 0
  %RBP = bitcast %union.anon* %8 to i64*
  %9 = load i64, i64* %PC
  %10 = add i64 %9, 1
  store i64 %10, i64* %PC
  %11 = getelementptr inbounds %struct.State, %struct.State* %0, i64 0, i32 6, i32 13, i32 0, i32 0
  %12 = load i64, i64* %11, align 8
  %13 = add i64 %12, 8
  %14 = inttoptr i64 %12 to i64*
  %15 = load i64, i64* %14
  store i64 %15, i64* %RBP, align 8
  store i64 %13, i64* %11, align 8
  ret %struct.Memory* %2
}

define %struct.Memory* @routine_retq(%struct.State* dereferenceable(3376), i64, %struct.Memory*) {
block_400488:
  %3 = getelementptr inbounds %struct.State, %struct.State* %0, i32 0, i32 6
  %4 = getelementptr inbounds %struct.GPR, %struct.GPR* %3, i32 0, i32 33
  %5 = getelementptr inbounds %struct.Reg, %struct.Reg* %4, i32 0, i32 0
  %PC = bitcast %union.anon* %5 to i64*
  %6 = load i64, i64* %PC
  %7 = add i64 %6, 1
  store i64 %7, i64* %PC
  %8 = getelementptr inbounds %struct.State, %struct.State* %0, i64 0, i32 6, i32 33, i32 0, i32 0
  %9 = getelementptr inbounds %struct.State, %struct.State* %0, i64 0, i32 6, i32 13, i32 0, i32 0
  %10 = load i64, i64* %9, align 8
  %11 = inttoptr i64 %10 to i64*
  %12 = load i64, i64* %11
  store i64 %12, i64* %8, align 8
  %13 = add i64 %10, 8
  store i64 %13, i64* %9, align 8
  ret %struct.Memory* %2
}

attributes #0 = { nounwind readnone }
attributes #1 = { alwaysinline }
