; ModuleID = 'mcsema/test.proposed.inline.ll'
source_filename = "llvm-link"
target datalayout = "e-m:e-i64:64-f80:128-n8:16:32:64-S128"
target triple = "x86_64-pc-linux-gnu-elf"

%__bss_start_type = type <{ [8 x i8] }>
%struct.State = type { %struct.ArchState, [32 x %union.VectorReg], %struct.ArithFlags, %union.anon, %struct.Segments, %struct.AddressSpace, %struct.GPR, %struct.X87Stack, %struct.MMX, %struct.FPUStatusFlags, %union.anon, %union.FPU, %struct.SegmentCaches }
%struct.ArchState = type { i32, i32, %union.anon }
%union.VectorReg = type { %union.vec512_t }
%union.vec512_t = type { %struct.uint64v8_t }
%struct.uint64v8_t = type { [8 x i64] }
%struct.ArithFlags = type { i8, i8, i8, i8, i8, i8, i8, i8, i8, i8, i8, i8, i8, i8, i8, i8 }
%struct.Segments = type { i16, %union.SegmentSelector, i16, %union.SegmentSelector, i16, %union.SegmentSelector, i16, %union.SegmentSelector, i16, %union.SegmentSelector, i16, %union.SegmentSelector }
%union.SegmentSelector = type { i16 }
%struct.AddressSpace = type { i64, %struct.Reg, i64, %struct.Reg, i64, %struct.Reg, i64, %struct.Reg, i64, %struct.Reg, i64, %struct.Reg }
%struct.Reg = type { %union.anon }
%struct.GPR = type { i64, %struct.Reg, i64, %struct.Reg, i64, %struct.Reg, i64, %struct.Reg, i64, %struct.Reg, i64, %struct.Reg, i64, %struct.Reg, i64, %struct.Reg, i64, %struct.Reg, i64, %struct.Reg, i64, %struct.Reg, i64, %struct.Reg, i64, %struct.Reg, i64, %struct.Reg, i64, %struct.Reg, i64, %struct.Reg, i64, %struct.Reg }
%struct.X87Stack = type { [8 x %struct.anon.3] }
%struct.anon.3 = type { i64, double }
%struct.MMX = type { [8 x %struct.anon.4] }
%struct.anon.4 = type { i64, %union.vec64_t }
%union.vec64_t = type { %struct.uint64v1_t }
%struct.uint64v1_t = type { [1 x i64] }
%struct.FPUStatusFlags = type { i8, i8, i8, i8, i8, i8, i8, i8, i8, i8, i8, i8, i8, i8, i8, i8, i8, i8, i8, i8, [4 x i8] }
%union.anon = type { i64 }
%union.FPU = type { %struct.anon.13 }
%struct.anon.13 = type { %struct.FpuFXSAVE, [96 x i8] }
%struct.FpuFXSAVE = type { %union.SegmentSelector, %union.SegmentSelector, %union.FPUAbridgedTagWord, i8, i16, i32, %union.SegmentSelector, i16, i32, %union.SegmentSelector, i16, %union.FPUControlStatus, %union.FPUControlStatus, [8 x %struct.FPUStackElem], [16 x %union.vec128_t] }
%union.FPUAbridgedTagWord = type { i8 }
%union.FPUControlStatus = type { i32 }
%struct.FPUStackElem = type { %union.anon.11, [6 x i8] }
%union.anon.11 = type { %struct.float80_t }
%struct.float80_t = type { [10 x i8] }
%union.vec128_t = type { %struct.uint128v1_t }
%struct.uint128v1_t = type { [1 x i128] }
%struct.SegmentCaches = type { %struct.SegmentShadow, %struct.SegmentShadow, %struct.SegmentShadow, %struct.SegmentShadow, %struct.SegmentShadow, %struct.SegmentShadow }
%struct.SegmentShadow = type { %union.anon, i32, i32 }
%struct.Memory = type opaque

@__bss_start = local_unnamed_addr global %__bss_start_type zeroinitializer

declare %struct.Memory* @__remill_error(%struct.State* dereferenceable(3376), i64, %struct.Memory*) local_unnamed_addr

; Function Attrs: alwaysinline
define %struct.Memory* @_ZN31custom_divide_multiple_variableIiE8do_shiftEiiiii(%struct.State* noalias, i64, %struct.Memory* noalias) local_unnamed_addr #0 {
entry:
  %3 = getelementptr inbounds %struct.State, %struct.State* %0, i64 0, i32 6, i32 33, i32 0, i32 0
  %PC.i = getelementptr inbounds %struct.State, %struct.State* %0, i64 0, i32 6, i32 33, i32 0, i32 0
  %RBP.i = getelementptr inbounds %struct.State, %struct.State* %0, i64 0, i32 6, i32 15, i32 0, i32 0
  %4 = load i64, i64* %RBP.i, align 8
  %5 = add i64 %1, 1
  store i64 %5, i64* %PC.i, align 8
  %6 = getelementptr inbounds %struct.State, %struct.State* %0, i64 0, i32 6, i32 13, i32 0, i32 0
  %7 = load i64, i64* %6, align 8
  %8 = add i64 %7, -8
  %9 = inttoptr i64 %8 to i64*
  store i64 %4, i64* %9, align 8
  store i64 %8, i64* %6, align 8
  %10 = load i64, i64* %PC.i, align 8
  store i64 %8, i64* %RBP.i, align 8
  %11 = getelementptr inbounds %struct.State, %struct.State* %0, i64 0, i32 6, i32 11, i32 0
  %EDI.i = bitcast %union.anon* %11 to i32*
  %12 = add i64 %7, -12
  %13 = load i32, i32* %EDI.i, align 4
  %14 = add i64 %10, 6
  store i64 %14, i64* %PC.i, align 8
  %15 = inttoptr i64 %12 to i32*
  store i32 %13, i32* %15, align 4
  %16 = getelementptr inbounds %struct.State, %struct.State* %0, i64 0, i32 6, i32 9, i32 0
  %ESI.i = bitcast %union.anon* %16 to i32*
  %17 = load i64, i64* %RBP.i, align 8
  %18 = add i64 %17, -8
  %19 = load i32, i32* %ESI.i, align 4
  %20 = load i64, i64* %PC.i, align 8
  %21 = add i64 %20, 3
  store i64 %21, i64* %PC.i, align 8
  %22 = inttoptr i64 %18 to i32*
  store i32 %19, i32* %22, align 4
  %23 = getelementptr inbounds %struct.State, %struct.State* %0, i64 0, i32 6, i32 7, i32 0
  %EDX.i = bitcast %union.anon* %23 to i32*
  %24 = load i64, i64* %RBP.i, align 8
  %25 = add i64 %24, -12
  %26 = load i32, i32* %EDX.i, align 4
  %27 = load i64, i64* %PC.i, align 8
  %28 = add i64 %27, 3
  store i64 %28, i64* %PC.i, align 8
  %29 = inttoptr i64 %25 to i32*
  store i32 %26, i32* %29, align 4
  %30 = getelementptr inbounds %struct.State, %struct.State* %0, i64 0, i32 6, i32 5, i32 0
  %ECX.i = bitcast %union.anon* %30 to i32*
  %31 = load i64, i64* %RBP.i, align 8
  %32 = add i64 %31, -16
  %33 = load i32, i32* %ECX.i, align 4
  %34 = load i64, i64* %PC.i, align 8
  %35 = add i64 %34, 3
  store i64 %35, i64* %PC.i, align 8
  %36 = inttoptr i64 %32 to i32*
  store i32 %33, i32* %36, align 4
  %37 = getelementptr inbounds %struct.State, %struct.State* %0, i64 0, i32 6, i32 17, i32 0
  %R8D.i = bitcast %union.anon* %37 to i32*
  %38 = load i64, i64* %RBP.i, align 8
  %39 = add i64 %38, -20
  %40 = load i32, i32* %R8D.i, align 4
  %41 = load i64, i64* %PC.i, align 8
  %42 = add i64 %41, 4
  store i64 %42, i64* %PC.i, align 8
  %43 = inttoptr i64 %39 to i32*
  store i32 %40, i32* %43, align 4
  %RAX.i = getelementptr inbounds %struct.State, %struct.State* %0, i64 0, i32 6, i32 1, i32 0, i32 0
  %44 = load i64, i64* %RBP.i, align 8
  %45 = add i64 %44, -4
  %46 = load i64, i64* %PC.i, align 8
  %47 = add i64 %46, 3
  store i64 %47, i64* %PC.i, align 8
  %48 = inttoptr i64 %45 to i32*
  %49 = load i32, i32* %48, align 4
  %50 = zext i32 %49 to i64
  store i64 %50, i64* %RAX.i, align 8
  %51 = getelementptr inbounds %struct.State, %struct.State* %0, i64 0, i32 6, i32 7, i32 0, i32 0
  %52 = getelementptr inbounds %struct.State, %struct.State* %0, i64 0, i32 6, i32 1, i32 0
  %53 = bitcast %union.anon* %52 to i32*
  %54 = sext i32 %49 to i64
  %55 = lshr i64 %54, 32
  store i64 %55, i64* %51, align 8
  %56 = add i64 %44, -8
  %57 = add i64 %46, 7
  store i64 %57, i64* %PC.i, align 8
  %58 = getelementptr inbounds %struct.State, %struct.State* %0, i64 0, i32 6, i32 7, i32 0
  %59 = inttoptr i64 %56 to i32*
  %60 = load i32, i32* %59, align 4
  %61 = sext i32 %60 to i64
  %62 = shl nuw i64 %55, 32
  %63 = or i64 %62, %50
  %64 = sdiv i64 %63, %61
  %65 = shl i64 %64, 32
  %66 = ashr exact i64 %65, 32
  %67 = icmp eq i64 %64, %66
  br i1 %67, label %70, label %68

; <label>:68:                                     ; preds = %entry
  %69 = tail call %struct.Memory* @__remill_error(%struct.State* nonnull dereferenceable(3376) %0, i64 %57, %struct.Memory* %2)
  %.pre = load i64, i64* %PC.i, align 8
  %.pre1 = load i32, i32* %53, align 8
  %.pre2 = load i64, i64* %RBP.i, align 8
  br label %routine_idivl_MINUS0x8__rbp_.exit

; <label>:70:                                     ; preds = %entry
  %71 = srem i64 %63, %61
  %72 = getelementptr inbounds %union.anon, %union.anon* %52, i64 0, i32 0
  %73 = and i64 %64, 4294967295
  store i64 %73, i64* %72, align 8
  %74 = getelementptr inbounds %union.anon, %union.anon* %58, i64 0, i32 0
  %75 = and i64 %71, 4294967295
  store i64 %75, i64* %74, align 8
  %76 = getelementptr inbounds %struct.State, %struct.State* %0, i64 0, i32 2, i32 1
  store i8 0, i8* %76, align 1
  %77 = getelementptr inbounds %struct.State, %struct.State* %0, i64 0, i32 2, i32 3
  store i8 0, i8* %77, align 1
  %78 = getelementptr inbounds %struct.State, %struct.State* %0, i64 0, i32 2, i32 5
  store i8 0, i8* %78, align 1
  %79 = getelementptr inbounds %struct.State, %struct.State* %0, i64 0, i32 2, i32 7
  store i8 0, i8* %79, align 1
  %80 = getelementptr inbounds %struct.State, %struct.State* %0, i64 0, i32 2, i32 9
  store i8 0, i8* %80, align 1
  %81 = getelementptr inbounds %struct.State, %struct.State* %0, i64 0, i32 2, i32 13
  store i8 0, i8* %81, align 1
  %82 = trunc i64 %64 to i32
  br label %routine_idivl_MINUS0x8__rbp_.exit

routine_idivl_MINUS0x8__rbp_.exit:                ; preds = %70, %68
  %83 = phi i32 [ %.pre1, %68 ], [ %82, %70 ]
  %84 = phi i64 [ %.pre2, %68 ], [ %44, %70 ]
  %85 = phi i64 [ %.pre, %68 ], [ %57, %70 ]
  %86 = phi %struct.Memory* [ %69, %68 ], [ %2, %70 ]
  %87 = sext i32 %83 to i64
  %88 = lshr i64 %87, 32
  store i64 %88, i64* %51, align 8
  %89 = add i64 %84, -12
  %90 = add i64 %85, 4
  store i64 %90, i64* %PC.i, align 8
  %91 = zext i32 %83 to i64
  %92 = inttoptr i64 %89 to i32*
  %93 = load i32, i32* %92, align 4
  %94 = sext i32 %93 to i64
  %95 = shl nuw i64 %88, 32
  %96 = or i64 %95, %91
  %97 = sdiv i64 %96, %94
  %98 = shl i64 %97, 32
  %99 = ashr exact i64 %98, 32
  %100 = icmp eq i64 %97, %99
  br i1 %100, label %103, label %101

; <label>:101:                                    ; preds = %routine_idivl_MINUS0x8__rbp_.exit
  %102 = tail call %struct.Memory* @__remill_error(%struct.State* nonnull dereferenceable(3376) %0, i64 %90, %struct.Memory* %86)
  %.pre3 = load i64, i64* %PC.i, align 8
  %.pre4 = load i32, i32* %53, align 8
  %.pre5 = load i64, i64* %RBP.i, align 8
  br label %routine_idivl_MINUS0xc__rbp_.exit

; <label>:103:                                    ; preds = %routine_idivl_MINUS0x8__rbp_.exit
  %104 = srem i64 %96, %94
  %105 = getelementptr inbounds %union.anon, %union.anon* %52, i64 0, i32 0
  %106 = and i64 %97, 4294967295
  store i64 %106, i64* %105, align 8
  %107 = getelementptr inbounds %union.anon, %union.anon* %58, i64 0, i32 0
  %108 = and i64 %104, 4294967295
  store i64 %108, i64* %107, align 8
  %109 = getelementptr inbounds %struct.State, %struct.State* %0, i64 0, i32 2, i32 1
  store i8 0, i8* %109, align 1
  %110 = getelementptr inbounds %struct.State, %struct.State* %0, i64 0, i32 2, i32 3
  store i8 0, i8* %110, align 1
  %111 = getelementptr inbounds %struct.State, %struct.State* %0, i64 0, i32 2, i32 5
  store i8 0, i8* %111, align 1
  %112 = getelementptr inbounds %struct.State, %struct.State* %0, i64 0, i32 2, i32 7
  store i8 0, i8* %112, align 1
  %113 = getelementptr inbounds %struct.State, %struct.State* %0, i64 0, i32 2, i32 9
  store i8 0, i8* %113, align 1
  %114 = getelementptr inbounds %struct.State, %struct.State* %0, i64 0, i32 2, i32 13
  store i8 0, i8* %114, align 1
  %115 = trunc i64 %97 to i32
  br label %routine_idivl_MINUS0xc__rbp_.exit

routine_idivl_MINUS0xc__rbp_.exit:                ; preds = %103, %101
  %116 = phi i32 [ %.pre4, %101 ], [ %115, %103 ]
  %117 = phi i64 [ %.pre5, %101 ], [ %84, %103 ]
  %118 = phi i64 [ %.pre3, %101 ], [ %90, %103 ]
  %119 = phi %struct.Memory* [ %102, %101 ], [ %86, %103 ]
  %120 = sext i32 %116 to i64
  %121 = lshr i64 %120, 32
  store i64 %121, i64* %51, align 8
  %122 = add i64 %117, -16
  %123 = add i64 %118, 4
  store i64 %123, i64* %PC.i, align 8
  %124 = zext i32 %116 to i64
  %125 = inttoptr i64 %122 to i32*
  %126 = load i32, i32* %125, align 4
  %127 = sext i32 %126 to i64
  %128 = shl nuw i64 %121, 32
  %129 = or i64 %128, %124
  %130 = sdiv i64 %129, %127
  %131 = shl i64 %130, 32
  %132 = ashr exact i64 %131, 32
  %133 = icmp eq i64 %130, %132
  br i1 %133, label %136, label %134

; <label>:134:                                    ; preds = %routine_idivl_MINUS0xc__rbp_.exit
  %135 = tail call %struct.Memory* @__remill_error(%struct.State* nonnull dereferenceable(3376) %0, i64 %123, %struct.Memory* %119)
  %.pre6 = load i64, i64* %PC.i, align 8
  %.pre7 = load i32, i32* %53, align 8
  %.pre8 = load i64, i64* %RBP.i, align 8
  br label %routine_idivl_MINUS0x10__rbp_.exit

; <label>:136:                                    ; preds = %routine_idivl_MINUS0xc__rbp_.exit
  %137 = srem i64 %129, %127
  %138 = getelementptr inbounds %union.anon, %union.anon* %52, i64 0, i32 0
  %139 = and i64 %130, 4294967295
  store i64 %139, i64* %138, align 8
  %140 = getelementptr inbounds %union.anon, %union.anon* %58, i64 0, i32 0
  %141 = and i64 %137, 4294967295
  store i64 %141, i64* %140, align 8
  %142 = getelementptr inbounds %struct.State, %struct.State* %0, i64 0, i32 2, i32 1
  store i8 0, i8* %142, align 1
  %143 = getelementptr inbounds %struct.State, %struct.State* %0, i64 0, i32 2, i32 3
  store i8 0, i8* %143, align 1
  %144 = getelementptr inbounds %struct.State, %struct.State* %0, i64 0, i32 2, i32 5
  store i8 0, i8* %144, align 1
  %145 = getelementptr inbounds %struct.State, %struct.State* %0, i64 0, i32 2, i32 7
  store i8 0, i8* %145, align 1
  %146 = getelementptr inbounds %struct.State, %struct.State* %0, i64 0, i32 2, i32 9
  store i8 0, i8* %146, align 1
  %147 = getelementptr inbounds %struct.State, %struct.State* %0, i64 0, i32 2, i32 13
  store i8 0, i8* %147, align 1
  %148 = trunc i64 %130 to i32
  br label %routine_idivl_MINUS0x10__rbp_.exit

routine_idivl_MINUS0x10__rbp_.exit:               ; preds = %136, %134
  %149 = phi i32 [ %.pre7, %134 ], [ %148, %136 ]
  %150 = phi i64 [ %.pre8, %134 ], [ %117, %136 ]
  %151 = phi i64 [ %.pre6, %134 ], [ %123, %136 ]
  %152 = phi %struct.Memory* [ %135, %134 ], [ %119, %136 ]
  %153 = sext i32 %149 to i64
  %154 = lshr i64 %153, 32
  store i64 %154, i64* %51, align 8
  %155 = add i64 %150, -20
  %156 = add i64 %151, 4
  store i64 %156, i64* %PC.i, align 8
  %157 = zext i32 %149 to i64
  %158 = inttoptr i64 %155 to i32*
  %159 = load i32, i32* %158, align 4
  %160 = sext i32 %159 to i64
  %161 = shl nuw i64 %154, 32
  %162 = or i64 %161, %157
  %163 = sdiv i64 %162, %160
  %164 = shl i64 %163, 32
  %165 = ashr exact i64 %164, 32
  %166 = icmp eq i64 %163, %165
  br i1 %166, label %169, label %167

; <label>:167:                                    ; preds = %routine_idivl_MINUS0x10__rbp_.exit
  %168 = tail call %struct.Memory* @__remill_error(%struct.State* nonnull dereferenceable(3376) %0, i64 %156, %struct.Memory* %152)
  %.pre9 = load i64, i64* %PC.i, align 8
  br label %routine_idivl_MINUS0x14__rbp_.exit

; <label>:169:                                    ; preds = %routine_idivl_MINUS0x10__rbp_.exit
  %170 = srem i64 %162, %160
  %171 = getelementptr inbounds %union.anon, %union.anon* %52, i64 0, i32 0
  %172 = and i64 %163, 4294967295
  store i64 %172, i64* %171, align 8
  %173 = getelementptr inbounds %union.anon, %union.anon* %58, i64 0, i32 0
  %174 = and i64 %170, 4294967295
  store i64 %174, i64* %173, align 8
  %175 = getelementptr inbounds %struct.State, %struct.State* %0, i64 0, i32 2, i32 1
  store i8 0, i8* %175, align 1
  %176 = getelementptr inbounds %struct.State, %struct.State* %0, i64 0, i32 2, i32 3
  store i8 0, i8* %176, align 1
  %177 = getelementptr inbounds %struct.State, %struct.State* %0, i64 0, i32 2, i32 5
  store i8 0, i8* %177, align 1
  %178 = getelementptr inbounds %struct.State, %struct.State* %0, i64 0, i32 2, i32 7
  store i8 0, i8* %178, align 1
  %179 = getelementptr inbounds %struct.State, %struct.State* %0, i64 0, i32 2, i32 9
  store i8 0, i8* %179, align 1
  %180 = getelementptr inbounds %struct.State, %struct.State* %0, i64 0, i32 2, i32 13
  store i8 0, i8* %180, align 1
  br label %routine_idivl_MINUS0x14__rbp_.exit

routine_idivl_MINUS0x14__rbp_.exit:               ; preds = %169, %167
  %181 = phi i64 [ %.pre9, %167 ], [ %156, %169 ]
  %182 = phi %struct.Memory* [ %168, %167 ], [ %152, %169 ]
  %183 = add i64 %181, 1
  store i64 %183, i64* %PC.i, align 8
  %184 = load i64, i64* %6, align 8
  %185 = add i64 %184, 8
  %186 = inttoptr i64 %184 to i64*
  %187 = load i64, i64* %186, align 8
  store i64 %187, i64* %RBP.i, align 8
  store i64 %185, i64* %6, align 8
  %188 = add i64 %181, 2
  store i64 %188, i64* %PC.i, align 8
  %189 = inttoptr i64 %185 to i64*
  %190 = load i64, i64* %189, align 8
  store i64 %190, i64* %3, align 8
  %191 = add i64 %184, 16
  store i64 %191, i64* %6, align 8
  ret %struct.Memory* %182
}

define %struct.Memory* @routine_pushq__rbp(%struct.State* dereferenceable(3376), i64, %struct.Memory*) local_unnamed_addr {
block_400478:
  %PC = getelementptr inbounds %struct.State, %struct.State* %0, i64 0, i32 6, i32 33, i32 0, i32 0
  %RBP = getelementptr inbounds %struct.State, %struct.State* %0, i64 0, i32 6, i32 15, i32 0, i32 0
  %3 = load i64, i64* %RBP, align 8
  %4 = load i64, i64* %PC, align 8
  %5 = add i64 %4, 1
  store i64 %5, i64* %PC, align 8
  %6 = getelementptr inbounds %struct.State, %struct.State* %0, i64 0, i32 6, i32 13, i32 0, i32 0
  %7 = load i64, i64* %6, align 8
  %8 = add i64 %7, -8
  %9 = inttoptr i64 %8 to i64*
  store i64 %3, i64* %9, align 8
  store i64 %8, i64* %6, align 8
  ret %struct.Memory* %2
}

define %struct.Memory* @routine_movq__rsp___rbp(%struct.State* dereferenceable(3376), i64, %struct.Memory*) local_unnamed_addr {
block_400478:
  %PC = getelementptr inbounds %struct.State, %struct.State* %0, i64 0, i32 6, i32 33, i32 0, i32 0
  %RSP = getelementptr inbounds %struct.State, %struct.State* %0, i64 0, i32 6, i32 13, i32 0, i32 0
  %RBP = getelementptr inbounds %struct.State, %struct.State* %0, i64 0, i32 6, i32 15, i32 0, i32 0
  %3 = load i64, i64* %RSP, align 8
  %4 = load i64, i64* %PC, align 8
  %5 = add i64 %4, 3
  store i64 %5, i64* %PC, align 8
  store i64 %3, i64* %RBP, align 8
  ret %struct.Memory* %2
}

define %struct.Memory* @routine_movl__edi__MINUS0x4__rbp_(%struct.State* dereferenceable(3376), i64, %struct.Memory*) local_unnamed_addr {
block_400478:
  %PC = getelementptr inbounds %struct.State, %struct.State* %0, i64 0, i32 6, i32 33, i32 0, i32 0
  %3 = getelementptr inbounds %struct.State, %struct.State* %0, i64 0, i32 6, i32 11, i32 0
  %EDI = bitcast %union.anon* %3 to i32*
  %RBP = getelementptr inbounds %struct.State, %struct.State* %0, i64 0, i32 6, i32 15, i32 0, i32 0
  %4 = load i64, i64* %RBP, align 8
  %5 = add i64 %4, -4
  %6 = load i32, i32* %EDI, align 4
  %7 = load i64, i64* %PC, align 8
  %8 = add i64 %7, 3
  store i64 %8, i64* %PC, align 8
  %9 = inttoptr i64 %5 to i32*
  store i32 %6, i32* %9, align 4
  ret %struct.Memory* %2
}

define %struct.Memory* @routine_movl__esi__MINUS0x8__rbp_(%struct.State* dereferenceable(3376), i64, %struct.Memory*) local_unnamed_addr {
block_400478:
  %PC = getelementptr inbounds %struct.State, %struct.State* %0, i64 0, i32 6, i32 33, i32 0, i32 0
  %3 = getelementptr inbounds %struct.State, %struct.State* %0, i64 0, i32 6, i32 9, i32 0
  %ESI = bitcast %union.anon* %3 to i32*
  %RBP = getelementptr inbounds %struct.State, %struct.State* %0, i64 0, i32 6, i32 15, i32 0, i32 0
  %4 = load i64, i64* %RBP, align 8
  %5 = add i64 %4, -8
  %6 = load i32, i32* %ESI, align 4
  %7 = load i64, i64* %PC, align 8
  %8 = add i64 %7, 3
  store i64 %8, i64* %PC, align 8
  %9 = inttoptr i64 %5 to i32*
  store i32 %6, i32* %9, align 4
  ret %struct.Memory* %2
}

define %struct.Memory* @routine_movl__edx__MINUS0xc__rbp_(%struct.State* dereferenceable(3376), i64, %struct.Memory*) local_unnamed_addr {
block_400478:
  %PC = getelementptr inbounds %struct.State, %struct.State* %0, i64 0, i32 6, i32 33, i32 0, i32 0
  %3 = getelementptr inbounds %struct.State, %struct.State* %0, i64 0, i32 6, i32 7, i32 0
  %EDX = bitcast %union.anon* %3 to i32*
  %RBP = getelementptr inbounds %struct.State, %struct.State* %0, i64 0, i32 6, i32 15, i32 0, i32 0
  %4 = load i64, i64* %RBP, align 8
  %5 = add i64 %4, -12
  %6 = load i32, i32* %EDX, align 4
  %7 = load i64, i64* %PC, align 8
  %8 = add i64 %7, 3
  store i64 %8, i64* %PC, align 8
  %9 = inttoptr i64 %5 to i32*
  store i32 %6, i32* %9, align 4
  ret %struct.Memory* %2
}

define %struct.Memory* @routine_movl__ecx__MINUS0x10__rbp_(%struct.State* dereferenceable(3376), i64, %struct.Memory*) local_unnamed_addr {
block_400478:
  %PC = getelementptr inbounds %struct.State, %struct.State* %0, i64 0, i32 6, i32 33, i32 0, i32 0
  %3 = getelementptr inbounds %struct.State, %struct.State* %0, i64 0, i32 6, i32 5, i32 0
  %ECX = bitcast %union.anon* %3 to i32*
  %RBP = getelementptr inbounds %struct.State, %struct.State* %0, i64 0, i32 6, i32 15, i32 0, i32 0
  %4 = load i64, i64* %RBP, align 8
  %5 = add i64 %4, -16
  %6 = load i32, i32* %ECX, align 4
  %7 = load i64, i64* %PC, align 8
  %8 = add i64 %7, 3
  store i64 %8, i64* %PC, align 8
  %9 = inttoptr i64 %5 to i32*
  store i32 %6, i32* %9, align 4
  ret %struct.Memory* %2
}

define %struct.Memory* @routine_movl__r8d__MINUS0x14__rbp_(%struct.State* dereferenceable(3376), i64, %struct.Memory*) local_unnamed_addr {
block_400478:
  %PC = getelementptr inbounds %struct.State, %struct.State* %0, i64 0, i32 6, i32 33, i32 0, i32 0
  %3 = getelementptr inbounds %struct.State, %struct.State* %0, i64 0, i32 6, i32 17, i32 0
  %R8D = bitcast %union.anon* %3 to i32*
  %RBP = getelementptr inbounds %struct.State, %struct.State* %0, i64 0, i32 6, i32 15, i32 0, i32 0
  %4 = load i64, i64* %RBP, align 8
  %5 = add i64 %4, -20
  %6 = load i32, i32* %R8D, align 4
  %7 = load i64, i64* %PC, align 8
  %8 = add i64 %7, 4
  store i64 %8, i64* %PC, align 8
  %9 = inttoptr i64 %5 to i32*
  store i32 %6, i32* %9, align 4
  ret %struct.Memory* %2
}

define %struct.Memory* @routine_movl_MINUS0x4__rbp____eax(%struct.State* dereferenceable(3376), i64, %struct.Memory*) local_unnamed_addr {
block_400478:
  %PC = getelementptr inbounds %struct.State, %struct.State* %0, i64 0, i32 6, i32 33, i32 0, i32 0
  %RAX = getelementptr inbounds %struct.State, %struct.State* %0, i64 0, i32 6, i32 1, i32 0, i32 0
  %RBP = getelementptr inbounds %struct.State, %struct.State* %0, i64 0, i32 6, i32 15, i32 0, i32 0
  %3 = load i64, i64* %RBP, align 8
  %4 = add i64 %3, -4
  %5 = load i64, i64* %PC, align 8
  %6 = add i64 %5, 3
  store i64 %6, i64* %PC, align 8
  %7 = inttoptr i64 %4 to i32*
  %8 = load i32, i32* %7, align 4
  %9 = zext i32 %8 to i64
  store i64 %9, i64* %RAX, align 8
  ret %struct.Memory* %2
}

define %struct.Memory* @routine_cltd(%struct.State* dereferenceable(3376), i64, %struct.Memory*) local_unnamed_addr {
block_400478:
  %PC = getelementptr inbounds %struct.State, %struct.State* %0, i64 0, i32 6, i32 33, i32 0, i32 0
  %3 = load i64, i64* %PC, align 8
  %4 = add i64 %3, 1
  store i64 %4, i64* %PC, align 8
  %5 = getelementptr inbounds %struct.State, %struct.State* %0, i64 0, i32 6, i32 7, i32 0, i32 0
  %6 = getelementptr inbounds %struct.State, %struct.State* %0, i64 0, i32 6, i32 1, i32 0
  %7 = bitcast %union.anon* %6 to i32*
  %8 = load i32, i32* %7, align 8
  %9 = sext i32 %8 to i64
  %10 = lshr i64 %9, 32
  store i64 %10, i64* %5, align 8
  ret %struct.Memory* %2
}

define %struct.Memory* @routine_idivl_MINUS0x8__rbp_(%struct.State* dereferenceable(3376), i64, %struct.Memory*) local_unnamed_addr {
block_400478:
  %PC = getelementptr inbounds %struct.State, %struct.State* %0, i64 0, i32 6, i32 33, i32 0, i32 0
  %RBP = getelementptr inbounds %struct.State, %struct.State* %0, i64 0, i32 6, i32 15, i32 0, i32 0
  %3 = load i64, i64* %RBP, align 8
  %4 = add i64 %3, -8
  %5 = load i64, i64* %PC, align 8
  %6 = add i64 %5, 3
  store i64 %6, i64* %PC, align 8
  %7 = getelementptr inbounds %struct.State, %struct.State* %0, i64 0, i32 6, i32 1, i32 0
  %8 = bitcast %union.anon* %7 to i32*
  %9 = load i32, i32* %8, align 8
  %10 = zext i32 %9 to i64
  %11 = getelementptr inbounds %struct.State, %struct.State* %0, i64 0, i32 6, i32 7, i32 0
  %12 = bitcast %union.anon* %11 to i32*
  %13 = load i32, i32* %12, align 8
  %14 = zext i32 %13 to i64
  %15 = inttoptr i64 %4 to i32*
  %16 = load i32, i32* %15, align 4
  %17 = sext i32 %16 to i64
  %18 = shl nuw i64 %14, 32
  %19 = or i64 %18, %10
  %20 = sdiv i64 %19, %17
  %21 = shl i64 %20, 32
  %22 = ashr exact i64 %21, 32
  %23 = icmp eq i64 %20, %22
  br i1 %23, label %26, label %24

; <label>:24:                                     ; preds = %block_400478
  %25 = tail call %struct.Memory* @__remill_error(%struct.State* nonnull dereferenceable(3376) %0, i64 %6, %struct.Memory* %2)
  br label %_ZN12_GLOBAL__N_1L10IDIVedxeaxI2MnIjEEEP6MemoryS4_R5StateT_.exit

; <label>:26:                                     ; preds = %block_400478
  %27 = srem i64 %19, %17
  %28 = getelementptr inbounds %union.anon, %union.anon* %7, i64 0, i32 0
  %29 = and i64 %20, 4294967295
  store i64 %29, i64* %28, align 8
  %30 = getelementptr inbounds %union.anon, %union.anon* %11, i64 0, i32 0
  %31 = and i64 %27, 4294967295
  store i64 %31, i64* %30, align 8
  %32 = getelementptr inbounds %struct.State, %struct.State* %0, i64 0, i32 2, i32 1
  store i8 0, i8* %32, align 1
  %33 = getelementptr inbounds %struct.State, %struct.State* %0, i64 0, i32 2, i32 3
  store i8 0, i8* %33, align 1
  %34 = getelementptr inbounds %struct.State, %struct.State* %0, i64 0, i32 2, i32 5
  store i8 0, i8* %34, align 1
  %35 = getelementptr inbounds %struct.State, %struct.State* %0, i64 0, i32 2, i32 7
  store i8 0, i8* %35, align 1
  %36 = getelementptr inbounds %struct.State, %struct.State* %0, i64 0, i32 2, i32 9
  store i8 0, i8* %36, align 1
  %37 = getelementptr inbounds %struct.State, %struct.State* %0, i64 0, i32 2, i32 13
  store i8 0, i8* %37, align 1
  br label %_ZN12_GLOBAL__N_1L10IDIVedxeaxI2MnIjEEEP6MemoryS4_R5StateT_.exit

_ZN12_GLOBAL__N_1L10IDIVedxeaxI2MnIjEEEP6MemoryS4_R5StateT_.exit: ; preds = %26, %24
  %38 = phi %struct.Memory* [ %25, %24 ], [ %2, %26 ]
  ret %struct.Memory* %38
}

define %struct.Memory* @routine_idivl_MINUS0xc__rbp_(%struct.State* dereferenceable(3376), i64, %struct.Memory*) local_unnamed_addr {
block_400478:
  %PC = getelementptr inbounds %struct.State, %struct.State* %0, i64 0, i32 6, i32 33, i32 0, i32 0
  %RBP = getelementptr inbounds %struct.State, %struct.State* %0, i64 0, i32 6, i32 15, i32 0, i32 0
  %3 = load i64, i64* %RBP, align 8
  %4 = add i64 %3, -12
  %5 = load i64, i64* %PC, align 8
  %6 = add i64 %5, 3
  store i64 %6, i64* %PC, align 8
  %7 = getelementptr inbounds %struct.State, %struct.State* %0, i64 0, i32 6, i32 1, i32 0
  %8 = bitcast %union.anon* %7 to i32*
  %9 = load i32, i32* %8, align 8
  %10 = zext i32 %9 to i64
  %11 = getelementptr inbounds %struct.State, %struct.State* %0, i64 0, i32 6, i32 7, i32 0
  %12 = bitcast %union.anon* %11 to i32*
  %13 = load i32, i32* %12, align 8
  %14 = zext i32 %13 to i64
  %15 = inttoptr i64 %4 to i32*
  %16 = load i32, i32* %15, align 4
  %17 = sext i32 %16 to i64
  %18 = shl nuw i64 %14, 32
  %19 = or i64 %18, %10
  %20 = sdiv i64 %19, %17
  %21 = shl i64 %20, 32
  %22 = ashr exact i64 %21, 32
  %23 = icmp eq i64 %20, %22
  br i1 %23, label %26, label %24

; <label>:24:                                     ; preds = %block_400478
  %25 = tail call %struct.Memory* @__remill_error(%struct.State* nonnull dereferenceable(3376) %0, i64 %6, %struct.Memory* %2)
  br label %_ZN12_GLOBAL__N_1L10IDIVedxeaxI2MnIjEEEP6MemoryS4_R5StateT_.exit

; <label>:26:                                     ; preds = %block_400478
  %27 = srem i64 %19, %17
  %28 = getelementptr inbounds %union.anon, %union.anon* %7, i64 0, i32 0
  %29 = and i64 %20, 4294967295
  store i64 %29, i64* %28, align 8
  %30 = getelementptr inbounds %union.anon, %union.anon* %11, i64 0, i32 0
  %31 = and i64 %27, 4294967295
  store i64 %31, i64* %30, align 8
  %32 = getelementptr inbounds %struct.State, %struct.State* %0, i64 0, i32 2, i32 1
  store i8 0, i8* %32, align 1
  %33 = getelementptr inbounds %struct.State, %struct.State* %0, i64 0, i32 2, i32 3
  store i8 0, i8* %33, align 1
  %34 = getelementptr inbounds %struct.State, %struct.State* %0, i64 0, i32 2, i32 5
  store i8 0, i8* %34, align 1
  %35 = getelementptr inbounds %struct.State, %struct.State* %0, i64 0, i32 2, i32 7
  store i8 0, i8* %35, align 1
  %36 = getelementptr inbounds %struct.State, %struct.State* %0, i64 0, i32 2, i32 9
  store i8 0, i8* %36, align 1
  %37 = getelementptr inbounds %struct.State, %struct.State* %0, i64 0, i32 2, i32 13
  store i8 0, i8* %37, align 1
  br label %_ZN12_GLOBAL__N_1L10IDIVedxeaxI2MnIjEEEP6MemoryS4_R5StateT_.exit

_ZN12_GLOBAL__N_1L10IDIVedxeaxI2MnIjEEEP6MemoryS4_R5StateT_.exit: ; preds = %26, %24
  %38 = phi %struct.Memory* [ %25, %24 ], [ %2, %26 ]
  ret %struct.Memory* %38
}

define %struct.Memory* @routine_idivl_MINUS0x10__rbp_(%struct.State* dereferenceable(3376), i64, %struct.Memory*) local_unnamed_addr {
block_400478:
  %PC = getelementptr inbounds %struct.State, %struct.State* %0, i64 0, i32 6, i32 33, i32 0, i32 0
  %RBP = getelementptr inbounds %struct.State, %struct.State* %0, i64 0, i32 6, i32 15, i32 0, i32 0
  %3 = load i64, i64* %RBP, align 8
  %4 = add i64 %3, -16
  %5 = load i64, i64* %PC, align 8
  %6 = add i64 %5, 3
  store i64 %6, i64* %PC, align 8
  %7 = getelementptr inbounds %struct.State, %struct.State* %0, i64 0, i32 6, i32 1, i32 0
  %8 = bitcast %union.anon* %7 to i32*
  %9 = load i32, i32* %8, align 8
  %10 = zext i32 %9 to i64
  %11 = getelementptr inbounds %struct.State, %struct.State* %0, i64 0, i32 6, i32 7, i32 0
  %12 = bitcast %union.anon* %11 to i32*
  %13 = load i32, i32* %12, align 8
  %14 = zext i32 %13 to i64
  %15 = inttoptr i64 %4 to i32*
  %16 = load i32, i32* %15, align 4
  %17 = sext i32 %16 to i64
  %18 = shl nuw i64 %14, 32
  %19 = or i64 %18, %10
  %20 = sdiv i64 %19, %17
  %21 = shl i64 %20, 32
  %22 = ashr exact i64 %21, 32
  %23 = icmp eq i64 %20, %22
  br i1 %23, label %26, label %24

; <label>:24:                                     ; preds = %block_400478
  %25 = tail call %struct.Memory* @__remill_error(%struct.State* nonnull dereferenceable(3376) %0, i64 %6, %struct.Memory* %2)
  br label %_ZN12_GLOBAL__N_1L10IDIVedxeaxI2MnIjEEEP6MemoryS4_R5StateT_.exit

; <label>:26:                                     ; preds = %block_400478
  %27 = srem i64 %19, %17
  %28 = getelementptr inbounds %union.anon, %union.anon* %7, i64 0, i32 0
  %29 = and i64 %20, 4294967295
  store i64 %29, i64* %28, align 8
  %30 = getelementptr inbounds %union.anon, %union.anon* %11, i64 0, i32 0
  %31 = and i64 %27, 4294967295
  store i64 %31, i64* %30, align 8
  %32 = getelementptr inbounds %struct.State, %struct.State* %0, i64 0, i32 2, i32 1
  store i8 0, i8* %32, align 1
  %33 = getelementptr inbounds %struct.State, %struct.State* %0, i64 0, i32 2, i32 3
  store i8 0, i8* %33, align 1
  %34 = getelementptr inbounds %struct.State, %struct.State* %0, i64 0, i32 2, i32 5
  store i8 0, i8* %34, align 1
  %35 = getelementptr inbounds %struct.State, %struct.State* %0, i64 0, i32 2, i32 7
  store i8 0, i8* %35, align 1
  %36 = getelementptr inbounds %struct.State, %struct.State* %0, i64 0, i32 2, i32 9
  store i8 0, i8* %36, align 1
  %37 = getelementptr inbounds %struct.State, %struct.State* %0, i64 0, i32 2, i32 13
  store i8 0, i8* %37, align 1
  br label %_ZN12_GLOBAL__N_1L10IDIVedxeaxI2MnIjEEEP6MemoryS4_R5StateT_.exit

_ZN12_GLOBAL__N_1L10IDIVedxeaxI2MnIjEEEP6MemoryS4_R5StateT_.exit: ; preds = %26, %24
  %38 = phi %struct.Memory* [ %25, %24 ], [ %2, %26 ]
  ret %struct.Memory* %38
}

define %struct.Memory* @routine_idivl_MINUS0x14__rbp_(%struct.State* dereferenceable(3376), i64, %struct.Memory*) local_unnamed_addr {
block_400478:
  %PC = getelementptr inbounds %struct.State, %struct.State* %0, i64 0, i32 6, i32 33, i32 0, i32 0
  %RBP = getelementptr inbounds %struct.State, %struct.State* %0, i64 0, i32 6, i32 15, i32 0, i32 0
  %3 = load i64, i64* %RBP, align 8
  %4 = add i64 %3, -20
  %5 = load i64, i64* %PC, align 8
  %6 = add i64 %5, 3
  store i64 %6, i64* %PC, align 8
  %7 = getelementptr inbounds %struct.State, %struct.State* %0, i64 0, i32 6, i32 1, i32 0
  %8 = bitcast %union.anon* %7 to i32*
  %9 = load i32, i32* %8, align 8
  %10 = zext i32 %9 to i64
  %11 = getelementptr inbounds %struct.State, %struct.State* %0, i64 0, i32 6, i32 7, i32 0
  %12 = bitcast %union.anon* %11 to i32*
  %13 = load i32, i32* %12, align 8
  %14 = zext i32 %13 to i64
  %15 = inttoptr i64 %4 to i32*
  %16 = load i32, i32* %15, align 4
  %17 = sext i32 %16 to i64
  %18 = shl nuw i64 %14, 32
  %19 = or i64 %18, %10
  %20 = sdiv i64 %19, %17
  %21 = shl i64 %20, 32
  %22 = ashr exact i64 %21, 32
  %23 = icmp eq i64 %20, %22
  br i1 %23, label %26, label %24

; <label>:24:                                     ; preds = %block_400478
  %25 = tail call %struct.Memory* @__remill_error(%struct.State* nonnull dereferenceable(3376) %0, i64 %6, %struct.Memory* %2)
  br label %_ZN12_GLOBAL__N_1L10IDIVedxeaxI2MnIjEEEP6MemoryS4_R5StateT_.exit

; <label>:26:                                     ; preds = %block_400478
  %27 = srem i64 %19, %17
  %28 = getelementptr inbounds %union.anon, %union.anon* %7, i64 0, i32 0
  %29 = and i64 %20, 4294967295
  store i64 %29, i64* %28, align 8
  %30 = getelementptr inbounds %union.anon, %union.anon* %11, i64 0, i32 0
  %31 = and i64 %27, 4294967295
  store i64 %31, i64* %30, align 8
  %32 = getelementptr inbounds %struct.State, %struct.State* %0, i64 0, i32 2, i32 1
  store i8 0, i8* %32, align 1
  %33 = getelementptr inbounds %struct.State, %struct.State* %0, i64 0, i32 2, i32 3
  store i8 0, i8* %33, align 1
  %34 = getelementptr inbounds %struct.State, %struct.State* %0, i64 0, i32 2, i32 5
  store i8 0, i8* %34, align 1
  %35 = getelementptr inbounds %struct.State, %struct.State* %0, i64 0, i32 2, i32 7
  store i8 0, i8* %35, align 1
  %36 = getelementptr inbounds %struct.State, %struct.State* %0, i64 0, i32 2, i32 9
  store i8 0, i8* %36, align 1
  %37 = getelementptr inbounds %struct.State, %struct.State* %0, i64 0, i32 2, i32 13
  store i8 0, i8* %37, align 1
  br label %_ZN12_GLOBAL__N_1L10IDIVedxeaxI2MnIjEEEP6MemoryS4_R5StateT_.exit

_ZN12_GLOBAL__N_1L10IDIVedxeaxI2MnIjEEEP6MemoryS4_R5StateT_.exit: ; preds = %26, %24
  %38 = phi %struct.Memory* [ %25, %24 ], [ %2, %26 ]
  ret %struct.Memory* %38
}

define %struct.Memory* @routine_popq__rbp(%struct.State* dereferenceable(3376), i64, %struct.Memory*) local_unnamed_addr {
block_400478:
  %PC = getelementptr inbounds %struct.State, %struct.State* %0, i64 0, i32 6, i32 33, i32 0, i32 0
  %RBP = getelementptr inbounds %struct.State, %struct.State* %0, i64 0, i32 6, i32 15, i32 0, i32 0
  %3 = load i64, i64* %PC, align 8
  %4 = add i64 %3, 1
  store i64 %4, i64* %PC, align 8
  %5 = getelementptr inbounds %struct.State, %struct.State* %0, i64 0, i32 6, i32 13, i32 0, i32 0
  %6 = load i64, i64* %5, align 8
  %7 = add i64 %6, 8
  %8 = inttoptr i64 %6 to i64*
  %9 = load i64, i64* %8, align 8
  store i64 %9, i64* %RBP, align 8
  store i64 %7, i64* %5, align 8
  ret %struct.Memory* %2
}

define %struct.Memory* @routine_retq(%struct.State* dereferenceable(3376), i64, %struct.Memory*) local_unnamed_addr {
block_400478:
  %PC = getelementptr inbounds %struct.State, %struct.State* %0, i64 0, i32 6, i32 33, i32 0, i32 0
  %3 = load i64, i64* %PC, align 8
  %4 = add i64 %3, 1
  store i64 %4, i64* %PC, align 8
  %5 = getelementptr inbounds %struct.State, %struct.State* %0, i64 0, i32 6, i32 33, i32 0, i32 0
  %6 = getelementptr inbounds %struct.State, %struct.State* %0, i64 0, i32 6, i32 13, i32 0, i32 0
  %7 = load i64, i64* %6, align 8
  %8 = inttoptr i64 %7 to i64*
  %9 = load i64, i64* %8, align 8
  store i64 %9, i64* %5, align 8
  %10 = add i64 %7, 8
  store i64 %10, i64* %6, align 8
  ret %struct.Memory* %2
}

attributes #0 = { alwaysinline }
