; ModuleID = 'test.bc'
source_filename = "llvm-link"
target datalayout = "e-m:e-i64:64-f80:128-n8:16:32:64-S128"
target triple = "x86_64-pc-linux-gnu-elf"
%union.anon = type { i64 }
%seg_400388__init_type = type <{ [23 x i8] }>
%seg_4003a0__text_type = type <{ [354 x i8] }>
%seg_400504__fini_type = type <{ [9 x i8] }>
%seg_400510__rodata_type = type <{ [4 x i8] }>
%seg_400514__eh_frame_hdr_type = type <{ [52 x i8] }>
%seg_400548__eh_frame_type = type <{ [208 x i8] }>
%seg_600e40__init_array_type = type <{ i64, i64 }>
%seg_601018__data_type = type <{ [16 x i8] }>
%__bss_start_type = type <{ [8 x i8] }>
%struct.State = type { %struct.ArchState, [32 x %union.VectorReg], %struct.ArithFlags, %union.anon, %struct.Segments, %struct.AddressSpace, %struct.GPR, %struct.X87Stack, %struct.MMX, %struct.FPUStatusFlags, %union.anon, %union.FPU, %struct.SegmentCaches }
%struct.ArchState = type { i32, i32, %union.anon }
%union.VectorReg = type { %union.vec512_t }
%union.vec512_t = type { %struct.uint64v8_t }
%struct.uint64v8_t = type { [8 x i64] }
%struct.ArithFlags = type { i8, i8, i8, i8, i8, i8, i8, i8, i8, i8, i8, i8, i8, i8, i8, i8 }
%struct.Segments = type { i16, %union.SegmentSelector, i16, %union.SegmentSelector, i16, %union.SegmentSelector, i16, %union.SegmentSelector, i16, %union.SegmentSelector, i16, %union.SegmentSelector }
%union.SegmentSelector = type { i16 }
%struct.AddressSpace = type { i64, %struct.Reg, i64, %struct.Reg, i64, %struct.Reg, i64, %struct.Reg, i64, %struct.Reg, i64, %struct.Reg }
%struct.Reg = type { %union.anon }
%struct.GPR = type { i64, %struct.Reg, i64, %struct.Reg, i64, %struct.Reg, i64, %struct.Reg, i64, %struct.Reg, i64, %struct.Reg, i64, %struct.Reg, i64, %struct.Reg, i64, %struct.Reg, i64, %struct.Reg, i64, %struct.Reg, i64, %struct.Reg, i64, %struct.Reg, i64, %struct.Reg, i64, %struct.Reg, i64, %struct.Reg, i64, %struct.Reg }
%struct.X87Stack = type { [8 x %struct.anon.3] }
%struct.anon.3 = type { i64, double }
%struct.MMX = type { [8 x %struct.anon.4] }
%struct.anon.4 = type { i64, %union.vec64_t }
%union.vec64_t = type { %struct.uint64v1_t }
%struct.uint64v1_t = type { [1 x i64] }
%struct.FPUStatusFlags = type { i8, i8, i8, i8, i8, i8, i8, i8, i8, i8, i8, i8, i8, i8, i8, i8, i8, i8, i8, i8, [4 x i8] }
%union.FPU = type { %struct.anon.13 }
%struct.anon.13 = type { %struct.FpuFXSAVE, [96 x i8] }
%struct.FpuFXSAVE = type { %union.SegmentSelector, %union.SegmentSelector, %union.FPUAbridgedTagWord, i8, i16, i32, %union.SegmentSelector, i16, i32, %union.SegmentSelector, i16, %union.FPUControlStatus, %union.FPUControlStatus, [8 x %struct.FPUStackElem], [16 x %union.vec128_t] }
%union.FPUAbridgedTagWord = type { i8 }
%union.FPUControlStatus = type { i32 }
%struct.FPUStackElem = type { %union.anon.11, [6 x i8] }
%union.anon.11 = type { %struct.float80_t }
%struct.float80_t = type { [10 x i8] }
%union.vec128_t = type { %struct.uint128v1_t }
%struct.uint128v1_t = type { [1 x i128] }
%struct.SegmentCaches = type { %struct.SegmentShadow, %struct.SegmentShadow, %struct.SegmentShadow, %struct.SegmentShadow, %struct.SegmentShadow, %struct.SegmentShadow }
%struct.SegmentShadow = type { %union.anon, i32, i32 }
%struct.Memory = type opaque
%struct.uint8v32_t = type { [32 x i8] }
%struct.anon.2 = type { i8, i8 }
%struct.int32v8_t = type { [8 x i32] }
%struct.float32v8_t = type { [8 x float] }
%struct.uint8v8_t = type { [8 x i8] }
%struct.uint8v16_t = type { [16 x i8] }
%struct.uint16v8_t = type { [8 x i16] }
%struct.uint8v4_t = type { [4 x i8] }
%struct.int16v4_t = type { [4 x i16] }
%struct.int32v4_t = type { [4 x i32] }
%struct.uint64v2_t = type { [2 x i64] }
%struct.uint64v4_t = type { [4 x i64] }
%struct.uint128v2_t = type { [2 x i128] }
%struct.uint16v16_t = type { [16 x i16] }
%struct.float64v4_t = type { [4 x double] }
%"class.(anonymous namespace)::BitMatrix" = type { %"class.std::bitset", [16 x [16 x i8]] }
%"class.std::bitset" = type { %struct.uint64v4_t }
%struct.bcd80_t = type { [9 x %union.FPUAbridgedTagWord], %union.FPUAbridgedTagWord }
%struct.FpuFSAVE = type { %union.SegmentSelector, i16, %union.SegmentSelector, i16, %union.SegmentSelector, i16, i32, %union.SegmentSelector, i16, i32, %union.SegmentSelector, i16, [8 x %struct.FPUStackElem] }
%struct.anon.5 = type { i32, i32 }
@switch.table = private unnamed_addr constant [4 x i32] [i32 2048, i32 3072, i32 0, i32 1024]
@DR0 = external global i64, align 8
@DR1 = external global i64, align 8
@DR2 = external global i64, align 8
@DR3 = external global i64, align 8
@DR4 = external global i64, align 8
@DR5 = external global i64, align 8
@DR6 = external global i64, align 8
@DR7 = external global i64, align 8
@gCR0 = external global %union.anon, align 1
@gCR1 = external global %union.anon, align 1
@gCR2 = external global %union.anon, align 1
@gCR3 = external global %union.anon, align 1
@gCR4 = external global %union.anon, align 1
@gCR8 = external global %union.anon, align 1
@seg_400388__init = internal constant %seg_400388__init_type <{ [23 x i8] c"H\83\EC\08H\8B\05e\0C \00H\85\C0t\02\FF\D0H\83\C4\08\C3" }>
@seg_4003a0__text = internal constant %seg_4003a0__text_type <{ [354 x i8] c"1\EDI\89\D1^H\89\E2H\83\E4\F0PTI\C7\C0\00\05@\00H\C7\C1\90\04@\00H\C7\C7\88\04@\00\FF\15&\0C \00\F4\0F\1FD\00\00\F3\C3f.\0F\1F\84\00\00\00\00\00\0F\1F@\00U\B8(\10`\00H=(\10`\00H\89\E5t\17\B8\00\00\00\00H\85\C0t\0D]\BF(\10`\00\FF\E0\0F\1FD\00\00]\C3f\0F\1FD\00\00\BE(\10`\00UH\81\EE(\10`\00H\89\E5H\C1\FE\03H\89\F0H\C1\E8?H\01\C6H\D1\FEt\15\B8\00\00\00\00H\85\C0t\0B]\BF(\10`\00\FF\E0\0F\1F\00]\C3f\0F\1FD\00\00\80=\D1\0B \00\00u\17UH\89\E5\E8~\FF\FF\FF\C6\05\BF\0B \00\01]\C3\0F\1FD\00\00\F3\C3\0F\1F@\00f.\0F\1F\84\00\00\00\00\00UH\89\E5]\EB\89\90U\C3f\0F\1FD\00\00AWAVI\89\D7AUATL\8D%\9E\09 \00UH\8D-\9E\09 \00SA\89\FDI\89\F6L)\E5H\83\EC\08H\C1\FD\03\E8\C7\FE\FF\FFH\85\EDt 1\DB\0F\1F\84\00\00\00\00\00L\89\FAL\89\F6D\89\EFA\FF\14\DCH\83\C3\01H9\DDu\EAH\83\C4\08[]A\5CA]A^A_\C3\90f.\0F\1F\84\00\00\00\00\00\F3\C3" }>
@seg_400504__fini = internal constant %seg_400504__fini_type <{ [9 x i8] c"H\83\EC\08H\83\C4\08\C3" }>
@seg_400510__rodata = internal constant %seg_400510__rodata_type <{ [4 x i8] c"\01\00\02\00" }>
@seg_400514__eh_frame_hdr = internal constant %seg_400514__eh_frame_hdr_type <{ [52 x i8] c"\01\1B\03;0\00\00\00\05\00\00\00\8C\FE\FF\FFL\00\00\00\BC\FE\FF\FFx\00\00\00t\FF\FF\FF\8C\00\00\00|\FF\FF\FF\A4\00\00\00\EC\FF\FF\FF\EC\00\00\00" }>
@seg_400548__eh_frame = internal constant %seg_400548__eh_frame_type <{ [208 x i8] c"\14\00\00\00\00\00\00\00\01zR\00\01x\10\01\1B\0C\07\08\90\01\07\10\10\00\00\00\1C\00\00\008\FE\FF\FF+\00\00\00\00\00\00\00\14\00\00\00\00\00\00\00\01zR\00\01x\10\01\1B\0C\07\08\90\01\00\00\10\00\00\00\1C\00\00\00<\FE\FF\FF\02\00\00\00\00\00\00\00\14\00\00\000\00\00\00\E0\FE\FF\FF\02\00\00\00\00\00\00\00\00\00\00\00D\00\00\00H\00\00\00\D0\FE\FF\FFe\00\00\00\00B\0E\10\8F\02B\0E\18\8E\03E\0E \8D\04B\0E(\8C\05H\0E0\86\06H\0E8\83\07M\0E@r\0E8A\0E0A\0E(B\0E B\0E\18B\0E\10B\0E\08\00\10\00\00\00\90\00\00\00\F8\FE\FF\FF\02\00\00\00\00\00\00\00\00\00\00\00" }>
@seg_601018__data = internal global %seg_601018__data_type zeroinitializer
@__bss_start = global %__bss_start_type zeroinitializer
@0 = internal global i1 false
%seg_400514__fini_type = type <{ [9 x i8] }>
%seg_400520__rodata_type = type <{ [4 x i8] }>
%seg_400524__eh_frame_hdr_type = type <{ [52 x i8] }>
%seg_400558__eh_frame_type = type <{ [208 x i8] }>
@seg_400514__fini = internal constant %seg_400514__fini_type <{ [9 x i8] c"H\83\EC\08H\83\C4\08\C3" }>
@seg_400520__rodata = internal constant %seg_400520__rodata_type <{ [4 x i8] c"\01\00\02\00" }>
@seg_400524__eh_frame_hdr = internal constant %seg_400524__eh_frame_hdr_type <{ [52 x i8] c"\01\1B\03;0\00\00\00\05\00\00\00|\FE\FF\FFL\00\00\00\AC\FE\FF\FFx\00\00\00d\FF\FF\FF\8C\00\00\00|\FF\FF\FF\A4\00\00\00\EC\FF\FF\FF\EC\00\00\00" }>
@seg_400558__eh_frame = internal constant %seg_400558__eh_frame_type <{ [208 x i8] c"\14\00\00\00\00\00\00\00\01zR\00\01x\10\01\1B\0C\07\08\90\01\07\10\10\00\00\00\1C\00\00\00(\FE\FF\FF+\00\00\00\00\00\00\00\14\00\00\00\00\00\00\00\01zR\00\01x\10\01\1B\0C\07\08\90\01\00\00\10\00\00\00\1C\00\00\00,\FE\FF\FF\02\00\00\00\00\00\00\00\14\00\00\000\00\00\00\D0\FE\FF\FF\09\00\00\00\00\00\00\00\00\00\00\00D\00\00\00H\00\00\00\D0\FE\FF\FFe\00\00\00\00B\0E\10\8F\02B\0E\18\8E\03E\0E \8D\04B\0E(\8C\05H\0E0\86\06H\0E8\83\07M\0E@r\0E8A\0E0A\0E(B\0E B\0E\18B\0E\10B\0E\08\00\10\00\00\00\90\00\00\00\F8\FE\FF\FF\02\00\00\00\00\00\00\00\00\00\00\00" }>

; Function Declaraions
declare i32 @llvm.ctpop.i32(i32) #2
declare %struct.Memory* @__remill_error(%struct.State* dereferenceable(3376), i64, %struct.Memory*)


; Data Access Globals


define %struct.Memory* @kernel_fdtd_2d(%struct.State* noalias , i64, %struct.Memory* noalias) alwaysinline  {
entry:
  %3 = getelementptr inbounds %struct.State, %struct.State* %0, i64 0, i32 6, i32 33, i32 0, i32 0
  store i64 %1, i64* %3, align 8
  %BRANCH_TAKEN = alloca i8, align 1
  store i8 0, i8* %BRANCH_TAKEN, align 1
  %MEMORY = alloca %struct.Memory*, align 8
  store %struct.Memory* %2, %struct.Memory** %MEMORY, align 8

  ; Code: .kernel_fdtd_2d:	 RIP: 400c50	 Bytes: 0
  ; Code: pushq %rbp	 RIP: 400c50	 Bytes: 1
  %loadMem_400c50 = load %struct.Memory*, %struct.Memory** %MEMORY
  %call_400c50 = call %struct.Memory* @routine_pushq__rbp(%struct.State* %0, i64  0, %struct.Memory* %loadMem_400c50)
  store %struct.Memory* %call_400c50, %struct.Memory** %MEMORY

  ; Code: movq %rsp, %rbp	 RIP: 400c51	 Bytes: 3
  %loadMem_400c51 = load %struct.Memory*, %struct.Memory** %MEMORY
  %call_400c51 = call %struct.Memory* @routine_movq__rsp___rbp(%struct.State* %0, i64  0, %struct.Memory* %loadMem_400c51)
  store %struct.Memory* %call_400c51, %struct.Memory** %MEMORY

  ; Code: movq 0x10(%rbp), %rax	 RIP: 400c54	 Bytes: 4
  %loadMem_400c54 = load %struct.Memory*, %struct.Memory** %MEMORY
  %call_400c54 = call %struct.Memory* @routine_movq_0x10__rbp____rax(%struct.State* %0, i64  0, %struct.Memory* %loadMem_400c54)
  store %struct.Memory* %call_400c54, %struct.Memory** %MEMORY

  ; Code: movl %edi, -0x4(%rbp)	 RIP: 400c58	 Bytes: 3
  %loadMem_400c58 = load %struct.Memory*, %struct.Memory** %MEMORY
  %call_400c58 = call %struct.Memory* @routine_movl__edi__MINUS0x4__rbp_(%struct.State* %0, i64  0, %struct.Memory* %loadMem_400c58)
  store %struct.Memory* %call_400c58, %struct.Memory** %MEMORY

  ; Code: movl %esi, -0x8(%rbp)	 RIP: 400c5b	 Bytes: 3
  %loadMem_400c5b = load %struct.Memory*, %struct.Memory** %MEMORY
  %call_400c5b = call %struct.Memory* @routine_movl__esi__MINUS0x8__rbp_(%struct.State* %0, i64  0, %struct.Memory* %loadMem_400c5b)
  store %struct.Memory* %call_400c5b, %struct.Memory** %MEMORY

  ; Code: movl %edx, -0xc(%rbp)	 RIP: 400c5e	 Bytes: 3
  %loadMem_400c5e = load %struct.Memory*, %struct.Memory** %MEMORY
  %call_400c5e = call %struct.Memory* @routine_movl__edx__MINUS0xc__rbp_(%struct.State* %0, i64  0, %struct.Memory* %loadMem_400c5e)
  store %struct.Memory* %call_400c5e, %struct.Memory** %MEMORY

  ; Code: movq %rcx, -0x18(%rbp)	 RIP: 400c61	 Bytes: 4
  %loadMem_400c61 = load %struct.Memory*, %struct.Memory** %MEMORY
  %call_400c61 = call %struct.Memory* @routine_movq__rcx__MINUS0x18__rbp_(%struct.State* %0, i64  0, %struct.Memory* %loadMem_400c61)
  store %struct.Memory* %call_400c61, %struct.Memory** %MEMORY

  ; Code: movq %r8, -0x20(%rbp)	 RIP: 400c65	 Bytes: 4
  %loadMem_400c65 = load %struct.Memory*, %struct.Memory** %MEMORY
  %call_400c65 = call %struct.Memory* @routine_movq__r8__MINUS0x20__rbp_(%struct.State* %0, i64  0, %struct.Memory* %loadMem_400c65)
  store %struct.Memory* %call_400c65, %struct.Memory** %MEMORY

  ; Code: movq %r9, -0x28(%rbp)	 RIP: 400c69	 Bytes: 4
  %loadMem_400c69 = load %struct.Memory*, %struct.Memory** %MEMORY
  %call_400c69 = call %struct.Memory* @routine_movq__r9__MINUS0x28__rbp_(%struct.State* %0, i64  0, %struct.Memory* %loadMem_400c69)
  store %struct.Memory* %call_400c69, %struct.Memory** %MEMORY

  ; Code: movq %rax, -0x30(%rbp)	 RIP: 400c6d	 Bytes: 4
  %loadMem_400c6d = load %struct.Memory*, %struct.Memory** %MEMORY
  %call_400c6d = call %struct.Memory* @routine_movq__rax__MINUS0x30__rbp_(%struct.State* %0, i64  0, %struct.Memory* %loadMem_400c6d)
  store %struct.Memory* %call_400c6d, %struct.Memory** %MEMORY

  ; Code: movl $0x0, -0x34(%rbp)	 RIP: 400c71	 Bytes: 7
  %loadMem_400c71 = load %struct.Memory*, %struct.Memory** %MEMORY
  %call_400c71 = call %struct.Memory* @routine_movl__0x0__MINUS0x34__rbp_(%struct.State* %0, i64  0, %struct.Memory* %loadMem_400c71)
  store %struct.Memory* %call_400c71, %struct.Memory** %MEMORY

  ; Code: .L_400c78:	 RIP: 400c78	 Bytes: 0
  br label %block_.L_400c78
block_.L_400c78:

  ; Code: movl -0x34(%rbp), %eax	 RIP: 400c78	 Bytes: 3
  %loadMem_400c78 = load %struct.Memory*, %struct.Memory** %MEMORY
  %call_400c78 = call %struct.Memory* @routine_movl_MINUS0x34__rbp____eax(%struct.State* %0, i64  0, %struct.Memory* %loadMem_400c78)
  store %struct.Memory* %call_400c78, %struct.Memory** %MEMORY

  ; Code: cmpl -0x4(%rbp), %eax	 RIP: 400c7b	 Bytes: 3
  %loadMem_400c7b = load %struct.Memory*, %struct.Memory** %MEMORY
  %call_400c7b = call %struct.Memory* @routine_cmpl_MINUS0x4__rbp____eax(%struct.State* %0, i64  0, %struct.Memory* %loadMem_400c7b)
  store %struct.Memory* %call_400c7b, %struct.Memory** %MEMORY

  ; Code: jge .L_400f6f	 RIP: 400c7e	 Bytes: 6
  %loadMem_400c7e = load %struct.Memory*, %struct.Memory** %MEMORY
  %call_400c7e = call %struct.Memory* @routine_jge_.L_400f6f(%struct.State* %0, i64  0, %struct.Memory* %loadMem_400c7e, i8* %BRANCH_TAKEN, i64 753, i64 6, i64 6)
  store %struct.Memory* %call_400c7e, %struct.Memory** %MEMORY

  %loadBr_400c7e = load i8, i8* %BRANCH_TAKEN
  %cmpBr_400c7e = icmp eq i8 %loadBr_400c7e, 1
  br i1 %cmpBr_400c7e, label %block_.L_400f6f, label %block_400c84

block_400c84:
  ; Code: movl $0x0, -0x3c(%rbp)	 RIP: 400c84	 Bytes: 7
  %loadMem_400c84 = load %struct.Memory*, %struct.Memory** %MEMORY
  %call_400c84 = call %struct.Memory* @routine_movl__0x0__MINUS0x3c__rbp_(%struct.State* %0, i64  0, %struct.Memory* %loadMem_400c84)
  store %struct.Memory* %call_400c84, %struct.Memory** %MEMORY

  ; Code: .L_400c8b:	 RIP: 400c8b	 Bytes: 0
  br label %block_.L_400c8b
block_.L_400c8b:

  ; Code: movl -0x3c(%rbp), %eax	 RIP: 400c8b	 Bytes: 3
  %loadMem_400c8b = load %struct.Memory*, %struct.Memory** %MEMORY
  %call_400c8b = call %struct.Memory* @routine_movl_MINUS0x3c__rbp____eax(%struct.State* %0, i64  0, %struct.Memory* %loadMem_400c8b)
  store %struct.Memory* %call_400c8b, %struct.Memory** %MEMORY

  ; Code: cmpl -0xc(%rbp), %eax	 RIP: 400c8e	 Bytes: 3
  %loadMem_400c8e = load %struct.Memory*, %struct.Memory** %MEMORY
  %call_400c8e = call %struct.Memory* @routine_cmpl_MINUS0xc__rbp____eax(%struct.State* %0, i64  0, %struct.Memory* %loadMem_400c8e)
  store %struct.Memory* %call_400c8e, %struct.Memory** %MEMORY

  ; Code: jge .L_400cbf	 RIP: 400c91	 Bytes: 6
  %loadMem_400c91 = load %struct.Memory*, %struct.Memory** %MEMORY
  %call_400c91 = call %struct.Memory* @routine_jge_.L_400cbf(%struct.State* %0, i64  0, %struct.Memory* %loadMem_400c91, i8* %BRANCH_TAKEN, i64 46, i64 6, i64 6)
  store %struct.Memory* %call_400c91, %struct.Memory** %MEMORY

  %loadBr_400c91 = load i8, i8* %BRANCH_TAKEN
  %cmpBr_400c91 = icmp eq i8 %loadBr_400c91, 1
  br i1 %cmpBr_400c91, label %block_.L_400cbf, label %block_400c97

block_400c97:
  ; Code: movq -0x30(%rbp), %rax	 RIP: 400c97	 Bytes: 4
  %loadMem_400c97 = load %struct.Memory*, %struct.Memory** %MEMORY
  %call_400c97 = call %struct.Memory* @routine_movq_MINUS0x30__rbp____rax(%struct.State* %0, i64  0, %struct.Memory* %loadMem_400c97)
  store %struct.Memory* %call_400c97, %struct.Memory** %MEMORY

  ; Code: movslq -0x34(%rbp), %rcx	 RIP: 400c9b	 Bytes: 4
  %loadMem_400c9b = load %struct.Memory*, %struct.Memory** %MEMORY
  %call_400c9b = call %struct.Memory* @routine_movslq_MINUS0x34__rbp____rcx(%struct.State* %0, i64  0, %struct.Memory* %loadMem_400c9b)
  store %struct.Memory* %call_400c9b, %struct.Memory** %MEMORY

  ; Code: movsd (%rax,%rcx,8), %xmm0	 RIP: 400c9f	 Bytes: 5
  %loadMem_400c9f = load %struct.Memory*, %struct.Memory** %MEMORY
  %call_400c9f = call %struct.Memory* @routine_movsd___rax__rcx_8____xmm0(%struct.State* %0, i64  0, %struct.Memory* %loadMem_400c9f)
  store %struct.Memory* %call_400c9f, %struct.Memory** %MEMORY

  ; Code: movq -0x20(%rbp), %rax	 RIP: 400ca4	 Bytes: 4
  %loadMem_400ca4 = load %struct.Memory*, %struct.Memory** %MEMORY
  %call_400ca4 = call %struct.Memory* @routine_movq_MINUS0x20__rbp____rax(%struct.State* %0, i64  0, %struct.Memory* %loadMem_400ca4)
  store %struct.Memory* %call_400ca4, %struct.Memory** %MEMORY

  ; Code: movslq -0x3c(%rbp), %rcx	 RIP: 400ca8	 Bytes: 4
  %loadMem_400ca8 = load %struct.Memory*, %struct.Memory** %MEMORY
  %call_400ca8 = call %struct.Memory* @routine_movslq_MINUS0x3c__rbp____rcx(%struct.State* %0, i64  0, %struct.Memory* %loadMem_400ca8)
  store %struct.Memory* %call_400ca8, %struct.Memory** %MEMORY

  ; Code: movsd %xmm0, (%rax,%rcx,8)	 RIP: 400cac	 Bytes: 5
  %loadMem_400cac = load %struct.Memory*, %struct.Memory** %MEMORY
  %call_400cac = call %struct.Memory* @routine_movsd__xmm0____rax__rcx_8_(%struct.State* %0, i64  0, %struct.Memory* %loadMem_400cac)
  store %struct.Memory* %call_400cac, %struct.Memory** %MEMORY

  ; Code: movl -0x3c(%rbp), %eax	 RIP: 400cb1	 Bytes: 3
  %loadMem_400cb1 = load %struct.Memory*, %struct.Memory** %MEMORY
  %call_400cb1 = call %struct.Memory* @routine_movl_MINUS0x3c__rbp____eax(%struct.State* %0, i64  0, %struct.Memory* %loadMem_400cb1)
  store %struct.Memory* %call_400cb1, %struct.Memory** %MEMORY

  ; Code: addl $0x1, %eax	 RIP: 400cb4	 Bytes: 3
  %loadMem_400cb4 = load %struct.Memory*, %struct.Memory** %MEMORY
  %call_400cb4 = call %struct.Memory* @routine_addl__0x1___eax(%struct.State* %0, i64  0, %struct.Memory* %loadMem_400cb4)
  store %struct.Memory* %call_400cb4, %struct.Memory** %MEMORY

  ; Code: movl %eax, -0x3c(%rbp)	 RIP: 400cb7	 Bytes: 3
  %loadMem_400cb7 = load %struct.Memory*, %struct.Memory** %MEMORY
  %call_400cb7 = call %struct.Memory* @routine_movl__eax__MINUS0x3c__rbp_(%struct.State* %0, i64  0, %struct.Memory* %loadMem_400cb7)
  store %struct.Memory* %call_400cb7, %struct.Memory** %MEMORY

  ; Code: jmpq .L_400c8b	 RIP: 400cba	 Bytes: 5
  %loadMem_400cba = load %struct.Memory*, %struct.Memory** %MEMORY
  %call_400cba = call %struct.Memory* @routine_jmpq_.L_400c8b(%struct.State* %0, i64  0, %struct.Memory* %loadMem_400cba, i64 -47, i64 5)
  store %struct.Memory* %call_400cba, %struct.Memory** %MEMORY

  br label %block_.L_400c8b

  ; Code: .L_400cbf:	 RIP: 400cbf	 Bytes: 0
block_.L_400cbf:

  ; Code: movl $0x1, -0x38(%rbp)	 RIP: 400cbf	 Bytes: 7
  %loadMem_400cbf = load %struct.Memory*, %struct.Memory** %MEMORY
  %call_400cbf = call %struct.Memory* @routine_movl__0x1__MINUS0x38__rbp_(%struct.State* %0, i64  0, %struct.Memory* %loadMem_400cbf)
  store %struct.Memory* %call_400cbf, %struct.Memory** %MEMORY

  ; Code: .L_400cc6:	 RIP: 400cc6	 Bytes: 0
  br label %block_.L_400cc6
block_.L_400cc6:

  ; Code: movl -0x38(%rbp), %eax	 RIP: 400cc6	 Bytes: 3
  %loadMem_400cc6 = load %struct.Memory*, %struct.Memory** %MEMORY
  %call_400cc6 = call %struct.Memory* @routine_movl_MINUS0x38__rbp____eax(%struct.State* %0, i64  0, %struct.Memory* %loadMem_400cc6)
  store %struct.Memory* %call_400cc6, %struct.Memory** %MEMORY

  ; Code: cmpl -0x8(%rbp), %eax	 RIP: 400cc9	 Bytes: 3
  %loadMem_400cc9 = load %struct.Memory*, %struct.Memory** %MEMORY
  %call_400cc9 = call %struct.Memory* @routine_cmpl_MINUS0x8__rbp____eax(%struct.State* %0, i64  0, %struct.Memory* %loadMem_400cc9)
  store %struct.Memory* %call_400cc9, %struct.Memory** %MEMORY

  ; Code: jge .L_400d87	 RIP: 400ccc	 Bytes: 6
  %loadMem_400ccc = load %struct.Memory*, %struct.Memory** %MEMORY
  %call_400ccc = call %struct.Memory* @routine_jge_.L_400d87(%struct.State* %0, i64  0, %struct.Memory* %loadMem_400ccc, i8* %BRANCH_TAKEN, i64 187, i64 6, i64 6)
  store %struct.Memory* %call_400ccc, %struct.Memory** %MEMORY

  %loadBr_400ccc = load i8, i8* %BRANCH_TAKEN
  %cmpBr_400ccc = icmp eq i8 %loadBr_400ccc, 1
  br i1 %cmpBr_400ccc, label %block_.L_400d87, label %block_400cd2

block_400cd2:
  ; Code: movl $0x0, -0x3c(%rbp)	 RIP: 400cd2	 Bytes: 7
  %loadMem_400cd2 = load %struct.Memory*, %struct.Memory** %MEMORY
  %call_400cd2 = call %struct.Memory* @routine_movl__0x0__MINUS0x3c__rbp_(%struct.State* %0, i64  0, %struct.Memory* %loadMem_400cd2)
  store %struct.Memory* %call_400cd2, %struct.Memory** %MEMORY

  ; Code: .L_400cd9:	 RIP: 400cd9	 Bytes: 0
  br label %block_.L_400cd9
block_.L_400cd9:

  ; Code: movl -0x3c(%rbp), %eax	 RIP: 400cd9	 Bytes: 3
  %loadMem_400cd9 = load %struct.Memory*, %struct.Memory** %MEMORY
  %call_400cd9 = call %struct.Memory* @routine_movl_MINUS0x3c__rbp____eax(%struct.State* %0, i64  0, %struct.Memory* %loadMem_400cd9)
  store %struct.Memory* %call_400cd9, %struct.Memory** %MEMORY

  ; Code: cmpl -0xc(%rbp), %eax	 RIP: 400cdc	 Bytes: 3
  %loadMem_400cdc = load %struct.Memory*, %struct.Memory** %MEMORY
  %call_400cdc = call %struct.Memory* @routine_cmpl_MINUS0xc__rbp____eax(%struct.State* %0, i64  0, %struct.Memory* %loadMem_400cdc)
  store %struct.Memory* %call_400cdc, %struct.Memory** %MEMORY

  ; Code: jge .L_400d74	 RIP: 400cdf	 Bytes: 6
  %loadMem_400cdf = load %struct.Memory*, %struct.Memory** %MEMORY
  %call_400cdf = call %struct.Memory* @routine_jge_.L_400d74(%struct.State* %0, i64  0, %struct.Memory* %loadMem_400cdf, i8* %BRANCH_TAKEN, i64 149, i64 6, i64 6)
  store %struct.Memory* %call_400cdf, %struct.Memory** %MEMORY

  %loadBr_400cdf = load i8, i8* %BRANCH_TAKEN
  %cmpBr_400cdf = icmp eq i8 %loadBr_400cdf, 1
  br i1 %cmpBr_400cdf, label %block_.L_400d74, label %block_400ce5

block_400ce5:
  ; Code: movsd 0x9a3(%rip), %xmm0	 RIP: 400ce5	 Bytes: 8
  %loadMem_400ce5 = load %struct.Memory*, %struct.Memory** %MEMORY
  %call_400ce5 = call %struct.Memory* @routine_movsd_0x9a3__rip____xmm0(%struct.State* %0, i64  0, %struct.Memory* %loadMem_400ce5)
  store %struct.Memory* %call_400ce5, %struct.Memory** %MEMORY

  ; Code: movq -0x20(%rbp), %rax	 RIP: 400ced	 Bytes: 4
  %loadMem_400ced = load %struct.Memory*, %struct.Memory** %MEMORY
  %call_400ced = call %struct.Memory* @routine_movq_MINUS0x20__rbp____rax(%struct.State* %0, i64  0, %struct.Memory* %loadMem_400ced)
  store %struct.Memory* %call_400ced, %struct.Memory** %MEMORY

  ; Code: movslq -0x38(%rbp), %rcx	 RIP: 400cf1	 Bytes: 4
  %loadMem_400cf1 = load %struct.Memory*, %struct.Memory** %MEMORY
  %call_400cf1 = call %struct.Memory* @routine_movslq_MINUS0x38__rbp____rcx(%struct.State* %0, i64  0, %struct.Memory* %loadMem_400cf1)
  store %struct.Memory* %call_400cf1, %struct.Memory** %MEMORY

  ; Code: imulq $0x1f40, %rcx, %rcx	 RIP: 400cf5	 Bytes: 7
  %loadMem_400cf5 = load %struct.Memory*, %struct.Memory** %MEMORY
  %call_400cf5 = call %struct.Memory* @routine_imulq__0x1f40___rcx___rcx(%struct.State* %0, i64  0, %struct.Memory* %loadMem_400cf5)
  store %struct.Memory* %call_400cf5, %struct.Memory** %MEMORY

  ; Code: addq %rcx, %rax	 RIP: 400cfc	 Bytes: 3
  %loadMem_400cfc = load %struct.Memory*, %struct.Memory** %MEMORY
  %call_400cfc = call %struct.Memory* @routine_addq__rcx___rax(%struct.State* %0, i64  0, %struct.Memory* %loadMem_400cfc)
  store %struct.Memory* %call_400cfc, %struct.Memory** %MEMORY

  ; Code: movslq -0x3c(%rbp), %rcx	 RIP: 400cff	 Bytes: 4
  %loadMem_400cff = load %struct.Memory*, %struct.Memory** %MEMORY
  %call_400cff = call %struct.Memory* @routine_movslq_MINUS0x3c__rbp____rcx(%struct.State* %0, i64  0, %struct.Memory* %loadMem_400cff)
  store %struct.Memory* %call_400cff, %struct.Memory** %MEMORY

  ; Code: movsd (%rax,%rcx,8), %xmm1	 RIP: 400d03	 Bytes: 5
  %loadMem_400d03 = load %struct.Memory*, %struct.Memory** %MEMORY
  %call_400d03 = call %struct.Memory* @routine_movsd___rax__rcx_8____xmm1(%struct.State* %0, i64  0, %struct.Memory* %loadMem_400d03)
  store %struct.Memory* %call_400d03, %struct.Memory** %MEMORY

  ; Code: movq -0x28(%rbp), %rax	 RIP: 400d08	 Bytes: 4
  %loadMem_400d08 = load %struct.Memory*, %struct.Memory** %MEMORY
  %call_400d08 = call %struct.Memory* @routine_movq_MINUS0x28__rbp____rax(%struct.State* %0, i64  0, %struct.Memory* %loadMem_400d08)
  store %struct.Memory* %call_400d08, %struct.Memory** %MEMORY

  ; Code: movslq -0x38(%rbp), %rcx	 RIP: 400d0c	 Bytes: 4
  %loadMem_400d0c = load %struct.Memory*, %struct.Memory** %MEMORY
  %call_400d0c = call %struct.Memory* @routine_movslq_MINUS0x38__rbp____rcx(%struct.State* %0, i64  0, %struct.Memory* %loadMem_400d0c)
  store %struct.Memory* %call_400d0c, %struct.Memory** %MEMORY

  ; Code: imulq $0x1f40, %rcx, %rcx	 RIP: 400d10	 Bytes: 7
  %loadMem_400d10 = load %struct.Memory*, %struct.Memory** %MEMORY
  %call_400d10 = call %struct.Memory* @routine_imulq__0x1f40___rcx___rcx(%struct.State* %0, i64  0, %struct.Memory* %loadMem_400d10)
  store %struct.Memory* %call_400d10, %struct.Memory** %MEMORY

  ; Code: addq %rcx, %rax	 RIP: 400d17	 Bytes: 3
  %loadMem_400d17 = load %struct.Memory*, %struct.Memory** %MEMORY
  %call_400d17 = call %struct.Memory* @routine_addq__rcx___rax(%struct.State* %0, i64  0, %struct.Memory* %loadMem_400d17)
  store %struct.Memory* %call_400d17, %struct.Memory** %MEMORY

  ; Code: movslq -0x3c(%rbp), %rcx	 RIP: 400d1a	 Bytes: 4
  %loadMem_400d1a = load %struct.Memory*, %struct.Memory** %MEMORY
  %call_400d1a = call %struct.Memory* @routine_movslq_MINUS0x3c__rbp____rcx(%struct.State* %0, i64  0, %struct.Memory* %loadMem_400d1a)
  store %struct.Memory* %call_400d1a, %struct.Memory** %MEMORY

  ; Code: movsd (%rax,%rcx,8), %xmm2	 RIP: 400d1e	 Bytes: 5
  %loadMem_400d1e = load %struct.Memory*, %struct.Memory** %MEMORY
  %call_400d1e = call %struct.Memory* @routine_movsd___rax__rcx_8____xmm2(%struct.State* %0, i64  0, %struct.Memory* %loadMem_400d1e)
  store %struct.Memory* %call_400d1e, %struct.Memory** %MEMORY

  ; Code: movq -0x28(%rbp), %rax	 RIP: 400d23	 Bytes: 4
  %loadMem_400d23 = load %struct.Memory*, %struct.Memory** %MEMORY
  %call_400d23 = call %struct.Memory* @routine_movq_MINUS0x28__rbp____rax(%struct.State* %0, i64  0, %struct.Memory* %loadMem_400d23)
  store %struct.Memory* %call_400d23, %struct.Memory** %MEMORY

  ; Code: movl -0x38(%rbp), %edx	 RIP: 400d27	 Bytes: 3
  %loadMem_400d27 = load %struct.Memory*, %struct.Memory** %MEMORY
  %call_400d27 = call %struct.Memory* @routine_movl_MINUS0x38__rbp____edx(%struct.State* %0, i64  0, %struct.Memory* %loadMem_400d27)
  store %struct.Memory* %call_400d27, %struct.Memory** %MEMORY

  ; Code: subl $0x1, %edx	 RIP: 400d2a	 Bytes: 3
  %loadMem_400d2a = load %struct.Memory*, %struct.Memory** %MEMORY
  %call_400d2a = call %struct.Memory* @routine_subl__0x1___edx(%struct.State* %0, i64  0, %struct.Memory* %loadMem_400d2a)
  store %struct.Memory* %call_400d2a, %struct.Memory** %MEMORY

  ; Code: movslq %edx, %rcx	 RIP: 400d2d	 Bytes: 3
  %loadMem_400d2d = load %struct.Memory*, %struct.Memory** %MEMORY
  %call_400d2d = call %struct.Memory* @routine_movslq__edx___rcx(%struct.State* %0, i64  0, %struct.Memory* %loadMem_400d2d)
  store %struct.Memory* %call_400d2d, %struct.Memory** %MEMORY

  ; Code: imulq $0x1f40, %rcx, %rcx	 RIP: 400d30	 Bytes: 7
  %loadMem_400d30 = load %struct.Memory*, %struct.Memory** %MEMORY
  %call_400d30 = call %struct.Memory* @routine_imulq__0x1f40___rcx___rcx(%struct.State* %0, i64  0, %struct.Memory* %loadMem_400d30)
  store %struct.Memory* %call_400d30, %struct.Memory** %MEMORY

  ; Code: addq %rcx, %rax	 RIP: 400d37	 Bytes: 3
  %loadMem_400d37 = load %struct.Memory*, %struct.Memory** %MEMORY
  %call_400d37 = call %struct.Memory* @routine_addq__rcx___rax(%struct.State* %0, i64  0, %struct.Memory* %loadMem_400d37)
  store %struct.Memory* %call_400d37, %struct.Memory** %MEMORY

  ; Code: movslq -0x3c(%rbp), %rcx	 RIP: 400d3a	 Bytes: 4
  %loadMem_400d3a = load %struct.Memory*, %struct.Memory** %MEMORY
  %call_400d3a = call %struct.Memory* @routine_movslq_MINUS0x3c__rbp____rcx(%struct.State* %0, i64  0, %struct.Memory* %loadMem_400d3a)
  store %struct.Memory* %call_400d3a, %struct.Memory** %MEMORY

  ; Code: subsd (%rax,%rcx,8), %xmm2	 RIP: 400d3e	 Bytes: 5
  %loadMem_400d3e = load %struct.Memory*, %struct.Memory** %MEMORY
  %call_400d3e = call %struct.Memory* @routine_subsd___rax__rcx_8____xmm2(%struct.State* %0, i64  0, %struct.Memory* %loadMem_400d3e)
  store %struct.Memory* %call_400d3e, %struct.Memory** %MEMORY

  ; Code: mulsd %xmm2, %xmm0	 RIP: 400d43	 Bytes: 4
  %loadMem_400d43 = load %struct.Memory*, %struct.Memory** %MEMORY
  %call_400d43 = call %struct.Memory* @routine_mulsd__xmm2___xmm0(%struct.State* %0, i64  0, %struct.Memory* %loadMem_400d43)
  store %struct.Memory* %call_400d43, %struct.Memory** %MEMORY

  ; Code: subsd %xmm0, %xmm1	 RIP: 400d47	 Bytes: 4
  %loadMem_400d47 = load %struct.Memory*, %struct.Memory** %MEMORY
  %call_400d47 = call %struct.Memory* @routine_subsd__xmm0___xmm1(%struct.State* %0, i64  0, %struct.Memory* %loadMem_400d47)
  store %struct.Memory* %call_400d47, %struct.Memory** %MEMORY

  ; Code: movq -0x20(%rbp), %rax	 RIP: 400d4b	 Bytes: 4
  %loadMem_400d4b = load %struct.Memory*, %struct.Memory** %MEMORY
  %call_400d4b = call %struct.Memory* @routine_movq_MINUS0x20__rbp____rax(%struct.State* %0, i64  0, %struct.Memory* %loadMem_400d4b)
  store %struct.Memory* %call_400d4b, %struct.Memory** %MEMORY

  ; Code: movslq -0x38(%rbp), %rcx	 RIP: 400d4f	 Bytes: 4
  %loadMem_400d4f = load %struct.Memory*, %struct.Memory** %MEMORY
  %call_400d4f = call %struct.Memory* @routine_movslq_MINUS0x38__rbp____rcx(%struct.State* %0, i64  0, %struct.Memory* %loadMem_400d4f)
  store %struct.Memory* %call_400d4f, %struct.Memory** %MEMORY

  ; Code: imulq $0x1f40, %rcx, %rcx	 RIP: 400d53	 Bytes: 7
  %loadMem_400d53 = load %struct.Memory*, %struct.Memory** %MEMORY
  %call_400d53 = call %struct.Memory* @routine_imulq__0x1f40___rcx___rcx(%struct.State* %0, i64  0, %struct.Memory* %loadMem_400d53)
  store %struct.Memory* %call_400d53, %struct.Memory** %MEMORY

  ; Code: addq %rcx, %rax	 RIP: 400d5a	 Bytes: 3
  %loadMem_400d5a = load %struct.Memory*, %struct.Memory** %MEMORY
  %call_400d5a = call %struct.Memory* @routine_addq__rcx___rax(%struct.State* %0, i64  0, %struct.Memory* %loadMem_400d5a)
  store %struct.Memory* %call_400d5a, %struct.Memory** %MEMORY

  ; Code: movslq -0x3c(%rbp), %rcx	 RIP: 400d5d	 Bytes: 4
  %loadMem_400d5d = load %struct.Memory*, %struct.Memory** %MEMORY
  %call_400d5d = call %struct.Memory* @routine_movslq_MINUS0x3c__rbp____rcx(%struct.State* %0, i64  0, %struct.Memory* %loadMem_400d5d)
  store %struct.Memory* %call_400d5d, %struct.Memory** %MEMORY

  ; Code: movsd %xmm1, (%rax,%rcx,8)	 RIP: 400d61	 Bytes: 5
  %loadMem_400d61 = load %struct.Memory*, %struct.Memory** %MEMORY
  %call_400d61 = call %struct.Memory* @routine_movsd__xmm1____rax__rcx_8_(%struct.State* %0, i64  0, %struct.Memory* %loadMem_400d61)
  store %struct.Memory* %call_400d61, %struct.Memory** %MEMORY

  ; Code: movl -0x3c(%rbp), %eax	 RIP: 400d66	 Bytes: 3
  %loadMem_400d66 = load %struct.Memory*, %struct.Memory** %MEMORY
  %call_400d66 = call %struct.Memory* @routine_movl_MINUS0x3c__rbp____eax(%struct.State* %0, i64  0, %struct.Memory* %loadMem_400d66)
  store %struct.Memory* %call_400d66, %struct.Memory** %MEMORY

  ; Code: addl $0x1, %eax	 RIP: 400d69	 Bytes: 3
  %loadMem_400d69 = load %struct.Memory*, %struct.Memory** %MEMORY
  %call_400d69 = call %struct.Memory* @routine_addl__0x1___eax(%struct.State* %0, i64  0, %struct.Memory* %loadMem_400d69)
  store %struct.Memory* %call_400d69, %struct.Memory** %MEMORY

  ; Code: movl %eax, -0x3c(%rbp)	 RIP: 400d6c	 Bytes: 3
  %loadMem_400d6c = load %struct.Memory*, %struct.Memory** %MEMORY
  %call_400d6c = call %struct.Memory* @routine_movl__eax__MINUS0x3c__rbp_(%struct.State* %0, i64  0, %struct.Memory* %loadMem_400d6c)
  store %struct.Memory* %call_400d6c, %struct.Memory** %MEMORY

  ; Code: jmpq .L_400cd9	 RIP: 400d6f	 Bytes: 5
  %loadMem_400d6f = load %struct.Memory*, %struct.Memory** %MEMORY
  %call_400d6f = call %struct.Memory* @routine_jmpq_.L_400cd9(%struct.State* %0, i64  0, %struct.Memory* %loadMem_400d6f, i64 -150, i64 5)
  store %struct.Memory* %call_400d6f, %struct.Memory** %MEMORY

  br label %block_.L_400cd9

  ; Code: .L_400d74:	 RIP: 400d74	 Bytes: 0
block_.L_400d74:

  ; Code: jmpq .L_400d79	 RIP: 400d74	 Bytes: 5
  %loadMem_400d74 = load %struct.Memory*, %struct.Memory** %MEMORY
  %call_400d74 = call %struct.Memory* @routine_jmpq_.L_400d79(%struct.State* %0, i64  0, %struct.Memory* %loadMem_400d74, i64 5, i64 5)
  store %struct.Memory* %call_400d74, %struct.Memory** %MEMORY

  br label %block_.L_400d79

  ; Code: .L_400d79:	 RIP: 400d79	 Bytes: 0
block_.L_400d79:

  ; Code: movl -0x38(%rbp), %eax	 RIP: 400d79	 Bytes: 3
  %loadMem_400d79 = load %struct.Memory*, %struct.Memory** %MEMORY
  %call_400d79 = call %struct.Memory* @routine_movl_MINUS0x38__rbp____eax(%struct.State* %0, i64  0, %struct.Memory* %loadMem_400d79)
  store %struct.Memory* %call_400d79, %struct.Memory** %MEMORY

  ; Code: addl $0x1, %eax	 RIP: 400d7c	 Bytes: 3
  %loadMem_400d7c = load %struct.Memory*, %struct.Memory** %MEMORY
  %call_400d7c = call %struct.Memory* @routine_addl__0x1___eax(%struct.State* %0, i64  0, %struct.Memory* %loadMem_400d7c)
  store %struct.Memory* %call_400d7c, %struct.Memory** %MEMORY

  ; Code: movl %eax, -0x38(%rbp)	 RIP: 400d7f	 Bytes: 3
  %loadMem_400d7f = load %struct.Memory*, %struct.Memory** %MEMORY
  %call_400d7f = call %struct.Memory* @routine_movl__eax__MINUS0x38__rbp_(%struct.State* %0, i64  0, %struct.Memory* %loadMem_400d7f)
  store %struct.Memory* %call_400d7f, %struct.Memory** %MEMORY

  ; Code: jmpq .L_400cc6	 RIP: 400d82	 Bytes: 5
  %loadMem_400d82 = load %struct.Memory*, %struct.Memory** %MEMORY
  %call_400d82 = call %struct.Memory* @routine_jmpq_.L_400cc6(%struct.State* %0, i64  0, %struct.Memory* %loadMem_400d82, i64 -188, i64 5)
  store %struct.Memory* %call_400d82, %struct.Memory** %MEMORY

  br label %block_.L_400cc6

  ; Code: .L_400d87:	 RIP: 400d87	 Bytes: 0
block_.L_400d87:

  ; Code: movl $0x0, -0x38(%rbp)	 RIP: 400d87	 Bytes: 7
  %loadMem_400d87 = load %struct.Memory*, %struct.Memory** %MEMORY
  %call_400d87 = call %struct.Memory* @routine_movl__0x0__MINUS0x38__rbp_(%struct.State* %0, i64  0, %struct.Memory* %loadMem_400d87)
  store %struct.Memory* %call_400d87, %struct.Memory** %MEMORY

  ; Code: .L_400d8e:	 RIP: 400d8e	 Bytes: 0
  br label %block_.L_400d8e
block_.L_400d8e:

  ; Code: movl -0x38(%rbp), %eax	 RIP: 400d8e	 Bytes: 3
  %loadMem_400d8e = load %struct.Memory*, %struct.Memory** %MEMORY
  %call_400d8e = call %struct.Memory* @routine_movl_MINUS0x38__rbp____eax(%struct.State* %0, i64  0, %struct.Memory* %loadMem_400d8e)
  store %struct.Memory* %call_400d8e, %struct.Memory** %MEMORY

  ; Code: cmpl -0x8(%rbp), %eax	 RIP: 400d91	 Bytes: 3
  %loadMem_400d91 = load %struct.Memory*, %struct.Memory** %MEMORY
  %call_400d91 = call %struct.Memory* @routine_cmpl_MINUS0x8__rbp____eax(%struct.State* %0, i64  0, %struct.Memory* %loadMem_400d91)
  store %struct.Memory* %call_400d91, %struct.Memory** %MEMORY

  ; Code: jge .L_400e4f	 RIP: 400d94	 Bytes: 6
  %loadMem_400d94 = load %struct.Memory*, %struct.Memory** %MEMORY
  %call_400d94 = call %struct.Memory* @routine_jge_.L_400e4f(%struct.State* %0, i64  0, %struct.Memory* %loadMem_400d94, i8* %BRANCH_TAKEN, i64 187, i64 6, i64 6)
  store %struct.Memory* %call_400d94, %struct.Memory** %MEMORY

  %loadBr_400d94 = load i8, i8* %BRANCH_TAKEN
  %cmpBr_400d94 = icmp eq i8 %loadBr_400d94, 1
  br i1 %cmpBr_400d94, label %block_.L_400e4f, label %block_400d9a

block_400d9a:
  ; Code: movl $0x1, -0x3c(%rbp)	 RIP: 400d9a	 Bytes: 7
  %loadMem_400d9a = load %struct.Memory*, %struct.Memory** %MEMORY
  %call_400d9a = call %struct.Memory* @routine_movl__0x1__MINUS0x3c__rbp_(%struct.State* %0, i64  0, %struct.Memory* %loadMem_400d9a)
  store %struct.Memory* %call_400d9a, %struct.Memory** %MEMORY

  ; Code: .L_400da1:	 RIP: 400da1	 Bytes: 0
  br label %block_.L_400da1
block_.L_400da1:

  ; Code: movl -0x3c(%rbp), %eax	 RIP: 400da1	 Bytes: 3
  %loadMem_400da1 = load %struct.Memory*, %struct.Memory** %MEMORY
  %call_400da1 = call %struct.Memory* @routine_movl_MINUS0x3c__rbp____eax(%struct.State* %0, i64  0, %struct.Memory* %loadMem_400da1)
  store %struct.Memory* %call_400da1, %struct.Memory** %MEMORY

  ; Code: cmpl -0xc(%rbp), %eax	 RIP: 400da4	 Bytes: 3
  %loadMem_400da4 = load %struct.Memory*, %struct.Memory** %MEMORY
  %call_400da4 = call %struct.Memory* @routine_cmpl_MINUS0xc__rbp____eax(%struct.State* %0, i64  0, %struct.Memory* %loadMem_400da4)
  store %struct.Memory* %call_400da4, %struct.Memory** %MEMORY

  ; Code: jge .L_400e3c	 RIP: 400da7	 Bytes: 6
  %loadMem_400da7 = load %struct.Memory*, %struct.Memory** %MEMORY
  %call_400da7 = call %struct.Memory* @routine_jge_.L_400e3c(%struct.State* %0, i64  0, %struct.Memory* %loadMem_400da7, i8* %BRANCH_TAKEN, i64 149, i64 6, i64 6)
  store %struct.Memory* %call_400da7, %struct.Memory** %MEMORY

  %loadBr_400da7 = load i8, i8* %BRANCH_TAKEN
  %cmpBr_400da7 = icmp eq i8 %loadBr_400da7, 1
  br i1 %cmpBr_400da7, label %block_.L_400e3c, label %block_400dad

block_400dad:
  ; Code: movsd 0x8db(%rip), %xmm0	 RIP: 400dad	 Bytes: 8
  %loadMem_400dad = load %struct.Memory*, %struct.Memory** %MEMORY
  %call_400dad = call %struct.Memory* @routine_movsd_0x8db__rip____xmm0(%struct.State* %0, i64  0, %struct.Memory* %loadMem_400dad)
  store %struct.Memory* %call_400dad, %struct.Memory** %MEMORY

  ; Code: movq -0x18(%rbp), %rax	 RIP: 400db5	 Bytes: 4
  %loadMem_400db5 = load %struct.Memory*, %struct.Memory** %MEMORY
  %call_400db5 = call %struct.Memory* @routine_movq_MINUS0x18__rbp____rax(%struct.State* %0, i64  0, %struct.Memory* %loadMem_400db5)
  store %struct.Memory* %call_400db5, %struct.Memory** %MEMORY

  ; Code: movslq -0x38(%rbp), %rcx	 RIP: 400db9	 Bytes: 4
  %loadMem_400db9 = load %struct.Memory*, %struct.Memory** %MEMORY
  %call_400db9 = call %struct.Memory* @routine_movslq_MINUS0x38__rbp____rcx(%struct.State* %0, i64  0, %struct.Memory* %loadMem_400db9)
  store %struct.Memory* %call_400db9, %struct.Memory** %MEMORY

  ; Code: imulq $0x1f40, %rcx, %rcx	 RIP: 400dbd	 Bytes: 7
  %loadMem_400dbd = load %struct.Memory*, %struct.Memory** %MEMORY
  %call_400dbd = call %struct.Memory* @routine_imulq__0x1f40___rcx___rcx(%struct.State* %0, i64  0, %struct.Memory* %loadMem_400dbd)
  store %struct.Memory* %call_400dbd, %struct.Memory** %MEMORY

  ; Code: addq %rcx, %rax	 RIP: 400dc4	 Bytes: 3
  %loadMem_400dc4 = load %struct.Memory*, %struct.Memory** %MEMORY
  %call_400dc4 = call %struct.Memory* @routine_addq__rcx___rax(%struct.State* %0, i64  0, %struct.Memory* %loadMem_400dc4)
  store %struct.Memory* %call_400dc4, %struct.Memory** %MEMORY

  ; Code: movslq -0x3c(%rbp), %rcx	 RIP: 400dc7	 Bytes: 4
  %loadMem_400dc7 = load %struct.Memory*, %struct.Memory** %MEMORY
  %call_400dc7 = call %struct.Memory* @routine_movslq_MINUS0x3c__rbp____rcx(%struct.State* %0, i64  0, %struct.Memory* %loadMem_400dc7)
  store %struct.Memory* %call_400dc7, %struct.Memory** %MEMORY

  ; Code: movsd (%rax,%rcx,8), %xmm1	 RIP: 400dcb	 Bytes: 5
  %loadMem_400dcb = load %struct.Memory*, %struct.Memory** %MEMORY
  %call_400dcb = call %struct.Memory* @routine_movsd___rax__rcx_8____xmm1(%struct.State* %0, i64  0, %struct.Memory* %loadMem_400dcb)
  store %struct.Memory* %call_400dcb, %struct.Memory** %MEMORY

  ; Code: movq -0x28(%rbp), %rax	 RIP: 400dd0	 Bytes: 4
  %loadMem_400dd0 = load %struct.Memory*, %struct.Memory** %MEMORY
  %call_400dd0 = call %struct.Memory* @routine_movq_MINUS0x28__rbp____rax(%struct.State* %0, i64  0, %struct.Memory* %loadMem_400dd0)
  store %struct.Memory* %call_400dd0, %struct.Memory** %MEMORY

  ; Code: movslq -0x38(%rbp), %rcx	 RIP: 400dd4	 Bytes: 4
  %loadMem_400dd4 = load %struct.Memory*, %struct.Memory** %MEMORY
  %call_400dd4 = call %struct.Memory* @routine_movslq_MINUS0x38__rbp____rcx(%struct.State* %0, i64  0, %struct.Memory* %loadMem_400dd4)
  store %struct.Memory* %call_400dd4, %struct.Memory** %MEMORY

  ; Code: imulq $0x1f40, %rcx, %rcx	 RIP: 400dd8	 Bytes: 7
  %loadMem_400dd8 = load %struct.Memory*, %struct.Memory** %MEMORY
  %call_400dd8 = call %struct.Memory* @routine_imulq__0x1f40___rcx___rcx(%struct.State* %0, i64  0, %struct.Memory* %loadMem_400dd8)
  store %struct.Memory* %call_400dd8, %struct.Memory** %MEMORY

  ; Code: addq %rcx, %rax	 RIP: 400ddf	 Bytes: 3
  %loadMem_400ddf = load %struct.Memory*, %struct.Memory** %MEMORY
  %call_400ddf = call %struct.Memory* @routine_addq__rcx___rax(%struct.State* %0, i64  0, %struct.Memory* %loadMem_400ddf)
  store %struct.Memory* %call_400ddf, %struct.Memory** %MEMORY

  ; Code: movslq -0x3c(%rbp), %rcx	 RIP: 400de2	 Bytes: 4
  %loadMem_400de2 = load %struct.Memory*, %struct.Memory** %MEMORY
  %call_400de2 = call %struct.Memory* @routine_movslq_MINUS0x3c__rbp____rcx(%struct.State* %0, i64  0, %struct.Memory* %loadMem_400de2)
  store %struct.Memory* %call_400de2, %struct.Memory** %MEMORY

  ; Code: movsd (%rax,%rcx,8), %xmm2	 RIP: 400de6	 Bytes: 5
  %loadMem_400de6 = load %struct.Memory*, %struct.Memory** %MEMORY
  %call_400de6 = call %struct.Memory* @routine_movsd___rax__rcx_8____xmm2(%struct.State* %0, i64  0, %struct.Memory* %loadMem_400de6)
  store %struct.Memory* %call_400de6, %struct.Memory** %MEMORY

  ; Code: movq -0x28(%rbp), %rax	 RIP: 400deb	 Bytes: 4
  %loadMem_400deb = load %struct.Memory*, %struct.Memory** %MEMORY
  %call_400deb = call %struct.Memory* @routine_movq_MINUS0x28__rbp____rax(%struct.State* %0, i64  0, %struct.Memory* %loadMem_400deb)
  store %struct.Memory* %call_400deb, %struct.Memory** %MEMORY

  ; Code: movslq -0x38(%rbp), %rcx	 RIP: 400def	 Bytes: 4
  %loadMem_400def = load %struct.Memory*, %struct.Memory** %MEMORY
  %call_400def = call %struct.Memory* @routine_movslq_MINUS0x38__rbp____rcx(%struct.State* %0, i64  0, %struct.Memory* %loadMem_400def)
  store %struct.Memory* %call_400def, %struct.Memory** %MEMORY

  ; Code: imulq $0x1f40, %rcx, %rcx	 RIP: 400df3	 Bytes: 7
  %loadMem_400df3 = load %struct.Memory*, %struct.Memory** %MEMORY
  %call_400df3 = call %struct.Memory* @routine_imulq__0x1f40___rcx___rcx(%struct.State* %0, i64  0, %struct.Memory* %loadMem_400df3)
  store %struct.Memory* %call_400df3, %struct.Memory** %MEMORY

  ; Code: addq %rcx, %rax	 RIP: 400dfa	 Bytes: 3
  %loadMem_400dfa = load %struct.Memory*, %struct.Memory** %MEMORY
  %call_400dfa = call %struct.Memory* @routine_addq__rcx___rax(%struct.State* %0, i64  0, %struct.Memory* %loadMem_400dfa)
  store %struct.Memory* %call_400dfa, %struct.Memory** %MEMORY

  ; Code: movl -0x3c(%rbp), %edx	 RIP: 400dfd	 Bytes: 3
  %loadMem_400dfd = load %struct.Memory*, %struct.Memory** %MEMORY
  %call_400dfd = call %struct.Memory* @routine_movl_MINUS0x3c__rbp____edx(%struct.State* %0, i64  0, %struct.Memory* %loadMem_400dfd)
  store %struct.Memory* %call_400dfd, %struct.Memory** %MEMORY

  ; Code: subl $0x1, %edx	 RIP: 400e00	 Bytes: 3
  %loadMem_400e00 = load %struct.Memory*, %struct.Memory** %MEMORY
  %call_400e00 = call %struct.Memory* @routine_subl__0x1___edx(%struct.State* %0, i64  0, %struct.Memory* %loadMem_400e00)
  store %struct.Memory* %call_400e00, %struct.Memory** %MEMORY

  ; Code: movslq %edx, %rcx	 RIP: 400e03	 Bytes: 3
  %loadMem_400e03 = load %struct.Memory*, %struct.Memory** %MEMORY
  %call_400e03 = call %struct.Memory* @routine_movslq__edx___rcx(%struct.State* %0, i64  0, %struct.Memory* %loadMem_400e03)
  store %struct.Memory* %call_400e03, %struct.Memory** %MEMORY

  ; Code: subsd (%rax,%rcx,8), %xmm2	 RIP: 400e06	 Bytes: 5
  %loadMem_400e06 = load %struct.Memory*, %struct.Memory** %MEMORY
  %call_400e06 = call %struct.Memory* @routine_subsd___rax__rcx_8____xmm2(%struct.State* %0, i64  0, %struct.Memory* %loadMem_400e06)
  store %struct.Memory* %call_400e06, %struct.Memory** %MEMORY

  ; Code: mulsd %xmm2, %xmm0	 RIP: 400e0b	 Bytes: 4
  %loadMem_400e0b = load %struct.Memory*, %struct.Memory** %MEMORY
  %call_400e0b = call %struct.Memory* @routine_mulsd__xmm2___xmm0(%struct.State* %0, i64  0, %struct.Memory* %loadMem_400e0b)
  store %struct.Memory* %call_400e0b, %struct.Memory** %MEMORY

  ; Code: subsd %xmm0, %xmm1	 RIP: 400e0f	 Bytes: 4
  %loadMem_400e0f = load %struct.Memory*, %struct.Memory** %MEMORY
  %call_400e0f = call %struct.Memory* @routine_subsd__xmm0___xmm1(%struct.State* %0, i64  0, %struct.Memory* %loadMem_400e0f)
  store %struct.Memory* %call_400e0f, %struct.Memory** %MEMORY

  ; Code: movq -0x18(%rbp), %rax	 RIP: 400e13	 Bytes: 4
  %loadMem_400e13 = load %struct.Memory*, %struct.Memory** %MEMORY
  %call_400e13 = call %struct.Memory* @routine_movq_MINUS0x18__rbp____rax(%struct.State* %0, i64  0, %struct.Memory* %loadMem_400e13)
  store %struct.Memory* %call_400e13, %struct.Memory** %MEMORY

  ; Code: movslq -0x38(%rbp), %rcx	 RIP: 400e17	 Bytes: 4
  %loadMem_400e17 = load %struct.Memory*, %struct.Memory** %MEMORY
  %call_400e17 = call %struct.Memory* @routine_movslq_MINUS0x38__rbp____rcx(%struct.State* %0, i64  0, %struct.Memory* %loadMem_400e17)
  store %struct.Memory* %call_400e17, %struct.Memory** %MEMORY

  ; Code: imulq $0x1f40, %rcx, %rcx	 RIP: 400e1b	 Bytes: 7
  %loadMem_400e1b = load %struct.Memory*, %struct.Memory** %MEMORY
  %call_400e1b = call %struct.Memory* @routine_imulq__0x1f40___rcx___rcx(%struct.State* %0, i64  0, %struct.Memory* %loadMem_400e1b)
  store %struct.Memory* %call_400e1b, %struct.Memory** %MEMORY

  ; Code: addq %rcx, %rax	 RIP: 400e22	 Bytes: 3
  %loadMem_400e22 = load %struct.Memory*, %struct.Memory** %MEMORY
  %call_400e22 = call %struct.Memory* @routine_addq__rcx___rax(%struct.State* %0, i64  0, %struct.Memory* %loadMem_400e22)
  store %struct.Memory* %call_400e22, %struct.Memory** %MEMORY

  ; Code: movslq -0x3c(%rbp), %rcx	 RIP: 400e25	 Bytes: 4
  %loadMem_400e25 = load %struct.Memory*, %struct.Memory** %MEMORY
  %call_400e25 = call %struct.Memory* @routine_movslq_MINUS0x3c__rbp____rcx(%struct.State* %0, i64  0, %struct.Memory* %loadMem_400e25)
  store %struct.Memory* %call_400e25, %struct.Memory** %MEMORY

  ; Code: movsd %xmm1, (%rax,%rcx,8)	 RIP: 400e29	 Bytes: 5
  %loadMem_400e29 = load %struct.Memory*, %struct.Memory** %MEMORY
  %call_400e29 = call %struct.Memory* @routine_movsd__xmm1____rax__rcx_8_(%struct.State* %0, i64  0, %struct.Memory* %loadMem_400e29)
  store %struct.Memory* %call_400e29, %struct.Memory** %MEMORY

  ; Code: movl -0x3c(%rbp), %eax	 RIP: 400e2e	 Bytes: 3
  %loadMem_400e2e = load %struct.Memory*, %struct.Memory** %MEMORY
  %call_400e2e = call %struct.Memory* @routine_movl_MINUS0x3c__rbp____eax(%struct.State* %0, i64  0, %struct.Memory* %loadMem_400e2e)
  store %struct.Memory* %call_400e2e, %struct.Memory** %MEMORY

  ; Code: addl $0x1, %eax	 RIP: 400e31	 Bytes: 3
  %loadMem_400e31 = load %struct.Memory*, %struct.Memory** %MEMORY
  %call_400e31 = call %struct.Memory* @routine_addl__0x1___eax(%struct.State* %0, i64  0, %struct.Memory* %loadMem_400e31)
  store %struct.Memory* %call_400e31, %struct.Memory** %MEMORY

  ; Code: movl %eax, -0x3c(%rbp)	 RIP: 400e34	 Bytes: 3
  %loadMem_400e34 = load %struct.Memory*, %struct.Memory** %MEMORY
  %call_400e34 = call %struct.Memory* @routine_movl__eax__MINUS0x3c__rbp_(%struct.State* %0, i64  0, %struct.Memory* %loadMem_400e34)
  store %struct.Memory* %call_400e34, %struct.Memory** %MEMORY

  ; Code: jmpq .L_400da1	 RIP: 400e37	 Bytes: 5
  %loadMem_400e37 = load %struct.Memory*, %struct.Memory** %MEMORY
  %call_400e37 = call %struct.Memory* @routine_jmpq_.L_400da1(%struct.State* %0, i64  0, %struct.Memory* %loadMem_400e37, i64 -150, i64 5)
  store %struct.Memory* %call_400e37, %struct.Memory** %MEMORY

  br label %block_.L_400da1

  ; Code: .L_400e3c:	 RIP: 400e3c	 Bytes: 0
block_.L_400e3c:

  ; Code: jmpq .L_400e41	 RIP: 400e3c	 Bytes: 5
  %loadMem_400e3c = load %struct.Memory*, %struct.Memory** %MEMORY
  %call_400e3c = call %struct.Memory* @routine_jmpq_.L_400e41(%struct.State* %0, i64  0, %struct.Memory* %loadMem_400e3c, i64 5, i64 5)
  store %struct.Memory* %call_400e3c, %struct.Memory** %MEMORY

  br label %block_.L_400e41

  ; Code: .L_400e41:	 RIP: 400e41	 Bytes: 0
block_.L_400e41:

  ; Code: movl -0x38(%rbp), %eax	 RIP: 400e41	 Bytes: 3
  %loadMem_400e41 = load %struct.Memory*, %struct.Memory** %MEMORY
  %call_400e41 = call %struct.Memory* @routine_movl_MINUS0x38__rbp____eax(%struct.State* %0, i64  0, %struct.Memory* %loadMem_400e41)
  store %struct.Memory* %call_400e41, %struct.Memory** %MEMORY

  ; Code: addl $0x1, %eax	 RIP: 400e44	 Bytes: 3
  %loadMem_400e44 = load %struct.Memory*, %struct.Memory** %MEMORY
  %call_400e44 = call %struct.Memory* @routine_addl__0x1___eax(%struct.State* %0, i64  0, %struct.Memory* %loadMem_400e44)
  store %struct.Memory* %call_400e44, %struct.Memory** %MEMORY

  ; Code: movl %eax, -0x38(%rbp)	 RIP: 400e47	 Bytes: 3
  %loadMem_400e47 = load %struct.Memory*, %struct.Memory** %MEMORY
  %call_400e47 = call %struct.Memory* @routine_movl__eax__MINUS0x38__rbp_(%struct.State* %0, i64  0, %struct.Memory* %loadMem_400e47)
  store %struct.Memory* %call_400e47, %struct.Memory** %MEMORY

  ; Code: jmpq .L_400d8e	 RIP: 400e4a	 Bytes: 5
  %loadMem_400e4a = load %struct.Memory*, %struct.Memory** %MEMORY
  %call_400e4a = call %struct.Memory* @routine_jmpq_.L_400d8e(%struct.State* %0, i64  0, %struct.Memory* %loadMem_400e4a, i64 -188, i64 5)
  store %struct.Memory* %call_400e4a, %struct.Memory** %MEMORY

  br label %block_.L_400d8e

  ; Code: .L_400e4f:	 RIP: 400e4f	 Bytes: 0
block_.L_400e4f:

  ; Code: movl $0x0, -0x38(%rbp)	 RIP: 400e4f	 Bytes: 7
  %loadMem_400e4f = load %struct.Memory*, %struct.Memory** %MEMORY
  %call_400e4f = call %struct.Memory* @routine_movl__0x0__MINUS0x38__rbp_(%struct.State* %0, i64  0, %struct.Memory* %loadMem_400e4f)
  store %struct.Memory* %call_400e4f, %struct.Memory** %MEMORY

  ; Code: .L_400e56:	 RIP: 400e56	 Bytes: 0
  br label %block_.L_400e56
block_.L_400e56:

  ; Code: movl -0x38(%rbp), %eax	 RIP: 400e56	 Bytes: 3
  %loadMem_400e56 = load %struct.Memory*, %struct.Memory** %MEMORY
  %call_400e56 = call %struct.Memory* @routine_movl_MINUS0x38__rbp____eax(%struct.State* %0, i64  0, %struct.Memory* %loadMem_400e56)
  store %struct.Memory* %call_400e56, %struct.Memory** %MEMORY

  ; Code: movl -0x8(%rbp), %ecx	 RIP: 400e59	 Bytes: 3
  %loadMem_400e59 = load %struct.Memory*, %struct.Memory** %MEMORY
  %call_400e59 = call %struct.Memory* @routine_movl_MINUS0x8__rbp____ecx(%struct.State* %0, i64  0, %struct.Memory* %loadMem_400e59)
  store %struct.Memory* %call_400e59, %struct.Memory** %MEMORY

  ; Code: subl $0x1, %ecx	 RIP: 400e5c	 Bytes: 3
  %loadMem_400e5c = load %struct.Memory*, %struct.Memory** %MEMORY
  %call_400e5c = call %struct.Memory* @routine_subl__0x1___ecx(%struct.State* %0, i64  0, %struct.Memory* %loadMem_400e5c)
  store %struct.Memory* %call_400e5c, %struct.Memory** %MEMORY

  ; Code: cmpl %ecx, %eax	 RIP: 400e5f	 Bytes: 2
  %loadMem_400e5f = load %struct.Memory*, %struct.Memory** %MEMORY
  %call_400e5f = call %struct.Memory* @routine_cmpl__ecx___eax(%struct.State* %0, i64  0, %struct.Memory* %loadMem_400e5f)
  store %struct.Memory* %call_400e5f, %struct.Memory** %MEMORY

  ; Code: jge .L_400f5c	 RIP: 400e61	 Bytes: 6
  %loadMem_400e61 = load %struct.Memory*, %struct.Memory** %MEMORY
  %call_400e61 = call %struct.Memory* @routine_jge_.L_400f5c(%struct.State* %0, i64  0, %struct.Memory* %loadMem_400e61, i8* %BRANCH_TAKEN, i64 251, i64 6, i64 6)
  store %struct.Memory* %call_400e61, %struct.Memory** %MEMORY

  %loadBr_400e61 = load i8, i8* %BRANCH_TAKEN
  %cmpBr_400e61 = icmp eq i8 %loadBr_400e61, 1
  br i1 %cmpBr_400e61, label %block_.L_400f5c, label %block_400e67

block_400e67:
  ; Code: movl $0x0, -0x3c(%rbp)	 RIP: 400e67	 Bytes: 7
  %loadMem_400e67 = load %struct.Memory*, %struct.Memory** %MEMORY
  %call_400e67 = call %struct.Memory* @routine_movl__0x0__MINUS0x3c__rbp_(%struct.State* %0, i64  0, %struct.Memory* %loadMem_400e67)
  store %struct.Memory* %call_400e67, %struct.Memory** %MEMORY

  ; Code: .L_400e6e:	 RIP: 400e6e	 Bytes: 0
  br label %block_.L_400e6e
block_.L_400e6e:

  ; Code: movl -0x3c(%rbp), %eax	 RIP: 400e6e	 Bytes: 3
  %loadMem_400e6e = load %struct.Memory*, %struct.Memory** %MEMORY
  %call_400e6e = call %struct.Memory* @routine_movl_MINUS0x3c__rbp____eax(%struct.State* %0, i64  0, %struct.Memory* %loadMem_400e6e)
  store %struct.Memory* %call_400e6e, %struct.Memory** %MEMORY

  ; Code: movl -0xc(%rbp), %ecx	 RIP: 400e71	 Bytes: 3
  %loadMem_400e71 = load %struct.Memory*, %struct.Memory** %MEMORY
  %call_400e71 = call %struct.Memory* @routine_movl_MINUS0xc__rbp____ecx(%struct.State* %0, i64  0, %struct.Memory* %loadMem_400e71)
  store %struct.Memory* %call_400e71, %struct.Memory** %MEMORY

  ; Code: subl $0x1, %ecx	 RIP: 400e74	 Bytes: 3
  %loadMem_400e74 = load %struct.Memory*, %struct.Memory** %MEMORY
  %call_400e74 = call %struct.Memory* @routine_subl__0x1___ecx(%struct.State* %0, i64  0, %struct.Memory* %loadMem_400e74)
  store %struct.Memory* %call_400e74, %struct.Memory** %MEMORY

  ; Code: cmpl %ecx, %eax	 RIP: 400e77	 Bytes: 2
  %loadMem_400e77 = load %struct.Memory*, %struct.Memory** %MEMORY
  %call_400e77 = call %struct.Memory* @routine_cmpl__ecx___eax(%struct.State* %0, i64  0, %struct.Memory* %loadMem_400e77)
  store %struct.Memory* %call_400e77, %struct.Memory** %MEMORY

  ; Code: jge .L_400f49	 RIP: 400e79	 Bytes: 6
  %loadMem_400e79 = load %struct.Memory*, %struct.Memory** %MEMORY
  %call_400e79 = call %struct.Memory* @routine_jge_.L_400f49(%struct.State* %0, i64  0, %struct.Memory* %loadMem_400e79, i8* %BRANCH_TAKEN, i64 208, i64 6, i64 6)
  store %struct.Memory* %call_400e79, %struct.Memory** %MEMORY

  %loadBr_400e79 = load i8, i8* %BRANCH_TAKEN
  %cmpBr_400e79 = icmp eq i8 %loadBr_400e79, 1
  br i1 %cmpBr_400e79, label %block_.L_400f49, label %block_400e7f

block_400e7f:
  ; Code: movsd 0x801(%rip), %xmm0	 RIP: 400e7f	 Bytes: 8
  %loadMem_400e7f = load %struct.Memory*, %struct.Memory** %MEMORY
  %call_400e7f = call %struct.Memory* @routine_movsd_0x801__rip____xmm0(%struct.State* %0, i64  0, %struct.Memory* %loadMem_400e7f)
  store %struct.Memory* %call_400e7f, %struct.Memory** %MEMORY

  ; Code: movq -0x28(%rbp), %rax	 RIP: 400e87	 Bytes: 4
  %loadMem_400e87 = load %struct.Memory*, %struct.Memory** %MEMORY
  %call_400e87 = call %struct.Memory* @routine_movq_MINUS0x28__rbp____rax(%struct.State* %0, i64  0, %struct.Memory* %loadMem_400e87)
  store %struct.Memory* %call_400e87, %struct.Memory** %MEMORY

  ; Code: movslq -0x38(%rbp), %rcx	 RIP: 400e8b	 Bytes: 4
  %loadMem_400e8b = load %struct.Memory*, %struct.Memory** %MEMORY
  %call_400e8b = call %struct.Memory* @routine_movslq_MINUS0x38__rbp____rcx(%struct.State* %0, i64  0, %struct.Memory* %loadMem_400e8b)
  store %struct.Memory* %call_400e8b, %struct.Memory** %MEMORY

  ; Code: imulq $0x1f40, %rcx, %rcx	 RIP: 400e8f	 Bytes: 7
  %loadMem_400e8f = load %struct.Memory*, %struct.Memory** %MEMORY
  %call_400e8f = call %struct.Memory* @routine_imulq__0x1f40___rcx___rcx(%struct.State* %0, i64  0, %struct.Memory* %loadMem_400e8f)
  store %struct.Memory* %call_400e8f, %struct.Memory** %MEMORY

  ; Code: addq %rcx, %rax	 RIP: 400e96	 Bytes: 3
  %loadMem_400e96 = load %struct.Memory*, %struct.Memory** %MEMORY
  %call_400e96 = call %struct.Memory* @routine_addq__rcx___rax(%struct.State* %0, i64  0, %struct.Memory* %loadMem_400e96)
  store %struct.Memory* %call_400e96, %struct.Memory** %MEMORY

  ; Code: movslq -0x3c(%rbp), %rcx	 RIP: 400e99	 Bytes: 4
  %loadMem_400e99 = load %struct.Memory*, %struct.Memory** %MEMORY
  %call_400e99 = call %struct.Memory* @routine_movslq_MINUS0x3c__rbp____rcx(%struct.State* %0, i64  0, %struct.Memory* %loadMem_400e99)
  store %struct.Memory* %call_400e99, %struct.Memory** %MEMORY

  ; Code: movsd (%rax,%rcx,8), %xmm1	 RIP: 400e9d	 Bytes: 5
  %loadMem_400e9d = load %struct.Memory*, %struct.Memory** %MEMORY
  %call_400e9d = call %struct.Memory* @routine_movsd___rax__rcx_8____xmm1(%struct.State* %0, i64  0, %struct.Memory* %loadMem_400e9d)
  store %struct.Memory* %call_400e9d, %struct.Memory** %MEMORY

  ; Code: movq -0x18(%rbp), %rax	 RIP: 400ea2	 Bytes: 4
  %loadMem_400ea2 = load %struct.Memory*, %struct.Memory** %MEMORY
  %call_400ea2 = call %struct.Memory* @routine_movq_MINUS0x18__rbp____rax(%struct.State* %0, i64  0, %struct.Memory* %loadMem_400ea2)
  store %struct.Memory* %call_400ea2, %struct.Memory** %MEMORY

  ; Code: movslq -0x38(%rbp), %rcx	 RIP: 400ea6	 Bytes: 4
  %loadMem_400ea6 = load %struct.Memory*, %struct.Memory** %MEMORY
  %call_400ea6 = call %struct.Memory* @routine_movslq_MINUS0x38__rbp____rcx(%struct.State* %0, i64  0, %struct.Memory* %loadMem_400ea6)
  store %struct.Memory* %call_400ea6, %struct.Memory** %MEMORY

  ; Code: imulq $0x1f40, %rcx, %rcx	 RIP: 400eaa	 Bytes: 7
  %loadMem_400eaa = load %struct.Memory*, %struct.Memory** %MEMORY
  %call_400eaa = call %struct.Memory* @routine_imulq__0x1f40___rcx___rcx(%struct.State* %0, i64  0, %struct.Memory* %loadMem_400eaa)
  store %struct.Memory* %call_400eaa, %struct.Memory** %MEMORY

  ; Code: addq %rcx, %rax	 RIP: 400eb1	 Bytes: 3
  %loadMem_400eb1 = load %struct.Memory*, %struct.Memory** %MEMORY
  %call_400eb1 = call %struct.Memory* @routine_addq__rcx___rax(%struct.State* %0, i64  0, %struct.Memory* %loadMem_400eb1)
  store %struct.Memory* %call_400eb1, %struct.Memory** %MEMORY

  ; Code: movl -0x3c(%rbp), %edx	 RIP: 400eb4	 Bytes: 3
  %loadMem_400eb4 = load %struct.Memory*, %struct.Memory** %MEMORY
  %call_400eb4 = call %struct.Memory* @routine_movl_MINUS0x3c__rbp____edx(%struct.State* %0, i64  0, %struct.Memory* %loadMem_400eb4)
  store %struct.Memory* %call_400eb4, %struct.Memory** %MEMORY

  ; Code: addl $0x1, %edx	 RIP: 400eb7	 Bytes: 3
  %loadMem_400eb7 = load %struct.Memory*, %struct.Memory** %MEMORY
  %call_400eb7 = call %struct.Memory* @routine_addl__0x1___edx(%struct.State* %0, i64  0, %struct.Memory* %loadMem_400eb7)
  store %struct.Memory* %call_400eb7, %struct.Memory** %MEMORY

  ; Code: movslq %edx, %rcx	 RIP: 400eba	 Bytes: 3
  %loadMem_400eba = load %struct.Memory*, %struct.Memory** %MEMORY
  %call_400eba = call %struct.Memory* @routine_movslq__edx___rcx(%struct.State* %0, i64  0, %struct.Memory* %loadMem_400eba)
  store %struct.Memory* %call_400eba, %struct.Memory** %MEMORY

  ; Code: movsd (%rax,%rcx,8), %xmm2	 RIP: 400ebd	 Bytes: 5
  %loadMem_400ebd = load %struct.Memory*, %struct.Memory** %MEMORY
  %call_400ebd = call %struct.Memory* @routine_movsd___rax__rcx_8____xmm2(%struct.State* %0, i64  0, %struct.Memory* %loadMem_400ebd)
  store %struct.Memory* %call_400ebd, %struct.Memory** %MEMORY

  ; Code: movq -0x18(%rbp), %rax	 RIP: 400ec2	 Bytes: 4
  %loadMem_400ec2 = load %struct.Memory*, %struct.Memory** %MEMORY
  %call_400ec2 = call %struct.Memory* @routine_movq_MINUS0x18__rbp____rax(%struct.State* %0, i64  0, %struct.Memory* %loadMem_400ec2)
  store %struct.Memory* %call_400ec2, %struct.Memory** %MEMORY

  ; Code: movslq -0x38(%rbp), %rcx	 RIP: 400ec6	 Bytes: 4
  %loadMem_400ec6 = load %struct.Memory*, %struct.Memory** %MEMORY
  %call_400ec6 = call %struct.Memory* @routine_movslq_MINUS0x38__rbp____rcx(%struct.State* %0, i64  0, %struct.Memory* %loadMem_400ec6)
  store %struct.Memory* %call_400ec6, %struct.Memory** %MEMORY

  ; Code: imulq $0x1f40, %rcx, %rcx	 RIP: 400eca	 Bytes: 7
  %loadMem_400eca = load %struct.Memory*, %struct.Memory** %MEMORY
  %call_400eca = call %struct.Memory* @routine_imulq__0x1f40___rcx___rcx(%struct.State* %0, i64  0, %struct.Memory* %loadMem_400eca)
  store %struct.Memory* %call_400eca, %struct.Memory** %MEMORY

  ; Code: addq %rcx, %rax	 RIP: 400ed1	 Bytes: 3
  %loadMem_400ed1 = load %struct.Memory*, %struct.Memory** %MEMORY
  %call_400ed1 = call %struct.Memory* @routine_addq__rcx___rax(%struct.State* %0, i64  0, %struct.Memory* %loadMem_400ed1)
  store %struct.Memory* %call_400ed1, %struct.Memory** %MEMORY

  ; Code: movslq -0x3c(%rbp), %rcx	 RIP: 400ed4	 Bytes: 4
  %loadMem_400ed4 = load %struct.Memory*, %struct.Memory** %MEMORY
  %call_400ed4 = call %struct.Memory* @routine_movslq_MINUS0x3c__rbp____rcx(%struct.State* %0, i64  0, %struct.Memory* %loadMem_400ed4)
  store %struct.Memory* %call_400ed4, %struct.Memory** %MEMORY

  ; Code: subsd (%rax,%rcx,8), %xmm2	 RIP: 400ed8	 Bytes: 5
  %loadMem_400ed8 = load %struct.Memory*, %struct.Memory** %MEMORY
  %call_400ed8 = call %struct.Memory* @routine_subsd___rax__rcx_8____xmm2(%struct.State* %0, i64  0, %struct.Memory* %loadMem_400ed8)
  store %struct.Memory* %call_400ed8, %struct.Memory** %MEMORY

  ; Code: movq -0x20(%rbp), %rax	 RIP: 400edd	 Bytes: 4
  %loadMem_400edd = load %struct.Memory*, %struct.Memory** %MEMORY
  %call_400edd = call %struct.Memory* @routine_movq_MINUS0x20__rbp____rax(%struct.State* %0, i64  0, %struct.Memory* %loadMem_400edd)
  store %struct.Memory* %call_400edd, %struct.Memory** %MEMORY

  ; Code: movl -0x38(%rbp), %edx	 RIP: 400ee1	 Bytes: 3
  %loadMem_400ee1 = load %struct.Memory*, %struct.Memory** %MEMORY
  %call_400ee1 = call %struct.Memory* @routine_movl_MINUS0x38__rbp____edx(%struct.State* %0, i64  0, %struct.Memory* %loadMem_400ee1)
  store %struct.Memory* %call_400ee1, %struct.Memory** %MEMORY

  ; Code: addl $0x1, %edx	 RIP: 400ee4	 Bytes: 3
  %loadMem_400ee4 = load %struct.Memory*, %struct.Memory** %MEMORY
  %call_400ee4 = call %struct.Memory* @routine_addl__0x1___edx(%struct.State* %0, i64  0, %struct.Memory* %loadMem_400ee4)
  store %struct.Memory* %call_400ee4, %struct.Memory** %MEMORY

  ; Code: movslq %edx, %rcx	 RIP: 400ee7	 Bytes: 3
  %loadMem_400ee7 = load %struct.Memory*, %struct.Memory** %MEMORY
  %call_400ee7 = call %struct.Memory* @routine_movslq__edx___rcx(%struct.State* %0, i64  0, %struct.Memory* %loadMem_400ee7)
  store %struct.Memory* %call_400ee7, %struct.Memory** %MEMORY

  ; Code: imulq $0x1f40, %rcx, %rcx	 RIP: 400eea	 Bytes: 7
  %loadMem_400eea = load %struct.Memory*, %struct.Memory** %MEMORY
  %call_400eea = call %struct.Memory* @routine_imulq__0x1f40___rcx___rcx(%struct.State* %0, i64  0, %struct.Memory* %loadMem_400eea)
  store %struct.Memory* %call_400eea, %struct.Memory** %MEMORY

  ; Code: addq %rcx, %rax	 RIP: 400ef1	 Bytes: 3
  %loadMem_400ef1 = load %struct.Memory*, %struct.Memory** %MEMORY
  %call_400ef1 = call %struct.Memory* @routine_addq__rcx___rax(%struct.State* %0, i64  0, %struct.Memory* %loadMem_400ef1)
  store %struct.Memory* %call_400ef1, %struct.Memory** %MEMORY

  ; Code: movslq -0x3c(%rbp), %rcx	 RIP: 400ef4	 Bytes: 4
  %loadMem_400ef4 = load %struct.Memory*, %struct.Memory** %MEMORY
  %call_400ef4 = call %struct.Memory* @routine_movslq_MINUS0x3c__rbp____rcx(%struct.State* %0, i64  0, %struct.Memory* %loadMem_400ef4)
  store %struct.Memory* %call_400ef4, %struct.Memory** %MEMORY

  ; Code: addsd (%rax,%rcx,8), %xmm2	 RIP: 400ef8	 Bytes: 5
  %loadMem_400ef8 = load %struct.Memory*, %struct.Memory** %MEMORY
  %call_400ef8 = call %struct.Memory* @routine_addsd___rax__rcx_8____xmm2(%struct.State* %0, i64  0, %struct.Memory* %loadMem_400ef8)
  store %struct.Memory* %call_400ef8, %struct.Memory** %MEMORY

  ; Code: movq -0x20(%rbp), %rax	 RIP: 400efd	 Bytes: 4
  %loadMem_400efd = load %struct.Memory*, %struct.Memory** %MEMORY
  %call_400efd = call %struct.Memory* @routine_movq_MINUS0x20__rbp____rax(%struct.State* %0, i64  0, %struct.Memory* %loadMem_400efd)
  store %struct.Memory* %call_400efd, %struct.Memory** %MEMORY

  ; Code: movslq -0x38(%rbp), %rcx	 RIP: 400f01	 Bytes: 4
  %loadMem_400f01 = load %struct.Memory*, %struct.Memory** %MEMORY
  %call_400f01 = call %struct.Memory* @routine_movslq_MINUS0x38__rbp____rcx(%struct.State* %0, i64  0, %struct.Memory* %loadMem_400f01)
  store %struct.Memory* %call_400f01, %struct.Memory** %MEMORY

  ; Code: imulq $0x1f40, %rcx, %rcx	 RIP: 400f05	 Bytes: 7
  %loadMem_400f05 = load %struct.Memory*, %struct.Memory** %MEMORY
  %call_400f05 = call %struct.Memory* @routine_imulq__0x1f40___rcx___rcx(%struct.State* %0, i64  0, %struct.Memory* %loadMem_400f05)
  store %struct.Memory* %call_400f05, %struct.Memory** %MEMORY

  ; Code: addq %rcx, %rax	 RIP: 400f0c	 Bytes: 3
  %loadMem_400f0c = load %struct.Memory*, %struct.Memory** %MEMORY
  %call_400f0c = call %struct.Memory* @routine_addq__rcx___rax(%struct.State* %0, i64  0, %struct.Memory* %loadMem_400f0c)
  store %struct.Memory* %call_400f0c, %struct.Memory** %MEMORY

  ; Code: movslq -0x3c(%rbp), %rcx	 RIP: 400f0f	 Bytes: 4
  %loadMem_400f0f = load %struct.Memory*, %struct.Memory** %MEMORY
  %call_400f0f = call %struct.Memory* @routine_movslq_MINUS0x3c__rbp____rcx(%struct.State* %0, i64  0, %struct.Memory* %loadMem_400f0f)
  store %struct.Memory* %call_400f0f, %struct.Memory** %MEMORY

  ; Code: subsd (%rax,%rcx,8), %xmm2	 RIP: 400f13	 Bytes: 5
  %loadMem_400f13 = load %struct.Memory*, %struct.Memory** %MEMORY
  %call_400f13 = call %struct.Memory* @routine_subsd___rax__rcx_8____xmm2(%struct.State* %0, i64  0, %struct.Memory* %loadMem_400f13)
  store %struct.Memory* %call_400f13, %struct.Memory** %MEMORY

  ; Code: mulsd %xmm2, %xmm0	 RIP: 400f18	 Bytes: 4
  %loadMem_400f18 = load %struct.Memory*, %struct.Memory** %MEMORY
  %call_400f18 = call %struct.Memory* @routine_mulsd__xmm2___xmm0(%struct.State* %0, i64  0, %struct.Memory* %loadMem_400f18)
  store %struct.Memory* %call_400f18, %struct.Memory** %MEMORY

  ; Code: subsd %xmm0, %xmm1	 RIP: 400f1c	 Bytes: 4
  %loadMem_400f1c = load %struct.Memory*, %struct.Memory** %MEMORY
  %call_400f1c = call %struct.Memory* @routine_subsd__xmm0___xmm1(%struct.State* %0, i64  0, %struct.Memory* %loadMem_400f1c)
  store %struct.Memory* %call_400f1c, %struct.Memory** %MEMORY

  ; Code: movq -0x28(%rbp), %rax	 RIP: 400f20	 Bytes: 4
  %loadMem_400f20 = load %struct.Memory*, %struct.Memory** %MEMORY
  %call_400f20 = call %struct.Memory* @routine_movq_MINUS0x28__rbp____rax(%struct.State* %0, i64  0, %struct.Memory* %loadMem_400f20)
  store %struct.Memory* %call_400f20, %struct.Memory** %MEMORY

  ; Code: movslq -0x38(%rbp), %rcx	 RIP: 400f24	 Bytes: 4
  %loadMem_400f24 = load %struct.Memory*, %struct.Memory** %MEMORY
  %call_400f24 = call %struct.Memory* @routine_movslq_MINUS0x38__rbp____rcx(%struct.State* %0, i64  0, %struct.Memory* %loadMem_400f24)
  store %struct.Memory* %call_400f24, %struct.Memory** %MEMORY

  ; Code: imulq $0x1f40, %rcx, %rcx	 RIP: 400f28	 Bytes: 7
  %loadMem_400f28 = load %struct.Memory*, %struct.Memory** %MEMORY
  %call_400f28 = call %struct.Memory* @routine_imulq__0x1f40___rcx___rcx(%struct.State* %0, i64  0, %struct.Memory* %loadMem_400f28)
  store %struct.Memory* %call_400f28, %struct.Memory** %MEMORY

  ; Code: addq %rcx, %rax	 RIP: 400f2f	 Bytes: 3
  %loadMem_400f2f = load %struct.Memory*, %struct.Memory** %MEMORY
  %call_400f2f = call %struct.Memory* @routine_addq__rcx___rax(%struct.State* %0, i64  0, %struct.Memory* %loadMem_400f2f)
  store %struct.Memory* %call_400f2f, %struct.Memory** %MEMORY

  ; Code: movslq -0x3c(%rbp), %rcx	 RIP: 400f32	 Bytes: 4
  %loadMem_400f32 = load %struct.Memory*, %struct.Memory** %MEMORY
  %call_400f32 = call %struct.Memory* @routine_movslq_MINUS0x3c__rbp____rcx(%struct.State* %0, i64  0, %struct.Memory* %loadMem_400f32)
  store %struct.Memory* %call_400f32, %struct.Memory** %MEMORY

  ; Code: movsd %xmm1, (%rax,%rcx,8)	 RIP: 400f36	 Bytes: 5
  %loadMem_400f36 = load %struct.Memory*, %struct.Memory** %MEMORY
  %call_400f36 = call %struct.Memory* @routine_movsd__xmm1____rax__rcx_8_(%struct.State* %0, i64  0, %struct.Memory* %loadMem_400f36)
  store %struct.Memory* %call_400f36, %struct.Memory** %MEMORY

  ; Code: movl -0x3c(%rbp), %eax	 RIP: 400f3b	 Bytes: 3
  %loadMem_400f3b = load %struct.Memory*, %struct.Memory** %MEMORY
  %call_400f3b = call %struct.Memory* @routine_movl_MINUS0x3c__rbp____eax(%struct.State* %0, i64  0, %struct.Memory* %loadMem_400f3b)
  store %struct.Memory* %call_400f3b, %struct.Memory** %MEMORY

  ; Code: addl $0x1, %eax	 RIP: 400f3e	 Bytes: 3
  %loadMem_400f3e = load %struct.Memory*, %struct.Memory** %MEMORY
  %call_400f3e = call %struct.Memory* @routine_addl__0x1___eax(%struct.State* %0, i64  0, %struct.Memory* %loadMem_400f3e)
  store %struct.Memory* %call_400f3e, %struct.Memory** %MEMORY

  ; Code: movl %eax, -0x3c(%rbp)	 RIP: 400f41	 Bytes: 3
  %loadMem_400f41 = load %struct.Memory*, %struct.Memory** %MEMORY
  %call_400f41 = call %struct.Memory* @routine_movl__eax__MINUS0x3c__rbp_(%struct.State* %0, i64  0, %struct.Memory* %loadMem_400f41)
  store %struct.Memory* %call_400f41, %struct.Memory** %MEMORY

  ; Code: jmpq .L_400e6e	 RIP: 400f44	 Bytes: 5
  %loadMem_400f44 = load %struct.Memory*, %struct.Memory** %MEMORY
  %call_400f44 = call %struct.Memory* @routine_jmpq_.L_400e6e(%struct.State* %0, i64  0, %struct.Memory* %loadMem_400f44, i64 -214, i64 5)
  store %struct.Memory* %call_400f44, %struct.Memory** %MEMORY

  br label %block_.L_400e6e

  ; Code: .L_400f49:	 RIP: 400f49	 Bytes: 0
block_.L_400f49:

  ; Code: jmpq .L_400f4e	 RIP: 400f49	 Bytes: 5
  %loadMem_400f49 = load %struct.Memory*, %struct.Memory** %MEMORY
  %call_400f49 = call %struct.Memory* @routine_jmpq_.L_400f4e(%struct.State* %0, i64  0, %struct.Memory* %loadMem_400f49, i64 5, i64 5)
  store %struct.Memory* %call_400f49, %struct.Memory** %MEMORY

  br label %block_.L_400f4e

  ; Code: .L_400f4e:	 RIP: 400f4e	 Bytes: 0
block_.L_400f4e:

  ; Code: movl -0x38(%rbp), %eax	 RIP: 400f4e	 Bytes: 3
  %loadMem_400f4e = load %struct.Memory*, %struct.Memory** %MEMORY
  %call_400f4e = call %struct.Memory* @routine_movl_MINUS0x38__rbp____eax(%struct.State* %0, i64  0, %struct.Memory* %loadMem_400f4e)
  store %struct.Memory* %call_400f4e, %struct.Memory** %MEMORY

  ; Code: addl $0x1, %eax	 RIP: 400f51	 Bytes: 3
  %loadMem_400f51 = load %struct.Memory*, %struct.Memory** %MEMORY
  %call_400f51 = call %struct.Memory* @routine_addl__0x1___eax(%struct.State* %0, i64  0, %struct.Memory* %loadMem_400f51)
  store %struct.Memory* %call_400f51, %struct.Memory** %MEMORY

  ; Code: movl %eax, -0x38(%rbp)	 RIP: 400f54	 Bytes: 3
  %loadMem_400f54 = load %struct.Memory*, %struct.Memory** %MEMORY
  %call_400f54 = call %struct.Memory* @routine_movl__eax__MINUS0x38__rbp_(%struct.State* %0, i64  0, %struct.Memory* %loadMem_400f54)
  store %struct.Memory* %call_400f54, %struct.Memory** %MEMORY

  ; Code: jmpq .L_400e56	 RIP: 400f57	 Bytes: 5
  %loadMem_400f57 = load %struct.Memory*, %struct.Memory** %MEMORY
  %call_400f57 = call %struct.Memory* @routine_jmpq_.L_400e56(%struct.State* %0, i64  0, %struct.Memory* %loadMem_400f57, i64 -257, i64 5)
  store %struct.Memory* %call_400f57, %struct.Memory** %MEMORY

  br label %block_.L_400e56

  ; Code: .L_400f5c:	 RIP: 400f5c	 Bytes: 0
block_.L_400f5c:

  ; Code: jmpq .L_400f61	 RIP: 400f5c	 Bytes: 5
  %loadMem_400f5c = load %struct.Memory*, %struct.Memory** %MEMORY
  %call_400f5c = call %struct.Memory* @routine_jmpq_.L_400f61(%struct.State* %0, i64  0, %struct.Memory* %loadMem_400f5c, i64 5, i64 5)
  store %struct.Memory* %call_400f5c, %struct.Memory** %MEMORY

  br label %block_.L_400f61

  ; Code: .L_400f61:	 RIP: 400f61	 Bytes: 0
block_.L_400f61:

  ; Code: movl -0x34(%rbp), %eax	 RIP: 400f61	 Bytes: 3
  %loadMem_400f61 = load %struct.Memory*, %struct.Memory** %MEMORY
  %call_400f61 = call %struct.Memory* @routine_movl_MINUS0x34__rbp____eax(%struct.State* %0, i64  0, %struct.Memory* %loadMem_400f61)
  store %struct.Memory* %call_400f61, %struct.Memory** %MEMORY

  ; Code: addl $0x1, %eax	 RIP: 400f64	 Bytes: 3
  %loadMem_400f64 = load %struct.Memory*, %struct.Memory** %MEMORY
  %call_400f64 = call %struct.Memory* @routine_addl__0x1___eax(%struct.State* %0, i64  0, %struct.Memory* %loadMem_400f64)
  store %struct.Memory* %call_400f64, %struct.Memory** %MEMORY

  ; Code: movl %eax, -0x34(%rbp)	 RIP: 400f67	 Bytes: 3
  %loadMem_400f67 = load %struct.Memory*, %struct.Memory** %MEMORY
  %call_400f67 = call %struct.Memory* @routine_movl__eax__MINUS0x34__rbp_(%struct.State* %0, i64  0, %struct.Memory* %loadMem_400f67)
  store %struct.Memory* %call_400f67, %struct.Memory** %MEMORY

  ; Code: jmpq .L_400c78	 RIP: 400f6a	 Bytes: 5
  %loadMem_400f6a = load %struct.Memory*, %struct.Memory** %MEMORY
  %call_400f6a = call %struct.Memory* @routine_jmpq_.L_400c78(%struct.State* %0, i64  0, %struct.Memory* %loadMem_400f6a, i64 -754, i64 5)
  store %struct.Memory* %call_400f6a, %struct.Memory** %MEMORY

  br label %block_.L_400c78

  ; Code: .L_400f6f:	 RIP: 400f6f	 Bytes: 0
block_.L_400f6f:

  ; Code: popq %rbp	 RIP: 400f6f	 Bytes: 1
  %loadMem_400f6f = load %struct.Memory*, %struct.Memory** %MEMORY
  %call_400f6f = call %struct.Memory* @routine_popq__rbp(%struct.State* %0, i64  0, %struct.Memory* %loadMem_400f6f)
  store %struct.Memory* %call_400f6f, %struct.Memory** %MEMORY

  ; Code: retq	 RIP: 400f70	 Bytes: 1
  %loadMem_400f70 = load %struct.Memory*, %struct.Memory** %MEMORY
  %call_400f70 = call %struct.Memory* @routine_retq(%struct.State* %0, i64  0, %struct.Memory* %loadMem_400f70)
  store %struct.Memory* %call_400f70, %struct.Memory** %MEMORY

  ret %struct.Memory* %call_400f70
}

define internal %struct.Memory* @_ZN12_GLOBAL__N_1L4PUSHI2InImEEEP6MemoryS4_R5StateT_(%struct.Memory*, %struct.State* nocapture dereferenceable(3376), i64) #0 {
  %4 = getelementptr inbounds %struct.State, %struct.State* %1, i64 0, i32 6, i32 13, i32 0, i32 0
  %5 = load i64, i64* %4, align 8
  %6 = add i64 %5, -8
  %7 = inttoptr i64 %6 to i64*
  store i64 %2, i64* %7
  store i64 %6, i64* %4, align 8
  ret %struct.Memory* %0
}

define %struct.Memory* @routine_pushq__rbp(%struct.State*  dereferenceable(3376), i64, %struct.Memory* ) #19 {
block_400488:
  %3 = getelementptr inbounds %struct.State, %struct.State* %0, i32 0, i32 6
  %4 = getelementptr inbounds %struct.GPR, %struct.GPR* %3, i32 0, i32 33
  %5 = getelementptr inbounds %struct.Reg, %struct.Reg* %4, i32 0, i32 0
  %PC = bitcast %union.anon* %5 to i64*
  %6 = getelementptr inbounds %struct.State, %struct.State* %0, i32 0, i32 6
  %7 = getelementptr inbounds %struct.GPR, %struct.GPR* %6, i32 0, i32 15
  %8 = getelementptr inbounds %struct.Reg, %struct.Reg* %7, i32 0, i32 0
  %RBP = bitcast %union.anon* %8 to i64*
  %9 = load i64, i64* %RBP
  %10 = load i64, i64* %PC
  %11 = add i64 %10, 1
  store i64 %11, i64* %PC
  %12 = call %struct.Memory* @_ZN12_GLOBAL__N_1L4PUSHI2InImEEEP6MemoryS4_R5StateT_(%struct.Memory* %2, %struct.State* %0, i64 %9)
  ret %struct.Memory* %12
}

define internal %struct.Memory* @_ZN12_GLOBAL__N_1L3MOVI3RnWImE2RnImEEEP6MemoryS6_R5StateT_T0_(%struct.Memory* readnone returned, %struct.State* nocapture readnone dereferenceable(3376), i64* nocapture, i64) #2 {
  store i64 %3, i64* %2, align 8
  ret %struct.Memory* %0
}

define %struct.Memory* @routine_movq__rsp___rbp(%struct.State*  dereferenceable(3376), i64, %struct.Memory* ) #19 {
block_400488:
  %3 = getelementptr inbounds %struct.State, %struct.State* %0, i32 0, i32 6
  %4 = getelementptr inbounds %struct.GPR, %struct.GPR* %3, i32 0, i32 33
  %5 = getelementptr inbounds %struct.Reg, %struct.Reg* %4, i32 0, i32 0
  %PC = bitcast %union.anon* %5 to i64*
  %6 = getelementptr inbounds %struct.State, %struct.State* %0, i32 0, i32 6
  %7 = getelementptr inbounds %struct.GPR, %struct.GPR* %6, i32 0, i32 13
  %8 = getelementptr inbounds %struct.Reg, %struct.Reg* %7, i32 0, i32 0
  %RSP = bitcast %union.anon* %8 to i64*
  %9 = getelementptr inbounds %struct.State, %struct.State* %0, i32 0, i32 6
  %10 = getelementptr inbounds %struct.GPR, %struct.GPR* %9, i32 0, i32 15
  %11 = getelementptr inbounds %struct.Reg, %struct.Reg* %10, i32 0, i32 0
  %RBP = bitcast %union.anon* %11 to i64*
  %12 = load i64, i64* %RSP
  %13 = load i64, i64* %PC
  %14 = add i64 %13, 3
  store i64 %14, i64* %PC
  %15 = call %struct.Memory* @_ZN12_GLOBAL__N_1L3MOVI3RnWImE2RnImEEEP6MemoryS6_R5StateT_T0_(%struct.Memory* %2, %struct.State* %0, i64* %RBP, i64 %12)
  ret %struct.Memory* %15
}

define internal %struct.Memory* @_ZN12_GLOBAL__N_1L3MOVI3RnWImE2MnImEEEP6MemoryS6_R5StateT_T0_(%struct.Memory* returned, %struct.State* nocapture readnone dereferenceable(3376), i64* nocapture, i64) #0 {
  %5 = inttoptr i64 %3 to i64*
  %6 = load i64, i64* %5
  store i64 %6, i64* %2, align 8
  ret %struct.Memory* %0
}

define %struct.Memory* @routine_movq_0x10__rbp____rax(%struct.State*  dereferenceable(3376), i64, %struct.Memory* ) #19 {
block_400488:
  %3 = getelementptr inbounds %struct.State, %struct.State* %0, i32 0, i32 6
  %4 = getelementptr inbounds %struct.GPR, %struct.GPR* %3, i32 0, i32 33
  %5 = getelementptr inbounds %struct.Reg, %struct.Reg* %4, i32 0, i32 0
  %PC = bitcast %union.anon* %5 to i64*
  %6 = getelementptr inbounds %struct.State, %struct.State* %0, i32 0, i32 6
  %7 = getelementptr inbounds %struct.GPR, %struct.GPR* %6, i32 0, i32 1
  %8 = getelementptr inbounds %struct.Reg, %struct.Reg* %7, i32 0, i32 0
  %RAX = bitcast %union.anon* %8 to i64*
  %9 = getelementptr inbounds %struct.State, %struct.State* %0, i32 0, i32 6
  %10 = getelementptr inbounds %struct.GPR, %struct.GPR* %9, i32 0, i32 15
  %11 = getelementptr inbounds %struct.Reg, %struct.Reg* %10, i32 0, i32 0
  %RBP = bitcast %union.anon* %11 to i64*
  %12 = load i64, i64* %RBP
  %13 = add i64 %12, 16
  %14 = load i64, i64* %PC
  %15 = add i64 %14, 4
  store i64 %15, i64* %PC
  %16 = call %struct.Memory* @_ZN12_GLOBAL__N_1L3MOVI3RnWImE2MnImEEEP6MemoryS6_R5StateT_T0_(%struct.Memory* %2, %struct.State* %0, i64* %RAX, i64 %13)
  ret %struct.Memory* %16
}

define internal %struct.Memory* @_ZN12_GLOBAL__N_1L3MOVI3MnWIjE2RnIjEEEP6MemoryS6_R5StateT_T0_(%struct.Memory* readnone, %struct.State* nocapture readnone dereferenceable(3376), i64, i64) #8 {
  %5 = trunc i64 %3 to i32
  %6 = inttoptr i64 %2 to i32*
  store i32 %5, i32* %6
  ret %struct.Memory* %0
}

define %struct.Memory* @routine_movl__edi__MINUS0x4__rbp_(%struct.State*  dereferenceable(3376), i64, %struct.Memory* ) #19 {
block_400488:
  %3 = getelementptr inbounds %struct.State, %struct.State* %0, i32 0, i32 6
  %4 = getelementptr inbounds %struct.GPR, %struct.GPR* %3, i32 0, i32 33
  %5 = getelementptr inbounds %struct.Reg, %struct.Reg* %4, i32 0, i32 0
  %PC = bitcast %union.anon* %5 to i64*
  %6 = getelementptr inbounds %struct.State, %struct.State* %0, i32 0, i32 6
  %7 = getelementptr inbounds %struct.GPR, %struct.GPR* %6, i32 0, i32 11
  %8 = getelementptr inbounds %struct.Reg, %struct.Reg* %7, i32 0, i32 0
  %EDI = bitcast %union.anon* %8 to i32*
  %9 = getelementptr inbounds %struct.State, %struct.State* %0, i32 0, i32 6
  %10 = getelementptr inbounds %struct.GPR, %struct.GPR* %9, i32 0, i32 15
  %11 = getelementptr inbounds %struct.Reg, %struct.Reg* %10, i32 0, i32 0
  %RBP = bitcast %union.anon* %11 to i64*
  %12 = load i64, i64* %RBP
  %13 = sub i64 %12, 4
  %14 = load i32, i32* %EDI
  %15 = zext i32 %14 to i64
  %16 = load i64, i64* %PC
  %17 = add i64 %16, 3
  store i64 %17, i64* %PC
  %18 = call %struct.Memory* @_ZN12_GLOBAL__N_1L3MOVI3MnWIjE2RnIjEEEP6MemoryS6_R5StateT_T0_(%struct.Memory* %2, %struct.State* %0, i64 %13, i64 %15)
  ret %struct.Memory* %18
}


define %struct.Memory* @routine_movl__esi__MINUS0x8__rbp_(%struct.State*  dereferenceable(3376), i64, %struct.Memory* ) #19 {
block_400488:
  %3 = getelementptr inbounds %struct.State, %struct.State* %0, i32 0, i32 6
  %4 = getelementptr inbounds %struct.GPR, %struct.GPR* %3, i32 0, i32 33
  %5 = getelementptr inbounds %struct.Reg, %struct.Reg* %4, i32 0, i32 0
  %PC = bitcast %union.anon* %5 to i64*
  %6 = getelementptr inbounds %struct.State, %struct.State* %0, i32 0, i32 6
  %7 = getelementptr inbounds %struct.GPR, %struct.GPR* %6, i32 0, i32 9
  %8 = getelementptr inbounds %struct.Reg, %struct.Reg* %7, i32 0, i32 0
  %ESI = bitcast %union.anon* %8 to i32*
  %9 = getelementptr inbounds %struct.State, %struct.State* %0, i32 0, i32 6
  %10 = getelementptr inbounds %struct.GPR, %struct.GPR* %9, i32 0, i32 15
  %11 = getelementptr inbounds %struct.Reg, %struct.Reg* %10, i32 0, i32 0
  %RBP = bitcast %union.anon* %11 to i64*
  %12 = load i64, i64* %RBP
  %13 = sub i64 %12, 8
  %14 = load i32, i32* %ESI
  %15 = zext i32 %14 to i64
  %16 = load i64, i64* %PC
  %17 = add i64 %16, 3
  store i64 %17, i64* %PC
  %18 = call %struct.Memory* @_ZN12_GLOBAL__N_1L3MOVI3MnWIjE2RnIjEEEP6MemoryS6_R5StateT_T0_(%struct.Memory* %2, %struct.State* %0, i64 %13, i64 %15)
  ret %struct.Memory* %18
}


define %struct.Memory* @routine_movl__edx__MINUS0xc__rbp_(%struct.State*  dereferenceable(3376), i64, %struct.Memory* ) #19 {
block_400488:
  %3 = getelementptr inbounds %struct.State, %struct.State* %0, i32 0, i32 6
  %4 = getelementptr inbounds %struct.GPR, %struct.GPR* %3, i32 0, i32 33
  %5 = getelementptr inbounds %struct.Reg, %struct.Reg* %4, i32 0, i32 0
  %PC = bitcast %union.anon* %5 to i64*
  %6 = getelementptr inbounds %struct.State, %struct.State* %0, i32 0, i32 6
  %7 = getelementptr inbounds %struct.GPR, %struct.GPR* %6, i32 0, i32 7
  %8 = getelementptr inbounds %struct.Reg, %struct.Reg* %7, i32 0, i32 0
  %EDX = bitcast %union.anon* %8 to i32*
  %9 = getelementptr inbounds %struct.State, %struct.State* %0, i32 0, i32 6
  %10 = getelementptr inbounds %struct.GPR, %struct.GPR* %9, i32 0, i32 15
  %11 = getelementptr inbounds %struct.Reg, %struct.Reg* %10, i32 0, i32 0
  %RBP = bitcast %union.anon* %11 to i64*
  %12 = load i64, i64* %RBP
  %13 = sub i64 %12, 12
  %14 = load i32, i32* %EDX
  %15 = zext i32 %14 to i64
  %16 = load i64, i64* %PC
  %17 = add i64 %16, 3
  store i64 %17, i64* %PC
  %18 = call %struct.Memory* @_ZN12_GLOBAL__N_1L3MOVI3MnWIjE2RnIjEEEP6MemoryS6_R5StateT_T0_(%struct.Memory* %2, %struct.State* %0, i64 %13, i64 %15)
  ret %struct.Memory* %18
}

define internal %struct.Memory* @_ZN12_GLOBAL__N_1L3MOVI3MnWImE2RnImEEEP6MemoryS6_R5StateT_T0_(%struct.Memory* readnone, %struct.State* nocapture readnone dereferenceable(3376), i64, i64) #8 {
  %5 = inttoptr i64 %2 to i64*
  store i64 %3, i64* %5
  ret %struct.Memory* %0
}

define %struct.Memory* @routine_movq__rcx__MINUS0x18__rbp_(%struct.State*  dereferenceable(3376), i64, %struct.Memory* ) #19 {
block_400488:
  %3 = getelementptr inbounds %struct.State, %struct.State* %0, i32 0, i32 6
  %4 = getelementptr inbounds %struct.GPR, %struct.GPR* %3, i32 0, i32 33
  %5 = getelementptr inbounds %struct.Reg, %struct.Reg* %4, i32 0, i32 0
  %PC = bitcast %union.anon* %5 to i64*
  %6 = getelementptr inbounds %struct.State, %struct.State* %0, i32 0, i32 6
  %7 = getelementptr inbounds %struct.GPR, %struct.GPR* %6, i32 0, i32 5
  %8 = getelementptr inbounds %struct.Reg, %struct.Reg* %7, i32 0, i32 0
  %RCX = bitcast %union.anon* %8 to i64*
  %9 = getelementptr inbounds %struct.State, %struct.State* %0, i32 0, i32 6
  %10 = getelementptr inbounds %struct.GPR, %struct.GPR* %9, i32 0, i32 15
  %11 = getelementptr inbounds %struct.Reg, %struct.Reg* %10, i32 0, i32 0
  %RBP = bitcast %union.anon* %11 to i64*
  %12 = load i64, i64* %RBP
  %13 = sub i64 %12, 24
  %14 = load i64, i64* %RCX
  %15 = load i64, i64* %PC
  %16 = add i64 %15, 4
  store i64 %16, i64* %PC
  %17 = call %struct.Memory* @_ZN12_GLOBAL__N_1L3MOVI3MnWImE2RnImEEEP6MemoryS6_R5StateT_T0_(%struct.Memory* %2, %struct.State* %0, i64 %13, i64 %14)
  ret %struct.Memory* %17
}


define %struct.Memory* @routine_movq__r8__MINUS0x20__rbp_(%struct.State*  dereferenceable(3376), i64, %struct.Memory* ) #19 {
block_400488:
  %3 = getelementptr inbounds %struct.State, %struct.State* %0, i32 0, i32 6
  %4 = getelementptr inbounds %struct.GPR, %struct.GPR* %3, i32 0, i32 33
  %5 = getelementptr inbounds %struct.Reg, %struct.Reg* %4, i32 0, i32 0
  %PC = bitcast %union.anon* %5 to i64*
  %6 = getelementptr inbounds %struct.State, %struct.State* %0, i32 0, i32 6
  %7 = getelementptr inbounds %struct.GPR, %struct.GPR* %6, i32 0, i32 15
  %8 = getelementptr inbounds %struct.Reg, %struct.Reg* %7, i32 0, i32 0
  %RBP = bitcast %union.anon* %8 to i64*
  %9 = getelementptr inbounds %struct.State, %struct.State* %0, i32 0, i32 6
  %10 = getelementptr inbounds %struct.GPR, %struct.GPR* %9, i32 0, i32 17
  %11 = getelementptr inbounds %struct.Reg, %struct.Reg* %10, i32 0, i32 0
  %R8 = bitcast %union.anon* %11 to i64*
  %12 = load i64, i64* %RBP
  %13 = sub i64 %12, 32
  %14 = load i64, i64* %R8
  %15 = load i64, i64* %PC
  %16 = add i64 %15, 4
  store i64 %16, i64* %PC
  %17 = call %struct.Memory* @_ZN12_GLOBAL__N_1L3MOVI3MnWImE2RnImEEEP6MemoryS6_R5StateT_T0_(%struct.Memory* %2, %struct.State* %0, i64 %13, i64 %14)
  ret %struct.Memory* %17
}


define %struct.Memory* @routine_movq__r9__MINUS0x28__rbp_(%struct.State*  dereferenceable(3376), i64, %struct.Memory* ) #19 {
block_400488:
  %3 = getelementptr inbounds %struct.State, %struct.State* %0, i32 0, i32 6
  %4 = getelementptr inbounds %struct.GPR, %struct.GPR* %3, i32 0, i32 33
  %5 = getelementptr inbounds %struct.Reg, %struct.Reg* %4, i32 0, i32 0
  %PC = bitcast %union.anon* %5 to i64*
  %6 = getelementptr inbounds %struct.State, %struct.State* %0, i32 0, i32 6
  %7 = getelementptr inbounds %struct.GPR, %struct.GPR* %6, i32 0, i32 15
  %8 = getelementptr inbounds %struct.Reg, %struct.Reg* %7, i32 0, i32 0
  %RBP = bitcast %union.anon* %8 to i64*
  %9 = getelementptr inbounds %struct.State, %struct.State* %0, i32 0, i32 6
  %10 = getelementptr inbounds %struct.GPR, %struct.GPR* %9, i32 0, i32 19
  %11 = getelementptr inbounds %struct.Reg, %struct.Reg* %10, i32 0, i32 0
  %R9 = bitcast %union.anon* %11 to i64*
  %12 = load i64, i64* %RBP
  %13 = sub i64 %12, 40
  %14 = load i64, i64* %R9
  %15 = load i64, i64* %PC
  %16 = add i64 %15, 4
  store i64 %16, i64* %PC
  %17 = call %struct.Memory* @_ZN12_GLOBAL__N_1L3MOVI3MnWImE2RnImEEEP6MemoryS6_R5StateT_T0_(%struct.Memory* %2, %struct.State* %0, i64 %13, i64 %14)
  ret %struct.Memory* %17
}


define %struct.Memory* @routine_movq__rax__MINUS0x30__rbp_(%struct.State*  dereferenceable(3376), i64, %struct.Memory* ) #19 {
block_400488:
  %3 = getelementptr inbounds %struct.State, %struct.State* %0, i32 0, i32 6
  %4 = getelementptr inbounds %struct.GPR, %struct.GPR* %3, i32 0, i32 33
  %5 = getelementptr inbounds %struct.Reg, %struct.Reg* %4, i32 0, i32 0
  %PC = bitcast %union.anon* %5 to i64*
  %6 = getelementptr inbounds %struct.State, %struct.State* %0, i32 0, i32 6
  %7 = getelementptr inbounds %struct.GPR, %struct.GPR* %6, i32 0, i32 1
  %8 = getelementptr inbounds %struct.Reg, %struct.Reg* %7, i32 0, i32 0
  %RAX = bitcast %union.anon* %8 to i64*
  %9 = getelementptr inbounds %struct.State, %struct.State* %0, i32 0, i32 6
  %10 = getelementptr inbounds %struct.GPR, %struct.GPR* %9, i32 0, i32 15
  %11 = getelementptr inbounds %struct.Reg, %struct.Reg* %10, i32 0, i32 0
  %RBP = bitcast %union.anon* %11 to i64*
  %12 = load i64, i64* %RBP
  %13 = sub i64 %12, 48
  %14 = load i64, i64* %RAX
  %15 = load i64, i64* %PC
  %16 = add i64 %15, 4
  store i64 %16, i64* %PC
  %17 = call %struct.Memory* @_ZN12_GLOBAL__N_1L3MOVI3MnWImE2RnImEEEP6MemoryS6_R5StateT_T0_(%struct.Memory* %2, %struct.State* %0, i64 %13, i64 %14)
  ret %struct.Memory* %17
}

define internal %struct.Memory* @_ZN12_GLOBAL__N_1L3MOVI3MnWIjE2InIjEEEP6MemoryS6_R5StateT_T0_(%struct.Memory* readnone, %struct.State* nocapture readnone dereferenceable(3376), i64, i64) #8 {
  %5 = trunc i64 %3 to i32
  %6 = inttoptr i64 %2 to i32*
  store i32 %5, i32* %6
  ret %struct.Memory* %0
}

define %struct.Memory* @routine_movl__0x0__MINUS0x34__rbp_(%struct.State*  dereferenceable(3376), i64, %struct.Memory* ) #19 {
block_400488:
  %3 = getelementptr inbounds %struct.State, %struct.State* %0, i32 0, i32 6
  %4 = getelementptr inbounds %struct.GPR, %struct.GPR* %3, i32 0, i32 33
  %5 = getelementptr inbounds %struct.Reg, %struct.Reg* %4, i32 0, i32 0
  %PC = bitcast %union.anon* %5 to i64*
  %6 = getelementptr inbounds %struct.State, %struct.State* %0, i32 0, i32 6
  %7 = getelementptr inbounds %struct.GPR, %struct.GPR* %6, i32 0, i32 15
  %8 = getelementptr inbounds %struct.Reg, %struct.Reg* %7, i32 0, i32 0
  %RBP = bitcast %union.anon* %8 to i64*
  %9 = load i64, i64* %RBP
  %10 = sub i64 %9, 52
  %11 = load i64, i64* %PC
  %12 = add i64 %11, 7
  store i64 %12, i64* %PC
  %13 = call %struct.Memory* @_ZN12_GLOBAL__N_1L3MOVI3MnWIjE2InIjEEEP6MemoryS6_R5StateT_T0_(%struct.Memory* %2, %struct.State* %0, i64 %10, i64 0)
  ret %struct.Memory* %13
}

define internal %struct.Memory* @_ZN12_GLOBAL__N_1L3MOVI3RnWImE2MnIjEEEP6MemoryS6_R5StateT_T0_(%struct.Memory* returned, %struct.State* nocapture readnone dereferenceable(3376), i64* nocapture, i64) #0 {
  %5 = inttoptr i64 %3 to i32*
  %6 = load i32, i32* %5
  %7 = zext i32 %6 to i64
  store i64 %7, i64* %2, align 8
  ret %struct.Memory* %0
}

define %struct.Memory* @routine_movl_MINUS0x34__rbp____eax(%struct.State*  dereferenceable(3376), i64, %struct.Memory* ) #19 {
block_400488:
  %3 = getelementptr inbounds %struct.State, %struct.State* %0, i32 0, i32 6
  %4 = getelementptr inbounds %struct.GPR, %struct.GPR* %3, i32 0, i32 33
  %5 = getelementptr inbounds %struct.Reg, %struct.Reg* %4, i32 0, i32 0
  %PC = bitcast %union.anon* %5 to i64*
  %6 = getelementptr inbounds %struct.State, %struct.State* %0, i32 0, i32 6
  %7 = getelementptr inbounds %struct.GPR, %struct.GPR* %6, i32 0, i32 1
  %8 = getelementptr inbounds %struct.Reg, %struct.Reg* %7, i32 0, i32 0
  %RAX = bitcast %union.anon* %8 to i64*
  %9 = getelementptr inbounds %struct.State, %struct.State* %0, i32 0, i32 6
  %10 = getelementptr inbounds %struct.GPR, %struct.GPR* %9, i32 0, i32 15
  %11 = getelementptr inbounds %struct.Reg, %struct.Reg* %10, i32 0, i32 0
  %RBP = bitcast %union.anon* %11 to i64*
  %12 = load i64, i64* %RBP
  %13 = sub i64 %12, 52
  %14 = load i64, i64* %PC
  %15 = add i64 %14, 3
  store i64 %15, i64* %PC
  %16 = call %struct.Memory* @_ZN12_GLOBAL__N_1L3MOVI3RnWImE2MnIjEEEP6MemoryS6_R5StateT_T0_(%struct.Memory* %2, %struct.State* %0, i64* %RAX, i64 %13)
  ret %struct.Memory* %16
}

define internal %struct.Memory* @_ZN12_GLOBAL__N_1L3CMPI2RnIjE2MnIjEEEP6MemoryS6_R5StateT_T0_(%struct.Memory*, %struct.State* nocapture dereferenceable(3376), i64, i64) #0 {
  %5 = trunc i64 %2 to i32
  %6 = inttoptr i64 %3 to i32*
  %7 = load i32, i32* %6
  %8 = sub i32 %5, %7
  %9 = icmp ult i32 %5, %7
  %10 = zext i1 %9 to i8
  %11 = getelementptr inbounds %struct.State, %struct.State* %1, i64 0, i32 2, i32 1
  store i8 %10, i8* %11, align 1
  %12 = and i32 %8, 255
  %13 = tail call i32 @llvm.ctpop.i32(i32 %12) #22
  %14 = trunc i32 %13 to i8
  %15 = and i8 %14, 1
  %16 = xor i8 %15, 1
  %17 = getelementptr inbounds %struct.State, %struct.State* %1, i64 0, i32 2, i32 3
  store i8 %16, i8* %17, align 1
  %18 = xor i32 %7, %5
  %19 = xor i32 %18, %8
  %20 = lshr i32 %19, 4
  %21 = trunc i32 %20 to i8
  %22 = and i8 %21, 1
  %23 = getelementptr inbounds %struct.State, %struct.State* %1, i64 0, i32 2, i32 5
  store i8 %22, i8* %23, align 1
  %24 = icmp eq i32 %8, 0
  %25 = zext i1 %24 to i8
  %26 = getelementptr inbounds %struct.State, %struct.State* %1, i64 0, i32 2, i32 7
  store i8 %25, i8* %26, align 1
  %27 = lshr i32 %8, 31
  %28 = trunc i32 %27 to i8
  %29 = getelementptr inbounds %struct.State, %struct.State* %1, i64 0, i32 2, i32 9
  store i8 %28, i8* %29, align 1
  %30 = lshr i32 %5, 31
  %31 = lshr i32 %7, 31
  %32 = xor i32 %31, %30
  %33 = xor i32 %27, %30
  %34 = add   i32 %33, %32
  %35 = icmp eq i32 %34, 2
  %36 = zext i1 %35 to i8
  %37 = getelementptr inbounds %struct.State, %struct.State* %1, i64 0, i32 2, i32 13
  store i8 %36, i8* %37, align 1
  ret %struct.Memory* %0
}

define %struct.Memory* @routine_cmpl_MINUS0x4__rbp____eax(%struct.State*  dereferenceable(3376), i64, %struct.Memory* ) #19 {
block_400488:
  %3 = getelementptr inbounds %struct.State, %struct.State* %0, i32 0, i32 6
  %4 = getelementptr inbounds %struct.GPR, %struct.GPR* %3, i32 0, i32 33
  %5 = getelementptr inbounds %struct.Reg, %struct.Reg* %4, i32 0, i32 0
  %PC = bitcast %union.anon* %5 to i64*
  %6 = getelementptr inbounds %struct.State, %struct.State* %0, i32 0, i32 6
  %7 = getelementptr inbounds %struct.GPR, %struct.GPR* %6, i32 0, i32 1
  %8 = getelementptr inbounds %struct.Reg, %struct.Reg* %7, i32 0, i32 0
  %EAX = bitcast %union.anon* %8 to i32*
  %9 = getelementptr inbounds %struct.State, %struct.State* %0, i32 0, i32 6
  %10 = getelementptr inbounds %struct.GPR, %struct.GPR* %9, i32 0, i32 15
  %11 = getelementptr inbounds %struct.Reg, %struct.Reg* %10, i32 0, i32 0
  %RBP = bitcast %union.anon* %11 to i64*
  %12 = load i32, i32* %EAX
  %13 = zext i32 %12 to i64
  %14 = load i64, i64* %RBP
  %15 = sub i64 %14, 4
  %16 = load i64, i64* %PC
  %17 = add i64 %16, 3
  store i64 %17, i64* %PC
  %18 = call %struct.Memory* @_ZN12_GLOBAL__N_1L3CMPI2RnIjE2MnIjEEEP6MemoryS6_R5StateT_T0_(%struct.Memory* %2, %struct.State* %0, i64 %13, i64 %15)
  ret %struct.Memory* %18
}

define internal %struct.Memory* @_ZN12_GLOBAL__N_1L3JNLEP6MemoryR5State3RnWIhE2InImES7_(%struct.Memory* readnone returned, %struct.State* nocapture dereferenceable(3376), i8* nocapture, i64, i64) #2 {
  %6 = getelementptr inbounds %struct.State, %struct.State* %1, i64 0, i32 2, i32 9
  %7 = load i8, i8* %6, align 1
  %8 = icmp ne i8 %7, 0
  %9 = getelementptr inbounds %struct.State, %struct.State* %1, i64 0, i32 2, i32 13
  %10 = load i8, i8* %9, align 1
  %11 = icmp ne i8 %10, 0
  %12 = xor i1 %8, %11
  %13 = xor i1 %12, true
  %14 = zext i1 %13 to i8
  store i8 %14, i8* %2, align 1
  %15 = getelementptr inbounds %struct.State, %struct.State* %1, i64 0, i32 6, i32 33, i32 0, i32 0
  %16 = select i1 %12, i64 %4, i64 %3
  store i64 %16, i64* %15, align 8
  ret %struct.Memory* %0
}

define %struct.Memory* @routine_jge_.L_400f6f(%struct.State*  dereferenceable(3376), i64, %struct.Memory*, i8* %BRANCH_TAKEN, i64 %rel_off1, i64 %rel_off2, i64 %rel_off3) {
block_400488:
  %3 = getelementptr inbounds %struct.State, %struct.State* %0, i32 0, i32 6
  %4 = getelementptr inbounds %struct.GPR, %struct.GPR* %3, i32 0, i32 33
  %5 = getelementptr inbounds %struct.Reg, %struct.Reg* %4, i32 0, i32 0
  %PC = bitcast %union.anon* %5 to i64*
  %6 = load i64, i64* %PC
  %7 = add i64 %6, %rel_off1
  %8 = load i64, i64* %PC
  %9 = add i64 %8, %rel_off2
  %10 = load i64, i64* %PC
  %11 = add i64 %10, %rel_off3
  store i64 %11, i64* %PC
  %12 = call %struct.Memory* @_ZN12_GLOBAL__N_1L3JNLEP6MemoryR5State3RnWIhE2InImES7_(%struct.Memory* %2, %struct.State* %0, i8* %BRANCH_TAKEN, i64 %7, i64 %9)
  ret %struct.Memory* %12
}


define %struct.Memory* @routine_movl__0x0__MINUS0x3c__rbp_(%struct.State*  dereferenceable(3376), i64, %struct.Memory* ) #19 {
block_400488:
  %3 = getelementptr inbounds %struct.State, %struct.State* %0, i32 0, i32 6
  %4 = getelementptr inbounds %struct.GPR, %struct.GPR* %3, i32 0, i32 33
  %5 = getelementptr inbounds %struct.Reg, %struct.Reg* %4, i32 0, i32 0
  %PC = bitcast %union.anon* %5 to i64*
  %6 = getelementptr inbounds %struct.State, %struct.State* %0, i32 0, i32 6
  %7 = getelementptr inbounds %struct.GPR, %struct.GPR* %6, i32 0, i32 15
  %8 = getelementptr inbounds %struct.Reg, %struct.Reg* %7, i32 0, i32 0
  %RBP = bitcast %union.anon* %8 to i64*
  %9 = load i64, i64* %RBP
  %10 = sub i64 %9, 60
  %11 = load i64, i64* %PC
  %12 = add i64 %11, 7
  store i64 %12, i64* %PC
  %13 = call %struct.Memory* @_ZN12_GLOBAL__N_1L3MOVI3MnWIjE2InIjEEEP6MemoryS6_R5StateT_T0_(%struct.Memory* %2, %struct.State* %0, i64 %10, i64 0)
  ret %struct.Memory* %13
}


define %struct.Memory* @routine_movl_MINUS0x3c__rbp____eax(%struct.State*  dereferenceable(3376), i64, %struct.Memory* ) #19 {
block_400488:
  %3 = getelementptr inbounds %struct.State, %struct.State* %0, i32 0, i32 6
  %4 = getelementptr inbounds %struct.GPR, %struct.GPR* %3, i32 0, i32 33
  %5 = getelementptr inbounds %struct.Reg, %struct.Reg* %4, i32 0, i32 0
  %PC = bitcast %union.anon* %5 to i64*
  %6 = getelementptr inbounds %struct.State, %struct.State* %0, i32 0, i32 6
  %7 = getelementptr inbounds %struct.GPR, %struct.GPR* %6, i32 0, i32 1
  %8 = getelementptr inbounds %struct.Reg, %struct.Reg* %7, i32 0, i32 0
  %RAX = bitcast %union.anon* %8 to i64*
  %9 = getelementptr inbounds %struct.State, %struct.State* %0, i32 0, i32 6
  %10 = getelementptr inbounds %struct.GPR, %struct.GPR* %9, i32 0, i32 15
  %11 = getelementptr inbounds %struct.Reg, %struct.Reg* %10, i32 0, i32 0
  %RBP = bitcast %union.anon* %11 to i64*
  %12 = load i64, i64* %RBP
  %13 = sub i64 %12, 60
  %14 = load i64, i64* %PC
  %15 = add i64 %14, 3
  store i64 %15, i64* %PC
  %16 = call %struct.Memory* @_ZN12_GLOBAL__N_1L3MOVI3RnWImE2MnIjEEEP6MemoryS6_R5StateT_T0_(%struct.Memory* %2, %struct.State* %0, i64* %RAX, i64 %13)
  ret %struct.Memory* %16
}


define %struct.Memory* @routine_cmpl_MINUS0xc__rbp____eax(%struct.State*  dereferenceable(3376), i64, %struct.Memory* ) #19 {
block_400488:
  %3 = getelementptr inbounds %struct.State, %struct.State* %0, i32 0, i32 6
  %4 = getelementptr inbounds %struct.GPR, %struct.GPR* %3, i32 0, i32 33
  %5 = getelementptr inbounds %struct.Reg, %struct.Reg* %4, i32 0, i32 0
  %PC = bitcast %union.anon* %5 to i64*
  %6 = getelementptr inbounds %struct.State, %struct.State* %0, i32 0, i32 6
  %7 = getelementptr inbounds %struct.GPR, %struct.GPR* %6, i32 0, i32 1
  %8 = getelementptr inbounds %struct.Reg, %struct.Reg* %7, i32 0, i32 0
  %EAX = bitcast %union.anon* %8 to i32*
  %9 = getelementptr inbounds %struct.State, %struct.State* %0, i32 0, i32 6
  %10 = getelementptr inbounds %struct.GPR, %struct.GPR* %9, i32 0, i32 15
  %11 = getelementptr inbounds %struct.Reg, %struct.Reg* %10, i32 0, i32 0
  %RBP = bitcast %union.anon* %11 to i64*
  %12 = load i32, i32* %EAX
  %13 = zext i32 %12 to i64
  %14 = load i64, i64* %RBP
  %15 = sub i64 %14, 12
  %16 = load i64, i64* %PC
  %17 = add i64 %16, 3
  store i64 %17, i64* %PC
  %18 = call %struct.Memory* @_ZN12_GLOBAL__N_1L3CMPI2RnIjE2MnIjEEEP6MemoryS6_R5StateT_T0_(%struct.Memory* %2, %struct.State* %0, i64 %13, i64 %15)
  ret %struct.Memory* %18
}


define %struct.Memory* @routine_jge_.L_400cbf(%struct.State*  dereferenceable(3376), i64, %struct.Memory*, i8* %BRANCH_TAKEN, i64 %rel_off1, i64 %rel_off2, i64 %rel_off3) {
block_400488:
  %3 = getelementptr inbounds %struct.State, %struct.State* %0, i32 0, i32 6
  %4 = getelementptr inbounds %struct.GPR, %struct.GPR* %3, i32 0, i32 33
  %5 = getelementptr inbounds %struct.Reg, %struct.Reg* %4, i32 0, i32 0
  %PC = bitcast %union.anon* %5 to i64*
  %6 = load i64, i64* %PC
  %7 = add i64 %6, %rel_off1
  %8 = load i64, i64* %PC
  %9 = add i64 %8, %rel_off2
  %10 = load i64, i64* %PC
  %11 = add i64 %10, %rel_off3
  store i64 %11, i64* %PC
  %12 = call %struct.Memory* @_ZN12_GLOBAL__N_1L3JNLEP6MemoryR5State3RnWIhE2InImES7_(%struct.Memory* %2, %struct.State* %0, i8* %BRANCH_TAKEN, i64 %7, i64 %9)
  ret %struct.Memory* %12
}


define %struct.Memory* @routine_movq_MINUS0x30__rbp____rax(%struct.State*  dereferenceable(3376), i64, %struct.Memory* ) #19 {
block_400488:
  %3 = getelementptr inbounds %struct.State, %struct.State* %0, i32 0, i32 6
  %4 = getelementptr inbounds %struct.GPR, %struct.GPR* %3, i32 0, i32 33
  %5 = getelementptr inbounds %struct.Reg, %struct.Reg* %4, i32 0, i32 0
  %PC = bitcast %union.anon* %5 to i64*
  %6 = getelementptr inbounds %struct.State, %struct.State* %0, i32 0, i32 6
  %7 = getelementptr inbounds %struct.GPR, %struct.GPR* %6, i32 0, i32 1
  %8 = getelementptr inbounds %struct.Reg, %struct.Reg* %7, i32 0, i32 0
  %RAX = bitcast %union.anon* %8 to i64*
  %9 = getelementptr inbounds %struct.State, %struct.State* %0, i32 0, i32 6
  %10 = getelementptr inbounds %struct.GPR, %struct.GPR* %9, i32 0, i32 15
  %11 = getelementptr inbounds %struct.Reg, %struct.Reg* %10, i32 0, i32 0
  %RBP = bitcast %union.anon* %11 to i64*
  %12 = load i64, i64* %RBP
  %13 = sub i64 %12, 48
  %14 = load i64, i64* %PC
  %15 = add i64 %14, 4
  store i64 %15, i64* %PC
  %16 = call %struct.Memory* @_ZN12_GLOBAL__N_1L3MOVI3RnWImE2MnImEEEP6MemoryS6_R5StateT_T0_(%struct.Memory* %2, %struct.State* %0, i64* %RAX, i64 %13)
  ret %struct.Memory* %16
}

define internal %struct.Memory* @_ZN12_GLOBAL__N_1L5MOVSXI3RnWImE2MnIjElEEP6MemoryS6_R5StateT_T0_(%struct.Memory* returned, %struct.State* nocapture readnone dereferenceable(3376), i64* nocapture, i64) #0 {
  %5 = inttoptr i64 %3 to i32*
  %6 = load i32, i32* %5
  %7 = sext i32 %6 to i64
  store i64 %7, i64* %2, align 8
  ret %struct.Memory* %0
}

define %struct.Memory* @routine_movslq_MINUS0x34__rbp____rcx(%struct.State*  dereferenceable(3376), i64, %struct.Memory* ) #19 {
block_400488:
  %3 = getelementptr inbounds %struct.State, %struct.State* %0, i32 0, i32 6
  %4 = getelementptr inbounds %struct.GPR, %struct.GPR* %3, i32 0, i32 33
  %5 = getelementptr inbounds %struct.Reg, %struct.Reg* %4, i32 0, i32 0
  %PC = bitcast %union.anon* %5 to i64*
  %6 = getelementptr inbounds %struct.State, %struct.State* %0, i32 0, i32 6
  %7 = getelementptr inbounds %struct.GPR, %struct.GPR* %6, i32 0, i32 5
  %8 = getelementptr inbounds %struct.Reg, %struct.Reg* %7, i32 0, i32 0
  %RCX = bitcast %union.anon* %8 to i64*
  %9 = getelementptr inbounds %struct.State, %struct.State* %0, i32 0, i32 6
  %10 = getelementptr inbounds %struct.GPR, %struct.GPR* %9, i32 0, i32 15
  %11 = getelementptr inbounds %struct.Reg, %struct.Reg* %10, i32 0, i32 0
  %RBP = bitcast %union.anon* %11 to i64*
  %12 = load i64, i64* %RBP
  %13 = sub i64 %12, 52
  %14 = load i64, i64* %PC
  %15 = add i64 %14, 4
  store i64 %15, i64* %PC
  %16 = call %struct.Memory* @_ZN12_GLOBAL__N_1L5MOVSXI3RnWImE2MnIjElEEP6MemoryS6_R5StateT_T0_(%struct.Memory* %2, %struct.State* %0, i64* %RCX, i64 %13)
  ret %struct.Memory* %16
}

define internal %struct.Memory* @_ZN12_GLOBAL__N_1L9MOVSD_MEMI3VnWI8vec128_tE3MVnI7vec64_tEEEP6MemoryS8_R5StateT_T0_(%struct.Memory* returned, %struct.State* nocapture readnone dereferenceable(3376), i8* nocapture, i64) #0 {
  %5 = inttoptr i64 %3 to double*
  %6 = load double, double* %5
  %7 = bitcast i8* %2 to double*
  store double %6, double* %7, align 1
  %8 = getelementptr inbounds i8, i8* %2, i64 8
  %9 = bitcast i8* %8 to double*
  store double 0.000000e+00, double* %9, align 1
  ret %struct.Memory* %0
}

define %struct.Memory* @routine_movsd___rax__rcx_8____xmm0(%struct.State*  dereferenceable(3376), i64, %struct.Memory* ) #19 {
block_400488:
  %3 = getelementptr inbounds %struct.State, %struct.State* %0, i32 0, i32 6
  %4 = getelementptr inbounds %struct.GPR, %struct.GPR* %3, i32 0, i32 33
  %5 = getelementptr inbounds %struct.Reg, %struct.Reg* %4, i32 0, i32 0
  %PC = bitcast %union.anon* %5 to i64*
  %6 = getelementptr inbounds %struct.State, %struct.State* %0, i32 0, i32 6
  %7 = getelementptr inbounds %struct.GPR, %struct.GPR* %6, i32 0, i32 1
  %8 = getelementptr inbounds %struct.Reg, %struct.Reg* %7, i32 0, i32 0
  %RAX = bitcast %union.anon* %8 to i64*
  %9 = getelementptr inbounds %struct.State, %struct.State* %0, i32 0, i32 6
  %10 = getelementptr inbounds %struct.GPR, %struct.GPR* %9, i32 0, i32 5
  %11 = getelementptr inbounds %struct.Reg, %struct.Reg* %10, i32 0, i32 0
  %RCX = bitcast %union.anon* %11 to i64*
  %12 = getelementptr inbounds %struct.State, %struct.State* %0, i32 0, i32 1
  %13 = getelementptr inbounds [32 x %union.VectorReg], [32 x %union.VectorReg]* %12, i64 0, i64 0
  %YMM0 = bitcast %union.VectorReg* %13 to %"class.std::bitset"*
  %14 = bitcast %"class.std::bitset"* %YMM0 to i8*
  %15 = load i64, i64* %RAX
  %16 = load i64, i64* %RCX
  %17 = mul i64 %16, 8
  %18 = add i64 %17, %15
  %19 = load i64, i64* %PC
  %20 = add i64 %19, 5
  store i64 %20, i64* %PC
  %21 = call %struct.Memory* @_ZN12_GLOBAL__N_1L9MOVSD_MEMI3VnWI8vec128_tE3MVnI7vec64_tEEEP6MemoryS8_R5StateT_T0_(%struct.Memory* %2, %struct.State* %0, i8* %14, i64 %18)
  ret %struct.Memory* %21
}


define %struct.Memory* @routine_movq_MINUS0x20__rbp____rax(%struct.State*  dereferenceable(3376), i64, %struct.Memory* ) #19 {
block_400488:
  %3 = getelementptr inbounds %struct.State, %struct.State* %0, i32 0, i32 6
  %4 = getelementptr inbounds %struct.GPR, %struct.GPR* %3, i32 0, i32 33
  %5 = getelementptr inbounds %struct.Reg, %struct.Reg* %4, i32 0, i32 0
  %PC = bitcast %union.anon* %5 to i64*
  %6 = getelementptr inbounds %struct.State, %struct.State* %0, i32 0, i32 6
  %7 = getelementptr inbounds %struct.GPR, %struct.GPR* %6, i32 0, i32 1
  %8 = getelementptr inbounds %struct.Reg, %struct.Reg* %7, i32 0, i32 0
  %RAX = bitcast %union.anon* %8 to i64*
  %9 = getelementptr inbounds %struct.State, %struct.State* %0, i32 0, i32 6
  %10 = getelementptr inbounds %struct.GPR, %struct.GPR* %9, i32 0, i32 15
  %11 = getelementptr inbounds %struct.Reg, %struct.Reg* %10, i32 0, i32 0
  %RBP = bitcast %union.anon* %11 to i64*
  %12 = load i64, i64* %RBP
  %13 = sub i64 %12, 32
  %14 = load i64, i64* %PC
  %15 = add i64 %14, 4
  store i64 %15, i64* %PC
  %16 = call %struct.Memory* @_ZN12_GLOBAL__N_1L3MOVI3RnWImE2MnImEEEP6MemoryS6_R5StateT_T0_(%struct.Memory* %2, %struct.State* %0, i64* %RAX, i64 %13)
  ret %struct.Memory* %16
}


define %struct.Memory* @routine_movslq_MINUS0x3c__rbp____rcx(%struct.State*  dereferenceable(3376), i64, %struct.Memory* ) #19 {
block_400488:
  %3 = getelementptr inbounds %struct.State, %struct.State* %0, i32 0, i32 6
  %4 = getelementptr inbounds %struct.GPR, %struct.GPR* %3, i32 0, i32 33
  %5 = getelementptr inbounds %struct.Reg, %struct.Reg* %4, i32 0, i32 0
  %PC = bitcast %union.anon* %5 to i64*
  %6 = getelementptr inbounds %struct.State, %struct.State* %0, i32 0, i32 6
  %7 = getelementptr inbounds %struct.GPR, %struct.GPR* %6, i32 0, i32 5
  %8 = getelementptr inbounds %struct.Reg, %struct.Reg* %7, i32 0, i32 0
  %RCX = bitcast %union.anon* %8 to i64*
  %9 = getelementptr inbounds %struct.State, %struct.State* %0, i32 0, i32 6
  %10 = getelementptr inbounds %struct.GPR, %struct.GPR* %9, i32 0, i32 15
  %11 = getelementptr inbounds %struct.Reg, %struct.Reg* %10, i32 0, i32 0
  %RBP = bitcast %union.anon* %11 to i64*
  %12 = load i64, i64* %RBP
  %13 = sub i64 %12, 60
  %14 = load i64, i64* %PC
  %15 = add i64 %14, 4
  store i64 %15, i64* %PC
  %16 = call %struct.Memory* @_ZN12_GLOBAL__N_1L5MOVSXI3RnWImE2MnIjElEEP6MemoryS6_R5StateT_T0_(%struct.Memory* %2, %struct.State* %0, i64* %RCX, i64 %13)
  ret %struct.Memory* %16
}

define internal %struct.Memory* @_ZN12_GLOBAL__N_1L9MOVSD_MEMI4MVnWI7vec64_tE2VnI8vec128_tEEEP6MemoryS8_R5StateT_T0_(%struct.Memory* readnone, %struct.State* nocapture readnone dereferenceable(3376), i64, i8* nocapture readonly) #7 {
  %5 = bitcast i8* %3 to double*
  %6 = load double, double* %5, align 1
  %7 = inttoptr i64 %2 to double*
  store double %6, double* %7
  ret %struct.Memory* %0
}

define %struct.Memory* @routine_movsd__xmm0____rax__rcx_8_(%struct.State*  dereferenceable(3376), i64, %struct.Memory* ) #19 {
block_400488:
  %3 = getelementptr inbounds %struct.State, %struct.State* %0, i32 0, i32 6
  %4 = getelementptr inbounds %struct.GPR, %struct.GPR* %3, i32 0, i32 33
  %5 = getelementptr inbounds %struct.Reg, %struct.Reg* %4, i32 0, i32 0
  %PC = bitcast %union.anon* %5 to i64*
  %6 = getelementptr inbounds %struct.State, %struct.State* %0, i32 0, i32 6
  %7 = getelementptr inbounds %struct.GPR, %struct.GPR* %6, i32 0, i32 1
  %8 = getelementptr inbounds %struct.Reg, %struct.Reg* %7, i32 0, i32 0
  %RAX = bitcast %union.anon* %8 to i64*
  %9 = getelementptr inbounds %struct.State, %struct.State* %0, i32 0, i32 6
  %10 = getelementptr inbounds %struct.GPR, %struct.GPR* %9, i32 0, i32 5
  %11 = getelementptr inbounds %struct.Reg, %struct.Reg* %10, i32 0, i32 0
  %RCX = bitcast %union.anon* %11 to i64*
  %12 = getelementptr inbounds %struct.State, %struct.State* %0, i32 0, i32 1
  %13 = getelementptr inbounds [32 x %union.VectorReg], [32 x %union.VectorReg]* %12, i64 0, i64 0
  %XMM0 = bitcast %union.VectorReg* %13 to %union.vec128_t*
  %14 = load i64, i64* %RAX
  %15 = load i64, i64* %RCX
  %16 = mul i64 %15, 8
  %17 = add i64 %16, %14
  %18 = bitcast %union.vec128_t* %XMM0 to i8*
  %19 = load i64, i64* %PC
  %20 = add i64 %19, 5
  store i64 %20, i64* %PC
  %21 = call %struct.Memory* @_ZN12_GLOBAL__N_1L9MOVSD_MEMI4MVnWI7vec64_tE2VnI8vec128_tEEEP6MemoryS8_R5StateT_T0_(%struct.Memory* %2, %struct.State* %0, i64 %17, i8* %18)
  ret %struct.Memory* %21
}



define internal %struct.Memory* @_ZN12_GLOBAL__N_1L3ADDI3RnWImE2RnIjE2InIjEEEP6MemoryS8_R5StateT_T0_T1_(%struct.Memory* readnone returned, %struct.State* nocapture dereferenceable(3376), i64* nocapture, i64, i64) #0 {
  %6 = trunc i64 %3 to i32
  %7 = trunc i64 %4 to i32
  %8 = add i32 %7, %6
  %9 = zext i32 %8 to i64
  store i64 %9, i64* %2, align 8
  %10 = icmp ult i32 %8, %6
  %11 = icmp ult i32 %8, %7
  %12 = or i1 %10, %11
  %13 = zext i1 %12 to i8
  %14 = getelementptr inbounds %struct.State, %struct.State* %1, i64 0, i32 2, i32 1
  store i8 %13, i8* %14, align 1
  %15 = and i32 %8, 255
  %16 = tail call i32 @llvm.ctpop.i32(i32 %15) #22
  %17 = trunc i32 %16 to i8
  %18 = and i8 %17, 1
  %19 = xor i8 %18, 1
  %20 = getelementptr inbounds %struct.State, %struct.State* %1, i64 0, i32 2, i32 3
  store i8 %19, i8* %20, align 1
  %21 = xor i64 %4, %3
  %22 = trunc i64 %21 to i32
  %23 = xor i32 %22, %8
  %24 = lshr i32 %23, 4
  %25 = trunc i32 %24 to i8
  %26 = and i8 %25, 1
  %27 = getelementptr inbounds %struct.State, %struct.State* %1, i64 0, i32 2, i32 5
  store i8 %26, i8* %27, align 1
  %28 = icmp eq i32 %8, 0
  %29 = zext i1 %28 to i8
  %30 = getelementptr inbounds %struct.State, %struct.State* %1, i64 0, i32 2, i32 7
  store i8 %29, i8* %30, align 1
  %31 = lshr i32 %8, 31
  %32 = trunc i32 %31 to i8
  %33 = getelementptr inbounds %struct.State, %struct.State* %1, i64 0, i32 2, i32 9
  store i8 %32, i8* %33, align 1
  %34 = lshr i32 %6, 31
  %35 = lshr i32 %7, 31
  %36 = xor i32 %31, %34
  %37 = xor i32 %31, %35
  %38 = add   i32 %36, %37
  %39 = icmp eq i32 %38, 2
  %40 = zext i1 %39 to i8
  %41 = getelementptr inbounds %struct.State, %struct.State* %1, i64 0, i32 2, i32 13
  store i8 %40, i8* %41, align 1
  ret %struct.Memory* %0
}

define %struct.Memory* @routine_addl__0x1___eax(%struct.State*  dereferenceable(3376), i64, %struct.Memory* ) #19 {
block_400488:
  %3 = getelementptr inbounds %struct.State, %struct.State* %0, i32 0, i32 6
  %4 = getelementptr inbounds %struct.GPR, %struct.GPR* %3, i32 0, i32 33
  %5 = getelementptr inbounds %struct.Reg, %struct.Reg* %4, i32 0, i32 0
  %PC = bitcast %union.anon* %5 to i64*
  %6 = getelementptr inbounds %struct.State, %struct.State* %0, i32 0, i32 6
  %7 = getelementptr inbounds %struct.GPR, %struct.GPR* %6, i32 0, i32 1
  %8 = getelementptr inbounds %struct.Reg, %struct.Reg* %7, i32 0, i32 0
  %RAX = bitcast %union.anon* %8 to i64*
  %9 = load i64, i64* %RAX
  %10 = load i64, i64* %PC
  %11 = add i64 %10, 3
  store i64 %11, i64* %PC
  %12 = call %struct.Memory* @_ZN12_GLOBAL__N_1L3ADDI3RnWImE2RnIjE2InIjEEEP6MemoryS8_R5StateT_T0_T1_(%struct.Memory* %2, %struct.State* %0, i64* %RAX, i64 %9, i64 1)
  ret %struct.Memory* %12
}


define %struct.Memory* @routine_movl__eax__MINUS0x3c__rbp_(%struct.State*  dereferenceable(3376), i64, %struct.Memory* ) #19 {
block_400488:
  %3 = getelementptr inbounds %struct.State, %struct.State* %0, i32 0, i32 6
  %4 = getelementptr inbounds %struct.GPR, %struct.GPR* %3, i32 0, i32 33
  %5 = getelementptr inbounds %struct.Reg, %struct.Reg* %4, i32 0, i32 0
  %PC = bitcast %union.anon* %5 to i64*
  %6 = getelementptr inbounds %struct.State, %struct.State* %0, i32 0, i32 6
  %7 = getelementptr inbounds %struct.GPR, %struct.GPR* %6, i32 0, i32 1
  %8 = getelementptr inbounds %struct.Reg, %struct.Reg* %7, i32 0, i32 0
  %EAX = bitcast %union.anon* %8 to i32*
  %9 = getelementptr inbounds %struct.State, %struct.State* %0, i32 0, i32 6
  %10 = getelementptr inbounds %struct.GPR, %struct.GPR* %9, i32 0, i32 15
  %11 = getelementptr inbounds %struct.Reg, %struct.Reg* %10, i32 0, i32 0
  %RBP = bitcast %union.anon* %11 to i64*
  %12 = load i64, i64* %RBP
  %13 = sub i64 %12, 60
  %14 = load i32, i32* %EAX
  %15 = zext i32 %14 to i64
  %16 = load i64, i64* %PC
  %17 = add i64 %16, 3
  store i64 %17, i64* %PC
  %18 = call %struct.Memory* @_ZN12_GLOBAL__N_1L3MOVI3MnWIjE2RnIjEEEP6MemoryS6_R5StateT_T0_(%struct.Memory* %2, %struct.State* %0, i64 %13, i64 %15)
  ret %struct.Memory* %18
}

define internal %struct.Memory* @_ZN12_GLOBAL__N_1L3JMPI2InImEEEP6MemoryS4_R5StateT_(%struct.Memory* readnone returned, %struct.State* nocapture dereferenceable(3376), i64) #2 {
  %4 = getelementptr inbounds %struct.State, %struct.State* %1, i64 0, i32 6, i32 33, i32 0, i32 0
  store i64 %2, i64* %4, align 8
  ret %struct.Memory* %0
}

define %struct.Memory* @routine_jmpq_.L_400c8b(%struct.State*  dereferenceable(3376), i64, %struct.Memory*, i64 %rel_off1, i64 %rel_off2) {
block_400488:
  %3 = getelementptr inbounds %struct.State, %struct.State* %0, i32 0, i32 6
  %4 = getelementptr inbounds %struct.GPR, %struct.GPR* %3, i32 0, i32 33
  %5 = getelementptr inbounds %struct.Reg, %struct.Reg* %4, i32 0, i32 0
  %PC = bitcast %union.anon* %5 to i64*
  %6 = load i64, i64* %PC
  %7 = add i64 %6, %rel_off1
  %8 = load i64, i64* %PC
  %9 = add i64 %8, %rel_off2
  store i64 %9, i64* %PC
  %10 = call %struct.Memory* @_ZN12_GLOBAL__N_1L3JMPI2InImEEEP6MemoryS4_R5StateT_(%struct.Memory* %2, %struct.State* %0, i64 %7)
  ret %struct.Memory* %10
}


define %struct.Memory* @routine_movl__0x1__MINUS0x38__rbp_(%struct.State*  dereferenceable(3376), i64, %struct.Memory* ) #19 {
block_400488:
  %3 = getelementptr inbounds %struct.State, %struct.State* %0, i32 0, i32 6
  %4 = getelementptr inbounds %struct.GPR, %struct.GPR* %3, i32 0, i32 33
  %5 = getelementptr inbounds %struct.Reg, %struct.Reg* %4, i32 0, i32 0
  %PC = bitcast %union.anon* %5 to i64*
  %6 = getelementptr inbounds %struct.State, %struct.State* %0, i32 0, i32 6
  %7 = getelementptr inbounds %struct.GPR, %struct.GPR* %6, i32 0, i32 15
  %8 = getelementptr inbounds %struct.Reg, %struct.Reg* %7, i32 0, i32 0
  %RBP = bitcast %union.anon* %8 to i64*
  %9 = load i64, i64* %RBP
  %10 = sub i64 %9, 56
  %11 = load i64, i64* %PC
  %12 = add i64 %11, 7
  store i64 %12, i64* %PC
  %13 = call %struct.Memory* @_ZN12_GLOBAL__N_1L3MOVI3MnWIjE2InIjEEEP6MemoryS6_R5StateT_T0_(%struct.Memory* %2, %struct.State* %0, i64 %10, i64 1)
  ret %struct.Memory* %13
}


define %struct.Memory* @routine_movl_MINUS0x38__rbp____eax(%struct.State*  dereferenceable(3376), i64, %struct.Memory* ) #19 {
block_400488:
  %3 = getelementptr inbounds %struct.State, %struct.State* %0, i32 0, i32 6
  %4 = getelementptr inbounds %struct.GPR, %struct.GPR* %3, i32 0, i32 33
  %5 = getelementptr inbounds %struct.Reg, %struct.Reg* %4, i32 0, i32 0
  %PC = bitcast %union.anon* %5 to i64*
  %6 = getelementptr inbounds %struct.State, %struct.State* %0, i32 0, i32 6
  %7 = getelementptr inbounds %struct.GPR, %struct.GPR* %6, i32 0, i32 1
  %8 = getelementptr inbounds %struct.Reg, %struct.Reg* %7, i32 0, i32 0
  %RAX = bitcast %union.anon* %8 to i64*
  %9 = getelementptr inbounds %struct.State, %struct.State* %0, i32 0, i32 6
  %10 = getelementptr inbounds %struct.GPR, %struct.GPR* %9, i32 0, i32 15
  %11 = getelementptr inbounds %struct.Reg, %struct.Reg* %10, i32 0, i32 0
  %RBP = bitcast %union.anon* %11 to i64*
  %12 = load i64, i64* %RBP
  %13 = sub i64 %12, 56
  %14 = load i64, i64* %PC
  %15 = add i64 %14, 3
  store i64 %15, i64* %PC
  %16 = call %struct.Memory* @_ZN12_GLOBAL__N_1L3MOVI3RnWImE2MnIjEEEP6MemoryS6_R5StateT_T0_(%struct.Memory* %2, %struct.State* %0, i64* %RAX, i64 %13)
  ret %struct.Memory* %16
}


define %struct.Memory* @routine_cmpl_MINUS0x8__rbp____eax(%struct.State*  dereferenceable(3376), i64, %struct.Memory* ) #19 {
block_400488:
  %3 = getelementptr inbounds %struct.State, %struct.State* %0, i32 0, i32 6
  %4 = getelementptr inbounds %struct.GPR, %struct.GPR* %3, i32 0, i32 33
  %5 = getelementptr inbounds %struct.Reg, %struct.Reg* %4, i32 0, i32 0
  %PC = bitcast %union.anon* %5 to i64*
  %6 = getelementptr inbounds %struct.State, %struct.State* %0, i32 0, i32 6
  %7 = getelementptr inbounds %struct.GPR, %struct.GPR* %6, i32 0, i32 1
  %8 = getelementptr inbounds %struct.Reg, %struct.Reg* %7, i32 0, i32 0
  %EAX = bitcast %union.anon* %8 to i32*
  %9 = getelementptr inbounds %struct.State, %struct.State* %0, i32 0, i32 6
  %10 = getelementptr inbounds %struct.GPR, %struct.GPR* %9, i32 0, i32 15
  %11 = getelementptr inbounds %struct.Reg, %struct.Reg* %10, i32 0, i32 0
  %RBP = bitcast %union.anon* %11 to i64*
  %12 = load i32, i32* %EAX
  %13 = zext i32 %12 to i64
  %14 = load i64, i64* %RBP
  %15 = sub i64 %14, 8
  %16 = load i64, i64* %PC
  %17 = add i64 %16, 3
  store i64 %17, i64* %PC
  %18 = call %struct.Memory* @_ZN12_GLOBAL__N_1L3CMPI2RnIjE2MnIjEEEP6MemoryS6_R5StateT_T0_(%struct.Memory* %2, %struct.State* %0, i64 %13, i64 %15)
  ret %struct.Memory* %18
}


define %struct.Memory* @routine_jge_.L_400d87(%struct.State*  dereferenceable(3376), i64, %struct.Memory*, i8* %BRANCH_TAKEN, i64 %rel_off1, i64 %rel_off2, i64 %rel_off3) {
block_400488:
  %3 = getelementptr inbounds %struct.State, %struct.State* %0, i32 0, i32 6
  %4 = getelementptr inbounds %struct.GPR, %struct.GPR* %3, i32 0, i32 33
  %5 = getelementptr inbounds %struct.Reg, %struct.Reg* %4, i32 0, i32 0
  %PC = bitcast %union.anon* %5 to i64*
  %6 = load i64, i64* %PC
  %7 = add i64 %6, %rel_off1
  %8 = load i64, i64* %PC
  %9 = add i64 %8, %rel_off2
  %10 = load i64, i64* %PC
  %11 = add i64 %10, %rel_off3
  store i64 %11, i64* %PC
  %12 = call %struct.Memory* @_ZN12_GLOBAL__N_1L3JNLEP6MemoryR5State3RnWIhE2InImES7_(%struct.Memory* %2, %struct.State* %0, i8* %BRANCH_TAKEN, i64 %7, i64 %9)
  ret %struct.Memory* %12
}








define %struct.Memory* @routine_jge_.L_400d74(%struct.State*  dereferenceable(3376), i64, %struct.Memory*, i8* %BRANCH_TAKEN, i64 %rel_off1, i64 %rel_off2, i64 %rel_off3) {
block_400488:
  %3 = getelementptr inbounds %struct.State, %struct.State* %0, i32 0, i32 6
  %4 = getelementptr inbounds %struct.GPR, %struct.GPR* %3, i32 0, i32 33
  %5 = getelementptr inbounds %struct.Reg, %struct.Reg* %4, i32 0, i32 0
  %PC = bitcast %union.anon* %5 to i64*
  %6 = load i64, i64* %PC
  %7 = add i64 %6, %rel_off1
  %8 = load i64, i64* %PC
  %9 = add i64 %8, %rel_off2
  %10 = load i64, i64* %PC
  %11 = add i64 %10, %rel_off3
  store i64 %11, i64* %PC
  %12 = call %struct.Memory* @_ZN12_GLOBAL__N_1L3JNLEP6MemoryR5State3RnWIhE2InImES7_(%struct.Memory* %2, %struct.State* %0, i8* %BRANCH_TAKEN, i64 %7, i64 %9)
  ret %struct.Memory* %12
}


define %struct.Memory* @routine_movsd_0x9a3__rip____xmm0(%struct.State*  dereferenceable(3376), i64, %struct.Memory* ) #19 {
block_400488:
  %3 = getelementptr inbounds %struct.State, %struct.State* %0, i32 0, i32 6
  %4 = getelementptr inbounds %struct.GPR, %struct.GPR* %3, i32 0, i32 33
  %5 = getelementptr inbounds %struct.Reg, %struct.Reg* %4, i32 0, i32 0
  %PC = bitcast %union.anon* %5 to i64*
  %6 = getelementptr inbounds %struct.State, %struct.State* %0, i32 0, i32 1
  %7 = getelementptr inbounds [32 x %union.VectorReg], [32 x %union.VectorReg]* %6, i64 0, i64 0
  %YMM0 = bitcast %union.VectorReg* %7 to %"class.std::bitset"*
  %8 = bitcast %"class.std::bitset"* %YMM0 to i8*
  %9 = load i64, i64* %PC
  %10 = add i64 %9, 2475
  %11 = load i64, i64* %PC
  %12 = add i64 %11, 8
  store i64 %12, i64* %PC
  %13 = call %struct.Memory* @_ZN12_GLOBAL__N_1L9MOVSD_MEMI3VnWI8vec128_tE3MVnI7vec64_tEEEP6MemoryS8_R5StateT_T0_(%struct.Memory* %2, %struct.State* %0, i8* %8, i64 %10)
  ret %struct.Memory* %13
}




define %struct.Memory* @routine_movslq_MINUS0x38__rbp____rcx(%struct.State*  dereferenceable(3376), i64, %struct.Memory* ) #19 {
block_400488:
  %3 = getelementptr inbounds %struct.State, %struct.State* %0, i32 0, i32 6
  %4 = getelementptr inbounds %struct.GPR, %struct.GPR* %3, i32 0, i32 33
  %5 = getelementptr inbounds %struct.Reg, %struct.Reg* %4, i32 0, i32 0
  %PC = bitcast %union.anon* %5 to i64*
  %6 = getelementptr inbounds %struct.State, %struct.State* %0, i32 0, i32 6
  %7 = getelementptr inbounds %struct.GPR, %struct.GPR* %6, i32 0, i32 5
  %8 = getelementptr inbounds %struct.Reg, %struct.Reg* %7, i32 0, i32 0
  %RCX = bitcast %union.anon* %8 to i64*
  %9 = getelementptr inbounds %struct.State, %struct.State* %0, i32 0, i32 6
  %10 = getelementptr inbounds %struct.GPR, %struct.GPR* %9, i32 0, i32 15
  %11 = getelementptr inbounds %struct.Reg, %struct.Reg* %10, i32 0, i32 0
  %RBP = bitcast %union.anon* %11 to i64*
  %12 = load i64, i64* %RBP
  %13 = sub i64 %12, 56
  %14 = load i64, i64* %PC
  %15 = add i64 %14, 4
  store i64 %15, i64* %PC
  %16 = call %struct.Memory* @_ZN12_GLOBAL__N_1L5MOVSXI3RnWImE2MnIjElEEP6MemoryS6_R5StateT_T0_(%struct.Memory* %2, %struct.State* %0, i64* %RCX, i64 %13)
  ret %struct.Memory* %16
}

define internal %struct.Memory* @_ZN12_GLOBAL__N_1L4IMULI3RnWImE2RnImE2InImEEEP6MemoryS8_R5StateT_T0_T1_(%struct.Memory* readnone returned, %struct.State* nocapture dereferenceable(3376), i64* nocapture, i64, i64) #0 {
  %6 = sext i64 %3 to i128
  %7 = and i128 %6, -18446744073709551616
  %8 = sext i64 %4 to i128
  %9 = and i128 %8, -18446744073709551616
  %10 = zext i64 %3 to i128
  %11 = or i128 %7, %10
  %12 = zext i64 %4 to i128
  %13 = or i128 %9, %12
  %14 = mul  i128 %13, %11
  %15 = trunc i128 %14 to i64
  store i64 %15, i64* %2, align 8
  %16 = sext i64 %15 to i128
  %17 = icmp ne i128 %16, %14
  %18 = zext i1 %17 to i8
  %19 = getelementptr inbounds %struct.State, %struct.State* %1, i64 0, i32 2, i32 1
  store i8 %18, i8* %19, align 1
  %20 = trunc i128 %14 to i32
  %21 = and i32 %20, 255
  %22 = tail call i32 @llvm.ctpop.i32(i32 %21) #22
  %23 = trunc i32 %22 to i8
  %24 = and i8 %23, 1
  %25 = xor i8 %24, 1
  %26 = getelementptr inbounds %struct.State, %struct.State* %1, i64 0, i32 2, i32 3
  store i8 %25, i8* %26, align 1
  %27 = getelementptr inbounds %struct.State, %struct.State* %1, i64 0, i32 2, i32 5
  store i8 0, i8* %27, align 1
  %28 = getelementptr inbounds %struct.State, %struct.State* %1, i64 0, i32 2, i32 7
  store i8 0, i8* %28, align 1
  %29 = lshr i64 %15, 63
  %30 = trunc i64 %29 to i8
  %31 = getelementptr inbounds %struct.State, %struct.State* %1, i64 0, i32 2, i32 9
  store i8 %30, i8* %31, align 1
  %32 = getelementptr inbounds %struct.State, %struct.State* %1, i64 0, i32 2, i32 13
  store i8 %18, i8* %32, align 1
  ret %struct.Memory* %0
}

define %struct.Memory* @routine_imulq__0x1f40___rcx___rcx(%struct.State*  dereferenceable(3376), i64, %struct.Memory* ) #19 {
block_400488:
  %3 = getelementptr inbounds %struct.State, %struct.State* %0, i32 0, i32 6
  %4 = getelementptr inbounds %struct.GPR, %struct.GPR* %3, i32 0, i32 33
  %5 = getelementptr inbounds %struct.Reg, %struct.Reg* %4, i32 0, i32 0
  %PC = bitcast %union.anon* %5 to i64*
  %6 = getelementptr inbounds %struct.State, %struct.State* %0, i32 0, i32 6
  %7 = getelementptr inbounds %struct.GPR, %struct.GPR* %6, i32 0, i32 5
  %8 = getelementptr inbounds %struct.Reg, %struct.Reg* %7, i32 0, i32 0
  %RCX = bitcast %union.anon* %8 to i64*
  %9 = load i64, i64* %RCX
  %10 = load i64, i64* %PC
  %11 = add i64 %10, 7
  store i64 %11, i64* %PC
  %12 = call %struct.Memory* @_ZN12_GLOBAL__N_1L4IMULI3RnWImE2RnImE2InImEEEP6MemoryS8_R5StateT_T0_T1_(%struct.Memory* %2, %struct.State* %0, i64* %RCX, i64 %9, i64 8000)
  ret %struct.Memory* %12
}

define internal %struct.Memory* @_ZN12_GLOBAL__N_1L3ADDI3RnWImE2RnImES4_EEP6MemoryS6_R5StateT_T0_T1_(%struct.Memory* readnone returned, %struct.State* nocapture dereferenceable(3376), i64* nocapture, i64, i64) #0 {
  %6 = add i64 %4, %3
  store i64 %6, i64* %2, align 8
  %7 = icmp ult i64 %6, %3
  %8 = icmp ult i64 %6, %4
  %9 = or i1 %7, %8
  %10 = zext i1 %9 to i8
  %11 = getelementptr inbounds %struct.State, %struct.State* %1, i64 0, i32 2, i32 1
  store i8 %10, i8* %11, align 1
  %12 = trunc i64 %6 to i32
  %13 = and i32 %12, 255
  %14 = tail call i32 @llvm.ctpop.i32(i32 %13) #22
  %15 = trunc i32 %14 to i8
  %16 = and i8 %15, 1
  %17 = xor i8 %16, 1
  %18 = getelementptr inbounds %struct.State, %struct.State* %1, i64 0, i32 2, i32 3
  store i8 %17, i8* %18, align 1
  %19 = xor i64 %4, %3
  %20 = xor i64 %19, %6
  %21 = lshr i64 %20, 4
  %22 = trunc i64 %21 to i8
  %23 = and i8 %22, 1
  %24 = getelementptr inbounds %struct.State, %struct.State* %1, i64 0, i32 2, i32 5
  store i8 %23, i8* %24, align 1
  %25 = icmp eq i64 %6, 0
  %26 = zext i1 %25 to i8
  %27 = getelementptr inbounds %struct.State, %struct.State* %1, i64 0, i32 2, i32 7
  store i8 %26, i8* %27, align 1
  %28 = lshr i64 %6, 63
  %29 = trunc i64 %28 to i8
  %30 = getelementptr inbounds %struct.State, %struct.State* %1, i64 0, i32 2, i32 9
  store i8 %29, i8* %30, align 1
  %31 = lshr i64 %3, 63
  %32 = lshr i64 %4, 63
  %33 = xor i64 %28, %31
  %34 = xor i64 %28, %32
  %35 = add   i64 %33, %34
  %36 = icmp eq i64 %35, 2
  %37 = zext i1 %36 to i8
  %38 = getelementptr inbounds %struct.State, %struct.State* %1, i64 0, i32 2, i32 13
  store i8 %37, i8* %38, align 1
  ret %struct.Memory* %0
}

define %struct.Memory* @routine_addq__rcx___rax(%struct.State*  dereferenceable(3376), i64, %struct.Memory* ) #19 {
block_400488:
  %3 = getelementptr inbounds %struct.State, %struct.State* %0, i32 0, i32 6
  %4 = getelementptr inbounds %struct.GPR, %struct.GPR* %3, i32 0, i32 33
  %5 = getelementptr inbounds %struct.Reg, %struct.Reg* %4, i32 0, i32 0
  %PC = bitcast %union.anon* %5 to i64*
  %6 = getelementptr inbounds %struct.State, %struct.State* %0, i32 0, i32 6
  %7 = getelementptr inbounds %struct.GPR, %struct.GPR* %6, i32 0, i32 1
  %8 = getelementptr inbounds %struct.Reg, %struct.Reg* %7, i32 0, i32 0
  %RAX = bitcast %union.anon* %8 to i64*
  %9 = getelementptr inbounds %struct.State, %struct.State* %0, i32 0, i32 6
  %10 = getelementptr inbounds %struct.GPR, %struct.GPR* %9, i32 0, i32 5
  %11 = getelementptr inbounds %struct.Reg, %struct.Reg* %10, i32 0, i32 0
  %RCX = bitcast %union.anon* %11 to i64*
  %12 = load i64, i64* %RAX
  %13 = load i64, i64* %RCX
  %14 = load i64, i64* %PC
  %15 = add i64 %14, 3
  store i64 %15, i64* %PC
  %16 = call %struct.Memory* @_ZN12_GLOBAL__N_1L3ADDI3RnWImE2RnImES4_EEP6MemoryS6_R5StateT_T0_T1_(%struct.Memory* %2, %struct.State* %0, i64* %RAX, i64 %12, i64 %13)
  ret %struct.Memory* %16
}




define %struct.Memory* @routine_movsd___rax__rcx_8____xmm1(%struct.State*  dereferenceable(3376), i64, %struct.Memory* ) #19 {
block_400488:
  %3 = getelementptr inbounds %struct.State, %struct.State* %0, i32 0, i32 6
  %4 = getelementptr inbounds %struct.GPR, %struct.GPR* %3, i32 0, i32 33
  %5 = getelementptr inbounds %struct.Reg, %struct.Reg* %4, i32 0, i32 0
  %PC = bitcast %union.anon* %5 to i64*
  %6 = getelementptr inbounds %struct.State, %struct.State* %0, i32 0, i32 6
  %7 = getelementptr inbounds %struct.GPR, %struct.GPR* %6, i32 0, i32 1
  %8 = getelementptr inbounds %struct.Reg, %struct.Reg* %7, i32 0, i32 0
  %RAX = bitcast %union.anon* %8 to i64*
  %9 = getelementptr inbounds %struct.State, %struct.State* %0, i32 0, i32 6
  %10 = getelementptr inbounds %struct.GPR, %struct.GPR* %9, i32 0, i32 5
  %11 = getelementptr inbounds %struct.Reg, %struct.Reg* %10, i32 0, i32 0
  %RCX = bitcast %union.anon* %11 to i64*
  %12 = getelementptr inbounds %struct.State, %struct.State* %0, i32 0, i32 1
  %13 = getelementptr inbounds [32 x %union.VectorReg], [32 x %union.VectorReg]* %12, i64 0, i64 1
  %YMM1 = bitcast %union.VectorReg* %13 to %"class.std::bitset"*
  %14 = bitcast %"class.std::bitset"* %YMM1 to i8*
  %15 = load i64, i64* %RAX
  %16 = load i64, i64* %RCX
  %17 = mul i64 %16, 8
  %18 = add i64 %17, %15
  %19 = load i64, i64* %PC
  %20 = add i64 %19, 5
  store i64 %20, i64* %PC
  %21 = call %struct.Memory* @_ZN12_GLOBAL__N_1L9MOVSD_MEMI3VnWI8vec128_tE3MVnI7vec64_tEEEP6MemoryS8_R5StateT_T0_(%struct.Memory* %2, %struct.State* %0, i8* %14, i64 %18)
  ret %struct.Memory* %21
}


define %struct.Memory* @routine_movq_MINUS0x28__rbp____rax(%struct.State*  dereferenceable(3376), i64, %struct.Memory* ) #19 {
block_400488:
  %3 = getelementptr inbounds %struct.State, %struct.State* %0, i32 0, i32 6
  %4 = getelementptr inbounds %struct.GPR, %struct.GPR* %3, i32 0, i32 33
  %5 = getelementptr inbounds %struct.Reg, %struct.Reg* %4, i32 0, i32 0
  %PC = bitcast %union.anon* %5 to i64*
  %6 = getelementptr inbounds %struct.State, %struct.State* %0, i32 0, i32 6
  %7 = getelementptr inbounds %struct.GPR, %struct.GPR* %6, i32 0, i32 1
  %8 = getelementptr inbounds %struct.Reg, %struct.Reg* %7, i32 0, i32 0
  %RAX = bitcast %union.anon* %8 to i64*
  %9 = getelementptr inbounds %struct.State, %struct.State* %0, i32 0, i32 6
  %10 = getelementptr inbounds %struct.GPR, %struct.GPR* %9, i32 0, i32 15
  %11 = getelementptr inbounds %struct.Reg, %struct.Reg* %10, i32 0, i32 0
  %RBP = bitcast %union.anon* %11 to i64*
  %12 = load i64, i64* %RBP
  %13 = sub i64 %12, 40
  %14 = load i64, i64* %PC
  %15 = add i64 %14, 4
  store i64 %15, i64* %PC
  %16 = call %struct.Memory* @_ZN12_GLOBAL__N_1L3MOVI3RnWImE2MnImEEEP6MemoryS6_R5StateT_T0_(%struct.Memory* %2, %struct.State* %0, i64* %RAX, i64 %13)
  ret %struct.Memory* %16
}










define %struct.Memory* @routine_movsd___rax__rcx_8____xmm2(%struct.State*  dereferenceable(3376), i64, %struct.Memory* ) #19 {
block_400488:
  %3 = getelementptr inbounds %struct.State, %struct.State* %0, i32 0, i32 6
  %4 = getelementptr inbounds %struct.GPR, %struct.GPR* %3, i32 0, i32 33
  %5 = getelementptr inbounds %struct.Reg, %struct.Reg* %4, i32 0, i32 0
  %PC = bitcast %union.anon* %5 to i64*
  %6 = getelementptr inbounds %struct.State, %struct.State* %0, i32 0, i32 6
  %7 = getelementptr inbounds %struct.GPR, %struct.GPR* %6, i32 0, i32 1
  %8 = getelementptr inbounds %struct.Reg, %struct.Reg* %7, i32 0, i32 0
  %RAX = bitcast %union.anon* %8 to i64*
  %9 = getelementptr inbounds %struct.State, %struct.State* %0, i32 0, i32 6
  %10 = getelementptr inbounds %struct.GPR, %struct.GPR* %9, i32 0, i32 5
  %11 = getelementptr inbounds %struct.Reg, %struct.Reg* %10, i32 0, i32 0
  %RCX = bitcast %union.anon* %11 to i64*
  %12 = getelementptr inbounds %struct.State, %struct.State* %0, i32 0, i32 1
  %13 = getelementptr inbounds [32 x %union.VectorReg], [32 x %union.VectorReg]* %12, i64 0, i64 2
  %YMM2 = bitcast %union.VectorReg* %13 to %"class.std::bitset"*
  %14 = bitcast %"class.std::bitset"* %YMM2 to i8*
  %15 = load i64, i64* %RAX
  %16 = load i64, i64* %RCX
  %17 = mul i64 %16, 8
  %18 = add i64 %17, %15
  %19 = load i64, i64* %PC
  %20 = add i64 %19, 5
  store i64 %20, i64* %PC
  %21 = call %struct.Memory* @_ZN12_GLOBAL__N_1L9MOVSD_MEMI3VnWI8vec128_tE3MVnI7vec64_tEEEP6MemoryS8_R5StateT_T0_(%struct.Memory* %2, %struct.State* %0, i8* %14, i64 %18)
  ret %struct.Memory* %21
}




define %struct.Memory* @routine_movl_MINUS0x38__rbp____edx(%struct.State*  dereferenceable(3376), i64, %struct.Memory* ) #19 {
block_400488:
  %3 = getelementptr inbounds %struct.State, %struct.State* %0, i32 0, i32 6
  %4 = getelementptr inbounds %struct.GPR, %struct.GPR* %3, i32 0, i32 33
  %5 = getelementptr inbounds %struct.Reg, %struct.Reg* %4, i32 0, i32 0
  %PC = bitcast %union.anon* %5 to i64*
  %6 = getelementptr inbounds %struct.State, %struct.State* %0, i32 0, i32 6
  %7 = getelementptr inbounds %struct.GPR, %struct.GPR* %6, i32 0, i32 7
  %8 = getelementptr inbounds %struct.Reg, %struct.Reg* %7, i32 0, i32 0
  %RDX = bitcast %union.anon* %8 to i64*
  %9 = getelementptr inbounds %struct.State, %struct.State* %0, i32 0, i32 6
  %10 = getelementptr inbounds %struct.GPR, %struct.GPR* %9, i32 0, i32 15
  %11 = getelementptr inbounds %struct.Reg, %struct.Reg* %10, i32 0, i32 0
  %RBP = bitcast %union.anon* %11 to i64*
  %12 = load i64, i64* %RBP
  %13 = sub i64 %12, 56
  %14 = load i64, i64* %PC
  %15 = add i64 %14, 3
  store i64 %15, i64* %PC
  %16 = call %struct.Memory* @_ZN12_GLOBAL__N_1L3MOVI3RnWImE2MnIjEEEP6MemoryS6_R5StateT_T0_(%struct.Memory* %2, %struct.State* %0, i64* %RDX, i64 %13)
  ret %struct.Memory* %16
}

define internal %struct.Memory* @_ZN12_GLOBAL__N_1L3SUBI3RnWImE2RnIjE2InIjEEEP6MemoryS8_R5StateT_T0_T1_(%struct.Memory* readnone returned, %struct.State* nocapture dereferenceable(3376), i64* nocapture, i64, i64) #0 {
  %6 = trunc i64 %3 to i32
  %7 = trunc i64 %4 to i32
  %8 = sub i32 %6, %7
  %9 = zext i32 %8 to i64
  store i64 %9, i64* %2, align 8
  %10 = icmp ult i32 %6, %7
  %11 = zext i1 %10 to i8
  %12 = getelementptr inbounds %struct.State, %struct.State* %1, i64 0, i32 2, i32 1
  store i8 %11, i8* %12, align 1
  %13 = and i32 %8, 255
  %14 = tail call i32 @llvm.ctpop.i32(i32 %13) #22
  %15 = trunc i32 %14 to i8
  %16 = and i8 %15, 1
  %17 = xor i8 %16, 1
  %18 = getelementptr inbounds %struct.State, %struct.State* %1, i64 0, i32 2, i32 3
  store i8 %17, i8* %18, align 1
  %19 = xor i64 %4, %3
  %20 = trunc i64 %19 to i32
  %21 = xor i32 %20, %8
  %22 = lshr i32 %21, 4
  %23 = trunc i32 %22 to i8
  %24 = and i8 %23, 1
  %25 = getelementptr inbounds %struct.State, %struct.State* %1, i64 0, i32 2, i32 5
  store i8 %24, i8* %25, align 1
  %26 = icmp eq i32 %8, 0
  %27 = zext i1 %26 to i8
  %28 = getelementptr inbounds %struct.State, %struct.State* %1, i64 0, i32 2, i32 7
  store i8 %27, i8* %28, align 1
  %29 = lshr i32 %8, 31
  %30 = trunc i32 %29 to i8
  %31 = getelementptr inbounds %struct.State, %struct.State* %1, i64 0, i32 2, i32 9
  store i8 %30, i8* %31, align 1
  %32 = lshr i32 %6, 31
  %33 = lshr i32 %7, 31
  %34 = xor i32 %33, %32
  %35 = xor i32 %29, %32
  %36 = add   i32 %35, %34
  %37 = icmp eq i32 %36, 2
  %38 = zext i1 %37 to i8
  %39 = getelementptr inbounds %struct.State, %struct.State* %1, i64 0, i32 2, i32 13
  store i8 %38, i8* %39, align 1
  ret %struct.Memory* %0
}

define %struct.Memory* @routine_subl__0x1___edx(%struct.State*  dereferenceable(3376), i64, %struct.Memory* ) #19 {
block_400488:
  %3 = getelementptr inbounds %struct.State, %struct.State* %0, i32 0, i32 6
  %4 = getelementptr inbounds %struct.GPR, %struct.GPR* %3, i32 0, i32 33
  %5 = getelementptr inbounds %struct.Reg, %struct.Reg* %4, i32 0, i32 0
  %PC = bitcast %union.anon* %5 to i64*
  %6 = getelementptr inbounds %struct.State, %struct.State* %0, i32 0, i32 6
  %7 = getelementptr inbounds %struct.GPR, %struct.GPR* %6, i32 0, i32 7
  %8 = getelementptr inbounds %struct.Reg, %struct.Reg* %7, i32 0, i32 0
  %RDX = bitcast %union.anon* %8 to i64*
  %9 = load i64, i64* %RDX
  %10 = load i64, i64* %PC
  %11 = add i64 %10, 3
  store i64 %11, i64* %PC
  %12 = call %struct.Memory* @_ZN12_GLOBAL__N_1L3SUBI3RnWImE2RnIjE2InIjEEEP6MemoryS8_R5StateT_T0_T1_(%struct.Memory* %2, %struct.State* %0, i64* %RDX, i64 %9, i64 1)
  ret %struct.Memory* %12
}

define internal %struct.Memory* @_ZN12_GLOBAL__N_1L5MOVSXI3RnWImE2RnIjElEEP6MemoryS6_R5StateT_T0_(%struct.Memory* readnone returned, %struct.State* nocapture readnone dereferenceable(3376), i64* nocapture, i64) #2 {
  %5 = shl i64 %3, 32
  %6 = ashr exact i64 %5, 32
  store i64 %6, i64* %2, align 8
  ret %struct.Memory* %0
}

define %struct.Memory* @routine_movslq__edx___rcx(%struct.State*  dereferenceable(3376), i64, %struct.Memory* ) #19 {
block_400488:
  %3 = getelementptr inbounds %struct.State, %struct.State* %0, i32 0, i32 6
  %4 = getelementptr inbounds %struct.GPR, %struct.GPR* %3, i32 0, i32 33
  %5 = getelementptr inbounds %struct.Reg, %struct.Reg* %4, i32 0, i32 0
  %PC = bitcast %union.anon* %5 to i64*
  %6 = getelementptr inbounds %struct.State, %struct.State* %0, i32 0, i32 6
  %7 = getelementptr inbounds %struct.GPR, %struct.GPR* %6, i32 0, i32 7
  %8 = getelementptr inbounds %struct.Reg, %struct.Reg* %7, i32 0, i32 0
  %EDX = bitcast %union.anon* %8 to i32*
  %9 = getelementptr inbounds %struct.State, %struct.State* %0, i32 0, i32 6
  %10 = getelementptr inbounds %struct.GPR, %struct.GPR* %9, i32 0, i32 5
  %11 = getelementptr inbounds %struct.Reg, %struct.Reg* %10, i32 0, i32 0
  %RCX = bitcast %union.anon* %11 to i64*
  %12 = load i32, i32* %EDX
  %13 = zext i32 %12 to i64
  %14 = load i64, i64* %PC
  %15 = add i64 %14, 3
  store i64 %15, i64* %PC
  %16 = call %struct.Memory* @_ZN12_GLOBAL__N_1L5MOVSXI3RnWImE2RnIjElEEP6MemoryS6_R5StateT_T0_(%struct.Memory* %2, %struct.State* %0, i64* %RCX, i64 %13)
  ret %struct.Memory* %16
}







define internal %struct.Memory* @_ZN12_GLOBAL__N_1L5SUBSDI3VnWI8vec128_tE2VnIS2_E3MVnI7vec64_tEEEP6MemorySA_R5StateT_T0_T1_(%struct.Memory* returned, %struct.State* nocapture readnone dereferenceable(3376), i8* nocapture, i8* nocapture readonly, i64) #0 {
  %6 = bitcast i8* %3 to double*
  %7 = load double, double* %6, align 1
  %8 = getelementptr inbounds i8, i8* %3, i64 8
  %9 = bitcast i8* %8 to i64*
  %10 = load i64, i64* %9, align 1
  %11 = inttoptr i64 %4 to double*
  %12 = load double, double* %11
  %13 = fsub double %7, %12
  %14 = bitcast i8* %2 to double*
  store double %13, double* %14, align 1
  %15 = getelementptr inbounds i8, i8* %2, i64 8
  %16 = bitcast i8* %15 to i64*
  store i64 %10, i64* %16, align 1
  ret %struct.Memory* %0
}

define %struct.Memory* @routine_subsd___rax__rcx_8____xmm2(%struct.State*  dereferenceable(3376), i64, %struct.Memory* ) #19 {
block_400488:
  %3 = getelementptr inbounds %struct.State, %struct.State* %0, i32 0, i32 6
  %4 = getelementptr inbounds %struct.GPR, %struct.GPR* %3, i32 0, i32 33
  %5 = getelementptr inbounds %struct.Reg, %struct.Reg* %4, i32 0, i32 0
  %PC = bitcast %union.anon* %5 to i64*
  %6 = getelementptr inbounds %struct.State, %struct.State* %0, i32 0, i32 6
  %7 = getelementptr inbounds %struct.GPR, %struct.GPR* %6, i32 0, i32 1
  %8 = getelementptr inbounds %struct.Reg, %struct.Reg* %7, i32 0, i32 0
  %RAX = bitcast %union.anon* %8 to i64*
  %9 = getelementptr inbounds %struct.State, %struct.State* %0, i32 0, i32 6
  %10 = getelementptr inbounds %struct.GPR, %struct.GPR* %9, i32 0, i32 5
  %11 = getelementptr inbounds %struct.Reg, %struct.Reg* %10, i32 0, i32 0
  %RCX = bitcast %union.anon* %11 to i64*
  %12 = getelementptr inbounds %struct.State, %struct.State* %0, i32 0, i32 1
  %13 = getelementptr inbounds [32 x %union.VectorReg], [32 x %union.VectorReg]* %12, i64 0, i64 2
  %YMM2 = bitcast %union.VectorReg* %13 to %"class.std::bitset"*
  %14 = bitcast %"class.std::bitset"* %YMM2 to i8*
  %15 = bitcast %"class.std::bitset"* %YMM2 to i8*
  %16 = load i64, i64* %RAX
  %17 = load i64, i64* %RCX
  %18 = mul i64 %17, 8
  %19 = add i64 %18, %16
  %20 = load i64, i64* %PC
  %21 = add i64 %20, 5
  store i64 %21, i64* %PC
  %22 = call %struct.Memory* @_ZN12_GLOBAL__N_1L5SUBSDI3VnWI8vec128_tE2VnIS2_E3MVnI7vec64_tEEEP6MemorySA_R5StateT_T0_T1_(%struct.Memory* %2, %struct.State* %0, i8* %14, i8* %15, i64 %19)
  ret %struct.Memory* %22
}

define internal %struct.Memory* @_ZN12_GLOBAL__N_1L5MULSDI3VnWI8vec128_tE2VnIS2_ES5_EEP6MemoryS7_R5StateT_T0_T1_(%struct.Memory* readnone returned, %struct.State* nocapture readnone dereferenceable(3376), i8* nocapture, i8* nocapture readonly, i8* nocapture readonly) #0 {
  %6 = bitcast i8* %3 to double*
  %7 = load double, double* %6, align 1
  %8 = getelementptr inbounds i8, i8* %3, i64 8
  %9 = bitcast i8* %8 to i64*
  %10 = load i64, i64* %9, align 1
  %11 = bitcast i8* %4 to double*
  %12 = load double, double* %11, align 1
  %13 = fmul double %7, %12
  %14 = bitcast i8* %2 to double*
  store double %13, double* %14, align 1
  %15 = getelementptr inbounds i8, i8* %2, i64 8
  %16 = bitcast i8* %15 to i64*
  store i64 %10, i64* %16, align 1
  ret %struct.Memory* %0
}

define %struct.Memory* @routine_mulsd__xmm2___xmm0(%struct.State*  dereferenceable(3376), i64, %struct.Memory* ) #19 {
block_400488:
  %3 = getelementptr inbounds %struct.State, %struct.State* %0, i32 0, i32 6
  %4 = getelementptr inbounds %struct.GPR, %struct.GPR* %3, i32 0, i32 33
  %5 = getelementptr inbounds %struct.Reg, %struct.Reg* %4, i32 0, i32 0
  %PC = bitcast %union.anon* %5 to i64*
  %6 = getelementptr inbounds %struct.State, %struct.State* %0, i32 0, i32 1
  %7 = getelementptr inbounds [32 x %union.VectorReg], [32 x %union.VectorReg]* %6, i64 0, i64 0
  %YMM0 = bitcast %union.VectorReg* %7 to %"class.std::bitset"*
  %8 = getelementptr inbounds %struct.State, %struct.State* %0, i32 0, i32 1
  %9 = getelementptr inbounds [32 x %union.VectorReg], [32 x %union.VectorReg]* %8, i64 0, i64 2
  %XMM2 = bitcast %union.VectorReg* %9 to %union.vec128_t*
  %10 = bitcast %"class.std::bitset"* %YMM0 to i8*
  %11 = bitcast %"class.std::bitset"* %YMM0 to i8*
  %12 = bitcast %union.vec128_t* %XMM2 to i8*
  %13 = load i64, i64* %PC
  %14 = add i64 %13, 4
  store i64 %14, i64* %PC
  %15 = call %struct.Memory* @_ZN12_GLOBAL__N_1L5MULSDI3VnWI8vec128_tE2VnIS2_ES5_EEP6MemoryS7_R5StateT_T0_T1_(%struct.Memory* %2, %struct.State* %0, i8* %10, i8* %11, i8* %12)
  ret %struct.Memory* %15
}

define internal %struct.Memory* @_ZN12_GLOBAL__N_1L5SUBSDI3VnWI8vec128_tE2VnIS2_ES5_EEP6MemoryS7_R5StateT_T0_T1_(%struct.Memory* readnone returned, %struct.State* nocapture readnone dereferenceable(3376), i8* nocapture, i8* nocapture readonly, i8* nocapture readonly) #0 {
  %6 = bitcast i8* %3 to double*
  %7 = load double, double* %6, align 1
  %8 = getelementptr inbounds i8, i8* %3, i64 8
  %9 = bitcast i8* %8 to i64*
  %10 = load i64, i64* %9, align 1
  %11 = bitcast i8* %4 to double*
  %12 = load double, double* %11, align 1
  %13 = fsub double %7, %12
  %14 = bitcast i8* %2 to double*
  store double %13, double* %14, align 1
  %15 = getelementptr inbounds i8, i8* %2, i64 8
  %16 = bitcast i8* %15 to i64*
  store i64 %10, i64* %16, align 1
  ret %struct.Memory* %0
}

define %struct.Memory* @routine_subsd__xmm0___xmm1(%struct.State*  dereferenceable(3376), i64, %struct.Memory* ) #19 {
block_400488:
  %3 = getelementptr inbounds %struct.State, %struct.State* %0, i32 0, i32 6
  %4 = getelementptr inbounds %struct.GPR, %struct.GPR* %3, i32 0, i32 33
  %5 = getelementptr inbounds %struct.Reg, %struct.Reg* %4, i32 0, i32 0
  %PC = bitcast %union.anon* %5 to i64*
  %6 = getelementptr inbounds %struct.State, %struct.State* %0, i32 0, i32 1
  %7 = getelementptr inbounds [32 x %union.VectorReg], [32 x %union.VectorReg]* %6, i64 0, i64 1
  %YMM1 = bitcast %union.VectorReg* %7 to %"class.std::bitset"*
  %8 = getelementptr inbounds %struct.State, %struct.State* %0, i32 0, i32 1
  %9 = getelementptr inbounds [32 x %union.VectorReg], [32 x %union.VectorReg]* %8, i64 0, i64 0
  %XMM0 = bitcast %union.VectorReg* %9 to %union.vec128_t*
  %10 = bitcast %"class.std::bitset"* %YMM1 to i8*
  %11 = bitcast %"class.std::bitset"* %YMM1 to i8*
  %12 = bitcast %union.vec128_t* %XMM0 to i8*
  %13 = load i64, i64* %PC
  %14 = add i64 %13, 4
  store i64 %14, i64* %PC
  %15 = call %struct.Memory* @_ZN12_GLOBAL__N_1L5SUBSDI3VnWI8vec128_tE2VnIS2_ES5_EEP6MemoryS7_R5StateT_T0_T1_(%struct.Memory* %2, %struct.State* %0, i8* %10, i8* %11, i8* %12)
  ret %struct.Memory* %15
}












define %struct.Memory* @routine_movsd__xmm1____rax__rcx_8_(%struct.State*  dereferenceable(3376), i64, %struct.Memory* ) #19 {
block_400488:
  %3 = getelementptr inbounds %struct.State, %struct.State* %0, i32 0, i32 6
  %4 = getelementptr inbounds %struct.GPR, %struct.GPR* %3, i32 0, i32 33
  %5 = getelementptr inbounds %struct.Reg, %struct.Reg* %4, i32 0, i32 0
  %PC = bitcast %union.anon* %5 to i64*
  %6 = getelementptr inbounds %struct.State, %struct.State* %0, i32 0, i32 6
  %7 = getelementptr inbounds %struct.GPR, %struct.GPR* %6, i32 0, i32 1
  %8 = getelementptr inbounds %struct.Reg, %struct.Reg* %7, i32 0, i32 0
  %RAX = bitcast %union.anon* %8 to i64*
  %9 = getelementptr inbounds %struct.State, %struct.State* %0, i32 0, i32 6
  %10 = getelementptr inbounds %struct.GPR, %struct.GPR* %9, i32 0, i32 5
  %11 = getelementptr inbounds %struct.Reg, %struct.Reg* %10, i32 0, i32 0
  %RCX = bitcast %union.anon* %11 to i64*
  %12 = getelementptr inbounds %struct.State, %struct.State* %0, i32 0, i32 1
  %13 = getelementptr inbounds [32 x %union.VectorReg], [32 x %union.VectorReg]* %12, i64 0, i64 1
  %XMM1 = bitcast %union.VectorReg* %13 to %union.vec128_t*
  %14 = load i64, i64* %RAX
  %15 = load i64, i64* %RCX
  %16 = mul i64 %15, 8
  %17 = add i64 %16, %14
  %18 = bitcast %union.vec128_t* %XMM1 to i8*
  %19 = load i64, i64* %PC
  %20 = add i64 %19, 5
  store i64 %20, i64* %PC
  %21 = call %struct.Memory* @_ZN12_GLOBAL__N_1L9MOVSD_MEMI4MVnWI7vec64_tE2VnI8vec128_tEEEP6MemoryS8_R5StateT_T0_(%struct.Memory* %2, %struct.State* %0, i64 %17, i8* %18)
  ret %struct.Memory* %21
}








define %struct.Memory* @routine_jmpq_.L_400cd9(%struct.State*  dereferenceable(3376), i64, %struct.Memory*, i64 %rel_off1, i64 %rel_off2) {
block_400488:
  %3 = getelementptr inbounds %struct.State, %struct.State* %0, i32 0, i32 6
  %4 = getelementptr inbounds %struct.GPR, %struct.GPR* %3, i32 0, i32 33
  %5 = getelementptr inbounds %struct.Reg, %struct.Reg* %4, i32 0, i32 0
  %PC = bitcast %union.anon* %5 to i64*
  %6 = load i64, i64* %PC
  %7 = add i64 %6, %rel_off1
  %8 = load i64, i64* %PC
  %9 = add i64 %8, %rel_off2
  store i64 %9, i64* %PC
  %10 = call %struct.Memory* @_ZN12_GLOBAL__N_1L3JMPI2InImEEEP6MemoryS4_R5StateT_(%struct.Memory* %2, %struct.State* %0, i64 %7)
  ret %struct.Memory* %10
}


define %struct.Memory* @routine_jmpq_.L_400d79(%struct.State*  dereferenceable(3376), i64, %struct.Memory*, i64 %rel_off1, i64 %rel_off2) {
block_400488:
  %3 = getelementptr inbounds %struct.State, %struct.State* %0, i32 0, i32 6
  %4 = getelementptr inbounds %struct.GPR, %struct.GPR* %3, i32 0, i32 33
  %5 = getelementptr inbounds %struct.Reg, %struct.Reg* %4, i32 0, i32 0
  %PC = bitcast %union.anon* %5 to i64*
  %6 = load i64, i64* %PC
  %7 = add i64 %6, %rel_off1
  %8 = load i64, i64* %PC
  %9 = add i64 %8, %rel_off2
  store i64 %9, i64* %PC
  %10 = call %struct.Memory* @_ZN12_GLOBAL__N_1L3JMPI2InImEEEP6MemoryS4_R5StateT_(%struct.Memory* %2, %struct.State* %0, i64 %7)
  ret %struct.Memory* %10
}






define %struct.Memory* @routine_movl__eax__MINUS0x38__rbp_(%struct.State*  dereferenceable(3376), i64, %struct.Memory* ) #19 {
block_400488:
  %3 = getelementptr inbounds %struct.State, %struct.State* %0, i32 0, i32 6
  %4 = getelementptr inbounds %struct.GPR, %struct.GPR* %3, i32 0, i32 33
  %5 = getelementptr inbounds %struct.Reg, %struct.Reg* %4, i32 0, i32 0
  %PC = bitcast %union.anon* %5 to i64*
  %6 = getelementptr inbounds %struct.State, %struct.State* %0, i32 0, i32 6
  %7 = getelementptr inbounds %struct.GPR, %struct.GPR* %6, i32 0, i32 1
  %8 = getelementptr inbounds %struct.Reg, %struct.Reg* %7, i32 0, i32 0
  %EAX = bitcast %union.anon* %8 to i32*
  %9 = getelementptr inbounds %struct.State, %struct.State* %0, i32 0, i32 6
  %10 = getelementptr inbounds %struct.GPR, %struct.GPR* %9, i32 0, i32 15
  %11 = getelementptr inbounds %struct.Reg, %struct.Reg* %10, i32 0, i32 0
  %RBP = bitcast %union.anon* %11 to i64*
  %12 = load i64, i64* %RBP
  %13 = sub i64 %12, 56
  %14 = load i32, i32* %EAX
  %15 = zext i32 %14 to i64
  %16 = load i64, i64* %PC
  %17 = add i64 %16, 3
  store i64 %17, i64* %PC
  %18 = call %struct.Memory* @_ZN12_GLOBAL__N_1L3MOVI3MnWIjE2RnIjEEEP6MemoryS6_R5StateT_T0_(%struct.Memory* %2, %struct.State* %0, i64 %13, i64 %15)
  ret %struct.Memory* %18
}


define %struct.Memory* @routine_jmpq_.L_400cc6(%struct.State*  dereferenceable(3376), i64, %struct.Memory*, i64 %rel_off1, i64 %rel_off2) {
block_400488:
  %3 = getelementptr inbounds %struct.State, %struct.State* %0, i32 0, i32 6
  %4 = getelementptr inbounds %struct.GPR, %struct.GPR* %3, i32 0, i32 33
  %5 = getelementptr inbounds %struct.Reg, %struct.Reg* %4, i32 0, i32 0
  %PC = bitcast %union.anon* %5 to i64*
  %6 = load i64, i64* %PC
  %7 = add i64 %6, %rel_off1
  %8 = load i64, i64* %PC
  %9 = add i64 %8, %rel_off2
  store i64 %9, i64* %PC
  %10 = call %struct.Memory* @_ZN12_GLOBAL__N_1L3JMPI2InImEEEP6MemoryS4_R5StateT_(%struct.Memory* %2, %struct.State* %0, i64 %7)
  ret %struct.Memory* %10
}


define %struct.Memory* @routine_movl__0x0__MINUS0x38__rbp_(%struct.State*  dereferenceable(3376), i64, %struct.Memory* ) #19 {
block_400488:
  %3 = getelementptr inbounds %struct.State, %struct.State* %0, i32 0, i32 6
  %4 = getelementptr inbounds %struct.GPR, %struct.GPR* %3, i32 0, i32 33
  %5 = getelementptr inbounds %struct.Reg, %struct.Reg* %4, i32 0, i32 0
  %PC = bitcast %union.anon* %5 to i64*
  %6 = getelementptr inbounds %struct.State, %struct.State* %0, i32 0, i32 6
  %7 = getelementptr inbounds %struct.GPR, %struct.GPR* %6, i32 0, i32 15
  %8 = getelementptr inbounds %struct.Reg, %struct.Reg* %7, i32 0, i32 0
  %RBP = bitcast %union.anon* %8 to i64*
  %9 = load i64, i64* %RBP
  %10 = sub i64 %9, 56
  %11 = load i64, i64* %PC
  %12 = add i64 %11, 7
  store i64 %12, i64* %PC
  %13 = call %struct.Memory* @_ZN12_GLOBAL__N_1L3MOVI3MnWIjE2InIjEEEP6MemoryS6_R5StateT_T0_(%struct.Memory* %2, %struct.State* %0, i64 %10, i64 0)
  ret %struct.Memory* %13
}






define %struct.Memory* @routine_jge_.L_400e4f(%struct.State*  dereferenceable(3376), i64, %struct.Memory*, i8* %BRANCH_TAKEN, i64 %rel_off1, i64 %rel_off2, i64 %rel_off3) {
block_400488:
  %3 = getelementptr inbounds %struct.State, %struct.State* %0, i32 0, i32 6
  %4 = getelementptr inbounds %struct.GPR, %struct.GPR* %3, i32 0, i32 33
  %5 = getelementptr inbounds %struct.Reg, %struct.Reg* %4, i32 0, i32 0
  %PC = bitcast %union.anon* %5 to i64*
  %6 = load i64, i64* %PC
  %7 = add i64 %6, %rel_off1
  %8 = load i64, i64* %PC
  %9 = add i64 %8, %rel_off2
  %10 = load i64, i64* %PC
  %11 = add i64 %10, %rel_off3
  store i64 %11, i64* %PC
  %12 = call %struct.Memory* @_ZN12_GLOBAL__N_1L3JNLEP6MemoryR5State3RnWIhE2InImES7_(%struct.Memory* %2, %struct.State* %0, i8* %BRANCH_TAKEN, i64 %7, i64 %9)
  ret %struct.Memory* %12
}


define %struct.Memory* @routine_movl__0x1__MINUS0x3c__rbp_(%struct.State*  dereferenceable(3376), i64, %struct.Memory* ) #19 {
block_400488:
  %3 = getelementptr inbounds %struct.State, %struct.State* %0, i32 0, i32 6
  %4 = getelementptr inbounds %struct.GPR, %struct.GPR* %3, i32 0, i32 33
  %5 = getelementptr inbounds %struct.Reg, %struct.Reg* %4, i32 0, i32 0
  %PC = bitcast %union.anon* %5 to i64*
  %6 = getelementptr inbounds %struct.State, %struct.State* %0, i32 0, i32 6
  %7 = getelementptr inbounds %struct.GPR, %struct.GPR* %6, i32 0, i32 15
  %8 = getelementptr inbounds %struct.Reg, %struct.Reg* %7, i32 0, i32 0
  %RBP = bitcast %union.anon* %8 to i64*
  %9 = load i64, i64* %RBP
  %10 = sub i64 %9, 60
  %11 = load i64, i64* %PC
  %12 = add i64 %11, 7
  store i64 %12, i64* %PC
  %13 = call %struct.Memory* @_ZN12_GLOBAL__N_1L3MOVI3MnWIjE2InIjEEEP6MemoryS6_R5StateT_T0_(%struct.Memory* %2, %struct.State* %0, i64 %10, i64 1)
  ret %struct.Memory* %13
}






define %struct.Memory* @routine_jge_.L_400e3c(%struct.State*  dereferenceable(3376), i64, %struct.Memory*, i8* %BRANCH_TAKEN, i64 %rel_off1, i64 %rel_off2, i64 %rel_off3) {
block_400488:
  %3 = getelementptr inbounds %struct.State, %struct.State* %0, i32 0, i32 6
  %4 = getelementptr inbounds %struct.GPR, %struct.GPR* %3, i32 0, i32 33
  %5 = getelementptr inbounds %struct.Reg, %struct.Reg* %4, i32 0, i32 0
  %PC = bitcast %union.anon* %5 to i64*
  %6 = load i64, i64* %PC
  %7 = add i64 %6, %rel_off1
  %8 = load i64, i64* %PC
  %9 = add i64 %8, %rel_off2
  %10 = load i64, i64* %PC
  %11 = add i64 %10, %rel_off3
  store i64 %11, i64* %PC
  %12 = call %struct.Memory* @_ZN12_GLOBAL__N_1L3JNLEP6MemoryR5State3RnWIhE2InImES7_(%struct.Memory* %2, %struct.State* %0, i8* %BRANCH_TAKEN, i64 %7, i64 %9)
  ret %struct.Memory* %12
}


define %struct.Memory* @routine_movsd_0x8db__rip____xmm0(%struct.State*  dereferenceable(3376), i64, %struct.Memory* ) #19 {
block_400488:
  %3 = getelementptr inbounds %struct.State, %struct.State* %0, i32 0, i32 6
  %4 = getelementptr inbounds %struct.GPR, %struct.GPR* %3, i32 0, i32 33
  %5 = getelementptr inbounds %struct.Reg, %struct.Reg* %4, i32 0, i32 0
  %PC = bitcast %union.anon* %5 to i64*
  %6 = getelementptr inbounds %struct.State, %struct.State* %0, i32 0, i32 1
  %7 = getelementptr inbounds [32 x %union.VectorReg], [32 x %union.VectorReg]* %6, i64 0, i64 0
  %YMM0 = bitcast %union.VectorReg* %7 to %"class.std::bitset"*
  %8 = bitcast %"class.std::bitset"* %YMM0 to i8*
  %9 = load i64, i64* %PC
  %10 = add i64 %9, 2275
  %11 = load i64, i64* %PC
  %12 = add i64 %11, 8
  store i64 %12, i64* %PC
  %13 = call %struct.Memory* @_ZN12_GLOBAL__N_1L9MOVSD_MEMI3VnWI8vec128_tE3MVnI7vec64_tEEEP6MemoryS8_R5StateT_T0_(%struct.Memory* %2, %struct.State* %0, i8* %8, i64 %10)
  ret %struct.Memory* %13
}


define %struct.Memory* @routine_movq_MINUS0x18__rbp____rax(%struct.State*  dereferenceable(3376), i64, %struct.Memory* ) #19 {
block_400488:
  %3 = getelementptr inbounds %struct.State, %struct.State* %0, i32 0, i32 6
  %4 = getelementptr inbounds %struct.GPR, %struct.GPR* %3, i32 0, i32 33
  %5 = getelementptr inbounds %struct.Reg, %struct.Reg* %4, i32 0, i32 0
  %PC = bitcast %union.anon* %5 to i64*
  %6 = getelementptr inbounds %struct.State, %struct.State* %0, i32 0, i32 6
  %7 = getelementptr inbounds %struct.GPR, %struct.GPR* %6, i32 0, i32 1
  %8 = getelementptr inbounds %struct.Reg, %struct.Reg* %7, i32 0, i32 0
  %RAX = bitcast %union.anon* %8 to i64*
  %9 = getelementptr inbounds %struct.State, %struct.State* %0, i32 0, i32 6
  %10 = getelementptr inbounds %struct.GPR, %struct.GPR* %9, i32 0, i32 15
  %11 = getelementptr inbounds %struct.Reg, %struct.Reg* %10, i32 0, i32 0
  %RBP = bitcast %union.anon* %11 to i64*
  %12 = load i64, i64* %RBP
  %13 = sub i64 %12, 24
  %14 = load i64, i64* %PC
  %15 = add i64 %14, 4
  store i64 %15, i64* %PC
  %16 = call %struct.Memory* @_ZN12_GLOBAL__N_1L3MOVI3RnWImE2MnImEEEP6MemoryS6_R5StateT_T0_(%struct.Memory* %2, %struct.State* %0, i64* %RAX, i64 %13)
  ret %struct.Memory* %16
}
































define %struct.Memory* @routine_movl_MINUS0x3c__rbp____edx(%struct.State*  dereferenceable(3376), i64, %struct.Memory* ) #19 {
block_400488:
  %3 = getelementptr inbounds %struct.State, %struct.State* %0, i32 0, i32 6
  %4 = getelementptr inbounds %struct.GPR, %struct.GPR* %3, i32 0, i32 33
  %5 = getelementptr inbounds %struct.Reg, %struct.Reg* %4, i32 0, i32 0
  %PC = bitcast %union.anon* %5 to i64*
  %6 = getelementptr inbounds %struct.State, %struct.State* %0, i32 0, i32 6
  %7 = getelementptr inbounds %struct.GPR, %struct.GPR* %6, i32 0, i32 7
  %8 = getelementptr inbounds %struct.Reg, %struct.Reg* %7, i32 0, i32 0
  %RDX = bitcast %union.anon* %8 to i64*
  %9 = getelementptr inbounds %struct.State, %struct.State* %0, i32 0, i32 6
  %10 = getelementptr inbounds %struct.GPR, %struct.GPR* %9, i32 0, i32 15
  %11 = getelementptr inbounds %struct.Reg, %struct.Reg* %10, i32 0, i32 0
  %RBP = bitcast %union.anon* %11 to i64*
  %12 = load i64, i64* %RBP
  %13 = sub i64 %12, 60
  %14 = load i64, i64* %PC
  %15 = add i64 %14, 3
  store i64 %15, i64* %PC
  %16 = call %struct.Memory* @_ZN12_GLOBAL__N_1L3MOVI3RnWImE2MnIjEEEP6MemoryS6_R5StateT_T0_(%struct.Memory* %2, %struct.State* %0, i64* %RDX, i64 %13)
  ret %struct.Memory* %16
}






























define %struct.Memory* @routine_jmpq_.L_400da1(%struct.State*  dereferenceable(3376), i64, %struct.Memory*, i64 %rel_off1, i64 %rel_off2) {
block_400488:
  %3 = getelementptr inbounds %struct.State, %struct.State* %0, i32 0, i32 6
  %4 = getelementptr inbounds %struct.GPR, %struct.GPR* %3, i32 0, i32 33
  %5 = getelementptr inbounds %struct.Reg, %struct.Reg* %4, i32 0, i32 0
  %PC = bitcast %union.anon* %5 to i64*
  %6 = load i64, i64* %PC
  %7 = add i64 %6, %rel_off1
  %8 = load i64, i64* %PC
  %9 = add i64 %8, %rel_off2
  store i64 %9, i64* %PC
  %10 = call %struct.Memory* @_ZN12_GLOBAL__N_1L3JMPI2InImEEEP6MemoryS4_R5StateT_(%struct.Memory* %2, %struct.State* %0, i64 %7)
  ret %struct.Memory* %10
}


define %struct.Memory* @routine_jmpq_.L_400e41(%struct.State*  dereferenceable(3376), i64, %struct.Memory*, i64 %rel_off1, i64 %rel_off2) {
block_400488:
  %3 = getelementptr inbounds %struct.State, %struct.State* %0, i32 0, i32 6
  %4 = getelementptr inbounds %struct.GPR, %struct.GPR* %3, i32 0, i32 33
  %5 = getelementptr inbounds %struct.Reg, %struct.Reg* %4, i32 0, i32 0
  %PC = bitcast %union.anon* %5 to i64*
  %6 = load i64, i64* %PC
  %7 = add i64 %6, %rel_off1
  %8 = load i64, i64* %PC
  %9 = add i64 %8, %rel_off2
  store i64 %9, i64* %PC
  %10 = call %struct.Memory* @_ZN12_GLOBAL__N_1L3JMPI2InImEEEP6MemoryS4_R5StateT_(%struct.Memory* %2, %struct.State* %0, i64 %7)
  ret %struct.Memory* %10
}








define %struct.Memory* @routine_jmpq_.L_400d8e(%struct.State*  dereferenceable(3376), i64, %struct.Memory*, i64 %rel_off1, i64 %rel_off2) {
block_400488:
  %3 = getelementptr inbounds %struct.State, %struct.State* %0, i32 0, i32 6
  %4 = getelementptr inbounds %struct.GPR, %struct.GPR* %3, i32 0, i32 33
  %5 = getelementptr inbounds %struct.Reg, %struct.Reg* %4, i32 0, i32 0
  %PC = bitcast %union.anon* %5 to i64*
  %6 = load i64, i64* %PC
  %7 = add i64 %6, %rel_off1
  %8 = load i64, i64* %PC
  %9 = add i64 %8, %rel_off2
  store i64 %9, i64* %PC
  %10 = call %struct.Memory* @_ZN12_GLOBAL__N_1L3JMPI2InImEEEP6MemoryS4_R5StateT_(%struct.Memory* %2, %struct.State* %0, i64 %7)
  ret %struct.Memory* %10
}






define %struct.Memory* @routine_movl_MINUS0x8__rbp____ecx(%struct.State*  dereferenceable(3376), i64, %struct.Memory* ) #19 {
block_400488:
  %3 = getelementptr inbounds %struct.State, %struct.State* %0, i32 0, i32 6
  %4 = getelementptr inbounds %struct.GPR, %struct.GPR* %3, i32 0, i32 33
  %5 = getelementptr inbounds %struct.Reg, %struct.Reg* %4, i32 0, i32 0
  %PC = bitcast %union.anon* %5 to i64*
  %6 = getelementptr inbounds %struct.State, %struct.State* %0, i32 0, i32 6
  %7 = getelementptr inbounds %struct.GPR, %struct.GPR* %6, i32 0, i32 5
  %8 = getelementptr inbounds %struct.Reg, %struct.Reg* %7, i32 0, i32 0
  %RCX = bitcast %union.anon* %8 to i64*
  %9 = getelementptr inbounds %struct.State, %struct.State* %0, i32 0, i32 6
  %10 = getelementptr inbounds %struct.GPR, %struct.GPR* %9, i32 0, i32 15
  %11 = getelementptr inbounds %struct.Reg, %struct.Reg* %10, i32 0, i32 0
  %RBP = bitcast %union.anon* %11 to i64*
  %12 = load i64, i64* %RBP
  %13 = sub i64 %12, 8
  %14 = load i64, i64* %PC
  %15 = add i64 %14, 3
  store i64 %15, i64* %PC
  %16 = call %struct.Memory* @_ZN12_GLOBAL__N_1L3MOVI3RnWImE2MnIjEEEP6MemoryS6_R5StateT_T0_(%struct.Memory* %2, %struct.State* %0, i64* %RCX, i64 %13)
  ret %struct.Memory* %16
}


define %struct.Memory* @routine_subl__0x1___ecx(%struct.State*  dereferenceable(3376), i64, %struct.Memory* ) #19 {
block_400488:
  %3 = getelementptr inbounds %struct.State, %struct.State* %0, i32 0, i32 6
  %4 = getelementptr inbounds %struct.GPR, %struct.GPR* %3, i32 0, i32 33
  %5 = getelementptr inbounds %struct.Reg, %struct.Reg* %4, i32 0, i32 0
  %PC = bitcast %union.anon* %5 to i64*
  %6 = getelementptr inbounds %struct.State, %struct.State* %0, i32 0, i32 6
  %7 = getelementptr inbounds %struct.GPR, %struct.GPR* %6, i32 0, i32 5
  %8 = getelementptr inbounds %struct.Reg, %struct.Reg* %7, i32 0, i32 0
  %RCX = bitcast %union.anon* %8 to i64*
  %9 = load i64, i64* %RCX
  %10 = load i64, i64* %PC
  %11 = add i64 %10, 3
  store i64 %11, i64* %PC
  %12 = call %struct.Memory* @_ZN12_GLOBAL__N_1L3SUBI3RnWImE2RnIjE2InIjEEEP6MemoryS8_R5StateT_T0_T1_(%struct.Memory* %2, %struct.State* %0, i64* %RCX, i64 %9, i64 1)
  ret %struct.Memory* %12
}

define internal %struct.Memory* @_ZN12_GLOBAL__N_1L3CMPI2RnIjES2_EEP6MemoryS4_R5StateT_T0_(%struct.Memory* readnone returned, %struct.State* nocapture dereferenceable(3376), i64, i64) #0 {
  %5 = trunc i64 %2 to i32
  %6 = trunc i64 %3 to i32
  %7 = sub i32 %5, %6
  %8 = icmp ult i32 %5, %6
  %9 = zext i1 %8 to i8
  %10 = getelementptr inbounds %struct.State, %struct.State* %1, i64 0, i32 2, i32 1
  store i8 %9, i8* %10, align 1
  %11 = and i32 %7, 255
  %12 = tail call i32 @llvm.ctpop.i32(i32 %11) #22
  %13 = trunc i32 %12 to i8
  %14 = and i8 %13, 1
  %15 = xor i8 %14, 1
  %16 = getelementptr inbounds %struct.State, %struct.State* %1, i64 0, i32 2, i32 3
  store i8 %15, i8* %16, align 1
  %17 = xor i64 %3, %2
  %18 = trunc i64 %17 to i32
  %19 = xor i32 %18, %7
  %20 = lshr i32 %19, 4
  %21 = trunc i32 %20 to i8
  %22 = and i8 %21, 1
  %23 = getelementptr inbounds %struct.State, %struct.State* %1, i64 0, i32 2, i32 5
  store i8 %22, i8* %23, align 1
  %24 = icmp eq i32 %7, 0
  %25 = zext i1 %24 to i8
  %26 = getelementptr inbounds %struct.State, %struct.State* %1, i64 0, i32 2, i32 7
  store i8 %25, i8* %26, align 1
  %27 = lshr i32 %7, 31
  %28 = trunc i32 %27 to i8
  %29 = getelementptr inbounds %struct.State, %struct.State* %1, i64 0, i32 2, i32 9
  store i8 %28, i8* %29, align 1
  %30 = lshr i32 %5, 31
  %31 = lshr i32 %6, 31
  %32 = xor i32 %31, %30
  %33 = xor i32 %27, %30
  %34 = add   i32 %33, %32
  %35 = icmp eq i32 %34, 2
  %36 = zext i1 %35 to i8
  %37 = getelementptr inbounds %struct.State, %struct.State* %1, i64 0, i32 2, i32 13
  store i8 %36, i8* %37, align 1
  ret %struct.Memory* %0
}

define %struct.Memory* @routine_cmpl__ecx___eax(%struct.State*  dereferenceable(3376), i64, %struct.Memory* ) #19 {
block_400488:
  %3 = getelementptr inbounds %struct.State, %struct.State* %0, i32 0, i32 6
  %4 = getelementptr inbounds %struct.GPR, %struct.GPR* %3, i32 0, i32 33
  %5 = getelementptr inbounds %struct.Reg, %struct.Reg* %4, i32 0, i32 0
  %PC = bitcast %union.anon* %5 to i64*
  %6 = getelementptr inbounds %struct.State, %struct.State* %0, i32 0, i32 6
  %7 = getelementptr inbounds %struct.GPR, %struct.GPR* %6, i32 0, i32 1
  %8 = getelementptr inbounds %struct.Reg, %struct.Reg* %7, i32 0, i32 0
  %EAX = bitcast %union.anon* %8 to i32*
  %9 = getelementptr inbounds %struct.State, %struct.State* %0, i32 0, i32 6
  %10 = getelementptr inbounds %struct.GPR, %struct.GPR* %9, i32 0, i32 5
  %11 = getelementptr inbounds %struct.Reg, %struct.Reg* %10, i32 0, i32 0
  %ECX = bitcast %union.anon* %11 to i32*
  %12 = load i32, i32* %EAX
  %13 = zext i32 %12 to i64
  %14 = load i32, i32* %ECX
  %15 = zext i32 %14 to i64
  %16 = load i64, i64* %PC
  %17 = add i64 %16, 2
  store i64 %17, i64* %PC
  %18 = call %struct.Memory* @_ZN12_GLOBAL__N_1L3CMPI2RnIjES2_EEP6MemoryS4_R5StateT_T0_(%struct.Memory* %2, %struct.State* %0, i64 %13, i64 %15)
  ret %struct.Memory* %18
}


define %struct.Memory* @routine_jge_.L_400f5c(%struct.State*  dereferenceable(3376), i64, %struct.Memory*, i8* %BRANCH_TAKEN, i64 %rel_off1, i64 %rel_off2, i64 %rel_off3) {
block_400488:
  %3 = getelementptr inbounds %struct.State, %struct.State* %0, i32 0, i32 6
  %4 = getelementptr inbounds %struct.GPR, %struct.GPR* %3, i32 0, i32 33
  %5 = getelementptr inbounds %struct.Reg, %struct.Reg* %4, i32 0, i32 0
  %PC = bitcast %union.anon* %5 to i64*
  %6 = load i64, i64* %PC
  %7 = add i64 %6, %rel_off1
  %8 = load i64, i64* %PC
  %9 = add i64 %8, %rel_off2
  %10 = load i64, i64* %PC
  %11 = add i64 %10, %rel_off3
  store i64 %11, i64* %PC
  %12 = call %struct.Memory* @_ZN12_GLOBAL__N_1L3JNLEP6MemoryR5State3RnWIhE2InImES7_(%struct.Memory* %2, %struct.State* %0, i8* %BRANCH_TAKEN, i64 %7, i64 %9)
  ret %struct.Memory* %12
}






define %struct.Memory* @routine_movl_MINUS0xc__rbp____ecx(%struct.State*  dereferenceable(3376), i64, %struct.Memory* ) #19 {
block_400488:
  %3 = getelementptr inbounds %struct.State, %struct.State* %0, i32 0, i32 6
  %4 = getelementptr inbounds %struct.GPR, %struct.GPR* %3, i32 0, i32 33
  %5 = getelementptr inbounds %struct.Reg, %struct.Reg* %4, i32 0, i32 0
  %PC = bitcast %union.anon* %5 to i64*
  %6 = getelementptr inbounds %struct.State, %struct.State* %0, i32 0, i32 6
  %7 = getelementptr inbounds %struct.GPR, %struct.GPR* %6, i32 0, i32 5
  %8 = getelementptr inbounds %struct.Reg, %struct.Reg* %7, i32 0, i32 0
  %RCX = bitcast %union.anon* %8 to i64*
  %9 = getelementptr inbounds %struct.State, %struct.State* %0, i32 0, i32 6
  %10 = getelementptr inbounds %struct.GPR, %struct.GPR* %9, i32 0, i32 15
  %11 = getelementptr inbounds %struct.Reg, %struct.Reg* %10, i32 0, i32 0
  %RBP = bitcast %union.anon* %11 to i64*
  %12 = load i64, i64* %RBP
  %13 = sub i64 %12, 12
  %14 = load i64, i64* %PC
  %15 = add i64 %14, 3
  store i64 %15, i64* %PC
  %16 = call %struct.Memory* @_ZN12_GLOBAL__N_1L3MOVI3RnWImE2MnIjEEEP6MemoryS6_R5StateT_T0_(%struct.Memory* %2, %struct.State* %0, i64* %RCX, i64 %13)
  ret %struct.Memory* %16
}






define %struct.Memory* @routine_jge_.L_400f49(%struct.State*  dereferenceable(3376), i64, %struct.Memory*, i8* %BRANCH_TAKEN, i64 %rel_off1, i64 %rel_off2, i64 %rel_off3) {
block_400488:
  %3 = getelementptr inbounds %struct.State, %struct.State* %0, i32 0, i32 6
  %4 = getelementptr inbounds %struct.GPR, %struct.GPR* %3, i32 0, i32 33
  %5 = getelementptr inbounds %struct.Reg, %struct.Reg* %4, i32 0, i32 0
  %PC = bitcast %union.anon* %5 to i64*
  %6 = load i64, i64* %PC
  %7 = add i64 %6, %rel_off1
  %8 = load i64, i64* %PC
  %9 = add i64 %8, %rel_off2
  %10 = load i64, i64* %PC
  %11 = add i64 %10, %rel_off3
  store i64 %11, i64* %PC
  %12 = call %struct.Memory* @_ZN12_GLOBAL__N_1L3JNLEP6MemoryR5State3RnWIhE2InImES7_(%struct.Memory* %2, %struct.State* %0, i8* %BRANCH_TAKEN, i64 %7, i64 %9)
  ret %struct.Memory* %12
}


define %struct.Memory* @routine_movsd_0x801__rip____xmm0(%struct.State*  dereferenceable(3376), i64, %struct.Memory* ) #19 {
block_400488:
  %3 = getelementptr inbounds %struct.State, %struct.State* %0, i32 0, i32 6
  %4 = getelementptr inbounds %struct.GPR, %struct.GPR* %3, i32 0, i32 33
  %5 = getelementptr inbounds %struct.Reg, %struct.Reg* %4, i32 0, i32 0
  %PC = bitcast %union.anon* %5 to i64*
  %6 = getelementptr inbounds %struct.State, %struct.State* %0, i32 0, i32 1
  %7 = getelementptr inbounds [32 x %union.VectorReg], [32 x %union.VectorReg]* %6, i64 0, i64 0
  %YMM0 = bitcast %union.VectorReg* %7 to %"class.std::bitset"*
  %8 = bitcast %"class.std::bitset"* %YMM0 to i8*
  %9 = load i64, i64* %PC
  %10 = add i64 %9, 2057
  %11 = load i64, i64* %PC
  %12 = add i64 %11, 8
  store i64 %12, i64* %PC
  %13 = call %struct.Memory* @_ZN12_GLOBAL__N_1L9MOVSD_MEMI3VnWI8vec128_tE3MVnI7vec64_tEEEP6MemoryS8_R5StateT_T0_(%struct.Memory* %2, %struct.State* %0, i8* %8, i64 %10)
  ret %struct.Memory* %13
}
























define %struct.Memory* @routine_addl__0x1___edx(%struct.State*  dereferenceable(3376), i64, %struct.Memory* ) #19 {
block_400488:
  %3 = getelementptr inbounds %struct.State, %struct.State* %0, i32 0, i32 6
  %4 = getelementptr inbounds %struct.GPR, %struct.GPR* %3, i32 0, i32 33
  %5 = getelementptr inbounds %struct.Reg, %struct.Reg* %4, i32 0, i32 0
  %PC = bitcast %union.anon* %5 to i64*
  %6 = getelementptr inbounds %struct.State, %struct.State* %0, i32 0, i32 6
  %7 = getelementptr inbounds %struct.GPR, %struct.GPR* %6, i32 0, i32 7
  %8 = getelementptr inbounds %struct.Reg, %struct.Reg* %7, i32 0, i32 0
  %RDX = bitcast %union.anon* %8 to i64*
  %9 = load i64, i64* %RDX
  %10 = load i64, i64* %PC
  %11 = add i64 %10, 3
  store i64 %11, i64* %PC
  %12 = call %struct.Memory* @_ZN12_GLOBAL__N_1L3ADDI3RnWImE2RnIjE2InIjEEEP6MemoryS8_R5StateT_T0_T1_(%struct.Memory* %2, %struct.State* %0, i64* %RDX, i64 %9, i64 1)
  ret %struct.Memory* %12
}































define internal %struct.Memory* @_ZN12_GLOBAL__N_1L5ADDSDI3VnWI8vec128_tE2VnIS2_E3MVnI7vec64_tEEEP6MemorySA_R5StateT_T0_T1_(%struct.Memory* returned, %struct.State* nocapture readnone dereferenceable(3376), i8* nocapture, i8* nocapture readonly, i64) #0 {
  %6 = bitcast i8* %3 to double*
  %7 = load double, double* %6, align 1
  %8 = getelementptr inbounds i8, i8* %3, i64 8
  %9 = bitcast i8* %8 to i64*
  %10 = load i64, i64* %9, align 1
  %11 = inttoptr i64 %4 to double*
  %12 = load double, double* %11
  %13 = fadd double %7, %12
  %14 = bitcast i8* %2 to double*
  store double %13, double* %14, align 1
  %15 = getelementptr inbounds i8, i8* %2, i64 8
  %16 = bitcast i8* %15 to i64*
  store i64 %10, i64* %16, align 1
  ret %struct.Memory* %0
}

define %struct.Memory* @routine_addsd___rax__rcx_8____xmm2(%struct.State*  dereferenceable(3376), i64, %struct.Memory* ) #19 {
block_400488:
  %3 = getelementptr inbounds %struct.State, %struct.State* %0, i32 0, i32 6
  %4 = getelementptr inbounds %struct.GPR, %struct.GPR* %3, i32 0, i32 33
  %5 = getelementptr inbounds %struct.Reg, %struct.Reg* %4, i32 0, i32 0
  %PC = bitcast %union.anon* %5 to i64*
  %6 = getelementptr inbounds %struct.State, %struct.State* %0, i32 0, i32 6
  %7 = getelementptr inbounds %struct.GPR, %struct.GPR* %6, i32 0, i32 1
  %8 = getelementptr inbounds %struct.Reg, %struct.Reg* %7, i32 0, i32 0
  %RAX = bitcast %union.anon* %8 to i64*
  %9 = getelementptr inbounds %struct.State, %struct.State* %0, i32 0, i32 6
  %10 = getelementptr inbounds %struct.GPR, %struct.GPR* %9, i32 0, i32 5
  %11 = getelementptr inbounds %struct.Reg, %struct.Reg* %10, i32 0, i32 0
  %RCX = bitcast %union.anon* %11 to i64*
  %12 = getelementptr inbounds %struct.State, %struct.State* %0, i32 0, i32 1
  %13 = getelementptr inbounds [32 x %union.VectorReg], [32 x %union.VectorReg]* %12, i64 0, i64 2
  %YMM2 = bitcast %union.VectorReg* %13 to %"class.std::bitset"*
  %14 = bitcast %"class.std::bitset"* %YMM2 to i8*
  %15 = bitcast %"class.std::bitset"* %YMM2 to i8*
  %16 = load i64, i64* %RAX
  %17 = load i64, i64* %RCX
  %18 = mul i64 %17, 8
  %19 = add i64 %18, %16
  %20 = load i64, i64* %PC
  %21 = add i64 %20, 5
  store i64 %21, i64* %PC
  %22 = call %struct.Memory* @_ZN12_GLOBAL__N_1L5ADDSDI3VnWI8vec128_tE2VnIS2_E3MVnI7vec64_tEEEP6MemorySA_R5StateT_T0_T1_(%struct.Memory* %2, %struct.State* %0, i8* %14, i8* %15, i64 %19)
  ret %struct.Memory* %22
}




































define %struct.Memory* @routine_jmpq_.L_400e6e(%struct.State*  dereferenceable(3376), i64, %struct.Memory*, i64 %rel_off1, i64 %rel_off2) {
block_400488:
  %3 = getelementptr inbounds %struct.State, %struct.State* %0, i32 0, i32 6
  %4 = getelementptr inbounds %struct.GPR, %struct.GPR* %3, i32 0, i32 33
  %5 = getelementptr inbounds %struct.Reg, %struct.Reg* %4, i32 0, i32 0
  %PC = bitcast %union.anon* %5 to i64*
  %6 = load i64, i64* %PC
  %7 = add i64 %6, %rel_off1
  %8 = load i64, i64* %PC
  %9 = add i64 %8, %rel_off2
  store i64 %9, i64* %PC
  %10 = call %struct.Memory* @_ZN12_GLOBAL__N_1L3JMPI2InImEEEP6MemoryS4_R5StateT_(%struct.Memory* %2, %struct.State* %0, i64 %7)
  ret %struct.Memory* %10
}


define %struct.Memory* @routine_jmpq_.L_400f4e(%struct.State*  dereferenceable(3376), i64, %struct.Memory*, i64 %rel_off1, i64 %rel_off2) {
block_400488:
  %3 = getelementptr inbounds %struct.State, %struct.State* %0, i32 0, i32 6
  %4 = getelementptr inbounds %struct.GPR, %struct.GPR* %3, i32 0, i32 33
  %5 = getelementptr inbounds %struct.Reg, %struct.Reg* %4, i32 0, i32 0
  %PC = bitcast %union.anon* %5 to i64*
  %6 = load i64, i64* %PC
  %7 = add i64 %6, %rel_off1
  %8 = load i64, i64* %PC
  %9 = add i64 %8, %rel_off2
  store i64 %9, i64* %PC
  %10 = call %struct.Memory* @_ZN12_GLOBAL__N_1L3JMPI2InImEEEP6MemoryS4_R5StateT_(%struct.Memory* %2, %struct.State* %0, i64 %7)
  ret %struct.Memory* %10
}








define %struct.Memory* @routine_jmpq_.L_400e56(%struct.State*  dereferenceable(3376), i64, %struct.Memory*, i64 %rel_off1, i64 %rel_off2) {
block_400488:
  %3 = getelementptr inbounds %struct.State, %struct.State* %0, i32 0, i32 6
  %4 = getelementptr inbounds %struct.GPR, %struct.GPR* %3, i32 0, i32 33
  %5 = getelementptr inbounds %struct.Reg, %struct.Reg* %4, i32 0, i32 0
  %PC = bitcast %union.anon* %5 to i64*
  %6 = load i64, i64* %PC
  %7 = add i64 %6, %rel_off1
  %8 = load i64, i64* %PC
  %9 = add i64 %8, %rel_off2
  store i64 %9, i64* %PC
  %10 = call %struct.Memory* @_ZN12_GLOBAL__N_1L3JMPI2InImEEEP6MemoryS4_R5StateT_(%struct.Memory* %2, %struct.State* %0, i64 %7)
  ret %struct.Memory* %10
}


define %struct.Memory* @routine_jmpq_.L_400f61(%struct.State*  dereferenceable(3376), i64, %struct.Memory*, i64 %rel_off1, i64 %rel_off2) {
block_400488:
  %3 = getelementptr inbounds %struct.State, %struct.State* %0, i32 0, i32 6
  %4 = getelementptr inbounds %struct.GPR, %struct.GPR* %3, i32 0, i32 33
  %5 = getelementptr inbounds %struct.Reg, %struct.Reg* %4, i32 0, i32 0
  %PC = bitcast %union.anon* %5 to i64*
  %6 = load i64, i64* %PC
  %7 = add i64 %6, %rel_off1
  %8 = load i64, i64* %PC
  %9 = add i64 %8, %rel_off2
  store i64 %9, i64* %PC
  %10 = call %struct.Memory* @_ZN12_GLOBAL__N_1L3JMPI2InImEEEP6MemoryS4_R5StateT_(%struct.Memory* %2, %struct.State* %0, i64 %7)
  ret %struct.Memory* %10
}






define %struct.Memory* @routine_movl__eax__MINUS0x34__rbp_(%struct.State*  dereferenceable(3376), i64, %struct.Memory* ) #19 {
block_400488:
  %3 = getelementptr inbounds %struct.State, %struct.State* %0, i32 0, i32 6
  %4 = getelementptr inbounds %struct.GPR, %struct.GPR* %3, i32 0, i32 33
  %5 = getelementptr inbounds %struct.Reg, %struct.Reg* %4, i32 0, i32 0
  %PC = bitcast %union.anon* %5 to i64*
  %6 = getelementptr inbounds %struct.State, %struct.State* %0, i32 0, i32 6
  %7 = getelementptr inbounds %struct.GPR, %struct.GPR* %6, i32 0, i32 1
  %8 = getelementptr inbounds %struct.Reg, %struct.Reg* %7, i32 0, i32 0
  %EAX = bitcast %union.anon* %8 to i32*
  %9 = getelementptr inbounds %struct.State, %struct.State* %0, i32 0, i32 6
  %10 = getelementptr inbounds %struct.GPR, %struct.GPR* %9, i32 0, i32 15
  %11 = getelementptr inbounds %struct.Reg, %struct.Reg* %10, i32 0, i32 0
  %RBP = bitcast %union.anon* %11 to i64*
  %12 = load i64, i64* %RBP
  %13 = sub i64 %12, 52
  %14 = load i32, i32* %EAX
  %15 = zext i32 %14 to i64
  %16 = load i64, i64* %PC
  %17 = add i64 %16, 3
  store i64 %17, i64* %PC
  %18 = call %struct.Memory* @_ZN12_GLOBAL__N_1L3MOVI3MnWIjE2RnIjEEEP6MemoryS6_R5StateT_T0_(%struct.Memory* %2, %struct.State* %0, i64 %13, i64 %15)
  ret %struct.Memory* %18
}


define %struct.Memory* @routine_jmpq_.L_400c78(%struct.State*  dereferenceable(3376), i64, %struct.Memory*, i64 %rel_off1, i64 %rel_off2) {
block_400488:
  %3 = getelementptr inbounds %struct.State, %struct.State* %0, i32 0, i32 6
  %4 = getelementptr inbounds %struct.GPR, %struct.GPR* %3, i32 0, i32 33
  %5 = getelementptr inbounds %struct.Reg, %struct.Reg* %4, i32 0, i32 0
  %PC = bitcast %union.anon* %5 to i64*
  %6 = load i64, i64* %PC
  %7 = add i64 %6, %rel_off1
  %8 = load i64, i64* %PC
  %9 = add i64 %8, %rel_off2
  store i64 %9, i64* %PC
  %10 = call %struct.Memory* @_ZN12_GLOBAL__N_1L3JMPI2InImEEEP6MemoryS4_R5StateT_(%struct.Memory* %2, %struct.State* %0, i64 %7)
  ret %struct.Memory* %10
}

define internal %struct.Memory* @_ZN12_GLOBAL__N_1L3POPI3RnWImEEEP6MemoryS4_R5StateT_(%struct.Memory*, %struct.State* nocapture dereferenceable(3376), i64* nocapture) #0 {
  %4 = getelementptr inbounds %struct.State, %struct.State* %1, i64 0, i32 6, i32 13, i32 0, i32 0
  %5 = load i64, i64* %4, align 8
  %6 = add i64 %5, 8
  %7 = inttoptr i64 %5 to i64*
  %8 = load i64, i64* %7
  store i64 %8, i64* %2, align 8
  store i64 %6, i64* %4, align 8
  ret %struct.Memory* %0
}

define %struct.Memory* @routine_popq__rbp(%struct.State*  dereferenceable(3376), i64, %struct.Memory* ) #19 {
block_400488:
  %3 = getelementptr inbounds %struct.State, %struct.State* %0, i32 0, i32 6
  %4 = getelementptr inbounds %struct.GPR, %struct.GPR* %3, i32 0, i32 33
  %5 = getelementptr inbounds %struct.Reg, %struct.Reg* %4, i32 0, i32 0
  %PC = bitcast %union.anon* %5 to i64*
  %6 = getelementptr inbounds %struct.State, %struct.State* %0, i32 0, i32 6
  %7 = getelementptr inbounds %struct.GPR, %struct.GPR* %6, i32 0, i32 15
  %8 = getelementptr inbounds %struct.Reg, %struct.Reg* %7, i32 0, i32 0
  %RBP = bitcast %union.anon* %8 to i64*
  %9 = load i64, i64* %PC
  %10 = add i64 %9, 1
  store i64 %10, i64* %PC
  %11 = call %struct.Memory* @_ZN12_GLOBAL__N_1L3POPI3RnWImEEEP6MemoryS4_R5StateT_(%struct.Memory* %2, %struct.State* %0, i64* %RBP)
  ret %struct.Memory* %11
}

define internal %struct.Memory* @_ZN12_GLOBAL__N_1L3RETEP6MemoryR5State(%struct.Memory* returned, %struct.State* nocapture dereferenceable(3376)) #0 {
  %3 = getelementptr inbounds %struct.State, %struct.State* %1, i64 0, i32 6, i32 33, i32 0, i32 0
  %4 = getelementptr inbounds %struct.State, %struct.State* %1, i64 0, i32 6, i32 13, i32 0, i32 0
  %5 = load i64, i64* %4, align 8
  %6 = inttoptr i64 %5 to i64*
  %7 = load i64, i64* %6
  store i64 %7, i64* %3, align 8
  %8 = add i64 %5, 8
  store i64 %8, i64* %4, align 8
  ret %struct.Memory* %0
}

define %struct.Memory* @routine_retq(%struct.State*  dereferenceable(3376), i64, %struct.Memory* ) #19 {
block_400488:
  %3 = getelementptr inbounds %struct.State, %struct.State* %0, i32 0, i32 6
  %4 = getelementptr inbounds %struct.GPR, %struct.GPR* %3, i32 0, i32 33
  %5 = getelementptr inbounds %struct.Reg, %struct.Reg* %4, i32 0, i32 0
  %PC = bitcast %union.anon* %5 to i64*
  %6 = load i64, i64* %PC
  %7 = add i64 %6, 1
  store i64 %7, i64* %PC
  %8 = call %struct.Memory* @_ZN12_GLOBAL__N_1L3RETEP6MemoryR5State(%struct.Memory* %2, %struct.State* %0)
  ret %struct.Memory* %8
}

