; ModuleID = 'mcsema/test.proposed.ll'
source_filename = "llvm-link"
target datalayout = "e-m:e-i64:64-f80:128-n8:16:32:64-S128"
target triple = "x86_64-pc-linux-gnu-elf"

%union.anon = type { i64 }
%seg_400388__init_type = type <{ [23 x i8] }>
%seg_4003a0__text_type = type <{ [354 x i8] }>
%seg_400504__fini_type = type <{ [9 x i8] }>
%seg_400510__rodata_type = type <{ [4 x i8] }>
%seg_400514__eh_frame_hdr_type = type <{ [52 x i8] }>
%seg_400548__eh_frame_type = type <{ [208 x i8] }>
%seg_601018__data_type = type <{ [16 x i8] }>
%__bss_start_type = type <{ [8 x i8] }>
%struct.State = type { %struct.ArchState, [32 x %union.VectorReg], %struct.ArithFlags, %union.anon, %struct.Segments, %struct.AddressSpace, %struct.GPR, %struct.X87Stack, %struct.MMX, %struct.FPUStatusFlags, %union.anon, %union.FPU, %struct.SegmentCaches }
%struct.ArchState = type { i32, i32, %union.anon }
%union.VectorReg = type { %union.vec512_t }
%union.vec512_t = type { %struct.uint64v8_t }
%struct.uint64v8_t = type { [8 x i64] }
%struct.ArithFlags = type { i8, i8, i8, i8, i8, i8, i8, i8, i8, i8, i8, i8, i8, i8, i8, i8 }
%struct.Segments = type { i16, %union.SegmentSelector, i16, %union.SegmentSelector, i16, %union.SegmentSelector, i16, %union.SegmentSelector, i16, %union.SegmentSelector, i16, %union.SegmentSelector }
%union.SegmentSelector = type { i16 }
%struct.AddressSpace = type { i64, %struct.Reg, i64, %struct.Reg, i64, %struct.Reg, i64, %struct.Reg, i64, %struct.Reg, i64, %struct.Reg }
%struct.Reg = type { %union.anon }
%struct.GPR = type { i64, %struct.Reg, i64, %struct.Reg, i64, %struct.Reg, i64, %struct.Reg, i64, %struct.Reg, i64, %struct.Reg, i64, %struct.Reg, i64, %struct.Reg, i64, %struct.Reg, i64, %struct.Reg, i64, %struct.Reg, i64, %struct.Reg, i64, %struct.Reg, i64, %struct.Reg, i64, %struct.Reg, i64, %struct.Reg, i64, %struct.Reg }
%struct.X87Stack = type { [8 x %struct.anon.3] }
%struct.anon.3 = type { i64, double }
%struct.MMX = type { [8 x %struct.anon.4] }
%struct.anon.4 = type { i64, %union.vec64_t }
%union.vec64_t = type { %struct.uint64v1_t }
%struct.uint64v1_t = type { [1 x i64] }
%struct.FPUStatusFlags = type { i8, i8, i8, i8, i8, i8, i8, i8, i8, i8, i8, i8, i8, i8, i8, i8, i8, i8, i8, i8, [4 x i8] }
%union.FPU = type { %struct.anon.13 }
%struct.anon.13 = type { %struct.FpuFXSAVE, [96 x i8] }
%struct.FpuFXSAVE = type { %union.SegmentSelector, %union.SegmentSelector, %union.FPUAbridgedTagWord, i8, i16, i32, %union.SegmentSelector, i16, i32, %union.SegmentSelector, i16, %union.FPUControlStatus, %union.FPUControlStatus, [8 x %struct.FPUStackElem], [16 x %union.vec128_t] }
%union.FPUAbridgedTagWord = type { i8 }
%union.FPUControlStatus = type { i32 }
%struct.FPUStackElem = type { %union.anon.11, [6 x i8] }
%union.anon.11 = type { %struct.float80_t }
%struct.float80_t = type { [10 x i8] }
%union.vec128_t = type { %struct.uint128v1_t }
%struct.uint128v1_t = type { [1 x i128] }
%struct.SegmentCaches = type { %struct.SegmentShadow, %struct.SegmentShadow, %struct.SegmentShadow, %struct.SegmentShadow, %struct.SegmentShadow, %struct.SegmentShadow }
%struct.SegmentShadow = type { %union.anon, i32, i32 }
%struct.Memory = type opaque

@switch.table = private unnamed_addr constant [4 x i32] [i32 2048, i32 3072, i32 0, i32 1024]
@DR0 = external global i64, align 8
@DR1 = external global i64, align 8
@DR2 = external global i64, align 8
@DR3 = external global i64, align 8
@DR4 = external global i64, align 8
@DR5 = external global i64, align 8
@DR6 = external global i64, align 8
@DR7 = external global i64, align 8
@gCR0 = external global %union.anon, align 1
@gCR1 = external global %union.anon, align 1
@gCR2 = external global %union.anon, align 1
@gCR3 = external global %union.anon, align 1
@gCR4 = external global %union.anon, align 1
@gCR8 = external global %union.anon, align 1
@seg_400388__init = internal constant %seg_400388__init_type <{ [23 x i8] c"H\83\EC\08H\8B\05e\0C \00H\85\C0t\02\FF\D0H\83\C4\08\C3" }>
@seg_4003a0__text = internal constant %seg_4003a0__text_type <{ [354 x i8] c"1\EDI\89\D1^H\89\E2H\83\E4\F0PTI\C7\C0\00\05@\00H\C7\C1\90\04@\00H\C7\C7\88\04@\00\FF\15&\0C \00\F4\0F\1FD\00\00\F3\C3f.\0F\1F\84\00\00\00\00\00\0F\1F@\00U\B8(\10`\00H=(\10`\00H\89\E5t\17\B8\00\00\00\00H\85\C0t\0D]\BF(\10`\00\FF\E0\0F\1FD\00\00]\C3f\0F\1FD\00\00\BE(\10`\00UH\81\EE(\10`\00H\89\E5H\C1\FE\03H\89\F0H\C1\E8?H\01\C6H\D1\FEt\15\B8\00\00\00\00H\85\C0t\0B]\BF(\10`\00\FF\E0\0F\1F\00]\C3f\0F\1FD\00\00\80=\D1\0B \00\00u\17UH\89\E5\E8~\FF\FF\FF\C6\05\BF\0B \00\01]\C3\0F\1FD\00\00\F3\C3\0F\1F@\00f.\0F\1F\84\00\00\00\00\00UH\89\E5]\EB\89\90U\C3f\0F\1FD\00\00AWAVI\89\D7AUATL\8D%\9E\09 \00UH\8D-\9E\09 \00SA\89\FDI\89\F6L)\E5H\83\EC\08H\C1\FD\03\E8\C7\FE\FF\FFH\85\EDt 1\DB\0F\1F\84\00\00\00\00\00L\89\FAL\89\F6D\89\EFA\FF\14\DCH\83\C3\01H9\DDu\EAH\83\C4\08[]A\5CA]A^A_\C3\90f.\0F\1F\84\00\00\00\00\00\F3\C3" }>
@seg_400504__fini = internal constant %seg_400504__fini_type <{ [9 x i8] c"H\83\EC\08H\83\C4\08\C3" }>
@seg_400510__rodata = internal constant %seg_400510__rodata_type <{ [4 x i8] c"\01\00\02\00" }>
@seg_400514__eh_frame_hdr = internal constant %seg_400514__eh_frame_hdr_type <{ [52 x i8] c"\01\1B\03;0\00\00\00\05\00\00\00\8C\FE\FF\FFL\00\00\00\BC\FE\FF\FFx\00\00\00t\FF\FF\FF\8C\00\00\00|\FF\FF\FF\A4\00\00\00\EC\FF\FF\FF\EC\00\00\00" }>
@seg_400548__eh_frame = internal constant %seg_400548__eh_frame_type <{ [208 x i8] c"\14\00\00\00\00\00\00\00\01zR\00\01x\10\01\1B\0C\07\08\90\01\07\10\10\00\00\00\1C\00\00\008\FE\FF\FF+\00\00\00\00\00\00\00\14\00\00\00\00\00\00\00\01zR\00\01x\10\01\1B\0C\07\08\90\01\00\00\10\00\00\00\1C\00\00\00<\FE\FF\FF\02\00\00\00\00\00\00\00\14\00\00\000\00\00\00\E0\FE\FF\FF\02\00\00\00\00\00\00\00\00\00\00\00D\00\00\00H\00\00\00\D0\FE\FF\FFe\00\00\00\00B\0E\10\8F\02B\0E\18\8E\03E\0E \8D\04B\0E(\8C\05H\0E0\86\06H\0E8\83\07M\0E@r\0E8A\0E0A\0E(B\0E B\0E\18B\0E\10B\0E\08\00\10\00\00\00\90\00\00\00\F8\FE\FF\FF\02\00\00\00\00\00\00\00\00\00\00\00" }>
@seg_601018__data = internal global %seg_601018__data_type zeroinitializer
@__bss_start = global %__bss_start_type zeroinitializer
@0 = internal global i1 false

; Function Attrs: nounwind readnone
declare i32 @llvm.ctpop.i32(i32) #0

declare %struct.Memory* @__remill_error(%struct.State* dereferenceable(3376), i64, %struct.Memory*)

declare %struct.Memory* @sub_400e50._Z11start_timerv(%struct.State* dereferenceable(3376), i64, %struct.Memory*)

declare %struct.Memory* @sub_410ad0._ZN34custom_multiply_multiple_variable2ItE8do_shiftEttttt(%struct.State* dereferenceable(3376), i64, %struct.Memory*)

declare %struct.Memory* @sub_410b30._Z26check_shifted_variable_sumIt34custom_multiply_multiple_variable2ItEEvT_S2_S2_S2_S2_(%struct.State* dereferenceable(3376), i64, %struct.Memory*)

declare %struct.Memory* @sub_400e70._Z5timerv(%struct.State* dereferenceable(3376), i64, %struct.Memory*)

declare %struct.Memory* @sub_400810._Z13record_resultdPKc(%struct.State* dereferenceable(3376), i64, %struct.Memory*)

; Function Attrs: alwaysinline
define %struct.Memory* @_Z14test_variable4It34custom_multiply_multiple_variable2ItEEvPT_iS2_S2_S2_S2_PKc(%struct.State* noalias, i64, %struct.Memory* noalias) #1 {
entry:
  %3 = getelementptr inbounds %struct.State, %struct.State* %0, i64 0, i32 6, i32 33, i32 0, i32 0
  store i64 %1, i64* %3, align 8
  %BRANCH_TAKEN = alloca i8, align 1
  store i8 0, i8* %BRANCH_TAKEN, align 1
  %MEMORY = alloca %struct.Memory*, align 8
  store %struct.Memory* %2, %struct.Memory** %MEMORY, align 8
  %loadMem_406990 = load %struct.Memory*, %struct.Memory** %MEMORY
  %4 = getelementptr inbounds %struct.State, %struct.State* %0, i32 0, i32 6
  %5 = getelementptr inbounds %struct.GPR, %struct.GPR* %4, i32 0, i32 33
  %6 = getelementptr inbounds %struct.Reg, %struct.Reg* %5, i32 0, i32 0
  %PC.i = bitcast %union.anon* %6 to i64*
  %7 = getelementptr inbounds %struct.State, %struct.State* %0, i32 0, i32 6
  %8 = getelementptr inbounds %struct.GPR, %struct.GPR* %7, i32 0, i32 15
  %9 = getelementptr inbounds %struct.Reg, %struct.Reg* %8, i32 0, i32 0
  %RBP.i = bitcast %union.anon* %9 to i64*
  %10 = load i64, i64* %RBP.i
  %11 = load i64, i64* %PC.i
  %12 = add i64 %11, 1
  store i64 %12, i64* %PC.i
  %13 = getelementptr inbounds %struct.State, %struct.State* %0, i64 0, i32 6, i32 13, i32 0, i32 0
  %14 = load i64, i64* %13, align 8
  %15 = add i64 %14, -8
  %16 = inttoptr i64 %15 to i64*
  store i64 %10, i64* %16
  store i64 %15, i64* %13, align 8
  store %struct.Memory* %loadMem_406990, %struct.Memory** %MEMORY
  %loadMem_406991 = load %struct.Memory*, %struct.Memory** %MEMORY
  %17 = getelementptr inbounds %struct.State, %struct.State* %0, i32 0, i32 6
  %18 = getelementptr inbounds %struct.GPR, %struct.GPR* %17, i32 0, i32 33
  %19 = getelementptr inbounds %struct.Reg, %struct.Reg* %18, i32 0, i32 0
  %PC.i168 = bitcast %union.anon* %19 to i64*
  %20 = getelementptr inbounds %struct.State, %struct.State* %0, i32 0, i32 6
  %21 = getelementptr inbounds %struct.GPR, %struct.GPR* %20, i32 0, i32 13
  %22 = getelementptr inbounds %struct.Reg, %struct.Reg* %21, i32 0, i32 0
  %RSP.i169 = bitcast %union.anon* %22 to i64*
  %23 = getelementptr inbounds %struct.State, %struct.State* %0, i32 0, i32 6
  %24 = getelementptr inbounds %struct.GPR, %struct.GPR* %23, i32 0, i32 15
  %25 = getelementptr inbounds %struct.Reg, %struct.Reg* %24, i32 0, i32 0
  %RBP.i170 = bitcast %union.anon* %25 to i64*
  %26 = load i64, i64* %RSP.i169
  %27 = load i64, i64* %PC.i168
  %28 = add i64 %27, 3
  store i64 %28, i64* %PC.i168
  store i64 %26, i64* %RBP.i170, align 8
  store %struct.Memory* %loadMem_406991, %struct.Memory** %MEMORY
  %loadMem_406994 = load %struct.Memory*, %struct.Memory** %MEMORY
  %29 = getelementptr inbounds %struct.State, %struct.State* %0, i32 0, i32 6
  %30 = getelementptr inbounds %struct.GPR, %struct.GPR* %29, i32 0, i32 33
  %31 = getelementptr inbounds %struct.Reg, %struct.Reg* %30, i32 0, i32 0
  %PC.i166 = bitcast %union.anon* %31 to i64*
  %32 = getelementptr inbounds %struct.State, %struct.State* %0, i32 0, i32 6
  %33 = getelementptr inbounds %struct.GPR, %struct.GPR* %32, i32 0, i32 29
  %34 = getelementptr inbounds %struct.Reg, %struct.Reg* %33, i32 0, i32 0
  %R14.i167 = bitcast %union.anon* %34 to i64*
  %35 = load i64, i64* %R14.i167
  %36 = load i64, i64* %PC.i166
  %37 = add i64 %36, 2
  store i64 %37, i64* %PC.i166
  %38 = getelementptr inbounds %struct.State, %struct.State* %0, i64 0, i32 6, i32 13, i32 0, i32 0
  %39 = load i64, i64* %38, align 8
  %40 = add i64 %39, -8
  %41 = inttoptr i64 %40 to i64*
  store i64 %35, i64* %41
  store i64 %40, i64* %38, align 8
  store %struct.Memory* %loadMem_406994, %struct.Memory** %MEMORY
  %loadMem_406996 = load %struct.Memory*, %struct.Memory** %MEMORY
  %42 = getelementptr inbounds %struct.State, %struct.State* %0, i32 0, i32 6
  %43 = getelementptr inbounds %struct.GPR, %struct.GPR* %42, i32 0, i32 33
  %44 = getelementptr inbounds %struct.Reg, %struct.Reg* %43, i32 0, i32 0
  %PC.i164 = bitcast %union.anon* %44 to i64*
  %45 = getelementptr inbounds %struct.State, %struct.State* %0, i32 0, i32 6
  %46 = getelementptr inbounds %struct.GPR, %struct.GPR* %45, i32 0, i32 3
  %47 = getelementptr inbounds %struct.Reg, %struct.Reg* %46, i32 0, i32 0
  %RBX.i165 = bitcast %union.anon* %47 to i64*
  %48 = load i64, i64* %RBX.i165
  %49 = load i64, i64* %PC.i164
  %50 = add i64 %49, 1
  store i64 %50, i64* %PC.i164
  %51 = getelementptr inbounds %struct.State, %struct.State* %0, i64 0, i32 6, i32 13, i32 0, i32 0
  %52 = load i64, i64* %51, align 8
  %53 = add i64 %52, -8
  %54 = inttoptr i64 %53 to i64*
  store i64 %48, i64* %54
  store i64 %53, i64* %51, align 8
  store %struct.Memory* %loadMem_406996, %struct.Memory** %MEMORY
  %loadMem_406997 = load %struct.Memory*, %struct.Memory** %MEMORY
  %55 = getelementptr inbounds %struct.State, %struct.State* %0, i32 0, i32 6
  %56 = getelementptr inbounds %struct.GPR, %struct.GPR* %55, i32 0, i32 33
  %57 = getelementptr inbounds %struct.Reg, %struct.Reg* %56, i32 0, i32 0
  %PC.i162 = bitcast %union.anon* %57 to i64*
  %58 = getelementptr inbounds %struct.State, %struct.State* %0, i32 0, i32 6
  %59 = getelementptr inbounds %struct.GPR, %struct.GPR* %58, i32 0, i32 13
  %60 = getelementptr inbounds %struct.Reg, %struct.Reg* %59, i32 0, i32 0
  %RSP.i163 = bitcast %union.anon* %60 to i64*
  %61 = load i64, i64* %RSP.i163
  %62 = load i64, i64* %PC.i162
  %63 = add i64 %62, 4
  store i64 %63, i64* %PC.i162
  %64 = sub i64 %61, 48
  store i64 %64, i64* %RSP.i163, align 8
  %65 = icmp ult i64 %61, 48
  %66 = zext i1 %65 to i8
  %67 = getelementptr inbounds %struct.State, %struct.State* %0, i64 0, i32 2, i32 1
  store i8 %66, i8* %67, align 1
  %68 = trunc i64 %64 to i32
  %69 = and i32 %68, 255
  %70 = call i32 @llvm.ctpop.i32(i32 %69)
  %71 = trunc i32 %70 to i8
  %72 = and i8 %71, 1
  %73 = xor i8 %72, 1
  %74 = getelementptr inbounds %struct.State, %struct.State* %0, i64 0, i32 2, i32 3
  store i8 %73, i8* %74, align 1
  %75 = xor i64 48, %61
  %76 = xor i64 %75, %64
  %77 = lshr i64 %76, 4
  %78 = trunc i64 %77 to i8
  %79 = and i8 %78, 1
  %80 = getelementptr inbounds %struct.State, %struct.State* %0, i64 0, i32 2, i32 5
  store i8 %79, i8* %80, align 1
  %81 = icmp eq i64 %64, 0
  %82 = zext i1 %81 to i8
  %83 = getelementptr inbounds %struct.State, %struct.State* %0, i64 0, i32 2, i32 7
  store i8 %82, i8* %83, align 1
  %84 = lshr i64 %64, 63
  %85 = trunc i64 %84 to i8
  %86 = getelementptr inbounds %struct.State, %struct.State* %0, i64 0, i32 2, i32 9
  store i8 %85, i8* %86, align 1
  %87 = lshr i64 %61, 63
  %88 = xor i64 %84, %87
  %89 = add i64 %88, %87
  %90 = icmp eq i64 %89, 2
  %91 = zext i1 %90 to i8
  %92 = getelementptr inbounds %struct.State, %struct.State* %0, i64 0, i32 2, i32 13
  store i8 %91, i8* %92, align 1
  store %struct.Memory* %loadMem_406997, %struct.Memory** %MEMORY
  %loadMem_40699b = load %struct.Memory*, %struct.Memory** %MEMORY
  %93 = getelementptr inbounds %struct.State, %struct.State* %0, i32 0, i32 6
  %94 = getelementptr inbounds %struct.GPR, %struct.GPR* %93, i32 0, i32 33
  %95 = getelementptr inbounds %struct.Reg, %struct.Reg* %94, i32 0, i32 0
  %PC.i160 = bitcast %union.anon* %95 to i64*
  %96 = getelementptr inbounds %struct.State, %struct.State* %0, i32 0, i32 6
  %97 = getelementptr inbounds %struct.GPR, %struct.GPR* %96, i32 0, i32 1
  %98 = getelementptr inbounds %struct.Reg, %struct.Reg* %97, i32 0, i32 0
  %AX.i161 = bitcast %union.anon* %98 to i16*
  %99 = getelementptr inbounds %struct.State, %struct.State* %0, i32 0, i32 6
  %100 = getelementptr inbounds %struct.GPR, %struct.GPR* %99, i32 0, i32 19
  %101 = getelementptr inbounds %struct.Reg, %struct.Reg* %100, i32 0, i32 0
  %R9W.i = bitcast %union.anon* %101 to i16*
  %102 = load i16, i16* %R9W.i
  %103 = zext i16 %102 to i64
  %104 = load i64, i64* %PC.i160
  %105 = add i64 %104, 4
  store i64 %105, i64* %PC.i160
  store i16 %102, i16* %AX.i161, align 2
  store %struct.Memory* %loadMem_40699b, %struct.Memory** %MEMORY
  %loadMem_40699f = load %struct.Memory*, %struct.Memory** %MEMORY
  %106 = getelementptr inbounds %struct.State, %struct.State* %0, i32 0, i32 6
  %107 = getelementptr inbounds %struct.GPR, %struct.GPR* %106, i32 0, i32 33
  %108 = getelementptr inbounds %struct.Reg, %struct.Reg* %107, i32 0, i32 0
  %PC.i157 = bitcast %union.anon* %108 to i64*
  %109 = getelementptr inbounds %struct.State, %struct.State* %0, i32 0, i32 6
  %110 = getelementptr inbounds %struct.GPR, %struct.GPR* %109, i32 0, i32 17
  %111 = getelementptr inbounds %struct.Reg, %struct.Reg* %110, i32 0, i32 0
  %R8W.i158 = bitcast %union.anon* %111 to i16*
  %112 = getelementptr inbounds %struct.State, %struct.State* %0, i32 0, i32 6
  %113 = getelementptr inbounds %struct.GPR, %struct.GPR* %112, i32 0, i32 21
  %114 = getelementptr inbounds %struct.Reg, %struct.Reg* %113, i32 0, i32 0
  %R10W.i159 = bitcast %union.anon* %114 to i16*
  %115 = load i16, i16* %R8W.i158
  %116 = zext i16 %115 to i64
  %117 = load i64, i64* %PC.i157
  %118 = add i64 %117, 4
  store i64 %118, i64* %PC.i157
  store i16 %115, i16* %R10W.i159, align 2
  store %struct.Memory* %loadMem_40699f, %struct.Memory** %MEMORY
  %loadMem_4069a3 = load %struct.Memory*, %struct.Memory** %MEMORY
  %119 = getelementptr inbounds %struct.State, %struct.State* %0, i32 0, i32 6
  %120 = getelementptr inbounds %struct.GPR, %struct.GPR* %119, i32 0, i32 33
  %121 = getelementptr inbounds %struct.Reg, %struct.Reg* %120, i32 0, i32 0
  %PC.i154 = bitcast %union.anon* %121 to i64*
  %122 = getelementptr inbounds %struct.State, %struct.State* %0, i32 0, i32 6
  %123 = getelementptr inbounds %struct.GPR, %struct.GPR* %122, i32 0, i32 5
  %124 = getelementptr inbounds %struct.Reg, %struct.Reg* %123, i32 0, i32 0
  %CX.i155 = bitcast %union.anon* %124 to i16*
  %125 = getelementptr inbounds %struct.State, %struct.State* %0, i32 0, i32 6
  %126 = getelementptr inbounds %struct.GPR, %struct.GPR* %125, i32 0, i32 23
  %127 = getelementptr inbounds %struct.Reg, %struct.Reg* %126, i32 0, i32 0
  %R11W.i156 = bitcast %union.anon* %127 to i16*
  %128 = load i16, i16* %CX.i155
  %129 = zext i16 %128 to i64
  %130 = load i64, i64* %PC.i154
  %131 = add i64 %130, 4
  store i64 %131, i64* %PC.i154
  store i16 %128, i16* %R11W.i156, align 2
  store %struct.Memory* %loadMem_4069a3, %struct.Memory** %MEMORY
  %loadMem_4069a7 = load %struct.Memory*, %struct.Memory** %MEMORY
  %132 = getelementptr inbounds %struct.State, %struct.State* %0, i32 0, i32 6
  %133 = getelementptr inbounds %struct.GPR, %struct.GPR* %132, i32 0, i32 33
  %134 = getelementptr inbounds %struct.Reg, %struct.Reg* %133, i32 0, i32 0
  %PC.i151 = bitcast %union.anon* %134 to i64*
  %135 = getelementptr inbounds %struct.State, %struct.State* %0, i32 0, i32 6
  %136 = getelementptr inbounds %struct.GPR, %struct.GPR* %135, i32 0, i32 3
  %137 = getelementptr inbounds %struct.Reg, %struct.Reg* %136, i32 0, i32 0
  %BX.i152 = bitcast %union.anon* %137 to i16*
  %138 = getelementptr inbounds %struct.State, %struct.State* %0, i32 0, i32 6
  %139 = getelementptr inbounds %struct.GPR, %struct.GPR* %138, i32 0, i32 7
  %140 = getelementptr inbounds %struct.Reg, %struct.Reg* %139, i32 0, i32 0
  %DX.i153 = bitcast %union.anon* %140 to i16*
  %141 = load i16, i16* %DX.i153
  %142 = zext i16 %141 to i64
  %143 = load i64, i64* %PC.i151
  %144 = add i64 %143, 3
  store i64 %144, i64* %PC.i151
  store i16 %141, i16* %BX.i152, align 2
  store %struct.Memory* %loadMem_4069a7, %struct.Memory** %MEMORY
  %loadMem_4069aa = load %struct.Memory*, %struct.Memory** %MEMORY
  %145 = getelementptr inbounds %struct.State, %struct.State* %0, i32 0, i32 6
  %146 = getelementptr inbounds %struct.GPR, %struct.GPR* %145, i32 0, i32 33
  %147 = getelementptr inbounds %struct.Reg, %struct.Reg* %146, i32 0, i32 0
  %PC.i148 = bitcast %union.anon* %147 to i64*
  %148 = getelementptr inbounds %struct.State, %struct.State* %0, i32 0, i32 6
  %149 = getelementptr inbounds %struct.GPR, %struct.GPR* %148, i32 0, i32 15
  %150 = getelementptr inbounds %struct.Reg, %struct.Reg* %149, i32 0, i32 0
  %RBP.i149 = bitcast %union.anon* %150 to i64*
  %151 = getelementptr inbounds %struct.State, %struct.State* %0, i32 0, i32 6
  %152 = getelementptr inbounds %struct.GPR, %struct.GPR* %151, i32 0, i32 29
  %153 = getelementptr inbounds %struct.Reg, %struct.Reg* %152, i32 0, i32 0
  %R14.i150 = bitcast %union.anon* %153 to i64*
  %154 = load i64, i64* %RBP.i149
  %155 = add i64 %154, 16
  %156 = load i64, i64* %PC.i148
  %157 = add i64 %156, 4
  store i64 %157, i64* %PC.i148
  %158 = inttoptr i64 %155 to i64*
  %159 = load i64, i64* %158
  store i64 %159, i64* %R14.i150, align 8
  store %struct.Memory* %loadMem_4069aa, %struct.Memory** %MEMORY
  %loadMem_4069ae = load %struct.Memory*, %struct.Memory** %MEMORY
  %160 = getelementptr inbounds %struct.State, %struct.State* %0, i32 0, i32 6
  %161 = getelementptr inbounds %struct.GPR, %struct.GPR* %160, i32 0, i32 33
  %162 = getelementptr inbounds %struct.Reg, %struct.Reg* %161, i32 0, i32 0
  %PC.i145 = bitcast %union.anon* %162 to i64*
  %163 = getelementptr inbounds %struct.State, %struct.State* %0, i32 0, i32 6
  %164 = getelementptr inbounds %struct.GPR, %struct.GPR* %163, i32 0, i32 11
  %165 = getelementptr inbounds %struct.Reg, %struct.Reg* %164, i32 0, i32 0
  %RDI.i146 = bitcast %union.anon* %165 to i64*
  %166 = getelementptr inbounds %struct.State, %struct.State* %0, i32 0, i32 6
  %167 = getelementptr inbounds %struct.GPR, %struct.GPR* %166, i32 0, i32 15
  %168 = getelementptr inbounds %struct.Reg, %struct.Reg* %167, i32 0, i32 0
  %RBP.i147 = bitcast %union.anon* %168 to i64*
  %169 = load i64, i64* %RBP.i147
  %170 = sub i64 %169, 24
  %171 = load i64, i64* %RDI.i146
  %172 = load i64, i64* %PC.i145
  %173 = add i64 %172, 4
  store i64 %173, i64* %PC.i145
  %174 = inttoptr i64 %170 to i64*
  store i64 %171, i64* %174
  store %struct.Memory* %loadMem_4069ae, %struct.Memory** %MEMORY
  %loadMem_4069b2 = load %struct.Memory*, %struct.Memory** %MEMORY
  %175 = getelementptr inbounds %struct.State, %struct.State* %0, i32 0, i32 6
  %176 = getelementptr inbounds %struct.GPR, %struct.GPR* %175, i32 0, i32 33
  %177 = getelementptr inbounds %struct.Reg, %struct.Reg* %176, i32 0, i32 0
  %PC.i143 = bitcast %union.anon* %177 to i64*
  %178 = getelementptr inbounds %struct.State, %struct.State* %0, i32 0, i32 6
  %179 = getelementptr inbounds %struct.GPR, %struct.GPR* %178, i32 0, i32 9
  %180 = getelementptr inbounds %struct.Reg, %struct.Reg* %179, i32 0, i32 0
  %ESI.i = bitcast %union.anon* %180 to i32*
  %181 = getelementptr inbounds %struct.State, %struct.State* %0, i32 0, i32 6
  %182 = getelementptr inbounds %struct.GPR, %struct.GPR* %181, i32 0, i32 15
  %183 = getelementptr inbounds %struct.Reg, %struct.Reg* %182, i32 0, i32 0
  %RBP.i144 = bitcast %union.anon* %183 to i64*
  %184 = load i64, i64* %RBP.i144
  %185 = sub i64 %184, 28
  %186 = load i32, i32* %ESI.i
  %187 = zext i32 %186 to i64
  %188 = load i64, i64* %PC.i143
  %189 = add i64 %188, 3
  store i64 %189, i64* %PC.i143
  %190 = inttoptr i64 %185 to i32*
  store i32 %186, i32* %190
  store %struct.Memory* %loadMem_4069b2, %struct.Memory** %MEMORY
  %loadMem_4069b5 = load %struct.Memory*, %struct.Memory** %MEMORY
  %191 = getelementptr inbounds %struct.State, %struct.State* %0, i32 0, i32 6
  %192 = getelementptr inbounds %struct.GPR, %struct.GPR* %191, i32 0, i32 33
  %193 = getelementptr inbounds %struct.Reg, %struct.Reg* %192, i32 0, i32 0
  %PC.i141 = bitcast %union.anon* %193 to i64*
  %194 = getelementptr inbounds %struct.State, %struct.State* %0, i32 0, i32 6
  %195 = getelementptr inbounds %struct.GPR, %struct.GPR* %194, i32 0, i32 3
  %196 = getelementptr inbounds %struct.Reg, %struct.Reg* %195, i32 0, i32 0
  %BX.i = bitcast %union.anon* %196 to i16*
  %197 = getelementptr inbounds %struct.State, %struct.State* %0, i32 0, i32 6
  %198 = getelementptr inbounds %struct.GPR, %struct.GPR* %197, i32 0, i32 15
  %199 = getelementptr inbounds %struct.Reg, %struct.Reg* %198, i32 0, i32 0
  %RBP.i142 = bitcast %union.anon* %199 to i64*
  %200 = load i64, i64* %RBP.i142
  %201 = sub i64 %200, 30
  %202 = load i16, i16* %BX.i
  %203 = zext i16 %202 to i64
  %204 = load i64, i64* %PC.i141
  %205 = add i64 %204, 4
  store i64 %205, i64* %PC.i141
  %206 = inttoptr i64 %201 to i16*
  store i16 %202, i16* %206
  store %struct.Memory* %loadMem_4069b5, %struct.Memory** %MEMORY
  %loadMem_4069b9 = load %struct.Memory*, %struct.Memory** %MEMORY
  %207 = getelementptr inbounds %struct.State, %struct.State* %0, i32 0, i32 6
  %208 = getelementptr inbounds %struct.GPR, %struct.GPR* %207, i32 0, i32 33
  %209 = getelementptr inbounds %struct.Reg, %struct.Reg* %208, i32 0, i32 0
  %PC.i139 = bitcast %union.anon* %209 to i64*
  %210 = getelementptr inbounds %struct.State, %struct.State* %0, i32 0, i32 6
  %211 = getelementptr inbounds %struct.GPR, %struct.GPR* %210, i32 0, i32 23
  %212 = getelementptr inbounds %struct.Reg, %struct.Reg* %211, i32 0, i32 0
  %R11W.i = bitcast %union.anon* %212 to i16*
  %213 = getelementptr inbounds %struct.State, %struct.State* %0, i32 0, i32 6
  %214 = getelementptr inbounds %struct.GPR, %struct.GPR* %213, i32 0, i32 15
  %215 = getelementptr inbounds %struct.Reg, %struct.Reg* %214, i32 0, i32 0
  %RBP.i140 = bitcast %union.anon* %215 to i64*
  %216 = load i64, i64* %RBP.i140
  %217 = sub i64 %216, 32
  %218 = load i16, i16* %R11W.i
  %219 = zext i16 %218 to i64
  %220 = load i64, i64* %PC.i139
  %221 = add i64 %220, 5
  store i64 %221, i64* %PC.i139
  %222 = inttoptr i64 %217 to i16*
  store i16 %218, i16* %222
  store %struct.Memory* %loadMem_4069b9, %struct.Memory** %MEMORY
  %loadMem_4069be = load %struct.Memory*, %struct.Memory** %MEMORY
  %223 = getelementptr inbounds %struct.State, %struct.State* %0, i32 0, i32 6
  %224 = getelementptr inbounds %struct.GPR, %struct.GPR* %223, i32 0, i32 33
  %225 = getelementptr inbounds %struct.Reg, %struct.Reg* %224, i32 0, i32 0
  %PC.i137 = bitcast %union.anon* %225 to i64*
  %226 = getelementptr inbounds %struct.State, %struct.State* %0, i32 0, i32 6
  %227 = getelementptr inbounds %struct.GPR, %struct.GPR* %226, i32 0, i32 21
  %228 = getelementptr inbounds %struct.Reg, %struct.Reg* %227, i32 0, i32 0
  %R10W.i = bitcast %union.anon* %228 to i16*
  %229 = getelementptr inbounds %struct.State, %struct.State* %0, i32 0, i32 6
  %230 = getelementptr inbounds %struct.GPR, %struct.GPR* %229, i32 0, i32 15
  %231 = getelementptr inbounds %struct.Reg, %struct.Reg* %230, i32 0, i32 0
  %RBP.i138 = bitcast %union.anon* %231 to i64*
  %232 = load i64, i64* %RBP.i138
  %233 = sub i64 %232, 34
  %234 = load i16, i16* %R10W.i
  %235 = zext i16 %234 to i64
  %236 = load i64, i64* %PC.i137
  %237 = add i64 %236, 5
  store i64 %237, i64* %PC.i137
  %238 = inttoptr i64 %233 to i16*
  store i16 %234, i16* %238
  store %struct.Memory* %loadMem_4069be, %struct.Memory** %MEMORY
  %loadMem_4069c3 = load %struct.Memory*, %struct.Memory** %MEMORY
  %239 = getelementptr inbounds %struct.State, %struct.State* %0, i32 0, i32 6
  %240 = getelementptr inbounds %struct.GPR, %struct.GPR* %239, i32 0, i32 33
  %241 = getelementptr inbounds %struct.Reg, %struct.Reg* %240, i32 0, i32 0
  %PC.i134 = bitcast %union.anon* %241 to i64*
  %242 = getelementptr inbounds %struct.State, %struct.State* %0, i32 0, i32 6
  %243 = getelementptr inbounds %struct.GPR, %struct.GPR* %242, i32 0, i32 1
  %244 = getelementptr inbounds %struct.Reg, %struct.Reg* %243, i32 0, i32 0
  %AX.i135 = bitcast %union.anon* %244 to i16*
  %245 = getelementptr inbounds %struct.State, %struct.State* %0, i32 0, i32 6
  %246 = getelementptr inbounds %struct.GPR, %struct.GPR* %245, i32 0, i32 15
  %247 = getelementptr inbounds %struct.Reg, %struct.Reg* %246, i32 0, i32 0
  %RBP.i136 = bitcast %union.anon* %247 to i64*
  %248 = load i64, i64* %RBP.i136
  %249 = sub i64 %248, 36
  %250 = load i16, i16* %AX.i135
  %251 = zext i16 %250 to i64
  %252 = load i64, i64* %PC.i134
  %253 = add i64 %252, 4
  store i64 %253, i64* %PC.i134
  %254 = inttoptr i64 %249 to i16*
  store i16 %250, i16* %254
  store %struct.Memory* %loadMem_4069c3, %struct.Memory** %MEMORY
  %loadMem_4069c7 = load %struct.Memory*, %struct.Memory** %MEMORY
  %255 = getelementptr inbounds %struct.State, %struct.State* %0, i32 0, i32 6
  %256 = getelementptr inbounds %struct.GPR, %struct.GPR* %255, i32 0, i32 33
  %257 = getelementptr inbounds %struct.Reg, %struct.Reg* %256, i32 0, i32 0
  %PC.i131 = bitcast %union.anon* %257 to i64*
  %258 = getelementptr inbounds %struct.State, %struct.State* %0, i32 0, i32 6
  %259 = getelementptr inbounds %struct.GPR, %struct.GPR* %258, i32 0, i32 15
  %260 = getelementptr inbounds %struct.Reg, %struct.Reg* %259, i32 0, i32 0
  %RBP.i132 = bitcast %union.anon* %260 to i64*
  %261 = getelementptr inbounds %struct.State, %struct.State* %0, i32 0, i32 6
  %262 = getelementptr inbounds %struct.GPR, %struct.GPR* %261, i32 0, i32 29
  %263 = getelementptr inbounds %struct.Reg, %struct.Reg* %262, i32 0, i32 0
  %R14.i133 = bitcast %union.anon* %263 to i64*
  %264 = load i64, i64* %RBP.i132
  %265 = sub i64 %264, 48
  %266 = load i64, i64* %R14.i133
  %267 = load i64, i64* %PC.i131
  %268 = add i64 %267, 4
  store i64 %268, i64* %PC.i131
  %269 = inttoptr i64 %265 to i64*
  store i64 %266, i64* %269
  store %struct.Memory* %loadMem_4069c7, %struct.Memory** %MEMORY
  %loadMem1_4069cb = load %struct.Memory*, %struct.Memory** %MEMORY
  %270 = getelementptr inbounds %struct.State, %struct.State* %0, i32 0, i32 6
  %271 = getelementptr inbounds %struct.GPR, %struct.GPR* %270, i32 0, i32 33
  %272 = getelementptr inbounds %struct.Reg, %struct.Reg* %271, i32 0, i32 0
  %PC.i130 = bitcast %union.anon* %272 to i64*
  %273 = load i64, i64* %PC.i130
  %274 = add i64 %273, -23419
  %275 = load i64, i64* %PC.i130
  %276 = add i64 %275, 5
  %277 = load i64, i64* %PC.i130
  %278 = add i64 %277, 5
  store i64 %278, i64* %PC.i130
  %279 = getelementptr inbounds %struct.State, %struct.State* %0, i64 0, i32 6, i32 13, i32 0, i32 0
  %280 = load i64, i64* %279, align 8
  %281 = add i64 %280, -8
  %282 = inttoptr i64 %281 to i64*
  store i64 %276, i64* %282
  store i64 %281, i64* %279, align 8
  %283 = getelementptr inbounds %struct.State, %struct.State* %0, i64 0, i32 6, i32 33, i32 0, i32 0
  store i64 %274, i64* %283, align 8
  store %struct.Memory* %loadMem1_4069cb, %struct.Memory** %MEMORY
  %loadMem2_4069cb = load %struct.Memory*, %struct.Memory** %MEMORY
  %loadPC_4069cb = load i64, i64* %3
  %call2_4069cb = call %struct.Memory* @sub_400e50._Z11start_timerv(%struct.State* %0, i64 %loadPC_4069cb, %struct.Memory* %loadMem2_4069cb)
  store %struct.Memory* %call2_4069cb, %struct.Memory** %MEMORY
  %loadMem_4069d0 = load %struct.Memory*, %struct.Memory** %MEMORY
  %284 = getelementptr inbounds %struct.State, %struct.State* %0, i32 0, i32 6
  %285 = getelementptr inbounds %struct.GPR, %struct.GPR* %284, i32 0, i32 33
  %286 = getelementptr inbounds %struct.Reg, %struct.Reg* %285, i32 0, i32 0
  %PC.i128 = bitcast %union.anon* %286 to i64*
  %287 = getelementptr inbounds %struct.State, %struct.State* %0, i32 0, i32 6
  %288 = getelementptr inbounds %struct.GPR, %struct.GPR* %287, i32 0, i32 15
  %289 = getelementptr inbounds %struct.Reg, %struct.Reg* %288, i32 0, i32 0
  %RBP.i129 = bitcast %union.anon* %289 to i64*
  %290 = load i64, i64* %RBP.i129
  %291 = sub i64 %290, 52
  %292 = load i64, i64* %PC.i128
  %293 = add i64 %292, 7
  store i64 %293, i64* %PC.i128
  %294 = inttoptr i64 %291 to i32*
  store i32 0, i32* %294
  store %struct.Memory* %loadMem_4069d0, %struct.Memory** %MEMORY
  br label %block_.L_4069d7

block_.L_4069d7:                                  ; preds = %block_.L_406a5a, %entry
  %loadMem_4069d7 = load %struct.Memory*, %struct.Memory** %MEMORY
  %295 = getelementptr inbounds %struct.State, %struct.State* %0, i32 0, i32 6
  %296 = getelementptr inbounds %struct.GPR, %struct.GPR* %295, i32 0, i32 33
  %297 = getelementptr inbounds %struct.Reg, %struct.Reg* %296, i32 0, i32 0
  %PC.i125 = bitcast %union.anon* %297 to i64*
  %298 = getelementptr inbounds %struct.State, %struct.State* %0, i32 0, i32 6
  %299 = getelementptr inbounds %struct.GPR, %struct.GPR* %298, i32 0, i32 1
  %300 = getelementptr inbounds %struct.Reg, %struct.Reg* %299, i32 0, i32 0
  %RAX.i126 = bitcast %union.anon* %300 to i64*
  %301 = getelementptr inbounds %struct.State, %struct.State* %0, i32 0, i32 6
  %302 = getelementptr inbounds %struct.GPR, %struct.GPR* %301, i32 0, i32 15
  %303 = getelementptr inbounds %struct.Reg, %struct.Reg* %302, i32 0, i32 0
  %RBP.i127 = bitcast %union.anon* %303 to i64*
  %304 = load i64, i64* %RBP.i127
  %305 = sub i64 %304, 52
  %306 = load i64, i64* %PC.i125
  %307 = add i64 %306, 3
  store i64 %307, i64* %PC.i125
  %308 = inttoptr i64 %305 to i32*
  %309 = load i32, i32* %308
  %310 = zext i32 %309 to i64
  store i64 %310, i64* %RAX.i126, align 8
  store %struct.Memory* %loadMem_4069d7, %struct.Memory** %MEMORY
  %loadMem_4069da = load %struct.Memory*, %struct.Memory** %MEMORY
  %311 = getelementptr inbounds %struct.State, %struct.State* %0, i32 0, i32 6
  %312 = getelementptr inbounds %struct.GPR, %struct.GPR* %311, i32 0, i32 33
  %313 = getelementptr inbounds %struct.Reg, %struct.Reg* %312, i32 0, i32 0
  %PC.i123 = bitcast %union.anon* %313 to i64*
  %314 = getelementptr inbounds %struct.State, %struct.State* %0, i32 0, i32 6
  %315 = getelementptr inbounds %struct.GPR, %struct.GPR* %314, i32 0, i32 1
  %316 = getelementptr inbounds %struct.Reg, %struct.Reg* %315, i32 0, i32 0
  %EAX.i124 = bitcast %union.anon* %316 to i32*
  %317 = load i32, i32* %EAX.i124
  %318 = zext i32 %317 to i64
  %319 = load i64, i64* %PC.i123
  %320 = add i64 %319, 7
  store i64 %320, i64* %PC.i123
  %321 = load i32, i32* inttoptr (i64 6398080 to i32*)
  %322 = sub i32 %317, %321
  %323 = icmp ult i32 %317, %321
  %324 = zext i1 %323 to i8
  %325 = getelementptr inbounds %struct.State, %struct.State* %0, i64 0, i32 2, i32 1
  store i8 %324, i8* %325, align 1
  %326 = and i32 %322, 255
  %327 = call i32 @llvm.ctpop.i32(i32 %326)
  %328 = trunc i32 %327 to i8
  %329 = and i8 %328, 1
  %330 = xor i8 %329, 1
  %331 = getelementptr inbounds %struct.State, %struct.State* %0, i64 0, i32 2, i32 3
  store i8 %330, i8* %331, align 1
  %332 = xor i32 %321, %317
  %333 = xor i32 %332, %322
  %334 = lshr i32 %333, 4
  %335 = trunc i32 %334 to i8
  %336 = and i8 %335, 1
  %337 = getelementptr inbounds %struct.State, %struct.State* %0, i64 0, i32 2, i32 5
  store i8 %336, i8* %337, align 1
  %338 = icmp eq i32 %322, 0
  %339 = zext i1 %338 to i8
  %340 = getelementptr inbounds %struct.State, %struct.State* %0, i64 0, i32 2, i32 7
  store i8 %339, i8* %340, align 1
  %341 = lshr i32 %322, 31
  %342 = trunc i32 %341 to i8
  %343 = getelementptr inbounds %struct.State, %struct.State* %0, i64 0, i32 2, i32 9
  store i8 %342, i8* %343, align 1
  %344 = lshr i32 %317, 31
  %345 = lshr i32 %321, 31
  %346 = xor i32 %345, %344
  %347 = xor i32 %341, %344
  %348 = add i32 %347, %346
  %349 = icmp eq i32 %348, 2
  %350 = zext i1 %349 to i8
  %351 = getelementptr inbounds %struct.State, %struct.State* %0, i64 0, i32 2, i32 13
  store i8 %350, i8* %351, align 1
  store %struct.Memory* %loadMem_4069da, %struct.Memory** %MEMORY
  %loadMem_4069e1 = load %struct.Memory*, %struct.Memory** %MEMORY
  %352 = getelementptr inbounds %struct.State, %struct.State* %0, i32 0, i32 6
  %353 = getelementptr inbounds %struct.GPR, %struct.GPR* %352, i32 0, i32 33
  %354 = getelementptr inbounds %struct.Reg, %struct.Reg* %353, i32 0, i32 0
  %PC.i122 = bitcast %union.anon* %354 to i64*
  %355 = load i64, i64* %PC.i122
  %356 = add i64 %355, 185
  %357 = load i64, i64* %PC.i122
  %358 = add i64 %357, 6
  %359 = load i64, i64* %PC.i122
  %360 = add i64 %359, 6
  store i64 %360, i64* %PC.i122
  %361 = getelementptr inbounds %struct.State, %struct.State* %0, i64 0, i32 2, i32 9
  %362 = load i8, i8* %361, align 1
  %363 = icmp ne i8 %362, 0
  %364 = getelementptr inbounds %struct.State, %struct.State* %0, i64 0, i32 2, i32 13
  %365 = load i8, i8* %364, align 1
  %366 = icmp ne i8 %365, 0
  %367 = xor i1 %363, %366
  %368 = xor i1 %367, true
  %369 = zext i1 %368 to i8
  store i8 %369, i8* %BRANCH_TAKEN, align 1
  %370 = getelementptr inbounds %struct.State, %struct.State* %0, i64 0, i32 6, i32 33, i32 0, i32 0
  %371 = select i1 %367, i64 %358, i64 %356
  store i64 %371, i64* %370, align 8
  store %struct.Memory* %loadMem_4069e1, %struct.Memory** %MEMORY
  %loadBr_4069e1 = load i8, i8* %BRANCH_TAKEN
  %cmpBr_4069e1 = icmp eq i8 %loadBr_4069e1, 1
  br i1 %cmpBr_4069e1, label %block_.L_406a9a, label %block_4069e7

block_4069e7:                                     ; preds = %block_.L_4069d7
  %loadMem_4069e7 = load %struct.Memory*, %struct.Memory** %MEMORY
  %372 = getelementptr inbounds %struct.State, %struct.State* %0, i32 0, i32 6
  %373 = getelementptr inbounds %struct.GPR, %struct.GPR* %372, i32 0, i32 33
  %374 = getelementptr inbounds %struct.Reg, %struct.Reg* %373, i32 0, i32 0
  %PC.i120 = bitcast %union.anon* %374 to i64*
  %375 = getelementptr inbounds %struct.State, %struct.State* %0, i32 0, i32 6
  %376 = getelementptr inbounds %struct.GPR, %struct.GPR* %375, i32 0, i32 15
  %377 = getelementptr inbounds %struct.Reg, %struct.Reg* %376, i32 0, i32 0
  %RBP.i121 = bitcast %union.anon* %377 to i64*
  %378 = load i64, i64* %RBP.i121
  %379 = sub i64 %378, 54
  %380 = load i64, i64* %PC.i120
  %381 = add i64 %380, 6
  store i64 %381, i64* %PC.i120
  %382 = inttoptr i64 %379 to i16*
  store i16 0, i16* %382
  store %struct.Memory* %loadMem_4069e7, %struct.Memory** %MEMORY
  %loadMem_4069ed = load %struct.Memory*, %struct.Memory** %MEMORY
  %383 = getelementptr inbounds %struct.State, %struct.State* %0, i32 0, i32 6
  %384 = getelementptr inbounds %struct.GPR, %struct.GPR* %383, i32 0, i32 33
  %385 = getelementptr inbounds %struct.Reg, %struct.Reg* %384, i32 0, i32 0
  %PC.i118 = bitcast %union.anon* %385 to i64*
  %386 = getelementptr inbounds %struct.State, %struct.State* %0, i32 0, i32 6
  %387 = getelementptr inbounds %struct.GPR, %struct.GPR* %386, i32 0, i32 15
  %388 = getelementptr inbounds %struct.Reg, %struct.Reg* %387, i32 0, i32 0
  %RBP.i119 = bitcast %union.anon* %388 to i64*
  %389 = load i64, i64* %RBP.i119
  %390 = sub i64 %389, 60
  %391 = load i64, i64* %PC.i118
  %392 = add i64 %391, 7
  store i64 %392, i64* %PC.i118
  %393 = inttoptr i64 %390 to i32*
  store i32 0, i32* %393
  store %struct.Memory* %loadMem_4069ed, %struct.Memory** %MEMORY
  br label %block_.L_4069f4

block_.L_4069f4:                                  ; preds = %block_406a00, %block_4069e7
  %loadMem_4069f4 = load %struct.Memory*, %struct.Memory** %MEMORY
  %394 = getelementptr inbounds %struct.State, %struct.State* %0, i32 0, i32 6
  %395 = getelementptr inbounds %struct.GPR, %struct.GPR* %394, i32 0, i32 33
  %396 = getelementptr inbounds %struct.Reg, %struct.Reg* %395, i32 0, i32 0
  %PC.i115 = bitcast %union.anon* %396 to i64*
  %397 = getelementptr inbounds %struct.State, %struct.State* %0, i32 0, i32 6
  %398 = getelementptr inbounds %struct.GPR, %struct.GPR* %397, i32 0, i32 1
  %399 = getelementptr inbounds %struct.Reg, %struct.Reg* %398, i32 0, i32 0
  %RAX.i116 = bitcast %union.anon* %399 to i64*
  %400 = getelementptr inbounds %struct.State, %struct.State* %0, i32 0, i32 6
  %401 = getelementptr inbounds %struct.GPR, %struct.GPR* %400, i32 0, i32 15
  %402 = getelementptr inbounds %struct.Reg, %struct.Reg* %401, i32 0, i32 0
  %RBP.i117 = bitcast %union.anon* %402 to i64*
  %403 = load i64, i64* %RBP.i117
  %404 = sub i64 %403, 60
  %405 = load i64, i64* %PC.i115
  %406 = add i64 %405, 3
  store i64 %406, i64* %PC.i115
  %407 = inttoptr i64 %404 to i32*
  %408 = load i32, i32* %407
  %409 = zext i32 %408 to i64
  store i64 %409, i64* %RAX.i116, align 8
  store %struct.Memory* %loadMem_4069f4, %struct.Memory** %MEMORY
  %loadMem_4069f7 = load %struct.Memory*, %struct.Memory** %MEMORY
  %410 = getelementptr inbounds %struct.State, %struct.State* %0, i32 0, i32 6
  %411 = getelementptr inbounds %struct.GPR, %struct.GPR* %410, i32 0, i32 33
  %412 = getelementptr inbounds %struct.Reg, %struct.Reg* %411, i32 0, i32 0
  %PC.i112 = bitcast %union.anon* %412 to i64*
  %413 = getelementptr inbounds %struct.State, %struct.State* %0, i32 0, i32 6
  %414 = getelementptr inbounds %struct.GPR, %struct.GPR* %413, i32 0, i32 1
  %415 = getelementptr inbounds %struct.Reg, %struct.Reg* %414, i32 0, i32 0
  %EAX.i113 = bitcast %union.anon* %415 to i32*
  %416 = getelementptr inbounds %struct.State, %struct.State* %0, i32 0, i32 6
  %417 = getelementptr inbounds %struct.GPR, %struct.GPR* %416, i32 0, i32 15
  %418 = getelementptr inbounds %struct.Reg, %struct.Reg* %417, i32 0, i32 0
  %RBP.i114 = bitcast %union.anon* %418 to i64*
  %419 = load i32, i32* %EAX.i113
  %420 = zext i32 %419 to i64
  %421 = load i64, i64* %RBP.i114
  %422 = sub i64 %421, 28
  %423 = load i64, i64* %PC.i112
  %424 = add i64 %423, 3
  store i64 %424, i64* %PC.i112
  %425 = inttoptr i64 %422 to i32*
  %426 = load i32, i32* %425
  %427 = sub i32 %419, %426
  %428 = icmp ult i32 %419, %426
  %429 = zext i1 %428 to i8
  %430 = getelementptr inbounds %struct.State, %struct.State* %0, i64 0, i32 2, i32 1
  store i8 %429, i8* %430, align 1
  %431 = and i32 %427, 255
  %432 = call i32 @llvm.ctpop.i32(i32 %431)
  %433 = trunc i32 %432 to i8
  %434 = and i8 %433, 1
  %435 = xor i8 %434, 1
  %436 = getelementptr inbounds %struct.State, %struct.State* %0, i64 0, i32 2, i32 3
  store i8 %435, i8* %436, align 1
  %437 = xor i32 %426, %419
  %438 = xor i32 %437, %427
  %439 = lshr i32 %438, 4
  %440 = trunc i32 %439 to i8
  %441 = and i8 %440, 1
  %442 = getelementptr inbounds %struct.State, %struct.State* %0, i64 0, i32 2, i32 5
  store i8 %441, i8* %442, align 1
  %443 = icmp eq i32 %427, 0
  %444 = zext i1 %443 to i8
  %445 = getelementptr inbounds %struct.State, %struct.State* %0, i64 0, i32 2, i32 7
  store i8 %444, i8* %445, align 1
  %446 = lshr i32 %427, 31
  %447 = trunc i32 %446 to i8
  %448 = getelementptr inbounds %struct.State, %struct.State* %0, i64 0, i32 2, i32 9
  store i8 %447, i8* %448, align 1
  %449 = lshr i32 %419, 31
  %450 = lshr i32 %426, 31
  %451 = xor i32 %450, %449
  %452 = xor i32 %446, %449
  %453 = add i32 %452, %451
  %454 = icmp eq i32 %453, 2
  %455 = zext i1 %454 to i8
  %456 = getelementptr inbounds %struct.State, %struct.State* %0, i64 0, i32 2, i32 13
  store i8 %455, i8* %456, align 1
  store %struct.Memory* %loadMem_4069f7, %struct.Memory** %MEMORY
  %loadMem_4069fa = load %struct.Memory*, %struct.Memory** %MEMORY
  %457 = getelementptr inbounds %struct.State, %struct.State* %0, i32 0, i32 6
  %458 = getelementptr inbounds %struct.GPR, %struct.GPR* %457, i32 0, i32 33
  %459 = getelementptr inbounds %struct.Reg, %struct.Reg* %458, i32 0, i32 0
  %PC.i111 = bitcast %union.anon* %459 to i64*
  %460 = load i64, i64* %PC.i111
  %461 = add i64 %460, 96
  %462 = load i64, i64* %PC.i111
  %463 = add i64 %462, 6
  %464 = load i64, i64* %PC.i111
  %465 = add i64 %464, 6
  store i64 %465, i64* %PC.i111
  %466 = getelementptr inbounds %struct.State, %struct.State* %0, i64 0, i32 2, i32 9
  %467 = load i8, i8* %466, align 1
  %468 = icmp ne i8 %467, 0
  %469 = getelementptr inbounds %struct.State, %struct.State* %0, i64 0, i32 2, i32 13
  %470 = load i8, i8* %469, align 1
  %471 = icmp ne i8 %470, 0
  %472 = xor i1 %468, %471
  %473 = xor i1 %472, true
  %474 = zext i1 %473 to i8
  store i8 %474, i8* %BRANCH_TAKEN, align 1
  %475 = getelementptr inbounds %struct.State, %struct.State* %0, i64 0, i32 6, i32 33, i32 0, i32 0
  %476 = select i1 %472, i64 %463, i64 %461
  store i64 %476, i64* %475, align 8
  store %struct.Memory* %loadMem_4069fa, %struct.Memory** %MEMORY
  %loadBr_4069fa = load i8, i8* %BRANCH_TAKEN
  %cmpBr_4069fa = icmp eq i8 %loadBr_4069fa, 1
  br i1 %cmpBr_4069fa, label %block_.L_406a5a, label %block_406a00

block_406a00:                                     ; preds = %block_.L_4069f4
  %loadMem_406a00 = load %struct.Memory*, %struct.Memory** %MEMORY
  %477 = getelementptr inbounds %struct.State, %struct.State* %0, i32 0, i32 6
  %478 = getelementptr inbounds %struct.GPR, %struct.GPR* %477, i32 0, i32 33
  %479 = getelementptr inbounds %struct.Reg, %struct.Reg* %478, i32 0, i32 0
  %PC.i108 = bitcast %union.anon* %479 to i64*
  %480 = getelementptr inbounds %struct.State, %struct.State* %0, i32 0, i32 6
  %481 = getelementptr inbounds %struct.GPR, %struct.GPR* %480, i32 0, i32 1
  %482 = getelementptr inbounds %struct.Reg, %struct.Reg* %481, i32 0, i32 0
  %RAX.i109 = bitcast %union.anon* %482 to i64*
  %483 = getelementptr inbounds %struct.State, %struct.State* %0, i32 0, i32 6
  %484 = getelementptr inbounds %struct.GPR, %struct.GPR* %483, i32 0, i32 15
  %485 = getelementptr inbounds %struct.Reg, %struct.Reg* %484, i32 0, i32 0
  %RBP.i110 = bitcast %union.anon* %485 to i64*
  %486 = load i64, i64* %RBP.i110
  %487 = sub i64 %486, 24
  %488 = load i64, i64* %PC.i108
  %489 = add i64 %488, 4
  store i64 %489, i64* %PC.i108
  %490 = inttoptr i64 %487 to i64*
  %491 = load i64, i64* %490
  store i64 %491, i64* %RAX.i109, align 8
  store %struct.Memory* %loadMem_406a00, %struct.Memory** %MEMORY
  %loadMem_406a04 = load %struct.Memory*, %struct.Memory** %MEMORY
  %492 = getelementptr inbounds %struct.State, %struct.State* %0, i32 0, i32 6
  %493 = getelementptr inbounds %struct.GPR, %struct.GPR* %492, i32 0, i32 33
  %494 = getelementptr inbounds %struct.Reg, %struct.Reg* %493, i32 0, i32 0
  %PC.i105 = bitcast %union.anon* %494 to i64*
  %495 = getelementptr inbounds %struct.State, %struct.State* %0, i32 0, i32 6
  %496 = getelementptr inbounds %struct.GPR, %struct.GPR* %495, i32 0, i32 5
  %497 = getelementptr inbounds %struct.Reg, %struct.Reg* %496, i32 0, i32 0
  %RCX.i106 = bitcast %union.anon* %497 to i64*
  %498 = getelementptr inbounds %struct.State, %struct.State* %0, i32 0, i32 6
  %499 = getelementptr inbounds %struct.GPR, %struct.GPR* %498, i32 0, i32 15
  %500 = getelementptr inbounds %struct.Reg, %struct.Reg* %499, i32 0, i32 0
  %RBP.i107 = bitcast %union.anon* %500 to i64*
  %501 = load i64, i64* %RBP.i107
  %502 = sub i64 %501, 60
  %503 = load i64, i64* %PC.i105
  %504 = add i64 %503, 4
  store i64 %504, i64* %PC.i105
  %505 = inttoptr i64 %502 to i32*
  %506 = load i32, i32* %505
  %507 = sext i32 %506 to i64
  store i64 %507, i64* %RCX.i106, align 8
  store %struct.Memory* %loadMem_406a04, %struct.Memory** %MEMORY
  %loadMem_406a08 = load %struct.Memory*, %struct.Memory** %MEMORY
  %508 = getelementptr inbounds %struct.State, %struct.State* %0, i32 0, i32 6
  %509 = getelementptr inbounds %struct.GPR, %struct.GPR* %508, i32 0, i32 33
  %510 = getelementptr inbounds %struct.Reg, %struct.Reg* %509, i32 0, i32 0
  %PC.i101 = bitcast %union.anon* %510 to i64*
  %511 = getelementptr inbounds %struct.State, %struct.State* %0, i32 0, i32 6
  %512 = getelementptr inbounds %struct.GPR, %struct.GPR* %511, i32 0, i32 7
  %513 = getelementptr inbounds %struct.Reg, %struct.Reg* %512, i32 0, i32 0
  %DX.i102 = bitcast %union.anon* %513 to i16*
  %514 = getelementptr inbounds %struct.State, %struct.State* %0, i32 0, i32 6
  %515 = getelementptr inbounds %struct.GPR, %struct.GPR* %514, i32 0, i32 1
  %516 = getelementptr inbounds %struct.Reg, %struct.Reg* %515, i32 0, i32 0
  %RAX.i103 = bitcast %union.anon* %516 to i64*
  %517 = getelementptr inbounds %struct.State, %struct.State* %0, i32 0, i32 6
  %518 = getelementptr inbounds %struct.GPR, %struct.GPR* %517, i32 0, i32 5
  %519 = getelementptr inbounds %struct.Reg, %struct.Reg* %518, i32 0, i32 0
  %RCX.i104 = bitcast %union.anon* %519 to i64*
  %520 = load i64, i64* %RAX.i103
  %521 = load i64, i64* %RCX.i104
  %522 = mul i64 %521, 2
  %523 = add i64 %522, %520
  %524 = load i64, i64* %PC.i101
  %525 = add i64 %524, 4
  store i64 %525, i64* %PC.i101
  %526 = inttoptr i64 %523 to i16*
  %527 = load i16, i16* %526
  store i16 %527, i16* %DX.i102, align 2
  store %struct.Memory* %loadMem_406a08, %struct.Memory** %MEMORY
  %loadMem_406a0c = load %struct.Memory*, %struct.Memory** %MEMORY
  %528 = getelementptr inbounds %struct.State, %struct.State* %0, i32 0, i32 6
  %529 = getelementptr inbounds %struct.GPR, %struct.GPR* %528, i32 0, i32 33
  %530 = getelementptr inbounds %struct.Reg, %struct.Reg* %529, i32 0, i32 0
  %PC.i98 = bitcast %union.anon* %530 to i64*
  %531 = getelementptr inbounds %struct.State, %struct.State* %0, i32 0, i32 6
  %532 = getelementptr inbounds %struct.GPR, %struct.GPR* %531, i32 0, i32 9
  %533 = getelementptr inbounds %struct.Reg, %struct.Reg* %532, i32 0, i32 0
  %SI.i99 = bitcast %union.anon* %533 to i16*
  %534 = getelementptr inbounds %struct.State, %struct.State* %0, i32 0, i32 6
  %535 = getelementptr inbounds %struct.GPR, %struct.GPR* %534, i32 0, i32 15
  %536 = getelementptr inbounds %struct.Reg, %struct.Reg* %535, i32 0, i32 0
  %RBP.i100 = bitcast %union.anon* %536 to i64*
  %537 = load i64, i64* %RBP.i100
  %538 = sub i64 %537, 30
  %539 = load i64, i64* %PC.i98
  %540 = add i64 %539, 4
  store i64 %540, i64* %PC.i98
  %541 = inttoptr i64 %538 to i16*
  %542 = load i16, i16* %541
  store i16 %542, i16* %SI.i99, align 2
  store %struct.Memory* %loadMem_406a0c, %struct.Memory** %MEMORY
  %loadMem_406a10 = load %struct.Memory*, %struct.Memory** %MEMORY
  %543 = getelementptr inbounds %struct.State, %struct.State* %0, i32 0, i32 6
  %544 = getelementptr inbounds %struct.GPR, %struct.GPR* %543, i32 0, i32 33
  %545 = getelementptr inbounds %struct.Reg, %struct.Reg* %544, i32 0, i32 0
  %PC.i95 = bitcast %union.anon* %545 to i64*
  %546 = getelementptr inbounds %struct.State, %struct.State* %0, i32 0, i32 6
  %547 = getelementptr inbounds %struct.GPR, %struct.GPR* %546, i32 0, i32 11
  %548 = getelementptr inbounds %struct.Reg, %struct.Reg* %547, i32 0, i32 0
  %DI.i96 = bitcast %union.anon* %548 to i16*
  %549 = getelementptr inbounds %struct.State, %struct.State* %0, i32 0, i32 6
  %550 = getelementptr inbounds %struct.GPR, %struct.GPR* %549, i32 0, i32 15
  %551 = getelementptr inbounds %struct.Reg, %struct.Reg* %550, i32 0, i32 0
  %RBP.i97 = bitcast %union.anon* %551 to i64*
  %552 = load i64, i64* %RBP.i97
  %553 = sub i64 %552, 32
  %554 = load i64, i64* %PC.i95
  %555 = add i64 %554, 4
  store i64 %555, i64* %PC.i95
  %556 = inttoptr i64 %553 to i16*
  %557 = load i16, i16* %556
  store i16 %557, i16* %DI.i96, align 2
  store %struct.Memory* %loadMem_406a10, %struct.Memory** %MEMORY
  %loadMem_406a14 = load %struct.Memory*, %struct.Memory** %MEMORY
  %558 = getelementptr inbounds %struct.State, %struct.State* %0, i32 0, i32 6
  %559 = getelementptr inbounds %struct.GPR, %struct.GPR* %558, i32 0, i32 33
  %560 = getelementptr inbounds %struct.Reg, %struct.Reg* %559, i32 0, i32 0
  %PC.i92 = bitcast %union.anon* %560 to i64*
  %561 = getelementptr inbounds %struct.State, %struct.State* %0, i32 0, i32 6
  %562 = getelementptr inbounds %struct.GPR, %struct.GPR* %561, i32 0, i32 17
  %563 = getelementptr inbounds %struct.Reg, %struct.Reg* %562, i32 0, i32 0
  %R8W.i93 = bitcast %union.anon* %563 to i16*
  %564 = getelementptr inbounds %struct.State, %struct.State* %0, i32 0, i32 6
  %565 = getelementptr inbounds %struct.GPR, %struct.GPR* %564, i32 0, i32 15
  %566 = getelementptr inbounds %struct.Reg, %struct.Reg* %565, i32 0, i32 0
  %RBP.i94 = bitcast %union.anon* %566 to i64*
  %567 = load i64, i64* %RBP.i94
  %568 = sub i64 %567, 34
  %569 = load i64, i64* %PC.i92
  %570 = add i64 %569, 5
  store i64 %570, i64* %PC.i92
  %571 = inttoptr i64 %568 to i16*
  %572 = load i16, i16* %571
  store i16 %572, i16* %R8W.i93, align 2
  store %struct.Memory* %loadMem_406a14, %struct.Memory** %MEMORY
  %loadMem_406a19 = load %struct.Memory*, %struct.Memory** %MEMORY
  %573 = getelementptr inbounds %struct.State, %struct.State* %0, i32 0, i32 6
  %574 = getelementptr inbounds %struct.GPR, %struct.GPR* %573, i32 0, i32 33
  %575 = getelementptr inbounds %struct.Reg, %struct.Reg* %574, i32 0, i32 0
  %PC.i89 = bitcast %union.anon* %575 to i64*
  %576 = getelementptr inbounds %struct.State, %struct.State* %0, i32 0, i32 6
  %577 = getelementptr inbounds %struct.GPR, %struct.GPR* %576, i32 0, i32 7
  %578 = getelementptr inbounds %struct.Reg, %struct.Reg* %577, i32 0, i32 0
  %DX.i90 = bitcast %union.anon* %578 to i16*
  %579 = getelementptr inbounds %struct.State, %struct.State* %0, i32 0, i32 6
  %580 = getelementptr inbounds %struct.GPR, %struct.GPR* %579, i32 0, i32 19
  %581 = getelementptr inbounds %struct.Reg, %struct.Reg* %580, i32 0, i32 0
  %R9D.i91 = bitcast %union.anon* %581 to i32*
  %582 = bitcast i32* %R9D.i91 to i64*
  %583 = load i16, i16* %DX.i90
  %584 = zext i16 %583 to i64
  %585 = load i64, i64* %PC.i89
  %586 = add i64 %585, 4
  store i64 %586, i64* %PC.i89
  %587 = and i64 %584, 65535
  store i64 %587, i64* %582, align 8
  store %struct.Memory* %loadMem_406a19, %struct.Memory** %MEMORY
  %loadMem_406a1d = load %struct.Memory*, %struct.Memory** %MEMORY
  %588 = getelementptr inbounds %struct.State, %struct.State* %0, i32 0, i32 6
  %589 = getelementptr inbounds %struct.GPR, %struct.GPR* %588, i32 0, i32 33
  %590 = getelementptr inbounds %struct.Reg, %struct.Reg* %589, i32 0, i32 0
  %PC.i87 = bitcast %union.anon* %590 to i64*
  %591 = getelementptr inbounds %struct.State, %struct.State* %0, i32 0, i32 6
  %592 = getelementptr inbounds %struct.GPR, %struct.GPR* %591, i32 0, i32 11
  %593 = getelementptr inbounds %struct.Reg, %struct.Reg* %592, i32 0, i32 0
  %DI.i = bitcast %union.anon* %593 to i16*
  %594 = getelementptr inbounds %struct.State, %struct.State* %0, i32 0, i32 6
  %595 = getelementptr inbounds %struct.GPR, %struct.GPR* %594, i32 0, i32 15
  %596 = getelementptr inbounds %struct.Reg, %struct.Reg* %595, i32 0, i32 0
  %RBP.i88 = bitcast %union.anon* %596 to i64*
  %597 = load i64, i64* %RBP.i88
  %598 = sub i64 %597, 62
  %599 = load i16, i16* %DI.i
  %600 = zext i16 %599 to i64
  %601 = load i64, i64* %PC.i87
  %602 = add i64 %601, 4
  store i64 %602, i64* %PC.i87
  %603 = inttoptr i64 %598 to i16*
  store i16 %599, i16* %603
  store %struct.Memory* %loadMem_406a1d, %struct.Memory** %MEMORY
  %loadMem_406a21 = load %struct.Memory*, %struct.Memory** %MEMORY
  %604 = getelementptr inbounds %struct.State, %struct.State* %0, i32 0, i32 6
  %605 = getelementptr inbounds %struct.GPR, %struct.GPR* %604, i32 0, i32 33
  %606 = getelementptr inbounds %struct.Reg, %struct.Reg* %605, i32 0, i32 0
  %PC.i85 = bitcast %union.anon* %606 to i64*
  %607 = getelementptr inbounds %struct.State, %struct.State* %0, i32 0, i32 6
  %608 = getelementptr inbounds %struct.GPR, %struct.GPR* %607, i32 0, i32 19
  %609 = getelementptr inbounds %struct.Reg, %struct.Reg* %608, i32 0, i32 0
  %R9D.i = bitcast %union.anon* %609 to i32*
  %610 = getelementptr inbounds %struct.State, %struct.State* %0, i32 0, i32 6
  %611 = getelementptr inbounds %struct.GPR, %struct.GPR* %610, i32 0, i32 11
  %612 = getelementptr inbounds %struct.Reg, %struct.Reg* %611, i32 0, i32 0
  %RDI.i86 = bitcast %union.anon* %612 to i64*
  %613 = load i32, i32* %R9D.i
  %614 = zext i32 %613 to i64
  %615 = load i64, i64* %PC.i85
  %616 = add i64 %615, 3
  store i64 %616, i64* %PC.i85
  %617 = and i64 %614, 4294967295
  store i64 %617, i64* %RDI.i86, align 8
  store %struct.Memory* %loadMem_406a21, %struct.Memory** %MEMORY
  %loadMem_406a24 = load %struct.Memory*, %struct.Memory** %MEMORY
  %618 = getelementptr inbounds %struct.State, %struct.State* %0, i32 0, i32 6
  %619 = getelementptr inbounds %struct.GPR, %struct.GPR* %618, i32 0, i32 33
  %620 = getelementptr inbounds %struct.Reg, %struct.Reg* %619, i32 0, i32 0
  %PC.i82 = bitcast %union.anon* %620 to i64*
  %621 = getelementptr inbounds %struct.State, %struct.State* %0, i32 0, i32 6
  %622 = getelementptr inbounds %struct.GPR, %struct.GPR* %621, i32 0, i32 9
  %623 = getelementptr inbounds %struct.Reg, %struct.Reg* %622, i32 0, i32 0
  %SI.i83 = bitcast %union.anon* %623 to i16*
  %624 = getelementptr inbounds %struct.State, %struct.State* %0, i32 0, i32 6
  %625 = getelementptr inbounds %struct.GPR, %struct.GPR* %624, i32 0, i32 9
  %626 = getelementptr inbounds %struct.Reg, %struct.Reg* %625, i32 0, i32 0
  %RSI.i84 = bitcast %union.anon* %626 to i64*
  %627 = load i16, i16* %SI.i83
  %628 = zext i16 %627 to i64
  %629 = load i64, i64* %PC.i82
  %630 = add i64 %629, 3
  store i64 %630, i64* %PC.i82
  %631 = and i64 %628, 65535
  store i64 %631, i64* %RSI.i84, align 8
  store %struct.Memory* %loadMem_406a24, %struct.Memory** %MEMORY
  %loadMem_406a27 = load %struct.Memory*, %struct.Memory** %MEMORY
  %632 = getelementptr inbounds %struct.State, %struct.State* %0, i32 0, i32 6
  %633 = getelementptr inbounds %struct.GPR, %struct.GPR* %632, i32 0, i32 33
  %634 = getelementptr inbounds %struct.Reg, %struct.Reg* %633, i32 0, i32 0
  %PC.i79 = bitcast %union.anon* %634 to i64*
  %635 = getelementptr inbounds %struct.State, %struct.State* %0, i32 0, i32 6
  %636 = getelementptr inbounds %struct.GPR, %struct.GPR* %635, i32 0, i32 7
  %637 = getelementptr inbounds %struct.Reg, %struct.Reg* %636, i32 0, i32 0
  %DX.i80 = bitcast %union.anon* %637 to i16*
  %638 = getelementptr inbounds %struct.State, %struct.State* %0, i32 0, i32 6
  %639 = getelementptr inbounds %struct.GPR, %struct.GPR* %638, i32 0, i32 15
  %640 = getelementptr inbounds %struct.Reg, %struct.Reg* %639, i32 0, i32 0
  %RBP.i81 = bitcast %union.anon* %640 to i64*
  %641 = load i64, i64* %RBP.i81
  %642 = sub i64 %641, 62
  %643 = load i64, i64* %PC.i79
  %644 = add i64 %643, 4
  store i64 %644, i64* %PC.i79
  %645 = inttoptr i64 %642 to i16*
  %646 = load i16, i16* %645
  store i16 %646, i16* %DX.i80, align 2
  store %struct.Memory* %loadMem_406a27, %struct.Memory** %MEMORY
  %loadMem_406a2b = load %struct.Memory*, %struct.Memory** %MEMORY
  %647 = getelementptr inbounds %struct.State, %struct.State* %0, i32 0, i32 6
  %648 = getelementptr inbounds %struct.GPR, %struct.GPR* %647, i32 0, i32 33
  %649 = getelementptr inbounds %struct.Reg, %struct.Reg* %648, i32 0, i32 0
  %PC.i76 = bitcast %union.anon* %649 to i64*
  %650 = getelementptr inbounds %struct.State, %struct.State* %0, i32 0, i32 6
  %651 = getelementptr inbounds %struct.GPR, %struct.GPR* %650, i32 0, i32 7
  %652 = getelementptr inbounds %struct.Reg, %struct.Reg* %651, i32 0, i32 0
  %DX.i77 = bitcast %union.anon* %652 to i16*
  %653 = getelementptr inbounds %struct.State, %struct.State* %0, i32 0, i32 6
  %654 = getelementptr inbounds %struct.GPR, %struct.GPR* %653, i32 0, i32 7
  %655 = getelementptr inbounds %struct.Reg, %struct.Reg* %654, i32 0, i32 0
  %RDX.i78 = bitcast %union.anon* %655 to i64*
  %656 = load i16, i16* %DX.i77
  %657 = zext i16 %656 to i64
  %658 = load i64, i64* %PC.i76
  %659 = add i64 %658, 3
  store i64 %659, i64* %PC.i76
  %660 = and i64 %657, 65535
  store i64 %660, i64* %RDX.i78, align 8
  store %struct.Memory* %loadMem_406a2b, %struct.Memory** %MEMORY
  %loadMem_406a2e = load %struct.Memory*, %struct.Memory** %MEMORY
  %661 = getelementptr inbounds %struct.State, %struct.State* %0, i32 0, i32 6
  %662 = getelementptr inbounds %struct.GPR, %struct.GPR* %661, i32 0, i32 33
  %663 = getelementptr inbounds %struct.Reg, %struct.Reg* %662, i32 0, i32 0
  %PC.i74 = bitcast %union.anon* %663 to i64*
  %664 = getelementptr inbounds %struct.State, %struct.State* %0, i32 0, i32 6
  %665 = getelementptr inbounds %struct.GPR, %struct.GPR* %664, i32 0, i32 17
  %666 = getelementptr inbounds %struct.Reg, %struct.Reg* %665, i32 0, i32 0
  %R8W.i = bitcast %union.anon* %666 to i16*
  %667 = getelementptr inbounds %struct.State, %struct.State* %0, i32 0, i32 6
  %668 = getelementptr inbounds %struct.GPR, %struct.GPR* %667, i32 0, i32 5
  %669 = getelementptr inbounds %struct.Reg, %struct.Reg* %668, i32 0, i32 0
  %RCX.i75 = bitcast %union.anon* %669 to i64*
  %670 = load i16, i16* %R8W.i
  %671 = zext i16 %670 to i64
  %672 = load i64, i64* %PC.i74
  %673 = add i64 %672, 4
  store i64 %673, i64* %PC.i74
  %674 = and i64 %671, 65535
  store i64 %674, i64* %RCX.i75, align 8
  store %struct.Memory* %loadMem_406a2e, %struct.Memory** %MEMORY
  %loadMem_406a32 = load %struct.Memory*, %struct.Memory** %MEMORY
  %675 = getelementptr inbounds %struct.State, %struct.State* %0, i32 0, i32 6
  %676 = getelementptr inbounds %struct.GPR, %struct.GPR* %675, i32 0, i32 33
  %677 = getelementptr inbounds %struct.Reg, %struct.Reg* %676, i32 0, i32 0
  %PC.i71 = bitcast %union.anon* %677 to i64*
  %678 = getelementptr inbounds %struct.State, %struct.State* %0, i32 0, i32 6
  %679 = getelementptr inbounds %struct.GPR, %struct.GPR* %678, i32 0, i32 17
  %680 = getelementptr inbounds %struct.Reg, %struct.Reg* %679, i32 0, i32 0
  %R8D.i72 = bitcast %union.anon* %680 to i32*
  %681 = getelementptr inbounds %struct.State, %struct.State* %0, i32 0, i32 6
  %682 = getelementptr inbounds %struct.GPR, %struct.GPR* %681, i32 0, i32 15
  %683 = getelementptr inbounds %struct.Reg, %struct.Reg* %682, i32 0, i32 0
  %RBP.i73 = bitcast %union.anon* %683 to i64*
  %684 = bitcast i32* %R8D.i72 to i64*
  %685 = load i64, i64* %RBP.i73
  %686 = sub i64 %685, 36
  %687 = load i64, i64* %PC.i71
  %688 = add i64 %687, 5
  store i64 %688, i64* %PC.i71
  %689 = inttoptr i64 %686 to i16*
  %690 = load i16, i16* %689
  %691 = zext i16 %690 to i64
  store i64 %691, i64* %684, align 8
  store %struct.Memory* %loadMem_406a32, %struct.Memory** %MEMORY
  %loadMem1_406a37 = load %struct.Memory*, %struct.Memory** %MEMORY
  %692 = getelementptr inbounds %struct.State, %struct.State* %0, i32 0, i32 6
  %693 = getelementptr inbounds %struct.GPR, %struct.GPR* %692, i32 0, i32 33
  %694 = getelementptr inbounds %struct.Reg, %struct.Reg* %693, i32 0, i32 0
  %PC.i70 = bitcast %union.anon* %694 to i64*
  %695 = load i64, i64* %PC.i70
  %696 = add i64 %695, 41113
  %697 = load i64, i64* %PC.i70
  %698 = add i64 %697, 5
  %699 = load i64, i64* %PC.i70
  %700 = add i64 %699, 5
  store i64 %700, i64* %PC.i70
  %701 = getelementptr inbounds %struct.State, %struct.State* %0, i64 0, i32 6, i32 13, i32 0, i32 0
  %702 = load i64, i64* %701, align 8
  %703 = add i64 %702, -8
  %704 = inttoptr i64 %703 to i64*
  store i64 %698, i64* %704
  store i64 %703, i64* %701, align 8
  %705 = getelementptr inbounds %struct.State, %struct.State* %0, i64 0, i32 6, i32 33, i32 0, i32 0
  store i64 %696, i64* %705, align 8
  store %struct.Memory* %loadMem1_406a37, %struct.Memory** %MEMORY
  %loadMem2_406a37 = load %struct.Memory*, %struct.Memory** %MEMORY
  %loadPC_406a37 = load i64, i64* %3
  %call2_406a37 = call %struct.Memory* @sub_410ad0._ZN34custom_multiply_multiple_variable2ItE8do_shiftEttttt(%struct.State* %0, i64 %loadPC_406a37, %struct.Memory* %loadMem2_406a37)
  store %struct.Memory* %call2_406a37, %struct.Memory** %MEMORY
  %loadMem_406a3c = load %struct.Memory*, %struct.Memory** %MEMORY
  %706 = getelementptr inbounds %struct.State, %struct.State* %0, i32 0, i32 6
  %707 = getelementptr inbounds %struct.GPR, %struct.GPR* %706, i32 0, i32 33
  %708 = getelementptr inbounds %struct.Reg, %struct.Reg* %707, i32 0, i32 0
  %PC.i67 = bitcast %union.anon* %708 to i64*
  %709 = getelementptr inbounds %struct.State, %struct.State* %0, i32 0, i32 6
  %710 = getelementptr inbounds %struct.GPR, %struct.GPR* %709, i32 0, i32 1
  %711 = getelementptr inbounds %struct.Reg, %struct.Reg* %710, i32 0, i32 0
  %AX.i68 = bitcast %union.anon* %711 to i16*
  %712 = getelementptr inbounds %struct.State, %struct.State* %0, i32 0, i32 6
  %713 = getelementptr inbounds %struct.GPR, %struct.GPR* %712, i32 0, i32 5
  %714 = getelementptr inbounds %struct.Reg, %struct.Reg* %713, i32 0, i32 0
  %RCX.i69 = bitcast %union.anon* %714 to i64*
  %715 = load i16, i16* %AX.i68
  %716 = zext i16 %715 to i64
  %717 = load i64, i64* %PC.i67
  %718 = add i64 %717, 3
  store i64 %718, i64* %PC.i67
  %719 = and i64 %716, 65535
  store i64 %719, i64* %RCX.i69, align 8
  store %struct.Memory* %loadMem_406a3c, %struct.Memory** %MEMORY
  %loadMem_406a3f = load %struct.Memory*, %struct.Memory** %MEMORY
  %720 = getelementptr inbounds %struct.State, %struct.State* %0, i32 0, i32 6
  %721 = getelementptr inbounds %struct.GPR, %struct.GPR* %720, i32 0, i32 33
  %722 = getelementptr inbounds %struct.Reg, %struct.Reg* %721, i32 0, i32 0
  %PC.i64 = bitcast %union.anon* %722 to i64*
  %723 = getelementptr inbounds %struct.State, %struct.State* %0, i32 0, i32 6
  %724 = getelementptr inbounds %struct.GPR, %struct.GPR* %723, i32 0, i32 7
  %725 = getelementptr inbounds %struct.Reg, %struct.Reg* %724, i32 0, i32 0
  %RDX.i65 = bitcast %union.anon* %725 to i64*
  %726 = getelementptr inbounds %struct.State, %struct.State* %0, i32 0, i32 6
  %727 = getelementptr inbounds %struct.GPR, %struct.GPR* %726, i32 0, i32 15
  %728 = getelementptr inbounds %struct.Reg, %struct.Reg* %727, i32 0, i32 0
  %RBP.i66 = bitcast %union.anon* %728 to i64*
  %729 = load i64, i64* %RBP.i66
  %730 = sub i64 %729, 54
  %731 = load i64, i64* %PC.i64
  %732 = add i64 %731, 4
  store i64 %732, i64* %PC.i64
  %733 = inttoptr i64 %730 to i16*
  %734 = load i16, i16* %733
  %735 = zext i16 %734 to i64
  store i64 %735, i64* %RDX.i65, align 8
  store %struct.Memory* %loadMem_406a3f, %struct.Memory** %MEMORY
  %loadMem_406a43 = load %struct.Memory*, %struct.Memory** %MEMORY
  %736 = getelementptr inbounds %struct.State, %struct.State* %0, i32 0, i32 6
  %737 = getelementptr inbounds %struct.GPR, %struct.GPR* %736, i32 0, i32 33
  %738 = getelementptr inbounds %struct.Reg, %struct.Reg* %737, i32 0, i32 0
  %PC.i62 = bitcast %union.anon* %738 to i64*
  %739 = getelementptr inbounds %struct.State, %struct.State* %0, i32 0, i32 6
  %740 = getelementptr inbounds %struct.GPR, %struct.GPR* %739, i32 0, i32 5
  %741 = getelementptr inbounds %struct.Reg, %struct.Reg* %740, i32 0, i32 0
  %ECX.i = bitcast %union.anon* %741 to i32*
  %742 = getelementptr inbounds %struct.State, %struct.State* %0, i32 0, i32 6
  %743 = getelementptr inbounds %struct.GPR, %struct.GPR* %742, i32 0, i32 7
  %744 = getelementptr inbounds %struct.Reg, %struct.Reg* %743, i32 0, i32 0
  %RDX.i63 = bitcast %union.anon* %744 to i64*
  %745 = load i64, i64* %RDX.i63
  %746 = load i32, i32* %ECX.i
  %747 = zext i32 %746 to i64
  %748 = load i64, i64* %PC.i62
  %749 = add i64 %748, 2
  store i64 %749, i64* %PC.i62
  %750 = trunc i64 %745 to i32
  %751 = add i32 %746, %750
  %752 = zext i32 %751 to i64
  store i64 %752, i64* %RDX.i63, align 8
  %753 = icmp ult i32 %751, %750
  %754 = icmp ult i32 %751, %746
  %755 = or i1 %753, %754
  %756 = zext i1 %755 to i8
  %757 = getelementptr inbounds %struct.State, %struct.State* %0, i64 0, i32 2, i32 1
  store i8 %756, i8* %757, align 1
  %758 = and i32 %751, 255
  %759 = call i32 @llvm.ctpop.i32(i32 %758)
  %760 = trunc i32 %759 to i8
  %761 = and i8 %760, 1
  %762 = xor i8 %761, 1
  %763 = getelementptr inbounds %struct.State, %struct.State* %0, i64 0, i32 2, i32 3
  store i8 %762, i8* %763, align 1
  %764 = xor i64 %747, %745
  %765 = trunc i64 %764 to i32
  %766 = xor i32 %765, %751
  %767 = lshr i32 %766, 4
  %768 = trunc i32 %767 to i8
  %769 = and i8 %768, 1
  %770 = getelementptr inbounds %struct.State, %struct.State* %0, i64 0, i32 2, i32 5
  store i8 %769, i8* %770, align 1
  %771 = icmp eq i32 %751, 0
  %772 = zext i1 %771 to i8
  %773 = getelementptr inbounds %struct.State, %struct.State* %0, i64 0, i32 2, i32 7
  store i8 %772, i8* %773, align 1
  %774 = lshr i32 %751, 31
  %775 = trunc i32 %774 to i8
  %776 = getelementptr inbounds %struct.State, %struct.State* %0, i64 0, i32 2, i32 9
  store i8 %775, i8* %776, align 1
  %777 = lshr i32 %750, 31
  %778 = lshr i32 %746, 31
  %779 = xor i32 %774, %777
  %780 = xor i32 %774, %778
  %781 = add i32 %779, %780
  %782 = icmp eq i32 %781, 2
  %783 = zext i1 %782 to i8
  %784 = getelementptr inbounds %struct.State, %struct.State* %0, i64 0, i32 2, i32 13
  store i8 %783, i8* %784, align 1
  store %struct.Memory* %loadMem_406a43, %struct.Memory** %MEMORY
  %loadMem_406a45 = load %struct.Memory*, %struct.Memory** %MEMORY
  %785 = getelementptr inbounds %struct.State, %struct.State* %0, i32 0, i32 6
  %786 = getelementptr inbounds %struct.GPR, %struct.GPR* %785, i32 0, i32 33
  %787 = getelementptr inbounds %struct.Reg, %struct.Reg* %786, i32 0, i32 0
  %PC.i59 = bitcast %union.anon* %787 to i64*
  %788 = getelementptr inbounds %struct.State, %struct.State* %0, i32 0, i32 6
  %789 = getelementptr inbounds %struct.GPR, %struct.GPR* %788, i32 0, i32 1
  %790 = getelementptr inbounds %struct.Reg, %struct.Reg* %789, i32 0, i32 0
  %AX.i60 = bitcast %union.anon* %790 to i16*
  %791 = getelementptr inbounds %struct.State, %struct.State* %0, i32 0, i32 6
  %792 = getelementptr inbounds %struct.GPR, %struct.GPR* %791, i32 0, i32 7
  %793 = getelementptr inbounds %struct.Reg, %struct.Reg* %792, i32 0, i32 0
  %DX.i61 = bitcast %union.anon* %793 to i16*
  %794 = load i16, i16* %DX.i61
  %795 = zext i16 %794 to i64
  %796 = load i64, i64* %PC.i59
  %797 = add i64 %796, 3
  store i64 %797, i64* %PC.i59
  store i16 %794, i16* %AX.i60, align 2
  store %struct.Memory* %loadMem_406a45, %struct.Memory** %MEMORY
  %loadMem_406a48 = load %struct.Memory*, %struct.Memory** %MEMORY
  %798 = getelementptr inbounds %struct.State, %struct.State* %0, i32 0, i32 6
  %799 = getelementptr inbounds %struct.GPR, %struct.GPR* %798, i32 0, i32 33
  %800 = getelementptr inbounds %struct.Reg, %struct.Reg* %799, i32 0, i32 0
  %PC.i56 = bitcast %union.anon* %800 to i64*
  %801 = getelementptr inbounds %struct.State, %struct.State* %0, i32 0, i32 6
  %802 = getelementptr inbounds %struct.GPR, %struct.GPR* %801, i32 0, i32 1
  %803 = getelementptr inbounds %struct.Reg, %struct.Reg* %802, i32 0, i32 0
  %AX.i57 = bitcast %union.anon* %803 to i16*
  %804 = getelementptr inbounds %struct.State, %struct.State* %0, i32 0, i32 6
  %805 = getelementptr inbounds %struct.GPR, %struct.GPR* %804, i32 0, i32 15
  %806 = getelementptr inbounds %struct.Reg, %struct.Reg* %805, i32 0, i32 0
  %RBP.i58 = bitcast %union.anon* %806 to i64*
  %807 = load i64, i64* %RBP.i58
  %808 = sub i64 %807, 54
  %809 = load i16, i16* %AX.i57
  %810 = zext i16 %809 to i64
  %811 = load i64, i64* %PC.i56
  %812 = add i64 %811, 4
  store i64 %812, i64* %PC.i56
  %813 = inttoptr i64 %808 to i16*
  store i16 %809, i16* %813
  store %struct.Memory* %loadMem_406a48, %struct.Memory** %MEMORY
  %loadMem_406a4c = load %struct.Memory*, %struct.Memory** %MEMORY
  %814 = getelementptr inbounds %struct.State, %struct.State* %0, i32 0, i32 6
  %815 = getelementptr inbounds %struct.GPR, %struct.GPR* %814, i32 0, i32 33
  %816 = getelementptr inbounds %struct.Reg, %struct.Reg* %815, i32 0, i32 0
  %PC.i53 = bitcast %union.anon* %816 to i64*
  %817 = getelementptr inbounds %struct.State, %struct.State* %0, i32 0, i32 6
  %818 = getelementptr inbounds %struct.GPR, %struct.GPR* %817, i32 0, i32 1
  %819 = getelementptr inbounds %struct.Reg, %struct.Reg* %818, i32 0, i32 0
  %RAX.i54 = bitcast %union.anon* %819 to i64*
  %820 = getelementptr inbounds %struct.State, %struct.State* %0, i32 0, i32 6
  %821 = getelementptr inbounds %struct.GPR, %struct.GPR* %820, i32 0, i32 15
  %822 = getelementptr inbounds %struct.Reg, %struct.Reg* %821, i32 0, i32 0
  %RBP.i55 = bitcast %union.anon* %822 to i64*
  %823 = load i64, i64* %RBP.i55
  %824 = sub i64 %823, 60
  %825 = load i64, i64* %PC.i53
  %826 = add i64 %825, 3
  store i64 %826, i64* %PC.i53
  %827 = inttoptr i64 %824 to i32*
  %828 = load i32, i32* %827
  %829 = zext i32 %828 to i64
  store i64 %829, i64* %RAX.i54, align 8
  store %struct.Memory* %loadMem_406a4c, %struct.Memory** %MEMORY
  %loadMem_406a4f = load %struct.Memory*, %struct.Memory** %MEMORY
  %830 = getelementptr inbounds %struct.State, %struct.State* %0, i32 0, i32 6
  %831 = getelementptr inbounds %struct.GPR, %struct.GPR* %830, i32 0, i32 33
  %832 = getelementptr inbounds %struct.Reg, %struct.Reg* %831, i32 0, i32 0
  %PC.i51 = bitcast %union.anon* %832 to i64*
  %833 = getelementptr inbounds %struct.State, %struct.State* %0, i32 0, i32 6
  %834 = getelementptr inbounds %struct.GPR, %struct.GPR* %833, i32 0, i32 1
  %835 = getelementptr inbounds %struct.Reg, %struct.Reg* %834, i32 0, i32 0
  %RAX.i52 = bitcast %union.anon* %835 to i64*
  %836 = load i64, i64* %RAX.i52
  %837 = load i64, i64* %PC.i51
  %838 = add i64 %837, 3
  store i64 %838, i64* %PC.i51
  %839 = trunc i64 %836 to i32
  %840 = add i32 1, %839
  %841 = zext i32 %840 to i64
  store i64 %841, i64* %RAX.i52, align 8
  %842 = icmp ult i32 %840, %839
  %843 = icmp ult i32 %840, 1
  %844 = or i1 %842, %843
  %845 = zext i1 %844 to i8
  %846 = getelementptr inbounds %struct.State, %struct.State* %0, i64 0, i32 2, i32 1
  store i8 %845, i8* %846, align 1
  %847 = and i32 %840, 255
  %848 = call i32 @llvm.ctpop.i32(i32 %847)
  %849 = trunc i32 %848 to i8
  %850 = and i8 %849, 1
  %851 = xor i8 %850, 1
  %852 = getelementptr inbounds %struct.State, %struct.State* %0, i64 0, i32 2, i32 3
  store i8 %851, i8* %852, align 1
  %853 = xor i64 1, %836
  %854 = trunc i64 %853 to i32
  %855 = xor i32 %854, %840
  %856 = lshr i32 %855, 4
  %857 = trunc i32 %856 to i8
  %858 = and i8 %857, 1
  %859 = getelementptr inbounds %struct.State, %struct.State* %0, i64 0, i32 2, i32 5
  store i8 %858, i8* %859, align 1
  %860 = icmp eq i32 %840, 0
  %861 = zext i1 %860 to i8
  %862 = getelementptr inbounds %struct.State, %struct.State* %0, i64 0, i32 2, i32 7
  store i8 %861, i8* %862, align 1
  %863 = lshr i32 %840, 31
  %864 = trunc i32 %863 to i8
  %865 = getelementptr inbounds %struct.State, %struct.State* %0, i64 0, i32 2, i32 9
  store i8 %864, i8* %865, align 1
  %866 = lshr i32 %839, 31
  %867 = xor i32 %863, %866
  %868 = add i32 %867, %863
  %869 = icmp eq i32 %868, 2
  %870 = zext i1 %869 to i8
  %871 = getelementptr inbounds %struct.State, %struct.State* %0, i64 0, i32 2, i32 13
  store i8 %870, i8* %871, align 1
  store %struct.Memory* %loadMem_406a4f, %struct.Memory** %MEMORY
  %loadMem_406a52 = load %struct.Memory*, %struct.Memory** %MEMORY
  %872 = getelementptr inbounds %struct.State, %struct.State* %0, i32 0, i32 6
  %873 = getelementptr inbounds %struct.GPR, %struct.GPR* %872, i32 0, i32 33
  %874 = getelementptr inbounds %struct.Reg, %struct.Reg* %873, i32 0, i32 0
  %PC.i48 = bitcast %union.anon* %874 to i64*
  %875 = getelementptr inbounds %struct.State, %struct.State* %0, i32 0, i32 6
  %876 = getelementptr inbounds %struct.GPR, %struct.GPR* %875, i32 0, i32 1
  %877 = getelementptr inbounds %struct.Reg, %struct.Reg* %876, i32 0, i32 0
  %EAX.i49 = bitcast %union.anon* %877 to i32*
  %878 = getelementptr inbounds %struct.State, %struct.State* %0, i32 0, i32 6
  %879 = getelementptr inbounds %struct.GPR, %struct.GPR* %878, i32 0, i32 15
  %880 = getelementptr inbounds %struct.Reg, %struct.Reg* %879, i32 0, i32 0
  %RBP.i50 = bitcast %union.anon* %880 to i64*
  %881 = load i64, i64* %RBP.i50
  %882 = sub i64 %881, 60
  %883 = load i32, i32* %EAX.i49
  %884 = zext i32 %883 to i64
  %885 = load i64, i64* %PC.i48
  %886 = add i64 %885, 3
  store i64 %886, i64* %PC.i48
  %887 = inttoptr i64 %882 to i32*
  store i32 %883, i32* %887
  store %struct.Memory* %loadMem_406a52, %struct.Memory** %MEMORY
  %loadMem_406a55 = load %struct.Memory*, %struct.Memory** %MEMORY
  %888 = getelementptr inbounds %struct.State, %struct.State* %0, i32 0, i32 6
  %889 = getelementptr inbounds %struct.GPR, %struct.GPR* %888, i32 0, i32 33
  %890 = getelementptr inbounds %struct.Reg, %struct.Reg* %889, i32 0, i32 0
  %PC.i47 = bitcast %union.anon* %890 to i64*
  %891 = load i64, i64* %PC.i47
  %892 = add i64 %891, -97
  %893 = load i64, i64* %PC.i47
  %894 = add i64 %893, 5
  store i64 %894, i64* %PC.i47
  %895 = getelementptr inbounds %struct.State, %struct.State* %0, i64 0, i32 6, i32 33, i32 0, i32 0
  store i64 %892, i64* %895, align 8
  store %struct.Memory* %loadMem_406a55, %struct.Memory** %MEMORY
  br label %block_.L_4069f4

block_.L_406a5a:                                  ; preds = %block_.L_4069f4
  %loadMem_406a5a = load %struct.Memory*, %struct.Memory** %MEMORY
  %896 = getelementptr inbounds %struct.State, %struct.State* %0, i32 0, i32 6
  %897 = getelementptr inbounds %struct.GPR, %struct.GPR* %896, i32 0, i32 33
  %898 = getelementptr inbounds %struct.Reg, %struct.Reg* %897, i32 0, i32 0
  %PC.i44 = bitcast %union.anon* %898 to i64*
  %899 = getelementptr inbounds %struct.State, %struct.State* %0, i32 0, i32 6
  %900 = getelementptr inbounds %struct.GPR, %struct.GPR* %899, i32 0, i32 1
  %901 = getelementptr inbounds %struct.Reg, %struct.Reg* %900, i32 0, i32 0
  %AX.i45 = bitcast %union.anon* %901 to i16*
  %902 = getelementptr inbounds %struct.State, %struct.State* %0, i32 0, i32 6
  %903 = getelementptr inbounds %struct.GPR, %struct.GPR* %902, i32 0, i32 15
  %904 = getelementptr inbounds %struct.Reg, %struct.Reg* %903, i32 0, i32 0
  %RBP.i46 = bitcast %union.anon* %904 to i64*
  %905 = load i64, i64* %RBP.i46
  %906 = sub i64 %905, 54
  %907 = load i64, i64* %PC.i44
  %908 = add i64 %907, 4
  store i64 %908, i64* %PC.i44
  %909 = inttoptr i64 %906 to i16*
  %910 = load i16, i16* %909
  store i16 %910, i16* %AX.i45, align 2
  store %struct.Memory* %loadMem_406a5a, %struct.Memory** %MEMORY
  %loadMem_406a5e = load %struct.Memory*, %struct.Memory** %MEMORY
  %911 = getelementptr inbounds %struct.State, %struct.State* %0, i32 0, i32 6
  %912 = getelementptr inbounds %struct.GPR, %struct.GPR* %911, i32 0, i32 33
  %913 = getelementptr inbounds %struct.Reg, %struct.Reg* %912, i32 0, i32 0
  %PC.i41 = bitcast %union.anon* %913 to i64*
  %914 = getelementptr inbounds %struct.State, %struct.State* %0, i32 0, i32 6
  %915 = getelementptr inbounds %struct.GPR, %struct.GPR* %914, i32 0, i32 5
  %916 = getelementptr inbounds %struct.Reg, %struct.Reg* %915, i32 0, i32 0
  %CX.i42 = bitcast %union.anon* %916 to i16*
  %917 = getelementptr inbounds %struct.State, %struct.State* %0, i32 0, i32 6
  %918 = getelementptr inbounds %struct.GPR, %struct.GPR* %917, i32 0, i32 15
  %919 = getelementptr inbounds %struct.Reg, %struct.Reg* %918, i32 0, i32 0
  %RBP.i43 = bitcast %union.anon* %919 to i64*
  %920 = load i64, i64* %RBP.i43
  %921 = sub i64 %920, 30
  %922 = load i64, i64* %PC.i41
  %923 = add i64 %922, 4
  store i64 %923, i64* %PC.i41
  %924 = inttoptr i64 %921 to i16*
  %925 = load i16, i16* %924
  store i16 %925, i16* %CX.i42, align 2
  store %struct.Memory* %loadMem_406a5e, %struct.Memory** %MEMORY
  %loadMem_406a62 = load %struct.Memory*, %struct.Memory** %MEMORY
  %926 = getelementptr inbounds %struct.State, %struct.State* %0, i32 0, i32 6
  %927 = getelementptr inbounds %struct.GPR, %struct.GPR* %926, i32 0, i32 33
  %928 = getelementptr inbounds %struct.Reg, %struct.Reg* %927, i32 0, i32 0
  %PC.i38 = bitcast %union.anon* %928 to i64*
  %929 = getelementptr inbounds %struct.State, %struct.State* %0, i32 0, i32 6
  %930 = getelementptr inbounds %struct.GPR, %struct.GPR* %929, i32 0, i32 7
  %931 = getelementptr inbounds %struct.Reg, %struct.Reg* %930, i32 0, i32 0
  %DX.i39 = bitcast %union.anon* %931 to i16*
  %932 = getelementptr inbounds %struct.State, %struct.State* %0, i32 0, i32 6
  %933 = getelementptr inbounds %struct.GPR, %struct.GPR* %932, i32 0, i32 15
  %934 = getelementptr inbounds %struct.Reg, %struct.Reg* %933, i32 0, i32 0
  %RBP.i40 = bitcast %union.anon* %934 to i64*
  %935 = load i64, i64* %RBP.i40
  %936 = sub i64 %935, 32
  %937 = load i64, i64* %PC.i38
  %938 = add i64 %937, 4
  store i64 %938, i64* %PC.i38
  %939 = inttoptr i64 %936 to i16*
  %940 = load i16, i16* %939
  store i16 %940, i16* %DX.i39, align 2
  store %struct.Memory* %loadMem_406a62, %struct.Memory** %MEMORY
  %loadMem_406a66 = load %struct.Memory*, %struct.Memory** %MEMORY
  %941 = getelementptr inbounds %struct.State, %struct.State* %0, i32 0, i32 6
  %942 = getelementptr inbounds %struct.GPR, %struct.GPR* %941, i32 0, i32 33
  %943 = getelementptr inbounds %struct.Reg, %struct.Reg* %942, i32 0, i32 0
  %PC.i35 = bitcast %union.anon* %943 to i64*
  %944 = getelementptr inbounds %struct.State, %struct.State* %0, i32 0, i32 6
  %945 = getelementptr inbounds %struct.GPR, %struct.GPR* %944, i32 0, i32 9
  %946 = getelementptr inbounds %struct.Reg, %struct.Reg* %945, i32 0, i32 0
  %SI.i36 = bitcast %union.anon* %946 to i16*
  %947 = getelementptr inbounds %struct.State, %struct.State* %0, i32 0, i32 6
  %948 = getelementptr inbounds %struct.GPR, %struct.GPR* %947, i32 0, i32 15
  %949 = getelementptr inbounds %struct.Reg, %struct.Reg* %948, i32 0, i32 0
  %RBP.i37 = bitcast %union.anon* %949 to i64*
  %950 = load i64, i64* %RBP.i37
  %951 = sub i64 %950, 34
  %952 = load i64, i64* %PC.i35
  %953 = add i64 %952, 4
  store i64 %953, i64* %PC.i35
  %954 = inttoptr i64 %951 to i16*
  %955 = load i16, i16* %954
  store i16 %955, i16* %SI.i36, align 2
  store %struct.Memory* %loadMem_406a66, %struct.Memory** %MEMORY
  %loadMem_406a6a = load %struct.Memory*, %struct.Memory** %MEMORY
  %956 = getelementptr inbounds %struct.State, %struct.State* %0, i32 0, i32 6
  %957 = getelementptr inbounds %struct.GPR, %struct.GPR* %956, i32 0, i32 33
  %958 = getelementptr inbounds %struct.Reg, %struct.Reg* %957, i32 0, i32 0
  %PC.i32 = bitcast %union.anon* %958 to i64*
  %959 = getelementptr inbounds %struct.State, %struct.State* %0, i32 0, i32 6
  %960 = getelementptr inbounds %struct.GPR, %struct.GPR* %959, i32 0, i32 1
  %961 = getelementptr inbounds %struct.Reg, %struct.Reg* %960, i32 0, i32 0
  %AX.i33 = bitcast %union.anon* %961 to i16*
  %962 = getelementptr inbounds %struct.State, %struct.State* %0, i32 0, i32 6
  %963 = getelementptr inbounds %struct.GPR, %struct.GPR* %962, i32 0, i32 11
  %964 = getelementptr inbounds %struct.Reg, %struct.Reg* %963, i32 0, i32 0
  %RDI.i34 = bitcast %union.anon* %964 to i64*
  %965 = load i16, i16* %AX.i33
  %966 = zext i16 %965 to i64
  %967 = load i64, i64* %PC.i32
  %968 = add i64 %967, 3
  store i64 %968, i64* %PC.i32
  %969 = and i64 %966, 65535
  store i64 %969, i64* %RDI.i34, align 8
  store %struct.Memory* %loadMem_406a6a, %struct.Memory** %MEMORY
  %loadMem_406a6d = load %struct.Memory*, %struct.Memory** %MEMORY
  %970 = getelementptr inbounds %struct.State, %struct.State* %0, i32 0, i32 6
  %971 = getelementptr inbounds %struct.GPR, %struct.GPR* %970, i32 0, i32 33
  %972 = getelementptr inbounds %struct.Reg, %struct.Reg* %971, i32 0, i32 0
  %PC.i30 = bitcast %union.anon* %972 to i64*
  %973 = getelementptr inbounds %struct.State, %struct.State* %0, i32 0, i32 6
  %974 = getelementptr inbounds %struct.GPR, %struct.GPR* %973, i32 0, i32 5
  %975 = getelementptr inbounds %struct.Reg, %struct.Reg* %974, i32 0, i32 0
  %CX.i = bitcast %union.anon* %975 to i16*
  %976 = getelementptr inbounds %struct.State, %struct.State* %0, i32 0, i32 6
  %977 = getelementptr inbounds %struct.GPR, %struct.GPR* %976, i32 0, i32 17
  %978 = getelementptr inbounds %struct.Reg, %struct.Reg* %977, i32 0, i32 0
  %R8D.i31 = bitcast %union.anon* %978 to i32*
  %979 = bitcast i32* %R8D.i31 to i64*
  %980 = load i16, i16* %CX.i
  %981 = zext i16 %980 to i64
  %982 = load i64, i64* %PC.i30
  %983 = add i64 %982, 4
  store i64 %983, i64* %PC.i30
  %984 = and i64 %981, 65535
  store i64 %984, i64* %979, align 8
  store %struct.Memory* %loadMem_406a6d, %struct.Memory** %MEMORY
  %loadMem_406a71 = load %struct.Memory*, %struct.Memory** %MEMORY
  %985 = getelementptr inbounds %struct.State, %struct.State* %0, i32 0, i32 6
  %986 = getelementptr inbounds %struct.GPR, %struct.GPR* %985, i32 0, i32 33
  %987 = getelementptr inbounds %struct.Reg, %struct.Reg* %986, i32 0, i32 0
  %PC.i28 = bitcast %union.anon* %987 to i64*
  %988 = getelementptr inbounds %struct.State, %struct.State* %0, i32 0, i32 6
  %989 = getelementptr inbounds %struct.GPR, %struct.GPR* %988, i32 0, i32 9
  %990 = getelementptr inbounds %struct.Reg, %struct.Reg* %989, i32 0, i32 0
  %SI.i = bitcast %union.anon* %990 to i16*
  %991 = getelementptr inbounds %struct.State, %struct.State* %0, i32 0, i32 6
  %992 = getelementptr inbounds %struct.GPR, %struct.GPR* %991, i32 0, i32 15
  %993 = getelementptr inbounds %struct.Reg, %struct.Reg* %992, i32 0, i32 0
  %RBP.i29 = bitcast %union.anon* %993 to i64*
  %994 = load i64, i64* %RBP.i29
  %995 = sub i64 %994, 64
  %996 = load i16, i16* %SI.i
  %997 = zext i16 %996 to i64
  %998 = load i64, i64* %PC.i28
  %999 = add i64 %998, 4
  store i64 %999, i64* %PC.i28
  %1000 = inttoptr i64 %995 to i16*
  store i16 %996, i16* %1000
  store %struct.Memory* %loadMem_406a71, %struct.Memory** %MEMORY
  %loadMem_406a75 = load %struct.Memory*, %struct.Memory** %MEMORY
  %1001 = getelementptr inbounds %struct.State, %struct.State* %0, i32 0, i32 6
  %1002 = getelementptr inbounds %struct.GPR, %struct.GPR* %1001, i32 0, i32 33
  %1003 = getelementptr inbounds %struct.Reg, %struct.Reg* %1002, i32 0, i32 0
  %PC.i26 = bitcast %union.anon* %1003 to i64*
  %1004 = getelementptr inbounds %struct.State, %struct.State* %0, i32 0, i32 6
  %1005 = getelementptr inbounds %struct.GPR, %struct.GPR* %1004, i32 0, i32 17
  %1006 = getelementptr inbounds %struct.Reg, %struct.Reg* %1005, i32 0, i32 0
  %R8D.i27 = bitcast %union.anon* %1006 to i32*
  %1007 = getelementptr inbounds %struct.State, %struct.State* %0, i32 0, i32 6
  %1008 = getelementptr inbounds %struct.GPR, %struct.GPR* %1007, i32 0, i32 9
  %1009 = getelementptr inbounds %struct.Reg, %struct.Reg* %1008, i32 0, i32 0
  %RSI.i = bitcast %union.anon* %1009 to i64*
  %1010 = load i32, i32* %R8D.i27
  %1011 = zext i32 %1010 to i64
  %1012 = load i64, i64* %PC.i26
  %1013 = add i64 %1012, 3
  store i64 %1013, i64* %PC.i26
  %1014 = and i64 %1011, 4294967295
  store i64 %1014, i64* %RSI.i, align 8
  store %struct.Memory* %loadMem_406a75, %struct.Memory** %MEMORY
  %loadMem_406a78 = load %struct.Memory*, %struct.Memory** %MEMORY
  %1015 = getelementptr inbounds %struct.State, %struct.State* %0, i32 0, i32 6
  %1016 = getelementptr inbounds %struct.GPR, %struct.GPR* %1015, i32 0, i32 33
  %1017 = getelementptr inbounds %struct.Reg, %struct.Reg* %1016, i32 0, i32 0
  %PC.i25 = bitcast %union.anon* %1017 to i64*
  %1018 = getelementptr inbounds %struct.State, %struct.State* %0, i32 0, i32 6
  %1019 = getelementptr inbounds %struct.GPR, %struct.GPR* %1018, i32 0, i32 7
  %1020 = getelementptr inbounds %struct.Reg, %struct.Reg* %1019, i32 0, i32 0
  %DX.i = bitcast %union.anon* %1020 to i16*
  %1021 = getelementptr inbounds %struct.State, %struct.State* %0, i32 0, i32 6
  %1022 = getelementptr inbounds %struct.GPR, %struct.GPR* %1021, i32 0, i32 7
  %1023 = getelementptr inbounds %struct.Reg, %struct.Reg* %1022, i32 0, i32 0
  %RDX.i = bitcast %union.anon* %1023 to i64*
  %1024 = load i16, i16* %DX.i
  %1025 = zext i16 %1024 to i64
  %1026 = load i64, i64* %PC.i25
  %1027 = add i64 %1026, 3
  store i64 %1027, i64* %PC.i25
  %1028 = and i64 %1025, 65535
  store i64 %1028, i64* %RDX.i, align 8
  store %struct.Memory* %loadMem_406a78, %struct.Memory** %MEMORY
  %loadMem_406a7b = load %struct.Memory*, %struct.Memory** %MEMORY
  %1029 = getelementptr inbounds %struct.State, %struct.State* %0, i32 0, i32 6
  %1030 = getelementptr inbounds %struct.GPR, %struct.GPR* %1029, i32 0, i32 33
  %1031 = getelementptr inbounds %struct.Reg, %struct.Reg* %1030, i32 0, i32 0
  %PC.i22 = bitcast %union.anon* %1031 to i64*
  %1032 = getelementptr inbounds %struct.State, %struct.State* %0, i32 0, i32 6
  %1033 = getelementptr inbounds %struct.GPR, %struct.GPR* %1032, i32 0, i32 1
  %1034 = getelementptr inbounds %struct.Reg, %struct.Reg* %1033, i32 0, i32 0
  %AX.i23 = bitcast %union.anon* %1034 to i16*
  %1035 = getelementptr inbounds %struct.State, %struct.State* %0, i32 0, i32 6
  %1036 = getelementptr inbounds %struct.GPR, %struct.GPR* %1035, i32 0, i32 15
  %1037 = getelementptr inbounds %struct.Reg, %struct.Reg* %1036, i32 0, i32 0
  %RBP.i24 = bitcast %union.anon* %1037 to i64*
  %1038 = load i64, i64* %RBP.i24
  %1039 = sub i64 %1038, 64
  %1040 = load i64, i64* %PC.i22
  %1041 = add i64 %1040, 4
  store i64 %1041, i64* %PC.i22
  %1042 = inttoptr i64 %1039 to i16*
  %1043 = load i16, i16* %1042
  store i16 %1043, i16* %AX.i23, align 2
  store %struct.Memory* %loadMem_406a7b, %struct.Memory** %MEMORY
  %loadMem_406a7f = load %struct.Memory*, %struct.Memory** %MEMORY
  %1044 = getelementptr inbounds %struct.State, %struct.State* %0, i32 0, i32 6
  %1045 = getelementptr inbounds %struct.GPR, %struct.GPR* %1044, i32 0, i32 33
  %1046 = getelementptr inbounds %struct.Reg, %struct.Reg* %1045, i32 0, i32 0
  %PC.i21 = bitcast %union.anon* %1046 to i64*
  %1047 = getelementptr inbounds %struct.State, %struct.State* %0, i32 0, i32 6
  %1048 = getelementptr inbounds %struct.GPR, %struct.GPR* %1047, i32 0, i32 1
  %1049 = getelementptr inbounds %struct.Reg, %struct.Reg* %1048, i32 0, i32 0
  %AX.i = bitcast %union.anon* %1049 to i16*
  %1050 = getelementptr inbounds %struct.State, %struct.State* %0, i32 0, i32 6
  %1051 = getelementptr inbounds %struct.GPR, %struct.GPR* %1050, i32 0, i32 5
  %1052 = getelementptr inbounds %struct.Reg, %struct.Reg* %1051, i32 0, i32 0
  %RCX.i = bitcast %union.anon* %1052 to i64*
  %1053 = load i16, i16* %AX.i
  %1054 = zext i16 %1053 to i64
  %1055 = load i64, i64* %PC.i21
  %1056 = add i64 %1055, 3
  store i64 %1056, i64* %PC.i21
  %1057 = and i64 %1054, 65535
  store i64 %1057, i64* %RCX.i, align 8
  store %struct.Memory* %loadMem_406a7f, %struct.Memory** %MEMORY
  %loadMem_406a82 = load %struct.Memory*, %struct.Memory** %MEMORY
  %1058 = getelementptr inbounds %struct.State, %struct.State* %0, i32 0, i32 6
  %1059 = getelementptr inbounds %struct.GPR, %struct.GPR* %1058, i32 0, i32 33
  %1060 = getelementptr inbounds %struct.Reg, %struct.Reg* %1059, i32 0, i32 0
  %PC.i19 = bitcast %union.anon* %1060 to i64*
  %1061 = getelementptr inbounds %struct.State, %struct.State* %0, i32 0, i32 6
  %1062 = getelementptr inbounds %struct.GPR, %struct.GPR* %1061, i32 0, i32 17
  %1063 = getelementptr inbounds %struct.Reg, %struct.Reg* %1062, i32 0, i32 0
  %R8D.i = bitcast %union.anon* %1063 to i32*
  %1064 = getelementptr inbounds %struct.State, %struct.State* %0, i32 0, i32 6
  %1065 = getelementptr inbounds %struct.GPR, %struct.GPR* %1064, i32 0, i32 15
  %1066 = getelementptr inbounds %struct.Reg, %struct.Reg* %1065, i32 0, i32 0
  %RBP.i20 = bitcast %union.anon* %1066 to i64*
  %1067 = bitcast i32* %R8D.i to i64*
  %1068 = load i64, i64* %RBP.i20
  %1069 = sub i64 %1068, 36
  %1070 = load i64, i64* %PC.i19
  %1071 = add i64 %1070, 5
  store i64 %1071, i64* %PC.i19
  %1072 = inttoptr i64 %1069 to i16*
  %1073 = load i16, i16* %1072
  %1074 = zext i16 %1073 to i64
  store i64 %1074, i64* %1067, align 8
  store %struct.Memory* %loadMem_406a82, %struct.Memory** %MEMORY
  %loadMem1_406a87 = load %struct.Memory*, %struct.Memory** %MEMORY
  %1075 = getelementptr inbounds %struct.State, %struct.State* %0, i32 0, i32 6
  %1076 = getelementptr inbounds %struct.GPR, %struct.GPR* %1075, i32 0, i32 33
  %1077 = getelementptr inbounds %struct.Reg, %struct.Reg* %1076, i32 0, i32 0
  %PC.i18 = bitcast %union.anon* %1077 to i64*
  %1078 = load i64, i64* %PC.i18
  %1079 = add i64 %1078, 41129
  %1080 = load i64, i64* %PC.i18
  %1081 = add i64 %1080, 5
  %1082 = load i64, i64* %PC.i18
  %1083 = add i64 %1082, 5
  store i64 %1083, i64* %PC.i18
  %1084 = getelementptr inbounds %struct.State, %struct.State* %0, i64 0, i32 6, i32 13, i32 0, i32 0
  %1085 = load i64, i64* %1084, align 8
  %1086 = add i64 %1085, -8
  %1087 = inttoptr i64 %1086 to i64*
  store i64 %1081, i64* %1087
  store i64 %1086, i64* %1084, align 8
  %1088 = getelementptr inbounds %struct.State, %struct.State* %0, i64 0, i32 6, i32 33, i32 0, i32 0
  store i64 %1079, i64* %1088, align 8
  store %struct.Memory* %loadMem1_406a87, %struct.Memory** %MEMORY
  %loadMem2_406a87 = load %struct.Memory*, %struct.Memory** %MEMORY
  %loadPC_406a87 = load i64, i64* %3
  %call2_406a87 = call %struct.Memory* @sub_410b30._Z26check_shifted_variable_sumIt34custom_multiply_multiple_variable2ItEEvT_S2_S2_S2_S2_(%struct.State* %0, i64 %loadPC_406a87, %struct.Memory* %loadMem2_406a87)
  store %struct.Memory* %call2_406a87, %struct.Memory** %MEMORY
  %loadMem_406a8c = load %struct.Memory*, %struct.Memory** %MEMORY
  %1089 = getelementptr inbounds %struct.State, %struct.State* %0, i32 0, i32 6
  %1090 = getelementptr inbounds %struct.GPR, %struct.GPR* %1089, i32 0, i32 33
  %1091 = getelementptr inbounds %struct.Reg, %struct.Reg* %1090, i32 0, i32 0
  %PC.i15 = bitcast %union.anon* %1091 to i64*
  %1092 = getelementptr inbounds %struct.State, %struct.State* %0, i32 0, i32 6
  %1093 = getelementptr inbounds %struct.GPR, %struct.GPR* %1092, i32 0, i32 1
  %1094 = getelementptr inbounds %struct.Reg, %struct.Reg* %1093, i32 0, i32 0
  %RAX.i16 = bitcast %union.anon* %1094 to i64*
  %1095 = getelementptr inbounds %struct.State, %struct.State* %0, i32 0, i32 6
  %1096 = getelementptr inbounds %struct.GPR, %struct.GPR* %1095, i32 0, i32 15
  %1097 = getelementptr inbounds %struct.Reg, %struct.Reg* %1096, i32 0, i32 0
  %RBP.i17 = bitcast %union.anon* %1097 to i64*
  %1098 = load i64, i64* %RBP.i17
  %1099 = sub i64 %1098, 52
  %1100 = load i64, i64* %PC.i15
  %1101 = add i64 %1100, 3
  store i64 %1101, i64* %PC.i15
  %1102 = inttoptr i64 %1099 to i32*
  %1103 = load i32, i32* %1102
  %1104 = zext i32 %1103 to i64
  store i64 %1104, i64* %RAX.i16, align 8
  store %struct.Memory* %loadMem_406a8c, %struct.Memory** %MEMORY
  %loadMem_406a8f = load %struct.Memory*, %struct.Memory** %MEMORY
  %1105 = getelementptr inbounds %struct.State, %struct.State* %0, i32 0, i32 6
  %1106 = getelementptr inbounds %struct.GPR, %struct.GPR* %1105, i32 0, i32 33
  %1107 = getelementptr inbounds %struct.Reg, %struct.Reg* %1106, i32 0, i32 0
  %PC.i14 = bitcast %union.anon* %1107 to i64*
  %1108 = getelementptr inbounds %struct.State, %struct.State* %0, i32 0, i32 6
  %1109 = getelementptr inbounds %struct.GPR, %struct.GPR* %1108, i32 0, i32 1
  %1110 = getelementptr inbounds %struct.Reg, %struct.Reg* %1109, i32 0, i32 0
  %RAX.i = bitcast %union.anon* %1110 to i64*
  %1111 = load i64, i64* %RAX.i
  %1112 = load i64, i64* %PC.i14
  %1113 = add i64 %1112, 3
  store i64 %1113, i64* %PC.i14
  %1114 = trunc i64 %1111 to i32
  %1115 = add i32 1, %1114
  %1116 = zext i32 %1115 to i64
  store i64 %1116, i64* %RAX.i, align 8
  %1117 = icmp ult i32 %1115, %1114
  %1118 = icmp ult i32 %1115, 1
  %1119 = or i1 %1117, %1118
  %1120 = zext i1 %1119 to i8
  %1121 = getelementptr inbounds %struct.State, %struct.State* %0, i64 0, i32 2, i32 1
  store i8 %1120, i8* %1121, align 1
  %1122 = and i32 %1115, 255
  %1123 = call i32 @llvm.ctpop.i32(i32 %1122)
  %1124 = trunc i32 %1123 to i8
  %1125 = and i8 %1124, 1
  %1126 = xor i8 %1125, 1
  %1127 = getelementptr inbounds %struct.State, %struct.State* %0, i64 0, i32 2, i32 3
  store i8 %1126, i8* %1127, align 1
  %1128 = xor i64 1, %1111
  %1129 = trunc i64 %1128 to i32
  %1130 = xor i32 %1129, %1115
  %1131 = lshr i32 %1130, 4
  %1132 = trunc i32 %1131 to i8
  %1133 = and i8 %1132, 1
  %1134 = getelementptr inbounds %struct.State, %struct.State* %0, i64 0, i32 2, i32 5
  store i8 %1133, i8* %1134, align 1
  %1135 = icmp eq i32 %1115, 0
  %1136 = zext i1 %1135 to i8
  %1137 = getelementptr inbounds %struct.State, %struct.State* %0, i64 0, i32 2, i32 7
  store i8 %1136, i8* %1137, align 1
  %1138 = lshr i32 %1115, 31
  %1139 = trunc i32 %1138 to i8
  %1140 = getelementptr inbounds %struct.State, %struct.State* %0, i64 0, i32 2, i32 9
  store i8 %1139, i8* %1140, align 1
  %1141 = lshr i32 %1114, 31
  %1142 = xor i32 %1138, %1141
  %1143 = add i32 %1142, %1138
  %1144 = icmp eq i32 %1143, 2
  %1145 = zext i1 %1144 to i8
  %1146 = getelementptr inbounds %struct.State, %struct.State* %0, i64 0, i32 2, i32 13
  store i8 %1145, i8* %1146, align 1
  store %struct.Memory* %loadMem_406a8f, %struct.Memory** %MEMORY
  %loadMem_406a92 = load %struct.Memory*, %struct.Memory** %MEMORY
  %1147 = getelementptr inbounds %struct.State, %struct.State* %0, i32 0, i32 6
  %1148 = getelementptr inbounds %struct.GPR, %struct.GPR* %1147, i32 0, i32 33
  %1149 = getelementptr inbounds %struct.Reg, %struct.Reg* %1148, i32 0, i32 0
  %PC.i12 = bitcast %union.anon* %1149 to i64*
  %1150 = getelementptr inbounds %struct.State, %struct.State* %0, i32 0, i32 6
  %1151 = getelementptr inbounds %struct.GPR, %struct.GPR* %1150, i32 0, i32 1
  %1152 = getelementptr inbounds %struct.Reg, %struct.Reg* %1151, i32 0, i32 0
  %EAX.i = bitcast %union.anon* %1152 to i32*
  %1153 = getelementptr inbounds %struct.State, %struct.State* %0, i32 0, i32 6
  %1154 = getelementptr inbounds %struct.GPR, %struct.GPR* %1153, i32 0, i32 15
  %1155 = getelementptr inbounds %struct.Reg, %struct.Reg* %1154, i32 0, i32 0
  %RBP.i13 = bitcast %union.anon* %1155 to i64*
  %1156 = load i64, i64* %RBP.i13
  %1157 = sub i64 %1156, 52
  %1158 = load i32, i32* %EAX.i
  %1159 = zext i32 %1158 to i64
  %1160 = load i64, i64* %PC.i12
  %1161 = add i64 %1160, 3
  store i64 %1161, i64* %PC.i12
  %1162 = inttoptr i64 %1157 to i32*
  store i32 %1158, i32* %1162
  store %struct.Memory* %loadMem_406a92, %struct.Memory** %MEMORY
  %loadMem_406a95 = load %struct.Memory*, %struct.Memory** %MEMORY
  %1163 = getelementptr inbounds %struct.State, %struct.State* %0, i32 0, i32 6
  %1164 = getelementptr inbounds %struct.GPR, %struct.GPR* %1163, i32 0, i32 33
  %1165 = getelementptr inbounds %struct.Reg, %struct.Reg* %1164, i32 0, i32 0
  %PC.i11 = bitcast %union.anon* %1165 to i64*
  %1166 = load i64, i64* %PC.i11
  %1167 = add i64 %1166, -190
  %1168 = load i64, i64* %PC.i11
  %1169 = add i64 %1168, 5
  store i64 %1169, i64* %PC.i11
  %1170 = getelementptr inbounds %struct.State, %struct.State* %0, i64 0, i32 6, i32 33, i32 0, i32 0
  store i64 %1167, i64* %1170, align 8
  store %struct.Memory* %loadMem_406a95, %struct.Memory** %MEMORY
  br label %block_.L_4069d7

block_.L_406a9a:                                  ; preds = %block_.L_4069d7
  %loadMem1_406a9a = load %struct.Memory*, %struct.Memory** %MEMORY
  %1171 = getelementptr inbounds %struct.State, %struct.State* %0, i32 0, i32 6
  %1172 = getelementptr inbounds %struct.GPR, %struct.GPR* %1171, i32 0, i32 33
  %1173 = getelementptr inbounds %struct.Reg, %struct.Reg* %1172, i32 0, i32 0
  %PC.i10 = bitcast %union.anon* %1173 to i64*
  %1174 = load i64, i64* %PC.i10
  %1175 = add i64 %1174, -23594
  %1176 = load i64, i64* %PC.i10
  %1177 = add i64 %1176, 5
  %1178 = load i64, i64* %PC.i10
  %1179 = add i64 %1178, 5
  store i64 %1179, i64* %PC.i10
  %1180 = getelementptr inbounds %struct.State, %struct.State* %0, i64 0, i32 6, i32 13, i32 0, i32 0
  %1181 = load i64, i64* %1180, align 8
  %1182 = add i64 %1181, -8
  %1183 = inttoptr i64 %1182 to i64*
  store i64 %1177, i64* %1183
  store i64 %1182, i64* %1180, align 8
  %1184 = getelementptr inbounds %struct.State, %struct.State* %0, i64 0, i32 6, i32 33, i32 0, i32 0
  store i64 %1175, i64* %1184, align 8
  store %struct.Memory* %loadMem1_406a9a, %struct.Memory** %MEMORY
  %loadMem2_406a9a = load %struct.Memory*, %struct.Memory** %MEMORY
  %loadPC_406a9a = load i64, i64* %3
  %call2_406a9a = call %struct.Memory* @sub_400e70._Z5timerv(%struct.State* %0, i64 %loadPC_406a9a, %struct.Memory* %loadMem2_406a9a)
  store %struct.Memory* %call2_406a9a, %struct.Memory** %MEMORY
  %loadMem_406a9f = load %struct.Memory*, %struct.Memory** %MEMORY
  %1185 = getelementptr inbounds %struct.State, %struct.State* %0, i32 0, i32 6
  %1186 = getelementptr inbounds %struct.GPR, %struct.GPR* %1185, i32 0, i32 33
  %1187 = getelementptr inbounds %struct.Reg, %struct.Reg* %1186, i32 0, i32 0
  %PC.i8 = bitcast %union.anon* %1187 to i64*
  %1188 = getelementptr inbounds %struct.State, %struct.State* %0, i32 0, i32 6
  %1189 = getelementptr inbounds %struct.GPR, %struct.GPR* %1188, i32 0, i32 11
  %1190 = getelementptr inbounds %struct.Reg, %struct.Reg* %1189, i32 0, i32 0
  %RDI.i = bitcast %union.anon* %1190 to i64*
  %1191 = getelementptr inbounds %struct.State, %struct.State* %0, i32 0, i32 6
  %1192 = getelementptr inbounds %struct.GPR, %struct.GPR* %1191, i32 0, i32 15
  %1193 = getelementptr inbounds %struct.Reg, %struct.Reg* %1192, i32 0, i32 0
  %RBP.i9 = bitcast %union.anon* %1193 to i64*
  %1194 = load i64, i64* %RBP.i9
  %1195 = sub i64 %1194, 48
  %1196 = load i64, i64* %PC.i8
  %1197 = add i64 %1196, 4
  store i64 %1197, i64* %PC.i8
  %1198 = inttoptr i64 %1195 to i64*
  %1199 = load i64, i64* %1198
  store i64 %1199, i64* %RDI.i, align 8
  store %struct.Memory* %loadMem_406a9f, %struct.Memory** %MEMORY
  %loadMem1_406aa3 = load %struct.Memory*, %struct.Memory** %MEMORY
  %1200 = getelementptr inbounds %struct.State, %struct.State* %0, i32 0, i32 6
  %1201 = getelementptr inbounds %struct.GPR, %struct.GPR* %1200, i32 0, i32 33
  %1202 = getelementptr inbounds %struct.Reg, %struct.Reg* %1201, i32 0, i32 0
  %PC.i7 = bitcast %union.anon* %1202 to i64*
  %1203 = load i64, i64* %PC.i7
  %1204 = add i64 %1203, -25235
  %1205 = load i64, i64* %PC.i7
  %1206 = add i64 %1205, 5
  %1207 = load i64, i64* %PC.i7
  %1208 = add i64 %1207, 5
  store i64 %1208, i64* %PC.i7
  %1209 = getelementptr inbounds %struct.State, %struct.State* %0, i64 0, i32 6, i32 13, i32 0, i32 0
  %1210 = load i64, i64* %1209, align 8
  %1211 = add i64 %1210, -8
  %1212 = inttoptr i64 %1211 to i64*
  store i64 %1206, i64* %1212
  store i64 %1211, i64* %1209, align 8
  %1213 = getelementptr inbounds %struct.State, %struct.State* %0, i64 0, i32 6, i32 33, i32 0, i32 0
  store i64 %1204, i64* %1213, align 8
  store %struct.Memory* %loadMem1_406aa3, %struct.Memory** %MEMORY
  %loadMem2_406aa3 = load %struct.Memory*, %struct.Memory** %MEMORY
  %loadPC_406aa3 = load i64, i64* %3
  %call2_406aa3 = call %struct.Memory* @sub_400810._Z13record_resultdPKc(%struct.State* %0, i64 %loadPC_406aa3, %struct.Memory* %loadMem2_406aa3)
  store %struct.Memory* %call2_406aa3, %struct.Memory** %MEMORY
  %loadMem_406aa8 = load %struct.Memory*, %struct.Memory** %MEMORY
  %1214 = getelementptr inbounds %struct.State, %struct.State* %0, i32 0, i32 6
  %1215 = getelementptr inbounds %struct.GPR, %struct.GPR* %1214, i32 0, i32 33
  %1216 = getelementptr inbounds %struct.Reg, %struct.Reg* %1215, i32 0, i32 0
  %PC.i6 = bitcast %union.anon* %1216 to i64*
  %1217 = getelementptr inbounds %struct.State, %struct.State* %0, i32 0, i32 6
  %1218 = getelementptr inbounds %struct.GPR, %struct.GPR* %1217, i32 0, i32 13
  %1219 = getelementptr inbounds %struct.Reg, %struct.Reg* %1218, i32 0, i32 0
  %RSP.i = bitcast %union.anon* %1219 to i64*
  %1220 = load i64, i64* %RSP.i
  %1221 = load i64, i64* %PC.i6
  %1222 = add i64 %1221, 4
  store i64 %1222, i64* %PC.i6
  %1223 = add i64 48, %1220
  store i64 %1223, i64* %RSP.i, align 8
  %1224 = icmp ult i64 %1223, %1220
  %1225 = icmp ult i64 %1223, 48
  %1226 = or i1 %1224, %1225
  %1227 = zext i1 %1226 to i8
  %1228 = getelementptr inbounds %struct.State, %struct.State* %0, i64 0, i32 2, i32 1
  store i8 %1227, i8* %1228, align 1
  %1229 = trunc i64 %1223 to i32
  %1230 = and i32 %1229, 255
  %1231 = call i32 @llvm.ctpop.i32(i32 %1230)
  %1232 = trunc i32 %1231 to i8
  %1233 = and i8 %1232, 1
  %1234 = xor i8 %1233, 1
  %1235 = getelementptr inbounds %struct.State, %struct.State* %0, i64 0, i32 2, i32 3
  store i8 %1234, i8* %1235, align 1
  %1236 = xor i64 48, %1220
  %1237 = xor i64 %1236, %1223
  %1238 = lshr i64 %1237, 4
  %1239 = trunc i64 %1238 to i8
  %1240 = and i8 %1239, 1
  %1241 = getelementptr inbounds %struct.State, %struct.State* %0, i64 0, i32 2, i32 5
  store i8 %1240, i8* %1241, align 1
  %1242 = icmp eq i64 %1223, 0
  %1243 = zext i1 %1242 to i8
  %1244 = getelementptr inbounds %struct.State, %struct.State* %0, i64 0, i32 2, i32 7
  store i8 %1243, i8* %1244, align 1
  %1245 = lshr i64 %1223, 63
  %1246 = trunc i64 %1245 to i8
  %1247 = getelementptr inbounds %struct.State, %struct.State* %0, i64 0, i32 2, i32 9
  store i8 %1246, i8* %1247, align 1
  %1248 = lshr i64 %1220, 63
  %1249 = xor i64 %1245, %1248
  %1250 = add i64 %1249, %1245
  %1251 = icmp eq i64 %1250, 2
  %1252 = zext i1 %1251 to i8
  %1253 = getelementptr inbounds %struct.State, %struct.State* %0, i64 0, i32 2, i32 13
  store i8 %1252, i8* %1253, align 1
  store %struct.Memory* %loadMem_406aa8, %struct.Memory** %MEMORY
  %loadMem_406aac = load %struct.Memory*, %struct.Memory** %MEMORY
  %1254 = getelementptr inbounds %struct.State, %struct.State* %0, i32 0, i32 6
  %1255 = getelementptr inbounds %struct.GPR, %struct.GPR* %1254, i32 0, i32 33
  %1256 = getelementptr inbounds %struct.Reg, %struct.Reg* %1255, i32 0, i32 0
  %PC.i5 = bitcast %union.anon* %1256 to i64*
  %1257 = getelementptr inbounds %struct.State, %struct.State* %0, i32 0, i32 6
  %1258 = getelementptr inbounds %struct.GPR, %struct.GPR* %1257, i32 0, i32 3
  %1259 = getelementptr inbounds %struct.Reg, %struct.Reg* %1258, i32 0, i32 0
  %RBX.i = bitcast %union.anon* %1259 to i64*
  %1260 = load i64, i64* %PC.i5
  %1261 = add i64 %1260, 1
  store i64 %1261, i64* %PC.i5
  %1262 = getelementptr inbounds %struct.State, %struct.State* %0, i64 0, i32 6, i32 13, i32 0, i32 0
  %1263 = load i64, i64* %1262, align 8
  %1264 = add i64 %1263, 8
  %1265 = inttoptr i64 %1263 to i64*
  %1266 = load i64, i64* %1265
  store i64 %1266, i64* %RBX.i, align 8
  store i64 %1264, i64* %1262, align 8
  store %struct.Memory* %loadMem_406aac, %struct.Memory** %MEMORY
  %loadMem_406aad = load %struct.Memory*, %struct.Memory** %MEMORY
  %1267 = getelementptr inbounds %struct.State, %struct.State* %0, i32 0, i32 6
  %1268 = getelementptr inbounds %struct.GPR, %struct.GPR* %1267, i32 0, i32 33
  %1269 = getelementptr inbounds %struct.Reg, %struct.Reg* %1268, i32 0, i32 0
  %PC.i4 = bitcast %union.anon* %1269 to i64*
  %1270 = getelementptr inbounds %struct.State, %struct.State* %0, i32 0, i32 6
  %1271 = getelementptr inbounds %struct.GPR, %struct.GPR* %1270, i32 0, i32 29
  %1272 = getelementptr inbounds %struct.Reg, %struct.Reg* %1271, i32 0, i32 0
  %R14.i = bitcast %union.anon* %1272 to i64*
  %1273 = load i64, i64* %PC.i4
  %1274 = add i64 %1273, 2
  store i64 %1274, i64* %PC.i4
  %1275 = getelementptr inbounds %struct.State, %struct.State* %0, i64 0, i32 6, i32 13, i32 0, i32 0
  %1276 = load i64, i64* %1275, align 8
  %1277 = add i64 %1276, 8
  %1278 = inttoptr i64 %1276 to i64*
  %1279 = load i64, i64* %1278
  store i64 %1279, i64* %R14.i, align 8
  store i64 %1277, i64* %1275, align 8
  store %struct.Memory* %loadMem_406aad, %struct.Memory** %MEMORY
  %loadMem_406aaf = load %struct.Memory*, %struct.Memory** %MEMORY
  %1280 = getelementptr inbounds %struct.State, %struct.State* %0, i32 0, i32 6
  %1281 = getelementptr inbounds %struct.GPR, %struct.GPR* %1280, i32 0, i32 33
  %1282 = getelementptr inbounds %struct.Reg, %struct.Reg* %1281, i32 0, i32 0
  %PC.i2 = bitcast %union.anon* %1282 to i64*
  %1283 = getelementptr inbounds %struct.State, %struct.State* %0, i32 0, i32 6
  %1284 = getelementptr inbounds %struct.GPR, %struct.GPR* %1283, i32 0, i32 15
  %1285 = getelementptr inbounds %struct.Reg, %struct.Reg* %1284, i32 0, i32 0
  %RBP.i3 = bitcast %union.anon* %1285 to i64*
  %1286 = load i64, i64* %PC.i2
  %1287 = add i64 %1286, 1
  store i64 %1287, i64* %PC.i2
  %1288 = getelementptr inbounds %struct.State, %struct.State* %0, i64 0, i32 6, i32 13, i32 0, i32 0
  %1289 = load i64, i64* %1288, align 8
  %1290 = add i64 %1289, 8
  %1291 = inttoptr i64 %1289 to i64*
  %1292 = load i64, i64* %1291
  store i64 %1292, i64* %RBP.i3, align 8
  store i64 %1290, i64* %1288, align 8
  store %struct.Memory* %loadMem_406aaf, %struct.Memory** %MEMORY
  %loadMem_406ab0 = load %struct.Memory*, %struct.Memory** %MEMORY
  %1293 = getelementptr inbounds %struct.State, %struct.State* %0, i32 0, i32 6
  %1294 = getelementptr inbounds %struct.GPR, %struct.GPR* %1293, i32 0, i32 33
  %1295 = getelementptr inbounds %struct.Reg, %struct.Reg* %1294, i32 0, i32 0
  %PC.i1 = bitcast %union.anon* %1295 to i64*
  %1296 = load i64, i64* %PC.i1
  %1297 = add i64 %1296, 1
  store i64 %1297, i64* %PC.i1
  %1298 = getelementptr inbounds %struct.State, %struct.State* %0, i64 0, i32 6, i32 33, i32 0, i32 0
  %1299 = getelementptr inbounds %struct.State, %struct.State* %0, i64 0, i32 6, i32 13, i32 0, i32 0
  %1300 = load i64, i64* %1299, align 8
  %1301 = inttoptr i64 %1300 to i64*
  %1302 = load i64, i64* %1301
  store i64 %1302, i64* %1298, align 8
  %1303 = add i64 %1300, 8
  store i64 %1303, i64* %1299, align 8
  store %struct.Memory* %loadMem_406ab0, %struct.Memory** %MEMORY
  ret %struct.Memory* %loadMem_406ab0
}

define %struct.Memory* @routine_pushq__rbp(%struct.State* dereferenceable(3376), i64, %struct.Memory*) {
block_400488:
  %3 = getelementptr inbounds %struct.State, %struct.State* %0, i32 0, i32 6
  %4 = getelementptr inbounds %struct.GPR, %struct.GPR* %3, i32 0, i32 33
  %5 = getelementptr inbounds %struct.Reg, %struct.Reg* %4, i32 0, i32 0
  %PC = bitcast %union.anon* %5 to i64*
  %6 = getelementptr inbounds %struct.State, %struct.State* %0, i32 0, i32 6
  %7 = getelementptr inbounds %struct.GPR, %struct.GPR* %6, i32 0, i32 15
  %8 = getelementptr inbounds %struct.Reg, %struct.Reg* %7, i32 0, i32 0
  %RBP = bitcast %union.anon* %8 to i64*
  %9 = load i64, i64* %RBP
  %10 = load i64, i64* %PC
  %11 = add i64 %10, 1
  store i64 %11, i64* %PC
  %12 = getelementptr inbounds %struct.State, %struct.State* %0, i64 0, i32 6, i32 13, i32 0, i32 0
  %13 = load i64, i64* %12, align 8
  %14 = add i64 %13, -8
  %15 = inttoptr i64 %14 to i64*
  store i64 %9, i64* %15
  store i64 %14, i64* %12, align 8
  ret %struct.Memory* %2
}

define %struct.Memory* @routine_movq__rsp___rbp(%struct.State* dereferenceable(3376), i64, %struct.Memory*) {
block_400488:
  %3 = getelementptr inbounds %struct.State, %struct.State* %0, i32 0, i32 6
  %4 = getelementptr inbounds %struct.GPR, %struct.GPR* %3, i32 0, i32 33
  %5 = getelementptr inbounds %struct.Reg, %struct.Reg* %4, i32 0, i32 0
  %PC = bitcast %union.anon* %5 to i64*
  %6 = getelementptr inbounds %struct.State, %struct.State* %0, i32 0, i32 6
  %7 = getelementptr inbounds %struct.GPR, %struct.GPR* %6, i32 0, i32 13
  %8 = getelementptr inbounds %struct.Reg, %struct.Reg* %7, i32 0, i32 0
  %RSP = bitcast %union.anon* %8 to i64*
  %9 = getelementptr inbounds %struct.State, %struct.State* %0, i32 0, i32 6
  %10 = getelementptr inbounds %struct.GPR, %struct.GPR* %9, i32 0, i32 15
  %11 = getelementptr inbounds %struct.Reg, %struct.Reg* %10, i32 0, i32 0
  %RBP = bitcast %union.anon* %11 to i64*
  %12 = load i64, i64* %RSP
  %13 = load i64, i64* %PC
  %14 = add i64 %13, 3
  store i64 %14, i64* %PC
  store i64 %12, i64* %RBP, align 8
  ret %struct.Memory* %2
}

define %struct.Memory* @routine_pushq__r14(%struct.State* dereferenceable(3376), i64, %struct.Memory*) {
block_400488:
  %3 = getelementptr inbounds %struct.State, %struct.State* %0, i32 0, i32 6
  %4 = getelementptr inbounds %struct.GPR, %struct.GPR* %3, i32 0, i32 33
  %5 = getelementptr inbounds %struct.Reg, %struct.Reg* %4, i32 0, i32 0
  %PC = bitcast %union.anon* %5 to i64*
  %6 = getelementptr inbounds %struct.State, %struct.State* %0, i32 0, i32 6
  %7 = getelementptr inbounds %struct.GPR, %struct.GPR* %6, i32 0, i32 29
  %8 = getelementptr inbounds %struct.Reg, %struct.Reg* %7, i32 0, i32 0
  %R14 = bitcast %union.anon* %8 to i64*
  %9 = load i64, i64* %R14
  %10 = load i64, i64* %PC
  %11 = add i64 %10, 2
  store i64 %11, i64* %PC
  %12 = getelementptr inbounds %struct.State, %struct.State* %0, i64 0, i32 6, i32 13, i32 0, i32 0
  %13 = load i64, i64* %12, align 8
  %14 = add i64 %13, -8
  %15 = inttoptr i64 %14 to i64*
  store i64 %9, i64* %15
  store i64 %14, i64* %12, align 8
  ret %struct.Memory* %2
}

define %struct.Memory* @routine_pushq__rbx(%struct.State* dereferenceable(3376), i64, %struct.Memory*) {
block_400488:
  %3 = getelementptr inbounds %struct.State, %struct.State* %0, i32 0, i32 6
  %4 = getelementptr inbounds %struct.GPR, %struct.GPR* %3, i32 0, i32 33
  %5 = getelementptr inbounds %struct.Reg, %struct.Reg* %4, i32 0, i32 0
  %PC = bitcast %union.anon* %5 to i64*
  %6 = getelementptr inbounds %struct.State, %struct.State* %0, i32 0, i32 6
  %7 = getelementptr inbounds %struct.GPR, %struct.GPR* %6, i32 0, i32 3
  %8 = getelementptr inbounds %struct.Reg, %struct.Reg* %7, i32 0, i32 0
  %RBX = bitcast %union.anon* %8 to i64*
  %9 = load i64, i64* %RBX
  %10 = load i64, i64* %PC
  %11 = add i64 %10, 1
  store i64 %11, i64* %PC
  %12 = getelementptr inbounds %struct.State, %struct.State* %0, i64 0, i32 6, i32 13, i32 0, i32 0
  %13 = load i64, i64* %12, align 8
  %14 = add i64 %13, -8
  %15 = inttoptr i64 %14 to i64*
  store i64 %9, i64* %15
  store i64 %14, i64* %12, align 8
  ret %struct.Memory* %2
}

define %struct.Memory* @routine_subq__0x30___rsp(%struct.State* dereferenceable(3376), i64, %struct.Memory*) {
block_400488:
  %3 = getelementptr inbounds %struct.State, %struct.State* %0, i32 0, i32 6
  %4 = getelementptr inbounds %struct.GPR, %struct.GPR* %3, i32 0, i32 33
  %5 = getelementptr inbounds %struct.Reg, %struct.Reg* %4, i32 0, i32 0
  %PC = bitcast %union.anon* %5 to i64*
  %6 = getelementptr inbounds %struct.State, %struct.State* %0, i32 0, i32 6
  %7 = getelementptr inbounds %struct.GPR, %struct.GPR* %6, i32 0, i32 13
  %8 = getelementptr inbounds %struct.Reg, %struct.Reg* %7, i32 0, i32 0
  %RSP = bitcast %union.anon* %8 to i64*
  %9 = load i64, i64* %RSP
  %10 = load i64, i64* %PC
  %11 = add i64 %10, 4
  store i64 %11, i64* %PC
  %12 = sub i64 %9, 48
  store i64 %12, i64* %RSP, align 8
  %13 = icmp ult i64 %9, 48
  %14 = zext i1 %13 to i8
  %15 = getelementptr inbounds %struct.State, %struct.State* %0, i64 0, i32 2, i32 1
  store i8 %14, i8* %15, align 1
  %16 = trunc i64 %12 to i32
  %17 = and i32 %16, 255
  %18 = call i32 @llvm.ctpop.i32(i32 %17)
  %19 = trunc i32 %18 to i8
  %20 = and i8 %19, 1
  %21 = xor i8 %20, 1
  %22 = getelementptr inbounds %struct.State, %struct.State* %0, i64 0, i32 2, i32 3
  store i8 %21, i8* %22, align 1
  %23 = xor i64 48, %9
  %24 = xor i64 %23, %12
  %25 = lshr i64 %24, 4
  %26 = trunc i64 %25 to i8
  %27 = and i8 %26, 1
  %28 = getelementptr inbounds %struct.State, %struct.State* %0, i64 0, i32 2, i32 5
  store i8 %27, i8* %28, align 1
  %29 = icmp eq i64 %12, 0
  %30 = zext i1 %29 to i8
  %31 = getelementptr inbounds %struct.State, %struct.State* %0, i64 0, i32 2, i32 7
  store i8 %30, i8* %31, align 1
  %32 = lshr i64 %12, 63
  %33 = trunc i64 %32 to i8
  %34 = getelementptr inbounds %struct.State, %struct.State* %0, i64 0, i32 2, i32 9
  store i8 %33, i8* %34, align 1
  %35 = lshr i64 %9, 63
  %36 = xor i64 %32, %35
  %37 = add i64 %36, %35
  %38 = icmp eq i64 %37, 2
  %39 = zext i1 %38 to i8
  %40 = getelementptr inbounds %struct.State, %struct.State* %0, i64 0, i32 2, i32 13
  store i8 %39, i8* %40, align 1
  ret %struct.Memory* %2
}

define %struct.Memory* @routine_movw__r9w___ax(%struct.State* dereferenceable(3376), i64, %struct.Memory*) {
block_400488:
  %3 = getelementptr inbounds %struct.State, %struct.State* %0, i32 0, i32 6
  %4 = getelementptr inbounds %struct.GPR, %struct.GPR* %3, i32 0, i32 33
  %5 = getelementptr inbounds %struct.Reg, %struct.Reg* %4, i32 0, i32 0
  %PC = bitcast %union.anon* %5 to i64*
  %6 = getelementptr inbounds %struct.State, %struct.State* %0, i32 0, i32 6
  %7 = getelementptr inbounds %struct.GPR, %struct.GPR* %6, i32 0, i32 1
  %8 = getelementptr inbounds %struct.Reg, %struct.Reg* %7, i32 0, i32 0
  %AX = bitcast %union.anon* %8 to i16*
  %9 = getelementptr inbounds %struct.State, %struct.State* %0, i32 0, i32 6
  %10 = getelementptr inbounds %struct.GPR, %struct.GPR* %9, i32 0, i32 19
  %11 = getelementptr inbounds %struct.Reg, %struct.Reg* %10, i32 0, i32 0
  %R9W = bitcast %union.anon* %11 to i16*
  %12 = load i16, i16* %R9W
  %13 = zext i16 %12 to i64
  %14 = load i64, i64* %PC
  %15 = add i64 %14, 4
  store i64 %15, i64* %PC
  store i16 %12, i16* %AX, align 2
  ret %struct.Memory* %2
}

define %struct.Memory* @routine_movw__r8w___r10w(%struct.State* dereferenceable(3376), i64, %struct.Memory*) {
block_400488:
  %3 = getelementptr inbounds %struct.State, %struct.State* %0, i32 0, i32 6
  %4 = getelementptr inbounds %struct.GPR, %struct.GPR* %3, i32 0, i32 33
  %5 = getelementptr inbounds %struct.Reg, %struct.Reg* %4, i32 0, i32 0
  %PC = bitcast %union.anon* %5 to i64*
  %6 = getelementptr inbounds %struct.State, %struct.State* %0, i32 0, i32 6
  %7 = getelementptr inbounds %struct.GPR, %struct.GPR* %6, i32 0, i32 17
  %8 = getelementptr inbounds %struct.Reg, %struct.Reg* %7, i32 0, i32 0
  %R8W = bitcast %union.anon* %8 to i16*
  %9 = getelementptr inbounds %struct.State, %struct.State* %0, i32 0, i32 6
  %10 = getelementptr inbounds %struct.GPR, %struct.GPR* %9, i32 0, i32 21
  %11 = getelementptr inbounds %struct.Reg, %struct.Reg* %10, i32 0, i32 0
  %R10W = bitcast %union.anon* %11 to i16*
  %12 = load i16, i16* %R8W
  %13 = zext i16 %12 to i64
  %14 = load i64, i64* %PC
  %15 = add i64 %14, 4
  store i64 %15, i64* %PC
  store i16 %12, i16* %R10W, align 2
  ret %struct.Memory* %2
}

define %struct.Memory* @routine_movw__cx___r11w(%struct.State* dereferenceable(3376), i64, %struct.Memory*) {
block_400488:
  %3 = getelementptr inbounds %struct.State, %struct.State* %0, i32 0, i32 6
  %4 = getelementptr inbounds %struct.GPR, %struct.GPR* %3, i32 0, i32 33
  %5 = getelementptr inbounds %struct.Reg, %struct.Reg* %4, i32 0, i32 0
  %PC = bitcast %union.anon* %5 to i64*
  %6 = getelementptr inbounds %struct.State, %struct.State* %0, i32 0, i32 6
  %7 = getelementptr inbounds %struct.GPR, %struct.GPR* %6, i32 0, i32 5
  %8 = getelementptr inbounds %struct.Reg, %struct.Reg* %7, i32 0, i32 0
  %CX = bitcast %union.anon* %8 to i16*
  %9 = getelementptr inbounds %struct.State, %struct.State* %0, i32 0, i32 6
  %10 = getelementptr inbounds %struct.GPR, %struct.GPR* %9, i32 0, i32 23
  %11 = getelementptr inbounds %struct.Reg, %struct.Reg* %10, i32 0, i32 0
  %R11W = bitcast %union.anon* %11 to i16*
  %12 = load i16, i16* %CX
  %13 = zext i16 %12 to i64
  %14 = load i64, i64* %PC
  %15 = add i64 %14, 4
  store i64 %15, i64* %PC
  store i16 %12, i16* %R11W, align 2
  ret %struct.Memory* %2
}

define %struct.Memory* @routine_movw__dx___bx(%struct.State* dereferenceable(3376), i64, %struct.Memory*) {
block_400488:
  %3 = getelementptr inbounds %struct.State, %struct.State* %0, i32 0, i32 6
  %4 = getelementptr inbounds %struct.GPR, %struct.GPR* %3, i32 0, i32 33
  %5 = getelementptr inbounds %struct.Reg, %struct.Reg* %4, i32 0, i32 0
  %PC = bitcast %union.anon* %5 to i64*
  %6 = getelementptr inbounds %struct.State, %struct.State* %0, i32 0, i32 6
  %7 = getelementptr inbounds %struct.GPR, %struct.GPR* %6, i32 0, i32 3
  %8 = getelementptr inbounds %struct.Reg, %struct.Reg* %7, i32 0, i32 0
  %BX = bitcast %union.anon* %8 to i16*
  %9 = getelementptr inbounds %struct.State, %struct.State* %0, i32 0, i32 6
  %10 = getelementptr inbounds %struct.GPR, %struct.GPR* %9, i32 0, i32 7
  %11 = getelementptr inbounds %struct.Reg, %struct.Reg* %10, i32 0, i32 0
  %DX = bitcast %union.anon* %11 to i16*
  %12 = load i16, i16* %DX
  %13 = zext i16 %12 to i64
  %14 = load i64, i64* %PC
  %15 = add i64 %14, 3
  store i64 %15, i64* %PC
  store i16 %12, i16* %BX, align 2
  ret %struct.Memory* %2
}

define %struct.Memory* @routine_movq_0x10__rbp____r14(%struct.State* dereferenceable(3376), i64, %struct.Memory*) {
block_400488:
  %3 = getelementptr inbounds %struct.State, %struct.State* %0, i32 0, i32 6
  %4 = getelementptr inbounds %struct.GPR, %struct.GPR* %3, i32 0, i32 33
  %5 = getelementptr inbounds %struct.Reg, %struct.Reg* %4, i32 0, i32 0
  %PC = bitcast %union.anon* %5 to i64*
  %6 = getelementptr inbounds %struct.State, %struct.State* %0, i32 0, i32 6
  %7 = getelementptr inbounds %struct.GPR, %struct.GPR* %6, i32 0, i32 15
  %8 = getelementptr inbounds %struct.Reg, %struct.Reg* %7, i32 0, i32 0
  %RBP = bitcast %union.anon* %8 to i64*
  %9 = getelementptr inbounds %struct.State, %struct.State* %0, i32 0, i32 6
  %10 = getelementptr inbounds %struct.GPR, %struct.GPR* %9, i32 0, i32 29
  %11 = getelementptr inbounds %struct.Reg, %struct.Reg* %10, i32 0, i32 0
  %R14 = bitcast %union.anon* %11 to i64*
  %12 = load i64, i64* %RBP
  %13 = add i64 %12, 16
  %14 = load i64, i64* %PC
  %15 = add i64 %14, 4
  store i64 %15, i64* %PC
  %16 = inttoptr i64 %13 to i64*
  %17 = load i64, i64* %16
  store i64 %17, i64* %R14, align 8
  ret %struct.Memory* %2
}

define %struct.Memory* @routine_movq__rdi__MINUS0x18__rbp_(%struct.State* dereferenceable(3376), i64, %struct.Memory*) {
block_400488:
  %3 = getelementptr inbounds %struct.State, %struct.State* %0, i32 0, i32 6
  %4 = getelementptr inbounds %struct.GPR, %struct.GPR* %3, i32 0, i32 33
  %5 = getelementptr inbounds %struct.Reg, %struct.Reg* %4, i32 0, i32 0
  %PC = bitcast %union.anon* %5 to i64*
  %6 = getelementptr inbounds %struct.State, %struct.State* %0, i32 0, i32 6
  %7 = getelementptr inbounds %struct.GPR, %struct.GPR* %6, i32 0, i32 11
  %8 = getelementptr inbounds %struct.Reg, %struct.Reg* %7, i32 0, i32 0
  %RDI = bitcast %union.anon* %8 to i64*
  %9 = getelementptr inbounds %struct.State, %struct.State* %0, i32 0, i32 6
  %10 = getelementptr inbounds %struct.GPR, %struct.GPR* %9, i32 0, i32 15
  %11 = getelementptr inbounds %struct.Reg, %struct.Reg* %10, i32 0, i32 0
  %RBP = bitcast %union.anon* %11 to i64*
  %12 = load i64, i64* %RBP
  %13 = sub i64 %12, 24
  %14 = load i64, i64* %RDI
  %15 = load i64, i64* %PC
  %16 = add i64 %15, 4
  store i64 %16, i64* %PC
  %17 = inttoptr i64 %13 to i64*
  store i64 %14, i64* %17
  ret %struct.Memory* %2
}

define %struct.Memory* @routine_movl__esi__MINUS0x1c__rbp_(%struct.State* dereferenceable(3376), i64, %struct.Memory*) {
block_400488:
  %3 = getelementptr inbounds %struct.State, %struct.State* %0, i32 0, i32 6
  %4 = getelementptr inbounds %struct.GPR, %struct.GPR* %3, i32 0, i32 33
  %5 = getelementptr inbounds %struct.Reg, %struct.Reg* %4, i32 0, i32 0
  %PC = bitcast %union.anon* %5 to i64*
  %6 = getelementptr inbounds %struct.State, %struct.State* %0, i32 0, i32 6
  %7 = getelementptr inbounds %struct.GPR, %struct.GPR* %6, i32 0, i32 9
  %8 = getelementptr inbounds %struct.Reg, %struct.Reg* %7, i32 0, i32 0
  %ESI = bitcast %union.anon* %8 to i32*
  %9 = getelementptr inbounds %struct.State, %struct.State* %0, i32 0, i32 6
  %10 = getelementptr inbounds %struct.GPR, %struct.GPR* %9, i32 0, i32 15
  %11 = getelementptr inbounds %struct.Reg, %struct.Reg* %10, i32 0, i32 0
  %RBP = bitcast %union.anon* %11 to i64*
  %12 = load i64, i64* %RBP
  %13 = sub i64 %12, 28
  %14 = load i32, i32* %ESI
  %15 = zext i32 %14 to i64
  %16 = load i64, i64* %PC
  %17 = add i64 %16, 3
  store i64 %17, i64* %PC
  %18 = inttoptr i64 %13 to i32*
  store i32 %14, i32* %18
  ret %struct.Memory* %2
}

define %struct.Memory* @routine_movw__bx__MINUS0x1e__rbp_(%struct.State* dereferenceable(3376), i64, %struct.Memory*) {
block_400488:
  %3 = getelementptr inbounds %struct.State, %struct.State* %0, i32 0, i32 6
  %4 = getelementptr inbounds %struct.GPR, %struct.GPR* %3, i32 0, i32 33
  %5 = getelementptr inbounds %struct.Reg, %struct.Reg* %4, i32 0, i32 0
  %PC = bitcast %union.anon* %5 to i64*
  %6 = getelementptr inbounds %struct.State, %struct.State* %0, i32 0, i32 6
  %7 = getelementptr inbounds %struct.GPR, %struct.GPR* %6, i32 0, i32 3
  %8 = getelementptr inbounds %struct.Reg, %struct.Reg* %7, i32 0, i32 0
  %BX = bitcast %union.anon* %8 to i16*
  %9 = getelementptr inbounds %struct.State, %struct.State* %0, i32 0, i32 6
  %10 = getelementptr inbounds %struct.GPR, %struct.GPR* %9, i32 0, i32 15
  %11 = getelementptr inbounds %struct.Reg, %struct.Reg* %10, i32 0, i32 0
  %RBP = bitcast %union.anon* %11 to i64*
  %12 = load i64, i64* %RBP
  %13 = sub i64 %12, 30
  %14 = load i16, i16* %BX
  %15 = zext i16 %14 to i64
  %16 = load i64, i64* %PC
  %17 = add i64 %16, 4
  store i64 %17, i64* %PC
  %18 = inttoptr i64 %13 to i16*
  store i16 %14, i16* %18
  ret %struct.Memory* %2
}

define %struct.Memory* @routine_movw__r11w__MINUS0x20__rbp_(%struct.State* dereferenceable(3376), i64, %struct.Memory*) {
block_400488:
  %3 = getelementptr inbounds %struct.State, %struct.State* %0, i32 0, i32 6
  %4 = getelementptr inbounds %struct.GPR, %struct.GPR* %3, i32 0, i32 33
  %5 = getelementptr inbounds %struct.Reg, %struct.Reg* %4, i32 0, i32 0
  %PC = bitcast %union.anon* %5 to i64*
  %6 = getelementptr inbounds %struct.State, %struct.State* %0, i32 0, i32 6
  %7 = getelementptr inbounds %struct.GPR, %struct.GPR* %6, i32 0, i32 23
  %8 = getelementptr inbounds %struct.Reg, %struct.Reg* %7, i32 0, i32 0
  %R11W = bitcast %union.anon* %8 to i16*
  %9 = getelementptr inbounds %struct.State, %struct.State* %0, i32 0, i32 6
  %10 = getelementptr inbounds %struct.GPR, %struct.GPR* %9, i32 0, i32 15
  %11 = getelementptr inbounds %struct.Reg, %struct.Reg* %10, i32 0, i32 0
  %RBP = bitcast %union.anon* %11 to i64*
  %12 = load i64, i64* %RBP
  %13 = sub i64 %12, 32
  %14 = load i16, i16* %R11W
  %15 = zext i16 %14 to i64
  %16 = load i64, i64* %PC
  %17 = add i64 %16, 5
  store i64 %17, i64* %PC
  %18 = inttoptr i64 %13 to i16*
  store i16 %14, i16* %18
  ret %struct.Memory* %2
}

define %struct.Memory* @routine_movw__r10w__MINUS0x22__rbp_(%struct.State* dereferenceable(3376), i64, %struct.Memory*) {
block_400488:
  %3 = getelementptr inbounds %struct.State, %struct.State* %0, i32 0, i32 6
  %4 = getelementptr inbounds %struct.GPR, %struct.GPR* %3, i32 0, i32 33
  %5 = getelementptr inbounds %struct.Reg, %struct.Reg* %4, i32 0, i32 0
  %PC = bitcast %union.anon* %5 to i64*
  %6 = getelementptr inbounds %struct.State, %struct.State* %0, i32 0, i32 6
  %7 = getelementptr inbounds %struct.GPR, %struct.GPR* %6, i32 0, i32 21
  %8 = getelementptr inbounds %struct.Reg, %struct.Reg* %7, i32 0, i32 0
  %R10W = bitcast %union.anon* %8 to i16*
  %9 = getelementptr inbounds %struct.State, %struct.State* %0, i32 0, i32 6
  %10 = getelementptr inbounds %struct.GPR, %struct.GPR* %9, i32 0, i32 15
  %11 = getelementptr inbounds %struct.Reg, %struct.Reg* %10, i32 0, i32 0
  %RBP = bitcast %union.anon* %11 to i64*
  %12 = load i64, i64* %RBP
  %13 = sub i64 %12, 34
  %14 = load i16, i16* %R10W
  %15 = zext i16 %14 to i64
  %16 = load i64, i64* %PC
  %17 = add i64 %16, 5
  store i64 %17, i64* %PC
  %18 = inttoptr i64 %13 to i16*
  store i16 %14, i16* %18
  ret %struct.Memory* %2
}

define %struct.Memory* @routine_movw__ax__MINUS0x24__rbp_(%struct.State* dereferenceable(3376), i64, %struct.Memory*) {
block_400488:
  %3 = getelementptr inbounds %struct.State, %struct.State* %0, i32 0, i32 6
  %4 = getelementptr inbounds %struct.GPR, %struct.GPR* %3, i32 0, i32 33
  %5 = getelementptr inbounds %struct.Reg, %struct.Reg* %4, i32 0, i32 0
  %PC = bitcast %union.anon* %5 to i64*
  %6 = getelementptr inbounds %struct.State, %struct.State* %0, i32 0, i32 6
  %7 = getelementptr inbounds %struct.GPR, %struct.GPR* %6, i32 0, i32 1
  %8 = getelementptr inbounds %struct.Reg, %struct.Reg* %7, i32 0, i32 0
  %AX = bitcast %union.anon* %8 to i16*
  %9 = getelementptr inbounds %struct.State, %struct.State* %0, i32 0, i32 6
  %10 = getelementptr inbounds %struct.GPR, %struct.GPR* %9, i32 0, i32 15
  %11 = getelementptr inbounds %struct.Reg, %struct.Reg* %10, i32 0, i32 0
  %RBP = bitcast %union.anon* %11 to i64*
  %12 = load i64, i64* %RBP
  %13 = sub i64 %12, 36
  %14 = load i16, i16* %AX
  %15 = zext i16 %14 to i64
  %16 = load i64, i64* %PC
  %17 = add i64 %16, 4
  store i64 %17, i64* %PC
  %18 = inttoptr i64 %13 to i16*
  store i16 %14, i16* %18
  ret %struct.Memory* %2
}

define %struct.Memory* @routine_movq__r14__MINUS0x30__rbp_(%struct.State* dereferenceable(3376), i64, %struct.Memory*) {
block_400488:
  %3 = getelementptr inbounds %struct.State, %struct.State* %0, i32 0, i32 6
  %4 = getelementptr inbounds %struct.GPR, %struct.GPR* %3, i32 0, i32 33
  %5 = getelementptr inbounds %struct.Reg, %struct.Reg* %4, i32 0, i32 0
  %PC = bitcast %union.anon* %5 to i64*
  %6 = getelementptr inbounds %struct.State, %struct.State* %0, i32 0, i32 6
  %7 = getelementptr inbounds %struct.GPR, %struct.GPR* %6, i32 0, i32 15
  %8 = getelementptr inbounds %struct.Reg, %struct.Reg* %7, i32 0, i32 0
  %RBP = bitcast %union.anon* %8 to i64*
  %9 = getelementptr inbounds %struct.State, %struct.State* %0, i32 0, i32 6
  %10 = getelementptr inbounds %struct.GPR, %struct.GPR* %9, i32 0, i32 29
  %11 = getelementptr inbounds %struct.Reg, %struct.Reg* %10, i32 0, i32 0
  %R14 = bitcast %union.anon* %11 to i64*
  %12 = load i64, i64* %RBP
  %13 = sub i64 %12, 48
  %14 = load i64, i64* %R14
  %15 = load i64, i64* %PC
  %16 = add i64 %15, 4
  store i64 %16, i64* %PC
  %17 = inttoptr i64 %13 to i64*
  store i64 %14, i64* %17
  ret %struct.Memory* %2
}

define %struct.Memory* @routine_callq_._Z11start_timerv(%struct.State* dereferenceable(3376), i64, %struct.Memory*, i64 %rel_off1, i64 %rel_off2, i64 %rel_off3) {
block_400488:
  %3 = getelementptr inbounds %struct.State, %struct.State* %0, i32 0, i32 6
  %4 = getelementptr inbounds %struct.GPR, %struct.GPR* %3, i32 0, i32 33
  %5 = getelementptr inbounds %struct.Reg, %struct.Reg* %4, i32 0, i32 0
  %PC = bitcast %union.anon* %5 to i64*
  %6 = load i64, i64* %PC
  %7 = add i64 %6, %rel_off1
  %8 = load i64, i64* %PC
  %9 = add i64 %8, %rel_off2
  %10 = load i64, i64* %PC
  %11 = add i64 %10, %rel_off3
  store i64 %11, i64* %PC
  %12 = getelementptr inbounds %struct.State, %struct.State* %0, i64 0, i32 6, i32 13, i32 0, i32 0
  %13 = load i64, i64* %12, align 8
  %14 = add i64 %13, -8
  %15 = inttoptr i64 %14 to i64*
  store i64 %9, i64* %15
  store i64 %14, i64* %12, align 8
  %16 = getelementptr inbounds %struct.State, %struct.State* %0, i64 0, i32 6, i32 33, i32 0, i32 0
  store i64 %7, i64* %16, align 8
  ret %struct.Memory* %2
}

define %struct.Memory* @routine_movl__0x0__MINUS0x34__rbp_(%struct.State* dereferenceable(3376), i64, %struct.Memory*) {
block_400488:
  %3 = getelementptr inbounds %struct.State, %struct.State* %0, i32 0, i32 6
  %4 = getelementptr inbounds %struct.GPR, %struct.GPR* %3, i32 0, i32 33
  %5 = getelementptr inbounds %struct.Reg, %struct.Reg* %4, i32 0, i32 0
  %PC = bitcast %union.anon* %5 to i64*
  %6 = getelementptr inbounds %struct.State, %struct.State* %0, i32 0, i32 6
  %7 = getelementptr inbounds %struct.GPR, %struct.GPR* %6, i32 0, i32 15
  %8 = getelementptr inbounds %struct.Reg, %struct.Reg* %7, i32 0, i32 0
  %RBP = bitcast %union.anon* %8 to i64*
  %9 = load i64, i64* %RBP
  %10 = sub i64 %9, 52
  %11 = load i64, i64* %PC
  %12 = add i64 %11, 7
  store i64 %12, i64* %PC
  %13 = inttoptr i64 %10 to i32*
  store i32 0, i32* %13
  ret %struct.Memory* %2
}

define %struct.Memory* @routine_movl_MINUS0x34__rbp____eax(%struct.State* dereferenceable(3376), i64, %struct.Memory*) {
block_400488:
  %3 = getelementptr inbounds %struct.State, %struct.State* %0, i32 0, i32 6
  %4 = getelementptr inbounds %struct.GPR, %struct.GPR* %3, i32 0, i32 33
  %5 = getelementptr inbounds %struct.Reg, %struct.Reg* %4, i32 0, i32 0
  %PC = bitcast %union.anon* %5 to i64*
  %6 = getelementptr inbounds %struct.State, %struct.State* %0, i32 0, i32 6
  %7 = getelementptr inbounds %struct.GPR, %struct.GPR* %6, i32 0, i32 1
  %8 = getelementptr inbounds %struct.Reg, %struct.Reg* %7, i32 0, i32 0
  %RAX = bitcast %union.anon* %8 to i64*
  %9 = getelementptr inbounds %struct.State, %struct.State* %0, i32 0, i32 6
  %10 = getelementptr inbounds %struct.GPR, %struct.GPR* %9, i32 0, i32 15
  %11 = getelementptr inbounds %struct.Reg, %struct.Reg* %10, i32 0, i32 0
  %RBP = bitcast %union.anon* %11 to i64*
  %12 = load i64, i64* %RBP
  %13 = sub i64 %12, 52
  %14 = load i64, i64* %PC
  %15 = add i64 %14, 3
  store i64 %15, i64* %PC
  %16 = inttoptr i64 %13 to i32*
  %17 = load i32, i32* %16
  %18 = zext i32 %17 to i64
  store i64 %18, i64* %RAX, align 8
  ret %struct.Memory* %2
}

define %struct.Memory* @routine_cmpl_0x61a080___eax(%struct.State* dereferenceable(3376), i64, %struct.Memory*) {
block_400488:
  %3 = getelementptr inbounds %struct.State, %struct.State* %0, i32 0, i32 6
  %4 = getelementptr inbounds %struct.GPR, %struct.GPR* %3, i32 0, i32 33
  %5 = getelementptr inbounds %struct.Reg, %struct.Reg* %4, i32 0, i32 0
  %PC = bitcast %union.anon* %5 to i64*
  %6 = getelementptr inbounds %struct.State, %struct.State* %0, i32 0, i32 6
  %7 = getelementptr inbounds %struct.GPR, %struct.GPR* %6, i32 0, i32 1
  %8 = getelementptr inbounds %struct.Reg, %struct.Reg* %7, i32 0, i32 0
  %EAX = bitcast %union.anon* %8 to i32*
  %9 = load i32, i32* %EAX
  %10 = zext i32 %9 to i64
  %11 = load i64, i64* %PC
  %12 = add i64 %11, 7
  store i64 %12, i64* %PC
  %13 = load i32, i32* inttoptr (i64 6398080 to i32*)
  %14 = sub i32 %9, %13
  %15 = icmp ult i32 %9, %13
  %16 = zext i1 %15 to i8
  %17 = getelementptr inbounds %struct.State, %struct.State* %0, i64 0, i32 2, i32 1
  store i8 %16, i8* %17, align 1
  %18 = and i32 %14, 255
  %19 = call i32 @llvm.ctpop.i32(i32 %18)
  %20 = trunc i32 %19 to i8
  %21 = and i8 %20, 1
  %22 = xor i8 %21, 1
  %23 = getelementptr inbounds %struct.State, %struct.State* %0, i64 0, i32 2, i32 3
  store i8 %22, i8* %23, align 1
  %24 = xor i32 %13, %9
  %25 = xor i32 %24, %14
  %26 = lshr i32 %25, 4
  %27 = trunc i32 %26 to i8
  %28 = and i8 %27, 1
  %29 = getelementptr inbounds %struct.State, %struct.State* %0, i64 0, i32 2, i32 5
  store i8 %28, i8* %29, align 1
  %30 = icmp eq i32 %14, 0
  %31 = zext i1 %30 to i8
  %32 = getelementptr inbounds %struct.State, %struct.State* %0, i64 0, i32 2, i32 7
  store i8 %31, i8* %32, align 1
  %33 = lshr i32 %14, 31
  %34 = trunc i32 %33 to i8
  %35 = getelementptr inbounds %struct.State, %struct.State* %0, i64 0, i32 2, i32 9
  store i8 %34, i8* %35, align 1
  %36 = lshr i32 %9, 31
  %37 = lshr i32 %13, 31
  %38 = xor i32 %37, %36
  %39 = xor i32 %33, %36
  %40 = add i32 %39, %38
  %41 = icmp eq i32 %40, 2
  %42 = zext i1 %41 to i8
  %43 = getelementptr inbounds %struct.State, %struct.State* %0, i64 0, i32 2, i32 13
  store i8 %42, i8* %43, align 1
  ret %struct.Memory* %2
}

define %struct.Memory* @routine_jge_.L_406a9a(%struct.State* dereferenceable(3376), i64, %struct.Memory*, i8* %BRANCH_TAKEN, i64 %rel_off1, i64 %rel_off2, i64 %rel_off3) {
block_400488:
  %3 = getelementptr inbounds %struct.State, %struct.State* %0, i32 0, i32 6
  %4 = getelementptr inbounds %struct.GPR, %struct.GPR* %3, i32 0, i32 33
  %5 = getelementptr inbounds %struct.Reg, %struct.Reg* %4, i32 0, i32 0
  %PC = bitcast %union.anon* %5 to i64*
  %6 = load i64, i64* %PC
  %7 = add i64 %6, %rel_off1
  %8 = load i64, i64* %PC
  %9 = add i64 %8, %rel_off2
  %10 = load i64, i64* %PC
  %11 = add i64 %10, %rel_off3
  store i64 %11, i64* %PC
  %12 = getelementptr inbounds %struct.State, %struct.State* %0, i64 0, i32 2, i32 9
  %13 = load i8, i8* %12, align 1
  %14 = icmp ne i8 %13, 0
  %15 = getelementptr inbounds %struct.State, %struct.State* %0, i64 0, i32 2, i32 13
  %16 = load i8, i8* %15, align 1
  %17 = icmp ne i8 %16, 0
  %18 = xor i1 %14, %17
  %19 = xor i1 %18, true
  %20 = zext i1 %19 to i8
  store i8 %20, i8* %BRANCH_TAKEN, align 1
  %21 = getelementptr inbounds %struct.State, %struct.State* %0, i64 0, i32 6, i32 33, i32 0, i32 0
  %22 = select i1 %18, i64 %9, i64 %7
  store i64 %22, i64* %21, align 8
  ret %struct.Memory* %2
}

define %struct.Memory* @routine_movw__0x0__MINUS0x36__rbp_(%struct.State* dereferenceable(3376), i64, %struct.Memory*) {
block_400488:
  %3 = getelementptr inbounds %struct.State, %struct.State* %0, i32 0, i32 6
  %4 = getelementptr inbounds %struct.GPR, %struct.GPR* %3, i32 0, i32 33
  %5 = getelementptr inbounds %struct.Reg, %struct.Reg* %4, i32 0, i32 0
  %PC = bitcast %union.anon* %5 to i64*
  %6 = getelementptr inbounds %struct.State, %struct.State* %0, i32 0, i32 6
  %7 = getelementptr inbounds %struct.GPR, %struct.GPR* %6, i32 0, i32 15
  %8 = getelementptr inbounds %struct.Reg, %struct.Reg* %7, i32 0, i32 0
  %RBP = bitcast %union.anon* %8 to i64*
  %9 = load i64, i64* %RBP
  %10 = sub i64 %9, 54
  %11 = load i64, i64* %PC
  %12 = add i64 %11, 6
  store i64 %12, i64* %PC
  %13 = inttoptr i64 %10 to i16*
  store i16 0, i16* %13
  ret %struct.Memory* %2
}

define %struct.Memory* @routine_movl__0x0__MINUS0x3c__rbp_(%struct.State* dereferenceable(3376), i64, %struct.Memory*) {
block_400488:
  %3 = getelementptr inbounds %struct.State, %struct.State* %0, i32 0, i32 6
  %4 = getelementptr inbounds %struct.GPR, %struct.GPR* %3, i32 0, i32 33
  %5 = getelementptr inbounds %struct.Reg, %struct.Reg* %4, i32 0, i32 0
  %PC = bitcast %union.anon* %5 to i64*
  %6 = getelementptr inbounds %struct.State, %struct.State* %0, i32 0, i32 6
  %7 = getelementptr inbounds %struct.GPR, %struct.GPR* %6, i32 0, i32 15
  %8 = getelementptr inbounds %struct.Reg, %struct.Reg* %7, i32 0, i32 0
  %RBP = bitcast %union.anon* %8 to i64*
  %9 = load i64, i64* %RBP
  %10 = sub i64 %9, 60
  %11 = load i64, i64* %PC
  %12 = add i64 %11, 7
  store i64 %12, i64* %PC
  %13 = inttoptr i64 %10 to i32*
  store i32 0, i32* %13
  ret %struct.Memory* %2
}

define %struct.Memory* @routine_movl_MINUS0x3c__rbp____eax(%struct.State* dereferenceable(3376), i64, %struct.Memory*) {
block_400488:
  %3 = getelementptr inbounds %struct.State, %struct.State* %0, i32 0, i32 6
  %4 = getelementptr inbounds %struct.GPR, %struct.GPR* %3, i32 0, i32 33
  %5 = getelementptr inbounds %struct.Reg, %struct.Reg* %4, i32 0, i32 0
  %PC = bitcast %union.anon* %5 to i64*
  %6 = getelementptr inbounds %struct.State, %struct.State* %0, i32 0, i32 6
  %7 = getelementptr inbounds %struct.GPR, %struct.GPR* %6, i32 0, i32 1
  %8 = getelementptr inbounds %struct.Reg, %struct.Reg* %7, i32 0, i32 0
  %RAX = bitcast %union.anon* %8 to i64*
  %9 = getelementptr inbounds %struct.State, %struct.State* %0, i32 0, i32 6
  %10 = getelementptr inbounds %struct.GPR, %struct.GPR* %9, i32 0, i32 15
  %11 = getelementptr inbounds %struct.Reg, %struct.Reg* %10, i32 0, i32 0
  %RBP = bitcast %union.anon* %11 to i64*
  %12 = load i64, i64* %RBP
  %13 = sub i64 %12, 60
  %14 = load i64, i64* %PC
  %15 = add i64 %14, 3
  store i64 %15, i64* %PC
  %16 = inttoptr i64 %13 to i32*
  %17 = load i32, i32* %16
  %18 = zext i32 %17 to i64
  store i64 %18, i64* %RAX, align 8
  ret %struct.Memory* %2
}

define %struct.Memory* @routine_cmpl_MINUS0x1c__rbp____eax(%struct.State* dereferenceable(3376), i64, %struct.Memory*) {
block_400488:
  %3 = getelementptr inbounds %struct.State, %struct.State* %0, i32 0, i32 6
  %4 = getelementptr inbounds %struct.GPR, %struct.GPR* %3, i32 0, i32 33
  %5 = getelementptr inbounds %struct.Reg, %struct.Reg* %4, i32 0, i32 0
  %PC = bitcast %union.anon* %5 to i64*
  %6 = getelementptr inbounds %struct.State, %struct.State* %0, i32 0, i32 6
  %7 = getelementptr inbounds %struct.GPR, %struct.GPR* %6, i32 0, i32 1
  %8 = getelementptr inbounds %struct.Reg, %struct.Reg* %7, i32 0, i32 0
  %EAX = bitcast %union.anon* %8 to i32*
  %9 = getelementptr inbounds %struct.State, %struct.State* %0, i32 0, i32 6
  %10 = getelementptr inbounds %struct.GPR, %struct.GPR* %9, i32 0, i32 15
  %11 = getelementptr inbounds %struct.Reg, %struct.Reg* %10, i32 0, i32 0
  %RBP = bitcast %union.anon* %11 to i64*
  %12 = load i32, i32* %EAX
  %13 = zext i32 %12 to i64
  %14 = load i64, i64* %RBP
  %15 = sub i64 %14, 28
  %16 = load i64, i64* %PC
  %17 = add i64 %16, 3
  store i64 %17, i64* %PC
  %18 = inttoptr i64 %15 to i32*
  %19 = load i32, i32* %18
  %20 = sub i32 %12, %19
  %21 = icmp ult i32 %12, %19
  %22 = zext i1 %21 to i8
  %23 = getelementptr inbounds %struct.State, %struct.State* %0, i64 0, i32 2, i32 1
  store i8 %22, i8* %23, align 1
  %24 = and i32 %20, 255
  %25 = call i32 @llvm.ctpop.i32(i32 %24)
  %26 = trunc i32 %25 to i8
  %27 = and i8 %26, 1
  %28 = xor i8 %27, 1
  %29 = getelementptr inbounds %struct.State, %struct.State* %0, i64 0, i32 2, i32 3
  store i8 %28, i8* %29, align 1
  %30 = xor i32 %19, %12
  %31 = xor i32 %30, %20
  %32 = lshr i32 %31, 4
  %33 = trunc i32 %32 to i8
  %34 = and i8 %33, 1
  %35 = getelementptr inbounds %struct.State, %struct.State* %0, i64 0, i32 2, i32 5
  store i8 %34, i8* %35, align 1
  %36 = icmp eq i32 %20, 0
  %37 = zext i1 %36 to i8
  %38 = getelementptr inbounds %struct.State, %struct.State* %0, i64 0, i32 2, i32 7
  store i8 %37, i8* %38, align 1
  %39 = lshr i32 %20, 31
  %40 = trunc i32 %39 to i8
  %41 = getelementptr inbounds %struct.State, %struct.State* %0, i64 0, i32 2, i32 9
  store i8 %40, i8* %41, align 1
  %42 = lshr i32 %12, 31
  %43 = lshr i32 %19, 31
  %44 = xor i32 %43, %42
  %45 = xor i32 %39, %42
  %46 = add i32 %45, %44
  %47 = icmp eq i32 %46, 2
  %48 = zext i1 %47 to i8
  %49 = getelementptr inbounds %struct.State, %struct.State* %0, i64 0, i32 2, i32 13
  store i8 %48, i8* %49, align 1
  ret %struct.Memory* %2
}

define %struct.Memory* @routine_jge_.L_406a5a(%struct.State* dereferenceable(3376), i64, %struct.Memory*, i8* %BRANCH_TAKEN, i64 %rel_off1, i64 %rel_off2, i64 %rel_off3) {
block_400488:
  %3 = getelementptr inbounds %struct.State, %struct.State* %0, i32 0, i32 6
  %4 = getelementptr inbounds %struct.GPR, %struct.GPR* %3, i32 0, i32 33
  %5 = getelementptr inbounds %struct.Reg, %struct.Reg* %4, i32 0, i32 0
  %PC = bitcast %union.anon* %5 to i64*
  %6 = load i64, i64* %PC
  %7 = add i64 %6, %rel_off1
  %8 = load i64, i64* %PC
  %9 = add i64 %8, %rel_off2
  %10 = load i64, i64* %PC
  %11 = add i64 %10, %rel_off3
  store i64 %11, i64* %PC
  %12 = getelementptr inbounds %struct.State, %struct.State* %0, i64 0, i32 2, i32 9
  %13 = load i8, i8* %12, align 1
  %14 = icmp ne i8 %13, 0
  %15 = getelementptr inbounds %struct.State, %struct.State* %0, i64 0, i32 2, i32 13
  %16 = load i8, i8* %15, align 1
  %17 = icmp ne i8 %16, 0
  %18 = xor i1 %14, %17
  %19 = xor i1 %18, true
  %20 = zext i1 %19 to i8
  store i8 %20, i8* %BRANCH_TAKEN, align 1
  %21 = getelementptr inbounds %struct.State, %struct.State* %0, i64 0, i32 6, i32 33, i32 0, i32 0
  %22 = select i1 %18, i64 %9, i64 %7
  store i64 %22, i64* %21, align 8
  ret %struct.Memory* %2
}

define %struct.Memory* @routine_movq_MINUS0x18__rbp____rax(%struct.State* dereferenceable(3376), i64, %struct.Memory*) {
block_400488:
  %3 = getelementptr inbounds %struct.State, %struct.State* %0, i32 0, i32 6
  %4 = getelementptr inbounds %struct.GPR, %struct.GPR* %3, i32 0, i32 33
  %5 = getelementptr inbounds %struct.Reg, %struct.Reg* %4, i32 0, i32 0
  %PC = bitcast %union.anon* %5 to i64*
  %6 = getelementptr inbounds %struct.State, %struct.State* %0, i32 0, i32 6
  %7 = getelementptr inbounds %struct.GPR, %struct.GPR* %6, i32 0, i32 1
  %8 = getelementptr inbounds %struct.Reg, %struct.Reg* %7, i32 0, i32 0
  %RAX = bitcast %union.anon* %8 to i64*
  %9 = getelementptr inbounds %struct.State, %struct.State* %0, i32 0, i32 6
  %10 = getelementptr inbounds %struct.GPR, %struct.GPR* %9, i32 0, i32 15
  %11 = getelementptr inbounds %struct.Reg, %struct.Reg* %10, i32 0, i32 0
  %RBP = bitcast %union.anon* %11 to i64*
  %12 = load i64, i64* %RBP
  %13 = sub i64 %12, 24
  %14 = load i64, i64* %PC
  %15 = add i64 %14, 4
  store i64 %15, i64* %PC
  %16 = inttoptr i64 %13 to i64*
  %17 = load i64, i64* %16
  store i64 %17, i64* %RAX, align 8
  ret %struct.Memory* %2
}

define %struct.Memory* @routine_movslq_MINUS0x3c__rbp____rcx(%struct.State* dereferenceable(3376), i64, %struct.Memory*) {
block_400488:
  %3 = getelementptr inbounds %struct.State, %struct.State* %0, i32 0, i32 6
  %4 = getelementptr inbounds %struct.GPR, %struct.GPR* %3, i32 0, i32 33
  %5 = getelementptr inbounds %struct.Reg, %struct.Reg* %4, i32 0, i32 0
  %PC = bitcast %union.anon* %5 to i64*
  %6 = getelementptr inbounds %struct.State, %struct.State* %0, i32 0, i32 6
  %7 = getelementptr inbounds %struct.GPR, %struct.GPR* %6, i32 0, i32 5
  %8 = getelementptr inbounds %struct.Reg, %struct.Reg* %7, i32 0, i32 0
  %RCX = bitcast %union.anon* %8 to i64*
  %9 = getelementptr inbounds %struct.State, %struct.State* %0, i32 0, i32 6
  %10 = getelementptr inbounds %struct.GPR, %struct.GPR* %9, i32 0, i32 15
  %11 = getelementptr inbounds %struct.Reg, %struct.Reg* %10, i32 0, i32 0
  %RBP = bitcast %union.anon* %11 to i64*
  %12 = load i64, i64* %RBP
  %13 = sub i64 %12, 60
  %14 = load i64, i64* %PC
  %15 = add i64 %14, 4
  store i64 %15, i64* %PC
  %16 = inttoptr i64 %13 to i32*
  %17 = load i32, i32* %16
  %18 = sext i32 %17 to i64
  store i64 %18, i64* %RCX, align 8
  ret %struct.Memory* %2
}

define %struct.Memory* @routine_movw___rax__rcx_2____dx(%struct.State* dereferenceable(3376), i64, %struct.Memory*) {
block_400488:
  %3 = getelementptr inbounds %struct.State, %struct.State* %0, i32 0, i32 6
  %4 = getelementptr inbounds %struct.GPR, %struct.GPR* %3, i32 0, i32 33
  %5 = getelementptr inbounds %struct.Reg, %struct.Reg* %4, i32 0, i32 0
  %PC = bitcast %union.anon* %5 to i64*
  %6 = getelementptr inbounds %struct.State, %struct.State* %0, i32 0, i32 6
  %7 = getelementptr inbounds %struct.GPR, %struct.GPR* %6, i32 0, i32 7
  %8 = getelementptr inbounds %struct.Reg, %struct.Reg* %7, i32 0, i32 0
  %DX = bitcast %union.anon* %8 to i16*
  %9 = getelementptr inbounds %struct.State, %struct.State* %0, i32 0, i32 6
  %10 = getelementptr inbounds %struct.GPR, %struct.GPR* %9, i32 0, i32 1
  %11 = getelementptr inbounds %struct.Reg, %struct.Reg* %10, i32 0, i32 0
  %RAX = bitcast %union.anon* %11 to i64*
  %12 = getelementptr inbounds %struct.State, %struct.State* %0, i32 0, i32 6
  %13 = getelementptr inbounds %struct.GPR, %struct.GPR* %12, i32 0, i32 5
  %14 = getelementptr inbounds %struct.Reg, %struct.Reg* %13, i32 0, i32 0
  %RCX = bitcast %union.anon* %14 to i64*
  %15 = load i64, i64* %RAX
  %16 = load i64, i64* %RCX
  %17 = mul i64 %16, 2
  %18 = add i64 %17, %15
  %19 = load i64, i64* %PC
  %20 = add i64 %19, 4
  store i64 %20, i64* %PC
  %21 = inttoptr i64 %18 to i16*
  %22 = load i16, i16* %21
  store i16 %22, i16* %DX, align 2
  ret %struct.Memory* %2
}

define %struct.Memory* @routine_movw_MINUS0x1e__rbp____si(%struct.State* dereferenceable(3376), i64, %struct.Memory*) {
block_400488:
  %3 = getelementptr inbounds %struct.State, %struct.State* %0, i32 0, i32 6
  %4 = getelementptr inbounds %struct.GPR, %struct.GPR* %3, i32 0, i32 33
  %5 = getelementptr inbounds %struct.Reg, %struct.Reg* %4, i32 0, i32 0
  %PC = bitcast %union.anon* %5 to i64*
  %6 = getelementptr inbounds %struct.State, %struct.State* %0, i32 0, i32 6
  %7 = getelementptr inbounds %struct.GPR, %struct.GPR* %6, i32 0, i32 9
  %8 = getelementptr inbounds %struct.Reg, %struct.Reg* %7, i32 0, i32 0
  %SI = bitcast %union.anon* %8 to i16*
  %9 = getelementptr inbounds %struct.State, %struct.State* %0, i32 0, i32 6
  %10 = getelementptr inbounds %struct.GPR, %struct.GPR* %9, i32 0, i32 15
  %11 = getelementptr inbounds %struct.Reg, %struct.Reg* %10, i32 0, i32 0
  %RBP = bitcast %union.anon* %11 to i64*
  %12 = load i64, i64* %RBP
  %13 = sub i64 %12, 30
  %14 = load i64, i64* %PC
  %15 = add i64 %14, 4
  store i64 %15, i64* %PC
  %16 = inttoptr i64 %13 to i16*
  %17 = load i16, i16* %16
  store i16 %17, i16* %SI, align 2
  ret %struct.Memory* %2
}

define %struct.Memory* @routine_movw_MINUS0x20__rbp____di(%struct.State* dereferenceable(3376), i64, %struct.Memory*) {
block_400488:
  %3 = getelementptr inbounds %struct.State, %struct.State* %0, i32 0, i32 6
  %4 = getelementptr inbounds %struct.GPR, %struct.GPR* %3, i32 0, i32 33
  %5 = getelementptr inbounds %struct.Reg, %struct.Reg* %4, i32 0, i32 0
  %PC = bitcast %union.anon* %5 to i64*
  %6 = getelementptr inbounds %struct.State, %struct.State* %0, i32 0, i32 6
  %7 = getelementptr inbounds %struct.GPR, %struct.GPR* %6, i32 0, i32 11
  %8 = getelementptr inbounds %struct.Reg, %struct.Reg* %7, i32 0, i32 0
  %DI = bitcast %union.anon* %8 to i16*
  %9 = getelementptr inbounds %struct.State, %struct.State* %0, i32 0, i32 6
  %10 = getelementptr inbounds %struct.GPR, %struct.GPR* %9, i32 0, i32 15
  %11 = getelementptr inbounds %struct.Reg, %struct.Reg* %10, i32 0, i32 0
  %RBP = bitcast %union.anon* %11 to i64*
  %12 = load i64, i64* %RBP
  %13 = sub i64 %12, 32
  %14 = load i64, i64* %PC
  %15 = add i64 %14, 4
  store i64 %15, i64* %PC
  %16 = inttoptr i64 %13 to i16*
  %17 = load i16, i16* %16
  store i16 %17, i16* %DI, align 2
  ret %struct.Memory* %2
}

define %struct.Memory* @routine_movw_MINUS0x22__rbp____r8w(%struct.State* dereferenceable(3376), i64, %struct.Memory*) {
block_400488:
  %3 = getelementptr inbounds %struct.State, %struct.State* %0, i32 0, i32 6
  %4 = getelementptr inbounds %struct.GPR, %struct.GPR* %3, i32 0, i32 33
  %5 = getelementptr inbounds %struct.Reg, %struct.Reg* %4, i32 0, i32 0
  %PC = bitcast %union.anon* %5 to i64*
  %6 = getelementptr inbounds %struct.State, %struct.State* %0, i32 0, i32 6
  %7 = getelementptr inbounds %struct.GPR, %struct.GPR* %6, i32 0, i32 17
  %8 = getelementptr inbounds %struct.Reg, %struct.Reg* %7, i32 0, i32 0
  %R8W = bitcast %union.anon* %8 to i16*
  %9 = getelementptr inbounds %struct.State, %struct.State* %0, i32 0, i32 6
  %10 = getelementptr inbounds %struct.GPR, %struct.GPR* %9, i32 0, i32 15
  %11 = getelementptr inbounds %struct.Reg, %struct.Reg* %10, i32 0, i32 0
  %RBP = bitcast %union.anon* %11 to i64*
  %12 = load i64, i64* %RBP
  %13 = sub i64 %12, 34
  %14 = load i64, i64* %PC
  %15 = add i64 %14, 5
  store i64 %15, i64* %PC
  %16 = inttoptr i64 %13 to i16*
  %17 = load i16, i16* %16
  store i16 %17, i16* %R8W, align 2
  ret %struct.Memory* %2
}

define %struct.Memory* @routine_movzwl__dx___r9d(%struct.State* dereferenceable(3376), i64, %struct.Memory*) {
block_400488:
  %3 = getelementptr inbounds %struct.State, %struct.State* %0, i32 0, i32 6
  %4 = getelementptr inbounds %struct.GPR, %struct.GPR* %3, i32 0, i32 33
  %5 = getelementptr inbounds %struct.Reg, %struct.Reg* %4, i32 0, i32 0
  %PC = bitcast %union.anon* %5 to i64*
  %6 = getelementptr inbounds %struct.State, %struct.State* %0, i32 0, i32 6
  %7 = getelementptr inbounds %struct.GPR, %struct.GPR* %6, i32 0, i32 7
  %8 = getelementptr inbounds %struct.Reg, %struct.Reg* %7, i32 0, i32 0
  %DX = bitcast %union.anon* %8 to i16*
  %9 = getelementptr inbounds %struct.State, %struct.State* %0, i32 0, i32 6
  %10 = getelementptr inbounds %struct.GPR, %struct.GPR* %9, i32 0, i32 19
  %11 = getelementptr inbounds %struct.Reg, %struct.Reg* %10, i32 0, i32 0
  %R9D = bitcast %union.anon* %11 to i32*
  %12 = bitcast i32* %R9D to i64*
  %13 = load i16, i16* %DX
  %14 = zext i16 %13 to i64
  %15 = load i64, i64* %PC
  %16 = add i64 %15, 4
  store i64 %16, i64* %PC
  %17 = and i64 %14, 65535
  store i64 %17, i64* %12, align 8
  ret %struct.Memory* %2
}

define %struct.Memory* @routine_movw__di__MINUS0x3e__rbp_(%struct.State* dereferenceable(3376), i64, %struct.Memory*) {
block_400488:
  %3 = getelementptr inbounds %struct.State, %struct.State* %0, i32 0, i32 6
  %4 = getelementptr inbounds %struct.GPR, %struct.GPR* %3, i32 0, i32 33
  %5 = getelementptr inbounds %struct.Reg, %struct.Reg* %4, i32 0, i32 0
  %PC = bitcast %union.anon* %5 to i64*
  %6 = getelementptr inbounds %struct.State, %struct.State* %0, i32 0, i32 6
  %7 = getelementptr inbounds %struct.GPR, %struct.GPR* %6, i32 0, i32 11
  %8 = getelementptr inbounds %struct.Reg, %struct.Reg* %7, i32 0, i32 0
  %DI = bitcast %union.anon* %8 to i16*
  %9 = getelementptr inbounds %struct.State, %struct.State* %0, i32 0, i32 6
  %10 = getelementptr inbounds %struct.GPR, %struct.GPR* %9, i32 0, i32 15
  %11 = getelementptr inbounds %struct.Reg, %struct.Reg* %10, i32 0, i32 0
  %RBP = bitcast %union.anon* %11 to i64*
  %12 = load i64, i64* %RBP
  %13 = sub i64 %12, 62
  %14 = load i16, i16* %DI
  %15 = zext i16 %14 to i64
  %16 = load i64, i64* %PC
  %17 = add i64 %16, 4
  store i64 %17, i64* %PC
  %18 = inttoptr i64 %13 to i16*
  store i16 %14, i16* %18
  ret %struct.Memory* %2
}

define %struct.Memory* @routine_movl__r9d___edi(%struct.State* dereferenceable(3376), i64, %struct.Memory*) {
block_400488:
  %3 = getelementptr inbounds %struct.State, %struct.State* %0, i32 0, i32 6
  %4 = getelementptr inbounds %struct.GPR, %struct.GPR* %3, i32 0, i32 33
  %5 = getelementptr inbounds %struct.Reg, %struct.Reg* %4, i32 0, i32 0
  %PC = bitcast %union.anon* %5 to i64*
  %6 = getelementptr inbounds %struct.State, %struct.State* %0, i32 0, i32 6
  %7 = getelementptr inbounds %struct.GPR, %struct.GPR* %6, i32 0, i32 19
  %8 = getelementptr inbounds %struct.Reg, %struct.Reg* %7, i32 0, i32 0
  %R9D = bitcast %union.anon* %8 to i32*
  %9 = getelementptr inbounds %struct.State, %struct.State* %0, i32 0, i32 6
  %10 = getelementptr inbounds %struct.GPR, %struct.GPR* %9, i32 0, i32 11
  %11 = getelementptr inbounds %struct.Reg, %struct.Reg* %10, i32 0, i32 0
  %RDI = bitcast %union.anon* %11 to i64*
  %12 = load i32, i32* %R9D
  %13 = zext i32 %12 to i64
  %14 = load i64, i64* %PC
  %15 = add i64 %14, 3
  store i64 %15, i64* %PC
  %16 = and i64 %13, 4294967295
  store i64 %16, i64* %RDI, align 8
  ret %struct.Memory* %2
}

define %struct.Memory* @routine_movzwl__si___esi(%struct.State* dereferenceable(3376), i64, %struct.Memory*) {
block_400488:
  %3 = getelementptr inbounds %struct.State, %struct.State* %0, i32 0, i32 6
  %4 = getelementptr inbounds %struct.GPR, %struct.GPR* %3, i32 0, i32 33
  %5 = getelementptr inbounds %struct.Reg, %struct.Reg* %4, i32 0, i32 0
  %PC = bitcast %union.anon* %5 to i64*
  %6 = getelementptr inbounds %struct.State, %struct.State* %0, i32 0, i32 6
  %7 = getelementptr inbounds %struct.GPR, %struct.GPR* %6, i32 0, i32 9
  %8 = getelementptr inbounds %struct.Reg, %struct.Reg* %7, i32 0, i32 0
  %SI = bitcast %union.anon* %8 to i16*
  %9 = getelementptr inbounds %struct.State, %struct.State* %0, i32 0, i32 6
  %10 = getelementptr inbounds %struct.GPR, %struct.GPR* %9, i32 0, i32 9
  %11 = getelementptr inbounds %struct.Reg, %struct.Reg* %10, i32 0, i32 0
  %RSI = bitcast %union.anon* %11 to i64*
  %12 = load i16, i16* %SI
  %13 = zext i16 %12 to i64
  %14 = load i64, i64* %PC
  %15 = add i64 %14, 3
  store i64 %15, i64* %PC
  %16 = and i64 %13, 65535
  store i64 %16, i64* %RSI, align 8
  ret %struct.Memory* %2
}

define %struct.Memory* @routine_movw_MINUS0x3e__rbp____dx(%struct.State* dereferenceable(3376), i64, %struct.Memory*) {
block_400488:
  %3 = getelementptr inbounds %struct.State, %struct.State* %0, i32 0, i32 6
  %4 = getelementptr inbounds %struct.GPR, %struct.GPR* %3, i32 0, i32 33
  %5 = getelementptr inbounds %struct.Reg, %struct.Reg* %4, i32 0, i32 0
  %PC = bitcast %union.anon* %5 to i64*
  %6 = getelementptr inbounds %struct.State, %struct.State* %0, i32 0, i32 6
  %7 = getelementptr inbounds %struct.GPR, %struct.GPR* %6, i32 0, i32 7
  %8 = getelementptr inbounds %struct.Reg, %struct.Reg* %7, i32 0, i32 0
  %DX = bitcast %union.anon* %8 to i16*
  %9 = getelementptr inbounds %struct.State, %struct.State* %0, i32 0, i32 6
  %10 = getelementptr inbounds %struct.GPR, %struct.GPR* %9, i32 0, i32 15
  %11 = getelementptr inbounds %struct.Reg, %struct.Reg* %10, i32 0, i32 0
  %RBP = bitcast %union.anon* %11 to i64*
  %12 = load i64, i64* %RBP
  %13 = sub i64 %12, 62
  %14 = load i64, i64* %PC
  %15 = add i64 %14, 4
  store i64 %15, i64* %PC
  %16 = inttoptr i64 %13 to i16*
  %17 = load i16, i16* %16
  store i16 %17, i16* %DX, align 2
  ret %struct.Memory* %2
}

define %struct.Memory* @routine_movzwl__dx___edx(%struct.State* dereferenceable(3376), i64, %struct.Memory*) {
block_400488:
  %3 = getelementptr inbounds %struct.State, %struct.State* %0, i32 0, i32 6
  %4 = getelementptr inbounds %struct.GPR, %struct.GPR* %3, i32 0, i32 33
  %5 = getelementptr inbounds %struct.Reg, %struct.Reg* %4, i32 0, i32 0
  %PC = bitcast %union.anon* %5 to i64*
  %6 = getelementptr inbounds %struct.State, %struct.State* %0, i32 0, i32 6
  %7 = getelementptr inbounds %struct.GPR, %struct.GPR* %6, i32 0, i32 7
  %8 = getelementptr inbounds %struct.Reg, %struct.Reg* %7, i32 0, i32 0
  %DX = bitcast %union.anon* %8 to i16*
  %9 = getelementptr inbounds %struct.State, %struct.State* %0, i32 0, i32 6
  %10 = getelementptr inbounds %struct.GPR, %struct.GPR* %9, i32 0, i32 7
  %11 = getelementptr inbounds %struct.Reg, %struct.Reg* %10, i32 0, i32 0
  %RDX = bitcast %union.anon* %11 to i64*
  %12 = load i16, i16* %DX
  %13 = zext i16 %12 to i64
  %14 = load i64, i64* %PC
  %15 = add i64 %14, 3
  store i64 %15, i64* %PC
  %16 = and i64 %13, 65535
  store i64 %16, i64* %RDX, align 8
  ret %struct.Memory* %2
}

define %struct.Memory* @routine_movzwl__r8w___ecx(%struct.State* dereferenceable(3376), i64, %struct.Memory*) {
block_400488:
  %3 = getelementptr inbounds %struct.State, %struct.State* %0, i32 0, i32 6
  %4 = getelementptr inbounds %struct.GPR, %struct.GPR* %3, i32 0, i32 33
  %5 = getelementptr inbounds %struct.Reg, %struct.Reg* %4, i32 0, i32 0
  %PC = bitcast %union.anon* %5 to i64*
  %6 = getelementptr inbounds %struct.State, %struct.State* %0, i32 0, i32 6
  %7 = getelementptr inbounds %struct.GPR, %struct.GPR* %6, i32 0, i32 17
  %8 = getelementptr inbounds %struct.Reg, %struct.Reg* %7, i32 0, i32 0
  %R8W = bitcast %union.anon* %8 to i16*
  %9 = getelementptr inbounds %struct.State, %struct.State* %0, i32 0, i32 6
  %10 = getelementptr inbounds %struct.GPR, %struct.GPR* %9, i32 0, i32 5
  %11 = getelementptr inbounds %struct.Reg, %struct.Reg* %10, i32 0, i32 0
  %RCX = bitcast %union.anon* %11 to i64*
  %12 = load i16, i16* %R8W
  %13 = zext i16 %12 to i64
  %14 = load i64, i64* %PC
  %15 = add i64 %14, 4
  store i64 %15, i64* %PC
  %16 = and i64 %13, 65535
  store i64 %16, i64* %RCX, align 8
  ret %struct.Memory* %2
}

define %struct.Memory* @routine_movzwl_MINUS0x24__rbp____r8d(%struct.State* dereferenceable(3376), i64, %struct.Memory*) {
block_400488:
  %3 = getelementptr inbounds %struct.State, %struct.State* %0, i32 0, i32 6
  %4 = getelementptr inbounds %struct.GPR, %struct.GPR* %3, i32 0, i32 33
  %5 = getelementptr inbounds %struct.Reg, %struct.Reg* %4, i32 0, i32 0
  %PC = bitcast %union.anon* %5 to i64*
  %6 = getelementptr inbounds %struct.State, %struct.State* %0, i32 0, i32 6
  %7 = getelementptr inbounds %struct.GPR, %struct.GPR* %6, i32 0, i32 17
  %8 = getelementptr inbounds %struct.Reg, %struct.Reg* %7, i32 0, i32 0
  %R8D = bitcast %union.anon* %8 to i32*
  %9 = getelementptr inbounds %struct.State, %struct.State* %0, i32 0, i32 6
  %10 = getelementptr inbounds %struct.GPR, %struct.GPR* %9, i32 0, i32 15
  %11 = getelementptr inbounds %struct.Reg, %struct.Reg* %10, i32 0, i32 0
  %RBP = bitcast %union.anon* %11 to i64*
  %12 = bitcast i32* %R8D to i64*
  %13 = load i64, i64* %RBP
  %14 = sub i64 %13, 36
  %15 = load i64, i64* %PC
  %16 = add i64 %15, 5
  store i64 %16, i64* %PC
  %17 = inttoptr i64 %14 to i16*
  %18 = load i16, i16* %17
  %19 = zext i16 %18 to i64
  store i64 %19, i64* %12, align 8
  ret %struct.Memory* %2
}

define %struct.Memory* @routine_callq_._ZN34custom_multiply_multiple_variable2ItE8do_shiftEttttt(%struct.State* dereferenceable(3376), i64, %struct.Memory*, i64 %rel_off1, i64 %rel_off2, i64 %rel_off3) {
block_400488:
  %3 = getelementptr inbounds %struct.State, %struct.State* %0, i32 0, i32 6
  %4 = getelementptr inbounds %struct.GPR, %struct.GPR* %3, i32 0, i32 33
  %5 = getelementptr inbounds %struct.Reg, %struct.Reg* %4, i32 0, i32 0
  %PC = bitcast %union.anon* %5 to i64*
  %6 = load i64, i64* %PC
  %7 = add i64 %6, %rel_off1
  %8 = load i64, i64* %PC
  %9 = add i64 %8, %rel_off2
  %10 = load i64, i64* %PC
  %11 = add i64 %10, %rel_off3
  store i64 %11, i64* %PC
  %12 = getelementptr inbounds %struct.State, %struct.State* %0, i64 0, i32 6, i32 13, i32 0, i32 0
  %13 = load i64, i64* %12, align 8
  %14 = add i64 %13, -8
  %15 = inttoptr i64 %14 to i64*
  store i64 %9, i64* %15
  store i64 %14, i64* %12, align 8
  %16 = getelementptr inbounds %struct.State, %struct.State* %0, i64 0, i32 6, i32 33, i32 0, i32 0
  store i64 %7, i64* %16, align 8
  ret %struct.Memory* %2
}

define %struct.Memory* @routine_movzwl__ax___ecx(%struct.State* dereferenceable(3376), i64, %struct.Memory*) {
block_400488:
  %3 = getelementptr inbounds %struct.State, %struct.State* %0, i32 0, i32 6
  %4 = getelementptr inbounds %struct.GPR, %struct.GPR* %3, i32 0, i32 33
  %5 = getelementptr inbounds %struct.Reg, %struct.Reg* %4, i32 0, i32 0
  %PC = bitcast %union.anon* %5 to i64*
  %6 = getelementptr inbounds %struct.State, %struct.State* %0, i32 0, i32 6
  %7 = getelementptr inbounds %struct.GPR, %struct.GPR* %6, i32 0, i32 1
  %8 = getelementptr inbounds %struct.Reg, %struct.Reg* %7, i32 0, i32 0
  %AX = bitcast %union.anon* %8 to i16*
  %9 = getelementptr inbounds %struct.State, %struct.State* %0, i32 0, i32 6
  %10 = getelementptr inbounds %struct.GPR, %struct.GPR* %9, i32 0, i32 5
  %11 = getelementptr inbounds %struct.Reg, %struct.Reg* %10, i32 0, i32 0
  %RCX = bitcast %union.anon* %11 to i64*
  %12 = load i16, i16* %AX
  %13 = zext i16 %12 to i64
  %14 = load i64, i64* %PC
  %15 = add i64 %14, 3
  store i64 %15, i64* %PC
  %16 = and i64 %13, 65535
  store i64 %16, i64* %RCX, align 8
  ret %struct.Memory* %2
}

define %struct.Memory* @routine_movzwl_MINUS0x36__rbp____edx(%struct.State* dereferenceable(3376), i64, %struct.Memory*) {
block_400488:
  %3 = getelementptr inbounds %struct.State, %struct.State* %0, i32 0, i32 6
  %4 = getelementptr inbounds %struct.GPR, %struct.GPR* %3, i32 0, i32 33
  %5 = getelementptr inbounds %struct.Reg, %struct.Reg* %4, i32 0, i32 0
  %PC = bitcast %union.anon* %5 to i64*
  %6 = getelementptr inbounds %struct.State, %struct.State* %0, i32 0, i32 6
  %7 = getelementptr inbounds %struct.GPR, %struct.GPR* %6, i32 0, i32 7
  %8 = getelementptr inbounds %struct.Reg, %struct.Reg* %7, i32 0, i32 0
  %RDX = bitcast %union.anon* %8 to i64*
  %9 = getelementptr inbounds %struct.State, %struct.State* %0, i32 0, i32 6
  %10 = getelementptr inbounds %struct.GPR, %struct.GPR* %9, i32 0, i32 15
  %11 = getelementptr inbounds %struct.Reg, %struct.Reg* %10, i32 0, i32 0
  %RBP = bitcast %union.anon* %11 to i64*
  %12 = load i64, i64* %RBP
  %13 = sub i64 %12, 54
  %14 = load i64, i64* %PC
  %15 = add i64 %14, 4
  store i64 %15, i64* %PC
  %16 = inttoptr i64 %13 to i16*
  %17 = load i16, i16* %16
  %18 = zext i16 %17 to i64
  store i64 %18, i64* %RDX, align 8
  ret %struct.Memory* %2
}

define %struct.Memory* @routine_addl__ecx___edx(%struct.State* dereferenceable(3376), i64, %struct.Memory*) {
block_400488:
  %3 = getelementptr inbounds %struct.State, %struct.State* %0, i32 0, i32 6
  %4 = getelementptr inbounds %struct.GPR, %struct.GPR* %3, i32 0, i32 33
  %5 = getelementptr inbounds %struct.Reg, %struct.Reg* %4, i32 0, i32 0
  %PC = bitcast %union.anon* %5 to i64*
  %6 = getelementptr inbounds %struct.State, %struct.State* %0, i32 0, i32 6
  %7 = getelementptr inbounds %struct.GPR, %struct.GPR* %6, i32 0, i32 5
  %8 = getelementptr inbounds %struct.Reg, %struct.Reg* %7, i32 0, i32 0
  %ECX = bitcast %union.anon* %8 to i32*
  %9 = getelementptr inbounds %struct.State, %struct.State* %0, i32 0, i32 6
  %10 = getelementptr inbounds %struct.GPR, %struct.GPR* %9, i32 0, i32 7
  %11 = getelementptr inbounds %struct.Reg, %struct.Reg* %10, i32 0, i32 0
  %RDX = bitcast %union.anon* %11 to i64*
  %12 = load i64, i64* %RDX
  %13 = load i32, i32* %ECX
  %14 = zext i32 %13 to i64
  %15 = load i64, i64* %PC
  %16 = add i64 %15, 2
  store i64 %16, i64* %PC
  %17 = trunc i64 %12 to i32
  %18 = add i32 %13, %17
  %19 = zext i32 %18 to i64
  store i64 %19, i64* %RDX, align 8
  %20 = icmp ult i32 %18, %17
  %21 = icmp ult i32 %18, %13
  %22 = or i1 %20, %21
  %23 = zext i1 %22 to i8
  %24 = getelementptr inbounds %struct.State, %struct.State* %0, i64 0, i32 2, i32 1
  store i8 %23, i8* %24, align 1
  %25 = and i32 %18, 255
  %26 = call i32 @llvm.ctpop.i32(i32 %25)
  %27 = trunc i32 %26 to i8
  %28 = and i8 %27, 1
  %29 = xor i8 %28, 1
  %30 = getelementptr inbounds %struct.State, %struct.State* %0, i64 0, i32 2, i32 3
  store i8 %29, i8* %30, align 1
  %31 = xor i64 %14, %12
  %32 = trunc i64 %31 to i32
  %33 = xor i32 %32, %18
  %34 = lshr i32 %33, 4
  %35 = trunc i32 %34 to i8
  %36 = and i8 %35, 1
  %37 = getelementptr inbounds %struct.State, %struct.State* %0, i64 0, i32 2, i32 5
  store i8 %36, i8* %37, align 1
  %38 = icmp eq i32 %18, 0
  %39 = zext i1 %38 to i8
  %40 = getelementptr inbounds %struct.State, %struct.State* %0, i64 0, i32 2, i32 7
  store i8 %39, i8* %40, align 1
  %41 = lshr i32 %18, 31
  %42 = trunc i32 %41 to i8
  %43 = getelementptr inbounds %struct.State, %struct.State* %0, i64 0, i32 2, i32 9
  store i8 %42, i8* %43, align 1
  %44 = lshr i32 %17, 31
  %45 = lshr i32 %13, 31
  %46 = xor i32 %41, %44
  %47 = xor i32 %41, %45
  %48 = add i32 %46, %47
  %49 = icmp eq i32 %48, 2
  %50 = zext i1 %49 to i8
  %51 = getelementptr inbounds %struct.State, %struct.State* %0, i64 0, i32 2, i32 13
  store i8 %50, i8* %51, align 1
  ret %struct.Memory* %2
}

define %struct.Memory* @routine_movw__dx___ax(%struct.State* dereferenceable(3376), i64, %struct.Memory*) {
block_400488:
  %3 = getelementptr inbounds %struct.State, %struct.State* %0, i32 0, i32 6
  %4 = getelementptr inbounds %struct.GPR, %struct.GPR* %3, i32 0, i32 33
  %5 = getelementptr inbounds %struct.Reg, %struct.Reg* %4, i32 0, i32 0
  %PC = bitcast %union.anon* %5 to i64*
  %6 = getelementptr inbounds %struct.State, %struct.State* %0, i32 0, i32 6
  %7 = getelementptr inbounds %struct.GPR, %struct.GPR* %6, i32 0, i32 1
  %8 = getelementptr inbounds %struct.Reg, %struct.Reg* %7, i32 0, i32 0
  %AX = bitcast %union.anon* %8 to i16*
  %9 = getelementptr inbounds %struct.State, %struct.State* %0, i32 0, i32 6
  %10 = getelementptr inbounds %struct.GPR, %struct.GPR* %9, i32 0, i32 7
  %11 = getelementptr inbounds %struct.Reg, %struct.Reg* %10, i32 0, i32 0
  %DX = bitcast %union.anon* %11 to i16*
  %12 = load i16, i16* %DX
  %13 = zext i16 %12 to i64
  %14 = load i64, i64* %PC
  %15 = add i64 %14, 3
  store i64 %15, i64* %PC
  store i16 %12, i16* %AX, align 2
  ret %struct.Memory* %2
}

define %struct.Memory* @routine_movw__ax__MINUS0x36__rbp_(%struct.State* dereferenceable(3376), i64, %struct.Memory*) {
block_400488:
  %3 = getelementptr inbounds %struct.State, %struct.State* %0, i32 0, i32 6
  %4 = getelementptr inbounds %struct.GPR, %struct.GPR* %3, i32 0, i32 33
  %5 = getelementptr inbounds %struct.Reg, %struct.Reg* %4, i32 0, i32 0
  %PC = bitcast %union.anon* %5 to i64*
  %6 = getelementptr inbounds %struct.State, %struct.State* %0, i32 0, i32 6
  %7 = getelementptr inbounds %struct.GPR, %struct.GPR* %6, i32 0, i32 1
  %8 = getelementptr inbounds %struct.Reg, %struct.Reg* %7, i32 0, i32 0
  %AX = bitcast %union.anon* %8 to i16*
  %9 = getelementptr inbounds %struct.State, %struct.State* %0, i32 0, i32 6
  %10 = getelementptr inbounds %struct.GPR, %struct.GPR* %9, i32 0, i32 15
  %11 = getelementptr inbounds %struct.Reg, %struct.Reg* %10, i32 0, i32 0
  %RBP = bitcast %union.anon* %11 to i64*
  %12 = load i64, i64* %RBP
  %13 = sub i64 %12, 54
  %14 = load i16, i16* %AX
  %15 = zext i16 %14 to i64
  %16 = load i64, i64* %PC
  %17 = add i64 %16, 4
  store i64 %17, i64* %PC
  %18 = inttoptr i64 %13 to i16*
  store i16 %14, i16* %18
  ret %struct.Memory* %2
}

define %struct.Memory* @routine_addl__0x1___eax(%struct.State* dereferenceable(3376), i64, %struct.Memory*) {
block_400488:
  %3 = getelementptr inbounds %struct.State, %struct.State* %0, i32 0, i32 6
  %4 = getelementptr inbounds %struct.GPR, %struct.GPR* %3, i32 0, i32 33
  %5 = getelementptr inbounds %struct.Reg, %struct.Reg* %4, i32 0, i32 0
  %PC = bitcast %union.anon* %5 to i64*
  %6 = getelementptr inbounds %struct.State, %struct.State* %0, i32 0, i32 6
  %7 = getelementptr inbounds %struct.GPR, %struct.GPR* %6, i32 0, i32 1
  %8 = getelementptr inbounds %struct.Reg, %struct.Reg* %7, i32 0, i32 0
  %RAX = bitcast %union.anon* %8 to i64*
  %9 = load i64, i64* %RAX
  %10 = load i64, i64* %PC
  %11 = add i64 %10, 3
  store i64 %11, i64* %PC
  %12 = trunc i64 %9 to i32
  %13 = add i32 1, %12
  %14 = zext i32 %13 to i64
  store i64 %14, i64* %RAX, align 8
  %15 = icmp ult i32 %13, %12
  %16 = icmp ult i32 %13, 1
  %17 = or i1 %15, %16
  %18 = zext i1 %17 to i8
  %19 = getelementptr inbounds %struct.State, %struct.State* %0, i64 0, i32 2, i32 1
  store i8 %18, i8* %19, align 1
  %20 = and i32 %13, 255
  %21 = call i32 @llvm.ctpop.i32(i32 %20)
  %22 = trunc i32 %21 to i8
  %23 = and i8 %22, 1
  %24 = xor i8 %23, 1
  %25 = getelementptr inbounds %struct.State, %struct.State* %0, i64 0, i32 2, i32 3
  store i8 %24, i8* %25, align 1
  %26 = xor i64 1, %9
  %27 = trunc i64 %26 to i32
  %28 = xor i32 %27, %13
  %29 = lshr i32 %28, 4
  %30 = trunc i32 %29 to i8
  %31 = and i8 %30, 1
  %32 = getelementptr inbounds %struct.State, %struct.State* %0, i64 0, i32 2, i32 5
  store i8 %31, i8* %32, align 1
  %33 = icmp eq i32 %13, 0
  %34 = zext i1 %33 to i8
  %35 = getelementptr inbounds %struct.State, %struct.State* %0, i64 0, i32 2, i32 7
  store i8 %34, i8* %35, align 1
  %36 = lshr i32 %13, 31
  %37 = trunc i32 %36 to i8
  %38 = getelementptr inbounds %struct.State, %struct.State* %0, i64 0, i32 2, i32 9
  store i8 %37, i8* %38, align 1
  %39 = lshr i32 %12, 31
  %40 = xor i32 %36, %39
  %41 = add i32 %40, %36
  %42 = icmp eq i32 %41, 2
  %43 = zext i1 %42 to i8
  %44 = getelementptr inbounds %struct.State, %struct.State* %0, i64 0, i32 2, i32 13
  store i8 %43, i8* %44, align 1
  ret %struct.Memory* %2
}

define %struct.Memory* @routine_movl__eax__MINUS0x3c__rbp_(%struct.State* dereferenceable(3376), i64, %struct.Memory*) {
block_400488:
  %3 = getelementptr inbounds %struct.State, %struct.State* %0, i32 0, i32 6
  %4 = getelementptr inbounds %struct.GPR, %struct.GPR* %3, i32 0, i32 33
  %5 = getelementptr inbounds %struct.Reg, %struct.Reg* %4, i32 0, i32 0
  %PC = bitcast %union.anon* %5 to i64*
  %6 = getelementptr inbounds %struct.State, %struct.State* %0, i32 0, i32 6
  %7 = getelementptr inbounds %struct.GPR, %struct.GPR* %6, i32 0, i32 1
  %8 = getelementptr inbounds %struct.Reg, %struct.Reg* %7, i32 0, i32 0
  %EAX = bitcast %union.anon* %8 to i32*
  %9 = getelementptr inbounds %struct.State, %struct.State* %0, i32 0, i32 6
  %10 = getelementptr inbounds %struct.GPR, %struct.GPR* %9, i32 0, i32 15
  %11 = getelementptr inbounds %struct.Reg, %struct.Reg* %10, i32 0, i32 0
  %RBP = bitcast %union.anon* %11 to i64*
  %12 = load i64, i64* %RBP
  %13 = sub i64 %12, 60
  %14 = load i32, i32* %EAX
  %15 = zext i32 %14 to i64
  %16 = load i64, i64* %PC
  %17 = add i64 %16, 3
  store i64 %17, i64* %PC
  %18 = inttoptr i64 %13 to i32*
  store i32 %14, i32* %18
  ret %struct.Memory* %2
}

define %struct.Memory* @routine_jmpq_.L_4069f4(%struct.State* dereferenceable(3376), i64, %struct.Memory*, i64 %rel_off1, i64 %rel_off2) {
block_400488:
  %3 = getelementptr inbounds %struct.State, %struct.State* %0, i32 0, i32 6
  %4 = getelementptr inbounds %struct.GPR, %struct.GPR* %3, i32 0, i32 33
  %5 = getelementptr inbounds %struct.Reg, %struct.Reg* %4, i32 0, i32 0
  %PC = bitcast %union.anon* %5 to i64*
  %6 = load i64, i64* %PC
  %7 = add i64 %6, %rel_off1
  %8 = load i64, i64* %PC
  %9 = add i64 %8, %rel_off2
  store i64 %9, i64* %PC
  %10 = getelementptr inbounds %struct.State, %struct.State* %0, i64 0, i32 6, i32 33, i32 0, i32 0
  store i64 %7, i64* %10, align 8
  ret %struct.Memory* %2
}

define %struct.Memory* @routine_movw_MINUS0x36__rbp____ax(%struct.State* dereferenceable(3376), i64, %struct.Memory*) {
block_400488:
  %3 = getelementptr inbounds %struct.State, %struct.State* %0, i32 0, i32 6
  %4 = getelementptr inbounds %struct.GPR, %struct.GPR* %3, i32 0, i32 33
  %5 = getelementptr inbounds %struct.Reg, %struct.Reg* %4, i32 0, i32 0
  %PC = bitcast %union.anon* %5 to i64*
  %6 = getelementptr inbounds %struct.State, %struct.State* %0, i32 0, i32 6
  %7 = getelementptr inbounds %struct.GPR, %struct.GPR* %6, i32 0, i32 1
  %8 = getelementptr inbounds %struct.Reg, %struct.Reg* %7, i32 0, i32 0
  %AX = bitcast %union.anon* %8 to i16*
  %9 = getelementptr inbounds %struct.State, %struct.State* %0, i32 0, i32 6
  %10 = getelementptr inbounds %struct.GPR, %struct.GPR* %9, i32 0, i32 15
  %11 = getelementptr inbounds %struct.Reg, %struct.Reg* %10, i32 0, i32 0
  %RBP = bitcast %union.anon* %11 to i64*
  %12 = load i64, i64* %RBP
  %13 = sub i64 %12, 54
  %14 = load i64, i64* %PC
  %15 = add i64 %14, 4
  store i64 %15, i64* %PC
  %16 = inttoptr i64 %13 to i16*
  %17 = load i16, i16* %16
  store i16 %17, i16* %AX, align 2
  ret %struct.Memory* %2
}

define %struct.Memory* @routine_movw_MINUS0x1e__rbp____cx(%struct.State* dereferenceable(3376), i64, %struct.Memory*) {
block_400488:
  %3 = getelementptr inbounds %struct.State, %struct.State* %0, i32 0, i32 6
  %4 = getelementptr inbounds %struct.GPR, %struct.GPR* %3, i32 0, i32 33
  %5 = getelementptr inbounds %struct.Reg, %struct.Reg* %4, i32 0, i32 0
  %PC = bitcast %union.anon* %5 to i64*
  %6 = getelementptr inbounds %struct.State, %struct.State* %0, i32 0, i32 6
  %7 = getelementptr inbounds %struct.GPR, %struct.GPR* %6, i32 0, i32 5
  %8 = getelementptr inbounds %struct.Reg, %struct.Reg* %7, i32 0, i32 0
  %CX = bitcast %union.anon* %8 to i16*
  %9 = getelementptr inbounds %struct.State, %struct.State* %0, i32 0, i32 6
  %10 = getelementptr inbounds %struct.GPR, %struct.GPR* %9, i32 0, i32 15
  %11 = getelementptr inbounds %struct.Reg, %struct.Reg* %10, i32 0, i32 0
  %RBP = bitcast %union.anon* %11 to i64*
  %12 = load i64, i64* %RBP
  %13 = sub i64 %12, 30
  %14 = load i64, i64* %PC
  %15 = add i64 %14, 4
  store i64 %15, i64* %PC
  %16 = inttoptr i64 %13 to i16*
  %17 = load i16, i16* %16
  store i16 %17, i16* %CX, align 2
  ret %struct.Memory* %2
}

define %struct.Memory* @routine_movw_MINUS0x20__rbp____dx(%struct.State* dereferenceable(3376), i64, %struct.Memory*) {
block_400488:
  %3 = getelementptr inbounds %struct.State, %struct.State* %0, i32 0, i32 6
  %4 = getelementptr inbounds %struct.GPR, %struct.GPR* %3, i32 0, i32 33
  %5 = getelementptr inbounds %struct.Reg, %struct.Reg* %4, i32 0, i32 0
  %PC = bitcast %union.anon* %5 to i64*
  %6 = getelementptr inbounds %struct.State, %struct.State* %0, i32 0, i32 6
  %7 = getelementptr inbounds %struct.GPR, %struct.GPR* %6, i32 0, i32 7
  %8 = getelementptr inbounds %struct.Reg, %struct.Reg* %7, i32 0, i32 0
  %DX = bitcast %union.anon* %8 to i16*
  %9 = getelementptr inbounds %struct.State, %struct.State* %0, i32 0, i32 6
  %10 = getelementptr inbounds %struct.GPR, %struct.GPR* %9, i32 0, i32 15
  %11 = getelementptr inbounds %struct.Reg, %struct.Reg* %10, i32 0, i32 0
  %RBP = bitcast %union.anon* %11 to i64*
  %12 = load i64, i64* %RBP
  %13 = sub i64 %12, 32
  %14 = load i64, i64* %PC
  %15 = add i64 %14, 4
  store i64 %15, i64* %PC
  %16 = inttoptr i64 %13 to i16*
  %17 = load i16, i16* %16
  store i16 %17, i16* %DX, align 2
  ret %struct.Memory* %2
}

define %struct.Memory* @routine_movw_MINUS0x22__rbp____si(%struct.State* dereferenceable(3376), i64, %struct.Memory*) {
block_400488:
  %3 = getelementptr inbounds %struct.State, %struct.State* %0, i32 0, i32 6
  %4 = getelementptr inbounds %struct.GPR, %struct.GPR* %3, i32 0, i32 33
  %5 = getelementptr inbounds %struct.Reg, %struct.Reg* %4, i32 0, i32 0
  %PC = bitcast %union.anon* %5 to i64*
  %6 = getelementptr inbounds %struct.State, %struct.State* %0, i32 0, i32 6
  %7 = getelementptr inbounds %struct.GPR, %struct.GPR* %6, i32 0, i32 9
  %8 = getelementptr inbounds %struct.Reg, %struct.Reg* %7, i32 0, i32 0
  %SI = bitcast %union.anon* %8 to i16*
  %9 = getelementptr inbounds %struct.State, %struct.State* %0, i32 0, i32 6
  %10 = getelementptr inbounds %struct.GPR, %struct.GPR* %9, i32 0, i32 15
  %11 = getelementptr inbounds %struct.Reg, %struct.Reg* %10, i32 0, i32 0
  %RBP = bitcast %union.anon* %11 to i64*
  %12 = load i64, i64* %RBP
  %13 = sub i64 %12, 34
  %14 = load i64, i64* %PC
  %15 = add i64 %14, 4
  store i64 %15, i64* %PC
  %16 = inttoptr i64 %13 to i16*
  %17 = load i16, i16* %16
  store i16 %17, i16* %SI, align 2
  ret %struct.Memory* %2
}

define %struct.Memory* @routine_movzwl__ax___edi(%struct.State* dereferenceable(3376), i64, %struct.Memory*) {
block_400488:
  %3 = getelementptr inbounds %struct.State, %struct.State* %0, i32 0, i32 6
  %4 = getelementptr inbounds %struct.GPR, %struct.GPR* %3, i32 0, i32 33
  %5 = getelementptr inbounds %struct.Reg, %struct.Reg* %4, i32 0, i32 0
  %PC = bitcast %union.anon* %5 to i64*
  %6 = getelementptr inbounds %struct.State, %struct.State* %0, i32 0, i32 6
  %7 = getelementptr inbounds %struct.GPR, %struct.GPR* %6, i32 0, i32 1
  %8 = getelementptr inbounds %struct.Reg, %struct.Reg* %7, i32 0, i32 0
  %AX = bitcast %union.anon* %8 to i16*
  %9 = getelementptr inbounds %struct.State, %struct.State* %0, i32 0, i32 6
  %10 = getelementptr inbounds %struct.GPR, %struct.GPR* %9, i32 0, i32 11
  %11 = getelementptr inbounds %struct.Reg, %struct.Reg* %10, i32 0, i32 0
  %RDI = bitcast %union.anon* %11 to i64*
  %12 = load i16, i16* %AX
  %13 = zext i16 %12 to i64
  %14 = load i64, i64* %PC
  %15 = add i64 %14, 3
  store i64 %15, i64* %PC
  %16 = and i64 %13, 65535
  store i64 %16, i64* %RDI, align 8
  ret %struct.Memory* %2
}

define %struct.Memory* @routine_movzwl__cx___r8d(%struct.State* dereferenceable(3376), i64, %struct.Memory*) {
block_400488:
  %3 = getelementptr inbounds %struct.State, %struct.State* %0, i32 0, i32 6
  %4 = getelementptr inbounds %struct.GPR, %struct.GPR* %3, i32 0, i32 33
  %5 = getelementptr inbounds %struct.Reg, %struct.Reg* %4, i32 0, i32 0
  %PC = bitcast %union.anon* %5 to i64*
  %6 = getelementptr inbounds %struct.State, %struct.State* %0, i32 0, i32 6
  %7 = getelementptr inbounds %struct.GPR, %struct.GPR* %6, i32 0, i32 5
  %8 = getelementptr inbounds %struct.Reg, %struct.Reg* %7, i32 0, i32 0
  %CX = bitcast %union.anon* %8 to i16*
  %9 = getelementptr inbounds %struct.State, %struct.State* %0, i32 0, i32 6
  %10 = getelementptr inbounds %struct.GPR, %struct.GPR* %9, i32 0, i32 17
  %11 = getelementptr inbounds %struct.Reg, %struct.Reg* %10, i32 0, i32 0
  %R8D = bitcast %union.anon* %11 to i32*
  %12 = bitcast i32* %R8D to i64*
  %13 = load i16, i16* %CX
  %14 = zext i16 %13 to i64
  %15 = load i64, i64* %PC
  %16 = add i64 %15, 4
  store i64 %16, i64* %PC
  %17 = and i64 %14, 65535
  store i64 %17, i64* %12, align 8
  ret %struct.Memory* %2
}

define %struct.Memory* @routine_movw__si__MINUS0x40__rbp_(%struct.State* dereferenceable(3376), i64, %struct.Memory*) {
block_400488:
  %3 = getelementptr inbounds %struct.State, %struct.State* %0, i32 0, i32 6
  %4 = getelementptr inbounds %struct.GPR, %struct.GPR* %3, i32 0, i32 33
  %5 = getelementptr inbounds %struct.Reg, %struct.Reg* %4, i32 0, i32 0
  %PC = bitcast %union.anon* %5 to i64*
  %6 = getelementptr inbounds %struct.State, %struct.State* %0, i32 0, i32 6
  %7 = getelementptr inbounds %struct.GPR, %struct.GPR* %6, i32 0, i32 9
  %8 = getelementptr inbounds %struct.Reg, %struct.Reg* %7, i32 0, i32 0
  %SI = bitcast %union.anon* %8 to i16*
  %9 = getelementptr inbounds %struct.State, %struct.State* %0, i32 0, i32 6
  %10 = getelementptr inbounds %struct.GPR, %struct.GPR* %9, i32 0, i32 15
  %11 = getelementptr inbounds %struct.Reg, %struct.Reg* %10, i32 0, i32 0
  %RBP = bitcast %union.anon* %11 to i64*
  %12 = load i64, i64* %RBP
  %13 = sub i64 %12, 64
  %14 = load i16, i16* %SI
  %15 = zext i16 %14 to i64
  %16 = load i64, i64* %PC
  %17 = add i64 %16, 4
  store i64 %17, i64* %PC
  %18 = inttoptr i64 %13 to i16*
  store i16 %14, i16* %18
  ret %struct.Memory* %2
}

define %struct.Memory* @routine_movl__r8d___esi(%struct.State* dereferenceable(3376), i64, %struct.Memory*) {
block_400488:
  %3 = getelementptr inbounds %struct.State, %struct.State* %0, i32 0, i32 6
  %4 = getelementptr inbounds %struct.GPR, %struct.GPR* %3, i32 0, i32 33
  %5 = getelementptr inbounds %struct.Reg, %struct.Reg* %4, i32 0, i32 0
  %PC = bitcast %union.anon* %5 to i64*
  %6 = getelementptr inbounds %struct.State, %struct.State* %0, i32 0, i32 6
  %7 = getelementptr inbounds %struct.GPR, %struct.GPR* %6, i32 0, i32 17
  %8 = getelementptr inbounds %struct.Reg, %struct.Reg* %7, i32 0, i32 0
  %R8D = bitcast %union.anon* %8 to i32*
  %9 = getelementptr inbounds %struct.State, %struct.State* %0, i32 0, i32 6
  %10 = getelementptr inbounds %struct.GPR, %struct.GPR* %9, i32 0, i32 9
  %11 = getelementptr inbounds %struct.Reg, %struct.Reg* %10, i32 0, i32 0
  %RSI = bitcast %union.anon* %11 to i64*
  %12 = load i32, i32* %R8D
  %13 = zext i32 %12 to i64
  %14 = load i64, i64* %PC
  %15 = add i64 %14, 3
  store i64 %15, i64* %PC
  %16 = and i64 %13, 4294967295
  store i64 %16, i64* %RSI, align 8
  ret %struct.Memory* %2
}

define %struct.Memory* @routine_movw_MINUS0x40__rbp____ax(%struct.State* dereferenceable(3376), i64, %struct.Memory*) {
block_400488:
  %3 = getelementptr inbounds %struct.State, %struct.State* %0, i32 0, i32 6
  %4 = getelementptr inbounds %struct.GPR, %struct.GPR* %3, i32 0, i32 33
  %5 = getelementptr inbounds %struct.Reg, %struct.Reg* %4, i32 0, i32 0
  %PC = bitcast %union.anon* %5 to i64*
  %6 = getelementptr inbounds %struct.State, %struct.State* %0, i32 0, i32 6
  %7 = getelementptr inbounds %struct.GPR, %struct.GPR* %6, i32 0, i32 1
  %8 = getelementptr inbounds %struct.Reg, %struct.Reg* %7, i32 0, i32 0
  %AX = bitcast %union.anon* %8 to i16*
  %9 = getelementptr inbounds %struct.State, %struct.State* %0, i32 0, i32 6
  %10 = getelementptr inbounds %struct.GPR, %struct.GPR* %9, i32 0, i32 15
  %11 = getelementptr inbounds %struct.Reg, %struct.Reg* %10, i32 0, i32 0
  %RBP = bitcast %union.anon* %11 to i64*
  %12 = load i64, i64* %RBP
  %13 = sub i64 %12, 64
  %14 = load i64, i64* %PC
  %15 = add i64 %14, 4
  store i64 %15, i64* %PC
  %16 = inttoptr i64 %13 to i16*
  %17 = load i16, i16* %16
  store i16 %17, i16* %AX, align 2
  ret %struct.Memory* %2
}

define %struct.Memory* @routine_callq_._Z26check_shifted_variable_sumIt34custom_multiply_multiple_variable2ItEEvT_S2_S2_S2_S2_(%struct.State* dereferenceable(3376), i64, %struct.Memory*, i64 %rel_off1, i64 %rel_off2, i64 %rel_off3) {
block_400488:
  %3 = getelementptr inbounds %struct.State, %struct.State* %0, i32 0, i32 6
  %4 = getelementptr inbounds %struct.GPR, %struct.GPR* %3, i32 0, i32 33
  %5 = getelementptr inbounds %struct.Reg, %struct.Reg* %4, i32 0, i32 0
  %PC = bitcast %union.anon* %5 to i64*
  %6 = load i64, i64* %PC
  %7 = add i64 %6, %rel_off1
  %8 = load i64, i64* %PC
  %9 = add i64 %8, %rel_off2
  %10 = load i64, i64* %PC
  %11 = add i64 %10, %rel_off3
  store i64 %11, i64* %PC
  %12 = getelementptr inbounds %struct.State, %struct.State* %0, i64 0, i32 6, i32 13, i32 0, i32 0
  %13 = load i64, i64* %12, align 8
  %14 = add i64 %13, -8
  %15 = inttoptr i64 %14 to i64*
  store i64 %9, i64* %15
  store i64 %14, i64* %12, align 8
  %16 = getelementptr inbounds %struct.State, %struct.State* %0, i64 0, i32 6, i32 33, i32 0, i32 0
  store i64 %7, i64* %16, align 8
  ret %struct.Memory* %2
}

define %struct.Memory* @routine_movl__eax__MINUS0x34__rbp_(%struct.State* dereferenceable(3376), i64, %struct.Memory*) {
block_400488:
  %3 = getelementptr inbounds %struct.State, %struct.State* %0, i32 0, i32 6
  %4 = getelementptr inbounds %struct.GPR, %struct.GPR* %3, i32 0, i32 33
  %5 = getelementptr inbounds %struct.Reg, %struct.Reg* %4, i32 0, i32 0
  %PC = bitcast %union.anon* %5 to i64*
  %6 = getelementptr inbounds %struct.State, %struct.State* %0, i32 0, i32 6
  %7 = getelementptr inbounds %struct.GPR, %struct.GPR* %6, i32 0, i32 1
  %8 = getelementptr inbounds %struct.Reg, %struct.Reg* %7, i32 0, i32 0
  %EAX = bitcast %union.anon* %8 to i32*
  %9 = getelementptr inbounds %struct.State, %struct.State* %0, i32 0, i32 6
  %10 = getelementptr inbounds %struct.GPR, %struct.GPR* %9, i32 0, i32 15
  %11 = getelementptr inbounds %struct.Reg, %struct.Reg* %10, i32 0, i32 0
  %RBP = bitcast %union.anon* %11 to i64*
  %12 = load i64, i64* %RBP
  %13 = sub i64 %12, 52
  %14 = load i32, i32* %EAX
  %15 = zext i32 %14 to i64
  %16 = load i64, i64* %PC
  %17 = add i64 %16, 3
  store i64 %17, i64* %PC
  %18 = inttoptr i64 %13 to i32*
  store i32 %14, i32* %18
  ret %struct.Memory* %2
}

define %struct.Memory* @routine_jmpq_.L_4069d7(%struct.State* dereferenceable(3376), i64, %struct.Memory*, i64 %rel_off1, i64 %rel_off2) {
block_400488:
  %3 = getelementptr inbounds %struct.State, %struct.State* %0, i32 0, i32 6
  %4 = getelementptr inbounds %struct.GPR, %struct.GPR* %3, i32 0, i32 33
  %5 = getelementptr inbounds %struct.Reg, %struct.Reg* %4, i32 0, i32 0
  %PC = bitcast %union.anon* %5 to i64*
  %6 = load i64, i64* %PC
  %7 = add i64 %6, %rel_off1
  %8 = load i64, i64* %PC
  %9 = add i64 %8, %rel_off2
  store i64 %9, i64* %PC
  %10 = getelementptr inbounds %struct.State, %struct.State* %0, i64 0, i32 6, i32 33, i32 0, i32 0
  store i64 %7, i64* %10, align 8
  ret %struct.Memory* %2
}

define %struct.Memory* @routine_callq_._Z5timerv(%struct.State* dereferenceable(3376), i64, %struct.Memory*, i64 %rel_off1, i64 %rel_off2, i64 %rel_off3) {
block_400488:
  %3 = getelementptr inbounds %struct.State, %struct.State* %0, i32 0, i32 6
  %4 = getelementptr inbounds %struct.GPR, %struct.GPR* %3, i32 0, i32 33
  %5 = getelementptr inbounds %struct.Reg, %struct.Reg* %4, i32 0, i32 0
  %PC = bitcast %union.anon* %5 to i64*
  %6 = load i64, i64* %PC
  %7 = add i64 %6, %rel_off1
  %8 = load i64, i64* %PC
  %9 = add i64 %8, %rel_off2
  %10 = load i64, i64* %PC
  %11 = add i64 %10, %rel_off3
  store i64 %11, i64* %PC
  %12 = getelementptr inbounds %struct.State, %struct.State* %0, i64 0, i32 6, i32 13, i32 0, i32 0
  %13 = load i64, i64* %12, align 8
  %14 = add i64 %13, -8
  %15 = inttoptr i64 %14 to i64*
  store i64 %9, i64* %15
  store i64 %14, i64* %12, align 8
  %16 = getelementptr inbounds %struct.State, %struct.State* %0, i64 0, i32 6, i32 33, i32 0, i32 0
  store i64 %7, i64* %16, align 8
  ret %struct.Memory* %2
}

define %struct.Memory* @routine_movq_MINUS0x30__rbp____rdi(%struct.State* dereferenceable(3376), i64, %struct.Memory*) {
block_400488:
  %3 = getelementptr inbounds %struct.State, %struct.State* %0, i32 0, i32 6
  %4 = getelementptr inbounds %struct.GPR, %struct.GPR* %3, i32 0, i32 33
  %5 = getelementptr inbounds %struct.Reg, %struct.Reg* %4, i32 0, i32 0
  %PC = bitcast %union.anon* %5 to i64*
  %6 = getelementptr inbounds %struct.State, %struct.State* %0, i32 0, i32 6
  %7 = getelementptr inbounds %struct.GPR, %struct.GPR* %6, i32 0, i32 11
  %8 = getelementptr inbounds %struct.Reg, %struct.Reg* %7, i32 0, i32 0
  %RDI = bitcast %union.anon* %8 to i64*
  %9 = getelementptr inbounds %struct.State, %struct.State* %0, i32 0, i32 6
  %10 = getelementptr inbounds %struct.GPR, %struct.GPR* %9, i32 0, i32 15
  %11 = getelementptr inbounds %struct.Reg, %struct.Reg* %10, i32 0, i32 0
  %RBP = bitcast %union.anon* %11 to i64*
  %12 = load i64, i64* %RBP
  %13 = sub i64 %12, 48
  %14 = load i64, i64* %PC
  %15 = add i64 %14, 4
  store i64 %15, i64* %PC
  %16 = inttoptr i64 %13 to i64*
  %17 = load i64, i64* %16
  store i64 %17, i64* %RDI, align 8
  ret %struct.Memory* %2
}

define %struct.Memory* @routine_callq_._Z13record_resultdPKc(%struct.State* dereferenceable(3376), i64, %struct.Memory*, i64 %rel_off1, i64 %rel_off2, i64 %rel_off3) {
block_400488:
  %3 = getelementptr inbounds %struct.State, %struct.State* %0, i32 0, i32 6
  %4 = getelementptr inbounds %struct.GPR, %struct.GPR* %3, i32 0, i32 33
  %5 = getelementptr inbounds %struct.Reg, %struct.Reg* %4, i32 0, i32 0
  %PC = bitcast %union.anon* %5 to i64*
  %6 = load i64, i64* %PC
  %7 = add i64 %6, %rel_off1
  %8 = load i64, i64* %PC
  %9 = add i64 %8, %rel_off2
  %10 = load i64, i64* %PC
  %11 = add i64 %10, %rel_off3
  store i64 %11, i64* %PC
  %12 = getelementptr inbounds %struct.State, %struct.State* %0, i64 0, i32 6, i32 13, i32 0, i32 0
  %13 = load i64, i64* %12, align 8
  %14 = add i64 %13, -8
  %15 = inttoptr i64 %14 to i64*
  store i64 %9, i64* %15
  store i64 %14, i64* %12, align 8
  %16 = getelementptr inbounds %struct.State, %struct.State* %0, i64 0, i32 6, i32 33, i32 0, i32 0
  store i64 %7, i64* %16, align 8
  ret %struct.Memory* %2
}

define %struct.Memory* @routine_addq__0x30___rsp(%struct.State* dereferenceable(3376), i64, %struct.Memory*) {
block_400488:
  %3 = getelementptr inbounds %struct.State, %struct.State* %0, i32 0, i32 6
  %4 = getelementptr inbounds %struct.GPR, %struct.GPR* %3, i32 0, i32 33
  %5 = getelementptr inbounds %struct.Reg, %struct.Reg* %4, i32 0, i32 0
  %PC = bitcast %union.anon* %5 to i64*
  %6 = getelementptr inbounds %struct.State, %struct.State* %0, i32 0, i32 6
  %7 = getelementptr inbounds %struct.GPR, %struct.GPR* %6, i32 0, i32 13
  %8 = getelementptr inbounds %struct.Reg, %struct.Reg* %7, i32 0, i32 0
  %RSP = bitcast %union.anon* %8 to i64*
  %9 = load i64, i64* %RSP
  %10 = load i64, i64* %PC
  %11 = add i64 %10, 4
  store i64 %11, i64* %PC
  %12 = add i64 48, %9
  store i64 %12, i64* %RSP, align 8
  %13 = icmp ult i64 %12, %9
  %14 = icmp ult i64 %12, 48
  %15 = or i1 %13, %14
  %16 = zext i1 %15 to i8
  %17 = getelementptr inbounds %struct.State, %struct.State* %0, i64 0, i32 2, i32 1
  store i8 %16, i8* %17, align 1
  %18 = trunc i64 %12 to i32
  %19 = and i32 %18, 255
  %20 = call i32 @llvm.ctpop.i32(i32 %19)
  %21 = trunc i32 %20 to i8
  %22 = and i8 %21, 1
  %23 = xor i8 %22, 1
  %24 = getelementptr inbounds %struct.State, %struct.State* %0, i64 0, i32 2, i32 3
  store i8 %23, i8* %24, align 1
  %25 = xor i64 48, %9
  %26 = xor i64 %25, %12
  %27 = lshr i64 %26, 4
  %28 = trunc i64 %27 to i8
  %29 = and i8 %28, 1
  %30 = getelementptr inbounds %struct.State, %struct.State* %0, i64 0, i32 2, i32 5
  store i8 %29, i8* %30, align 1
  %31 = icmp eq i64 %12, 0
  %32 = zext i1 %31 to i8
  %33 = getelementptr inbounds %struct.State, %struct.State* %0, i64 0, i32 2, i32 7
  store i8 %32, i8* %33, align 1
  %34 = lshr i64 %12, 63
  %35 = trunc i64 %34 to i8
  %36 = getelementptr inbounds %struct.State, %struct.State* %0, i64 0, i32 2, i32 9
  store i8 %35, i8* %36, align 1
  %37 = lshr i64 %9, 63
  %38 = xor i64 %34, %37
  %39 = add i64 %38, %34
  %40 = icmp eq i64 %39, 2
  %41 = zext i1 %40 to i8
  %42 = getelementptr inbounds %struct.State, %struct.State* %0, i64 0, i32 2, i32 13
  store i8 %41, i8* %42, align 1
  ret %struct.Memory* %2
}

define %struct.Memory* @routine_popq__rbx(%struct.State* dereferenceable(3376), i64, %struct.Memory*) {
block_400488:
  %3 = getelementptr inbounds %struct.State, %struct.State* %0, i32 0, i32 6
  %4 = getelementptr inbounds %struct.GPR, %struct.GPR* %3, i32 0, i32 33
  %5 = getelementptr inbounds %struct.Reg, %struct.Reg* %4, i32 0, i32 0
  %PC = bitcast %union.anon* %5 to i64*
  %6 = getelementptr inbounds %struct.State, %struct.State* %0, i32 0, i32 6
  %7 = getelementptr inbounds %struct.GPR, %struct.GPR* %6, i32 0, i32 3
  %8 = getelementptr inbounds %struct.Reg, %struct.Reg* %7, i32 0, i32 0
  %RBX = bitcast %union.anon* %8 to i64*
  %9 = load i64, i64* %PC
  %10 = add i64 %9, 1
  store i64 %10, i64* %PC
  %11 = getelementptr inbounds %struct.State, %struct.State* %0, i64 0, i32 6, i32 13, i32 0, i32 0
  %12 = load i64, i64* %11, align 8
  %13 = add i64 %12, 8
  %14 = inttoptr i64 %12 to i64*
  %15 = load i64, i64* %14
  store i64 %15, i64* %RBX, align 8
  store i64 %13, i64* %11, align 8
  ret %struct.Memory* %2
}

define %struct.Memory* @routine_popq__r14(%struct.State* dereferenceable(3376), i64, %struct.Memory*) {
block_400488:
  %3 = getelementptr inbounds %struct.State, %struct.State* %0, i32 0, i32 6
  %4 = getelementptr inbounds %struct.GPR, %struct.GPR* %3, i32 0, i32 33
  %5 = getelementptr inbounds %struct.Reg, %struct.Reg* %4, i32 0, i32 0
  %PC = bitcast %union.anon* %5 to i64*
  %6 = getelementptr inbounds %struct.State, %struct.State* %0, i32 0, i32 6
  %7 = getelementptr inbounds %struct.GPR, %struct.GPR* %6, i32 0, i32 29
  %8 = getelementptr inbounds %struct.Reg, %struct.Reg* %7, i32 0, i32 0
  %R14 = bitcast %union.anon* %8 to i64*
  %9 = load i64, i64* %PC
  %10 = add i64 %9, 2
  store i64 %10, i64* %PC
  %11 = getelementptr inbounds %struct.State, %struct.State* %0, i64 0, i32 6, i32 13, i32 0, i32 0
  %12 = load i64, i64* %11, align 8
  %13 = add i64 %12, 8
  %14 = inttoptr i64 %12 to i64*
  %15 = load i64, i64* %14
  store i64 %15, i64* %R14, align 8
  store i64 %13, i64* %11, align 8
  ret %struct.Memory* %2
}

define %struct.Memory* @routine_popq__rbp(%struct.State* dereferenceable(3376), i64, %struct.Memory*) {
block_400488:
  %3 = getelementptr inbounds %struct.State, %struct.State* %0, i32 0, i32 6
  %4 = getelementptr inbounds %struct.GPR, %struct.GPR* %3, i32 0, i32 33
  %5 = getelementptr inbounds %struct.Reg, %struct.Reg* %4, i32 0, i32 0
  %PC = bitcast %union.anon* %5 to i64*
  %6 = getelementptr inbounds %struct.State, %struct.State* %0, i32 0, i32 6
  %7 = getelementptr inbounds %struct.GPR, %struct.GPR* %6, i32 0, i32 15
  %8 = getelementptr inbounds %struct.Reg, %struct.Reg* %7, i32 0, i32 0
  %RBP = bitcast %union.anon* %8 to i64*
  %9 = load i64, i64* %PC
  %10 = add i64 %9, 1
  store i64 %10, i64* %PC
  %11 = getelementptr inbounds %struct.State, %struct.State* %0, i64 0, i32 6, i32 13, i32 0, i32 0
  %12 = load i64, i64* %11, align 8
  %13 = add i64 %12, 8
  %14 = inttoptr i64 %12 to i64*
  %15 = load i64, i64* %14
  store i64 %15, i64* %RBP, align 8
  store i64 %13, i64* %11, align 8
  ret %struct.Memory* %2
}

define %struct.Memory* @routine_retq(%struct.State* dereferenceable(3376), i64, %struct.Memory*) {
block_400488:
  %3 = getelementptr inbounds %struct.State, %struct.State* %0, i32 0, i32 6
  %4 = getelementptr inbounds %struct.GPR, %struct.GPR* %3, i32 0, i32 33
  %5 = getelementptr inbounds %struct.Reg, %struct.Reg* %4, i32 0, i32 0
  %PC = bitcast %union.anon* %5 to i64*
  %6 = load i64, i64* %PC
  %7 = add i64 %6, 1
  store i64 %7, i64* %PC
  %8 = getelementptr inbounds %struct.State, %struct.State* %0, i64 0, i32 6, i32 33, i32 0, i32 0
  %9 = getelementptr inbounds %struct.State, %struct.State* %0, i64 0, i32 6, i32 13, i32 0, i32 0
  %10 = load i64, i64* %9, align 8
  %11 = inttoptr i64 %10 to i64*
  %12 = load i64, i64* %11
  store i64 %12, i64* %8, align 8
  %13 = add i64 %10, 8
  store i64 %13, i64* %9, align 8
  ret %struct.Memory* %2
}

attributes #0 = { nounwind readnone }
attributes #1 = { alwaysinline }
