; ModuleID = 'mcsema/test.proposed.inline.ll'
source_filename = "llvm-link"
target datalayout = "e-m:e-i64:64-f80:128-n8:16:32:64-S128"
target triple = "x86_64-pc-linux-gnu-elf"

%__bss_start_type = type <{ [8 x i8] }>
%struct.State = type { %struct.ArchState, [32 x %union.VectorReg], %struct.ArithFlags, %union.anon, %struct.Segments, %struct.AddressSpace, %struct.GPR, %struct.X87Stack, %struct.MMX, %struct.FPUStatusFlags, %union.anon, %union.FPU, %struct.SegmentCaches }
%struct.ArchState = type { i32, i32, %union.anon }
%union.VectorReg = type { %union.vec512_t }
%union.vec512_t = type { %struct.uint64v8_t }
%struct.uint64v8_t = type { [8 x i64] }
%struct.ArithFlags = type { i8, i8, i8, i8, i8, i8, i8, i8, i8, i8, i8, i8, i8, i8, i8, i8 }
%struct.Segments = type { i16, %union.SegmentSelector, i16, %union.SegmentSelector, i16, %union.SegmentSelector, i16, %union.SegmentSelector, i16, %union.SegmentSelector, i16, %union.SegmentSelector }
%union.SegmentSelector = type { i16 }
%struct.AddressSpace = type { i64, %struct.Reg, i64, %struct.Reg, i64, %struct.Reg, i64, %struct.Reg, i64, %struct.Reg, i64, %struct.Reg }
%struct.Reg = type { %union.anon }
%struct.GPR = type { i64, %struct.Reg, i64, %struct.Reg, i64, %struct.Reg, i64, %struct.Reg, i64, %struct.Reg, i64, %struct.Reg, i64, %struct.Reg, i64, %struct.Reg, i64, %struct.Reg, i64, %struct.Reg, i64, %struct.Reg, i64, %struct.Reg, i64, %struct.Reg, i64, %struct.Reg, i64, %struct.Reg, i64, %struct.Reg, i64, %struct.Reg }
%struct.X87Stack = type { [8 x %struct.anon.3] }
%struct.anon.3 = type { i64, double }
%struct.MMX = type { [8 x %struct.anon.4] }
%struct.anon.4 = type { i64, %union.vec64_t }
%union.vec64_t = type { %struct.uint64v1_t }
%struct.uint64v1_t = type { [1 x i64] }
%struct.FPUStatusFlags = type { i8, i8, i8, i8, i8, i8, i8, i8, i8, i8, i8, i8, i8, i8, i8, i8, i8, i8, i8, i8, [4 x i8] }
%union.anon = type { i64 }
%union.FPU = type { %struct.anon.13 }
%struct.anon.13 = type { %struct.FpuFXSAVE, [96 x i8] }
%struct.FpuFXSAVE = type { %union.SegmentSelector, %union.SegmentSelector, %union.FPUAbridgedTagWord, i8, i16, i32, %union.SegmentSelector, i16, i32, %union.SegmentSelector, i16, %union.FPUControlStatus, %union.FPUControlStatus, [8 x %struct.FPUStackElem], [16 x %union.vec128_t] }
%union.FPUAbridgedTagWord = type { i8 }
%union.FPUControlStatus = type { i32 }
%struct.FPUStackElem = type { %union.anon.11, [6 x i8] }
%union.anon.11 = type { %struct.float80_t }
%struct.float80_t = type { [10 x i8] }
%union.vec128_t = type { %struct.uint128v1_t }
%struct.uint128v1_t = type { [1 x i128] }
%struct.SegmentCaches = type { %struct.SegmentShadow, %struct.SegmentShadow, %struct.SegmentShadow, %struct.SegmentShadow, %struct.SegmentShadow, %struct.SegmentShadow }
%struct.SegmentShadow = type { %union.anon, i32, i32 }
%struct.Memory = type opaque

@__bss_start = local_unnamed_addr global %__bss_start_type zeroinitializer

; Function Attrs: nounwind readnone
declare i32 @llvm.ctpop.i32(i32) #0

declare %struct.Memory* @sub_400e50._Z11start_timerv(%struct.State* dereferenceable(3376), i64, %struct.Memory*) local_unnamed_addr

declare %struct.Memory* @sub_411070._Z26check_shifted_variable_sumIt19custom_add_variableItEEvT_S2_(%struct.State* dereferenceable(3376), i64, %struct.Memory*) local_unnamed_addr

declare %struct.Memory* @sub_400e70._Z5timerv(%struct.State* dereferenceable(3376), i64, %struct.Memory*) local_unnamed_addr

declare %struct.Memory* @sub_400810._Z13record_resultdPKc(%struct.State* dereferenceable(3376), i64, %struct.Memory*) local_unnamed_addr

; Function Attrs: alwaysinline
define %struct.Memory* @_Z22test_hoisted_variable1It19custom_add_variableItEEvPT_iS2_PKc(%struct.State* noalias, i64, %struct.Memory* noalias) local_unnamed_addr #1 {
entry:
  %3 = getelementptr inbounds %struct.State, %struct.State* %0, i64 0, i32 6, i32 33, i32 0, i32 0
  %RBP.i = getelementptr inbounds %struct.State, %struct.State* %0, i64 0, i32 6, i32 15, i32 0, i32 0
  %4 = load i64, i64* %RBP.i, align 8
  %5 = add i64 %1, 1
  store i64 %5, i64* %3, align 8
  %6 = getelementptr inbounds %struct.State, %struct.State* %0, i64 0, i32 6, i32 13, i32 0, i32 0
  %7 = load i64, i64* %6, align 8
  %8 = add i64 %7, -8
  %9 = inttoptr i64 %8 to i64*
  store i64 %4, i64* %9, align 8
  %10 = load i64, i64* %3, align 8
  store i64 %8, i64* %RBP.i, align 8
  %11 = add i64 %7, -56
  store i64 %11, i64* %6, align 8
  %12 = icmp ult i64 %8, 48
  %13 = zext i1 %12 to i8
  %14 = getelementptr inbounds %struct.State, %struct.State* %0, i64 0, i32 2, i32 1
  store i8 %13, i8* %14, align 1
  %15 = trunc i64 %11 to i32
  %16 = and i32 %15, 255
  %17 = tail call i32 @llvm.ctpop.i32(i32 %16)
  %18 = trunc i32 %17 to i8
  %19 = and i8 %18, 1
  %20 = xor i8 %19, 1
  %21 = getelementptr inbounds %struct.State, %struct.State* %0, i64 0, i32 2, i32 3
  store i8 %20, i8* %21, align 1
  %22 = xor i64 %8, 16
  %23 = xor i64 %22, %11
  %24 = lshr i64 %23, 4
  %25 = trunc i64 %24 to i8
  %26 = and i8 %25, 1
  %27 = getelementptr inbounds %struct.State, %struct.State* %0, i64 0, i32 2, i32 5
  store i8 %26, i8* %27, align 1
  %28 = icmp eq i64 %11, 0
  %29 = zext i1 %28 to i8
  %30 = getelementptr inbounds %struct.State, %struct.State* %0, i64 0, i32 2, i32 7
  store i8 %29, i8* %30, align 1
  %31 = lshr i64 %11, 63
  %32 = trunc i64 %31 to i8
  %33 = getelementptr inbounds %struct.State, %struct.State* %0, i64 0, i32 2, i32 9
  store i8 %32, i8* %33, align 1
  %34 = lshr i64 %8, 63
  %35 = xor i64 %31, %34
  %36 = add nuw nsw i64 %35, %34
  %37 = icmp eq i64 %36, 2
  %38 = zext i1 %37 to i8
  %39 = getelementptr inbounds %struct.State, %struct.State* %0, i64 0, i32 2, i32 13
  store i8 %38, i8* %39, align 1
  %40 = getelementptr inbounds %struct.State, %struct.State* %0, i64 0, i32 6, i32 1, i32 0
  %AX.i100 = bitcast %union.anon* %40 to i16*
  %41 = getelementptr inbounds %struct.State, %struct.State* %0, i64 0, i32 6, i32 7, i32 0
  %DX.i101 = bitcast %union.anon* %41 to i16*
  %42 = load i16, i16* %DX.i101, align 2
  store i16 %42, i16* %AX.i100, align 2
  %43 = getelementptr inbounds %struct.State, %struct.State* %0, i64 0, i32 6, i32 11, i32 0
  %RDI.i97 = getelementptr inbounds %union.anon, %union.anon* %43, i64 0, i32 0
  %44 = add i64 %7, -16
  %45 = load i64, i64* %RDI.i97, align 8
  %46 = add i64 %10, 14
  store i64 %46, i64* %3, align 8
  %47 = inttoptr i64 %44 to i64*
  store i64 %45, i64* %47, align 8
  %48 = getelementptr inbounds %struct.State, %struct.State* %0, i64 0, i32 6, i32 9, i32 0
  %ESI.i = bitcast %union.anon* %48 to i32*
  %49 = load i64, i64* %RBP.i, align 8
  %50 = add i64 %49, -12
  %51 = load i32, i32* %ESI.i, align 4
  %52 = load i64, i64* %3, align 8
  %53 = add i64 %52, 3
  store i64 %53, i64* %3, align 8
  %54 = inttoptr i64 %50 to i32*
  store i32 %51, i32* %54, align 4
  %55 = load i64, i64* %RBP.i, align 8
  %56 = add i64 %55, -14
  %57 = load i16, i16* %AX.i100, align 2
  %58 = load i64, i64* %3, align 8
  %59 = add i64 %58, 4
  store i64 %59, i64* %3, align 8
  %60 = inttoptr i64 %56 to i16*
  store i16 %57, i16* %60, align 2
  %RCX.i90 = getelementptr inbounds %struct.State, %struct.State* %0, i64 0, i32 6, i32 5, i32 0, i32 0
  %61 = load i64, i64* %RBP.i, align 8
  %62 = add i64 %61, -24
  %63 = load i64, i64* %RCX.i90, align 8
  %64 = load i64, i64* %3, align 8
  %65 = add i64 %64, 4
  store i64 %65, i64* %3, align 8
  %66 = inttoptr i64 %62 to i64*
  store i64 %63, i64* %66, align 8
  %67 = load i64, i64* %3, align 8
  %68 = add i64 %67, -21898
  %69 = add i64 %67, 5
  %70 = load i64, i64* %6, align 8
  %71 = add i64 %70, -8
  %72 = inttoptr i64 %71 to i64*
  store i64 %69, i64* %72, align 8
  store i64 %71, i64* %6, align 8
  store i64 %68, i64* %3, align 8
  %call2_4063da = tail call %struct.Memory* @sub_400e50._Z11start_timerv(%struct.State* %0, i64 %68, %struct.Memory* %2)
  %73 = load i64, i64* %RBP.i, align 8
  %74 = add i64 %73, -28
  %75 = load i64, i64* %3, align 8
  %76 = add i64 %75, 7
  store i64 %76, i64* %3, align 8
  %77 = inttoptr i64 %74 to i32*
  store i32 0, i32* %77, align 4
  %RAX.i84 = getelementptr inbounds %union.anon, %union.anon* %40, i64 0, i32 0
  %RDX.i = getelementptr inbounds %union.anon, %union.anon* %41, i64 0, i32 0
  %RSI.i58 = getelementptr inbounds %union.anon, %union.anon* %48, i64 0, i32 0
  %DI.i54 = bitcast %union.anon* %43 to i16*
  %.pre = load i64, i64* %3, align 8
  br label %block_.L_4063e6

block_.L_4063e6:                                  ; preds = %block_.L_406436, %entry
  %78 = phi i64 [ %.pre, %entry ], [ %334, %block_.L_406436 ]
  %MEMORY.0 = phi %struct.Memory* [ %call2_4063da, %entry ], [ %call2_406458, %block_.L_406436 ]
  %79 = load i64, i64* %RBP.i, align 8
  %80 = add i64 %79, -28
  %81 = add i64 %78, 3
  store i64 %81, i64* %3, align 8
  %82 = inttoptr i64 %80 to i32*
  %83 = load i32, i32* %82, align 4
  %84 = zext i32 %83 to i64
  store i64 %84, i64* %RAX.i84, align 8
  %85 = load i32, i32* inttoptr (i64 6398080 to i32*), align 128
  %86 = sub i32 %83, %85
  %87 = icmp ult i32 %83, %85
  %88 = zext i1 %87 to i8
  store i8 %88, i8* %14, align 1
  %89 = and i32 %86, 255
  %90 = tail call i32 @llvm.ctpop.i32(i32 %89)
  %91 = trunc i32 %90 to i8
  %92 = and i8 %91, 1
  %93 = xor i8 %92, 1
  store i8 %93, i8* %21, align 1
  %94 = xor i32 %85, %83
  %95 = xor i32 %94, %86
  %96 = lshr i32 %95, 4
  %97 = trunc i32 %96 to i8
  %98 = and i8 %97, 1
  store i8 %98, i8* %27, align 1
  %99 = icmp eq i32 %86, 0
  %100 = zext i1 %99 to i8
  store i8 %100, i8* %30, align 1
  %101 = lshr i32 %86, 31
  %102 = trunc i32 %101 to i8
  store i8 %102, i8* %33, align 1
  %103 = lshr i32 %83, 31
  %104 = lshr i32 %85, 31
  %105 = xor i32 %104, %103
  %106 = xor i32 %101, %103
  %107 = add nuw nsw i32 %106, %105
  %108 = icmp eq i32 %107, 2
  %109 = zext i1 %108 to i8
  store i8 %109, i8* %39, align 1
  %110 = icmp ne i8 %102, 0
  %111 = xor i1 %110, %108
  %.v = select i1 %111, i64 16, i64 133
  %112 = add i64 %78, %.v
  store i64 %112, i64* %3, align 8
  br i1 %111, label %block_4063f6, label %block_.L_40646b

block_4063f6:                                     ; preds = %block_.L_4063e6
  %113 = add i64 %79, -30
  %114 = add i64 %112, 6
  store i64 %114, i64* %3, align 8
  %115 = inttoptr i64 %113 to i16*
  store i16 0, i16* %115, align 2
  %116 = load i64, i64* %RBP.i, align 8
  %117 = add i64 %116, -36
  %118 = load i64, i64* %3, align 8
  %119 = add i64 %118, 7
  store i64 %119, i64* %3, align 8
  %120 = inttoptr i64 %117 to i32*
  store i32 0, i32* %120, align 4
  %.pre6 = load i64, i64* %3, align 8
  br label %block_.L_406403

block_.L_406403:                                  ; preds = %block_40640f, %block_4063f6
  %121 = phi i64 [ %226, %block_40640f ], [ %.pre6, %block_4063f6 ]
  %122 = load i64, i64* %RBP.i, align 8
  %123 = add i64 %122, -36
  %124 = add i64 %121, 3
  store i64 %124, i64* %3, align 8
  %125 = inttoptr i64 %123 to i32*
  %126 = load i32, i32* %125, align 4
  %127 = zext i32 %126 to i64
  store i64 %127, i64* %RAX.i84, align 8
  %128 = add i64 %122, -12
  %129 = add i64 %121, 6
  store i64 %129, i64* %3, align 8
  %130 = inttoptr i64 %128 to i32*
  %131 = load i32, i32* %130, align 4
  %132 = sub i32 %126, %131
  %133 = icmp ult i32 %126, %131
  %134 = zext i1 %133 to i8
  store i8 %134, i8* %14, align 1
  %135 = and i32 %132, 255
  %136 = tail call i32 @llvm.ctpop.i32(i32 %135)
  %137 = trunc i32 %136 to i8
  %138 = and i8 %137, 1
  %139 = xor i8 %138, 1
  store i8 %139, i8* %21, align 1
  %140 = xor i32 %131, %126
  %141 = xor i32 %140, %132
  %142 = lshr i32 %141, 4
  %143 = trunc i32 %142 to i8
  %144 = and i8 %143, 1
  store i8 %144, i8* %27, align 1
  %145 = icmp eq i32 %132, 0
  %146 = zext i1 %145 to i8
  store i8 %146, i8* %30, align 1
  %147 = lshr i32 %132, 31
  %148 = trunc i32 %147 to i8
  store i8 %148, i8* %33, align 1
  %149 = lshr i32 %126, 31
  %150 = lshr i32 %131, 31
  %151 = xor i32 %150, %149
  %152 = xor i32 %147, %149
  %153 = add nuw nsw i32 %152, %151
  %154 = icmp eq i32 %153, 2
  %155 = zext i1 %154 to i8
  store i8 %155, i8* %39, align 1
  %156 = icmp ne i8 %148, 0
  %157 = xor i1 %156, %154
  %.v7 = select i1 %157, i64 12, i64 51
  %158 = add i64 %121, %.v7
  store i64 %158, i64* %3, align 8
  br i1 %157, label %block_40640f, label %block_.L_406436

block_40640f:                                     ; preds = %block_.L_406403
  %159 = add i64 %122, -8
  %160 = add i64 %158, 4
  store i64 %160, i64* %3, align 8
  %161 = inttoptr i64 %159 to i64*
  %162 = load i64, i64* %161, align 8
  store i64 %162, i64* %RAX.i84, align 8
  %163 = add i64 %158, 8
  store i64 %163, i64* %3, align 8
  %164 = load i32, i32* %125, align 4
  %165 = sext i32 %164 to i64
  store i64 %165, i64* %RCX.i90, align 8
  %166 = shl nsw i64 %165, 1
  %167 = add i64 %166, %162
  %168 = add i64 %158, 12
  store i64 %168, i64* %3, align 8
  %169 = inttoptr i64 %167 to i16*
  %170 = load i16, i16* %169, align 2
  %171 = zext i16 %170 to i64
  store i64 %171, i64* %RDX.i, align 8
  %172 = add i64 %122, -30
  %173 = add i64 %158, 16
  store i64 %173, i64* %3, align 8
  %174 = inttoptr i64 %172 to i16*
  %175 = load i16, i16* %174, align 2
  %176 = zext i16 %170 to i32
  %177 = zext i16 %175 to i32
  %178 = add nuw nsw i32 %176, %177
  %179 = zext i32 %178 to i64
  store i64 %179, i64* %RSI.i58, align 8
  store i8 0, i8* %14, align 1
  %180 = and i32 %178, 255
  %181 = tail call i32 @llvm.ctpop.i32(i32 %180)
  %182 = trunc i32 %181 to i8
  %183 = and i8 %182, 1
  %184 = xor i8 %183, 1
  store i8 %184, i8* %21, align 1
  %185 = xor i16 %170, %175
  %186 = zext i16 %185 to i32
  %187 = xor i32 %186, %178
  %188 = lshr i32 %187, 4
  %189 = trunc i32 %188 to i8
  %190 = and i8 %189, 1
  store i8 %190, i8* %27, align 1
  %191 = icmp eq i32 %178, 0
  %192 = zext i1 %191 to i8
  store i8 %192, i8* %30, align 1
  store i8 0, i8* %33, align 1
  store i8 0, i8* %39, align 1
  %193 = trunc i32 %178 to i16
  store i16 %193, i16* %DI.i54, align 2
  %194 = add i64 %158, 25
  store i64 %194, i64* %3, align 8
  store i16 %193, i16* %174, align 2
  %195 = load i64, i64* %RBP.i, align 8
  %196 = add i64 %195, -36
  %197 = load i64, i64* %3, align 8
  %198 = add i64 %197, 3
  store i64 %198, i64* %3, align 8
  %199 = inttoptr i64 %196 to i32*
  %200 = load i32, i32* %199, align 4
  %201 = add i32 %200, 1
  %202 = zext i32 %201 to i64
  store i64 %202, i64* %RAX.i84, align 8
  %203 = icmp eq i32 %200, -1
  %204 = icmp eq i32 %201, 0
  %205 = or i1 %203, %204
  %206 = zext i1 %205 to i8
  store i8 %206, i8* %14, align 1
  %207 = and i32 %201, 255
  %208 = tail call i32 @llvm.ctpop.i32(i32 %207)
  %209 = trunc i32 %208 to i8
  %210 = and i8 %209, 1
  %211 = xor i8 %210, 1
  store i8 %211, i8* %21, align 1
  %212 = xor i32 %201, %200
  %213 = lshr i32 %212, 4
  %214 = trunc i32 %213 to i8
  %215 = and i8 %214, 1
  store i8 %215, i8* %27, align 1
  %216 = zext i1 %204 to i8
  store i8 %216, i8* %30, align 1
  %217 = lshr i32 %201, 31
  %218 = trunc i32 %217 to i8
  store i8 %218, i8* %33, align 1
  %219 = lshr i32 %200, 31
  %220 = xor i32 %217, %219
  %221 = add nuw nsw i32 %220, %217
  %222 = icmp eq i32 %221, 2
  %223 = zext i1 %222 to i8
  store i8 %223, i8* %39, align 1
  %224 = add i64 %197, 9
  store i64 %224, i64* %3, align 8
  store i32 %201, i32* %199, align 4
  %225 = load i64, i64* %3, align 8
  %226 = add i64 %225, -46
  store i64 %226, i64* %3, align 8
  br label %block_.L_406403

block_.L_406436:                                  ; preds = %block_.L_406403
  %227 = add i64 %158, 3
  store i64 %227, i64* %3, align 8
  %228 = load i32, i32* %130, align 4
  %229 = zext i32 %228 to i64
  store i64 %229, i64* %RAX.i84, align 8
  %230 = add i64 %122, -14
  %231 = add i64 %158, 7
  store i64 %231, i64* %3, align 8
  %232 = inttoptr i64 %230 to i16*
  %233 = load i16, i16* %232, align 2
  %234 = zext i16 %233 to i64
  store i64 %234, i64* %RCX.i90, align 8
  %235 = sext i32 %228 to i64
  %236 = zext i16 %233 to i64
  %237 = mul nsw i64 %236, %235
  %238 = trunc i64 %237 to i32
  %239 = and i64 %237, 4294967295
  store i64 %239, i64* %RAX.i84, align 8
  %240 = shl i64 %237, 32
  %241 = ashr exact i64 %240, 32
  %242 = icmp ne i64 %241, %237
  %243 = zext i1 %242 to i8
  store i8 %243, i8* %14, align 1
  %244 = and i32 %238, 255
  %245 = tail call i32 @llvm.ctpop.i32(i32 %244)
  %246 = trunc i32 %245 to i8
  %247 = and i8 %246, 1
  %248 = xor i8 %247, 1
  store i8 %248, i8* %21, align 1
  store i8 0, i8* %27, align 1
  store i8 0, i8* %30, align 1
  %249 = lshr i32 %238, 31
  %250 = trunc i32 %249 to i8
  store i8 %250, i8* %33, align 1
  store i8 %243, i8* %39, align 1
  %251 = add i64 %122, -30
  %252 = add i64 %158, 14
  store i64 %252, i64* %3, align 8
  %253 = inttoptr i64 %251 to i16*
  %254 = load i16, i16* %253, align 2
  %255 = zext i16 %254 to i64
  %256 = trunc i64 %237 to i32
  %257 = zext i16 %254 to i32
  %258 = add i32 %256, %257
  %259 = zext i32 %258 to i64
  store i64 %259, i64* %RCX.i90, align 8
  %260 = icmp ult i32 %258, %257
  %261 = icmp ult i32 %258, %256
  %262 = or i1 %260, %261
  %263 = zext i1 %262 to i8
  store i8 %263, i8* %14, align 1
  %264 = and i32 %258, 255
  %265 = tail call i32 @llvm.ctpop.i32(i32 %264)
  %266 = trunc i32 %265 to i8
  %267 = and i8 %266, 1
  %268 = xor i8 %267, 1
  store i8 %268, i8* %21, align 1
  %269 = xor i64 %237, %255
  %270 = trunc i64 %269 to i32
  %271 = xor i32 %270, %258
  %272 = lshr i32 %271, 4
  %273 = trunc i32 %272 to i8
  %274 = and i8 %273, 1
  store i8 %274, i8* %27, align 1
  %275 = icmp eq i32 %258, 0
  %276 = zext i1 %275 to i8
  store i8 %276, i8* %30, align 1
  %277 = lshr i32 %258, 31
  %278 = trunc i32 %277 to i8
  store i8 %278, i8* %33, align 1
  %279 = lshr i32 %256, 31
  %280 = xor i32 %277, %279
  %281 = add nuw nsw i32 %280, %277
  %282 = icmp eq i32 %281, 2
  %283 = zext i1 %282 to i8
  store i8 %283, i8* %39, align 1
  %284 = trunc i32 %258 to i16
  store i16 %284, i16* %DX.i101, align 2
  %285 = add i64 %158, 23
  store i64 %285, i64* %3, align 8
  store i16 %284, i16* %253, align 2
  %286 = load i64, i64* %RBP.i, align 8
  %287 = add i64 %286, -30
  %288 = load i64, i64* %3, align 8
  %289 = add i64 %288, 4
  store i64 %289, i64* %3, align 8
  %290 = inttoptr i64 %287 to i16*
  %291 = load i16, i16* %290, align 2
  store i16 %291, i16* %DX.i101, align 2
  %292 = zext i16 %291 to i64
  store i64 %292, i64* %RDI.i97, align 8
  %293 = add i64 %286, -14
  %294 = add i64 %288, 11
  store i64 %294, i64* %3, align 8
  %295 = inttoptr i64 %293 to i16*
  %296 = load i16, i16* %295, align 2
  %297 = zext i16 %296 to i64
  store i64 %297, i64* %RSI.i58, align 8
  %298 = add i64 %288, 44067
  %299 = add i64 %288, 16
  %300 = load i64, i64* %6, align 8
  %301 = add i64 %300, -8
  %302 = inttoptr i64 %301 to i64*
  store i64 %299, i64* %302, align 8
  store i64 %301, i64* %6, align 8
  store i64 %298, i64* %3, align 8
  %call2_406458 = tail call %struct.Memory* @sub_411070._Z26check_shifted_variable_sumIt19custom_add_variableItEEvT_S2_(%struct.State* nonnull %0, i64 %298, %struct.Memory* %MEMORY.0)
  %303 = load i64, i64* %RBP.i, align 8
  %304 = add i64 %303, -28
  %305 = load i64, i64* %3, align 8
  %306 = add i64 %305, 3
  store i64 %306, i64* %3, align 8
  %307 = inttoptr i64 %304 to i32*
  %308 = load i32, i32* %307, align 4
  %309 = add i32 %308, 1
  %310 = zext i32 %309 to i64
  store i64 %310, i64* %RAX.i84, align 8
  %311 = icmp eq i32 %308, -1
  %312 = icmp eq i32 %309, 0
  %313 = or i1 %311, %312
  %314 = zext i1 %313 to i8
  store i8 %314, i8* %14, align 1
  %315 = and i32 %309, 255
  %316 = tail call i32 @llvm.ctpop.i32(i32 %315)
  %317 = trunc i32 %316 to i8
  %318 = and i8 %317, 1
  %319 = xor i8 %318, 1
  store i8 %319, i8* %21, align 1
  %320 = xor i32 %309, %308
  %321 = lshr i32 %320, 4
  %322 = trunc i32 %321 to i8
  %323 = and i8 %322, 1
  store i8 %323, i8* %27, align 1
  %324 = zext i1 %312 to i8
  store i8 %324, i8* %30, align 1
  %325 = lshr i32 %309, 31
  %326 = trunc i32 %325 to i8
  store i8 %326, i8* %33, align 1
  %327 = lshr i32 %308, 31
  %328 = xor i32 %325, %327
  %329 = add nuw nsw i32 %328, %325
  %330 = icmp eq i32 %329, 2
  %331 = zext i1 %330 to i8
  store i8 %331, i8* %39, align 1
  %332 = add i64 %305, 9
  store i64 %332, i64* %3, align 8
  store i32 %309, i32* %307, align 4
  %333 = load i64, i64* %3, align 8
  %334 = add i64 %333, -128
  store i64 %334, i64* %3, align 8
  br label %block_.L_4063e6

block_.L_40646b:                                  ; preds = %block_.L_4063e6
  %335 = add i64 %112, -22011
  %336 = add i64 %112, 5
  %337 = load i64, i64* %6, align 8
  %338 = add i64 %337, -8
  %339 = inttoptr i64 %338 to i64*
  store i64 %336, i64* %339, align 8
  store i64 %338, i64* %6, align 8
  store i64 %335, i64* %3, align 8
  %call2_40646b = tail call %struct.Memory* @sub_400e70._Z5timerv(%struct.State* nonnull %0, i64 %335, %struct.Memory* %MEMORY.0)
  %340 = load i64, i64* %RBP.i, align 8
  %341 = add i64 %340, -24
  %342 = load i64, i64* %3, align 8
  %343 = add i64 %342, 4
  store i64 %343, i64* %3, align 8
  %344 = inttoptr i64 %341 to i64*
  %345 = load i64, i64* %344, align 8
  store i64 %345, i64* %RDI.i97, align 8
  %346 = add i64 %342, -23648
  %347 = add i64 %342, 9
  %348 = load i64, i64* %6, align 8
  %349 = add i64 %348, -8
  %350 = inttoptr i64 %349 to i64*
  store i64 %347, i64* %350, align 8
  store i64 %349, i64* %6, align 8
  store i64 %346, i64* %3, align 8
  %call2_406474 = tail call %struct.Memory* @sub_400810._Z13record_resultdPKc(%struct.State* nonnull %0, i64 %346, %struct.Memory* %call2_40646b)
  %351 = load i64, i64* %6, align 8
  %352 = load i64, i64* %3, align 8
  %353 = add i64 %351, 48
  store i64 %353, i64* %6, align 8
  %354 = icmp ugt i64 %351, -49
  %355 = zext i1 %354 to i8
  store i8 %355, i8* %14, align 1
  %356 = trunc i64 %353 to i32
  %357 = and i32 %356, 255
  %358 = tail call i32 @llvm.ctpop.i32(i32 %357)
  %359 = trunc i32 %358 to i8
  %360 = and i8 %359, 1
  %361 = xor i8 %360, 1
  store i8 %361, i8* %21, align 1
  %362 = xor i64 %351, 16
  %363 = xor i64 %362, %353
  %364 = lshr i64 %363, 4
  %365 = trunc i64 %364 to i8
  %366 = and i8 %365, 1
  store i8 %366, i8* %27, align 1
  %367 = icmp eq i64 %353, 0
  %368 = zext i1 %367 to i8
  store i8 %368, i8* %30, align 1
  %369 = lshr i64 %353, 63
  %370 = trunc i64 %369 to i8
  store i8 %370, i8* %33, align 1
  %371 = lshr i64 %351, 63
  %372 = xor i64 %369, %371
  %373 = add nuw nsw i64 %372, %369
  %374 = icmp eq i64 %373, 2
  %375 = zext i1 %374 to i8
  store i8 %375, i8* %39, align 1
  %376 = add i64 %352, 5
  store i64 %376, i64* %3, align 8
  %377 = add i64 %351, 56
  %378 = inttoptr i64 %353 to i64*
  %379 = load i64, i64* %378, align 8
  store i64 %379, i64* %RBP.i, align 8
  store i64 %377, i64* %6, align 8
  %380 = add i64 %352, 6
  store i64 %380, i64* %3, align 8
  %381 = inttoptr i64 %377 to i64*
  %382 = load i64, i64* %381, align 8
  store i64 %382, i64* %3, align 8
  %383 = add i64 %351, 64
  store i64 %383, i64* %6, align 8
  ret %struct.Memory* %call2_406474
}

; Function Attrs: norecurse nounwind
define %struct.Memory* @routine_pushq__rbp(%struct.State* nocapture dereferenceable(3376), i64, %struct.Memory* readnone returned) local_unnamed_addr #2 {
block_400488:
  %PC = getelementptr inbounds %struct.State, %struct.State* %0, i64 0, i32 6, i32 33, i32 0, i32 0
  %RBP = getelementptr inbounds %struct.State, %struct.State* %0, i64 0, i32 6, i32 15, i32 0, i32 0
  %3 = load i64, i64* %RBP, align 8
  %4 = load i64, i64* %PC, align 8
  %5 = add i64 %4, 1
  store i64 %5, i64* %PC, align 8
  %6 = getelementptr inbounds %struct.State, %struct.State* %0, i64 0, i32 6, i32 13, i32 0, i32 0
  %7 = load i64, i64* %6, align 8
  %8 = add i64 %7, -8
  %9 = inttoptr i64 %8 to i64*
  store i64 %3, i64* %9, align 8
  store i64 %8, i64* %6, align 8
  ret %struct.Memory* %2
}

; Function Attrs: norecurse nounwind
define %struct.Memory* @routine_movq__rsp___rbp(%struct.State* nocapture dereferenceable(3376), i64, %struct.Memory* readnone returned) local_unnamed_addr #2 {
block_400488:
  %PC = getelementptr inbounds %struct.State, %struct.State* %0, i64 0, i32 6, i32 33, i32 0, i32 0
  %RSP = getelementptr inbounds %struct.State, %struct.State* %0, i64 0, i32 6, i32 13, i32 0, i32 0
  %RBP = getelementptr inbounds %struct.State, %struct.State* %0, i64 0, i32 6, i32 15, i32 0, i32 0
  %3 = load i64, i64* %RSP, align 8
  %4 = load i64, i64* %PC, align 8
  %5 = add i64 %4, 3
  store i64 %5, i64* %PC, align 8
  store i64 %3, i64* %RBP, align 8
  ret %struct.Memory* %2
}

; Function Attrs: nounwind
define %struct.Memory* @routine_subq__0x30___rsp(%struct.State* nocapture dereferenceable(3376), i64, %struct.Memory* readnone returned) local_unnamed_addr #3 {
block_400488:
  %PC = getelementptr inbounds %struct.State, %struct.State* %0, i64 0, i32 6, i32 33, i32 0, i32 0
  %RSP = getelementptr inbounds %struct.State, %struct.State* %0, i64 0, i32 6, i32 13, i32 0, i32 0
  %3 = load i64, i64* %RSP, align 8
  %4 = load i64, i64* %PC, align 8
  %5 = add i64 %4, 4
  store i64 %5, i64* %PC, align 8
  %6 = add i64 %3, -48
  store i64 %6, i64* %RSP, align 8
  %7 = icmp ult i64 %3, 48
  %8 = zext i1 %7 to i8
  %9 = getelementptr inbounds %struct.State, %struct.State* %0, i64 0, i32 2, i32 1
  store i8 %8, i8* %9, align 1
  %10 = trunc i64 %6 to i32
  %11 = and i32 %10, 255
  %12 = tail call i32 @llvm.ctpop.i32(i32 %11)
  %13 = trunc i32 %12 to i8
  %14 = and i8 %13, 1
  %15 = xor i8 %14, 1
  %16 = getelementptr inbounds %struct.State, %struct.State* %0, i64 0, i32 2, i32 3
  store i8 %15, i8* %16, align 1
  %17 = xor i64 %3, 16
  %18 = xor i64 %17, %6
  %19 = lshr i64 %18, 4
  %20 = trunc i64 %19 to i8
  %21 = and i8 %20, 1
  %22 = getelementptr inbounds %struct.State, %struct.State* %0, i64 0, i32 2, i32 5
  store i8 %21, i8* %22, align 1
  %23 = icmp eq i64 %6, 0
  %24 = zext i1 %23 to i8
  %25 = getelementptr inbounds %struct.State, %struct.State* %0, i64 0, i32 2, i32 7
  store i8 %24, i8* %25, align 1
  %26 = lshr i64 %6, 63
  %27 = trunc i64 %26 to i8
  %28 = getelementptr inbounds %struct.State, %struct.State* %0, i64 0, i32 2, i32 9
  store i8 %27, i8* %28, align 1
  %29 = lshr i64 %3, 63
  %30 = xor i64 %26, %29
  %31 = add nuw nsw i64 %30, %29
  %32 = icmp eq i64 %31, 2
  %33 = zext i1 %32 to i8
  %34 = getelementptr inbounds %struct.State, %struct.State* %0, i64 0, i32 2, i32 13
  store i8 %33, i8* %34, align 1
  ret %struct.Memory* %2
}

; Function Attrs: norecurse nounwind
define %struct.Memory* @routine_movw__dx___ax(%struct.State* nocapture dereferenceable(3376), i64, %struct.Memory* readnone returned) local_unnamed_addr #2 {
block_400488:
  %PC = getelementptr inbounds %struct.State, %struct.State* %0, i64 0, i32 6, i32 33, i32 0, i32 0
  %3 = getelementptr inbounds %struct.State, %struct.State* %0, i64 0, i32 6, i32 1, i32 0
  %AX = bitcast %union.anon* %3 to i16*
  %4 = getelementptr inbounds %struct.State, %struct.State* %0, i64 0, i32 6, i32 7, i32 0
  %DX = bitcast %union.anon* %4 to i16*
  %5 = load i16, i16* %DX, align 2
  %6 = load i64, i64* %PC, align 8
  %7 = add i64 %6, 3
  store i64 %7, i64* %PC, align 8
  store i16 %5, i16* %AX, align 2
  ret %struct.Memory* %2
}

; Function Attrs: norecurse nounwind
define %struct.Memory* @routine_movq__rdi__MINUS0x8__rbp_(%struct.State* nocapture dereferenceable(3376), i64, %struct.Memory* readnone returned) local_unnamed_addr #2 {
block_400488:
  %PC = getelementptr inbounds %struct.State, %struct.State* %0, i64 0, i32 6, i32 33, i32 0, i32 0
  %RDI = getelementptr inbounds %struct.State, %struct.State* %0, i64 0, i32 6, i32 11, i32 0, i32 0
  %RBP = getelementptr inbounds %struct.State, %struct.State* %0, i64 0, i32 6, i32 15, i32 0, i32 0
  %3 = load i64, i64* %RBP, align 8
  %4 = add i64 %3, -8
  %5 = load i64, i64* %RDI, align 8
  %6 = load i64, i64* %PC, align 8
  %7 = add i64 %6, 4
  store i64 %7, i64* %PC, align 8
  %8 = inttoptr i64 %4 to i64*
  store i64 %5, i64* %8, align 8
  ret %struct.Memory* %2
}

; Function Attrs: norecurse nounwind
define %struct.Memory* @routine_movl__esi__MINUS0xc__rbp_(%struct.State* nocapture dereferenceable(3376), i64, %struct.Memory* readnone returned) local_unnamed_addr #2 {
block_400488:
  %PC = getelementptr inbounds %struct.State, %struct.State* %0, i64 0, i32 6, i32 33, i32 0, i32 0
  %3 = getelementptr inbounds %struct.State, %struct.State* %0, i64 0, i32 6, i32 9, i32 0
  %ESI = bitcast %union.anon* %3 to i32*
  %RBP = getelementptr inbounds %struct.State, %struct.State* %0, i64 0, i32 6, i32 15, i32 0, i32 0
  %4 = load i64, i64* %RBP, align 8
  %5 = add i64 %4, -12
  %6 = load i32, i32* %ESI, align 4
  %7 = load i64, i64* %PC, align 8
  %8 = add i64 %7, 3
  store i64 %8, i64* %PC, align 8
  %9 = inttoptr i64 %5 to i32*
  store i32 %6, i32* %9, align 4
  ret %struct.Memory* %2
}

; Function Attrs: norecurse nounwind
define %struct.Memory* @routine_movw__ax__MINUS0xe__rbp_(%struct.State* nocapture dereferenceable(3376), i64, %struct.Memory* readnone returned) local_unnamed_addr #2 {
block_400488:
  %PC = getelementptr inbounds %struct.State, %struct.State* %0, i64 0, i32 6, i32 33, i32 0, i32 0
  %3 = getelementptr inbounds %struct.State, %struct.State* %0, i64 0, i32 6, i32 1, i32 0
  %AX = bitcast %union.anon* %3 to i16*
  %RBP = getelementptr inbounds %struct.State, %struct.State* %0, i64 0, i32 6, i32 15, i32 0, i32 0
  %4 = load i64, i64* %RBP, align 8
  %5 = add i64 %4, -14
  %6 = load i16, i16* %AX, align 2
  %7 = load i64, i64* %PC, align 8
  %8 = add i64 %7, 4
  store i64 %8, i64* %PC, align 8
  %9 = inttoptr i64 %5 to i16*
  store i16 %6, i16* %9, align 2
  ret %struct.Memory* %2
}

; Function Attrs: norecurse nounwind
define %struct.Memory* @routine_movq__rcx__MINUS0x18__rbp_(%struct.State* nocapture dereferenceable(3376), i64, %struct.Memory* readnone returned) local_unnamed_addr #2 {
block_400488:
  %PC = getelementptr inbounds %struct.State, %struct.State* %0, i64 0, i32 6, i32 33, i32 0, i32 0
  %RCX = getelementptr inbounds %struct.State, %struct.State* %0, i64 0, i32 6, i32 5, i32 0, i32 0
  %RBP = getelementptr inbounds %struct.State, %struct.State* %0, i64 0, i32 6, i32 15, i32 0, i32 0
  %3 = load i64, i64* %RBP, align 8
  %4 = add i64 %3, -24
  %5 = load i64, i64* %RCX, align 8
  %6 = load i64, i64* %PC, align 8
  %7 = add i64 %6, 4
  store i64 %7, i64* %PC, align 8
  %8 = inttoptr i64 %4 to i64*
  store i64 %5, i64* %8, align 8
  ret %struct.Memory* %2
}

; Function Attrs: norecurse nounwind
define %struct.Memory* @routine_callq_._Z11start_timerv(%struct.State* nocapture dereferenceable(3376), i64, %struct.Memory* readnone returned, i64 %rel_off1, i64 %rel_off2, i64 %rel_off3) local_unnamed_addr #2 {
block_400488:
  %PC = getelementptr inbounds %struct.State, %struct.State* %0, i64 0, i32 6, i32 33, i32 0, i32 0
  %3 = load i64, i64* %PC, align 8
  %4 = add i64 %3, %rel_off1
  %5 = add i64 %3, %rel_off2
  %6 = getelementptr inbounds %struct.State, %struct.State* %0, i64 0, i32 6, i32 13, i32 0, i32 0
  %7 = load i64, i64* %6, align 8
  %8 = add i64 %7, -8
  %9 = inttoptr i64 %8 to i64*
  store i64 %5, i64* %9, align 8
  store i64 %8, i64* %6, align 8
  store i64 %4, i64* %PC, align 8
  ret %struct.Memory* %2
}

; Function Attrs: norecurse nounwind
define %struct.Memory* @routine_movl__0x0__MINUS0x1c__rbp_(%struct.State* nocapture dereferenceable(3376), i64, %struct.Memory* readnone returned) local_unnamed_addr #2 {
block_400488:
  %PC = getelementptr inbounds %struct.State, %struct.State* %0, i64 0, i32 6, i32 33, i32 0, i32 0
  %RBP = getelementptr inbounds %struct.State, %struct.State* %0, i64 0, i32 6, i32 15, i32 0, i32 0
  %3 = load i64, i64* %RBP, align 8
  %4 = add i64 %3, -28
  %5 = load i64, i64* %PC, align 8
  %6 = add i64 %5, 7
  store i64 %6, i64* %PC, align 8
  %7 = inttoptr i64 %4 to i32*
  store i32 0, i32* %7, align 4
  ret %struct.Memory* %2
}

; Function Attrs: norecurse nounwind
define %struct.Memory* @routine_movl_MINUS0x1c__rbp____eax(%struct.State* nocapture dereferenceable(3376), i64, %struct.Memory* readnone returned) local_unnamed_addr #2 {
block_400488:
  %PC = getelementptr inbounds %struct.State, %struct.State* %0, i64 0, i32 6, i32 33, i32 0, i32 0
  %RAX = getelementptr inbounds %struct.State, %struct.State* %0, i64 0, i32 6, i32 1, i32 0, i32 0
  %RBP = getelementptr inbounds %struct.State, %struct.State* %0, i64 0, i32 6, i32 15, i32 0, i32 0
  %3 = load i64, i64* %RBP, align 8
  %4 = add i64 %3, -28
  %5 = load i64, i64* %PC, align 8
  %6 = add i64 %5, 3
  store i64 %6, i64* %PC, align 8
  %7 = inttoptr i64 %4 to i32*
  %8 = load i32, i32* %7, align 4
  %9 = zext i32 %8 to i64
  store i64 %9, i64* %RAX, align 8
  ret %struct.Memory* %2
}

; Function Attrs: nounwind
define %struct.Memory* @routine_cmpl_0x61a080___eax(%struct.State* nocapture dereferenceable(3376), i64, %struct.Memory* readnone returned) local_unnamed_addr #3 {
block_400488:
  %PC = getelementptr inbounds %struct.State, %struct.State* %0, i64 0, i32 6, i32 33, i32 0, i32 0
  %3 = getelementptr inbounds %struct.State, %struct.State* %0, i64 0, i32 6, i32 1, i32 0
  %EAX = bitcast %union.anon* %3 to i32*
  %4 = load i32, i32* %EAX, align 4
  %5 = load i64, i64* %PC, align 8
  %6 = add i64 %5, 7
  store i64 %6, i64* %PC, align 8
  %7 = load i32, i32* inttoptr (i64 6398080 to i32*), align 128
  %8 = sub i32 %4, %7
  %9 = icmp ult i32 %4, %7
  %10 = zext i1 %9 to i8
  %11 = getelementptr inbounds %struct.State, %struct.State* %0, i64 0, i32 2, i32 1
  store i8 %10, i8* %11, align 1
  %12 = and i32 %8, 255
  %13 = tail call i32 @llvm.ctpop.i32(i32 %12)
  %14 = trunc i32 %13 to i8
  %15 = and i8 %14, 1
  %16 = xor i8 %15, 1
  %17 = getelementptr inbounds %struct.State, %struct.State* %0, i64 0, i32 2, i32 3
  store i8 %16, i8* %17, align 1
  %18 = xor i32 %7, %4
  %19 = xor i32 %18, %8
  %20 = lshr i32 %19, 4
  %21 = trunc i32 %20 to i8
  %22 = and i8 %21, 1
  %23 = getelementptr inbounds %struct.State, %struct.State* %0, i64 0, i32 2, i32 5
  store i8 %22, i8* %23, align 1
  %24 = icmp eq i32 %8, 0
  %25 = zext i1 %24 to i8
  %26 = getelementptr inbounds %struct.State, %struct.State* %0, i64 0, i32 2, i32 7
  store i8 %25, i8* %26, align 1
  %27 = lshr i32 %8, 31
  %28 = trunc i32 %27 to i8
  %29 = getelementptr inbounds %struct.State, %struct.State* %0, i64 0, i32 2, i32 9
  store i8 %28, i8* %29, align 1
  %30 = lshr i32 %4, 31
  %31 = lshr i32 %7, 31
  %32 = xor i32 %31, %30
  %33 = xor i32 %27, %30
  %34 = add nuw nsw i32 %33, %32
  %35 = icmp eq i32 %34, 2
  %36 = zext i1 %35 to i8
  %37 = getelementptr inbounds %struct.State, %struct.State* %0, i64 0, i32 2, i32 13
  store i8 %36, i8* %37, align 1
  ret %struct.Memory* %2
}

; Function Attrs: norecurse nounwind
define %struct.Memory* @routine_jge_.L_40646b(%struct.State* nocapture dereferenceable(3376), i64, %struct.Memory* readnone returned, i8* nocapture %BRANCH_TAKEN, i64 %rel_off1, i64 %rel_off2, i64 %rel_off3) local_unnamed_addr #2 {
block_400488:
  %PC = getelementptr inbounds %struct.State, %struct.State* %0, i64 0, i32 6, i32 33, i32 0, i32 0
  %3 = load i64, i64* %PC, align 8
  %4 = getelementptr inbounds %struct.State, %struct.State* %0, i64 0, i32 2, i32 9
  %5 = load i8, i8* %4, align 1
  %6 = icmp ne i8 %5, 0
  %7 = getelementptr inbounds %struct.State, %struct.State* %0, i64 0, i32 2, i32 13
  %8 = load i8, i8* %7, align 1
  %9 = icmp ne i8 %8, 0
  %10 = xor i1 %6, %9
  %11 = xor i1 %10, true
  %12 = zext i1 %11 to i8
  store i8 %12, i8* %BRANCH_TAKEN, align 1
  %.v = select i1 %10, i64 %rel_off2, i64 %rel_off1
  %13 = add i64 %.v, %3
  store i64 %13, i64* %PC, align 8
  ret %struct.Memory* %2
}

; Function Attrs: norecurse nounwind
define %struct.Memory* @routine_movw__0x0__MINUS0x1e__rbp_(%struct.State* nocapture dereferenceable(3376), i64, %struct.Memory* readnone returned) local_unnamed_addr #2 {
block_400488:
  %PC = getelementptr inbounds %struct.State, %struct.State* %0, i64 0, i32 6, i32 33, i32 0, i32 0
  %RBP = getelementptr inbounds %struct.State, %struct.State* %0, i64 0, i32 6, i32 15, i32 0, i32 0
  %3 = load i64, i64* %RBP, align 8
  %4 = add i64 %3, -30
  %5 = load i64, i64* %PC, align 8
  %6 = add i64 %5, 6
  store i64 %6, i64* %PC, align 8
  %7 = inttoptr i64 %4 to i16*
  store i16 0, i16* %7, align 2
  ret %struct.Memory* %2
}

; Function Attrs: norecurse nounwind
define %struct.Memory* @routine_movl__0x0__MINUS0x24__rbp_(%struct.State* nocapture dereferenceable(3376), i64, %struct.Memory* readnone returned) local_unnamed_addr #2 {
block_400488:
  %PC = getelementptr inbounds %struct.State, %struct.State* %0, i64 0, i32 6, i32 33, i32 0, i32 0
  %RBP = getelementptr inbounds %struct.State, %struct.State* %0, i64 0, i32 6, i32 15, i32 0, i32 0
  %3 = load i64, i64* %RBP, align 8
  %4 = add i64 %3, -36
  %5 = load i64, i64* %PC, align 8
  %6 = add i64 %5, 7
  store i64 %6, i64* %PC, align 8
  %7 = inttoptr i64 %4 to i32*
  store i32 0, i32* %7, align 4
  ret %struct.Memory* %2
}

; Function Attrs: norecurse nounwind
define %struct.Memory* @routine_movl_MINUS0x24__rbp____eax(%struct.State* nocapture dereferenceable(3376), i64, %struct.Memory* readnone returned) local_unnamed_addr #2 {
block_400488:
  %PC = getelementptr inbounds %struct.State, %struct.State* %0, i64 0, i32 6, i32 33, i32 0, i32 0
  %RAX = getelementptr inbounds %struct.State, %struct.State* %0, i64 0, i32 6, i32 1, i32 0, i32 0
  %RBP = getelementptr inbounds %struct.State, %struct.State* %0, i64 0, i32 6, i32 15, i32 0, i32 0
  %3 = load i64, i64* %RBP, align 8
  %4 = add i64 %3, -36
  %5 = load i64, i64* %PC, align 8
  %6 = add i64 %5, 3
  store i64 %6, i64* %PC, align 8
  %7 = inttoptr i64 %4 to i32*
  %8 = load i32, i32* %7, align 4
  %9 = zext i32 %8 to i64
  store i64 %9, i64* %RAX, align 8
  ret %struct.Memory* %2
}

; Function Attrs: nounwind
define %struct.Memory* @routine_cmpl_MINUS0xc__rbp____eax(%struct.State* nocapture dereferenceable(3376), i64, %struct.Memory* readnone returned) local_unnamed_addr #3 {
block_400488:
  %PC = getelementptr inbounds %struct.State, %struct.State* %0, i64 0, i32 6, i32 33, i32 0, i32 0
  %3 = getelementptr inbounds %struct.State, %struct.State* %0, i64 0, i32 6, i32 1, i32 0
  %EAX = bitcast %union.anon* %3 to i32*
  %RBP = getelementptr inbounds %struct.State, %struct.State* %0, i64 0, i32 6, i32 15, i32 0, i32 0
  %4 = load i32, i32* %EAX, align 4
  %5 = load i64, i64* %RBP, align 8
  %6 = add i64 %5, -12
  %7 = load i64, i64* %PC, align 8
  %8 = add i64 %7, 3
  store i64 %8, i64* %PC, align 8
  %9 = inttoptr i64 %6 to i32*
  %10 = load i32, i32* %9, align 4
  %11 = sub i32 %4, %10
  %12 = icmp ult i32 %4, %10
  %13 = zext i1 %12 to i8
  %14 = getelementptr inbounds %struct.State, %struct.State* %0, i64 0, i32 2, i32 1
  store i8 %13, i8* %14, align 1
  %15 = and i32 %11, 255
  %16 = tail call i32 @llvm.ctpop.i32(i32 %15)
  %17 = trunc i32 %16 to i8
  %18 = and i8 %17, 1
  %19 = xor i8 %18, 1
  %20 = getelementptr inbounds %struct.State, %struct.State* %0, i64 0, i32 2, i32 3
  store i8 %19, i8* %20, align 1
  %21 = xor i32 %10, %4
  %22 = xor i32 %21, %11
  %23 = lshr i32 %22, 4
  %24 = trunc i32 %23 to i8
  %25 = and i8 %24, 1
  %26 = getelementptr inbounds %struct.State, %struct.State* %0, i64 0, i32 2, i32 5
  store i8 %25, i8* %26, align 1
  %27 = icmp eq i32 %11, 0
  %28 = zext i1 %27 to i8
  %29 = getelementptr inbounds %struct.State, %struct.State* %0, i64 0, i32 2, i32 7
  store i8 %28, i8* %29, align 1
  %30 = lshr i32 %11, 31
  %31 = trunc i32 %30 to i8
  %32 = getelementptr inbounds %struct.State, %struct.State* %0, i64 0, i32 2, i32 9
  store i8 %31, i8* %32, align 1
  %33 = lshr i32 %4, 31
  %34 = lshr i32 %10, 31
  %35 = xor i32 %34, %33
  %36 = xor i32 %30, %33
  %37 = add nuw nsw i32 %36, %35
  %38 = icmp eq i32 %37, 2
  %39 = zext i1 %38 to i8
  %40 = getelementptr inbounds %struct.State, %struct.State* %0, i64 0, i32 2, i32 13
  store i8 %39, i8* %40, align 1
  ret %struct.Memory* %2
}

; Function Attrs: norecurse nounwind
define %struct.Memory* @routine_jge_.L_406436(%struct.State* nocapture dereferenceable(3376), i64, %struct.Memory* readnone returned, i8* nocapture %BRANCH_TAKEN, i64 %rel_off1, i64 %rel_off2, i64 %rel_off3) local_unnamed_addr #2 {
block_400488:
  %PC = getelementptr inbounds %struct.State, %struct.State* %0, i64 0, i32 6, i32 33, i32 0, i32 0
  %3 = load i64, i64* %PC, align 8
  %4 = getelementptr inbounds %struct.State, %struct.State* %0, i64 0, i32 2, i32 9
  %5 = load i8, i8* %4, align 1
  %6 = icmp ne i8 %5, 0
  %7 = getelementptr inbounds %struct.State, %struct.State* %0, i64 0, i32 2, i32 13
  %8 = load i8, i8* %7, align 1
  %9 = icmp ne i8 %8, 0
  %10 = xor i1 %6, %9
  %11 = xor i1 %10, true
  %12 = zext i1 %11 to i8
  store i8 %12, i8* %BRANCH_TAKEN, align 1
  %.v = select i1 %10, i64 %rel_off2, i64 %rel_off1
  %13 = add i64 %.v, %3
  store i64 %13, i64* %PC, align 8
  ret %struct.Memory* %2
}

; Function Attrs: norecurse nounwind
define %struct.Memory* @routine_movq_MINUS0x8__rbp____rax(%struct.State* nocapture dereferenceable(3376), i64, %struct.Memory* readnone returned) local_unnamed_addr #2 {
block_400488:
  %PC = getelementptr inbounds %struct.State, %struct.State* %0, i64 0, i32 6, i32 33, i32 0, i32 0
  %RAX = getelementptr inbounds %struct.State, %struct.State* %0, i64 0, i32 6, i32 1, i32 0, i32 0
  %RBP = getelementptr inbounds %struct.State, %struct.State* %0, i64 0, i32 6, i32 15, i32 0, i32 0
  %3 = load i64, i64* %RBP, align 8
  %4 = add i64 %3, -8
  %5 = load i64, i64* %PC, align 8
  %6 = add i64 %5, 4
  store i64 %6, i64* %PC, align 8
  %7 = inttoptr i64 %4 to i64*
  %8 = load i64, i64* %7, align 8
  store i64 %8, i64* %RAX, align 8
  ret %struct.Memory* %2
}

; Function Attrs: norecurse nounwind
define %struct.Memory* @routine_movslq_MINUS0x24__rbp____rcx(%struct.State* nocapture dereferenceable(3376), i64, %struct.Memory* readnone returned) local_unnamed_addr #2 {
block_400488:
  %PC = getelementptr inbounds %struct.State, %struct.State* %0, i64 0, i32 6, i32 33, i32 0, i32 0
  %RCX = getelementptr inbounds %struct.State, %struct.State* %0, i64 0, i32 6, i32 5, i32 0, i32 0
  %RBP = getelementptr inbounds %struct.State, %struct.State* %0, i64 0, i32 6, i32 15, i32 0, i32 0
  %3 = load i64, i64* %RBP, align 8
  %4 = add i64 %3, -36
  %5 = load i64, i64* %PC, align 8
  %6 = add i64 %5, 4
  store i64 %6, i64* %PC, align 8
  %7 = inttoptr i64 %4 to i32*
  %8 = load i32, i32* %7, align 4
  %9 = sext i32 %8 to i64
  store i64 %9, i64* %RCX, align 8
  ret %struct.Memory* %2
}

; Function Attrs: norecurse nounwind
define %struct.Memory* @routine_movzwl___rax__rcx_2____edx(%struct.State* nocapture dereferenceable(3376), i64, %struct.Memory* readnone returned) local_unnamed_addr #2 {
block_400488:
  %PC = getelementptr inbounds %struct.State, %struct.State* %0, i64 0, i32 6, i32 33, i32 0, i32 0
  %RAX = getelementptr inbounds %struct.State, %struct.State* %0, i64 0, i32 6, i32 1, i32 0, i32 0
  %RCX = getelementptr inbounds %struct.State, %struct.State* %0, i64 0, i32 6, i32 5, i32 0, i32 0
  %RDX = getelementptr inbounds %struct.State, %struct.State* %0, i64 0, i32 6, i32 7, i32 0, i32 0
  %3 = load i64, i64* %RAX, align 8
  %4 = load i64, i64* %RCX, align 8
  %5 = shl i64 %4, 1
  %6 = add i64 %5, %3
  %7 = load i64, i64* %PC, align 8
  %8 = add i64 %7, 4
  store i64 %8, i64* %PC, align 8
  %9 = inttoptr i64 %6 to i16*
  %10 = load i16, i16* %9, align 2
  %11 = zext i16 %10 to i64
  store i64 %11, i64* %RDX, align 8
  ret %struct.Memory* %2
}

; Function Attrs: norecurse nounwind
define %struct.Memory* @routine_movzwl_MINUS0x1e__rbp____esi(%struct.State* nocapture dereferenceable(3376), i64, %struct.Memory* readnone returned) local_unnamed_addr #2 {
block_400488:
  %PC = getelementptr inbounds %struct.State, %struct.State* %0, i64 0, i32 6, i32 33, i32 0, i32 0
  %RSI = getelementptr inbounds %struct.State, %struct.State* %0, i64 0, i32 6, i32 9, i32 0, i32 0
  %RBP = getelementptr inbounds %struct.State, %struct.State* %0, i64 0, i32 6, i32 15, i32 0, i32 0
  %3 = load i64, i64* %RBP, align 8
  %4 = add i64 %3, -30
  %5 = load i64, i64* %PC, align 8
  %6 = add i64 %5, 4
  store i64 %6, i64* %PC, align 8
  %7 = inttoptr i64 %4 to i16*
  %8 = load i16, i16* %7, align 2
  %9 = zext i16 %8 to i64
  store i64 %9, i64* %RSI, align 8
  ret %struct.Memory* %2
}

; Function Attrs: nounwind
define %struct.Memory* @routine_addl__edx___esi(%struct.State* nocapture dereferenceable(3376), i64, %struct.Memory* readnone returned) local_unnamed_addr #3 {
block_400488:
  %PC = getelementptr inbounds %struct.State, %struct.State* %0, i64 0, i32 6, i32 33, i32 0, i32 0
  %3 = getelementptr inbounds %struct.State, %struct.State* %0, i64 0, i32 6, i32 7, i32 0
  %EDX = bitcast %union.anon* %3 to i32*
  %RSI = getelementptr inbounds %struct.State, %struct.State* %0, i64 0, i32 6, i32 9, i32 0, i32 0
  %4 = load i64, i64* %RSI, align 8
  %5 = load i32, i32* %EDX, align 4
  %6 = zext i32 %5 to i64
  %7 = load i64, i64* %PC, align 8
  %8 = add i64 %7, 2
  store i64 %8, i64* %PC, align 8
  %9 = trunc i64 %4 to i32
  %10 = add i32 %5, %9
  %11 = zext i32 %10 to i64
  store i64 %11, i64* %RSI, align 8
  %12 = icmp ult i32 %10, %9
  %13 = icmp ult i32 %10, %5
  %14 = or i1 %12, %13
  %15 = zext i1 %14 to i8
  %16 = getelementptr inbounds %struct.State, %struct.State* %0, i64 0, i32 2, i32 1
  store i8 %15, i8* %16, align 1
  %17 = and i32 %10, 255
  %18 = tail call i32 @llvm.ctpop.i32(i32 %17)
  %19 = trunc i32 %18 to i8
  %20 = and i8 %19, 1
  %21 = xor i8 %20, 1
  %22 = getelementptr inbounds %struct.State, %struct.State* %0, i64 0, i32 2, i32 3
  store i8 %21, i8* %22, align 1
  %23 = xor i64 %6, %4
  %24 = trunc i64 %23 to i32
  %25 = xor i32 %24, %10
  %26 = lshr i32 %25, 4
  %27 = trunc i32 %26 to i8
  %28 = and i8 %27, 1
  %29 = getelementptr inbounds %struct.State, %struct.State* %0, i64 0, i32 2, i32 5
  store i8 %28, i8* %29, align 1
  %30 = icmp eq i32 %10, 0
  %31 = zext i1 %30 to i8
  %32 = getelementptr inbounds %struct.State, %struct.State* %0, i64 0, i32 2, i32 7
  store i8 %31, i8* %32, align 1
  %33 = lshr i32 %10, 31
  %34 = trunc i32 %33 to i8
  %35 = getelementptr inbounds %struct.State, %struct.State* %0, i64 0, i32 2, i32 9
  store i8 %34, i8* %35, align 1
  %36 = lshr i32 %9, 31
  %37 = lshr i32 %5, 31
  %38 = xor i32 %33, %36
  %39 = xor i32 %33, %37
  %40 = add nuw nsw i32 %38, %39
  %41 = icmp eq i32 %40, 2
  %42 = zext i1 %41 to i8
  %43 = getelementptr inbounds %struct.State, %struct.State* %0, i64 0, i32 2, i32 13
  store i8 %42, i8* %43, align 1
  ret %struct.Memory* %2
}

; Function Attrs: norecurse nounwind
define %struct.Memory* @routine_movw__si___di(%struct.State* nocapture dereferenceable(3376), i64, %struct.Memory* readnone returned) local_unnamed_addr #2 {
block_400488:
  %PC = getelementptr inbounds %struct.State, %struct.State* %0, i64 0, i32 6, i32 33, i32 0, i32 0
  %3 = getelementptr inbounds %struct.State, %struct.State* %0, i64 0, i32 6, i32 9, i32 0
  %SI = bitcast %union.anon* %3 to i16*
  %4 = getelementptr inbounds %struct.State, %struct.State* %0, i64 0, i32 6, i32 11, i32 0
  %DI = bitcast %union.anon* %4 to i16*
  %5 = load i16, i16* %SI, align 2
  %6 = load i64, i64* %PC, align 8
  %7 = add i64 %6, 3
  store i64 %7, i64* %PC, align 8
  store i16 %5, i16* %DI, align 2
  ret %struct.Memory* %2
}

; Function Attrs: norecurse nounwind
define %struct.Memory* @routine_movw__di__MINUS0x1e__rbp_(%struct.State* nocapture dereferenceable(3376), i64, %struct.Memory* readnone returned) local_unnamed_addr #2 {
block_400488:
  %PC = getelementptr inbounds %struct.State, %struct.State* %0, i64 0, i32 6, i32 33, i32 0, i32 0
  %3 = getelementptr inbounds %struct.State, %struct.State* %0, i64 0, i32 6, i32 11, i32 0
  %DI = bitcast %union.anon* %3 to i16*
  %RBP = getelementptr inbounds %struct.State, %struct.State* %0, i64 0, i32 6, i32 15, i32 0, i32 0
  %4 = load i64, i64* %RBP, align 8
  %5 = add i64 %4, -30
  %6 = load i16, i16* %DI, align 2
  %7 = load i64, i64* %PC, align 8
  %8 = add i64 %7, 4
  store i64 %8, i64* %PC, align 8
  %9 = inttoptr i64 %5 to i16*
  store i16 %6, i16* %9, align 2
  ret %struct.Memory* %2
}

; Function Attrs: nounwind
define %struct.Memory* @routine_addl__0x1___eax(%struct.State* nocapture dereferenceable(3376), i64, %struct.Memory* readnone returned) local_unnamed_addr #3 {
block_400488:
  %PC = getelementptr inbounds %struct.State, %struct.State* %0, i64 0, i32 6, i32 33, i32 0, i32 0
  %RAX = getelementptr inbounds %struct.State, %struct.State* %0, i64 0, i32 6, i32 1, i32 0, i32 0
  %3 = load i64, i64* %RAX, align 8
  %4 = load i64, i64* %PC, align 8
  %5 = add i64 %4, 3
  store i64 %5, i64* %PC, align 8
  %6 = trunc i64 %3 to i32
  %7 = add i32 %6, 1
  %8 = zext i32 %7 to i64
  store i64 %8, i64* %RAX, align 8
  %9 = icmp eq i32 %6, -1
  %10 = icmp eq i32 %7, 0
  %11 = or i1 %9, %10
  %12 = zext i1 %11 to i8
  %13 = getelementptr inbounds %struct.State, %struct.State* %0, i64 0, i32 2, i32 1
  store i8 %12, i8* %13, align 1
  %14 = and i32 %7, 255
  %15 = tail call i32 @llvm.ctpop.i32(i32 %14)
  %16 = trunc i32 %15 to i8
  %17 = and i8 %16, 1
  %18 = xor i8 %17, 1
  %19 = getelementptr inbounds %struct.State, %struct.State* %0, i64 0, i32 2, i32 3
  store i8 %18, i8* %19, align 1
  %20 = xor i32 %7, %6
  %21 = lshr i32 %20, 4
  %22 = trunc i32 %21 to i8
  %23 = and i8 %22, 1
  %24 = getelementptr inbounds %struct.State, %struct.State* %0, i64 0, i32 2, i32 5
  store i8 %23, i8* %24, align 1
  %25 = zext i1 %10 to i8
  %26 = getelementptr inbounds %struct.State, %struct.State* %0, i64 0, i32 2, i32 7
  store i8 %25, i8* %26, align 1
  %27 = lshr i32 %7, 31
  %28 = trunc i32 %27 to i8
  %29 = getelementptr inbounds %struct.State, %struct.State* %0, i64 0, i32 2, i32 9
  store i8 %28, i8* %29, align 1
  %30 = lshr i32 %6, 31
  %31 = xor i32 %27, %30
  %32 = add nuw nsw i32 %31, %27
  %33 = icmp eq i32 %32, 2
  %34 = zext i1 %33 to i8
  %35 = getelementptr inbounds %struct.State, %struct.State* %0, i64 0, i32 2, i32 13
  store i8 %34, i8* %35, align 1
  ret %struct.Memory* %2
}

; Function Attrs: norecurse nounwind
define %struct.Memory* @routine_movl__eax__MINUS0x24__rbp_(%struct.State* nocapture dereferenceable(3376), i64, %struct.Memory* readnone returned) local_unnamed_addr #2 {
block_400488:
  %PC = getelementptr inbounds %struct.State, %struct.State* %0, i64 0, i32 6, i32 33, i32 0, i32 0
  %3 = getelementptr inbounds %struct.State, %struct.State* %0, i64 0, i32 6, i32 1, i32 0
  %EAX = bitcast %union.anon* %3 to i32*
  %RBP = getelementptr inbounds %struct.State, %struct.State* %0, i64 0, i32 6, i32 15, i32 0, i32 0
  %4 = load i64, i64* %RBP, align 8
  %5 = add i64 %4, -36
  %6 = load i32, i32* %EAX, align 4
  %7 = load i64, i64* %PC, align 8
  %8 = add i64 %7, 3
  store i64 %8, i64* %PC, align 8
  %9 = inttoptr i64 %5 to i32*
  store i32 %6, i32* %9, align 4
  ret %struct.Memory* %2
}

; Function Attrs: norecurse nounwind
define %struct.Memory* @routine_jmpq_.L_406403(%struct.State* nocapture dereferenceable(3376), i64, %struct.Memory* readnone returned, i64 %rel_off1, i64 %rel_off2) local_unnamed_addr #2 {
block_400488:
  %PC = getelementptr inbounds %struct.State, %struct.State* %0, i64 0, i32 6, i32 33, i32 0, i32 0
  %3 = load i64, i64* %PC, align 8
  %4 = add i64 %3, %rel_off1
  store i64 %4, i64* %PC, align 8
  ret %struct.Memory* %2
}

; Function Attrs: norecurse nounwind
define %struct.Memory* @routine_movl_MINUS0xc__rbp____eax(%struct.State* nocapture dereferenceable(3376), i64, %struct.Memory* readnone returned) local_unnamed_addr #2 {
block_400488:
  %PC = getelementptr inbounds %struct.State, %struct.State* %0, i64 0, i32 6, i32 33, i32 0, i32 0
  %RAX = getelementptr inbounds %struct.State, %struct.State* %0, i64 0, i32 6, i32 1, i32 0, i32 0
  %RBP = getelementptr inbounds %struct.State, %struct.State* %0, i64 0, i32 6, i32 15, i32 0, i32 0
  %3 = load i64, i64* %RBP, align 8
  %4 = add i64 %3, -12
  %5 = load i64, i64* %PC, align 8
  %6 = add i64 %5, 3
  store i64 %6, i64* %PC, align 8
  %7 = inttoptr i64 %4 to i32*
  %8 = load i32, i32* %7, align 4
  %9 = zext i32 %8 to i64
  store i64 %9, i64* %RAX, align 8
  ret %struct.Memory* %2
}

; Function Attrs: norecurse nounwind
define %struct.Memory* @routine_movzwl_MINUS0xe__rbp____ecx(%struct.State* nocapture dereferenceable(3376), i64, %struct.Memory* readnone returned) local_unnamed_addr #2 {
block_400488:
  %PC = getelementptr inbounds %struct.State, %struct.State* %0, i64 0, i32 6, i32 33, i32 0, i32 0
  %RCX = getelementptr inbounds %struct.State, %struct.State* %0, i64 0, i32 6, i32 5, i32 0, i32 0
  %RBP = getelementptr inbounds %struct.State, %struct.State* %0, i64 0, i32 6, i32 15, i32 0, i32 0
  %3 = load i64, i64* %RBP, align 8
  %4 = add i64 %3, -14
  %5 = load i64, i64* %PC, align 8
  %6 = add i64 %5, 4
  store i64 %6, i64* %PC, align 8
  %7 = inttoptr i64 %4 to i16*
  %8 = load i16, i16* %7, align 2
  %9 = zext i16 %8 to i64
  store i64 %9, i64* %RCX, align 8
  ret %struct.Memory* %2
}

; Function Attrs: nounwind
define %struct.Memory* @routine_imull__ecx___eax(%struct.State* nocapture dereferenceable(3376), i64, %struct.Memory* readnone returned) local_unnamed_addr #3 {
block_400488:
  %PC = getelementptr inbounds %struct.State, %struct.State* %0, i64 0, i32 6, i32 33, i32 0, i32 0
  %3 = getelementptr inbounds %struct.State, %struct.State* %0, i64 0, i32 6, i32 5, i32 0
  %ECX = bitcast %union.anon* %3 to i32*
  %RAX = getelementptr inbounds %struct.State, %struct.State* %0, i64 0, i32 6, i32 1, i32 0, i32 0
  %4 = load i64, i64* %RAX, align 8
  %5 = load i32, i32* %ECX, align 4
  %6 = load i64, i64* %PC, align 8
  %7 = add i64 %6, 3
  store i64 %7, i64* %PC, align 8
  %8 = shl i64 %4, 32
  %9 = ashr exact i64 %8, 32
  %10 = sext i32 %5 to i64
  %11 = mul nsw i64 %10, %9
  %12 = trunc i64 %11 to i32
  %13 = and i64 %11, 4294967295
  store i64 %13, i64* %RAX, align 8
  %14 = shl i64 %11, 32
  %15 = ashr exact i64 %14, 32
  %16 = icmp ne i64 %15, %11
  %17 = zext i1 %16 to i8
  %18 = getelementptr inbounds %struct.State, %struct.State* %0, i64 0, i32 2, i32 1
  store i8 %17, i8* %18, align 1
  %19 = and i32 %12, 255
  %20 = tail call i32 @llvm.ctpop.i32(i32 %19)
  %21 = trunc i32 %20 to i8
  %22 = and i8 %21, 1
  %23 = xor i8 %22, 1
  %24 = getelementptr inbounds %struct.State, %struct.State* %0, i64 0, i32 2, i32 3
  store i8 %23, i8* %24, align 1
  %25 = getelementptr inbounds %struct.State, %struct.State* %0, i64 0, i32 2, i32 5
  store i8 0, i8* %25, align 1
  %26 = getelementptr inbounds %struct.State, %struct.State* %0, i64 0, i32 2, i32 7
  store i8 0, i8* %26, align 1
  %27 = lshr i32 %12, 31
  %28 = trunc i32 %27 to i8
  %29 = getelementptr inbounds %struct.State, %struct.State* %0, i64 0, i32 2, i32 9
  store i8 %28, i8* %29, align 1
  %30 = getelementptr inbounds %struct.State, %struct.State* %0, i64 0, i32 2, i32 13
  store i8 %17, i8* %30, align 1
  ret %struct.Memory* %2
}

; Function Attrs: norecurse nounwind
define %struct.Memory* @routine_movzwl_MINUS0x1e__rbp____ecx(%struct.State* nocapture dereferenceable(3376), i64, %struct.Memory* readnone returned) local_unnamed_addr #2 {
block_400488:
  %PC = getelementptr inbounds %struct.State, %struct.State* %0, i64 0, i32 6, i32 33, i32 0, i32 0
  %RCX = getelementptr inbounds %struct.State, %struct.State* %0, i64 0, i32 6, i32 5, i32 0, i32 0
  %RBP = getelementptr inbounds %struct.State, %struct.State* %0, i64 0, i32 6, i32 15, i32 0, i32 0
  %3 = load i64, i64* %RBP, align 8
  %4 = add i64 %3, -30
  %5 = load i64, i64* %PC, align 8
  %6 = add i64 %5, 4
  store i64 %6, i64* %PC, align 8
  %7 = inttoptr i64 %4 to i16*
  %8 = load i16, i16* %7, align 2
  %9 = zext i16 %8 to i64
  store i64 %9, i64* %RCX, align 8
  ret %struct.Memory* %2
}

; Function Attrs: nounwind
define %struct.Memory* @routine_addl__eax___ecx(%struct.State* nocapture dereferenceable(3376), i64, %struct.Memory* readnone returned) local_unnamed_addr #3 {
block_400488:
  %PC = getelementptr inbounds %struct.State, %struct.State* %0, i64 0, i32 6, i32 33, i32 0, i32 0
  %3 = getelementptr inbounds %struct.State, %struct.State* %0, i64 0, i32 6, i32 1, i32 0
  %EAX = bitcast %union.anon* %3 to i32*
  %RCX = getelementptr inbounds %struct.State, %struct.State* %0, i64 0, i32 6, i32 5, i32 0, i32 0
  %4 = load i64, i64* %RCX, align 8
  %5 = load i32, i32* %EAX, align 4
  %6 = zext i32 %5 to i64
  %7 = load i64, i64* %PC, align 8
  %8 = add i64 %7, 2
  store i64 %8, i64* %PC, align 8
  %9 = trunc i64 %4 to i32
  %10 = add i32 %5, %9
  %11 = zext i32 %10 to i64
  store i64 %11, i64* %RCX, align 8
  %12 = icmp ult i32 %10, %9
  %13 = icmp ult i32 %10, %5
  %14 = or i1 %12, %13
  %15 = zext i1 %14 to i8
  %16 = getelementptr inbounds %struct.State, %struct.State* %0, i64 0, i32 2, i32 1
  store i8 %15, i8* %16, align 1
  %17 = and i32 %10, 255
  %18 = tail call i32 @llvm.ctpop.i32(i32 %17)
  %19 = trunc i32 %18 to i8
  %20 = and i8 %19, 1
  %21 = xor i8 %20, 1
  %22 = getelementptr inbounds %struct.State, %struct.State* %0, i64 0, i32 2, i32 3
  store i8 %21, i8* %22, align 1
  %23 = xor i64 %6, %4
  %24 = trunc i64 %23 to i32
  %25 = xor i32 %24, %10
  %26 = lshr i32 %25, 4
  %27 = trunc i32 %26 to i8
  %28 = and i8 %27, 1
  %29 = getelementptr inbounds %struct.State, %struct.State* %0, i64 0, i32 2, i32 5
  store i8 %28, i8* %29, align 1
  %30 = icmp eq i32 %10, 0
  %31 = zext i1 %30 to i8
  %32 = getelementptr inbounds %struct.State, %struct.State* %0, i64 0, i32 2, i32 7
  store i8 %31, i8* %32, align 1
  %33 = lshr i32 %10, 31
  %34 = trunc i32 %33 to i8
  %35 = getelementptr inbounds %struct.State, %struct.State* %0, i64 0, i32 2, i32 9
  store i8 %34, i8* %35, align 1
  %36 = lshr i32 %9, 31
  %37 = lshr i32 %5, 31
  %38 = xor i32 %33, %36
  %39 = xor i32 %33, %37
  %40 = add nuw nsw i32 %38, %39
  %41 = icmp eq i32 %40, 2
  %42 = zext i1 %41 to i8
  %43 = getelementptr inbounds %struct.State, %struct.State* %0, i64 0, i32 2, i32 13
  store i8 %42, i8* %43, align 1
  ret %struct.Memory* %2
}

; Function Attrs: norecurse nounwind
define %struct.Memory* @routine_movw__cx___dx(%struct.State* nocapture dereferenceable(3376), i64, %struct.Memory* readnone returned) local_unnamed_addr #2 {
block_400488:
  %PC = getelementptr inbounds %struct.State, %struct.State* %0, i64 0, i32 6, i32 33, i32 0, i32 0
  %3 = getelementptr inbounds %struct.State, %struct.State* %0, i64 0, i32 6, i32 5, i32 0
  %CX = bitcast %union.anon* %3 to i16*
  %4 = getelementptr inbounds %struct.State, %struct.State* %0, i64 0, i32 6, i32 7, i32 0
  %DX = bitcast %union.anon* %4 to i16*
  %5 = load i16, i16* %CX, align 2
  %6 = load i64, i64* %PC, align 8
  %7 = add i64 %6, 3
  store i64 %7, i64* %PC, align 8
  store i16 %5, i16* %DX, align 2
  ret %struct.Memory* %2
}

; Function Attrs: norecurse nounwind
define %struct.Memory* @routine_movw__dx__MINUS0x1e__rbp_(%struct.State* nocapture dereferenceable(3376), i64, %struct.Memory* readnone returned) local_unnamed_addr #2 {
block_400488:
  %PC = getelementptr inbounds %struct.State, %struct.State* %0, i64 0, i32 6, i32 33, i32 0, i32 0
  %3 = getelementptr inbounds %struct.State, %struct.State* %0, i64 0, i32 6, i32 7, i32 0
  %DX = bitcast %union.anon* %3 to i16*
  %RBP = getelementptr inbounds %struct.State, %struct.State* %0, i64 0, i32 6, i32 15, i32 0, i32 0
  %4 = load i64, i64* %RBP, align 8
  %5 = add i64 %4, -30
  %6 = load i16, i16* %DX, align 2
  %7 = load i64, i64* %PC, align 8
  %8 = add i64 %7, 4
  store i64 %8, i64* %PC, align 8
  %9 = inttoptr i64 %5 to i16*
  store i16 %6, i16* %9, align 2
  ret %struct.Memory* %2
}

; Function Attrs: norecurse nounwind
define %struct.Memory* @routine_movw_MINUS0x1e__rbp____dx(%struct.State* nocapture dereferenceable(3376), i64, %struct.Memory* readnone returned) local_unnamed_addr #2 {
block_400488:
  %PC = getelementptr inbounds %struct.State, %struct.State* %0, i64 0, i32 6, i32 33, i32 0, i32 0
  %3 = getelementptr inbounds %struct.State, %struct.State* %0, i64 0, i32 6, i32 7, i32 0
  %DX = bitcast %union.anon* %3 to i16*
  %RBP = getelementptr inbounds %struct.State, %struct.State* %0, i64 0, i32 6, i32 15, i32 0, i32 0
  %4 = load i64, i64* %RBP, align 8
  %5 = add i64 %4, -30
  %6 = load i64, i64* %PC, align 8
  %7 = add i64 %6, 4
  store i64 %7, i64* %PC, align 8
  %8 = inttoptr i64 %5 to i16*
  %9 = load i16, i16* %8, align 2
  store i16 %9, i16* %DX, align 2
  ret %struct.Memory* %2
}

; Function Attrs: norecurse nounwind
define %struct.Memory* @routine_movzwl__dx___edi(%struct.State* nocapture dereferenceable(3376), i64, %struct.Memory* readnone returned) local_unnamed_addr #2 {
block_400488:
  %PC = getelementptr inbounds %struct.State, %struct.State* %0, i64 0, i32 6, i32 33, i32 0, i32 0
  %3 = getelementptr inbounds %struct.State, %struct.State* %0, i64 0, i32 6, i32 7, i32 0
  %DX = bitcast %union.anon* %3 to i16*
  %RDI = getelementptr inbounds %struct.State, %struct.State* %0, i64 0, i32 6, i32 11, i32 0, i32 0
  %4 = load i16, i16* %DX, align 2
  %5 = zext i16 %4 to i64
  %6 = load i64, i64* %PC, align 8
  %7 = add i64 %6, 3
  store i64 %7, i64* %PC, align 8
  store i64 %5, i64* %RDI, align 8
  ret %struct.Memory* %2
}

; Function Attrs: norecurse nounwind
define %struct.Memory* @routine_movzwl_MINUS0xe__rbp____esi(%struct.State* nocapture dereferenceable(3376), i64, %struct.Memory* readnone returned) local_unnamed_addr #2 {
block_400488:
  %PC = getelementptr inbounds %struct.State, %struct.State* %0, i64 0, i32 6, i32 33, i32 0, i32 0
  %RSI = getelementptr inbounds %struct.State, %struct.State* %0, i64 0, i32 6, i32 9, i32 0, i32 0
  %RBP = getelementptr inbounds %struct.State, %struct.State* %0, i64 0, i32 6, i32 15, i32 0, i32 0
  %3 = load i64, i64* %RBP, align 8
  %4 = add i64 %3, -14
  %5 = load i64, i64* %PC, align 8
  %6 = add i64 %5, 4
  store i64 %6, i64* %PC, align 8
  %7 = inttoptr i64 %4 to i16*
  %8 = load i16, i16* %7, align 2
  %9 = zext i16 %8 to i64
  store i64 %9, i64* %RSI, align 8
  ret %struct.Memory* %2
}

; Function Attrs: norecurse nounwind
define %struct.Memory* @routine_callq_._Z26check_shifted_variable_sumIt19custom_add_variableItEEvT_S2_(%struct.State* nocapture dereferenceable(3376), i64, %struct.Memory* readnone returned, i64 %rel_off1, i64 %rel_off2, i64 %rel_off3) local_unnamed_addr #2 {
block_400488:
  %PC = getelementptr inbounds %struct.State, %struct.State* %0, i64 0, i32 6, i32 33, i32 0, i32 0
  %3 = load i64, i64* %PC, align 8
  %4 = add i64 %3, %rel_off1
  %5 = add i64 %3, %rel_off2
  %6 = getelementptr inbounds %struct.State, %struct.State* %0, i64 0, i32 6, i32 13, i32 0, i32 0
  %7 = load i64, i64* %6, align 8
  %8 = add i64 %7, -8
  %9 = inttoptr i64 %8 to i64*
  store i64 %5, i64* %9, align 8
  store i64 %8, i64* %6, align 8
  store i64 %4, i64* %PC, align 8
  ret %struct.Memory* %2
}

; Function Attrs: norecurse nounwind
define %struct.Memory* @routine_movl__eax__MINUS0x1c__rbp_(%struct.State* nocapture dereferenceable(3376), i64, %struct.Memory* readnone returned) local_unnamed_addr #2 {
block_400488:
  %PC = getelementptr inbounds %struct.State, %struct.State* %0, i64 0, i32 6, i32 33, i32 0, i32 0
  %3 = getelementptr inbounds %struct.State, %struct.State* %0, i64 0, i32 6, i32 1, i32 0
  %EAX = bitcast %union.anon* %3 to i32*
  %RBP = getelementptr inbounds %struct.State, %struct.State* %0, i64 0, i32 6, i32 15, i32 0, i32 0
  %4 = load i64, i64* %RBP, align 8
  %5 = add i64 %4, -28
  %6 = load i32, i32* %EAX, align 4
  %7 = load i64, i64* %PC, align 8
  %8 = add i64 %7, 3
  store i64 %8, i64* %PC, align 8
  %9 = inttoptr i64 %5 to i32*
  store i32 %6, i32* %9, align 4
  ret %struct.Memory* %2
}

; Function Attrs: norecurse nounwind
define %struct.Memory* @routine_jmpq_.L_4063e6(%struct.State* nocapture dereferenceable(3376), i64, %struct.Memory* readnone returned, i64 %rel_off1, i64 %rel_off2) local_unnamed_addr #2 {
block_400488:
  %PC = getelementptr inbounds %struct.State, %struct.State* %0, i64 0, i32 6, i32 33, i32 0, i32 0
  %3 = load i64, i64* %PC, align 8
  %4 = add i64 %3, %rel_off1
  store i64 %4, i64* %PC, align 8
  ret %struct.Memory* %2
}

; Function Attrs: norecurse nounwind
define %struct.Memory* @routine_callq_._Z5timerv(%struct.State* nocapture dereferenceable(3376), i64, %struct.Memory* readnone returned, i64 %rel_off1, i64 %rel_off2, i64 %rel_off3) local_unnamed_addr #2 {
block_400488:
  %PC = getelementptr inbounds %struct.State, %struct.State* %0, i64 0, i32 6, i32 33, i32 0, i32 0
  %3 = load i64, i64* %PC, align 8
  %4 = add i64 %3, %rel_off1
  %5 = add i64 %3, %rel_off2
  %6 = getelementptr inbounds %struct.State, %struct.State* %0, i64 0, i32 6, i32 13, i32 0, i32 0
  %7 = load i64, i64* %6, align 8
  %8 = add i64 %7, -8
  %9 = inttoptr i64 %8 to i64*
  store i64 %5, i64* %9, align 8
  store i64 %8, i64* %6, align 8
  store i64 %4, i64* %PC, align 8
  ret %struct.Memory* %2
}

; Function Attrs: norecurse nounwind
define %struct.Memory* @routine_movq_MINUS0x18__rbp____rdi(%struct.State* nocapture dereferenceable(3376), i64, %struct.Memory* readnone returned) local_unnamed_addr #2 {
block_400488:
  %PC = getelementptr inbounds %struct.State, %struct.State* %0, i64 0, i32 6, i32 33, i32 0, i32 0
  %RDI = getelementptr inbounds %struct.State, %struct.State* %0, i64 0, i32 6, i32 11, i32 0, i32 0
  %RBP = getelementptr inbounds %struct.State, %struct.State* %0, i64 0, i32 6, i32 15, i32 0, i32 0
  %3 = load i64, i64* %RBP, align 8
  %4 = add i64 %3, -24
  %5 = load i64, i64* %PC, align 8
  %6 = add i64 %5, 4
  store i64 %6, i64* %PC, align 8
  %7 = inttoptr i64 %4 to i64*
  %8 = load i64, i64* %7, align 8
  store i64 %8, i64* %RDI, align 8
  ret %struct.Memory* %2
}

; Function Attrs: norecurse nounwind
define %struct.Memory* @routine_callq_._Z13record_resultdPKc(%struct.State* nocapture dereferenceable(3376), i64, %struct.Memory* readnone returned, i64 %rel_off1, i64 %rel_off2, i64 %rel_off3) local_unnamed_addr #2 {
block_400488:
  %PC = getelementptr inbounds %struct.State, %struct.State* %0, i64 0, i32 6, i32 33, i32 0, i32 0
  %3 = load i64, i64* %PC, align 8
  %4 = add i64 %3, %rel_off1
  %5 = add i64 %3, %rel_off2
  %6 = getelementptr inbounds %struct.State, %struct.State* %0, i64 0, i32 6, i32 13, i32 0, i32 0
  %7 = load i64, i64* %6, align 8
  %8 = add i64 %7, -8
  %9 = inttoptr i64 %8 to i64*
  store i64 %5, i64* %9, align 8
  store i64 %8, i64* %6, align 8
  store i64 %4, i64* %PC, align 8
  ret %struct.Memory* %2
}

; Function Attrs: nounwind
define %struct.Memory* @routine_addq__0x30___rsp(%struct.State* nocapture dereferenceable(3376), i64, %struct.Memory* readnone returned) local_unnamed_addr #3 {
block_400488:
  %PC = getelementptr inbounds %struct.State, %struct.State* %0, i64 0, i32 6, i32 33, i32 0, i32 0
  %RSP = getelementptr inbounds %struct.State, %struct.State* %0, i64 0, i32 6, i32 13, i32 0, i32 0
  %3 = load i64, i64* %RSP, align 8
  %4 = load i64, i64* %PC, align 8
  %5 = add i64 %4, 4
  store i64 %5, i64* %PC, align 8
  %6 = add i64 %3, 48
  store i64 %6, i64* %RSP, align 8
  %7 = icmp ugt i64 %3, -49
  %8 = zext i1 %7 to i8
  %9 = getelementptr inbounds %struct.State, %struct.State* %0, i64 0, i32 2, i32 1
  store i8 %8, i8* %9, align 1
  %10 = trunc i64 %6 to i32
  %11 = and i32 %10, 255
  %12 = tail call i32 @llvm.ctpop.i32(i32 %11)
  %13 = trunc i32 %12 to i8
  %14 = and i8 %13, 1
  %15 = xor i8 %14, 1
  %16 = getelementptr inbounds %struct.State, %struct.State* %0, i64 0, i32 2, i32 3
  store i8 %15, i8* %16, align 1
  %17 = xor i64 %3, 16
  %18 = xor i64 %17, %6
  %19 = lshr i64 %18, 4
  %20 = trunc i64 %19 to i8
  %21 = and i8 %20, 1
  %22 = getelementptr inbounds %struct.State, %struct.State* %0, i64 0, i32 2, i32 5
  store i8 %21, i8* %22, align 1
  %23 = icmp eq i64 %6, 0
  %24 = zext i1 %23 to i8
  %25 = getelementptr inbounds %struct.State, %struct.State* %0, i64 0, i32 2, i32 7
  store i8 %24, i8* %25, align 1
  %26 = lshr i64 %6, 63
  %27 = trunc i64 %26 to i8
  %28 = getelementptr inbounds %struct.State, %struct.State* %0, i64 0, i32 2, i32 9
  store i8 %27, i8* %28, align 1
  %29 = lshr i64 %3, 63
  %30 = xor i64 %26, %29
  %31 = add nuw nsw i64 %30, %26
  %32 = icmp eq i64 %31, 2
  %33 = zext i1 %32 to i8
  %34 = getelementptr inbounds %struct.State, %struct.State* %0, i64 0, i32 2, i32 13
  store i8 %33, i8* %34, align 1
  ret %struct.Memory* %2
}

; Function Attrs: norecurse nounwind
define %struct.Memory* @routine_popq__rbp(%struct.State* nocapture dereferenceable(3376), i64, %struct.Memory* readnone returned) local_unnamed_addr #2 {
block_400488:
  %PC = getelementptr inbounds %struct.State, %struct.State* %0, i64 0, i32 6, i32 33, i32 0, i32 0
  %RBP = getelementptr inbounds %struct.State, %struct.State* %0, i64 0, i32 6, i32 15, i32 0, i32 0
  %3 = load i64, i64* %PC, align 8
  %4 = add i64 %3, 1
  store i64 %4, i64* %PC, align 8
  %5 = getelementptr inbounds %struct.State, %struct.State* %0, i64 0, i32 6, i32 13, i32 0, i32 0
  %6 = load i64, i64* %5, align 8
  %7 = add i64 %6, 8
  %8 = inttoptr i64 %6 to i64*
  %9 = load i64, i64* %8, align 8
  store i64 %9, i64* %RBP, align 8
  store i64 %7, i64* %5, align 8
  ret %struct.Memory* %2
}

; Function Attrs: norecurse nounwind
define %struct.Memory* @routine_retq(%struct.State* nocapture dereferenceable(3376), i64, %struct.Memory* readnone returned) local_unnamed_addr #2 {
block_400488:
  %PC = getelementptr inbounds %struct.State, %struct.State* %0, i64 0, i32 6, i32 33, i32 0, i32 0
  %3 = load i64, i64* %PC, align 8
  %4 = add i64 %3, 1
  store i64 %4, i64* %PC, align 8
  %5 = getelementptr inbounds %struct.State, %struct.State* %0, i64 0, i32 6, i32 13, i32 0, i32 0
  %6 = load i64, i64* %5, align 8
  %7 = inttoptr i64 %6 to i64*
  %8 = load i64, i64* %7, align 8
  store i64 %8, i64* %PC, align 8
  %9 = add i64 %6, 8
  store i64 %9, i64* %5, align 8
  ret %struct.Memory* %2
}

attributes #0 = { nounwind readnone }
attributes #1 = { alwaysinline }
attributes #2 = { norecurse nounwind }
attributes #3 = { nounwind }
