; ModuleID = 'mcsema/test.proposed.ll'
source_filename = "llvm-link"
target datalayout = "e-m:e-i64:64-f80:128-n8:16:32:64-S128"
target triple = "x86_64-pc-linux-gnu-elf"

%union.anon = type { i64 }
%seg_400388__init_type = type <{ [23 x i8] }>
%seg_4003a0__text_type = type <{ [354 x i8] }>
%seg_400504__fini_type = type <{ [9 x i8] }>
%seg_400510__rodata_type = type <{ [4 x i8] }>
%seg_400514__eh_frame_hdr_type = type <{ [52 x i8] }>
%seg_400548__eh_frame_type = type <{ [208 x i8] }>
%seg_601018__data_type = type <{ [16 x i8] }>
%__bss_start_type = type <{ [8 x i8] }>
%struct.State = type { %struct.ArchState, [32 x %union.VectorReg], %struct.ArithFlags, %union.anon, %struct.Segments, %struct.AddressSpace, %struct.GPR, %struct.X87Stack, %struct.MMX, %struct.FPUStatusFlags, %union.anon, %union.FPU, %struct.SegmentCaches }
%struct.ArchState = type { i32, i32, %union.anon }
%union.VectorReg = type { %union.vec512_t }
%union.vec512_t = type { %struct.uint64v8_t }
%struct.uint64v8_t = type { [8 x i64] }
%struct.ArithFlags = type { i8, i8, i8, i8, i8, i8, i8, i8, i8, i8, i8, i8, i8, i8, i8, i8 }
%struct.Segments = type { i16, %union.SegmentSelector, i16, %union.SegmentSelector, i16, %union.SegmentSelector, i16, %union.SegmentSelector, i16, %union.SegmentSelector, i16, %union.SegmentSelector }
%union.SegmentSelector = type { i16 }
%struct.AddressSpace = type { i64, %struct.Reg, i64, %struct.Reg, i64, %struct.Reg, i64, %struct.Reg, i64, %struct.Reg, i64, %struct.Reg }
%struct.Reg = type { %union.anon }
%struct.GPR = type { i64, %struct.Reg, i64, %struct.Reg, i64, %struct.Reg, i64, %struct.Reg, i64, %struct.Reg, i64, %struct.Reg, i64, %struct.Reg, i64, %struct.Reg, i64, %struct.Reg, i64, %struct.Reg, i64, %struct.Reg, i64, %struct.Reg, i64, %struct.Reg, i64, %struct.Reg, i64, %struct.Reg, i64, %struct.Reg, i64, %struct.Reg }
%struct.X87Stack = type { [8 x %struct.anon.3] }
%struct.anon.3 = type { i64, double }
%struct.MMX = type { [8 x %struct.anon.4] }
%struct.anon.4 = type { i64, %union.vec64_t }
%union.vec64_t = type { %struct.uint64v1_t }
%struct.uint64v1_t = type { [1 x i64] }
%struct.FPUStatusFlags = type { i8, i8, i8, i8, i8, i8, i8, i8, i8, i8, i8, i8, i8, i8, i8, i8, i8, i8, i8, i8, [4 x i8] }
%union.FPU = type { %struct.anon.13 }
%struct.anon.13 = type { %struct.FpuFXSAVE, [96 x i8] }
%struct.FpuFXSAVE = type { %union.SegmentSelector, %union.SegmentSelector, %union.FPUAbridgedTagWord, i8, i16, i32, %union.SegmentSelector, i16, i32, %union.SegmentSelector, i16, %union.FPUControlStatus, %union.FPUControlStatus, [8 x %struct.FPUStackElem], [16 x %union.vec128_t] }
%union.FPUAbridgedTagWord = type { i8 }
%union.FPUControlStatus = type { i32 }
%struct.FPUStackElem = type { %union.anon.11, [6 x i8] }
%union.anon.11 = type { %struct.float80_t }
%struct.float80_t = type { [10 x i8] }
%union.vec128_t = type { %struct.uint128v1_t }
%struct.uint128v1_t = type { [1 x i128] }
%struct.SegmentCaches = type { %struct.SegmentShadow, %struct.SegmentShadow, %struct.SegmentShadow, %struct.SegmentShadow, %struct.SegmentShadow, %struct.SegmentShadow }
%struct.SegmentShadow = type { %union.anon, i32, i32 }
%struct.Memory = type opaque

@switch.table = private unnamed_addr constant [4 x i32] [i32 2048, i32 3072, i32 0, i32 1024]
@DR0 = external global i64, align 8
@DR1 = external global i64, align 8
@DR2 = external global i64, align 8
@DR3 = external global i64, align 8
@DR4 = external global i64, align 8
@DR5 = external global i64, align 8
@DR6 = external global i64, align 8
@DR7 = external global i64, align 8
@gCR0 = external global %union.anon, align 1
@gCR1 = external global %union.anon, align 1
@gCR2 = external global %union.anon, align 1
@gCR3 = external global %union.anon, align 1
@gCR4 = external global %union.anon, align 1
@gCR8 = external global %union.anon, align 1
@seg_400388__init = internal constant %seg_400388__init_type <{ [23 x i8] c"H\83\EC\08H\8B\05e\0C \00H\85\C0t\02\FF\D0H\83\C4\08\C3" }>
@seg_4003a0__text = internal constant %seg_4003a0__text_type <{ [354 x i8] c"1\EDI\89\D1^H\89\E2H\83\E4\F0PTI\C7\C0\00\05@\00H\C7\C1\90\04@\00H\C7\C7\88\04@\00\FF\15&\0C \00\F4\0F\1FD\00\00\F3\C3f.\0F\1F\84\00\00\00\00\00\0F\1F@\00U\B8(\10`\00H=(\10`\00H\89\E5t\17\B8\00\00\00\00H\85\C0t\0D]\BF(\10`\00\FF\E0\0F\1FD\00\00]\C3f\0F\1FD\00\00\BE(\10`\00UH\81\EE(\10`\00H\89\E5H\C1\FE\03H\89\F0H\C1\E8?H\01\C6H\D1\FEt\15\B8\00\00\00\00H\85\C0t\0B]\BF(\10`\00\FF\E0\0F\1F\00]\C3f\0F\1FD\00\00\80=\D1\0B \00\00u\17UH\89\E5\E8~\FF\FF\FF\C6\05\BF\0B \00\01]\C3\0F\1FD\00\00\F3\C3\0F\1F@\00f.\0F\1F\84\00\00\00\00\00UH\89\E5]\EB\89\90U\C3f\0F\1FD\00\00AWAVI\89\D7AUATL\8D%\9E\09 \00UH\8D-\9E\09 \00SA\89\FDI\89\F6L)\E5H\83\EC\08H\C1\FD\03\E8\C7\FE\FF\FFH\85\EDt 1\DB\0F\1F\84\00\00\00\00\00L\89\FAL\89\F6D\89\EFA\FF\14\DCH\83\C3\01H9\DDu\EAH\83\C4\08[]A\5CA]A^A_\C3\90f.\0F\1F\84\00\00\00\00\00\F3\C3" }>
@seg_400504__fini = internal constant %seg_400504__fini_type <{ [9 x i8] c"H\83\EC\08H\83\C4\08\C3" }>
@seg_400510__rodata = internal constant %seg_400510__rodata_type <{ [4 x i8] c"\01\00\02\00" }>
@seg_400514__eh_frame_hdr = internal constant %seg_400514__eh_frame_hdr_type <{ [52 x i8] c"\01\1B\03;0\00\00\00\05\00\00\00\8C\FE\FF\FFL\00\00\00\BC\FE\FF\FFx\00\00\00t\FF\FF\FF\8C\00\00\00|\FF\FF\FF\A4\00\00\00\EC\FF\FF\FF\EC\00\00\00" }>
@seg_400548__eh_frame = internal constant %seg_400548__eh_frame_type <{ [208 x i8] c"\14\00\00\00\00\00\00\00\01zR\00\01x\10\01\1B\0C\07\08\90\01\07\10\10\00\00\00\1C\00\00\008\FE\FF\FF+\00\00\00\00\00\00\00\14\00\00\00\00\00\00\00\01zR\00\01x\10\01\1B\0C\07\08\90\01\00\00\10\00\00\00\1C\00\00\00<\FE\FF\FF\02\00\00\00\00\00\00\00\14\00\00\000\00\00\00\E0\FE\FF\FF\02\00\00\00\00\00\00\00\00\00\00\00D\00\00\00H\00\00\00\D0\FE\FF\FFe\00\00\00\00B\0E\10\8F\02B\0E\18\8E\03E\0E \8D\04B\0E(\8C\05H\0E0\86\06H\0E8\83\07M\0E@r\0E8A\0E0A\0E(B\0E B\0E\18B\0E\10B\0E\08\00\10\00\00\00\90\00\00\00\F8\FE\FF\FF\02\00\00\00\00\00\00\00\00\00\00\00" }>
@seg_601018__data = internal global %seg_601018__data_type zeroinitializer
@__bss_start = global %__bss_start_type zeroinitializer
@0 = internal global i1 false

; Function Attrs: nounwind readnone
declare i32 @llvm.ctpop.i32(i32) #0

declare %struct.Memory* @__remill_error(%struct.State* dereferenceable(3376), i64, %struct.Memory*)

declare %struct.Memory* @sub_400e50._Z11start_timerv(%struct.State* dereferenceable(3376), i64, %struct.Memory*)

declare %struct.Memory* @sub_411070._Z26check_shifted_variable_sumIt19custom_add_variableItEEvT_S2_(%struct.State* dereferenceable(3376), i64, %struct.Memory*)

declare %struct.Memory* @sub_400e70._Z5timerv(%struct.State* dereferenceable(3376), i64, %struct.Memory*)

declare %struct.Memory* @sub_400810._Z13record_resultdPKc(%struct.State* dereferenceable(3376), i64, %struct.Memory*)

; Function Attrs: alwaysinline
define %struct.Memory* @_Z22test_hoisted_variable1It19custom_add_variableItEEvPT_iS2_PKc(%struct.State* noalias, i64, %struct.Memory* noalias) #1 {
entry:
  %3 = getelementptr inbounds %struct.State, %struct.State* %0, i64 0, i32 6, i32 33, i32 0, i32 0
  store i64 %1, i64* %3, align 8
  %BRANCH_TAKEN = alloca i8, align 1
  store i8 0, i8* %BRANCH_TAKEN, align 1
  %MEMORY = alloca %struct.Memory*, align 8
  store %struct.Memory* %2, %struct.Memory** %MEMORY, align 8
  %loadMem_4063c0 = load %struct.Memory*, %struct.Memory** %MEMORY
  %4 = getelementptr inbounds %struct.State, %struct.State* %0, i32 0, i32 6
  %5 = getelementptr inbounds %struct.GPR, %struct.GPR* %4, i32 0, i32 33
  %6 = getelementptr inbounds %struct.Reg, %struct.Reg* %5, i32 0, i32 0
  %PC.i = bitcast %union.anon* %6 to i64*
  %7 = getelementptr inbounds %struct.State, %struct.State* %0, i32 0, i32 6
  %8 = getelementptr inbounds %struct.GPR, %struct.GPR* %7, i32 0, i32 15
  %9 = getelementptr inbounds %struct.Reg, %struct.Reg* %8, i32 0, i32 0
  %RBP.i = bitcast %union.anon* %9 to i64*
  %10 = load i64, i64* %RBP.i
  %11 = load i64, i64* %PC.i
  %12 = add i64 %11, 1
  store i64 %12, i64* %PC.i
  %13 = getelementptr inbounds %struct.State, %struct.State* %0, i64 0, i32 6, i32 13, i32 0, i32 0
  %14 = load i64, i64* %13, align 8
  %15 = add i64 %14, -8
  %16 = inttoptr i64 %15 to i64*
  store i64 %10, i64* %16
  store i64 %15, i64* %13, align 8
  store %struct.Memory* %loadMem_4063c0, %struct.Memory** %MEMORY
  %loadMem_4063c1 = load %struct.Memory*, %struct.Memory** %MEMORY
  %17 = getelementptr inbounds %struct.State, %struct.State* %0, i32 0, i32 6
  %18 = getelementptr inbounds %struct.GPR, %struct.GPR* %17, i32 0, i32 33
  %19 = getelementptr inbounds %struct.Reg, %struct.Reg* %18, i32 0, i32 0
  %PC.i104 = bitcast %union.anon* %19 to i64*
  %20 = getelementptr inbounds %struct.State, %struct.State* %0, i32 0, i32 6
  %21 = getelementptr inbounds %struct.GPR, %struct.GPR* %20, i32 0, i32 13
  %22 = getelementptr inbounds %struct.Reg, %struct.Reg* %21, i32 0, i32 0
  %RSP.i105 = bitcast %union.anon* %22 to i64*
  %23 = getelementptr inbounds %struct.State, %struct.State* %0, i32 0, i32 6
  %24 = getelementptr inbounds %struct.GPR, %struct.GPR* %23, i32 0, i32 15
  %25 = getelementptr inbounds %struct.Reg, %struct.Reg* %24, i32 0, i32 0
  %RBP.i106 = bitcast %union.anon* %25 to i64*
  %26 = load i64, i64* %RSP.i105
  %27 = load i64, i64* %PC.i104
  %28 = add i64 %27, 3
  store i64 %28, i64* %PC.i104
  store i64 %26, i64* %RBP.i106, align 8
  store %struct.Memory* %loadMem_4063c1, %struct.Memory** %MEMORY
  %loadMem_4063c4 = load %struct.Memory*, %struct.Memory** %MEMORY
  %29 = getelementptr inbounds %struct.State, %struct.State* %0, i32 0, i32 6
  %30 = getelementptr inbounds %struct.GPR, %struct.GPR* %29, i32 0, i32 33
  %31 = getelementptr inbounds %struct.Reg, %struct.Reg* %30, i32 0, i32 0
  %PC.i102 = bitcast %union.anon* %31 to i64*
  %32 = getelementptr inbounds %struct.State, %struct.State* %0, i32 0, i32 6
  %33 = getelementptr inbounds %struct.GPR, %struct.GPR* %32, i32 0, i32 13
  %34 = getelementptr inbounds %struct.Reg, %struct.Reg* %33, i32 0, i32 0
  %RSP.i103 = bitcast %union.anon* %34 to i64*
  %35 = load i64, i64* %RSP.i103
  %36 = load i64, i64* %PC.i102
  %37 = add i64 %36, 4
  store i64 %37, i64* %PC.i102
  %38 = sub i64 %35, 48
  store i64 %38, i64* %RSP.i103, align 8
  %39 = icmp ult i64 %35, 48
  %40 = zext i1 %39 to i8
  %41 = getelementptr inbounds %struct.State, %struct.State* %0, i64 0, i32 2, i32 1
  store i8 %40, i8* %41, align 1
  %42 = trunc i64 %38 to i32
  %43 = and i32 %42, 255
  %44 = call i32 @llvm.ctpop.i32(i32 %43)
  %45 = trunc i32 %44 to i8
  %46 = and i8 %45, 1
  %47 = xor i8 %46, 1
  %48 = getelementptr inbounds %struct.State, %struct.State* %0, i64 0, i32 2, i32 3
  store i8 %47, i8* %48, align 1
  %49 = xor i64 48, %35
  %50 = xor i64 %49, %38
  %51 = lshr i64 %50, 4
  %52 = trunc i64 %51 to i8
  %53 = and i8 %52, 1
  %54 = getelementptr inbounds %struct.State, %struct.State* %0, i64 0, i32 2, i32 5
  store i8 %53, i8* %54, align 1
  %55 = icmp eq i64 %38, 0
  %56 = zext i1 %55 to i8
  %57 = getelementptr inbounds %struct.State, %struct.State* %0, i64 0, i32 2, i32 7
  store i8 %56, i8* %57, align 1
  %58 = lshr i64 %38, 63
  %59 = trunc i64 %58 to i8
  %60 = getelementptr inbounds %struct.State, %struct.State* %0, i64 0, i32 2, i32 9
  store i8 %59, i8* %60, align 1
  %61 = lshr i64 %35, 63
  %62 = xor i64 %58, %61
  %63 = add i64 %62, %61
  %64 = icmp eq i64 %63, 2
  %65 = zext i1 %64 to i8
  %66 = getelementptr inbounds %struct.State, %struct.State* %0, i64 0, i32 2, i32 13
  store i8 %65, i8* %66, align 1
  store %struct.Memory* %loadMem_4063c4, %struct.Memory** %MEMORY
  %loadMem_4063c8 = load %struct.Memory*, %struct.Memory** %MEMORY
  %67 = getelementptr inbounds %struct.State, %struct.State* %0, i32 0, i32 6
  %68 = getelementptr inbounds %struct.GPR, %struct.GPR* %67, i32 0, i32 33
  %69 = getelementptr inbounds %struct.Reg, %struct.Reg* %68, i32 0, i32 0
  %PC.i99 = bitcast %union.anon* %69 to i64*
  %70 = getelementptr inbounds %struct.State, %struct.State* %0, i32 0, i32 6
  %71 = getelementptr inbounds %struct.GPR, %struct.GPR* %70, i32 0, i32 1
  %72 = getelementptr inbounds %struct.Reg, %struct.Reg* %71, i32 0, i32 0
  %AX.i100 = bitcast %union.anon* %72 to i16*
  %73 = getelementptr inbounds %struct.State, %struct.State* %0, i32 0, i32 6
  %74 = getelementptr inbounds %struct.GPR, %struct.GPR* %73, i32 0, i32 7
  %75 = getelementptr inbounds %struct.Reg, %struct.Reg* %74, i32 0, i32 0
  %DX.i101 = bitcast %union.anon* %75 to i16*
  %76 = load i16, i16* %DX.i101
  %77 = zext i16 %76 to i64
  %78 = load i64, i64* %PC.i99
  %79 = add i64 %78, 3
  store i64 %79, i64* %PC.i99
  store i16 %76, i16* %AX.i100, align 2
  store %struct.Memory* %loadMem_4063c8, %struct.Memory** %MEMORY
  %loadMem_4063cb = load %struct.Memory*, %struct.Memory** %MEMORY
  %80 = getelementptr inbounds %struct.State, %struct.State* %0, i32 0, i32 6
  %81 = getelementptr inbounds %struct.GPR, %struct.GPR* %80, i32 0, i32 33
  %82 = getelementptr inbounds %struct.Reg, %struct.Reg* %81, i32 0, i32 0
  %PC.i96 = bitcast %union.anon* %82 to i64*
  %83 = getelementptr inbounds %struct.State, %struct.State* %0, i32 0, i32 6
  %84 = getelementptr inbounds %struct.GPR, %struct.GPR* %83, i32 0, i32 11
  %85 = getelementptr inbounds %struct.Reg, %struct.Reg* %84, i32 0, i32 0
  %RDI.i97 = bitcast %union.anon* %85 to i64*
  %86 = getelementptr inbounds %struct.State, %struct.State* %0, i32 0, i32 6
  %87 = getelementptr inbounds %struct.GPR, %struct.GPR* %86, i32 0, i32 15
  %88 = getelementptr inbounds %struct.Reg, %struct.Reg* %87, i32 0, i32 0
  %RBP.i98 = bitcast %union.anon* %88 to i64*
  %89 = load i64, i64* %RBP.i98
  %90 = sub i64 %89, 8
  %91 = load i64, i64* %RDI.i97
  %92 = load i64, i64* %PC.i96
  %93 = add i64 %92, 4
  store i64 %93, i64* %PC.i96
  %94 = inttoptr i64 %90 to i64*
  store i64 %91, i64* %94
  store %struct.Memory* %loadMem_4063cb, %struct.Memory** %MEMORY
  %loadMem_4063cf = load %struct.Memory*, %struct.Memory** %MEMORY
  %95 = getelementptr inbounds %struct.State, %struct.State* %0, i32 0, i32 6
  %96 = getelementptr inbounds %struct.GPR, %struct.GPR* %95, i32 0, i32 33
  %97 = getelementptr inbounds %struct.Reg, %struct.Reg* %96, i32 0, i32 0
  %PC.i94 = bitcast %union.anon* %97 to i64*
  %98 = getelementptr inbounds %struct.State, %struct.State* %0, i32 0, i32 6
  %99 = getelementptr inbounds %struct.GPR, %struct.GPR* %98, i32 0, i32 9
  %100 = getelementptr inbounds %struct.Reg, %struct.Reg* %99, i32 0, i32 0
  %ESI.i = bitcast %union.anon* %100 to i32*
  %101 = getelementptr inbounds %struct.State, %struct.State* %0, i32 0, i32 6
  %102 = getelementptr inbounds %struct.GPR, %struct.GPR* %101, i32 0, i32 15
  %103 = getelementptr inbounds %struct.Reg, %struct.Reg* %102, i32 0, i32 0
  %RBP.i95 = bitcast %union.anon* %103 to i64*
  %104 = load i64, i64* %RBP.i95
  %105 = sub i64 %104, 12
  %106 = load i32, i32* %ESI.i
  %107 = zext i32 %106 to i64
  %108 = load i64, i64* %PC.i94
  %109 = add i64 %108, 3
  store i64 %109, i64* %PC.i94
  %110 = inttoptr i64 %105 to i32*
  store i32 %106, i32* %110
  store %struct.Memory* %loadMem_4063cf, %struct.Memory** %MEMORY
  %loadMem_4063d2 = load %struct.Memory*, %struct.Memory** %MEMORY
  %111 = getelementptr inbounds %struct.State, %struct.State* %0, i32 0, i32 6
  %112 = getelementptr inbounds %struct.GPR, %struct.GPR* %111, i32 0, i32 33
  %113 = getelementptr inbounds %struct.Reg, %struct.Reg* %112, i32 0, i32 0
  %PC.i92 = bitcast %union.anon* %113 to i64*
  %114 = getelementptr inbounds %struct.State, %struct.State* %0, i32 0, i32 6
  %115 = getelementptr inbounds %struct.GPR, %struct.GPR* %114, i32 0, i32 1
  %116 = getelementptr inbounds %struct.Reg, %struct.Reg* %115, i32 0, i32 0
  %AX.i = bitcast %union.anon* %116 to i16*
  %117 = getelementptr inbounds %struct.State, %struct.State* %0, i32 0, i32 6
  %118 = getelementptr inbounds %struct.GPR, %struct.GPR* %117, i32 0, i32 15
  %119 = getelementptr inbounds %struct.Reg, %struct.Reg* %118, i32 0, i32 0
  %RBP.i93 = bitcast %union.anon* %119 to i64*
  %120 = load i64, i64* %RBP.i93
  %121 = sub i64 %120, 14
  %122 = load i16, i16* %AX.i
  %123 = zext i16 %122 to i64
  %124 = load i64, i64* %PC.i92
  %125 = add i64 %124, 4
  store i64 %125, i64* %PC.i92
  %126 = inttoptr i64 %121 to i16*
  store i16 %122, i16* %126
  store %struct.Memory* %loadMem_4063d2, %struct.Memory** %MEMORY
  %loadMem_4063d6 = load %struct.Memory*, %struct.Memory** %MEMORY
  %127 = getelementptr inbounds %struct.State, %struct.State* %0, i32 0, i32 6
  %128 = getelementptr inbounds %struct.GPR, %struct.GPR* %127, i32 0, i32 33
  %129 = getelementptr inbounds %struct.Reg, %struct.Reg* %128, i32 0, i32 0
  %PC.i89 = bitcast %union.anon* %129 to i64*
  %130 = getelementptr inbounds %struct.State, %struct.State* %0, i32 0, i32 6
  %131 = getelementptr inbounds %struct.GPR, %struct.GPR* %130, i32 0, i32 5
  %132 = getelementptr inbounds %struct.Reg, %struct.Reg* %131, i32 0, i32 0
  %RCX.i90 = bitcast %union.anon* %132 to i64*
  %133 = getelementptr inbounds %struct.State, %struct.State* %0, i32 0, i32 6
  %134 = getelementptr inbounds %struct.GPR, %struct.GPR* %133, i32 0, i32 15
  %135 = getelementptr inbounds %struct.Reg, %struct.Reg* %134, i32 0, i32 0
  %RBP.i91 = bitcast %union.anon* %135 to i64*
  %136 = load i64, i64* %RBP.i91
  %137 = sub i64 %136, 24
  %138 = load i64, i64* %RCX.i90
  %139 = load i64, i64* %PC.i89
  %140 = add i64 %139, 4
  store i64 %140, i64* %PC.i89
  %141 = inttoptr i64 %137 to i64*
  store i64 %138, i64* %141
  store %struct.Memory* %loadMem_4063d6, %struct.Memory** %MEMORY
  %loadMem1_4063da = load %struct.Memory*, %struct.Memory** %MEMORY
  %142 = getelementptr inbounds %struct.State, %struct.State* %0, i32 0, i32 6
  %143 = getelementptr inbounds %struct.GPR, %struct.GPR* %142, i32 0, i32 33
  %144 = getelementptr inbounds %struct.Reg, %struct.Reg* %143, i32 0, i32 0
  %PC.i88 = bitcast %union.anon* %144 to i64*
  %145 = load i64, i64* %PC.i88
  %146 = add i64 %145, -21898
  %147 = load i64, i64* %PC.i88
  %148 = add i64 %147, 5
  %149 = load i64, i64* %PC.i88
  %150 = add i64 %149, 5
  store i64 %150, i64* %PC.i88
  %151 = getelementptr inbounds %struct.State, %struct.State* %0, i64 0, i32 6, i32 13, i32 0, i32 0
  %152 = load i64, i64* %151, align 8
  %153 = add i64 %152, -8
  %154 = inttoptr i64 %153 to i64*
  store i64 %148, i64* %154
  store i64 %153, i64* %151, align 8
  %155 = getelementptr inbounds %struct.State, %struct.State* %0, i64 0, i32 6, i32 33, i32 0, i32 0
  store i64 %146, i64* %155, align 8
  store %struct.Memory* %loadMem1_4063da, %struct.Memory** %MEMORY
  %loadMem2_4063da = load %struct.Memory*, %struct.Memory** %MEMORY
  %loadPC_4063da = load i64, i64* %3
  %call2_4063da = call %struct.Memory* @sub_400e50._Z11start_timerv(%struct.State* %0, i64 %loadPC_4063da, %struct.Memory* %loadMem2_4063da)
  store %struct.Memory* %call2_4063da, %struct.Memory** %MEMORY
  %loadMem_4063df = load %struct.Memory*, %struct.Memory** %MEMORY
  %156 = getelementptr inbounds %struct.State, %struct.State* %0, i32 0, i32 6
  %157 = getelementptr inbounds %struct.GPR, %struct.GPR* %156, i32 0, i32 33
  %158 = getelementptr inbounds %struct.Reg, %struct.Reg* %157, i32 0, i32 0
  %PC.i86 = bitcast %union.anon* %158 to i64*
  %159 = getelementptr inbounds %struct.State, %struct.State* %0, i32 0, i32 6
  %160 = getelementptr inbounds %struct.GPR, %struct.GPR* %159, i32 0, i32 15
  %161 = getelementptr inbounds %struct.Reg, %struct.Reg* %160, i32 0, i32 0
  %RBP.i87 = bitcast %union.anon* %161 to i64*
  %162 = load i64, i64* %RBP.i87
  %163 = sub i64 %162, 28
  %164 = load i64, i64* %PC.i86
  %165 = add i64 %164, 7
  store i64 %165, i64* %PC.i86
  %166 = inttoptr i64 %163 to i32*
  store i32 0, i32* %166
  store %struct.Memory* %loadMem_4063df, %struct.Memory** %MEMORY
  br label %block_.L_4063e6

block_.L_4063e6:                                  ; preds = %block_.L_406436, %entry
  %loadMem_4063e6 = load %struct.Memory*, %struct.Memory** %MEMORY
  %167 = getelementptr inbounds %struct.State, %struct.State* %0, i32 0, i32 6
  %168 = getelementptr inbounds %struct.GPR, %struct.GPR* %167, i32 0, i32 33
  %169 = getelementptr inbounds %struct.Reg, %struct.Reg* %168, i32 0, i32 0
  %PC.i83 = bitcast %union.anon* %169 to i64*
  %170 = getelementptr inbounds %struct.State, %struct.State* %0, i32 0, i32 6
  %171 = getelementptr inbounds %struct.GPR, %struct.GPR* %170, i32 0, i32 1
  %172 = getelementptr inbounds %struct.Reg, %struct.Reg* %171, i32 0, i32 0
  %RAX.i84 = bitcast %union.anon* %172 to i64*
  %173 = getelementptr inbounds %struct.State, %struct.State* %0, i32 0, i32 6
  %174 = getelementptr inbounds %struct.GPR, %struct.GPR* %173, i32 0, i32 15
  %175 = getelementptr inbounds %struct.Reg, %struct.Reg* %174, i32 0, i32 0
  %RBP.i85 = bitcast %union.anon* %175 to i64*
  %176 = load i64, i64* %RBP.i85
  %177 = sub i64 %176, 28
  %178 = load i64, i64* %PC.i83
  %179 = add i64 %178, 3
  store i64 %179, i64* %PC.i83
  %180 = inttoptr i64 %177 to i32*
  %181 = load i32, i32* %180
  %182 = zext i32 %181 to i64
  store i64 %182, i64* %RAX.i84, align 8
  store %struct.Memory* %loadMem_4063e6, %struct.Memory** %MEMORY
  %loadMem_4063e9 = load %struct.Memory*, %struct.Memory** %MEMORY
  %183 = getelementptr inbounds %struct.State, %struct.State* %0, i32 0, i32 6
  %184 = getelementptr inbounds %struct.GPR, %struct.GPR* %183, i32 0, i32 33
  %185 = getelementptr inbounds %struct.Reg, %struct.Reg* %184, i32 0, i32 0
  %PC.i81 = bitcast %union.anon* %185 to i64*
  %186 = getelementptr inbounds %struct.State, %struct.State* %0, i32 0, i32 6
  %187 = getelementptr inbounds %struct.GPR, %struct.GPR* %186, i32 0, i32 1
  %188 = getelementptr inbounds %struct.Reg, %struct.Reg* %187, i32 0, i32 0
  %EAX.i82 = bitcast %union.anon* %188 to i32*
  %189 = load i32, i32* %EAX.i82
  %190 = zext i32 %189 to i64
  %191 = load i64, i64* %PC.i81
  %192 = add i64 %191, 7
  store i64 %192, i64* %PC.i81
  %193 = load i32, i32* inttoptr (i64 6398080 to i32*)
  %194 = sub i32 %189, %193
  %195 = icmp ult i32 %189, %193
  %196 = zext i1 %195 to i8
  %197 = getelementptr inbounds %struct.State, %struct.State* %0, i64 0, i32 2, i32 1
  store i8 %196, i8* %197, align 1
  %198 = and i32 %194, 255
  %199 = call i32 @llvm.ctpop.i32(i32 %198)
  %200 = trunc i32 %199 to i8
  %201 = and i8 %200, 1
  %202 = xor i8 %201, 1
  %203 = getelementptr inbounds %struct.State, %struct.State* %0, i64 0, i32 2, i32 3
  store i8 %202, i8* %203, align 1
  %204 = xor i32 %193, %189
  %205 = xor i32 %204, %194
  %206 = lshr i32 %205, 4
  %207 = trunc i32 %206 to i8
  %208 = and i8 %207, 1
  %209 = getelementptr inbounds %struct.State, %struct.State* %0, i64 0, i32 2, i32 5
  store i8 %208, i8* %209, align 1
  %210 = icmp eq i32 %194, 0
  %211 = zext i1 %210 to i8
  %212 = getelementptr inbounds %struct.State, %struct.State* %0, i64 0, i32 2, i32 7
  store i8 %211, i8* %212, align 1
  %213 = lshr i32 %194, 31
  %214 = trunc i32 %213 to i8
  %215 = getelementptr inbounds %struct.State, %struct.State* %0, i64 0, i32 2, i32 9
  store i8 %214, i8* %215, align 1
  %216 = lshr i32 %189, 31
  %217 = lshr i32 %193, 31
  %218 = xor i32 %217, %216
  %219 = xor i32 %213, %216
  %220 = add i32 %219, %218
  %221 = icmp eq i32 %220, 2
  %222 = zext i1 %221 to i8
  %223 = getelementptr inbounds %struct.State, %struct.State* %0, i64 0, i32 2, i32 13
  store i8 %222, i8* %223, align 1
  store %struct.Memory* %loadMem_4063e9, %struct.Memory** %MEMORY
  %loadMem_4063f0 = load %struct.Memory*, %struct.Memory** %MEMORY
  %224 = getelementptr inbounds %struct.State, %struct.State* %0, i32 0, i32 6
  %225 = getelementptr inbounds %struct.GPR, %struct.GPR* %224, i32 0, i32 33
  %226 = getelementptr inbounds %struct.Reg, %struct.Reg* %225, i32 0, i32 0
  %PC.i80 = bitcast %union.anon* %226 to i64*
  %227 = load i64, i64* %PC.i80
  %228 = add i64 %227, 123
  %229 = load i64, i64* %PC.i80
  %230 = add i64 %229, 6
  %231 = load i64, i64* %PC.i80
  %232 = add i64 %231, 6
  store i64 %232, i64* %PC.i80
  %233 = getelementptr inbounds %struct.State, %struct.State* %0, i64 0, i32 2, i32 9
  %234 = load i8, i8* %233, align 1
  %235 = icmp ne i8 %234, 0
  %236 = getelementptr inbounds %struct.State, %struct.State* %0, i64 0, i32 2, i32 13
  %237 = load i8, i8* %236, align 1
  %238 = icmp ne i8 %237, 0
  %239 = xor i1 %235, %238
  %240 = xor i1 %239, true
  %241 = zext i1 %240 to i8
  store i8 %241, i8* %BRANCH_TAKEN, align 1
  %242 = getelementptr inbounds %struct.State, %struct.State* %0, i64 0, i32 6, i32 33, i32 0, i32 0
  %243 = select i1 %239, i64 %230, i64 %228
  store i64 %243, i64* %242, align 8
  store %struct.Memory* %loadMem_4063f0, %struct.Memory** %MEMORY
  %loadBr_4063f0 = load i8, i8* %BRANCH_TAKEN
  %cmpBr_4063f0 = icmp eq i8 %loadBr_4063f0, 1
  br i1 %cmpBr_4063f0, label %block_.L_40646b, label %block_4063f6

block_4063f6:                                     ; preds = %block_.L_4063e6
  %loadMem_4063f6 = load %struct.Memory*, %struct.Memory** %MEMORY
  %244 = getelementptr inbounds %struct.State, %struct.State* %0, i32 0, i32 6
  %245 = getelementptr inbounds %struct.GPR, %struct.GPR* %244, i32 0, i32 33
  %246 = getelementptr inbounds %struct.Reg, %struct.Reg* %245, i32 0, i32 0
  %PC.i78 = bitcast %union.anon* %246 to i64*
  %247 = getelementptr inbounds %struct.State, %struct.State* %0, i32 0, i32 6
  %248 = getelementptr inbounds %struct.GPR, %struct.GPR* %247, i32 0, i32 15
  %249 = getelementptr inbounds %struct.Reg, %struct.Reg* %248, i32 0, i32 0
  %RBP.i79 = bitcast %union.anon* %249 to i64*
  %250 = load i64, i64* %RBP.i79
  %251 = sub i64 %250, 30
  %252 = load i64, i64* %PC.i78
  %253 = add i64 %252, 6
  store i64 %253, i64* %PC.i78
  %254 = inttoptr i64 %251 to i16*
  store i16 0, i16* %254
  store %struct.Memory* %loadMem_4063f6, %struct.Memory** %MEMORY
  %loadMem_4063fc = load %struct.Memory*, %struct.Memory** %MEMORY
  %255 = getelementptr inbounds %struct.State, %struct.State* %0, i32 0, i32 6
  %256 = getelementptr inbounds %struct.GPR, %struct.GPR* %255, i32 0, i32 33
  %257 = getelementptr inbounds %struct.Reg, %struct.Reg* %256, i32 0, i32 0
  %PC.i76 = bitcast %union.anon* %257 to i64*
  %258 = getelementptr inbounds %struct.State, %struct.State* %0, i32 0, i32 6
  %259 = getelementptr inbounds %struct.GPR, %struct.GPR* %258, i32 0, i32 15
  %260 = getelementptr inbounds %struct.Reg, %struct.Reg* %259, i32 0, i32 0
  %RBP.i77 = bitcast %union.anon* %260 to i64*
  %261 = load i64, i64* %RBP.i77
  %262 = sub i64 %261, 36
  %263 = load i64, i64* %PC.i76
  %264 = add i64 %263, 7
  store i64 %264, i64* %PC.i76
  %265 = inttoptr i64 %262 to i32*
  store i32 0, i32* %265
  store %struct.Memory* %loadMem_4063fc, %struct.Memory** %MEMORY
  br label %block_.L_406403

block_.L_406403:                                  ; preds = %block_40640f, %block_4063f6
  %loadMem_406403 = load %struct.Memory*, %struct.Memory** %MEMORY
  %266 = getelementptr inbounds %struct.State, %struct.State* %0, i32 0, i32 6
  %267 = getelementptr inbounds %struct.GPR, %struct.GPR* %266, i32 0, i32 33
  %268 = getelementptr inbounds %struct.Reg, %struct.Reg* %267, i32 0, i32 0
  %PC.i73 = bitcast %union.anon* %268 to i64*
  %269 = getelementptr inbounds %struct.State, %struct.State* %0, i32 0, i32 6
  %270 = getelementptr inbounds %struct.GPR, %struct.GPR* %269, i32 0, i32 1
  %271 = getelementptr inbounds %struct.Reg, %struct.Reg* %270, i32 0, i32 0
  %RAX.i74 = bitcast %union.anon* %271 to i64*
  %272 = getelementptr inbounds %struct.State, %struct.State* %0, i32 0, i32 6
  %273 = getelementptr inbounds %struct.GPR, %struct.GPR* %272, i32 0, i32 15
  %274 = getelementptr inbounds %struct.Reg, %struct.Reg* %273, i32 0, i32 0
  %RBP.i75 = bitcast %union.anon* %274 to i64*
  %275 = load i64, i64* %RBP.i75
  %276 = sub i64 %275, 36
  %277 = load i64, i64* %PC.i73
  %278 = add i64 %277, 3
  store i64 %278, i64* %PC.i73
  %279 = inttoptr i64 %276 to i32*
  %280 = load i32, i32* %279
  %281 = zext i32 %280 to i64
  store i64 %281, i64* %RAX.i74, align 8
  store %struct.Memory* %loadMem_406403, %struct.Memory** %MEMORY
  %loadMem_406406 = load %struct.Memory*, %struct.Memory** %MEMORY
  %282 = getelementptr inbounds %struct.State, %struct.State* %0, i32 0, i32 6
  %283 = getelementptr inbounds %struct.GPR, %struct.GPR* %282, i32 0, i32 33
  %284 = getelementptr inbounds %struct.Reg, %struct.Reg* %283, i32 0, i32 0
  %PC.i70 = bitcast %union.anon* %284 to i64*
  %285 = getelementptr inbounds %struct.State, %struct.State* %0, i32 0, i32 6
  %286 = getelementptr inbounds %struct.GPR, %struct.GPR* %285, i32 0, i32 1
  %287 = getelementptr inbounds %struct.Reg, %struct.Reg* %286, i32 0, i32 0
  %EAX.i71 = bitcast %union.anon* %287 to i32*
  %288 = getelementptr inbounds %struct.State, %struct.State* %0, i32 0, i32 6
  %289 = getelementptr inbounds %struct.GPR, %struct.GPR* %288, i32 0, i32 15
  %290 = getelementptr inbounds %struct.Reg, %struct.Reg* %289, i32 0, i32 0
  %RBP.i72 = bitcast %union.anon* %290 to i64*
  %291 = load i32, i32* %EAX.i71
  %292 = zext i32 %291 to i64
  %293 = load i64, i64* %RBP.i72
  %294 = sub i64 %293, 12
  %295 = load i64, i64* %PC.i70
  %296 = add i64 %295, 3
  store i64 %296, i64* %PC.i70
  %297 = inttoptr i64 %294 to i32*
  %298 = load i32, i32* %297
  %299 = sub i32 %291, %298
  %300 = icmp ult i32 %291, %298
  %301 = zext i1 %300 to i8
  %302 = getelementptr inbounds %struct.State, %struct.State* %0, i64 0, i32 2, i32 1
  store i8 %301, i8* %302, align 1
  %303 = and i32 %299, 255
  %304 = call i32 @llvm.ctpop.i32(i32 %303)
  %305 = trunc i32 %304 to i8
  %306 = and i8 %305, 1
  %307 = xor i8 %306, 1
  %308 = getelementptr inbounds %struct.State, %struct.State* %0, i64 0, i32 2, i32 3
  store i8 %307, i8* %308, align 1
  %309 = xor i32 %298, %291
  %310 = xor i32 %309, %299
  %311 = lshr i32 %310, 4
  %312 = trunc i32 %311 to i8
  %313 = and i8 %312, 1
  %314 = getelementptr inbounds %struct.State, %struct.State* %0, i64 0, i32 2, i32 5
  store i8 %313, i8* %314, align 1
  %315 = icmp eq i32 %299, 0
  %316 = zext i1 %315 to i8
  %317 = getelementptr inbounds %struct.State, %struct.State* %0, i64 0, i32 2, i32 7
  store i8 %316, i8* %317, align 1
  %318 = lshr i32 %299, 31
  %319 = trunc i32 %318 to i8
  %320 = getelementptr inbounds %struct.State, %struct.State* %0, i64 0, i32 2, i32 9
  store i8 %319, i8* %320, align 1
  %321 = lshr i32 %291, 31
  %322 = lshr i32 %298, 31
  %323 = xor i32 %322, %321
  %324 = xor i32 %318, %321
  %325 = add i32 %324, %323
  %326 = icmp eq i32 %325, 2
  %327 = zext i1 %326 to i8
  %328 = getelementptr inbounds %struct.State, %struct.State* %0, i64 0, i32 2, i32 13
  store i8 %327, i8* %328, align 1
  store %struct.Memory* %loadMem_406406, %struct.Memory** %MEMORY
  %loadMem_406409 = load %struct.Memory*, %struct.Memory** %MEMORY
  %329 = getelementptr inbounds %struct.State, %struct.State* %0, i32 0, i32 6
  %330 = getelementptr inbounds %struct.GPR, %struct.GPR* %329, i32 0, i32 33
  %331 = getelementptr inbounds %struct.Reg, %struct.Reg* %330, i32 0, i32 0
  %PC.i69 = bitcast %union.anon* %331 to i64*
  %332 = load i64, i64* %PC.i69
  %333 = add i64 %332, 45
  %334 = load i64, i64* %PC.i69
  %335 = add i64 %334, 6
  %336 = load i64, i64* %PC.i69
  %337 = add i64 %336, 6
  store i64 %337, i64* %PC.i69
  %338 = getelementptr inbounds %struct.State, %struct.State* %0, i64 0, i32 2, i32 9
  %339 = load i8, i8* %338, align 1
  %340 = icmp ne i8 %339, 0
  %341 = getelementptr inbounds %struct.State, %struct.State* %0, i64 0, i32 2, i32 13
  %342 = load i8, i8* %341, align 1
  %343 = icmp ne i8 %342, 0
  %344 = xor i1 %340, %343
  %345 = xor i1 %344, true
  %346 = zext i1 %345 to i8
  store i8 %346, i8* %BRANCH_TAKEN, align 1
  %347 = getelementptr inbounds %struct.State, %struct.State* %0, i64 0, i32 6, i32 33, i32 0, i32 0
  %348 = select i1 %344, i64 %335, i64 %333
  store i64 %348, i64* %347, align 8
  store %struct.Memory* %loadMem_406409, %struct.Memory** %MEMORY
  %loadBr_406409 = load i8, i8* %BRANCH_TAKEN
  %cmpBr_406409 = icmp eq i8 %loadBr_406409, 1
  br i1 %cmpBr_406409, label %block_.L_406436, label %block_40640f

block_40640f:                                     ; preds = %block_.L_406403
  %loadMem_40640f = load %struct.Memory*, %struct.Memory** %MEMORY
  %349 = getelementptr inbounds %struct.State, %struct.State* %0, i32 0, i32 6
  %350 = getelementptr inbounds %struct.GPR, %struct.GPR* %349, i32 0, i32 33
  %351 = getelementptr inbounds %struct.Reg, %struct.Reg* %350, i32 0, i32 0
  %PC.i66 = bitcast %union.anon* %351 to i64*
  %352 = getelementptr inbounds %struct.State, %struct.State* %0, i32 0, i32 6
  %353 = getelementptr inbounds %struct.GPR, %struct.GPR* %352, i32 0, i32 1
  %354 = getelementptr inbounds %struct.Reg, %struct.Reg* %353, i32 0, i32 0
  %RAX.i67 = bitcast %union.anon* %354 to i64*
  %355 = getelementptr inbounds %struct.State, %struct.State* %0, i32 0, i32 6
  %356 = getelementptr inbounds %struct.GPR, %struct.GPR* %355, i32 0, i32 15
  %357 = getelementptr inbounds %struct.Reg, %struct.Reg* %356, i32 0, i32 0
  %RBP.i68 = bitcast %union.anon* %357 to i64*
  %358 = load i64, i64* %RBP.i68
  %359 = sub i64 %358, 8
  %360 = load i64, i64* %PC.i66
  %361 = add i64 %360, 4
  store i64 %361, i64* %PC.i66
  %362 = inttoptr i64 %359 to i64*
  %363 = load i64, i64* %362
  store i64 %363, i64* %RAX.i67, align 8
  store %struct.Memory* %loadMem_40640f, %struct.Memory** %MEMORY
  %loadMem_406413 = load %struct.Memory*, %struct.Memory** %MEMORY
  %364 = getelementptr inbounds %struct.State, %struct.State* %0, i32 0, i32 6
  %365 = getelementptr inbounds %struct.GPR, %struct.GPR* %364, i32 0, i32 33
  %366 = getelementptr inbounds %struct.Reg, %struct.Reg* %365, i32 0, i32 0
  %PC.i63 = bitcast %union.anon* %366 to i64*
  %367 = getelementptr inbounds %struct.State, %struct.State* %0, i32 0, i32 6
  %368 = getelementptr inbounds %struct.GPR, %struct.GPR* %367, i32 0, i32 5
  %369 = getelementptr inbounds %struct.Reg, %struct.Reg* %368, i32 0, i32 0
  %RCX.i64 = bitcast %union.anon* %369 to i64*
  %370 = getelementptr inbounds %struct.State, %struct.State* %0, i32 0, i32 6
  %371 = getelementptr inbounds %struct.GPR, %struct.GPR* %370, i32 0, i32 15
  %372 = getelementptr inbounds %struct.Reg, %struct.Reg* %371, i32 0, i32 0
  %RBP.i65 = bitcast %union.anon* %372 to i64*
  %373 = load i64, i64* %RBP.i65
  %374 = sub i64 %373, 36
  %375 = load i64, i64* %PC.i63
  %376 = add i64 %375, 4
  store i64 %376, i64* %PC.i63
  %377 = inttoptr i64 %374 to i32*
  %378 = load i32, i32* %377
  %379 = sext i32 %378 to i64
  store i64 %379, i64* %RCX.i64, align 8
  store %struct.Memory* %loadMem_406413, %struct.Memory** %MEMORY
  %loadMem_406417 = load %struct.Memory*, %struct.Memory** %MEMORY
  %380 = getelementptr inbounds %struct.State, %struct.State* %0, i32 0, i32 6
  %381 = getelementptr inbounds %struct.GPR, %struct.GPR* %380, i32 0, i32 33
  %382 = getelementptr inbounds %struct.Reg, %struct.Reg* %381, i32 0, i32 0
  %PC.i60 = bitcast %union.anon* %382 to i64*
  %383 = getelementptr inbounds %struct.State, %struct.State* %0, i32 0, i32 6
  %384 = getelementptr inbounds %struct.GPR, %struct.GPR* %383, i32 0, i32 1
  %385 = getelementptr inbounds %struct.Reg, %struct.Reg* %384, i32 0, i32 0
  %RAX.i61 = bitcast %union.anon* %385 to i64*
  %386 = getelementptr inbounds %struct.State, %struct.State* %0, i32 0, i32 6
  %387 = getelementptr inbounds %struct.GPR, %struct.GPR* %386, i32 0, i32 5
  %388 = getelementptr inbounds %struct.Reg, %struct.Reg* %387, i32 0, i32 0
  %RCX.i62 = bitcast %union.anon* %388 to i64*
  %389 = getelementptr inbounds %struct.State, %struct.State* %0, i32 0, i32 6
  %390 = getelementptr inbounds %struct.GPR, %struct.GPR* %389, i32 0, i32 7
  %391 = getelementptr inbounds %struct.Reg, %struct.Reg* %390, i32 0, i32 0
  %RDX.i = bitcast %union.anon* %391 to i64*
  %392 = load i64, i64* %RAX.i61
  %393 = load i64, i64* %RCX.i62
  %394 = mul i64 %393, 2
  %395 = add i64 %394, %392
  %396 = load i64, i64* %PC.i60
  %397 = add i64 %396, 4
  store i64 %397, i64* %PC.i60
  %398 = inttoptr i64 %395 to i16*
  %399 = load i16, i16* %398
  %400 = zext i16 %399 to i64
  store i64 %400, i64* %RDX.i, align 8
  store %struct.Memory* %loadMem_406417, %struct.Memory** %MEMORY
  %loadMem_40641b = load %struct.Memory*, %struct.Memory** %MEMORY
  %401 = getelementptr inbounds %struct.State, %struct.State* %0, i32 0, i32 6
  %402 = getelementptr inbounds %struct.GPR, %struct.GPR* %401, i32 0, i32 33
  %403 = getelementptr inbounds %struct.Reg, %struct.Reg* %402, i32 0, i32 0
  %PC.i57 = bitcast %union.anon* %403 to i64*
  %404 = getelementptr inbounds %struct.State, %struct.State* %0, i32 0, i32 6
  %405 = getelementptr inbounds %struct.GPR, %struct.GPR* %404, i32 0, i32 9
  %406 = getelementptr inbounds %struct.Reg, %struct.Reg* %405, i32 0, i32 0
  %RSI.i58 = bitcast %union.anon* %406 to i64*
  %407 = getelementptr inbounds %struct.State, %struct.State* %0, i32 0, i32 6
  %408 = getelementptr inbounds %struct.GPR, %struct.GPR* %407, i32 0, i32 15
  %409 = getelementptr inbounds %struct.Reg, %struct.Reg* %408, i32 0, i32 0
  %RBP.i59 = bitcast %union.anon* %409 to i64*
  %410 = load i64, i64* %RBP.i59
  %411 = sub i64 %410, 30
  %412 = load i64, i64* %PC.i57
  %413 = add i64 %412, 4
  store i64 %413, i64* %PC.i57
  %414 = inttoptr i64 %411 to i16*
  %415 = load i16, i16* %414
  %416 = zext i16 %415 to i64
  store i64 %416, i64* %RSI.i58, align 8
  store %struct.Memory* %loadMem_40641b, %struct.Memory** %MEMORY
  %loadMem_40641f = load %struct.Memory*, %struct.Memory** %MEMORY
  %417 = getelementptr inbounds %struct.State, %struct.State* %0, i32 0, i32 6
  %418 = getelementptr inbounds %struct.GPR, %struct.GPR* %417, i32 0, i32 33
  %419 = getelementptr inbounds %struct.Reg, %struct.Reg* %418, i32 0, i32 0
  %PC.i55 = bitcast %union.anon* %419 to i64*
  %420 = getelementptr inbounds %struct.State, %struct.State* %0, i32 0, i32 6
  %421 = getelementptr inbounds %struct.GPR, %struct.GPR* %420, i32 0, i32 7
  %422 = getelementptr inbounds %struct.Reg, %struct.Reg* %421, i32 0, i32 0
  %EDX.i = bitcast %union.anon* %422 to i32*
  %423 = getelementptr inbounds %struct.State, %struct.State* %0, i32 0, i32 6
  %424 = getelementptr inbounds %struct.GPR, %struct.GPR* %423, i32 0, i32 9
  %425 = getelementptr inbounds %struct.Reg, %struct.Reg* %424, i32 0, i32 0
  %RSI.i56 = bitcast %union.anon* %425 to i64*
  %426 = load i64, i64* %RSI.i56
  %427 = load i32, i32* %EDX.i
  %428 = zext i32 %427 to i64
  %429 = load i64, i64* %PC.i55
  %430 = add i64 %429, 2
  store i64 %430, i64* %PC.i55
  %431 = trunc i64 %426 to i32
  %432 = add i32 %427, %431
  %433 = zext i32 %432 to i64
  store i64 %433, i64* %RSI.i56, align 8
  %434 = icmp ult i32 %432, %431
  %435 = icmp ult i32 %432, %427
  %436 = or i1 %434, %435
  %437 = zext i1 %436 to i8
  %438 = getelementptr inbounds %struct.State, %struct.State* %0, i64 0, i32 2, i32 1
  store i8 %437, i8* %438, align 1
  %439 = and i32 %432, 255
  %440 = call i32 @llvm.ctpop.i32(i32 %439)
  %441 = trunc i32 %440 to i8
  %442 = and i8 %441, 1
  %443 = xor i8 %442, 1
  %444 = getelementptr inbounds %struct.State, %struct.State* %0, i64 0, i32 2, i32 3
  store i8 %443, i8* %444, align 1
  %445 = xor i64 %428, %426
  %446 = trunc i64 %445 to i32
  %447 = xor i32 %446, %432
  %448 = lshr i32 %447, 4
  %449 = trunc i32 %448 to i8
  %450 = and i8 %449, 1
  %451 = getelementptr inbounds %struct.State, %struct.State* %0, i64 0, i32 2, i32 5
  store i8 %450, i8* %451, align 1
  %452 = icmp eq i32 %432, 0
  %453 = zext i1 %452 to i8
  %454 = getelementptr inbounds %struct.State, %struct.State* %0, i64 0, i32 2, i32 7
  store i8 %453, i8* %454, align 1
  %455 = lshr i32 %432, 31
  %456 = trunc i32 %455 to i8
  %457 = getelementptr inbounds %struct.State, %struct.State* %0, i64 0, i32 2, i32 9
  store i8 %456, i8* %457, align 1
  %458 = lshr i32 %431, 31
  %459 = lshr i32 %427, 31
  %460 = xor i32 %455, %458
  %461 = xor i32 %455, %459
  %462 = add i32 %460, %461
  %463 = icmp eq i32 %462, 2
  %464 = zext i1 %463 to i8
  %465 = getelementptr inbounds %struct.State, %struct.State* %0, i64 0, i32 2, i32 13
  store i8 %464, i8* %465, align 1
  store %struct.Memory* %loadMem_40641f, %struct.Memory** %MEMORY
  %loadMem_406421 = load %struct.Memory*, %struct.Memory** %MEMORY
  %466 = getelementptr inbounds %struct.State, %struct.State* %0, i32 0, i32 6
  %467 = getelementptr inbounds %struct.GPR, %struct.GPR* %466, i32 0, i32 33
  %468 = getelementptr inbounds %struct.Reg, %struct.Reg* %467, i32 0, i32 0
  %PC.i53 = bitcast %union.anon* %468 to i64*
  %469 = getelementptr inbounds %struct.State, %struct.State* %0, i32 0, i32 6
  %470 = getelementptr inbounds %struct.GPR, %struct.GPR* %469, i32 0, i32 9
  %471 = getelementptr inbounds %struct.Reg, %struct.Reg* %470, i32 0, i32 0
  %SI.i = bitcast %union.anon* %471 to i16*
  %472 = getelementptr inbounds %struct.State, %struct.State* %0, i32 0, i32 6
  %473 = getelementptr inbounds %struct.GPR, %struct.GPR* %472, i32 0, i32 11
  %474 = getelementptr inbounds %struct.Reg, %struct.Reg* %473, i32 0, i32 0
  %DI.i54 = bitcast %union.anon* %474 to i16*
  %475 = load i16, i16* %SI.i
  %476 = zext i16 %475 to i64
  %477 = load i64, i64* %PC.i53
  %478 = add i64 %477, 3
  store i64 %478, i64* %PC.i53
  store i16 %475, i16* %DI.i54, align 2
  store %struct.Memory* %loadMem_406421, %struct.Memory** %MEMORY
  %loadMem_406424 = load %struct.Memory*, %struct.Memory** %MEMORY
  %479 = getelementptr inbounds %struct.State, %struct.State* %0, i32 0, i32 6
  %480 = getelementptr inbounds %struct.GPR, %struct.GPR* %479, i32 0, i32 33
  %481 = getelementptr inbounds %struct.Reg, %struct.Reg* %480, i32 0, i32 0
  %PC.i51 = bitcast %union.anon* %481 to i64*
  %482 = getelementptr inbounds %struct.State, %struct.State* %0, i32 0, i32 6
  %483 = getelementptr inbounds %struct.GPR, %struct.GPR* %482, i32 0, i32 11
  %484 = getelementptr inbounds %struct.Reg, %struct.Reg* %483, i32 0, i32 0
  %DI.i = bitcast %union.anon* %484 to i16*
  %485 = getelementptr inbounds %struct.State, %struct.State* %0, i32 0, i32 6
  %486 = getelementptr inbounds %struct.GPR, %struct.GPR* %485, i32 0, i32 15
  %487 = getelementptr inbounds %struct.Reg, %struct.Reg* %486, i32 0, i32 0
  %RBP.i52 = bitcast %union.anon* %487 to i64*
  %488 = load i64, i64* %RBP.i52
  %489 = sub i64 %488, 30
  %490 = load i16, i16* %DI.i
  %491 = zext i16 %490 to i64
  %492 = load i64, i64* %PC.i51
  %493 = add i64 %492, 4
  store i64 %493, i64* %PC.i51
  %494 = inttoptr i64 %489 to i16*
  store i16 %490, i16* %494
  store %struct.Memory* %loadMem_406424, %struct.Memory** %MEMORY
  %loadMem_406428 = load %struct.Memory*, %struct.Memory** %MEMORY
  %495 = getelementptr inbounds %struct.State, %struct.State* %0, i32 0, i32 6
  %496 = getelementptr inbounds %struct.GPR, %struct.GPR* %495, i32 0, i32 33
  %497 = getelementptr inbounds %struct.Reg, %struct.Reg* %496, i32 0, i32 0
  %PC.i48 = bitcast %union.anon* %497 to i64*
  %498 = getelementptr inbounds %struct.State, %struct.State* %0, i32 0, i32 6
  %499 = getelementptr inbounds %struct.GPR, %struct.GPR* %498, i32 0, i32 1
  %500 = getelementptr inbounds %struct.Reg, %struct.Reg* %499, i32 0, i32 0
  %RAX.i49 = bitcast %union.anon* %500 to i64*
  %501 = getelementptr inbounds %struct.State, %struct.State* %0, i32 0, i32 6
  %502 = getelementptr inbounds %struct.GPR, %struct.GPR* %501, i32 0, i32 15
  %503 = getelementptr inbounds %struct.Reg, %struct.Reg* %502, i32 0, i32 0
  %RBP.i50 = bitcast %union.anon* %503 to i64*
  %504 = load i64, i64* %RBP.i50
  %505 = sub i64 %504, 36
  %506 = load i64, i64* %PC.i48
  %507 = add i64 %506, 3
  store i64 %507, i64* %PC.i48
  %508 = inttoptr i64 %505 to i32*
  %509 = load i32, i32* %508
  %510 = zext i32 %509 to i64
  store i64 %510, i64* %RAX.i49, align 8
  store %struct.Memory* %loadMem_406428, %struct.Memory** %MEMORY
  %loadMem_40642b = load %struct.Memory*, %struct.Memory** %MEMORY
  %511 = getelementptr inbounds %struct.State, %struct.State* %0, i32 0, i32 6
  %512 = getelementptr inbounds %struct.GPR, %struct.GPR* %511, i32 0, i32 33
  %513 = getelementptr inbounds %struct.Reg, %struct.Reg* %512, i32 0, i32 0
  %PC.i46 = bitcast %union.anon* %513 to i64*
  %514 = getelementptr inbounds %struct.State, %struct.State* %0, i32 0, i32 6
  %515 = getelementptr inbounds %struct.GPR, %struct.GPR* %514, i32 0, i32 1
  %516 = getelementptr inbounds %struct.Reg, %struct.Reg* %515, i32 0, i32 0
  %RAX.i47 = bitcast %union.anon* %516 to i64*
  %517 = load i64, i64* %RAX.i47
  %518 = load i64, i64* %PC.i46
  %519 = add i64 %518, 3
  store i64 %519, i64* %PC.i46
  %520 = trunc i64 %517 to i32
  %521 = add i32 1, %520
  %522 = zext i32 %521 to i64
  store i64 %522, i64* %RAX.i47, align 8
  %523 = icmp ult i32 %521, %520
  %524 = icmp ult i32 %521, 1
  %525 = or i1 %523, %524
  %526 = zext i1 %525 to i8
  %527 = getelementptr inbounds %struct.State, %struct.State* %0, i64 0, i32 2, i32 1
  store i8 %526, i8* %527, align 1
  %528 = and i32 %521, 255
  %529 = call i32 @llvm.ctpop.i32(i32 %528)
  %530 = trunc i32 %529 to i8
  %531 = and i8 %530, 1
  %532 = xor i8 %531, 1
  %533 = getelementptr inbounds %struct.State, %struct.State* %0, i64 0, i32 2, i32 3
  store i8 %532, i8* %533, align 1
  %534 = xor i64 1, %517
  %535 = trunc i64 %534 to i32
  %536 = xor i32 %535, %521
  %537 = lshr i32 %536, 4
  %538 = trunc i32 %537 to i8
  %539 = and i8 %538, 1
  %540 = getelementptr inbounds %struct.State, %struct.State* %0, i64 0, i32 2, i32 5
  store i8 %539, i8* %540, align 1
  %541 = icmp eq i32 %521, 0
  %542 = zext i1 %541 to i8
  %543 = getelementptr inbounds %struct.State, %struct.State* %0, i64 0, i32 2, i32 7
  store i8 %542, i8* %543, align 1
  %544 = lshr i32 %521, 31
  %545 = trunc i32 %544 to i8
  %546 = getelementptr inbounds %struct.State, %struct.State* %0, i64 0, i32 2, i32 9
  store i8 %545, i8* %546, align 1
  %547 = lshr i32 %520, 31
  %548 = xor i32 %544, %547
  %549 = add i32 %548, %544
  %550 = icmp eq i32 %549, 2
  %551 = zext i1 %550 to i8
  %552 = getelementptr inbounds %struct.State, %struct.State* %0, i64 0, i32 2, i32 13
  store i8 %551, i8* %552, align 1
  store %struct.Memory* %loadMem_40642b, %struct.Memory** %MEMORY
  %loadMem_40642e = load %struct.Memory*, %struct.Memory** %MEMORY
  %553 = getelementptr inbounds %struct.State, %struct.State* %0, i32 0, i32 6
  %554 = getelementptr inbounds %struct.GPR, %struct.GPR* %553, i32 0, i32 33
  %555 = getelementptr inbounds %struct.Reg, %struct.Reg* %554, i32 0, i32 0
  %PC.i43 = bitcast %union.anon* %555 to i64*
  %556 = getelementptr inbounds %struct.State, %struct.State* %0, i32 0, i32 6
  %557 = getelementptr inbounds %struct.GPR, %struct.GPR* %556, i32 0, i32 1
  %558 = getelementptr inbounds %struct.Reg, %struct.Reg* %557, i32 0, i32 0
  %EAX.i44 = bitcast %union.anon* %558 to i32*
  %559 = getelementptr inbounds %struct.State, %struct.State* %0, i32 0, i32 6
  %560 = getelementptr inbounds %struct.GPR, %struct.GPR* %559, i32 0, i32 15
  %561 = getelementptr inbounds %struct.Reg, %struct.Reg* %560, i32 0, i32 0
  %RBP.i45 = bitcast %union.anon* %561 to i64*
  %562 = load i64, i64* %RBP.i45
  %563 = sub i64 %562, 36
  %564 = load i32, i32* %EAX.i44
  %565 = zext i32 %564 to i64
  %566 = load i64, i64* %PC.i43
  %567 = add i64 %566, 3
  store i64 %567, i64* %PC.i43
  %568 = inttoptr i64 %563 to i32*
  store i32 %564, i32* %568
  store %struct.Memory* %loadMem_40642e, %struct.Memory** %MEMORY
  %loadMem_406431 = load %struct.Memory*, %struct.Memory** %MEMORY
  %569 = getelementptr inbounds %struct.State, %struct.State* %0, i32 0, i32 6
  %570 = getelementptr inbounds %struct.GPR, %struct.GPR* %569, i32 0, i32 33
  %571 = getelementptr inbounds %struct.Reg, %struct.Reg* %570, i32 0, i32 0
  %PC.i42 = bitcast %union.anon* %571 to i64*
  %572 = load i64, i64* %PC.i42
  %573 = add i64 %572, -46
  %574 = load i64, i64* %PC.i42
  %575 = add i64 %574, 5
  store i64 %575, i64* %PC.i42
  %576 = getelementptr inbounds %struct.State, %struct.State* %0, i64 0, i32 6, i32 33, i32 0, i32 0
  store i64 %573, i64* %576, align 8
  store %struct.Memory* %loadMem_406431, %struct.Memory** %MEMORY
  br label %block_.L_406403

block_.L_406436:                                  ; preds = %block_.L_406403
  %loadMem_406436 = load %struct.Memory*, %struct.Memory** %MEMORY
  %577 = getelementptr inbounds %struct.State, %struct.State* %0, i32 0, i32 6
  %578 = getelementptr inbounds %struct.GPR, %struct.GPR* %577, i32 0, i32 33
  %579 = getelementptr inbounds %struct.Reg, %struct.Reg* %578, i32 0, i32 0
  %PC.i39 = bitcast %union.anon* %579 to i64*
  %580 = getelementptr inbounds %struct.State, %struct.State* %0, i32 0, i32 6
  %581 = getelementptr inbounds %struct.GPR, %struct.GPR* %580, i32 0, i32 1
  %582 = getelementptr inbounds %struct.Reg, %struct.Reg* %581, i32 0, i32 0
  %RAX.i40 = bitcast %union.anon* %582 to i64*
  %583 = getelementptr inbounds %struct.State, %struct.State* %0, i32 0, i32 6
  %584 = getelementptr inbounds %struct.GPR, %struct.GPR* %583, i32 0, i32 15
  %585 = getelementptr inbounds %struct.Reg, %struct.Reg* %584, i32 0, i32 0
  %RBP.i41 = bitcast %union.anon* %585 to i64*
  %586 = load i64, i64* %RBP.i41
  %587 = sub i64 %586, 12
  %588 = load i64, i64* %PC.i39
  %589 = add i64 %588, 3
  store i64 %589, i64* %PC.i39
  %590 = inttoptr i64 %587 to i32*
  %591 = load i32, i32* %590
  %592 = zext i32 %591 to i64
  store i64 %592, i64* %RAX.i40, align 8
  store %struct.Memory* %loadMem_406436, %struct.Memory** %MEMORY
  %loadMem_406439 = load %struct.Memory*, %struct.Memory** %MEMORY
  %593 = getelementptr inbounds %struct.State, %struct.State* %0, i32 0, i32 6
  %594 = getelementptr inbounds %struct.GPR, %struct.GPR* %593, i32 0, i32 33
  %595 = getelementptr inbounds %struct.Reg, %struct.Reg* %594, i32 0, i32 0
  %PC.i36 = bitcast %union.anon* %595 to i64*
  %596 = getelementptr inbounds %struct.State, %struct.State* %0, i32 0, i32 6
  %597 = getelementptr inbounds %struct.GPR, %struct.GPR* %596, i32 0, i32 5
  %598 = getelementptr inbounds %struct.Reg, %struct.Reg* %597, i32 0, i32 0
  %RCX.i37 = bitcast %union.anon* %598 to i64*
  %599 = getelementptr inbounds %struct.State, %struct.State* %0, i32 0, i32 6
  %600 = getelementptr inbounds %struct.GPR, %struct.GPR* %599, i32 0, i32 15
  %601 = getelementptr inbounds %struct.Reg, %struct.Reg* %600, i32 0, i32 0
  %RBP.i38 = bitcast %union.anon* %601 to i64*
  %602 = load i64, i64* %RBP.i38
  %603 = sub i64 %602, 14
  %604 = load i64, i64* %PC.i36
  %605 = add i64 %604, 4
  store i64 %605, i64* %PC.i36
  %606 = inttoptr i64 %603 to i16*
  %607 = load i16, i16* %606
  %608 = zext i16 %607 to i64
  store i64 %608, i64* %RCX.i37, align 8
  store %struct.Memory* %loadMem_406439, %struct.Memory** %MEMORY
  %loadMem_40643d = load %struct.Memory*, %struct.Memory** %MEMORY
  %609 = getelementptr inbounds %struct.State, %struct.State* %0, i32 0, i32 6
  %610 = getelementptr inbounds %struct.GPR, %struct.GPR* %609, i32 0, i32 33
  %611 = getelementptr inbounds %struct.Reg, %struct.Reg* %610, i32 0, i32 0
  %PC.i34 = bitcast %union.anon* %611 to i64*
  %612 = getelementptr inbounds %struct.State, %struct.State* %0, i32 0, i32 6
  %613 = getelementptr inbounds %struct.GPR, %struct.GPR* %612, i32 0, i32 5
  %614 = getelementptr inbounds %struct.Reg, %struct.Reg* %613, i32 0, i32 0
  %ECX.i = bitcast %union.anon* %614 to i32*
  %615 = getelementptr inbounds %struct.State, %struct.State* %0, i32 0, i32 6
  %616 = getelementptr inbounds %struct.GPR, %struct.GPR* %615, i32 0, i32 1
  %617 = getelementptr inbounds %struct.Reg, %struct.Reg* %616, i32 0, i32 0
  %RAX.i35 = bitcast %union.anon* %617 to i64*
  %618 = load i64, i64* %RAX.i35
  %619 = load i32, i32* %ECX.i
  %620 = zext i32 %619 to i64
  %621 = load i64, i64* %PC.i34
  %622 = add i64 %621, 3
  store i64 %622, i64* %PC.i34
  %623 = shl i64 %618, 32
  %624 = ashr exact i64 %623, 32
  %625 = shl i64 %620, 32
  %626 = ashr exact i64 %625, 32
  %627 = mul i64 %626, %624
  %628 = trunc i64 %627 to i32
  %629 = and i64 %627, 4294967295
  store i64 %629, i64* %RAX.i35, align 8
  %630 = shl i64 %627, 32
  %631 = ashr exact i64 %630, 32
  %632 = icmp ne i64 %631, %627
  %633 = zext i1 %632 to i8
  %634 = getelementptr inbounds %struct.State, %struct.State* %0, i64 0, i32 2, i32 1
  store i8 %633, i8* %634, align 1
  %635 = and i32 %628, 255
  %636 = call i32 @llvm.ctpop.i32(i32 %635)
  %637 = trunc i32 %636 to i8
  %638 = and i8 %637, 1
  %639 = xor i8 %638, 1
  %640 = getelementptr inbounds %struct.State, %struct.State* %0, i64 0, i32 2, i32 3
  store i8 %639, i8* %640, align 1
  %641 = getelementptr inbounds %struct.State, %struct.State* %0, i64 0, i32 2, i32 5
  store i8 0, i8* %641, align 1
  %642 = getelementptr inbounds %struct.State, %struct.State* %0, i64 0, i32 2, i32 7
  store i8 0, i8* %642, align 1
  %643 = lshr i32 %628, 31
  %644 = trunc i32 %643 to i8
  %645 = getelementptr inbounds %struct.State, %struct.State* %0, i64 0, i32 2, i32 9
  store i8 %644, i8* %645, align 1
  %646 = getelementptr inbounds %struct.State, %struct.State* %0, i64 0, i32 2, i32 13
  store i8 %633, i8* %646, align 1
  store %struct.Memory* %loadMem_40643d, %struct.Memory** %MEMORY
  %loadMem_406440 = load %struct.Memory*, %struct.Memory** %MEMORY
  %647 = getelementptr inbounds %struct.State, %struct.State* %0, i32 0, i32 6
  %648 = getelementptr inbounds %struct.GPR, %struct.GPR* %647, i32 0, i32 33
  %649 = getelementptr inbounds %struct.Reg, %struct.Reg* %648, i32 0, i32 0
  %PC.i31 = bitcast %union.anon* %649 to i64*
  %650 = getelementptr inbounds %struct.State, %struct.State* %0, i32 0, i32 6
  %651 = getelementptr inbounds %struct.GPR, %struct.GPR* %650, i32 0, i32 5
  %652 = getelementptr inbounds %struct.Reg, %struct.Reg* %651, i32 0, i32 0
  %RCX.i32 = bitcast %union.anon* %652 to i64*
  %653 = getelementptr inbounds %struct.State, %struct.State* %0, i32 0, i32 6
  %654 = getelementptr inbounds %struct.GPR, %struct.GPR* %653, i32 0, i32 15
  %655 = getelementptr inbounds %struct.Reg, %struct.Reg* %654, i32 0, i32 0
  %RBP.i33 = bitcast %union.anon* %655 to i64*
  %656 = load i64, i64* %RBP.i33
  %657 = sub i64 %656, 30
  %658 = load i64, i64* %PC.i31
  %659 = add i64 %658, 4
  store i64 %659, i64* %PC.i31
  %660 = inttoptr i64 %657 to i16*
  %661 = load i16, i16* %660
  %662 = zext i16 %661 to i64
  store i64 %662, i64* %RCX.i32, align 8
  store %struct.Memory* %loadMem_406440, %struct.Memory** %MEMORY
  %loadMem_406444 = load %struct.Memory*, %struct.Memory** %MEMORY
  %663 = getelementptr inbounds %struct.State, %struct.State* %0, i32 0, i32 6
  %664 = getelementptr inbounds %struct.GPR, %struct.GPR* %663, i32 0, i32 33
  %665 = getelementptr inbounds %struct.Reg, %struct.Reg* %664, i32 0, i32 0
  %PC.i29 = bitcast %union.anon* %665 to i64*
  %666 = getelementptr inbounds %struct.State, %struct.State* %0, i32 0, i32 6
  %667 = getelementptr inbounds %struct.GPR, %struct.GPR* %666, i32 0, i32 1
  %668 = getelementptr inbounds %struct.Reg, %struct.Reg* %667, i32 0, i32 0
  %EAX.i30 = bitcast %union.anon* %668 to i32*
  %669 = getelementptr inbounds %struct.State, %struct.State* %0, i32 0, i32 6
  %670 = getelementptr inbounds %struct.GPR, %struct.GPR* %669, i32 0, i32 5
  %671 = getelementptr inbounds %struct.Reg, %struct.Reg* %670, i32 0, i32 0
  %RCX.i = bitcast %union.anon* %671 to i64*
  %672 = load i64, i64* %RCX.i
  %673 = load i32, i32* %EAX.i30
  %674 = zext i32 %673 to i64
  %675 = load i64, i64* %PC.i29
  %676 = add i64 %675, 2
  store i64 %676, i64* %PC.i29
  %677 = trunc i64 %672 to i32
  %678 = add i32 %673, %677
  %679 = zext i32 %678 to i64
  store i64 %679, i64* %RCX.i, align 8
  %680 = icmp ult i32 %678, %677
  %681 = icmp ult i32 %678, %673
  %682 = or i1 %680, %681
  %683 = zext i1 %682 to i8
  %684 = getelementptr inbounds %struct.State, %struct.State* %0, i64 0, i32 2, i32 1
  store i8 %683, i8* %684, align 1
  %685 = and i32 %678, 255
  %686 = call i32 @llvm.ctpop.i32(i32 %685)
  %687 = trunc i32 %686 to i8
  %688 = and i8 %687, 1
  %689 = xor i8 %688, 1
  %690 = getelementptr inbounds %struct.State, %struct.State* %0, i64 0, i32 2, i32 3
  store i8 %689, i8* %690, align 1
  %691 = xor i64 %674, %672
  %692 = trunc i64 %691 to i32
  %693 = xor i32 %692, %678
  %694 = lshr i32 %693, 4
  %695 = trunc i32 %694 to i8
  %696 = and i8 %695, 1
  %697 = getelementptr inbounds %struct.State, %struct.State* %0, i64 0, i32 2, i32 5
  store i8 %696, i8* %697, align 1
  %698 = icmp eq i32 %678, 0
  %699 = zext i1 %698 to i8
  %700 = getelementptr inbounds %struct.State, %struct.State* %0, i64 0, i32 2, i32 7
  store i8 %699, i8* %700, align 1
  %701 = lshr i32 %678, 31
  %702 = trunc i32 %701 to i8
  %703 = getelementptr inbounds %struct.State, %struct.State* %0, i64 0, i32 2, i32 9
  store i8 %702, i8* %703, align 1
  %704 = lshr i32 %677, 31
  %705 = lshr i32 %673, 31
  %706 = xor i32 %701, %704
  %707 = xor i32 %701, %705
  %708 = add i32 %706, %707
  %709 = icmp eq i32 %708, 2
  %710 = zext i1 %709 to i8
  %711 = getelementptr inbounds %struct.State, %struct.State* %0, i64 0, i32 2, i32 13
  store i8 %710, i8* %711, align 1
  store %struct.Memory* %loadMem_406444, %struct.Memory** %MEMORY
  %loadMem_406446 = load %struct.Memory*, %struct.Memory** %MEMORY
  %712 = getelementptr inbounds %struct.State, %struct.State* %0, i32 0, i32 6
  %713 = getelementptr inbounds %struct.GPR, %struct.GPR* %712, i32 0, i32 33
  %714 = getelementptr inbounds %struct.Reg, %struct.Reg* %713, i32 0, i32 0
  %PC.i27 = bitcast %union.anon* %714 to i64*
  %715 = getelementptr inbounds %struct.State, %struct.State* %0, i32 0, i32 6
  %716 = getelementptr inbounds %struct.GPR, %struct.GPR* %715, i32 0, i32 5
  %717 = getelementptr inbounds %struct.Reg, %struct.Reg* %716, i32 0, i32 0
  %CX.i = bitcast %union.anon* %717 to i16*
  %718 = getelementptr inbounds %struct.State, %struct.State* %0, i32 0, i32 6
  %719 = getelementptr inbounds %struct.GPR, %struct.GPR* %718, i32 0, i32 7
  %720 = getelementptr inbounds %struct.Reg, %struct.Reg* %719, i32 0, i32 0
  %DX.i28 = bitcast %union.anon* %720 to i16*
  %721 = load i16, i16* %CX.i
  %722 = zext i16 %721 to i64
  %723 = load i64, i64* %PC.i27
  %724 = add i64 %723, 3
  store i64 %724, i64* %PC.i27
  store i16 %721, i16* %DX.i28, align 2
  store %struct.Memory* %loadMem_406446, %struct.Memory** %MEMORY
  %loadMem_406449 = load %struct.Memory*, %struct.Memory** %MEMORY
  %725 = getelementptr inbounds %struct.State, %struct.State* %0, i32 0, i32 6
  %726 = getelementptr inbounds %struct.GPR, %struct.GPR* %725, i32 0, i32 33
  %727 = getelementptr inbounds %struct.Reg, %struct.Reg* %726, i32 0, i32 0
  %PC.i24 = bitcast %union.anon* %727 to i64*
  %728 = getelementptr inbounds %struct.State, %struct.State* %0, i32 0, i32 6
  %729 = getelementptr inbounds %struct.GPR, %struct.GPR* %728, i32 0, i32 7
  %730 = getelementptr inbounds %struct.Reg, %struct.Reg* %729, i32 0, i32 0
  %DX.i25 = bitcast %union.anon* %730 to i16*
  %731 = getelementptr inbounds %struct.State, %struct.State* %0, i32 0, i32 6
  %732 = getelementptr inbounds %struct.GPR, %struct.GPR* %731, i32 0, i32 15
  %733 = getelementptr inbounds %struct.Reg, %struct.Reg* %732, i32 0, i32 0
  %RBP.i26 = bitcast %union.anon* %733 to i64*
  %734 = load i64, i64* %RBP.i26
  %735 = sub i64 %734, 30
  %736 = load i16, i16* %DX.i25
  %737 = zext i16 %736 to i64
  %738 = load i64, i64* %PC.i24
  %739 = add i64 %738, 4
  store i64 %739, i64* %PC.i24
  %740 = inttoptr i64 %735 to i16*
  store i16 %736, i16* %740
  store %struct.Memory* %loadMem_406449, %struct.Memory** %MEMORY
  %loadMem_40644d = load %struct.Memory*, %struct.Memory** %MEMORY
  %741 = getelementptr inbounds %struct.State, %struct.State* %0, i32 0, i32 6
  %742 = getelementptr inbounds %struct.GPR, %struct.GPR* %741, i32 0, i32 33
  %743 = getelementptr inbounds %struct.Reg, %struct.Reg* %742, i32 0, i32 0
  %PC.i21 = bitcast %union.anon* %743 to i64*
  %744 = getelementptr inbounds %struct.State, %struct.State* %0, i32 0, i32 6
  %745 = getelementptr inbounds %struct.GPR, %struct.GPR* %744, i32 0, i32 7
  %746 = getelementptr inbounds %struct.Reg, %struct.Reg* %745, i32 0, i32 0
  %DX.i22 = bitcast %union.anon* %746 to i16*
  %747 = getelementptr inbounds %struct.State, %struct.State* %0, i32 0, i32 6
  %748 = getelementptr inbounds %struct.GPR, %struct.GPR* %747, i32 0, i32 15
  %749 = getelementptr inbounds %struct.Reg, %struct.Reg* %748, i32 0, i32 0
  %RBP.i23 = bitcast %union.anon* %749 to i64*
  %750 = load i64, i64* %RBP.i23
  %751 = sub i64 %750, 30
  %752 = load i64, i64* %PC.i21
  %753 = add i64 %752, 4
  store i64 %753, i64* %PC.i21
  %754 = inttoptr i64 %751 to i16*
  %755 = load i16, i16* %754
  store i16 %755, i16* %DX.i22, align 2
  store %struct.Memory* %loadMem_40644d, %struct.Memory** %MEMORY
  %loadMem_406451 = load %struct.Memory*, %struct.Memory** %MEMORY
  %756 = getelementptr inbounds %struct.State, %struct.State* %0, i32 0, i32 6
  %757 = getelementptr inbounds %struct.GPR, %struct.GPR* %756, i32 0, i32 33
  %758 = getelementptr inbounds %struct.Reg, %struct.Reg* %757, i32 0, i32 0
  %PC.i19 = bitcast %union.anon* %758 to i64*
  %759 = getelementptr inbounds %struct.State, %struct.State* %0, i32 0, i32 6
  %760 = getelementptr inbounds %struct.GPR, %struct.GPR* %759, i32 0, i32 7
  %761 = getelementptr inbounds %struct.Reg, %struct.Reg* %760, i32 0, i32 0
  %DX.i = bitcast %union.anon* %761 to i16*
  %762 = getelementptr inbounds %struct.State, %struct.State* %0, i32 0, i32 6
  %763 = getelementptr inbounds %struct.GPR, %struct.GPR* %762, i32 0, i32 11
  %764 = getelementptr inbounds %struct.Reg, %struct.Reg* %763, i32 0, i32 0
  %RDI.i20 = bitcast %union.anon* %764 to i64*
  %765 = load i16, i16* %DX.i
  %766 = zext i16 %765 to i64
  %767 = load i64, i64* %PC.i19
  %768 = add i64 %767, 3
  store i64 %768, i64* %PC.i19
  %769 = and i64 %766, 65535
  store i64 %769, i64* %RDI.i20, align 8
  store %struct.Memory* %loadMem_406451, %struct.Memory** %MEMORY
  %loadMem_406454 = load %struct.Memory*, %struct.Memory** %MEMORY
  %770 = getelementptr inbounds %struct.State, %struct.State* %0, i32 0, i32 6
  %771 = getelementptr inbounds %struct.GPR, %struct.GPR* %770, i32 0, i32 33
  %772 = getelementptr inbounds %struct.Reg, %struct.Reg* %771, i32 0, i32 0
  %PC.i17 = bitcast %union.anon* %772 to i64*
  %773 = getelementptr inbounds %struct.State, %struct.State* %0, i32 0, i32 6
  %774 = getelementptr inbounds %struct.GPR, %struct.GPR* %773, i32 0, i32 9
  %775 = getelementptr inbounds %struct.Reg, %struct.Reg* %774, i32 0, i32 0
  %RSI.i = bitcast %union.anon* %775 to i64*
  %776 = getelementptr inbounds %struct.State, %struct.State* %0, i32 0, i32 6
  %777 = getelementptr inbounds %struct.GPR, %struct.GPR* %776, i32 0, i32 15
  %778 = getelementptr inbounds %struct.Reg, %struct.Reg* %777, i32 0, i32 0
  %RBP.i18 = bitcast %union.anon* %778 to i64*
  %779 = load i64, i64* %RBP.i18
  %780 = sub i64 %779, 14
  %781 = load i64, i64* %PC.i17
  %782 = add i64 %781, 4
  store i64 %782, i64* %PC.i17
  %783 = inttoptr i64 %780 to i16*
  %784 = load i16, i16* %783
  %785 = zext i16 %784 to i64
  store i64 %785, i64* %RSI.i, align 8
  store %struct.Memory* %loadMem_406454, %struct.Memory** %MEMORY
  %loadMem1_406458 = load %struct.Memory*, %struct.Memory** %MEMORY
  %786 = getelementptr inbounds %struct.State, %struct.State* %0, i32 0, i32 6
  %787 = getelementptr inbounds %struct.GPR, %struct.GPR* %786, i32 0, i32 33
  %788 = getelementptr inbounds %struct.Reg, %struct.Reg* %787, i32 0, i32 0
  %PC.i16 = bitcast %union.anon* %788 to i64*
  %789 = load i64, i64* %PC.i16
  %790 = add i64 %789, 44056
  %791 = load i64, i64* %PC.i16
  %792 = add i64 %791, 5
  %793 = load i64, i64* %PC.i16
  %794 = add i64 %793, 5
  store i64 %794, i64* %PC.i16
  %795 = getelementptr inbounds %struct.State, %struct.State* %0, i64 0, i32 6, i32 13, i32 0, i32 0
  %796 = load i64, i64* %795, align 8
  %797 = add i64 %796, -8
  %798 = inttoptr i64 %797 to i64*
  store i64 %792, i64* %798
  store i64 %797, i64* %795, align 8
  %799 = getelementptr inbounds %struct.State, %struct.State* %0, i64 0, i32 6, i32 33, i32 0, i32 0
  store i64 %790, i64* %799, align 8
  store %struct.Memory* %loadMem1_406458, %struct.Memory** %MEMORY
  %loadMem2_406458 = load %struct.Memory*, %struct.Memory** %MEMORY
  %loadPC_406458 = load i64, i64* %3
  %call2_406458 = call %struct.Memory* @sub_411070._Z26check_shifted_variable_sumIt19custom_add_variableItEEvT_S2_(%struct.State* %0, i64 %loadPC_406458, %struct.Memory* %loadMem2_406458)
  store %struct.Memory* %call2_406458, %struct.Memory** %MEMORY
  %loadMem_40645d = load %struct.Memory*, %struct.Memory** %MEMORY
  %800 = getelementptr inbounds %struct.State, %struct.State* %0, i32 0, i32 6
  %801 = getelementptr inbounds %struct.GPR, %struct.GPR* %800, i32 0, i32 33
  %802 = getelementptr inbounds %struct.Reg, %struct.Reg* %801, i32 0, i32 0
  %PC.i13 = bitcast %union.anon* %802 to i64*
  %803 = getelementptr inbounds %struct.State, %struct.State* %0, i32 0, i32 6
  %804 = getelementptr inbounds %struct.GPR, %struct.GPR* %803, i32 0, i32 1
  %805 = getelementptr inbounds %struct.Reg, %struct.Reg* %804, i32 0, i32 0
  %RAX.i14 = bitcast %union.anon* %805 to i64*
  %806 = getelementptr inbounds %struct.State, %struct.State* %0, i32 0, i32 6
  %807 = getelementptr inbounds %struct.GPR, %struct.GPR* %806, i32 0, i32 15
  %808 = getelementptr inbounds %struct.Reg, %struct.Reg* %807, i32 0, i32 0
  %RBP.i15 = bitcast %union.anon* %808 to i64*
  %809 = load i64, i64* %RBP.i15
  %810 = sub i64 %809, 28
  %811 = load i64, i64* %PC.i13
  %812 = add i64 %811, 3
  store i64 %812, i64* %PC.i13
  %813 = inttoptr i64 %810 to i32*
  %814 = load i32, i32* %813
  %815 = zext i32 %814 to i64
  store i64 %815, i64* %RAX.i14, align 8
  store %struct.Memory* %loadMem_40645d, %struct.Memory** %MEMORY
  %loadMem_406460 = load %struct.Memory*, %struct.Memory** %MEMORY
  %816 = getelementptr inbounds %struct.State, %struct.State* %0, i32 0, i32 6
  %817 = getelementptr inbounds %struct.GPR, %struct.GPR* %816, i32 0, i32 33
  %818 = getelementptr inbounds %struct.Reg, %struct.Reg* %817, i32 0, i32 0
  %PC.i12 = bitcast %union.anon* %818 to i64*
  %819 = getelementptr inbounds %struct.State, %struct.State* %0, i32 0, i32 6
  %820 = getelementptr inbounds %struct.GPR, %struct.GPR* %819, i32 0, i32 1
  %821 = getelementptr inbounds %struct.Reg, %struct.Reg* %820, i32 0, i32 0
  %RAX.i = bitcast %union.anon* %821 to i64*
  %822 = load i64, i64* %RAX.i
  %823 = load i64, i64* %PC.i12
  %824 = add i64 %823, 3
  store i64 %824, i64* %PC.i12
  %825 = trunc i64 %822 to i32
  %826 = add i32 1, %825
  %827 = zext i32 %826 to i64
  store i64 %827, i64* %RAX.i, align 8
  %828 = icmp ult i32 %826, %825
  %829 = icmp ult i32 %826, 1
  %830 = or i1 %828, %829
  %831 = zext i1 %830 to i8
  %832 = getelementptr inbounds %struct.State, %struct.State* %0, i64 0, i32 2, i32 1
  store i8 %831, i8* %832, align 1
  %833 = and i32 %826, 255
  %834 = call i32 @llvm.ctpop.i32(i32 %833)
  %835 = trunc i32 %834 to i8
  %836 = and i8 %835, 1
  %837 = xor i8 %836, 1
  %838 = getelementptr inbounds %struct.State, %struct.State* %0, i64 0, i32 2, i32 3
  store i8 %837, i8* %838, align 1
  %839 = xor i64 1, %822
  %840 = trunc i64 %839 to i32
  %841 = xor i32 %840, %826
  %842 = lshr i32 %841, 4
  %843 = trunc i32 %842 to i8
  %844 = and i8 %843, 1
  %845 = getelementptr inbounds %struct.State, %struct.State* %0, i64 0, i32 2, i32 5
  store i8 %844, i8* %845, align 1
  %846 = icmp eq i32 %826, 0
  %847 = zext i1 %846 to i8
  %848 = getelementptr inbounds %struct.State, %struct.State* %0, i64 0, i32 2, i32 7
  store i8 %847, i8* %848, align 1
  %849 = lshr i32 %826, 31
  %850 = trunc i32 %849 to i8
  %851 = getelementptr inbounds %struct.State, %struct.State* %0, i64 0, i32 2, i32 9
  store i8 %850, i8* %851, align 1
  %852 = lshr i32 %825, 31
  %853 = xor i32 %849, %852
  %854 = add i32 %853, %849
  %855 = icmp eq i32 %854, 2
  %856 = zext i1 %855 to i8
  %857 = getelementptr inbounds %struct.State, %struct.State* %0, i64 0, i32 2, i32 13
  store i8 %856, i8* %857, align 1
  store %struct.Memory* %loadMem_406460, %struct.Memory** %MEMORY
  %loadMem_406463 = load %struct.Memory*, %struct.Memory** %MEMORY
  %858 = getelementptr inbounds %struct.State, %struct.State* %0, i32 0, i32 6
  %859 = getelementptr inbounds %struct.GPR, %struct.GPR* %858, i32 0, i32 33
  %860 = getelementptr inbounds %struct.Reg, %struct.Reg* %859, i32 0, i32 0
  %PC.i10 = bitcast %union.anon* %860 to i64*
  %861 = getelementptr inbounds %struct.State, %struct.State* %0, i32 0, i32 6
  %862 = getelementptr inbounds %struct.GPR, %struct.GPR* %861, i32 0, i32 1
  %863 = getelementptr inbounds %struct.Reg, %struct.Reg* %862, i32 0, i32 0
  %EAX.i = bitcast %union.anon* %863 to i32*
  %864 = getelementptr inbounds %struct.State, %struct.State* %0, i32 0, i32 6
  %865 = getelementptr inbounds %struct.GPR, %struct.GPR* %864, i32 0, i32 15
  %866 = getelementptr inbounds %struct.Reg, %struct.Reg* %865, i32 0, i32 0
  %RBP.i11 = bitcast %union.anon* %866 to i64*
  %867 = load i64, i64* %RBP.i11
  %868 = sub i64 %867, 28
  %869 = load i32, i32* %EAX.i
  %870 = zext i32 %869 to i64
  %871 = load i64, i64* %PC.i10
  %872 = add i64 %871, 3
  store i64 %872, i64* %PC.i10
  %873 = inttoptr i64 %868 to i32*
  store i32 %869, i32* %873
  store %struct.Memory* %loadMem_406463, %struct.Memory** %MEMORY
  %loadMem_406466 = load %struct.Memory*, %struct.Memory** %MEMORY
  %874 = getelementptr inbounds %struct.State, %struct.State* %0, i32 0, i32 6
  %875 = getelementptr inbounds %struct.GPR, %struct.GPR* %874, i32 0, i32 33
  %876 = getelementptr inbounds %struct.Reg, %struct.Reg* %875, i32 0, i32 0
  %PC.i9 = bitcast %union.anon* %876 to i64*
  %877 = load i64, i64* %PC.i9
  %878 = add i64 %877, -128
  %879 = load i64, i64* %PC.i9
  %880 = add i64 %879, 5
  store i64 %880, i64* %PC.i9
  %881 = getelementptr inbounds %struct.State, %struct.State* %0, i64 0, i32 6, i32 33, i32 0, i32 0
  store i64 %878, i64* %881, align 8
  store %struct.Memory* %loadMem_406466, %struct.Memory** %MEMORY
  br label %block_.L_4063e6

block_.L_40646b:                                  ; preds = %block_.L_4063e6
  %loadMem1_40646b = load %struct.Memory*, %struct.Memory** %MEMORY
  %882 = getelementptr inbounds %struct.State, %struct.State* %0, i32 0, i32 6
  %883 = getelementptr inbounds %struct.GPR, %struct.GPR* %882, i32 0, i32 33
  %884 = getelementptr inbounds %struct.Reg, %struct.Reg* %883, i32 0, i32 0
  %PC.i8 = bitcast %union.anon* %884 to i64*
  %885 = load i64, i64* %PC.i8
  %886 = add i64 %885, -22011
  %887 = load i64, i64* %PC.i8
  %888 = add i64 %887, 5
  %889 = load i64, i64* %PC.i8
  %890 = add i64 %889, 5
  store i64 %890, i64* %PC.i8
  %891 = getelementptr inbounds %struct.State, %struct.State* %0, i64 0, i32 6, i32 13, i32 0, i32 0
  %892 = load i64, i64* %891, align 8
  %893 = add i64 %892, -8
  %894 = inttoptr i64 %893 to i64*
  store i64 %888, i64* %894
  store i64 %893, i64* %891, align 8
  %895 = getelementptr inbounds %struct.State, %struct.State* %0, i64 0, i32 6, i32 33, i32 0, i32 0
  store i64 %886, i64* %895, align 8
  store %struct.Memory* %loadMem1_40646b, %struct.Memory** %MEMORY
  %loadMem2_40646b = load %struct.Memory*, %struct.Memory** %MEMORY
  %loadPC_40646b = load i64, i64* %3
  %call2_40646b = call %struct.Memory* @sub_400e70._Z5timerv(%struct.State* %0, i64 %loadPC_40646b, %struct.Memory* %loadMem2_40646b)
  store %struct.Memory* %call2_40646b, %struct.Memory** %MEMORY
  %loadMem_406470 = load %struct.Memory*, %struct.Memory** %MEMORY
  %896 = getelementptr inbounds %struct.State, %struct.State* %0, i32 0, i32 6
  %897 = getelementptr inbounds %struct.GPR, %struct.GPR* %896, i32 0, i32 33
  %898 = getelementptr inbounds %struct.Reg, %struct.Reg* %897, i32 0, i32 0
  %PC.i6 = bitcast %union.anon* %898 to i64*
  %899 = getelementptr inbounds %struct.State, %struct.State* %0, i32 0, i32 6
  %900 = getelementptr inbounds %struct.GPR, %struct.GPR* %899, i32 0, i32 11
  %901 = getelementptr inbounds %struct.Reg, %struct.Reg* %900, i32 0, i32 0
  %RDI.i = bitcast %union.anon* %901 to i64*
  %902 = getelementptr inbounds %struct.State, %struct.State* %0, i32 0, i32 6
  %903 = getelementptr inbounds %struct.GPR, %struct.GPR* %902, i32 0, i32 15
  %904 = getelementptr inbounds %struct.Reg, %struct.Reg* %903, i32 0, i32 0
  %RBP.i7 = bitcast %union.anon* %904 to i64*
  %905 = load i64, i64* %RBP.i7
  %906 = sub i64 %905, 24
  %907 = load i64, i64* %PC.i6
  %908 = add i64 %907, 4
  store i64 %908, i64* %PC.i6
  %909 = inttoptr i64 %906 to i64*
  %910 = load i64, i64* %909
  store i64 %910, i64* %RDI.i, align 8
  store %struct.Memory* %loadMem_406470, %struct.Memory** %MEMORY
  %loadMem1_406474 = load %struct.Memory*, %struct.Memory** %MEMORY
  %911 = getelementptr inbounds %struct.State, %struct.State* %0, i32 0, i32 6
  %912 = getelementptr inbounds %struct.GPR, %struct.GPR* %911, i32 0, i32 33
  %913 = getelementptr inbounds %struct.Reg, %struct.Reg* %912, i32 0, i32 0
  %PC.i5 = bitcast %union.anon* %913 to i64*
  %914 = load i64, i64* %PC.i5
  %915 = add i64 %914, -23652
  %916 = load i64, i64* %PC.i5
  %917 = add i64 %916, 5
  %918 = load i64, i64* %PC.i5
  %919 = add i64 %918, 5
  store i64 %919, i64* %PC.i5
  %920 = getelementptr inbounds %struct.State, %struct.State* %0, i64 0, i32 6, i32 13, i32 0, i32 0
  %921 = load i64, i64* %920, align 8
  %922 = add i64 %921, -8
  %923 = inttoptr i64 %922 to i64*
  store i64 %917, i64* %923
  store i64 %922, i64* %920, align 8
  %924 = getelementptr inbounds %struct.State, %struct.State* %0, i64 0, i32 6, i32 33, i32 0, i32 0
  store i64 %915, i64* %924, align 8
  store %struct.Memory* %loadMem1_406474, %struct.Memory** %MEMORY
  %loadMem2_406474 = load %struct.Memory*, %struct.Memory** %MEMORY
  %loadPC_406474 = load i64, i64* %3
  %call2_406474 = call %struct.Memory* @sub_400810._Z13record_resultdPKc(%struct.State* %0, i64 %loadPC_406474, %struct.Memory* %loadMem2_406474)
  store %struct.Memory* %call2_406474, %struct.Memory** %MEMORY
  %loadMem_406479 = load %struct.Memory*, %struct.Memory** %MEMORY
  %925 = getelementptr inbounds %struct.State, %struct.State* %0, i32 0, i32 6
  %926 = getelementptr inbounds %struct.GPR, %struct.GPR* %925, i32 0, i32 33
  %927 = getelementptr inbounds %struct.Reg, %struct.Reg* %926, i32 0, i32 0
  %PC.i4 = bitcast %union.anon* %927 to i64*
  %928 = getelementptr inbounds %struct.State, %struct.State* %0, i32 0, i32 6
  %929 = getelementptr inbounds %struct.GPR, %struct.GPR* %928, i32 0, i32 13
  %930 = getelementptr inbounds %struct.Reg, %struct.Reg* %929, i32 0, i32 0
  %RSP.i = bitcast %union.anon* %930 to i64*
  %931 = load i64, i64* %RSP.i
  %932 = load i64, i64* %PC.i4
  %933 = add i64 %932, 4
  store i64 %933, i64* %PC.i4
  %934 = add i64 48, %931
  store i64 %934, i64* %RSP.i, align 8
  %935 = icmp ult i64 %934, %931
  %936 = icmp ult i64 %934, 48
  %937 = or i1 %935, %936
  %938 = zext i1 %937 to i8
  %939 = getelementptr inbounds %struct.State, %struct.State* %0, i64 0, i32 2, i32 1
  store i8 %938, i8* %939, align 1
  %940 = trunc i64 %934 to i32
  %941 = and i32 %940, 255
  %942 = call i32 @llvm.ctpop.i32(i32 %941)
  %943 = trunc i32 %942 to i8
  %944 = and i8 %943, 1
  %945 = xor i8 %944, 1
  %946 = getelementptr inbounds %struct.State, %struct.State* %0, i64 0, i32 2, i32 3
  store i8 %945, i8* %946, align 1
  %947 = xor i64 48, %931
  %948 = xor i64 %947, %934
  %949 = lshr i64 %948, 4
  %950 = trunc i64 %949 to i8
  %951 = and i8 %950, 1
  %952 = getelementptr inbounds %struct.State, %struct.State* %0, i64 0, i32 2, i32 5
  store i8 %951, i8* %952, align 1
  %953 = icmp eq i64 %934, 0
  %954 = zext i1 %953 to i8
  %955 = getelementptr inbounds %struct.State, %struct.State* %0, i64 0, i32 2, i32 7
  store i8 %954, i8* %955, align 1
  %956 = lshr i64 %934, 63
  %957 = trunc i64 %956 to i8
  %958 = getelementptr inbounds %struct.State, %struct.State* %0, i64 0, i32 2, i32 9
  store i8 %957, i8* %958, align 1
  %959 = lshr i64 %931, 63
  %960 = xor i64 %956, %959
  %961 = add i64 %960, %956
  %962 = icmp eq i64 %961, 2
  %963 = zext i1 %962 to i8
  %964 = getelementptr inbounds %struct.State, %struct.State* %0, i64 0, i32 2, i32 13
  store i8 %963, i8* %964, align 1
  store %struct.Memory* %loadMem_406479, %struct.Memory** %MEMORY
  %loadMem_40647d = load %struct.Memory*, %struct.Memory** %MEMORY
  %965 = getelementptr inbounds %struct.State, %struct.State* %0, i32 0, i32 6
  %966 = getelementptr inbounds %struct.GPR, %struct.GPR* %965, i32 0, i32 33
  %967 = getelementptr inbounds %struct.Reg, %struct.Reg* %966, i32 0, i32 0
  %PC.i2 = bitcast %union.anon* %967 to i64*
  %968 = getelementptr inbounds %struct.State, %struct.State* %0, i32 0, i32 6
  %969 = getelementptr inbounds %struct.GPR, %struct.GPR* %968, i32 0, i32 15
  %970 = getelementptr inbounds %struct.Reg, %struct.Reg* %969, i32 0, i32 0
  %RBP.i3 = bitcast %union.anon* %970 to i64*
  %971 = load i64, i64* %PC.i2
  %972 = add i64 %971, 1
  store i64 %972, i64* %PC.i2
  %973 = getelementptr inbounds %struct.State, %struct.State* %0, i64 0, i32 6, i32 13, i32 0, i32 0
  %974 = load i64, i64* %973, align 8
  %975 = add i64 %974, 8
  %976 = inttoptr i64 %974 to i64*
  %977 = load i64, i64* %976
  store i64 %977, i64* %RBP.i3, align 8
  store i64 %975, i64* %973, align 8
  store %struct.Memory* %loadMem_40647d, %struct.Memory** %MEMORY
  %loadMem_40647e = load %struct.Memory*, %struct.Memory** %MEMORY
  %978 = getelementptr inbounds %struct.State, %struct.State* %0, i32 0, i32 6
  %979 = getelementptr inbounds %struct.GPR, %struct.GPR* %978, i32 0, i32 33
  %980 = getelementptr inbounds %struct.Reg, %struct.Reg* %979, i32 0, i32 0
  %PC.i1 = bitcast %union.anon* %980 to i64*
  %981 = load i64, i64* %PC.i1
  %982 = add i64 %981, 1
  store i64 %982, i64* %PC.i1
  %983 = getelementptr inbounds %struct.State, %struct.State* %0, i64 0, i32 6, i32 33, i32 0, i32 0
  %984 = getelementptr inbounds %struct.State, %struct.State* %0, i64 0, i32 6, i32 13, i32 0, i32 0
  %985 = load i64, i64* %984, align 8
  %986 = inttoptr i64 %985 to i64*
  %987 = load i64, i64* %986
  store i64 %987, i64* %983, align 8
  %988 = add i64 %985, 8
  store i64 %988, i64* %984, align 8
  store %struct.Memory* %loadMem_40647e, %struct.Memory** %MEMORY
  ret %struct.Memory* %loadMem_40647e
}

define %struct.Memory* @routine_pushq__rbp(%struct.State* dereferenceable(3376), i64, %struct.Memory*) {
block_400488:
  %3 = getelementptr inbounds %struct.State, %struct.State* %0, i32 0, i32 6
  %4 = getelementptr inbounds %struct.GPR, %struct.GPR* %3, i32 0, i32 33
  %5 = getelementptr inbounds %struct.Reg, %struct.Reg* %4, i32 0, i32 0
  %PC = bitcast %union.anon* %5 to i64*
  %6 = getelementptr inbounds %struct.State, %struct.State* %0, i32 0, i32 6
  %7 = getelementptr inbounds %struct.GPR, %struct.GPR* %6, i32 0, i32 15
  %8 = getelementptr inbounds %struct.Reg, %struct.Reg* %7, i32 0, i32 0
  %RBP = bitcast %union.anon* %8 to i64*
  %9 = load i64, i64* %RBP
  %10 = load i64, i64* %PC
  %11 = add i64 %10, 1
  store i64 %11, i64* %PC
  %12 = getelementptr inbounds %struct.State, %struct.State* %0, i64 0, i32 6, i32 13, i32 0, i32 0
  %13 = load i64, i64* %12, align 8
  %14 = add i64 %13, -8
  %15 = inttoptr i64 %14 to i64*
  store i64 %9, i64* %15
  store i64 %14, i64* %12, align 8
  ret %struct.Memory* %2
}

define %struct.Memory* @routine_movq__rsp___rbp(%struct.State* dereferenceable(3376), i64, %struct.Memory*) {
block_400488:
  %3 = getelementptr inbounds %struct.State, %struct.State* %0, i32 0, i32 6
  %4 = getelementptr inbounds %struct.GPR, %struct.GPR* %3, i32 0, i32 33
  %5 = getelementptr inbounds %struct.Reg, %struct.Reg* %4, i32 0, i32 0
  %PC = bitcast %union.anon* %5 to i64*
  %6 = getelementptr inbounds %struct.State, %struct.State* %0, i32 0, i32 6
  %7 = getelementptr inbounds %struct.GPR, %struct.GPR* %6, i32 0, i32 13
  %8 = getelementptr inbounds %struct.Reg, %struct.Reg* %7, i32 0, i32 0
  %RSP = bitcast %union.anon* %8 to i64*
  %9 = getelementptr inbounds %struct.State, %struct.State* %0, i32 0, i32 6
  %10 = getelementptr inbounds %struct.GPR, %struct.GPR* %9, i32 0, i32 15
  %11 = getelementptr inbounds %struct.Reg, %struct.Reg* %10, i32 0, i32 0
  %RBP = bitcast %union.anon* %11 to i64*
  %12 = load i64, i64* %RSP
  %13 = load i64, i64* %PC
  %14 = add i64 %13, 3
  store i64 %14, i64* %PC
  store i64 %12, i64* %RBP, align 8
  ret %struct.Memory* %2
}

define %struct.Memory* @routine_subq__0x30___rsp(%struct.State* dereferenceable(3376), i64, %struct.Memory*) {
block_400488:
  %3 = getelementptr inbounds %struct.State, %struct.State* %0, i32 0, i32 6
  %4 = getelementptr inbounds %struct.GPR, %struct.GPR* %3, i32 0, i32 33
  %5 = getelementptr inbounds %struct.Reg, %struct.Reg* %4, i32 0, i32 0
  %PC = bitcast %union.anon* %5 to i64*
  %6 = getelementptr inbounds %struct.State, %struct.State* %0, i32 0, i32 6
  %7 = getelementptr inbounds %struct.GPR, %struct.GPR* %6, i32 0, i32 13
  %8 = getelementptr inbounds %struct.Reg, %struct.Reg* %7, i32 0, i32 0
  %RSP = bitcast %union.anon* %8 to i64*
  %9 = load i64, i64* %RSP
  %10 = load i64, i64* %PC
  %11 = add i64 %10, 4
  store i64 %11, i64* %PC
  %12 = sub i64 %9, 48
  store i64 %12, i64* %RSP, align 8
  %13 = icmp ult i64 %9, 48
  %14 = zext i1 %13 to i8
  %15 = getelementptr inbounds %struct.State, %struct.State* %0, i64 0, i32 2, i32 1
  store i8 %14, i8* %15, align 1
  %16 = trunc i64 %12 to i32
  %17 = and i32 %16, 255
  %18 = call i32 @llvm.ctpop.i32(i32 %17)
  %19 = trunc i32 %18 to i8
  %20 = and i8 %19, 1
  %21 = xor i8 %20, 1
  %22 = getelementptr inbounds %struct.State, %struct.State* %0, i64 0, i32 2, i32 3
  store i8 %21, i8* %22, align 1
  %23 = xor i64 48, %9
  %24 = xor i64 %23, %12
  %25 = lshr i64 %24, 4
  %26 = trunc i64 %25 to i8
  %27 = and i8 %26, 1
  %28 = getelementptr inbounds %struct.State, %struct.State* %0, i64 0, i32 2, i32 5
  store i8 %27, i8* %28, align 1
  %29 = icmp eq i64 %12, 0
  %30 = zext i1 %29 to i8
  %31 = getelementptr inbounds %struct.State, %struct.State* %0, i64 0, i32 2, i32 7
  store i8 %30, i8* %31, align 1
  %32 = lshr i64 %12, 63
  %33 = trunc i64 %32 to i8
  %34 = getelementptr inbounds %struct.State, %struct.State* %0, i64 0, i32 2, i32 9
  store i8 %33, i8* %34, align 1
  %35 = lshr i64 %9, 63
  %36 = xor i64 %32, %35
  %37 = add i64 %36, %35
  %38 = icmp eq i64 %37, 2
  %39 = zext i1 %38 to i8
  %40 = getelementptr inbounds %struct.State, %struct.State* %0, i64 0, i32 2, i32 13
  store i8 %39, i8* %40, align 1
  ret %struct.Memory* %2
}

define %struct.Memory* @routine_movw__dx___ax(%struct.State* dereferenceable(3376), i64, %struct.Memory*) {
block_400488:
  %3 = getelementptr inbounds %struct.State, %struct.State* %0, i32 0, i32 6
  %4 = getelementptr inbounds %struct.GPR, %struct.GPR* %3, i32 0, i32 33
  %5 = getelementptr inbounds %struct.Reg, %struct.Reg* %4, i32 0, i32 0
  %PC = bitcast %union.anon* %5 to i64*
  %6 = getelementptr inbounds %struct.State, %struct.State* %0, i32 0, i32 6
  %7 = getelementptr inbounds %struct.GPR, %struct.GPR* %6, i32 0, i32 1
  %8 = getelementptr inbounds %struct.Reg, %struct.Reg* %7, i32 0, i32 0
  %AX = bitcast %union.anon* %8 to i16*
  %9 = getelementptr inbounds %struct.State, %struct.State* %0, i32 0, i32 6
  %10 = getelementptr inbounds %struct.GPR, %struct.GPR* %9, i32 0, i32 7
  %11 = getelementptr inbounds %struct.Reg, %struct.Reg* %10, i32 0, i32 0
  %DX = bitcast %union.anon* %11 to i16*
  %12 = load i16, i16* %DX
  %13 = zext i16 %12 to i64
  %14 = load i64, i64* %PC
  %15 = add i64 %14, 3
  store i64 %15, i64* %PC
  store i16 %12, i16* %AX, align 2
  ret %struct.Memory* %2
}

define %struct.Memory* @routine_movq__rdi__MINUS0x8__rbp_(%struct.State* dereferenceable(3376), i64, %struct.Memory*) {
block_400488:
  %3 = getelementptr inbounds %struct.State, %struct.State* %0, i32 0, i32 6
  %4 = getelementptr inbounds %struct.GPR, %struct.GPR* %3, i32 0, i32 33
  %5 = getelementptr inbounds %struct.Reg, %struct.Reg* %4, i32 0, i32 0
  %PC = bitcast %union.anon* %5 to i64*
  %6 = getelementptr inbounds %struct.State, %struct.State* %0, i32 0, i32 6
  %7 = getelementptr inbounds %struct.GPR, %struct.GPR* %6, i32 0, i32 11
  %8 = getelementptr inbounds %struct.Reg, %struct.Reg* %7, i32 0, i32 0
  %RDI = bitcast %union.anon* %8 to i64*
  %9 = getelementptr inbounds %struct.State, %struct.State* %0, i32 0, i32 6
  %10 = getelementptr inbounds %struct.GPR, %struct.GPR* %9, i32 0, i32 15
  %11 = getelementptr inbounds %struct.Reg, %struct.Reg* %10, i32 0, i32 0
  %RBP = bitcast %union.anon* %11 to i64*
  %12 = load i64, i64* %RBP
  %13 = sub i64 %12, 8
  %14 = load i64, i64* %RDI
  %15 = load i64, i64* %PC
  %16 = add i64 %15, 4
  store i64 %16, i64* %PC
  %17 = inttoptr i64 %13 to i64*
  store i64 %14, i64* %17
  ret %struct.Memory* %2
}

define %struct.Memory* @routine_movl__esi__MINUS0xc__rbp_(%struct.State* dereferenceable(3376), i64, %struct.Memory*) {
block_400488:
  %3 = getelementptr inbounds %struct.State, %struct.State* %0, i32 0, i32 6
  %4 = getelementptr inbounds %struct.GPR, %struct.GPR* %3, i32 0, i32 33
  %5 = getelementptr inbounds %struct.Reg, %struct.Reg* %4, i32 0, i32 0
  %PC = bitcast %union.anon* %5 to i64*
  %6 = getelementptr inbounds %struct.State, %struct.State* %0, i32 0, i32 6
  %7 = getelementptr inbounds %struct.GPR, %struct.GPR* %6, i32 0, i32 9
  %8 = getelementptr inbounds %struct.Reg, %struct.Reg* %7, i32 0, i32 0
  %ESI = bitcast %union.anon* %8 to i32*
  %9 = getelementptr inbounds %struct.State, %struct.State* %0, i32 0, i32 6
  %10 = getelementptr inbounds %struct.GPR, %struct.GPR* %9, i32 0, i32 15
  %11 = getelementptr inbounds %struct.Reg, %struct.Reg* %10, i32 0, i32 0
  %RBP = bitcast %union.anon* %11 to i64*
  %12 = load i64, i64* %RBP
  %13 = sub i64 %12, 12
  %14 = load i32, i32* %ESI
  %15 = zext i32 %14 to i64
  %16 = load i64, i64* %PC
  %17 = add i64 %16, 3
  store i64 %17, i64* %PC
  %18 = inttoptr i64 %13 to i32*
  store i32 %14, i32* %18
  ret %struct.Memory* %2
}

define %struct.Memory* @routine_movw__ax__MINUS0xe__rbp_(%struct.State* dereferenceable(3376), i64, %struct.Memory*) {
block_400488:
  %3 = getelementptr inbounds %struct.State, %struct.State* %0, i32 0, i32 6
  %4 = getelementptr inbounds %struct.GPR, %struct.GPR* %3, i32 0, i32 33
  %5 = getelementptr inbounds %struct.Reg, %struct.Reg* %4, i32 0, i32 0
  %PC = bitcast %union.anon* %5 to i64*
  %6 = getelementptr inbounds %struct.State, %struct.State* %0, i32 0, i32 6
  %7 = getelementptr inbounds %struct.GPR, %struct.GPR* %6, i32 0, i32 1
  %8 = getelementptr inbounds %struct.Reg, %struct.Reg* %7, i32 0, i32 0
  %AX = bitcast %union.anon* %8 to i16*
  %9 = getelementptr inbounds %struct.State, %struct.State* %0, i32 0, i32 6
  %10 = getelementptr inbounds %struct.GPR, %struct.GPR* %9, i32 0, i32 15
  %11 = getelementptr inbounds %struct.Reg, %struct.Reg* %10, i32 0, i32 0
  %RBP = bitcast %union.anon* %11 to i64*
  %12 = load i64, i64* %RBP
  %13 = sub i64 %12, 14
  %14 = load i16, i16* %AX
  %15 = zext i16 %14 to i64
  %16 = load i64, i64* %PC
  %17 = add i64 %16, 4
  store i64 %17, i64* %PC
  %18 = inttoptr i64 %13 to i16*
  store i16 %14, i16* %18
  ret %struct.Memory* %2
}

define %struct.Memory* @routine_movq__rcx__MINUS0x18__rbp_(%struct.State* dereferenceable(3376), i64, %struct.Memory*) {
block_400488:
  %3 = getelementptr inbounds %struct.State, %struct.State* %0, i32 0, i32 6
  %4 = getelementptr inbounds %struct.GPR, %struct.GPR* %3, i32 0, i32 33
  %5 = getelementptr inbounds %struct.Reg, %struct.Reg* %4, i32 0, i32 0
  %PC = bitcast %union.anon* %5 to i64*
  %6 = getelementptr inbounds %struct.State, %struct.State* %0, i32 0, i32 6
  %7 = getelementptr inbounds %struct.GPR, %struct.GPR* %6, i32 0, i32 5
  %8 = getelementptr inbounds %struct.Reg, %struct.Reg* %7, i32 0, i32 0
  %RCX = bitcast %union.anon* %8 to i64*
  %9 = getelementptr inbounds %struct.State, %struct.State* %0, i32 0, i32 6
  %10 = getelementptr inbounds %struct.GPR, %struct.GPR* %9, i32 0, i32 15
  %11 = getelementptr inbounds %struct.Reg, %struct.Reg* %10, i32 0, i32 0
  %RBP = bitcast %union.anon* %11 to i64*
  %12 = load i64, i64* %RBP
  %13 = sub i64 %12, 24
  %14 = load i64, i64* %RCX
  %15 = load i64, i64* %PC
  %16 = add i64 %15, 4
  store i64 %16, i64* %PC
  %17 = inttoptr i64 %13 to i64*
  store i64 %14, i64* %17
  ret %struct.Memory* %2
}

define %struct.Memory* @routine_callq_._Z11start_timerv(%struct.State* dereferenceable(3376), i64, %struct.Memory*, i64 %rel_off1, i64 %rel_off2, i64 %rel_off3) {
block_400488:
  %3 = getelementptr inbounds %struct.State, %struct.State* %0, i32 0, i32 6
  %4 = getelementptr inbounds %struct.GPR, %struct.GPR* %3, i32 0, i32 33
  %5 = getelementptr inbounds %struct.Reg, %struct.Reg* %4, i32 0, i32 0
  %PC = bitcast %union.anon* %5 to i64*
  %6 = load i64, i64* %PC
  %7 = add i64 %6, %rel_off1
  %8 = load i64, i64* %PC
  %9 = add i64 %8, %rel_off2
  %10 = load i64, i64* %PC
  %11 = add i64 %10, %rel_off3
  store i64 %11, i64* %PC
  %12 = getelementptr inbounds %struct.State, %struct.State* %0, i64 0, i32 6, i32 13, i32 0, i32 0
  %13 = load i64, i64* %12, align 8
  %14 = add i64 %13, -8
  %15 = inttoptr i64 %14 to i64*
  store i64 %9, i64* %15
  store i64 %14, i64* %12, align 8
  %16 = getelementptr inbounds %struct.State, %struct.State* %0, i64 0, i32 6, i32 33, i32 0, i32 0
  store i64 %7, i64* %16, align 8
  ret %struct.Memory* %2
}

define %struct.Memory* @routine_movl__0x0__MINUS0x1c__rbp_(%struct.State* dereferenceable(3376), i64, %struct.Memory*) {
block_400488:
  %3 = getelementptr inbounds %struct.State, %struct.State* %0, i32 0, i32 6
  %4 = getelementptr inbounds %struct.GPR, %struct.GPR* %3, i32 0, i32 33
  %5 = getelementptr inbounds %struct.Reg, %struct.Reg* %4, i32 0, i32 0
  %PC = bitcast %union.anon* %5 to i64*
  %6 = getelementptr inbounds %struct.State, %struct.State* %0, i32 0, i32 6
  %7 = getelementptr inbounds %struct.GPR, %struct.GPR* %6, i32 0, i32 15
  %8 = getelementptr inbounds %struct.Reg, %struct.Reg* %7, i32 0, i32 0
  %RBP = bitcast %union.anon* %8 to i64*
  %9 = load i64, i64* %RBP
  %10 = sub i64 %9, 28
  %11 = load i64, i64* %PC
  %12 = add i64 %11, 7
  store i64 %12, i64* %PC
  %13 = inttoptr i64 %10 to i32*
  store i32 0, i32* %13
  ret %struct.Memory* %2
}

define %struct.Memory* @routine_movl_MINUS0x1c__rbp____eax(%struct.State* dereferenceable(3376), i64, %struct.Memory*) {
block_400488:
  %3 = getelementptr inbounds %struct.State, %struct.State* %0, i32 0, i32 6
  %4 = getelementptr inbounds %struct.GPR, %struct.GPR* %3, i32 0, i32 33
  %5 = getelementptr inbounds %struct.Reg, %struct.Reg* %4, i32 0, i32 0
  %PC = bitcast %union.anon* %5 to i64*
  %6 = getelementptr inbounds %struct.State, %struct.State* %0, i32 0, i32 6
  %7 = getelementptr inbounds %struct.GPR, %struct.GPR* %6, i32 0, i32 1
  %8 = getelementptr inbounds %struct.Reg, %struct.Reg* %7, i32 0, i32 0
  %RAX = bitcast %union.anon* %8 to i64*
  %9 = getelementptr inbounds %struct.State, %struct.State* %0, i32 0, i32 6
  %10 = getelementptr inbounds %struct.GPR, %struct.GPR* %9, i32 0, i32 15
  %11 = getelementptr inbounds %struct.Reg, %struct.Reg* %10, i32 0, i32 0
  %RBP = bitcast %union.anon* %11 to i64*
  %12 = load i64, i64* %RBP
  %13 = sub i64 %12, 28
  %14 = load i64, i64* %PC
  %15 = add i64 %14, 3
  store i64 %15, i64* %PC
  %16 = inttoptr i64 %13 to i32*
  %17 = load i32, i32* %16
  %18 = zext i32 %17 to i64
  store i64 %18, i64* %RAX, align 8
  ret %struct.Memory* %2
}

define %struct.Memory* @routine_cmpl_0x61a080___eax(%struct.State* dereferenceable(3376), i64, %struct.Memory*) {
block_400488:
  %3 = getelementptr inbounds %struct.State, %struct.State* %0, i32 0, i32 6
  %4 = getelementptr inbounds %struct.GPR, %struct.GPR* %3, i32 0, i32 33
  %5 = getelementptr inbounds %struct.Reg, %struct.Reg* %4, i32 0, i32 0
  %PC = bitcast %union.anon* %5 to i64*
  %6 = getelementptr inbounds %struct.State, %struct.State* %0, i32 0, i32 6
  %7 = getelementptr inbounds %struct.GPR, %struct.GPR* %6, i32 0, i32 1
  %8 = getelementptr inbounds %struct.Reg, %struct.Reg* %7, i32 0, i32 0
  %EAX = bitcast %union.anon* %8 to i32*
  %9 = load i32, i32* %EAX
  %10 = zext i32 %9 to i64
  %11 = load i64, i64* %PC
  %12 = add i64 %11, 7
  store i64 %12, i64* %PC
  %13 = load i32, i32* inttoptr (i64 6398080 to i32*)
  %14 = sub i32 %9, %13
  %15 = icmp ult i32 %9, %13
  %16 = zext i1 %15 to i8
  %17 = getelementptr inbounds %struct.State, %struct.State* %0, i64 0, i32 2, i32 1
  store i8 %16, i8* %17, align 1
  %18 = and i32 %14, 255
  %19 = call i32 @llvm.ctpop.i32(i32 %18)
  %20 = trunc i32 %19 to i8
  %21 = and i8 %20, 1
  %22 = xor i8 %21, 1
  %23 = getelementptr inbounds %struct.State, %struct.State* %0, i64 0, i32 2, i32 3
  store i8 %22, i8* %23, align 1
  %24 = xor i32 %13, %9
  %25 = xor i32 %24, %14
  %26 = lshr i32 %25, 4
  %27 = trunc i32 %26 to i8
  %28 = and i8 %27, 1
  %29 = getelementptr inbounds %struct.State, %struct.State* %0, i64 0, i32 2, i32 5
  store i8 %28, i8* %29, align 1
  %30 = icmp eq i32 %14, 0
  %31 = zext i1 %30 to i8
  %32 = getelementptr inbounds %struct.State, %struct.State* %0, i64 0, i32 2, i32 7
  store i8 %31, i8* %32, align 1
  %33 = lshr i32 %14, 31
  %34 = trunc i32 %33 to i8
  %35 = getelementptr inbounds %struct.State, %struct.State* %0, i64 0, i32 2, i32 9
  store i8 %34, i8* %35, align 1
  %36 = lshr i32 %9, 31
  %37 = lshr i32 %13, 31
  %38 = xor i32 %37, %36
  %39 = xor i32 %33, %36
  %40 = add i32 %39, %38
  %41 = icmp eq i32 %40, 2
  %42 = zext i1 %41 to i8
  %43 = getelementptr inbounds %struct.State, %struct.State* %0, i64 0, i32 2, i32 13
  store i8 %42, i8* %43, align 1
  ret %struct.Memory* %2
}

define %struct.Memory* @routine_jge_.L_40646b(%struct.State* dereferenceable(3376), i64, %struct.Memory*, i8* %BRANCH_TAKEN, i64 %rel_off1, i64 %rel_off2, i64 %rel_off3) {
block_400488:
  %3 = getelementptr inbounds %struct.State, %struct.State* %0, i32 0, i32 6
  %4 = getelementptr inbounds %struct.GPR, %struct.GPR* %3, i32 0, i32 33
  %5 = getelementptr inbounds %struct.Reg, %struct.Reg* %4, i32 0, i32 0
  %PC = bitcast %union.anon* %5 to i64*
  %6 = load i64, i64* %PC
  %7 = add i64 %6, %rel_off1
  %8 = load i64, i64* %PC
  %9 = add i64 %8, %rel_off2
  %10 = load i64, i64* %PC
  %11 = add i64 %10, %rel_off3
  store i64 %11, i64* %PC
  %12 = getelementptr inbounds %struct.State, %struct.State* %0, i64 0, i32 2, i32 9
  %13 = load i8, i8* %12, align 1
  %14 = icmp ne i8 %13, 0
  %15 = getelementptr inbounds %struct.State, %struct.State* %0, i64 0, i32 2, i32 13
  %16 = load i8, i8* %15, align 1
  %17 = icmp ne i8 %16, 0
  %18 = xor i1 %14, %17
  %19 = xor i1 %18, true
  %20 = zext i1 %19 to i8
  store i8 %20, i8* %BRANCH_TAKEN, align 1
  %21 = getelementptr inbounds %struct.State, %struct.State* %0, i64 0, i32 6, i32 33, i32 0, i32 0
  %22 = select i1 %18, i64 %9, i64 %7
  store i64 %22, i64* %21, align 8
  ret %struct.Memory* %2
}

define %struct.Memory* @routine_movw__0x0__MINUS0x1e__rbp_(%struct.State* dereferenceable(3376), i64, %struct.Memory*) {
block_400488:
  %3 = getelementptr inbounds %struct.State, %struct.State* %0, i32 0, i32 6
  %4 = getelementptr inbounds %struct.GPR, %struct.GPR* %3, i32 0, i32 33
  %5 = getelementptr inbounds %struct.Reg, %struct.Reg* %4, i32 0, i32 0
  %PC = bitcast %union.anon* %5 to i64*
  %6 = getelementptr inbounds %struct.State, %struct.State* %0, i32 0, i32 6
  %7 = getelementptr inbounds %struct.GPR, %struct.GPR* %6, i32 0, i32 15
  %8 = getelementptr inbounds %struct.Reg, %struct.Reg* %7, i32 0, i32 0
  %RBP = bitcast %union.anon* %8 to i64*
  %9 = load i64, i64* %RBP
  %10 = sub i64 %9, 30
  %11 = load i64, i64* %PC
  %12 = add i64 %11, 6
  store i64 %12, i64* %PC
  %13 = inttoptr i64 %10 to i16*
  store i16 0, i16* %13
  ret %struct.Memory* %2
}

define %struct.Memory* @routine_movl__0x0__MINUS0x24__rbp_(%struct.State* dereferenceable(3376), i64, %struct.Memory*) {
block_400488:
  %3 = getelementptr inbounds %struct.State, %struct.State* %0, i32 0, i32 6
  %4 = getelementptr inbounds %struct.GPR, %struct.GPR* %3, i32 0, i32 33
  %5 = getelementptr inbounds %struct.Reg, %struct.Reg* %4, i32 0, i32 0
  %PC = bitcast %union.anon* %5 to i64*
  %6 = getelementptr inbounds %struct.State, %struct.State* %0, i32 0, i32 6
  %7 = getelementptr inbounds %struct.GPR, %struct.GPR* %6, i32 0, i32 15
  %8 = getelementptr inbounds %struct.Reg, %struct.Reg* %7, i32 0, i32 0
  %RBP = bitcast %union.anon* %8 to i64*
  %9 = load i64, i64* %RBP
  %10 = sub i64 %9, 36
  %11 = load i64, i64* %PC
  %12 = add i64 %11, 7
  store i64 %12, i64* %PC
  %13 = inttoptr i64 %10 to i32*
  store i32 0, i32* %13
  ret %struct.Memory* %2
}

define %struct.Memory* @routine_movl_MINUS0x24__rbp____eax(%struct.State* dereferenceable(3376), i64, %struct.Memory*) {
block_400488:
  %3 = getelementptr inbounds %struct.State, %struct.State* %0, i32 0, i32 6
  %4 = getelementptr inbounds %struct.GPR, %struct.GPR* %3, i32 0, i32 33
  %5 = getelementptr inbounds %struct.Reg, %struct.Reg* %4, i32 0, i32 0
  %PC = bitcast %union.anon* %5 to i64*
  %6 = getelementptr inbounds %struct.State, %struct.State* %0, i32 0, i32 6
  %7 = getelementptr inbounds %struct.GPR, %struct.GPR* %6, i32 0, i32 1
  %8 = getelementptr inbounds %struct.Reg, %struct.Reg* %7, i32 0, i32 0
  %RAX = bitcast %union.anon* %8 to i64*
  %9 = getelementptr inbounds %struct.State, %struct.State* %0, i32 0, i32 6
  %10 = getelementptr inbounds %struct.GPR, %struct.GPR* %9, i32 0, i32 15
  %11 = getelementptr inbounds %struct.Reg, %struct.Reg* %10, i32 0, i32 0
  %RBP = bitcast %union.anon* %11 to i64*
  %12 = load i64, i64* %RBP
  %13 = sub i64 %12, 36
  %14 = load i64, i64* %PC
  %15 = add i64 %14, 3
  store i64 %15, i64* %PC
  %16 = inttoptr i64 %13 to i32*
  %17 = load i32, i32* %16
  %18 = zext i32 %17 to i64
  store i64 %18, i64* %RAX, align 8
  ret %struct.Memory* %2
}

define %struct.Memory* @routine_cmpl_MINUS0xc__rbp____eax(%struct.State* dereferenceable(3376), i64, %struct.Memory*) {
block_400488:
  %3 = getelementptr inbounds %struct.State, %struct.State* %0, i32 0, i32 6
  %4 = getelementptr inbounds %struct.GPR, %struct.GPR* %3, i32 0, i32 33
  %5 = getelementptr inbounds %struct.Reg, %struct.Reg* %4, i32 0, i32 0
  %PC = bitcast %union.anon* %5 to i64*
  %6 = getelementptr inbounds %struct.State, %struct.State* %0, i32 0, i32 6
  %7 = getelementptr inbounds %struct.GPR, %struct.GPR* %6, i32 0, i32 1
  %8 = getelementptr inbounds %struct.Reg, %struct.Reg* %7, i32 0, i32 0
  %EAX = bitcast %union.anon* %8 to i32*
  %9 = getelementptr inbounds %struct.State, %struct.State* %0, i32 0, i32 6
  %10 = getelementptr inbounds %struct.GPR, %struct.GPR* %9, i32 0, i32 15
  %11 = getelementptr inbounds %struct.Reg, %struct.Reg* %10, i32 0, i32 0
  %RBP = bitcast %union.anon* %11 to i64*
  %12 = load i32, i32* %EAX
  %13 = zext i32 %12 to i64
  %14 = load i64, i64* %RBP
  %15 = sub i64 %14, 12
  %16 = load i64, i64* %PC
  %17 = add i64 %16, 3
  store i64 %17, i64* %PC
  %18 = inttoptr i64 %15 to i32*
  %19 = load i32, i32* %18
  %20 = sub i32 %12, %19
  %21 = icmp ult i32 %12, %19
  %22 = zext i1 %21 to i8
  %23 = getelementptr inbounds %struct.State, %struct.State* %0, i64 0, i32 2, i32 1
  store i8 %22, i8* %23, align 1
  %24 = and i32 %20, 255
  %25 = call i32 @llvm.ctpop.i32(i32 %24)
  %26 = trunc i32 %25 to i8
  %27 = and i8 %26, 1
  %28 = xor i8 %27, 1
  %29 = getelementptr inbounds %struct.State, %struct.State* %0, i64 0, i32 2, i32 3
  store i8 %28, i8* %29, align 1
  %30 = xor i32 %19, %12
  %31 = xor i32 %30, %20
  %32 = lshr i32 %31, 4
  %33 = trunc i32 %32 to i8
  %34 = and i8 %33, 1
  %35 = getelementptr inbounds %struct.State, %struct.State* %0, i64 0, i32 2, i32 5
  store i8 %34, i8* %35, align 1
  %36 = icmp eq i32 %20, 0
  %37 = zext i1 %36 to i8
  %38 = getelementptr inbounds %struct.State, %struct.State* %0, i64 0, i32 2, i32 7
  store i8 %37, i8* %38, align 1
  %39 = lshr i32 %20, 31
  %40 = trunc i32 %39 to i8
  %41 = getelementptr inbounds %struct.State, %struct.State* %0, i64 0, i32 2, i32 9
  store i8 %40, i8* %41, align 1
  %42 = lshr i32 %12, 31
  %43 = lshr i32 %19, 31
  %44 = xor i32 %43, %42
  %45 = xor i32 %39, %42
  %46 = add i32 %45, %44
  %47 = icmp eq i32 %46, 2
  %48 = zext i1 %47 to i8
  %49 = getelementptr inbounds %struct.State, %struct.State* %0, i64 0, i32 2, i32 13
  store i8 %48, i8* %49, align 1
  ret %struct.Memory* %2
}

define %struct.Memory* @routine_jge_.L_406436(%struct.State* dereferenceable(3376), i64, %struct.Memory*, i8* %BRANCH_TAKEN, i64 %rel_off1, i64 %rel_off2, i64 %rel_off3) {
block_400488:
  %3 = getelementptr inbounds %struct.State, %struct.State* %0, i32 0, i32 6
  %4 = getelementptr inbounds %struct.GPR, %struct.GPR* %3, i32 0, i32 33
  %5 = getelementptr inbounds %struct.Reg, %struct.Reg* %4, i32 0, i32 0
  %PC = bitcast %union.anon* %5 to i64*
  %6 = load i64, i64* %PC
  %7 = add i64 %6, %rel_off1
  %8 = load i64, i64* %PC
  %9 = add i64 %8, %rel_off2
  %10 = load i64, i64* %PC
  %11 = add i64 %10, %rel_off3
  store i64 %11, i64* %PC
  %12 = getelementptr inbounds %struct.State, %struct.State* %0, i64 0, i32 2, i32 9
  %13 = load i8, i8* %12, align 1
  %14 = icmp ne i8 %13, 0
  %15 = getelementptr inbounds %struct.State, %struct.State* %0, i64 0, i32 2, i32 13
  %16 = load i8, i8* %15, align 1
  %17 = icmp ne i8 %16, 0
  %18 = xor i1 %14, %17
  %19 = xor i1 %18, true
  %20 = zext i1 %19 to i8
  store i8 %20, i8* %BRANCH_TAKEN, align 1
  %21 = getelementptr inbounds %struct.State, %struct.State* %0, i64 0, i32 6, i32 33, i32 0, i32 0
  %22 = select i1 %18, i64 %9, i64 %7
  store i64 %22, i64* %21, align 8
  ret %struct.Memory* %2
}

define %struct.Memory* @routine_movq_MINUS0x8__rbp____rax(%struct.State* dereferenceable(3376), i64, %struct.Memory*) {
block_400488:
  %3 = getelementptr inbounds %struct.State, %struct.State* %0, i32 0, i32 6
  %4 = getelementptr inbounds %struct.GPR, %struct.GPR* %3, i32 0, i32 33
  %5 = getelementptr inbounds %struct.Reg, %struct.Reg* %4, i32 0, i32 0
  %PC = bitcast %union.anon* %5 to i64*
  %6 = getelementptr inbounds %struct.State, %struct.State* %0, i32 0, i32 6
  %7 = getelementptr inbounds %struct.GPR, %struct.GPR* %6, i32 0, i32 1
  %8 = getelementptr inbounds %struct.Reg, %struct.Reg* %7, i32 0, i32 0
  %RAX = bitcast %union.anon* %8 to i64*
  %9 = getelementptr inbounds %struct.State, %struct.State* %0, i32 0, i32 6
  %10 = getelementptr inbounds %struct.GPR, %struct.GPR* %9, i32 0, i32 15
  %11 = getelementptr inbounds %struct.Reg, %struct.Reg* %10, i32 0, i32 0
  %RBP = bitcast %union.anon* %11 to i64*
  %12 = load i64, i64* %RBP
  %13 = sub i64 %12, 8
  %14 = load i64, i64* %PC
  %15 = add i64 %14, 4
  store i64 %15, i64* %PC
  %16 = inttoptr i64 %13 to i64*
  %17 = load i64, i64* %16
  store i64 %17, i64* %RAX, align 8
  ret %struct.Memory* %2
}

define %struct.Memory* @routine_movslq_MINUS0x24__rbp____rcx(%struct.State* dereferenceable(3376), i64, %struct.Memory*) {
block_400488:
  %3 = getelementptr inbounds %struct.State, %struct.State* %0, i32 0, i32 6
  %4 = getelementptr inbounds %struct.GPR, %struct.GPR* %3, i32 0, i32 33
  %5 = getelementptr inbounds %struct.Reg, %struct.Reg* %4, i32 0, i32 0
  %PC = bitcast %union.anon* %5 to i64*
  %6 = getelementptr inbounds %struct.State, %struct.State* %0, i32 0, i32 6
  %7 = getelementptr inbounds %struct.GPR, %struct.GPR* %6, i32 0, i32 5
  %8 = getelementptr inbounds %struct.Reg, %struct.Reg* %7, i32 0, i32 0
  %RCX = bitcast %union.anon* %8 to i64*
  %9 = getelementptr inbounds %struct.State, %struct.State* %0, i32 0, i32 6
  %10 = getelementptr inbounds %struct.GPR, %struct.GPR* %9, i32 0, i32 15
  %11 = getelementptr inbounds %struct.Reg, %struct.Reg* %10, i32 0, i32 0
  %RBP = bitcast %union.anon* %11 to i64*
  %12 = load i64, i64* %RBP
  %13 = sub i64 %12, 36
  %14 = load i64, i64* %PC
  %15 = add i64 %14, 4
  store i64 %15, i64* %PC
  %16 = inttoptr i64 %13 to i32*
  %17 = load i32, i32* %16
  %18 = sext i32 %17 to i64
  store i64 %18, i64* %RCX, align 8
  ret %struct.Memory* %2
}

define %struct.Memory* @routine_movzwl___rax__rcx_2____edx(%struct.State* dereferenceable(3376), i64, %struct.Memory*) {
block_400488:
  %3 = getelementptr inbounds %struct.State, %struct.State* %0, i32 0, i32 6
  %4 = getelementptr inbounds %struct.GPR, %struct.GPR* %3, i32 0, i32 33
  %5 = getelementptr inbounds %struct.Reg, %struct.Reg* %4, i32 0, i32 0
  %PC = bitcast %union.anon* %5 to i64*
  %6 = getelementptr inbounds %struct.State, %struct.State* %0, i32 0, i32 6
  %7 = getelementptr inbounds %struct.GPR, %struct.GPR* %6, i32 0, i32 1
  %8 = getelementptr inbounds %struct.Reg, %struct.Reg* %7, i32 0, i32 0
  %RAX = bitcast %union.anon* %8 to i64*
  %9 = getelementptr inbounds %struct.State, %struct.State* %0, i32 0, i32 6
  %10 = getelementptr inbounds %struct.GPR, %struct.GPR* %9, i32 0, i32 5
  %11 = getelementptr inbounds %struct.Reg, %struct.Reg* %10, i32 0, i32 0
  %RCX = bitcast %union.anon* %11 to i64*
  %12 = getelementptr inbounds %struct.State, %struct.State* %0, i32 0, i32 6
  %13 = getelementptr inbounds %struct.GPR, %struct.GPR* %12, i32 0, i32 7
  %14 = getelementptr inbounds %struct.Reg, %struct.Reg* %13, i32 0, i32 0
  %RDX = bitcast %union.anon* %14 to i64*
  %15 = load i64, i64* %RAX
  %16 = load i64, i64* %RCX
  %17 = mul i64 %16, 2
  %18 = add i64 %17, %15
  %19 = load i64, i64* %PC
  %20 = add i64 %19, 4
  store i64 %20, i64* %PC
  %21 = inttoptr i64 %18 to i16*
  %22 = load i16, i16* %21
  %23 = zext i16 %22 to i64
  store i64 %23, i64* %RDX, align 8
  ret %struct.Memory* %2
}

define %struct.Memory* @routine_movzwl_MINUS0x1e__rbp____esi(%struct.State* dereferenceable(3376), i64, %struct.Memory*) {
block_400488:
  %3 = getelementptr inbounds %struct.State, %struct.State* %0, i32 0, i32 6
  %4 = getelementptr inbounds %struct.GPR, %struct.GPR* %3, i32 0, i32 33
  %5 = getelementptr inbounds %struct.Reg, %struct.Reg* %4, i32 0, i32 0
  %PC = bitcast %union.anon* %5 to i64*
  %6 = getelementptr inbounds %struct.State, %struct.State* %0, i32 0, i32 6
  %7 = getelementptr inbounds %struct.GPR, %struct.GPR* %6, i32 0, i32 9
  %8 = getelementptr inbounds %struct.Reg, %struct.Reg* %7, i32 0, i32 0
  %RSI = bitcast %union.anon* %8 to i64*
  %9 = getelementptr inbounds %struct.State, %struct.State* %0, i32 0, i32 6
  %10 = getelementptr inbounds %struct.GPR, %struct.GPR* %9, i32 0, i32 15
  %11 = getelementptr inbounds %struct.Reg, %struct.Reg* %10, i32 0, i32 0
  %RBP = bitcast %union.anon* %11 to i64*
  %12 = load i64, i64* %RBP
  %13 = sub i64 %12, 30
  %14 = load i64, i64* %PC
  %15 = add i64 %14, 4
  store i64 %15, i64* %PC
  %16 = inttoptr i64 %13 to i16*
  %17 = load i16, i16* %16
  %18 = zext i16 %17 to i64
  store i64 %18, i64* %RSI, align 8
  ret %struct.Memory* %2
}

define %struct.Memory* @routine_addl__edx___esi(%struct.State* dereferenceable(3376), i64, %struct.Memory*) {
block_400488:
  %3 = getelementptr inbounds %struct.State, %struct.State* %0, i32 0, i32 6
  %4 = getelementptr inbounds %struct.GPR, %struct.GPR* %3, i32 0, i32 33
  %5 = getelementptr inbounds %struct.Reg, %struct.Reg* %4, i32 0, i32 0
  %PC = bitcast %union.anon* %5 to i64*
  %6 = getelementptr inbounds %struct.State, %struct.State* %0, i32 0, i32 6
  %7 = getelementptr inbounds %struct.GPR, %struct.GPR* %6, i32 0, i32 7
  %8 = getelementptr inbounds %struct.Reg, %struct.Reg* %7, i32 0, i32 0
  %EDX = bitcast %union.anon* %8 to i32*
  %9 = getelementptr inbounds %struct.State, %struct.State* %0, i32 0, i32 6
  %10 = getelementptr inbounds %struct.GPR, %struct.GPR* %9, i32 0, i32 9
  %11 = getelementptr inbounds %struct.Reg, %struct.Reg* %10, i32 0, i32 0
  %RSI = bitcast %union.anon* %11 to i64*
  %12 = load i64, i64* %RSI
  %13 = load i32, i32* %EDX
  %14 = zext i32 %13 to i64
  %15 = load i64, i64* %PC
  %16 = add i64 %15, 2
  store i64 %16, i64* %PC
  %17 = trunc i64 %12 to i32
  %18 = add i32 %13, %17
  %19 = zext i32 %18 to i64
  store i64 %19, i64* %RSI, align 8
  %20 = icmp ult i32 %18, %17
  %21 = icmp ult i32 %18, %13
  %22 = or i1 %20, %21
  %23 = zext i1 %22 to i8
  %24 = getelementptr inbounds %struct.State, %struct.State* %0, i64 0, i32 2, i32 1
  store i8 %23, i8* %24, align 1
  %25 = and i32 %18, 255
  %26 = call i32 @llvm.ctpop.i32(i32 %25)
  %27 = trunc i32 %26 to i8
  %28 = and i8 %27, 1
  %29 = xor i8 %28, 1
  %30 = getelementptr inbounds %struct.State, %struct.State* %0, i64 0, i32 2, i32 3
  store i8 %29, i8* %30, align 1
  %31 = xor i64 %14, %12
  %32 = trunc i64 %31 to i32
  %33 = xor i32 %32, %18
  %34 = lshr i32 %33, 4
  %35 = trunc i32 %34 to i8
  %36 = and i8 %35, 1
  %37 = getelementptr inbounds %struct.State, %struct.State* %0, i64 0, i32 2, i32 5
  store i8 %36, i8* %37, align 1
  %38 = icmp eq i32 %18, 0
  %39 = zext i1 %38 to i8
  %40 = getelementptr inbounds %struct.State, %struct.State* %0, i64 0, i32 2, i32 7
  store i8 %39, i8* %40, align 1
  %41 = lshr i32 %18, 31
  %42 = trunc i32 %41 to i8
  %43 = getelementptr inbounds %struct.State, %struct.State* %0, i64 0, i32 2, i32 9
  store i8 %42, i8* %43, align 1
  %44 = lshr i32 %17, 31
  %45 = lshr i32 %13, 31
  %46 = xor i32 %41, %44
  %47 = xor i32 %41, %45
  %48 = add i32 %46, %47
  %49 = icmp eq i32 %48, 2
  %50 = zext i1 %49 to i8
  %51 = getelementptr inbounds %struct.State, %struct.State* %0, i64 0, i32 2, i32 13
  store i8 %50, i8* %51, align 1
  ret %struct.Memory* %2
}

define %struct.Memory* @routine_movw__si___di(%struct.State* dereferenceable(3376), i64, %struct.Memory*) {
block_400488:
  %3 = getelementptr inbounds %struct.State, %struct.State* %0, i32 0, i32 6
  %4 = getelementptr inbounds %struct.GPR, %struct.GPR* %3, i32 0, i32 33
  %5 = getelementptr inbounds %struct.Reg, %struct.Reg* %4, i32 0, i32 0
  %PC = bitcast %union.anon* %5 to i64*
  %6 = getelementptr inbounds %struct.State, %struct.State* %0, i32 0, i32 6
  %7 = getelementptr inbounds %struct.GPR, %struct.GPR* %6, i32 0, i32 9
  %8 = getelementptr inbounds %struct.Reg, %struct.Reg* %7, i32 0, i32 0
  %SI = bitcast %union.anon* %8 to i16*
  %9 = getelementptr inbounds %struct.State, %struct.State* %0, i32 0, i32 6
  %10 = getelementptr inbounds %struct.GPR, %struct.GPR* %9, i32 0, i32 11
  %11 = getelementptr inbounds %struct.Reg, %struct.Reg* %10, i32 0, i32 0
  %DI = bitcast %union.anon* %11 to i16*
  %12 = load i16, i16* %SI
  %13 = zext i16 %12 to i64
  %14 = load i64, i64* %PC
  %15 = add i64 %14, 3
  store i64 %15, i64* %PC
  store i16 %12, i16* %DI, align 2
  ret %struct.Memory* %2
}

define %struct.Memory* @routine_movw__di__MINUS0x1e__rbp_(%struct.State* dereferenceable(3376), i64, %struct.Memory*) {
block_400488:
  %3 = getelementptr inbounds %struct.State, %struct.State* %0, i32 0, i32 6
  %4 = getelementptr inbounds %struct.GPR, %struct.GPR* %3, i32 0, i32 33
  %5 = getelementptr inbounds %struct.Reg, %struct.Reg* %4, i32 0, i32 0
  %PC = bitcast %union.anon* %5 to i64*
  %6 = getelementptr inbounds %struct.State, %struct.State* %0, i32 0, i32 6
  %7 = getelementptr inbounds %struct.GPR, %struct.GPR* %6, i32 0, i32 11
  %8 = getelementptr inbounds %struct.Reg, %struct.Reg* %7, i32 0, i32 0
  %DI = bitcast %union.anon* %8 to i16*
  %9 = getelementptr inbounds %struct.State, %struct.State* %0, i32 0, i32 6
  %10 = getelementptr inbounds %struct.GPR, %struct.GPR* %9, i32 0, i32 15
  %11 = getelementptr inbounds %struct.Reg, %struct.Reg* %10, i32 0, i32 0
  %RBP = bitcast %union.anon* %11 to i64*
  %12 = load i64, i64* %RBP
  %13 = sub i64 %12, 30
  %14 = load i16, i16* %DI
  %15 = zext i16 %14 to i64
  %16 = load i64, i64* %PC
  %17 = add i64 %16, 4
  store i64 %17, i64* %PC
  %18 = inttoptr i64 %13 to i16*
  store i16 %14, i16* %18
  ret %struct.Memory* %2
}

define %struct.Memory* @routine_addl__0x1___eax(%struct.State* dereferenceable(3376), i64, %struct.Memory*) {
block_400488:
  %3 = getelementptr inbounds %struct.State, %struct.State* %0, i32 0, i32 6
  %4 = getelementptr inbounds %struct.GPR, %struct.GPR* %3, i32 0, i32 33
  %5 = getelementptr inbounds %struct.Reg, %struct.Reg* %4, i32 0, i32 0
  %PC = bitcast %union.anon* %5 to i64*
  %6 = getelementptr inbounds %struct.State, %struct.State* %0, i32 0, i32 6
  %7 = getelementptr inbounds %struct.GPR, %struct.GPR* %6, i32 0, i32 1
  %8 = getelementptr inbounds %struct.Reg, %struct.Reg* %7, i32 0, i32 0
  %RAX = bitcast %union.anon* %8 to i64*
  %9 = load i64, i64* %RAX
  %10 = load i64, i64* %PC
  %11 = add i64 %10, 3
  store i64 %11, i64* %PC
  %12 = trunc i64 %9 to i32
  %13 = add i32 1, %12
  %14 = zext i32 %13 to i64
  store i64 %14, i64* %RAX, align 8
  %15 = icmp ult i32 %13, %12
  %16 = icmp ult i32 %13, 1
  %17 = or i1 %15, %16
  %18 = zext i1 %17 to i8
  %19 = getelementptr inbounds %struct.State, %struct.State* %0, i64 0, i32 2, i32 1
  store i8 %18, i8* %19, align 1
  %20 = and i32 %13, 255
  %21 = call i32 @llvm.ctpop.i32(i32 %20)
  %22 = trunc i32 %21 to i8
  %23 = and i8 %22, 1
  %24 = xor i8 %23, 1
  %25 = getelementptr inbounds %struct.State, %struct.State* %0, i64 0, i32 2, i32 3
  store i8 %24, i8* %25, align 1
  %26 = xor i64 1, %9
  %27 = trunc i64 %26 to i32
  %28 = xor i32 %27, %13
  %29 = lshr i32 %28, 4
  %30 = trunc i32 %29 to i8
  %31 = and i8 %30, 1
  %32 = getelementptr inbounds %struct.State, %struct.State* %0, i64 0, i32 2, i32 5
  store i8 %31, i8* %32, align 1
  %33 = icmp eq i32 %13, 0
  %34 = zext i1 %33 to i8
  %35 = getelementptr inbounds %struct.State, %struct.State* %0, i64 0, i32 2, i32 7
  store i8 %34, i8* %35, align 1
  %36 = lshr i32 %13, 31
  %37 = trunc i32 %36 to i8
  %38 = getelementptr inbounds %struct.State, %struct.State* %0, i64 0, i32 2, i32 9
  store i8 %37, i8* %38, align 1
  %39 = lshr i32 %12, 31
  %40 = xor i32 %36, %39
  %41 = add i32 %40, %36
  %42 = icmp eq i32 %41, 2
  %43 = zext i1 %42 to i8
  %44 = getelementptr inbounds %struct.State, %struct.State* %0, i64 0, i32 2, i32 13
  store i8 %43, i8* %44, align 1
  ret %struct.Memory* %2
}

define %struct.Memory* @routine_movl__eax__MINUS0x24__rbp_(%struct.State* dereferenceable(3376), i64, %struct.Memory*) {
block_400488:
  %3 = getelementptr inbounds %struct.State, %struct.State* %0, i32 0, i32 6
  %4 = getelementptr inbounds %struct.GPR, %struct.GPR* %3, i32 0, i32 33
  %5 = getelementptr inbounds %struct.Reg, %struct.Reg* %4, i32 0, i32 0
  %PC = bitcast %union.anon* %5 to i64*
  %6 = getelementptr inbounds %struct.State, %struct.State* %0, i32 0, i32 6
  %7 = getelementptr inbounds %struct.GPR, %struct.GPR* %6, i32 0, i32 1
  %8 = getelementptr inbounds %struct.Reg, %struct.Reg* %7, i32 0, i32 0
  %EAX = bitcast %union.anon* %8 to i32*
  %9 = getelementptr inbounds %struct.State, %struct.State* %0, i32 0, i32 6
  %10 = getelementptr inbounds %struct.GPR, %struct.GPR* %9, i32 0, i32 15
  %11 = getelementptr inbounds %struct.Reg, %struct.Reg* %10, i32 0, i32 0
  %RBP = bitcast %union.anon* %11 to i64*
  %12 = load i64, i64* %RBP
  %13 = sub i64 %12, 36
  %14 = load i32, i32* %EAX
  %15 = zext i32 %14 to i64
  %16 = load i64, i64* %PC
  %17 = add i64 %16, 3
  store i64 %17, i64* %PC
  %18 = inttoptr i64 %13 to i32*
  store i32 %14, i32* %18
  ret %struct.Memory* %2
}

define %struct.Memory* @routine_jmpq_.L_406403(%struct.State* dereferenceable(3376), i64, %struct.Memory*, i64 %rel_off1, i64 %rel_off2) {
block_400488:
  %3 = getelementptr inbounds %struct.State, %struct.State* %0, i32 0, i32 6
  %4 = getelementptr inbounds %struct.GPR, %struct.GPR* %3, i32 0, i32 33
  %5 = getelementptr inbounds %struct.Reg, %struct.Reg* %4, i32 0, i32 0
  %PC = bitcast %union.anon* %5 to i64*
  %6 = load i64, i64* %PC
  %7 = add i64 %6, %rel_off1
  %8 = load i64, i64* %PC
  %9 = add i64 %8, %rel_off2
  store i64 %9, i64* %PC
  %10 = getelementptr inbounds %struct.State, %struct.State* %0, i64 0, i32 6, i32 33, i32 0, i32 0
  store i64 %7, i64* %10, align 8
  ret %struct.Memory* %2
}

define %struct.Memory* @routine_movl_MINUS0xc__rbp____eax(%struct.State* dereferenceable(3376), i64, %struct.Memory*) {
block_400488:
  %3 = getelementptr inbounds %struct.State, %struct.State* %0, i32 0, i32 6
  %4 = getelementptr inbounds %struct.GPR, %struct.GPR* %3, i32 0, i32 33
  %5 = getelementptr inbounds %struct.Reg, %struct.Reg* %4, i32 0, i32 0
  %PC = bitcast %union.anon* %5 to i64*
  %6 = getelementptr inbounds %struct.State, %struct.State* %0, i32 0, i32 6
  %7 = getelementptr inbounds %struct.GPR, %struct.GPR* %6, i32 0, i32 1
  %8 = getelementptr inbounds %struct.Reg, %struct.Reg* %7, i32 0, i32 0
  %RAX = bitcast %union.anon* %8 to i64*
  %9 = getelementptr inbounds %struct.State, %struct.State* %0, i32 0, i32 6
  %10 = getelementptr inbounds %struct.GPR, %struct.GPR* %9, i32 0, i32 15
  %11 = getelementptr inbounds %struct.Reg, %struct.Reg* %10, i32 0, i32 0
  %RBP = bitcast %union.anon* %11 to i64*
  %12 = load i64, i64* %RBP
  %13 = sub i64 %12, 12
  %14 = load i64, i64* %PC
  %15 = add i64 %14, 3
  store i64 %15, i64* %PC
  %16 = inttoptr i64 %13 to i32*
  %17 = load i32, i32* %16
  %18 = zext i32 %17 to i64
  store i64 %18, i64* %RAX, align 8
  ret %struct.Memory* %2
}

define %struct.Memory* @routine_movzwl_MINUS0xe__rbp____ecx(%struct.State* dereferenceable(3376), i64, %struct.Memory*) {
block_400488:
  %3 = getelementptr inbounds %struct.State, %struct.State* %0, i32 0, i32 6
  %4 = getelementptr inbounds %struct.GPR, %struct.GPR* %3, i32 0, i32 33
  %5 = getelementptr inbounds %struct.Reg, %struct.Reg* %4, i32 0, i32 0
  %PC = bitcast %union.anon* %5 to i64*
  %6 = getelementptr inbounds %struct.State, %struct.State* %0, i32 0, i32 6
  %7 = getelementptr inbounds %struct.GPR, %struct.GPR* %6, i32 0, i32 5
  %8 = getelementptr inbounds %struct.Reg, %struct.Reg* %7, i32 0, i32 0
  %RCX = bitcast %union.anon* %8 to i64*
  %9 = getelementptr inbounds %struct.State, %struct.State* %0, i32 0, i32 6
  %10 = getelementptr inbounds %struct.GPR, %struct.GPR* %9, i32 0, i32 15
  %11 = getelementptr inbounds %struct.Reg, %struct.Reg* %10, i32 0, i32 0
  %RBP = bitcast %union.anon* %11 to i64*
  %12 = load i64, i64* %RBP
  %13 = sub i64 %12, 14
  %14 = load i64, i64* %PC
  %15 = add i64 %14, 4
  store i64 %15, i64* %PC
  %16 = inttoptr i64 %13 to i16*
  %17 = load i16, i16* %16
  %18 = zext i16 %17 to i64
  store i64 %18, i64* %RCX, align 8
  ret %struct.Memory* %2
}

define %struct.Memory* @routine_imull__ecx___eax(%struct.State* dereferenceable(3376), i64, %struct.Memory*) {
block_400488:
  %3 = getelementptr inbounds %struct.State, %struct.State* %0, i32 0, i32 6
  %4 = getelementptr inbounds %struct.GPR, %struct.GPR* %3, i32 0, i32 33
  %5 = getelementptr inbounds %struct.Reg, %struct.Reg* %4, i32 0, i32 0
  %PC = bitcast %union.anon* %5 to i64*
  %6 = getelementptr inbounds %struct.State, %struct.State* %0, i32 0, i32 6
  %7 = getelementptr inbounds %struct.GPR, %struct.GPR* %6, i32 0, i32 5
  %8 = getelementptr inbounds %struct.Reg, %struct.Reg* %7, i32 0, i32 0
  %ECX = bitcast %union.anon* %8 to i32*
  %9 = getelementptr inbounds %struct.State, %struct.State* %0, i32 0, i32 6
  %10 = getelementptr inbounds %struct.GPR, %struct.GPR* %9, i32 0, i32 1
  %11 = getelementptr inbounds %struct.Reg, %struct.Reg* %10, i32 0, i32 0
  %RAX = bitcast %union.anon* %11 to i64*
  %12 = load i64, i64* %RAX
  %13 = load i32, i32* %ECX
  %14 = zext i32 %13 to i64
  %15 = load i64, i64* %PC
  %16 = add i64 %15, 3
  store i64 %16, i64* %PC
  %17 = shl i64 %12, 32
  %18 = ashr exact i64 %17, 32
  %19 = shl i64 %14, 32
  %20 = ashr exact i64 %19, 32
  %21 = mul i64 %20, %18
  %22 = trunc i64 %21 to i32
  %23 = and i64 %21, 4294967295
  store i64 %23, i64* %RAX, align 8
  %24 = shl i64 %21, 32
  %25 = ashr exact i64 %24, 32
  %26 = icmp ne i64 %25, %21
  %27 = zext i1 %26 to i8
  %28 = getelementptr inbounds %struct.State, %struct.State* %0, i64 0, i32 2, i32 1
  store i8 %27, i8* %28, align 1
  %29 = and i32 %22, 255
  %30 = call i32 @llvm.ctpop.i32(i32 %29)
  %31 = trunc i32 %30 to i8
  %32 = and i8 %31, 1
  %33 = xor i8 %32, 1
  %34 = getelementptr inbounds %struct.State, %struct.State* %0, i64 0, i32 2, i32 3
  store i8 %33, i8* %34, align 1
  %35 = getelementptr inbounds %struct.State, %struct.State* %0, i64 0, i32 2, i32 5
  store i8 0, i8* %35, align 1
  %36 = getelementptr inbounds %struct.State, %struct.State* %0, i64 0, i32 2, i32 7
  store i8 0, i8* %36, align 1
  %37 = lshr i32 %22, 31
  %38 = trunc i32 %37 to i8
  %39 = getelementptr inbounds %struct.State, %struct.State* %0, i64 0, i32 2, i32 9
  store i8 %38, i8* %39, align 1
  %40 = getelementptr inbounds %struct.State, %struct.State* %0, i64 0, i32 2, i32 13
  store i8 %27, i8* %40, align 1
  ret %struct.Memory* %2
}

define %struct.Memory* @routine_movzwl_MINUS0x1e__rbp____ecx(%struct.State* dereferenceable(3376), i64, %struct.Memory*) {
block_400488:
  %3 = getelementptr inbounds %struct.State, %struct.State* %0, i32 0, i32 6
  %4 = getelementptr inbounds %struct.GPR, %struct.GPR* %3, i32 0, i32 33
  %5 = getelementptr inbounds %struct.Reg, %struct.Reg* %4, i32 0, i32 0
  %PC = bitcast %union.anon* %5 to i64*
  %6 = getelementptr inbounds %struct.State, %struct.State* %0, i32 0, i32 6
  %7 = getelementptr inbounds %struct.GPR, %struct.GPR* %6, i32 0, i32 5
  %8 = getelementptr inbounds %struct.Reg, %struct.Reg* %7, i32 0, i32 0
  %RCX = bitcast %union.anon* %8 to i64*
  %9 = getelementptr inbounds %struct.State, %struct.State* %0, i32 0, i32 6
  %10 = getelementptr inbounds %struct.GPR, %struct.GPR* %9, i32 0, i32 15
  %11 = getelementptr inbounds %struct.Reg, %struct.Reg* %10, i32 0, i32 0
  %RBP = bitcast %union.anon* %11 to i64*
  %12 = load i64, i64* %RBP
  %13 = sub i64 %12, 30
  %14 = load i64, i64* %PC
  %15 = add i64 %14, 4
  store i64 %15, i64* %PC
  %16 = inttoptr i64 %13 to i16*
  %17 = load i16, i16* %16
  %18 = zext i16 %17 to i64
  store i64 %18, i64* %RCX, align 8
  ret %struct.Memory* %2
}

define %struct.Memory* @routine_addl__eax___ecx(%struct.State* dereferenceable(3376), i64, %struct.Memory*) {
block_400488:
  %3 = getelementptr inbounds %struct.State, %struct.State* %0, i32 0, i32 6
  %4 = getelementptr inbounds %struct.GPR, %struct.GPR* %3, i32 0, i32 33
  %5 = getelementptr inbounds %struct.Reg, %struct.Reg* %4, i32 0, i32 0
  %PC = bitcast %union.anon* %5 to i64*
  %6 = getelementptr inbounds %struct.State, %struct.State* %0, i32 0, i32 6
  %7 = getelementptr inbounds %struct.GPR, %struct.GPR* %6, i32 0, i32 1
  %8 = getelementptr inbounds %struct.Reg, %struct.Reg* %7, i32 0, i32 0
  %EAX = bitcast %union.anon* %8 to i32*
  %9 = getelementptr inbounds %struct.State, %struct.State* %0, i32 0, i32 6
  %10 = getelementptr inbounds %struct.GPR, %struct.GPR* %9, i32 0, i32 5
  %11 = getelementptr inbounds %struct.Reg, %struct.Reg* %10, i32 0, i32 0
  %RCX = bitcast %union.anon* %11 to i64*
  %12 = load i64, i64* %RCX
  %13 = load i32, i32* %EAX
  %14 = zext i32 %13 to i64
  %15 = load i64, i64* %PC
  %16 = add i64 %15, 2
  store i64 %16, i64* %PC
  %17 = trunc i64 %12 to i32
  %18 = add i32 %13, %17
  %19 = zext i32 %18 to i64
  store i64 %19, i64* %RCX, align 8
  %20 = icmp ult i32 %18, %17
  %21 = icmp ult i32 %18, %13
  %22 = or i1 %20, %21
  %23 = zext i1 %22 to i8
  %24 = getelementptr inbounds %struct.State, %struct.State* %0, i64 0, i32 2, i32 1
  store i8 %23, i8* %24, align 1
  %25 = and i32 %18, 255
  %26 = call i32 @llvm.ctpop.i32(i32 %25)
  %27 = trunc i32 %26 to i8
  %28 = and i8 %27, 1
  %29 = xor i8 %28, 1
  %30 = getelementptr inbounds %struct.State, %struct.State* %0, i64 0, i32 2, i32 3
  store i8 %29, i8* %30, align 1
  %31 = xor i64 %14, %12
  %32 = trunc i64 %31 to i32
  %33 = xor i32 %32, %18
  %34 = lshr i32 %33, 4
  %35 = trunc i32 %34 to i8
  %36 = and i8 %35, 1
  %37 = getelementptr inbounds %struct.State, %struct.State* %0, i64 0, i32 2, i32 5
  store i8 %36, i8* %37, align 1
  %38 = icmp eq i32 %18, 0
  %39 = zext i1 %38 to i8
  %40 = getelementptr inbounds %struct.State, %struct.State* %0, i64 0, i32 2, i32 7
  store i8 %39, i8* %40, align 1
  %41 = lshr i32 %18, 31
  %42 = trunc i32 %41 to i8
  %43 = getelementptr inbounds %struct.State, %struct.State* %0, i64 0, i32 2, i32 9
  store i8 %42, i8* %43, align 1
  %44 = lshr i32 %17, 31
  %45 = lshr i32 %13, 31
  %46 = xor i32 %41, %44
  %47 = xor i32 %41, %45
  %48 = add i32 %46, %47
  %49 = icmp eq i32 %48, 2
  %50 = zext i1 %49 to i8
  %51 = getelementptr inbounds %struct.State, %struct.State* %0, i64 0, i32 2, i32 13
  store i8 %50, i8* %51, align 1
  ret %struct.Memory* %2
}

define %struct.Memory* @routine_movw__cx___dx(%struct.State* dereferenceable(3376), i64, %struct.Memory*) {
block_400488:
  %3 = getelementptr inbounds %struct.State, %struct.State* %0, i32 0, i32 6
  %4 = getelementptr inbounds %struct.GPR, %struct.GPR* %3, i32 0, i32 33
  %5 = getelementptr inbounds %struct.Reg, %struct.Reg* %4, i32 0, i32 0
  %PC = bitcast %union.anon* %5 to i64*
  %6 = getelementptr inbounds %struct.State, %struct.State* %0, i32 0, i32 6
  %7 = getelementptr inbounds %struct.GPR, %struct.GPR* %6, i32 0, i32 5
  %8 = getelementptr inbounds %struct.Reg, %struct.Reg* %7, i32 0, i32 0
  %CX = bitcast %union.anon* %8 to i16*
  %9 = getelementptr inbounds %struct.State, %struct.State* %0, i32 0, i32 6
  %10 = getelementptr inbounds %struct.GPR, %struct.GPR* %9, i32 0, i32 7
  %11 = getelementptr inbounds %struct.Reg, %struct.Reg* %10, i32 0, i32 0
  %DX = bitcast %union.anon* %11 to i16*
  %12 = load i16, i16* %CX
  %13 = zext i16 %12 to i64
  %14 = load i64, i64* %PC
  %15 = add i64 %14, 3
  store i64 %15, i64* %PC
  store i16 %12, i16* %DX, align 2
  ret %struct.Memory* %2
}

define %struct.Memory* @routine_movw__dx__MINUS0x1e__rbp_(%struct.State* dereferenceable(3376), i64, %struct.Memory*) {
block_400488:
  %3 = getelementptr inbounds %struct.State, %struct.State* %0, i32 0, i32 6
  %4 = getelementptr inbounds %struct.GPR, %struct.GPR* %3, i32 0, i32 33
  %5 = getelementptr inbounds %struct.Reg, %struct.Reg* %4, i32 0, i32 0
  %PC = bitcast %union.anon* %5 to i64*
  %6 = getelementptr inbounds %struct.State, %struct.State* %0, i32 0, i32 6
  %7 = getelementptr inbounds %struct.GPR, %struct.GPR* %6, i32 0, i32 7
  %8 = getelementptr inbounds %struct.Reg, %struct.Reg* %7, i32 0, i32 0
  %DX = bitcast %union.anon* %8 to i16*
  %9 = getelementptr inbounds %struct.State, %struct.State* %0, i32 0, i32 6
  %10 = getelementptr inbounds %struct.GPR, %struct.GPR* %9, i32 0, i32 15
  %11 = getelementptr inbounds %struct.Reg, %struct.Reg* %10, i32 0, i32 0
  %RBP = bitcast %union.anon* %11 to i64*
  %12 = load i64, i64* %RBP
  %13 = sub i64 %12, 30
  %14 = load i16, i16* %DX
  %15 = zext i16 %14 to i64
  %16 = load i64, i64* %PC
  %17 = add i64 %16, 4
  store i64 %17, i64* %PC
  %18 = inttoptr i64 %13 to i16*
  store i16 %14, i16* %18
  ret %struct.Memory* %2
}

define %struct.Memory* @routine_movw_MINUS0x1e__rbp____dx(%struct.State* dereferenceable(3376), i64, %struct.Memory*) {
block_400488:
  %3 = getelementptr inbounds %struct.State, %struct.State* %0, i32 0, i32 6
  %4 = getelementptr inbounds %struct.GPR, %struct.GPR* %3, i32 0, i32 33
  %5 = getelementptr inbounds %struct.Reg, %struct.Reg* %4, i32 0, i32 0
  %PC = bitcast %union.anon* %5 to i64*
  %6 = getelementptr inbounds %struct.State, %struct.State* %0, i32 0, i32 6
  %7 = getelementptr inbounds %struct.GPR, %struct.GPR* %6, i32 0, i32 7
  %8 = getelementptr inbounds %struct.Reg, %struct.Reg* %7, i32 0, i32 0
  %DX = bitcast %union.anon* %8 to i16*
  %9 = getelementptr inbounds %struct.State, %struct.State* %0, i32 0, i32 6
  %10 = getelementptr inbounds %struct.GPR, %struct.GPR* %9, i32 0, i32 15
  %11 = getelementptr inbounds %struct.Reg, %struct.Reg* %10, i32 0, i32 0
  %RBP = bitcast %union.anon* %11 to i64*
  %12 = load i64, i64* %RBP
  %13 = sub i64 %12, 30
  %14 = load i64, i64* %PC
  %15 = add i64 %14, 4
  store i64 %15, i64* %PC
  %16 = inttoptr i64 %13 to i16*
  %17 = load i16, i16* %16
  store i16 %17, i16* %DX, align 2
  ret %struct.Memory* %2
}

define %struct.Memory* @routine_movzwl__dx___edi(%struct.State* dereferenceable(3376), i64, %struct.Memory*) {
block_400488:
  %3 = getelementptr inbounds %struct.State, %struct.State* %0, i32 0, i32 6
  %4 = getelementptr inbounds %struct.GPR, %struct.GPR* %3, i32 0, i32 33
  %5 = getelementptr inbounds %struct.Reg, %struct.Reg* %4, i32 0, i32 0
  %PC = bitcast %union.anon* %5 to i64*
  %6 = getelementptr inbounds %struct.State, %struct.State* %0, i32 0, i32 6
  %7 = getelementptr inbounds %struct.GPR, %struct.GPR* %6, i32 0, i32 7
  %8 = getelementptr inbounds %struct.Reg, %struct.Reg* %7, i32 0, i32 0
  %DX = bitcast %union.anon* %8 to i16*
  %9 = getelementptr inbounds %struct.State, %struct.State* %0, i32 0, i32 6
  %10 = getelementptr inbounds %struct.GPR, %struct.GPR* %9, i32 0, i32 11
  %11 = getelementptr inbounds %struct.Reg, %struct.Reg* %10, i32 0, i32 0
  %RDI = bitcast %union.anon* %11 to i64*
  %12 = load i16, i16* %DX
  %13 = zext i16 %12 to i64
  %14 = load i64, i64* %PC
  %15 = add i64 %14, 3
  store i64 %15, i64* %PC
  %16 = and i64 %13, 65535
  store i64 %16, i64* %RDI, align 8
  ret %struct.Memory* %2
}

define %struct.Memory* @routine_movzwl_MINUS0xe__rbp____esi(%struct.State* dereferenceable(3376), i64, %struct.Memory*) {
block_400488:
  %3 = getelementptr inbounds %struct.State, %struct.State* %0, i32 0, i32 6
  %4 = getelementptr inbounds %struct.GPR, %struct.GPR* %3, i32 0, i32 33
  %5 = getelementptr inbounds %struct.Reg, %struct.Reg* %4, i32 0, i32 0
  %PC = bitcast %union.anon* %5 to i64*
  %6 = getelementptr inbounds %struct.State, %struct.State* %0, i32 0, i32 6
  %7 = getelementptr inbounds %struct.GPR, %struct.GPR* %6, i32 0, i32 9
  %8 = getelementptr inbounds %struct.Reg, %struct.Reg* %7, i32 0, i32 0
  %RSI = bitcast %union.anon* %8 to i64*
  %9 = getelementptr inbounds %struct.State, %struct.State* %0, i32 0, i32 6
  %10 = getelementptr inbounds %struct.GPR, %struct.GPR* %9, i32 0, i32 15
  %11 = getelementptr inbounds %struct.Reg, %struct.Reg* %10, i32 0, i32 0
  %RBP = bitcast %union.anon* %11 to i64*
  %12 = load i64, i64* %RBP
  %13 = sub i64 %12, 14
  %14 = load i64, i64* %PC
  %15 = add i64 %14, 4
  store i64 %15, i64* %PC
  %16 = inttoptr i64 %13 to i16*
  %17 = load i16, i16* %16
  %18 = zext i16 %17 to i64
  store i64 %18, i64* %RSI, align 8
  ret %struct.Memory* %2
}

define %struct.Memory* @routine_callq_._Z26check_shifted_variable_sumIt19custom_add_variableItEEvT_S2_(%struct.State* dereferenceable(3376), i64, %struct.Memory*, i64 %rel_off1, i64 %rel_off2, i64 %rel_off3) {
block_400488:
  %3 = getelementptr inbounds %struct.State, %struct.State* %0, i32 0, i32 6
  %4 = getelementptr inbounds %struct.GPR, %struct.GPR* %3, i32 0, i32 33
  %5 = getelementptr inbounds %struct.Reg, %struct.Reg* %4, i32 0, i32 0
  %PC = bitcast %union.anon* %5 to i64*
  %6 = load i64, i64* %PC
  %7 = add i64 %6, %rel_off1
  %8 = load i64, i64* %PC
  %9 = add i64 %8, %rel_off2
  %10 = load i64, i64* %PC
  %11 = add i64 %10, %rel_off3
  store i64 %11, i64* %PC
  %12 = getelementptr inbounds %struct.State, %struct.State* %0, i64 0, i32 6, i32 13, i32 0, i32 0
  %13 = load i64, i64* %12, align 8
  %14 = add i64 %13, -8
  %15 = inttoptr i64 %14 to i64*
  store i64 %9, i64* %15
  store i64 %14, i64* %12, align 8
  %16 = getelementptr inbounds %struct.State, %struct.State* %0, i64 0, i32 6, i32 33, i32 0, i32 0
  store i64 %7, i64* %16, align 8
  ret %struct.Memory* %2
}

define %struct.Memory* @routine_movl__eax__MINUS0x1c__rbp_(%struct.State* dereferenceable(3376), i64, %struct.Memory*) {
block_400488:
  %3 = getelementptr inbounds %struct.State, %struct.State* %0, i32 0, i32 6
  %4 = getelementptr inbounds %struct.GPR, %struct.GPR* %3, i32 0, i32 33
  %5 = getelementptr inbounds %struct.Reg, %struct.Reg* %4, i32 0, i32 0
  %PC = bitcast %union.anon* %5 to i64*
  %6 = getelementptr inbounds %struct.State, %struct.State* %0, i32 0, i32 6
  %7 = getelementptr inbounds %struct.GPR, %struct.GPR* %6, i32 0, i32 1
  %8 = getelementptr inbounds %struct.Reg, %struct.Reg* %7, i32 0, i32 0
  %EAX = bitcast %union.anon* %8 to i32*
  %9 = getelementptr inbounds %struct.State, %struct.State* %0, i32 0, i32 6
  %10 = getelementptr inbounds %struct.GPR, %struct.GPR* %9, i32 0, i32 15
  %11 = getelementptr inbounds %struct.Reg, %struct.Reg* %10, i32 0, i32 0
  %RBP = bitcast %union.anon* %11 to i64*
  %12 = load i64, i64* %RBP
  %13 = sub i64 %12, 28
  %14 = load i32, i32* %EAX
  %15 = zext i32 %14 to i64
  %16 = load i64, i64* %PC
  %17 = add i64 %16, 3
  store i64 %17, i64* %PC
  %18 = inttoptr i64 %13 to i32*
  store i32 %14, i32* %18
  ret %struct.Memory* %2
}

define %struct.Memory* @routine_jmpq_.L_4063e6(%struct.State* dereferenceable(3376), i64, %struct.Memory*, i64 %rel_off1, i64 %rel_off2) {
block_400488:
  %3 = getelementptr inbounds %struct.State, %struct.State* %0, i32 0, i32 6
  %4 = getelementptr inbounds %struct.GPR, %struct.GPR* %3, i32 0, i32 33
  %5 = getelementptr inbounds %struct.Reg, %struct.Reg* %4, i32 0, i32 0
  %PC = bitcast %union.anon* %5 to i64*
  %6 = load i64, i64* %PC
  %7 = add i64 %6, %rel_off1
  %8 = load i64, i64* %PC
  %9 = add i64 %8, %rel_off2
  store i64 %9, i64* %PC
  %10 = getelementptr inbounds %struct.State, %struct.State* %0, i64 0, i32 6, i32 33, i32 0, i32 0
  store i64 %7, i64* %10, align 8
  ret %struct.Memory* %2
}

define %struct.Memory* @routine_callq_._Z5timerv(%struct.State* dereferenceable(3376), i64, %struct.Memory*, i64 %rel_off1, i64 %rel_off2, i64 %rel_off3) {
block_400488:
  %3 = getelementptr inbounds %struct.State, %struct.State* %0, i32 0, i32 6
  %4 = getelementptr inbounds %struct.GPR, %struct.GPR* %3, i32 0, i32 33
  %5 = getelementptr inbounds %struct.Reg, %struct.Reg* %4, i32 0, i32 0
  %PC = bitcast %union.anon* %5 to i64*
  %6 = load i64, i64* %PC
  %7 = add i64 %6, %rel_off1
  %8 = load i64, i64* %PC
  %9 = add i64 %8, %rel_off2
  %10 = load i64, i64* %PC
  %11 = add i64 %10, %rel_off3
  store i64 %11, i64* %PC
  %12 = getelementptr inbounds %struct.State, %struct.State* %0, i64 0, i32 6, i32 13, i32 0, i32 0
  %13 = load i64, i64* %12, align 8
  %14 = add i64 %13, -8
  %15 = inttoptr i64 %14 to i64*
  store i64 %9, i64* %15
  store i64 %14, i64* %12, align 8
  %16 = getelementptr inbounds %struct.State, %struct.State* %0, i64 0, i32 6, i32 33, i32 0, i32 0
  store i64 %7, i64* %16, align 8
  ret %struct.Memory* %2
}

define %struct.Memory* @routine_movq_MINUS0x18__rbp____rdi(%struct.State* dereferenceable(3376), i64, %struct.Memory*) {
block_400488:
  %3 = getelementptr inbounds %struct.State, %struct.State* %0, i32 0, i32 6
  %4 = getelementptr inbounds %struct.GPR, %struct.GPR* %3, i32 0, i32 33
  %5 = getelementptr inbounds %struct.Reg, %struct.Reg* %4, i32 0, i32 0
  %PC = bitcast %union.anon* %5 to i64*
  %6 = getelementptr inbounds %struct.State, %struct.State* %0, i32 0, i32 6
  %7 = getelementptr inbounds %struct.GPR, %struct.GPR* %6, i32 0, i32 11
  %8 = getelementptr inbounds %struct.Reg, %struct.Reg* %7, i32 0, i32 0
  %RDI = bitcast %union.anon* %8 to i64*
  %9 = getelementptr inbounds %struct.State, %struct.State* %0, i32 0, i32 6
  %10 = getelementptr inbounds %struct.GPR, %struct.GPR* %9, i32 0, i32 15
  %11 = getelementptr inbounds %struct.Reg, %struct.Reg* %10, i32 0, i32 0
  %RBP = bitcast %union.anon* %11 to i64*
  %12 = load i64, i64* %RBP
  %13 = sub i64 %12, 24
  %14 = load i64, i64* %PC
  %15 = add i64 %14, 4
  store i64 %15, i64* %PC
  %16 = inttoptr i64 %13 to i64*
  %17 = load i64, i64* %16
  store i64 %17, i64* %RDI, align 8
  ret %struct.Memory* %2
}

define %struct.Memory* @routine_callq_._Z13record_resultdPKc(%struct.State* dereferenceable(3376), i64, %struct.Memory*, i64 %rel_off1, i64 %rel_off2, i64 %rel_off3) {
block_400488:
  %3 = getelementptr inbounds %struct.State, %struct.State* %0, i32 0, i32 6
  %4 = getelementptr inbounds %struct.GPR, %struct.GPR* %3, i32 0, i32 33
  %5 = getelementptr inbounds %struct.Reg, %struct.Reg* %4, i32 0, i32 0
  %PC = bitcast %union.anon* %5 to i64*
  %6 = load i64, i64* %PC
  %7 = add i64 %6, %rel_off1
  %8 = load i64, i64* %PC
  %9 = add i64 %8, %rel_off2
  %10 = load i64, i64* %PC
  %11 = add i64 %10, %rel_off3
  store i64 %11, i64* %PC
  %12 = getelementptr inbounds %struct.State, %struct.State* %0, i64 0, i32 6, i32 13, i32 0, i32 0
  %13 = load i64, i64* %12, align 8
  %14 = add i64 %13, -8
  %15 = inttoptr i64 %14 to i64*
  store i64 %9, i64* %15
  store i64 %14, i64* %12, align 8
  %16 = getelementptr inbounds %struct.State, %struct.State* %0, i64 0, i32 6, i32 33, i32 0, i32 0
  store i64 %7, i64* %16, align 8
  ret %struct.Memory* %2
}

define %struct.Memory* @routine_addq__0x30___rsp(%struct.State* dereferenceable(3376), i64, %struct.Memory*) {
block_400488:
  %3 = getelementptr inbounds %struct.State, %struct.State* %0, i32 0, i32 6
  %4 = getelementptr inbounds %struct.GPR, %struct.GPR* %3, i32 0, i32 33
  %5 = getelementptr inbounds %struct.Reg, %struct.Reg* %4, i32 0, i32 0
  %PC = bitcast %union.anon* %5 to i64*
  %6 = getelementptr inbounds %struct.State, %struct.State* %0, i32 0, i32 6
  %7 = getelementptr inbounds %struct.GPR, %struct.GPR* %6, i32 0, i32 13
  %8 = getelementptr inbounds %struct.Reg, %struct.Reg* %7, i32 0, i32 0
  %RSP = bitcast %union.anon* %8 to i64*
  %9 = load i64, i64* %RSP
  %10 = load i64, i64* %PC
  %11 = add i64 %10, 4
  store i64 %11, i64* %PC
  %12 = add i64 48, %9
  store i64 %12, i64* %RSP, align 8
  %13 = icmp ult i64 %12, %9
  %14 = icmp ult i64 %12, 48
  %15 = or i1 %13, %14
  %16 = zext i1 %15 to i8
  %17 = getelementptr inbounds %struct.State, %struct.State* %0, i64 0, i32 2, i32 1
  store i8 %16, i8* %17, align 1
  %18 = trunc i64 %12 to i32
  %19 = and i32 %18, 255
  %20 = call i32 @llvm.ctpop.i32(i32 %19)
  %21 = trunc i32 %20 to i8
  %22 = and i8 %21, 1
  %23 = xor i8 %22, 1
  %24 = getelementptr inbounds %struct.State, %struct.State* %0, i64 0, i32 2, i32 3
  store i8 %23, i8* %24, align 1
  %25 = xor i64 48, %9
  %26 = xor i64 %25, %12
  %27 = lshr i64 %26, 4
  %28 = trunc i64 %27 to i8
  %29 = and i8 %28, 1
  %30 = getelementptr inbounds %struct.State, %struct.State* %0, i64 0, i32 2, i32 5
  store i8 %29, i8* %30, align 1
  %31 = icmp eq i64 %12, 0
  %32 = zext i1 %31 to i8
  %33 = getelementptr inbounds %struct.State, %struct.State* %0, i64 0, i32 2, i32 7
  store i8 %32, i8* %33, align 1
  %34 = lshr i64 %12, 63
  %35 = trunc i64 %34 to i8
  %36 = getelementptr inbounds %struct.State, %struct.State* %0, i64 0, i32 2, i32 9
  store i8 %35, i8* %36, align 1
  %37 = lshr i64 %9, 63
  %38 = xor i64 %34, %37
  %39 = add i64 %38, %34
  %40 = icmp eq i64 %39, 2
  %41 = zext i1 %40 to i8
  %42 = getelementptr inbounds %struct.State, %struct.State* %0, i64 0, i32 2, i32 13
  store i8 %41, i8* %42, align 1
  ret %struct.Memory* %2
}

define %struct.Memory* @routine_popq__rbp(%struct.State* dereferenceable(3376), i64, %struct.Memory*) {
block_400488:
  %3 = getelementptr inbounds %struct.State, %struct.State* %0, i32 0, i32 6
  %4 = getelementptr inbounds %struct.GPR, %struct.GPR* %3, i32 0, i32 33
  %5 = getelementptr inbounds %struct.Reg, %struct.Reg* %4, i32 0, i32 0
  %PC = bitcast %union.anon* %5 to i64*
  %6 = getelementptr inbounds %struct.State, %struct.State* %0, i32 0, i32 6
  %7 = getelementptr inbounds %struct.GPR, %struct.GPR* %6, i32 0, i32 15
  %8 = getelementptr inbounds %struct.Reg, %struct.Reg* %7, i32 0, i32 0
  %RBP = bitcast %union.anon* %8 to i64*
  %9 = load i64, i64* %PC
  %10 = add i64 %9, 1
  store i64 %10, i64* %PC
  %11 = getelementptr inbounds %struct.State, %struct.State* %0, i64 0, i32 6, i32 13, i32 0, i32 0
  %12 = load i64, i64* %11, align 8
  %13 = add i64 %12, 8
  %14 = inttoptr i64 %12 to i64*
  %15 = load i64, i64* %14
  store i64 %15, i64* %RBP, align 8
  store i64 %13, i64* %11, align 8
  ret %struct.Memory* %2
}

define %struct.Memory* @routine_retq(%struct.State* dereferenceable(3376), i64, %struct.Memory*) {
block_400488:
  %3 = getelementptr inbounds %struct.State, %struct.State* %0, i32 0, i32 6
  %4 = getelementptr inbounds %struct.GPR, %struct.GPR* %3, i32 0, i32 33
  %5 = getelementptr inbounds %struct.Reg, %struct.Reg* %4, i32 0, i32 0
  %PC = bitcast %union.anon* %5 to i64*
  %6 = load i64, i64* %PC
  %7 = add i64 %6, 1
  store i64 %7, i64* %PC
  %8 = getelementptr inbounds %struct.State, %struct.State* %0, i64 0, i32 6, i32 33, i32 0, i32 0
  %9 = getelementptr inbounds %struct.State, %struct.State* %0, i64 0, i32 6, i32 13, i32 0, i32 0
  %10 = load i64, i64* %9, align 8
  %11 = inttoptr i64 %10 to i64*
  %12 = load i64, i64* %11
  store i64 %12, i64* %8, align 8
  %13 = add i64 %10, 8
  store i64 %13, i64* %9, align 8
  ret %struct.Memory* %2
}

attributes #0 = { nounwind readnone }
attributes #1 = { alwaysinline }
