; ModuleID = 'mcsema/test.proposed.inline.ll'
source_filename = "llvm-link"
target datalayout = "e-m:e-i64:64-f80:128-n8:16:32:64-S128"
target triple = "x86_64-pc-linux-gnu-elf"

%__bss_start_type = type <{ [8 x i8] }>
%G_0x61c078_type = type <{ [4 x i8] }>
%G_0x61c080_type = type <{ [16 x i8] }>
%G__0x4166ea_type = type <{ [8 x i8] }>
%G__0x416702_type = type <{ [8 x i8] }>
%G__0x41671c_type = type <{ [8 x i8] }>
%G__0x416733_type = type <{ [8 x i8] }>
%G__0x41674c_type = type <{ [8 x i8] }>
%G__0x416763_type = type <{ [8 x i8] }>
%G__0x41677c_type = type <{ [8 x i8] }>
%G__0x416792_type = type <{ [8 x i8] }>
%G__0x61c0c0_type = type <{ [8 x i8] }>
%G__0x62bac0_type = type <{ [8 x i8] }>
%struct.State = type { %struct.ArchState, [32 x %union.VectorReg], %struct.ArithFlags, %union.anon, %struct.Segments, %struct.AddressSpace, %struct.GPR, %struct.X87Stack, %struct.MMX, %struct.FPUStatusFlags, %union.anon, %union.FPU, %struct.SegmentCaches }
%struct.ArchState = type { i32, i32, %union.anon }
%union.VectorReg = type { %union.vec512_t }
%union.vec512_t = type { %struct.uint64v8_t }
%struct.uint64v8_t = type { [8 x i64] }
%struct.ArithFlags = type { i8, i8, i8, i8, i8, i8, i8, i8, i8, i8, i8, i8, i8, i8, i8, i8 }
%struct.Segments = type { i16, %union.SegmentSelector, i16, %union.SegmentSelector, i16, %union.SegmentSelector, i16, %union.SegmentSelector, i16, %union.SegmentSelector, i16, %union.SegmentSelector }
%union.SegmentSelector = type { i16 }
%struct.AddressSpace = type { i64, %struct.Reg, i64, %struct.Reg, i64, %struct.Reg, i64, %struct.Reg, i64, %struct.Reg, i64, %struct.Reg }
%struct.Reg = type { %union.anon }
%struct.GPR = type { i64, %struct.Reg, i64, %struct.Reg, i64, %struct.Reg, i64, %struct.Reg, i64, %struct.Reg, i64, %struct.Reg, i64, %struct.Reg, i64, %struct.Reg, i64, %struct.Reg, i64, %struct.Reg, i64, %struct.Reg, i64, %struct.Reg, i64, %struct.Reg, i64, %struct.Reg, i64, %struct.Reg, i64, %struct.Reg, i64, %struct.Reg }
%struct.X87Stack = type { [8 x %struct.anon.3] }
%struct.anon.3 = type { i64, double }
%struct.MMX = type { [8 x %struct.anon.4] }
%struct.anon.4 = type { i64, %union.vec64_t }
%union.vec64_t = type { %struct.uint64v1_t }
%struct.uint64v1_t = type { [1 x i64] }
%struct.FPUStatusFlags = type { i8, i8, i8, i8, i8, i8, i8, i8, i8, i8, i8, i8, i8, i8, i8, i8, i8, i8, i8, i8, [4 x i8] }
%union.anon = type { i64 }
%union.FPU = type { %struct.anon.13 }
%struct.anon.13 = type { %struct.FpuFXSAVE, [96 x i8] }
%struct.FpuFXSAVE = type { %union.SegmentSelector, %union.SegmentSelector, %union.FPUAbridgedTagWord, i8, i16, i32, %union.SegmentSelector, i16, i32, %union.SegmentSelector, i16, %union.FPUControlStatus, %union.FPUControlStatus, [8 x %struct.FPUStackElem], [16 x %union.vec128_t] }
%union.FPUAbridgedTagWord = type { i8 }
%union.FPUControlStatus = type { i32 }
%struct.FPUStackElem = type { %union.anon.11, [6 x i8] }
%union.anon.11 = type { %struct.float80_t }
%struct.float80_t = type { [10 x i8] }
%union.vec128_t = type { %struct.uint128v1_t }
%struct.uint128v1_t = type { [1 x i128] }
%struct.SegmentCaches = type { %struct.SegmentShadow, %struct.SegmentShadow, %struct.SegmentShadow, %struct.SegmentShadow, %struct.SegmentShadow, %struct.SegmentShadow }
%struct.SegmentShadow = type { %union.anon, i32, i32 }
%struct.Memory = type opaque

@__bss_start = local_unnamed_addr global %__bss_start_type zeroinitializer
@G_0x61c078 = local_unnamed_addr global %G_0x61c078_type zeroinitializer
@G_0x61c080 = local_unnamed_addr global %G_0x61c080_type zeroinitializer
@G__0x4166ea = global %G__0x4166ea_type zeroinitializer
@G__0x416702 = global %G__0x416702_type zeroinitializer
@G__0x41671c = global %G__0x41671c_type zeroinitializer
@G__0x416733 = global %G__0x416733_type zeroinitializer
@G__0x41674c = global %G__0x41674c_type zeroinitializer
@G__0x416763 = global %G__0x416763_type zeroinitializer
@G__0x41677c = global %G__0x41677c_type zeroinitializer
@G__0x416792 = global %G__0x416792_type zeroinitializer
@G__0x61c0c0 = global %G__0x61c0c0_type zeroinitializer
@G__0x62bac0 = global %G__0x62bac0_type zeroinitializer

declare %struct.Memory* @__remill_error(%struct.State* dereferenceable(3376), i64, %struct.Memory*) local_unnamed_addr

; Function Attrs: nounwind readnone
declare i32 @llvm.ctpop.i32(i32) #0

; Function Attrs: nounwind readnone
declare double @llvm.fabs.f64(double) #0

; Function Attrs: nounwind readnone
declare double @llvm.trunc.f64(double) #0

declare extern_weak x86_64_sysvcc i64 @atof(i64)

declare extern_weak x86_64_sysvcc i64 @atoi(i64)

declare %struct.Memory* @__remill_function_call(%struct.State* dereferenceable(3376), i64, %struct.Memory*) local_unnamed_addr

declare %struct.Memory* @sub_400fd0._Z4fillIPiiEvT_S1_T0_(%struct.State* noalias dereferenceable(3376), i64, %struct.Memory* noalias readnone returned) local_unnamed_addr

declare %struct.Memory* @sub_401010._ZN14for_loop_testsILi32EiE7do_testEPKiPKc(%struct.State* noalias dereferenceable(3376), i64, %struct.Memory* noalias readnone returned) local_unnamed_addr

declare %struct.Memory* @sub_401060._ZN16while_loop_testsILi32EiE7do_testEPKiPKc(%struct.State* noalias dereferenceable(3376), i64, %struct.Memory* noalias readnone returned) local_unnamed_addr

declare %struct.Memory* @sub_4010b0._ZN13do_loop_testsILi32EiE7do_testEPKiPKc(%struct.State* noalias dereferenceable(3376), i64, %struct.Memory* noalias readnone returned) local_unnamed_addr

declare %struct.Memory* @sub_401100._ZN15goto_loop_testsILi32EiE7do_testEPKiPKc(%struct.State* noalias dereferenceable(3376), i64, %struct.Memory* noalias readnone returned) local_unnamed_addr

declare %struct.Memory* @sub_401150._Z4fillIPddEvT_S1_T0_(%struct.State* noalias dereferenceable(3376), i64, %struct.Memory* noalias readnone returned) local_unnamed_addr

declare %struct.Memory* @sub_401190._ZN14for_loop_testsILi32EdE7do_testEPKdPKc(%struct.State* noalias dereferenceable(3376), i64, %struct.Memory* noalias readnone returned) local_unnamed_addr

declare %struct.Memory* @sub_4011e0._ZN16while_loop_testsILi32EdE7do_testEPKdPKc(%struct.State* noalias dereferenceable(3376), i64, %struct.Memory* noalias readnone returned) local_unnamed_addr

declare %struct.Memory* @sub_401230._ZN13do_loop_testsILi32EdE7do_testEPKdPKc(%struct.State* noalias dereferenceable(3376), i64, %struct.Memory* noalias readnone returned) local_unnamed_addr

declare %struct.Memory* @sub_401280._ZN15goto_loop_testsILi32EdE7do_testEPKdPKc(%struct.State* noalias dereferenceable(3376), i64, %struct.Memory* noalias readnone returned) local_unnamed_addr

; Function Attrs: alwaysinline
define %struct.Memory* @main(%struct.State* noalias, i64, %struct.Memory* noalias) local_unnamed_addr #1 {
entry:
  %3 = getelementptr inbounds %struct.State, %struct.State* %0, i64 0, i32 6, i32 33, i32 0, i32 0
  %RBP.i = getelementptr inbounds %struct.State, %struct.State* %0, i64 0, i32 6, i32 15, i32 0, i32 0
  %4 = load i64, i64* %RBP.i, align 8
  %5 = add i64 %1, 1
  store i64 %5, i64* %3, align 8
  %6 = getelementptr inbounds %struct.State, %struct.State* %0, i64 0, i32 6, i32 13, i32 0, i32 0
  %7 = load i64, i64* %6, align 8
  %8 = add i64 %7, -8
  %9 = inttoptr i64 %8 to i64*
  store i64 %4, i64* %9, align 8
  %10 = load i64, i64* %3, align 8
  store i64 %8, i64* %RBP.i, align 8
  %11 = add i64 %7, -40
  store i64 %11, i64* %6, align 8
  %12 = icmp ult i64 %8, 32
  %13 = zext i1 %12 to i8
  %14 = getelementptr inbounds %struct.State, %struct.State* %0, i64 0, i32 2, i32 1
  store i8 %13, i8* %14, align 1
  %15 = trunc i64 %11 to i32
  %16 = and i32 %15, 255
  %17 = tail call i32 @llvm.ctpop.i32(i32 %16)
  %18 = trunc i32 %17 to i8
  %19 = and i8 %18, 1
  %20 = xor i8 %19, 1
  %21 = getelementptr inbounds %struct.State, %struct.State* %0, i64 0, i32 2, i32 3
  store i8 %20, i8* %21, align 1
  %22 = xor i64 %8, %11
  %23 = lshr i64 %22, 4
  %24 = trunc i64 %23 to i8
  %25 = and i8 %24, 1
  %26 = getelementptr inbounds %struct.State, %struct.State* %0, i64 0, i32 2, i32 5
  store i8 %25, i8* %26, align 1
  %27 = icmp eq i64 %11, 0
  %28 = zext i1 %27 to i8
  %29 = getelementptr inbounds %struct.State, %struct.State* %0, i64 0, i32 2, i32 7
  store i8 %28, i8* %29, align 1
  %30 = lshr i64 %11, 63
  %31 = trunc i64 %30 to i8
  %32 = getelementptr inbounds %struct.State, %struct.State* %0, i64 0, i32 2, i32 9
  store i8 %31, i8* %32, align 1
  %33 = lshr i64 %8, 63
  %34 = xor i64 %30, %33
  %35 = add nuw nsw i64 %34, %33
  %36 = icmp eq i64 %35, 2
  %37 = zext i1 %36 to i8
  %38 = getelementptr inbounds %struct.State, %struct.State* %0, i64 0, i32 2, i32 13
  store i8 %37, i8* %38, align 1
  %39 = add i64 %7, -12
  %40 = add i64 %10, 14
  store i64 %40, i64* %3, align 8
  %41 = inttoptr i64 %39 to i32*
  store i32 0, i32* %41, align 4
  %42 = getelementptr inbounds %struct.State, %struct.State* %0, i64 0, i32 6, i32 11, i32 0
  %EDI.i = bitcast %union.anon* %42 to i32*
  %43 = load i64, i64* %RBP.i, align 8
  %44 = add i64 %43, -8
  %45 = load i32, i32* %EDI.i, align 4
  %46 = load i64, i64* %3, align 8
  %47 = add i64 %46, 3
  store i64 %47, i64* %3, align 8
  %48 = inttoptr i64 %44 to i32*
  store i32 %45, i32* %48, align 4
  %RSI.i123 = getelementptr inbounds %struct.State, %struct.State* %0, i64 0, i32 6, i32 9, i32 0, i32 0
  %49 = load i64, i64* %RBP.i, align 8
  %50 = add i64 %49, -16
  %51 = load i64, i64* %RSI.i123, align 8
  %52 = load i64, i64* %3, align 8
  %53 = add i64 %52, 4
  store i64 %53, i64* %3, align 8
  %54 = inttoptr i64 %50 to i64*
  store i64 %51, i64* %54, align 8
  %55 = load i64, i64* %RBP.i, align 8
  %56 = add i64 %55, -8
  %57 = load i64, i64* %3, align 8
  %58 = add i64 %57, 4
  store i64 %58, i64* %3, align 8
  %59 = inttoptr i64 %56 to i32*
  %60 = load i32, i32* %59, align 4
  %61 = add i32 %60, -1
  %62 = icmp eq i32 %60, 0
  %63 = zext i1 %62 to i8
  store i8 %63, i8* %14, align 1
  %64 = and i32 %61, 255
  %65 = tail call i32 @llvm.ctpop.i32(i32 %64)
  %66 = trunc i32 %65 to i8
  %67 = and i8 %66, 1
  %68 = xor i8 %67, 1
  store i8 %68, i8* %21, align 1
  %69 = xor i32 %60, %61
  %70 = lshr i32 %69, 4
  %71 = trunc i32 %70 to i8
  %72 = and i8 %71, 1
  store i8 %72, i8* %26, align 1
  %73 = icmp eq i32 %61, 0
  %74 = zext i1 %73 to i8
  store i8 %74, i8* %29, align 1
  %75 = lshr i32 %61, 31
  %76 = trunc i32 %75 to i8
  store i8 %76, i8* %32, align 1
  %77 = lshr i32 %60, 31
  %78 = xor i32 %75, %77
  %79 = add nuw nsw i32 %78, %77
  %80 = icmp eq i32 %79, 2
  %81 = zext i1 %80 to i8
  store i8 %81, i8* %38, align 1
  %82 = icmp ne i8 %76, 0
  %83 = xor i1 %82, %80
  %84 = or i1 %73, %83
  %.v = select i1 %84, i64 30, i64 10
  %85 = add i64 %57, %.v
  store i64 %85, i64* %3, align 8
  br i1 %84, label %block_.L_400e64, label %block_400e50

block_400e50:                                     ; preds = %entry
  %86 = getelementptr inbounds %struct.State, %struct.State* %0, i64 0, i32 6, i32 1, i32 0
  %RAX.i117 = getelementptr inbounds %union.anon, %union.anon* %86, i64 0, i32 0
  %87 = add i64 %55, -16
  %88 = add i64 %85, 4
  store i64 %88, i64* %3, align 8
  %89 = inttoptr i64 %87 to i64*
  %90 = load i64, i64* %89, align 8
  store i64 %90, i64* %RAX.i117, align 8
  %RDI.i115 = getelementptr inbounds %union.anon, %union.anon* %42, i64 0, i32 0
  %91 = add i64 %90, 8
  %92 = add i64 %85, 8
  store i64 %92, i64* %3, align 8
  %93 = inttoptr i64 %91 to i64*
  %94 = load i64, i64* %93, align 8
  store i64 %94, i64* %RDI.i115, align 8
  %95 = add i64 %85, -2000
  %96 = add i64 %85, 13
  %97 = load i64, i64* %6, align 8
  %98 = add i64 %97, -8
  %99 = inttoptr i64 %98 to i64*
  store i64 %96, i64* %99, align 8
  store i64 %98, i64* %6, align 8
  store i64 %95, i64* %3, align 8
  %100 = tail call %struct.Memory* @__remill_function_call(%struct.State* %0, i64 ptrtoint (i64 (i64)* @atoi to i64), %struct.Memory* %2)
  %EAX.i109 = bitcast %union.anon* %86 to i32*
  %101 = load i32, i32* %EAX.i109, align 4
  %102 = load i64, i64* %3, align 8
  %103 = add i64 %102, 7
  store i64 %103, i64* %3, align 8
  store i32 %101, i32* bitcast (%G_0x61c078_type* @G_0x61c078 to i32*), align 8
  %.pre = load i64, i64* %RBP.i, align 8
  br label %block_.L_400e64

block_.L_400e64:                                  ; preds = %block_400e50, %entry
  %104 = phi i64 [ %85, %entry ], [ %103, %block_400e50 ]
  %105 = phi i64 [ %55, %entry ], [ %.pre, %block_400e50 ]
  %MEMORY.0 = phi %struct.Memory* [ %2, %entry ], [ %100, %block_400e50 ]
  %106 = add i64 %105, -8
  %107 = add i64 %104, 4
  store i64 %107, i64* %3, align 8
  %108 = inttoptr i64 %106 to i32*
  %109 = load i32, i32* %108, align 4
  %110 = add i32 %109, -2
  %111 = icmp ult i32 %109, 2
  %112 = zext i1 %111 to i8
  store i8 %112, i8* %14, align 1
  %113 = and i32 %110, 255
  %114 = tail call i32 @llvm.ctpop.i32(i32 %113)
  %115 = trunc i32 %114 to i8
  %116 = and i8 %115, 1
  %117 = xor i8 %116, 1
  store i8 %117, i8* %21, align 1
  %118 = xor i32 %109, %110
  %119 = lshr i32 %118, 4
  %120 = trunc i32 %119 to i8
  %121 = and i8 %120, 1
  store i8 %121, i8* %26, align 1
  %122 = icmp eq i32 %110, 0
  %123 = zext i1 %122 to i8
  store i8 %123, i8* %29, align 1
  %124 = lshr i32 %110, 31
  %125 = trunc i32 %124 to i8
  store i8 %125, i8* %32, align 1
  %126 = lshr i32 %109, 31
  %127 = xor i32 %124, %126
  %128 = add nuw nsw i32 %127, %126
  %129 = icmp eq i32 %128, 2
  %130 = zext i1 %129 to i8
  store i8 %130, i8* %38, align 1
  %131 = icmp ne i8 %125, 0
  %132 = xor i1 %131, %129
  %133 = or i1 %122, %132
  %.v11 = select i1 %133, i64 32, i64 10
  %134 = add i64 %104, %.v11
  store i64 %134, i64* %3, align 8
  br i1 %133, label %block_.L_400e64.block_.L_400e84_crit_edge, label %block_400e6e

block_.L_400e64.block_.L_400e84_crit_edge:        ; preds = %block_.L_400e64
  %.pre1 = load double, double* bitcast (%G_0x61c080_type* @G_0x61c080 to double*), align 8
  %.pre6 = getelementptr inbounds %struct.State, %struct.State* %0, i64 0, i32 6, i32 1, i32 0
  %.pre8 = getelementptr inbounds %union.anon, %union.anon* %.pre6, i64 0, i32 0
  %.pre9 = getelementptr inbounds %union.anon, %union.anon* %42, i64 0, i32 0
  br label %block_.L_400e84

block_400e6e:                                     ; preds = %block_.L_400e64
  %135 = getelementptr inbounds %struct.State, %struct.State* %0, i64 0, i32 6, i32 1, i32 0
  %RAX.i103 = getelementptr inbounds %union.anon, %union.anon* %135, i64 0, i32 0
  %136 = add i64 %105, -16
  %137 = add i64 %134, 4
  store i64 %137, i64* %3, align 8
  %138 = inttoptr i64 %136 to i64*
  %139 = load i64, i64* %138, align 8
  store i64 %139, i64* %RAX.i103, align 8
  %RDI.i101 = getelementptr inbounds %union.anon, %union.anon* %42, i64 0, i32 0
  %140 = add i64 %139, 16
  %141 = add i64 %134, 8
  store i64 %141, i64* %3, align 8
  %142 = inttoptr i64 %140 to i64*
  %143 = load i64, i64* %142, align 8
  store i64 %143, i64* %RDI.i101, align 8
  %144 = add i64 %134, -2142
  %145 = add i64 %134, 13
  %146 = load i64, i64* %6, align 8
  %147 = add i64 %146, -8
  %148 = inttoptr i64 %147 to i64*
  store i64 %145, i64* %148, align 8
  store i64 %147, i64* %6, align 8
  store i64 %144, i64* %3, align 8
  %149 = tail call %struct.Memory* @__remill_function_call(%struct.State* %0, i64 ptrtoint (i64 (i64)* @atof to i64), %struct.Memory* %MEMORY.0)
  %150 = getelementptr inbounds %struct.State, %struct.State* %0, i64 0, i32 1, i64 0
  %151 = load i64, i64* %3, align 8
  %152 = add i64 %151, 9
  store i64 %152, i64* %3, align 8
  %153 = bitcast %union.VectorReg* %150 to double*
  %154 = load double, double* %153, align 1
  store double %154, double* bitcast (%G_0x61c080_type* @G_0x61c080 to double*), align 8
  br label %block_.L_400e84

block_.L_400e84:                                  ; preds = %block_.L_400e64.block_.L_400e84_crit_edge, %block_400e6e
  %RDI.i85.pre-phi = phi i64* [ %.pre9, %block_.L_400e64.block_.L_400e84_crit_edge ], [ %RDI.i101, %block_400e6e ]
  %RAX.i94.pre-phi = phi i64* [ %.pre8, %block_.L_400e64.block_.L_400e84_crit_edge ], [ %RAX.i103, %block_400e6e ]
  %.pre-phi7 = phi %union.anon* [ %.pre6, %block_.L_400e64.block_.L_400e84_crit_edge ], [ %135, %block_400e6e ]
  %155 = phi double [ %.pre1, %block_.L_400e64.block_.L_400e84_crit_edge ], [ %154, %block_400e6e ]
  %156 = phi i64 [ %134, %block_.L_400e64.block_.L_400e84_crit_edge ], [ %152, %block_400e6e ]
  %MEMORY.1 = phi %struct.Memory* [ %MEMORY.0, %block_.L_400e64.block_.L_400e84_crit_edge ], [ %149, %block_400e6e ]
  store i64 ptrtoint (%G__0x62bac0_type* @G__0x62bac0 to i64), i64* %RAX.i94.pre-phi, align 8
  %RCX.i92 = getelementptr inbounds %struct.State, %struct.State* %0, i64 0, i32 6, i32 5, i32 0, i32 0
  store i64 add (i64 ptrtoint (%G__0x62bac0_type* @G__0x62bac0 to i64), i64 32000), i64* %RCX.i92, align 8
  store i8 zext (i1 or (i1 icmp ult (i64 add (i64 ptrtoint (%G__0x62bac0_type* @G__0x62bac0 to i64), i64 32000), i64 ptrtoint (%G__0x62bac0_type* @G__0x62bac0 to i64)), i1 icmp ult (i64 add (i64 ptrtoint (%G__0x62bac0_type* @G__0x62bac0 to i64), i64 32000), i64 32000)) to i8), i8* %14, align 1
  %157 = tail call i32 @llvm.ctpop.i32(i32 and (i32 trunc (i64 add (i64 ptrtoint (%G__0x62bac0_type* @G__0x62bac0 to i64), i64 32000) to i32), i32 255))
  %158 = trunc i32 %157 to i8
  %159 = and i8 %158, 1
  %160 = xor i8 %159, 1
  store i8 %160, i8* %21, align 1
  store i8 and (i8 trunc (i64 lshr (i64 xor (i64 xor (i64 ptrtoint (%G__0x62bac0_type* @G__0x62bac0 to i64), i64 32000), i64 add (i64 ptrtoint (%G__0x62bac0_type* @G__0x62bac0 to i64), i64 32000)), i64 4) to i8), i8 1), i8* %26, align 1
  store i8 zext (i1 icmp eq (i64 add (i64 ptrtoint (%G__0x62bac0_type* @G__0x62bac0 to i64), i64 32000), i64 0) to i8), i8* %29, align 1
  store i8 trunc (i64 lshr (i64 add (i64 ptrtoint (%G__0x62bac0_type* @G__0x62bac0 to i64), i64 32000), i64 63) to i8), i8* %32, align 1
  store i8 zext (i1 icmp eq (i64 add (i64 xor (i64 lshr (i64 add (i64 ptrtoint (%G__0x62bac0_type* @G__0x62bac0 to i64), i64 32000), i64 63), i64 lshr (i64 ptrtoint (%G__0x62bac0_type* @G__0x62bac0 to i64), i64 63)), i64 lshr (i64 add (i64 ptrtoint (%G__0x62bac0_type* @G__0x62bac0 to i64), i64 32000), i64 63)), i64 2) to i8), i8* %38, align 1
  %161 = getelementptr inbounds %struct.State, %struct.State* %0, i64 0, i32 6, i32 7, i32 0
  %RDX.i87 = getelementptr inbounds %union.anon, %union.anon* %161, i64 0, i32 0
  %162 = tail call double @llvm.trunc.f64(double %155)
  %163 = tail call double @llvm.fabs.f64(double %162)
  %164 = fcmp ogt double %163, 0x41DFFFFFFFC00000
  %165 = fptosi double %162 to i32
  %166 = zext i32 %165 to i64
  %167 = select i1 %164, i64 2147483648, i64 %166
  store i64 %167, i64* %RDX.i87, align 8
  store i64 ptrtoint (%G__0x62bac0_type* @G__0x62bac0 to i64), i64* %RDI.i85.pre-phi, align 8
  store i64 add (i64 ptrtoint (%G__0x62bac0_type* @G__0x62bac0 to i64), i64 32000), i64* %RSI.i123, align 8
  %168 = add i64 %156, 332
  %169 = add i64 %156, 40
  %170 = load i64, i64* %6, align 8
  %171 = add i64 %170, -8
  %172 = inttoptr i64 %171 to i64*
  store i64 %169, i64* %172, align 8
  store i64 %171, i64* %6, align 8
  store i64 %168, i64* %3, align 8
  %call2_400ea7 = tail call %struct.Memory* @sub_400fd0._Z4fillIPiiEvT_S1_T0_(%struct.State* %0, i64 %168, %struct.Memory* %MEMORY.1)
  %173 = load i64, i64* %3, align 8
  store i64 ptrtoint (%G__0x62bac0_type* @G__0x62bac0 to i64), i64* %RDI.i85.pre-phi, align 8
  store i64 ptrtoint (%G__0x4166ea_type* @G__0x4166ea to i64), i64* %RSI.i123, align 8
  %174 = add i64 %173, 356
  %175 = add i64 %173, 25
  %176 = load i64, i64* %6, align 8
  %177 = add i64 %176, -8
  %178 = inttoptr i64 %177 to i64*
  store i64 %175, i64* %178, align 8
  store i64 %177, i64* %6, align 8
  store i64 %174, i64* %3, align 8
  %call2_400ec0 = tail call %struct.Memory* @sub_401010._ZN14for_loop_testsILi32EiE7do_testEPKiPKc(%struct.State* %0, i64 %174, %struct.Memory* %call2_400ea7)
  %179 = load i64, i64* %3, align 8
  store i64 ptrtoint (%G__0x62bac0_type* @G__0x62bac0 to i64), i64* %RDI.i85.pre-phi, align 8
  store i64 ptrtoint (%G__0x416702_type* @G__0x416702 to i64), i64* %RSI.i123, align 8
  %180 = add i64 %179, 411
  %181 = add i64 %179, 25
  %182 = load i64, i64* %6, align 8
  %183 = add i64 %182, -8
  %184 = inttoptr i64 %183 to i64*
  store i64 %181, i64* %184, align 8
  store i64 %183, i64* %6, align 8
  store i64 %180, i64* %3, align 8
  %call2_400ed9 = tail call %struct.Memory* @sub_401060._ZN16while_loop_testsILi32EiE7do_testEPKiPKc(%struct.State* %0, i64 %180, %struct.Memory* %call2_400ec0)
  %185 = load i64, i64* %3, align 8
  store i64 ptrtoint (%G__0x62bac0_type* @G__0x62bac0 to i64), i64* %RDI.i85.pre-phi, align 8
  store i64 ptrtoint (%G__0x41671c_type* @G__0x41671c to i64), i64* %RSI.i123, align 8
  %186 = add i64 %185, 466
  %187 = add i64 %185, 25
  %188 = load i64, i64* %6, align 8
  %189 = add i64 %188, -8
  %190 = inttoptr i64 %189 to i64*
  store i64 %187, i64* %190, align 8
  store i64 %189, i64* %6, align 8
  store i64 %186, i64* %3, align 8
  %call2_400ef2 = tail call %struct.Memory* @sub_4010b0._ZN13do_loop_testsILi32EiE7do_testEPKiPKc(%struct.State* %0, i64 %186, %struct.Memory* %call2_400ed9)
  %191 = load i64, i64* %3, align 8
  store i64 ptrtoint (%G__0x62bac0_type* @G__0x62bac0 to i64), i64* %RDI.i85.pre-phi, align 8
  store i64 ptrtoint (%G__0x416733_type* @G__0x416733 to i64), i64* %RSI.i123, align 8
  %192 = add i64 %191, 521
  %193 = add i64 %191, 25
  %194 = load i64, i64* %6, align 8
  %195 = add i64 %194, -8
  %196 = inttoptr i64 %195 to i64*
  store i64 %193, i64* %196, align 8
  store i64 %195, i64* %6, align 8
  store i64 %192, i64* %3, align 8
  %call2_400f0b = tail call %struct.Memory* @sub_401100._ZN15goto_loop_testsILi32EiE7do_testEPKiPKc(%struct.State* %0, i64 %192, %struct.Memory* %call2_400ef2)
  %197 = load i64, i64* %3, align 8
  store i64 add (i64 ptrtoint (%G__0x61c0c0_type* @G__0x61c0c0 to i64), i64 64000), i64* %RCX.i92, align 8
  store i8 zext (i1 or (i1 icmp ult (i64 add (i64 ptrtoint (%G__0x61c0c0_type* @G__0x61c0c0 to i64), i64 64000), i64 ptrtoint (%G__0x61c0c0_type* @G__0x61c0c0 to i64)), i1 icmp ult (i64 add (i64 ptrtoint (%G__0x61c0c0_type* @G__0x61c0c0 to i64), i64 64000), i64 64000)) to i8), i8* %14, align 1
  %198 = tail call i32 @llvm.ctpop.i32(i32 and (i32 trunc (i64 add (i64 ptrtoint (%G__0x61c0c0_type* @G__0x61c0c0 to i64), i64 64000) to i32), i32 255))
  %199 = trunc i32 %198 to i8
  %200 = and i8 %199, 1
  %201 = xor i8 %200, 1
  store i8 %201, i8* %21, align 1
  store i8 and (i8 trunc (i64 lshr (i64 xor (i64 xor (i64 ptrtoint (%G__0x61c0c0_type* @G__0x61c0c0 to i64), i64 64000), i64 add (i64 ptrtoint (%G__0x61c0c0_type* @G__0x61c0c0 to i64), i64 64000)), i64 4) to i8), i8 1), i8* %26, align 1
  store i8 zext (i1 icmp eq (i64 add (i64 ptrtoint (%G__0x61c0c0_type* @G__0x61c0c0 to i64), i64 64000), i64 0) to i8), i8* %29, align 1
  store i8 trunc (i64 lshr (i64 add (i64 ptrtoint (%G__0x61c0c0_type* @G__0x61c0c0 to i64), i64 64000), i64 63) to i8), i8* %32, align 1
  store i8 zext (i1 icmp eq (i64 add (i64 xor (i64 lshr (i64 add (i64 ptrtoint (%G__0x61c0c0_type* @G__0x61c0c0 to i64), i64 64000), i64 63), i64 lshr (i64 ptrtoint (%G__0x61c0c0_type* @G__0x61c0c0 to i64), i64 63)), i64 lshr (i64 add (i64 ptrtoint (%G__0x61c0c0_type* @G__0x61c0c0 to i64), i64 64000), i64 63)), i64 2) to i8), i8* %38, align 1
  store i64 4, i64* %RDX.i87, align 8
  %202 = getelementptr inbounds %struct.State, %struct.State* %0, i64 0, i32 6, i32 17, i32 0
  %R8D.i50 = bitcast %union.anon* %202 to i32*
  %203 = getelementptr inbounds %union.anon, %union.anon* %202, i64 0, i32 0
  %204 = load i32, i32* bitcast (%G_0x61c078_type* @G_0x61c078 to i32*), align 8
  %205 = zext i32 %204 to i64
  store i64 %205, i64* %203, align 8
  %206 = load i64, i64* %RBP.i, align 8
  %207 = add i64 %206, -24
  %208 = add i64 %197, 37
  store i64 %208, i64* %3, align 8
  %209 = inttoptr i64 %207 to i64*
  store i64 ptrtoint (%G__0x61c0c0_type* @G__0x61c0c0 to i64), i64* %209, align 8
  %210 = load i32, i32* %R8D.i50, align 4
  %211 = zext i32 %210 to i64
  %212 = load i64, i64* %3, align 8
  store i64 %211, i64* %RAX.i94.pre-phi, align 8
  %EDX.i = bitcast %union.anon* %161 to i32*
  %213 = load i64, i64* %RBP.i, align 8
  %214 = add i64 %213, -28
  %215 = load i32, i32* %EDX.i, align 4
  %216 = add i64 %212, 6
  store i64 %216, i64* %3, align 8
  %217 = inttoptr i64 %214 to i32*
  store i32 %215, i32* %217, align 4
  %218 = load i64, i64* %3, align 8
  %219 = getelementptr inbounds %struct.State, %struct.State* %0, i64 0, i32 6, i32 7, i32 0, i32 0
  %220 = getelementptr inbounds %struct.State, %struct.State* %0, i64 0, i32 6, i32 1, i32 0
  %221 = bitcast %union.anon* %220 to i32*
  %222 = load i32, i32* %221, align 8
  %223 = sext i32 %222 to i64
  %224 = lshr i64 %223, 32
  store i64 %224, i64* %219, align 8
  %225 = load i64, i64* %RBP.i, align 8
  %226 = add i64 %225, -28
  %227 = add i64 %218, 5
  store i64 %227, i64* %3, align 8
  %228 = inttoptr i64 %226 to i32*
  %229 = load i32, i32* %228, align 4
  %230 = zext i32 %229 to i64
  store i64 %230, i64* %203, align 8
  %231 = add i64 %218, 8
  store i64 %231, i64* %3, align 8
  %232 = zext i32 %222 to i64
  %233 = sext i32 %229 to i64
  %234 = shl nuw i64 %224, 32
  %235 = or i64 %234, %232
  %236 = sdiv i64 %235, %233
  %237 = shl i64 %236, 32
  %238 = ashr exact i64 %237, 32
  %239 = icmp eq i64 %236, %238
  br i1 %239, label %242, label %240

; <label>:240:                                    ; preds = %block_.L_400e84
  %241 = tail call %struct.Memory* @__remill_error(%struct.State* nonnull dereferenceable(3376) %0, i64 %231, %struct.Memory* %call2_400f0b)
  %EAX.i32.phi.trans.insert = bitcast %union.anon* %.pre-phi7 to i32*
  %.pre2 = load i32, i32* %EAX.i32.phi.trans.insert, align 4
  %.pre3 = load i64, i64* %3, align 8
  %.pre4 = load i64, i64* %RBP.i, align 8
  br label %routine_idivl__r8d.exit

; <label>:242:                                    ; preds = %block_.L_400e84
  %243 = srem i64 %235, %233
  %244 = getelementptr inbounds %union.anon, %union.anon* %220, i64 0, i32 0
  %245 = and i64 %236, 4294967295
  store i64 %245, i64* %244, align 8
  %246 = and i64 %243, 4294967295
  store i64 %246, i64* %219, align 8
  store i8 0, i8* %14, align 1
  store i8 0, i8* %21, align 1
  store i8 0, i8* %26, align 1
  store i8 0, i8* %29, align 1
  store i8 0, i8* %32, align 1
  store i8 0, i8* %38, align 1
  %247 = trunc i64 %236 to i32
  br label %routine_idivl__r8d.exit

routine_idivl__r8d.exit:                          ; preds = %242, %240
  %248 = phi i64 [ %.pre4, %240 ], [ %225, %242 ]
  %249 = phi i64 [ %.pre3, %240 ], [ %231, %242 ]
  %250 = phi i32 [ %.pre2, %240 ], [ %247, %242 ]
  %251 = phi %struct.Memory* [ %241, %240 ], [ %call2_400f0b, %242 ]
  store i32 %250, i32* bitcast (%G_0x61c078_type* @G_0x61c078 to i32*), align 8
  %252 = load i64, i64* bitcast (%G_0x61c080_type* @G_0x61c080 to i64*), align 8
  %253 = getelementptr inbounds %struct.State, %struct.State* %0, i64 0, i32 1, i64 0, i32 0, i32 0, i32 0, i64 0
  store i64 %252, i64* %253, align 1
  %254 = getelementptr inbounds %struct.State, %struct.State* %0, i64 0, i32 1, i64 0, i32 0, i32 0, i32 0, i64 1
  %255 = bitcast i64* %254 to double*
  store double 0.000000e+00, double* %255, align 1
  %256 = add i64 %248, -24
  %257 = add i64 %249, 20
  store i64 %257, i64* %3, align 8
  %258 = inttoptr i64 %256 to i64*
  %259 = load i64, i64* %258, align 8
  store i64 %259, i64* %RDI.i85.pre-phi, align 8
  %260 = load i64, i64* %RCX.i92, align 8
  store i64 %260, i64* %RSI.i123, align 8
  %261 = add i64 %249, 525
  %262 = add i64 %249, 28
  %263 = load i64, i64* %6, align 8
  %264 = add i64 %263, -8
  %265 = inttoptr i64 %264 to i64*
  store i64 %262, i64* %265, align 8
  store i64 %264, i64* %6, align 8
  store i64 %261, i64* %3, align 8
  %call2_400f5a = tail call %struct.Memory* @sub_401150._Z4fillIPddEvT_S1_T0_(%struct.State* %0, i64 %261, %struct.Memory* %251)
  %266 = load i64, i64* %3, align 8
  store i64 ptrtoint (%G__0x61c0c0_type* @G__0x61c0c0 to i64), i64* %RDI.i85.pre-phi, align 8
  store i64 ptrtoint (%G__0x41674c_type* @G__0x41674c to i64), i64* %RSI.i123, align 8
  %267 = add i64 %266, 561
  %268 = add i64 %266, 25
  %269 = load i64, i64* %6, align 8
  %270 = add i64 %269, -8
  %271 = inttoptr i64 %270 to i64*
  store i64 %268, i64* %271, align 8
  store i64 %270, i64* %6, align 8
  store i64 %267, i64* %3, align 8
  %call2_400f73 = tail call %struct.Memory* @sub_401190._ZN14for_loop_testsILi32EdE7do_testEPKdPKc(%struct.State* %0, i64 %267, %struct.Memory* %call2_400f5a)
  %272 = load i64, i64* %3, align 8
  store i64 ptrtoint (%G__0x61c0c0_type* @G__0x61c0c0 to i64), i64* %RDI.i85.pre-phi, align 8
  store i64 ptrtoint (%G__0x416763_type* @G__0x416763 to i64), i64* %RSI.i123, align 8
  %273 = add i64 %272, 616
  %274 = add i64 %272, 25
  %275 = load i64, i64* %6, align 8
  %276 = add i64 %275, -8
  %277 = inttoptr i64 %276 to i64*
  store i64 %274, i64* %277, align 8
  store i64 %276, i64* %6, align 8
  store i64 %273, i64* %3, align 8
  %call2_400f8c = tail call %struct.Memory* @sub_4011e0._ZN16while_loop_testsILi32EdE7do_testEPKdPKc(%struct.State* %0, i64 %273, %struct.Memory* %call2_400f73)
  %278 = load i64, i64* %3, align 8
  store i64 ptrtoint (%G__0x61c0c0_type* @G__0x61c0c0 to i64), i64* %RDI.i85.pre-phi, align 8
  store i64 ptrtoint (%G__0x41677c_type* @G__0x41677c to i64), i64* %RSI.i123, align 8
  %279 = add i64 %278, 671
  %280 = add i64 %278, 25
  %281 = load i64, i64* %6, align 8
  %282 = add i64 %281, -8
  %283 = inttoptr i64 %282 to i64*
  store i64 %280, i64* %283, align 8
  store i64 %282, i64* %6, align 8
  store i64 %279, i64* %3, align 8
  %call2_400fa5 = tail call %struct.Memory* @sub_401230._ZN13do_loop_testsILi32EdE7do_testEPKdPKc(%struct.State* %0, i64 %279, %struct.Memory* %call2_400f8c)
  %284 = load i64, i64* %3, align 8
  store i64 ptrtoint (%G__0x61c0c0_type* @G__0x61c0c0 to i64), i64* %RDI.i85.pre-phi, align 8
  store i64 ptrtoint (%G__0x416792_type* @G__0x416792 to i64), i64* %RSI.i123, align 8
  %285 = add i64 %284, 726
  %286 = add i64 %284, 25
  %287 = load i64, i64* %6, align 8
  %288 = add i64 %287, -8
  %289 = inttoptr i64 %288 to i64*
  store i64 %286, i64* %289, align 8
  store i64 %288, i64* %6, align 8
  store i64 %285, i64* %3, align 8
  %call2_400fbe = tail call %struct.Memory* @sub_401280._ZN15goto_loop_testsILi32EdE7do_testEPKdPKc(%struct.State* %0, i64 %285, %struct.Memory* %call2_400fa5)
  %290 = load i64, i64* %3, align 8
  store i64 0, i64* %RAX.i94.pre-phi, align 8
  %291 = load i64, i64* %6, align 8
  %292 = add i64 %291, 32
  store i64 %292, i64* %6, align 8
  %293 = icmp ugt i64 %291, -33
  %294 = zext i1 %293 to i8
  store i8 %294, i8* %14, align 1
  %295 = trunc i64 %292 to i32
  %296 = and i32 %295, 255
  %297 = tail call i32 @llvm.ctpop.i32(i32 %296)
  %298 = trunc i32 %297 to i8
  %299 = and i8 %298, 1
  %300 = xor i8 %299, 1
  store i8 %300, i8* %21, align 1
  %301 = xor i64 %291, %292
  %302 = lshr i64 %301, 4
  %303 = trunc i64 %302 to i8
  %304 = and i8 %303, 1
  store i8 %304, i8* %26, align 1
  %305 = icmp eq i64 %292, 0
  %306 = zext i1 %305 to i8
  store i8 %306, i8* %29, align 1
  %307 = lshr i64 %292, 63
  %308 = trunc i64 %307 to i8
  store i8 %308, i8* %32, align 1
  %309 = lshr i64 %291, 63
  %310 = xor i64 %307, %309
  %311 = add nuw nsw i64 %310, %307
  %312 = icmp eq i64 %311, 2
  %313 = zext i1 %312 to i8
  store i8 %313, i8* %38, align 1
  %314 = add i64 %290, 7
  store i64 %314, i64* %3, align 8
  %315 = add i64 %291, 40
  %316 = inttoptr i64 %292 to i64*
  %317 = load i64, i64* %316, align 8
  store i64 %317, i64* %RBP.i, align 8
  store i64 %315, i64* %6, align 8
  %318 = add i64 %290, 8
  store i64 %318, i64* %3, align 8
  %319 = inttoptr i64 %315 to i64*
  %320 = load i64, i64* %319, align 8
  store i64 %320, i64* %3, align 8
  %321 = add i64 %291, 48
  store i64 %321, i64* %6, align 8
  ret %struct.Memory* %call2_400fbe
}

define %struct.Memory* @routine_pushq__rbp(%struct.State* dereferenceable(3376), i64, %struct.Memory*) local_unnamed_addr {
block_400478:
  %PC = getelementptr inbounds %struct.State, %struct.State* %0, i64 0, i32 6, i32 33, i32 0, i32 0
  %RBP = getelementptr inbounds %struct.State, %struct.State* %0, i64 0, i32 6, i32 15, i32 0, i32 0
  %3 = load i64, i64* %RBP, align 8
  %4 = load i64, i64* %PC, align 8
  %5 = add i64 %4, 1
  store i64 %5, i64* %PC, align 8
  %6 = getelementptr inbounds %struct.State, %struct.State* %0, i64 0, i32 6, i32 13, i32 0, i32 0
  %7 = load i64, i64* %6, align 8
  %8 = add i64 %7, -8
  %9 = inttoptr i64 %8 to i64*
  store i64 %3, i64* %9, align 8
  store i64 %8, i64* %6, align 8
  ret %struct.Memory* %2
}

define %struct.Memory* @routine_movq__rsp___rbp(%struct.State* dereferenceable(3376), i64, %struct.Memory*) local_unnamed_addr {
block_400478:
  %PC = getelementptr inbounds %struct.State, %struct.State* %0, i64 0, i32 6, i32 33, i32 0, i32 0
  %RSP = getelementptr inbounds %struct.State, %struct.State* %0, i64 0, i32 6, i32 13, i32 0, i32 0
  %RBP = getelementptr inbounds %struct.State, %struct.State* %0, i64 0, i32 6, i32 15, i32 0, i32 0
  %3 = load i64, i64* %RSP, align 8
  %4 = load i64, i64* %PC, align 8
  %5 = add i64 %4, 3
  store i64 %5, i64* %PC, align 8
  store i64 %3, i64* %RBP, align 8
  ret %struct.Memory* %2
}

define %struct.Memory* @routine_subq__0x20___rsp(%struct.State* dereferenceable(3376), i64, %struct.Memory*) local_unnamed_addr {
block_400478:
  %PC = getelementptr inbounds %struct.State, %struct.State* %0, i64 0, i32 6, i32 33, i32 0, i32 0
  %RSP = getelementptr inbounds %struct.State, %struct.State* %0, i64 0, i32 6, i32 13, i32 0, i32 0
  %3 = load i64, i64* %RSP, align 8
  %4 = load i64, i64* %PC, align 8
  %5 = add i64 %4, 4
  store i64 %5, i64* %PC, align 8
  %6 = add i64 %3, -32
  store i64 %6, i64* %RSP, align 8
  %7 = icmp ult i64 %3, 32
  %8 = zext i1 %7 to i8
  %9 = getelementptr inbounds %struct.State, %struct.State* %0, i64 0, i32 2, i32 1
  store i8 %8, i8* %9, align 1
  %10 = trunc i64 %6 to i32
  %11 = and i32 %10, 255
  %12 = tail call i32 @llvm.ctpop.i32(i32 %11)
  %13 = trunc i32 %12 to i8
  %14 = and i8 %13, 1
  %15 = xor i8 %14, 1
  %16 = getelementptr inbounds %struct.State, %struct.State* %0, i64 0, i32 2, i32 3
  store i8 %15, i8* %16, align 1
  %17 = xor i64 %3, %6
  %18 = lshr i64 %17, 4
  %19 = trunc i64 %18 to i8
  %20 = and i8 %19, 1
  %21 = getelementptr inbounds %struct.State, %struct.State* %0, i64 0, i32 2, i32 5
  store i8 %20, i8* %21, align 1
  %22 = icmp eq i64 %6, 0
  %23 = zext i1 %22 to i8
  %24 = getelementptr inbounds %struct.State, %struct.State* %0, i64 0, i32 2, i32 7
  store i8 %23, i8* %24, align 1
  %25 = lshr i64 %6, 63
  %26 = trunc i64 %25 to i8
  %27 = getelementptr inbounds %struct.State, %struct.State* %0, i64 0, i32 2, i32 9
  store i8 %26, i8* %27, align 1
  %28 = lshr i64 %3, 63
  %29 = xor i64 %25, %28
  %30 = add nuw nsw i64 %29, %28
  %31 = icmp eq i64 %30, 2
  %32 = zext i1 %31 to i8
  %33 = getelementptr inbounds %struct.State, %struct.State* %0, i64 0, i32 2, i32 13
  store i8 %32, i8* %33, align 1
  ret %struct.Memory* %2
}

define %struct.Memory* @routine_movl__0x0__MINUS0x4__rbp_(%struct.State* dereferenceable(3376), i64, %struct.Memory*) local_unnamed_addr {
block_400478:
  %PC = getelementptr inbounds %struct.State, %struct.State* %0, i64 0, i32 6, i32 33, i32 0, i32 0
  %RBP = getelementptr inbounds %struct.State, %struct.State* %0, i64 0, i32 6, i32 15, i32 0, i32 0
  %3 = load i64, i64* %RBP, align 8
  %4 = add i64 %3, -4
  %5 = load i64, i64* %PC, align 8
  %6 = add i64 %5, 7
  store i64 %6, i64* %PC, align 8
  %7 = inttoptr i64 %4 to i32*
  store i32 0, i32* %7, align 4
  ret %struct.Memory* %2
}

define %struct.Memory* @routine_movl__edi__MINUS0x8__rbp_(%struct.State* dereferenceable(3376), i64, %struct.Memory*) local_unnamed_addr {
block_400478:
  %PC = getelementptr inbounds %struct.State, %struct.State* %0, i64 0, i32 6, i32 33, i32 0, i32 0
  %3 = getelementptr inbounds %struct.State, %struct.State* %0, i64 0, i32 6, i32 11, i32 0
  %EDI = bitcast %union.anon* %3 to i32*
  %RBP = getelementptr inbounds %struct.State, %struct.State* %0, i64 0, i32 6, i32 15, i32 0, i32 0
  %4 = load i64, i64* %RBP, align 8
  %5 = add i64 %4, -8
  %6 = load i32, i32* %EDI, align 4
  %7 = load i64, i64* %PC, align 8
  %8 = add i64 %7, 3
  store i64 %8, i64* %PC, align 8
  %9 = inttoptr i64 %5 to i32*
  store i32 %6, i32* %9, align 4
  ret %struct.Memory* %2
}

define %struct.Memory* @routine_movq__rsi__MINUS0x10__rbp_(%struct.State* dereferenceable(3376), i64, %struct.Memory*) local_unnamed_addr {
block_400478:
  %PC = getelementptr inbounds %struct.State, %struct.State* %0, i64 0, i32 6, i32 33, i32 0, i32 0
  %RSI = getelementptr inbounds %struct.State, %struct.State* %0, i64 0, i32 6, i32 9, i32 0, i32 0
  %RBP = getelementptr inbounds %struct.State, %struct.State* %0, i64 0, i32 6, i32 15, i32 0, i32 0
  %3 = load i64, i64* %RBP, align 8
  %4 = add i64 %3, -16
  %5 = load i64, i64* %RSI, align 8
  %6 = load i64, i64* %PC, align 8
  %7 = add i64 %6, 4
  store i64 %7, i64* %PC, align 8
  %8 = inttoptr i64 %4 to i64*
  store i64 %5, i64* %8, align 8
  ret %struct.Memory* %2
}

define %struct.Memory* @routine_cmpl__0x1__MINUS0x8__rbp_(%struct.State* dereferenceable(3376), i64, %struct.Memory*) local_unnamed_addr {
block_400478:
  %PC = getelementptr inbounds %struct.State, %struct.State* %0, i64 0, i32 6, i32 33, i32 0, i32 0
  %RBP = getelementptr inbounds %struct.State, %struct.State* %0, i64 0, i32 6, i32 15, i32 0, i32 0
  %3 = load i64, i64* %RBP, align 8
  %4 = add i64 %3, -8
  %5 = load i64, i64* %PC, align 8
  %6 = add i64 %5, 4
  store i64 %6, i64* %PC, align 8
  %7 = inttoptr i64 %4 to i32*
  %8 = load i32, i32* %7, align 4
  %9 = add i32 %8, -1
  %10 = icmp eq i32 %8, 0
  %11 = zext i1 %10 to i8
  %12 = getelementptr inbounds %struct.State, %struct.State* %0, i64 0, i32 2, i32 1
  store i8 %11, i8* %12, align 1
  %13 = and i32 %9, 255
  %14 = tail call i32 @llvm.ctpop.i32(i32 %13)
  %15 = trunc i32 %14 to i8
  %16 = and i8 %15, 1
  %17 = xor i8 %16, 1
  %18 = getelementptr inbounds %struct.State, %struct.State* %0, i64 0, i32 2, i32 3
  store i8 %17, i8* %18, align 1
  %19 = xor i32 %8, %9
  %20 = lshr i32 %19, 4
  %21 = trunc i32 %20 to i8
  %22 = and i8 %21, 1
  %23 = getelementptr inbounds %struct.State, %struct.State* %0, i64 0, i32 2, i32 5
  store i8 %22, i8* %23, align 1
  %24 = icmp eq i32 %9, 0
  %25 = zext i1 %24 to i8
  %26 = getelementptr inbounds %struct.State, %struct.State* %0, i64 0, i32 2, i32 7
  store i8 %25, i8* %26, align 1
  %27 = lshr i32 %9, 31
  %28 = trunc i32 %27 to i8
  %29 = getelementptr inbounds %struct.State, %struct.State* %0, i64 0, i32 2, i32 9
  store i8 %28, i8* %29, align 1
  %30 = lshr i32 %8, 31
  %31 = xor i32 %27, %30
  %32 = add nuw nsw i32 %31, %30
  %33 = icmp eq i32 %32, 2
  %34 = zext i1 %33 to i8
  %35 = getelementptr inbounds %struct.State, %struct.State* %0, i64 0, i32 2, i32 13
  store i8 %34, i8* %35, align 1
  ret %struct.Memory* %2
}

define %struct.Memory* @routine_jle_.L_400e64(%struct.State* dereferenceable(3376), i64, %struct.Memory*, i8* %BRANCH_TAKEN, i64 %rel_off1, i64 %rel_off2, i64 %rel_off3) local_unnamed_addr {
block_400478:
  %PC = getelementptr inbounds %struct.State, %struct.State* %0, i64 0, i32 6, i32 33, i32 0, i32 0
  %3 = load i64, i64* %PC, align 8
  %4 = getelementptr inbounds %struct.State, %struct.State* %0, i64 0, i32 2, i32 7
  %5 = load i8, i8* %4, align 1
  %6 = icmp ne i8 %5, 0
  %7 = getelementptr inbounds %struct.State, %struct.State* %0, i64 0, i32 2, i32 9
  %8 = load i8, i8* %7, align 1
  %9 = icmp ne i8 %8, 0
  %10 = getelementptr inbounds %struct.State, %struct.State* %0, i64 0, i32 2, i32 13
  %11 = load i8, i8* %10, align 1
  %12 = icmp ne i8 %11, 0
  %13 = xor i1 %9, %12
  %14 = or i1 %6, %13
  %15 = zext i1 %14 to i8
  store i8 %15, i8* %BRANCH_TAKEN, align 1
  %.v = select i1 %14, i64 %rel_off1, i64 %rel_off2
  %16 = add i64 %3, %.v
  store i64 %16, i64* %PC, align 8
  ret %struct.Memory* %2
}

define %struct.Memory* @routine_movq_MINUS0x10__rbp____rax(%struct.State* dereferenceable(3376), i64, %struct.Memory*) local_unnamed_addr {
block_400478:
  %PC = getelementptr inbounds %struct.State, %struct.State* %0, i64 0, i32 6, i32 33, i32 0, i32 0
  %RAX = getelementptr inbounds %struct.State, %struct.State* %0, i64 0, i32 6, i32 1, i32 0, i32 0
  %RBP = getelementptr inbounds %struct.State, %struct.State* %0, i64 0, i32 6, i32 15, i32 0, i32 0
  %3 = load i64, i64* %RBP, align 8
  %4 = add i64 %3, -16
  %5 = load i64, i64* %PC, align 8
  %6 = add i64 %5, 4
  store i64 %6, i64* %PC, align 8
  %7 = inttoptr i64 %4 to i64*
  %8 = load i64, i64* %7, align 8
  store i64 %8, i64* %RAX, align 8
  ret %struct.Memory* %2
}

define %struct.Memory* @routine_movq_0x8__rax____rdi(%struct.State* dereferenceable(3376), i64, %struct.Memory*) local_unnamed_addr {
block_400478:
  %PC = getelementptr inbounds %struct.State, %struct.State* %0, i64 0, i32 6, i32 33, i32 0, i32 0
  %RAX = getelementptr inbounds %struct.State, %struct.State* %0, i64 0, i32 6, i32 1, i32 0, i32 0
  %RDI = getelementptr inbounds %struct.State, %struct.State* %0, i64 0, i32 6, i32 11, i32 0, i32 0
  %3 = load i64, i64* %RAX, align 8
  %4 = add i64 %3, 8
  %5 = load i64, i64* %PC, align 8
  %6 = add i64 %5, 4
  store i64 %6, i64* %PC, align 8
  %7 = inttoptr i64 %4 to i64*
  %8 = load i64, i64* %7, align 8
  store i64 %8, i64* %RDI, align 8
  ret %struct.Memory* %2
}

define %struct.Memory* @routine_callq_.atoi_plt(%struct.State* dereferenceable(3376), i64, %struct.Memory*, i64 %rel_off1, i64 %rel_off2, i64 %rel_off3) local_unnamed_addr {
block_400478:
  %PC = getelementptr inbounds %struct.State, %struct.State* %0, i64 0, i32 6, i32 33, i32 0, i32 0
  %3 = load i64, i64* %PC, align 8
  %4 = add i64 %3, %rel_off1
  %5 = add i64 %3, %rel_off2
  %6 = getelementptr inbounds %struct.State, %struct.State* %0, i64 0, i32 6, i32 13, i32 0, i32 0
  %7 = load i64, i64* %6, align 8
  %8 = add i64 %7, -8
  %9 = inttoptr i64 %8 to i64*
  store i64 %5, i64* %9, align 8
  store i64 %8, i64* %6, align 8
  store i64 %4, i64* %PC, align 8
  ret %struct.Memory* %2
}

define %struct.Memory* @routine_movl__eax__0x61c078(%struct.State* dereferenceable(3376), i64, %struct.Memory*) local_unnamed_addr {
block_400478:
  %PC = getelementptr inbounds %struct.State, %struct.State* %0, i64 0, i32 6, i32 33, i32 0, i32 0
  %3 = getelementptr inbounds %struct.State, %struct.State* %0, i64 0, i32 6, i32 1, i32 0
  %EAX = bitcast %union.anon* %3 to i32*
  %4 = load i32, i32* %EAX, align 4
  %5 = load i64, i64* %PC, align 8
  %6 = add i64 %5, 7
  store i64 %6, i64* %PC, align 8
  store i32 %4, i32* bitcast (%G_0x61c078_type* @G_0x61c078 to i32*), align 8
  ret %struct.Memory* %2
}

define %struct.Memory* @routine_cmpl__0x2__MINUS0x8__rbp_(%struct.State* dereferenceable(3376), i64, %struct.Memory*) local_unnamed_addr {
block_400478:
  %PC = getelementptr inbounds %struct.State, %struct.State* %0, i64 0, i32 6, i32 33, i32 0, i32 0
  %RBP = getelementptr inbounds %struct.State, %struct.State* %0, i64 0, i32 6, i32 15, i32 0, i32 0
  %3 = load i64, i64* %RBP, align 8
  %4 = add i64 %3, -8
  %5 = load i64, i64* %PC, align 8
  %6 = add i64 %5, 4
  store i64 %6, i64* %PC, align 8
  %7 = inttoptr i64 %4 to i32*
  %8 = load i32, i32* %7, align 4
  %9 = add i32 %8, -2
  %10 = icmp ult i32 %8, 2
  %11 = zext i1 %10 to i8
  %12 = getelementptr inbounds %struct.State, %struct.State* %0, i64 0, i32 2, i32 1
  store i8 %11, i8* %12, align 1
  %13 = and i32 %9, 255
  %14 = tail call i32 @llvm.ctpop.i32(i32 %13)
  %15 = trunc i32 %14 to i8
  %16 = and i8 %15, 1
  %17 = xor i8 %16, 1
  %18 = getelementptr inbounds %struct.State, %struct.State* %0, i64 0, i32 2, i32 3
  store i8 %17, i8* %18, align 1
  %19 = xor i32 %8, %9
  %20 = lshr i32 %19, 4
  %21 = trunc i32 %20 to i8
  %22 = and i8 %21, 1
  %23 = getelementptr inbounds %struct.State, %struct.State* %0, i64 0, i32 2, i32 5
  store i8 %22, i8* %23, align 1
  %24 = icmp eq i32 %9, 0
  %25 = zext i1 %24 to i8
  %26 = getelementptr inbounds %struct.State, %struct.State* %0, i64 0, i32 2, i32 7
  store i8 %25, i8* %26, align 1
  %27 = lshr i32 %9, 31
  %28 = trunc i32 %27 to i8
  %29 = getelementptr inbounds %struct.State, %struct.State* %0, i64 0, i32 2, i32 9
  store i8 %28, i8* %29, align 1
  %30 = lshr i32 %8, 31
  %31 = xor i32 %27, %30
  %32 = add nuw nsw i32 %31, %30
  %33 = icmp eq i32 %32, 2
  %34 = zext i1 %33 to i8
  %35 = getelementptr inbounds %struct.State, %struct.State* %0, i64 0, i32 2, i32 13
  store i8 %34, i8* %35, align 1
  ret %struct.Memory* %2
}

define %struct.Memory* @routine_jle_.L_400e84(%struct.State* dereferenceable(3376), i64, %struct.Memory*, i8* %BRANCH_TAKEN, i64 %rel_off1, i64 %rel_off2, i64 %rel_off3) local_unnamed_addr {
block_400478:
  %PC = getelementptr inbounds %struct.State, %struct.State* %0, i64 0, i32 6, i32 33, i32 0, i32 0
  %3 = load i64, i64* %PC, align 8
  %4 = getelementptr inbounds %struct.State, %struct.State* %0, i64 0, i32 2, i32 7
  %5 = load i8, i8* %4, align 1
  %6 = icmp ne i8 %5, 0
  %7 = getelementptr inbounds %struct.State, %struct.State* %0, i64 0, i32 2, i32 9
  %8 = load i8, i8* %7, align 1
  %9 = icmp ne i8 %8, 0
  %10 = getelementptr inbounds %struct.State, %struct.State* %0, i64 0, i32 2, i32 13
  %11 = load i8, i8* %10, align 1
  %12 = icmp ne i8 %11, 0
  %13 = xor i1 %9, %12
  %14 = or i1 %6, %13
  %15 = zext i1 %14 to i8
  store i8 %15, i8* %BRANCH_TAKEN, align 1
  %.v = select i1 %14, i64 %rel_off1, i64 %rel_off2
  %16 = add i64 %3, %.v
  store i64 %16, i64* %PC, align 8
  ret %struct.Memory* %2
}

define %struct.Memory* @routine_movq_0x10__rax____rdi(%struct.State* dereferenceable(3376), i64, %struct.Memory*) local_unnamed_addr {
block_400478:
  %PC = getelementptr inbounds %struct.State, %struct.State* %0, i64 0, i32 6, i32 33, i32 0, i32 0
  %RAX = getelementptr inbounds %struct.State, %struct.State* %0, i64 0, i32 6, i32 1, i32 0, i32 0
  %RDI = getelementptr inbounds %struct.State, %struct.State* %0, i64 0, i32 6, i32 11, i32 0, i32 0
  %3 = load i64, i64* %RAX, align 8
  %4 = add i64 %3, 16
  %5 = load i64, i64* %PC, align 8
  %6 = add i64 %5, 4
  store i64 %6, i64* %PC, align 8
  %7 = inttoptr i64 %4 to i64*
  %8 = load i64, i64* %7, align 8
  store i64 %8, i64* %RDI, align 8
  ret %struct.Memory* %2
}

define %struct.Memory* @routine_callq_.atof_plt(%struct.State* dereferenceable(3376), i64, %struct.Memory*, i64 %rel_off1, i64 %rel_off2, i64 %rel_off3) local_unnamed_addr {
block_400478:
  %PC = getelementptr inbounds %struct.State, %struct.State* %0, i64 0, i32 6, i32 33, i32 0, i32 0
  %3 = load i64, i64* %PC, align 8
  %4 = add i64 %3, %rel_off1
  %5 = add i64 %3, %rel_off2
  %6 = getelementptr inbounds %struct.State, %struct.State* %0, i64 0, i32 6, i32 13, i32 0, i32 0
  %7 = load i64, i64* %6, align 8
  %8 = add i64 %7, -8
  %9 = inttoptr i64 %8 to i64*
  store i64 %5, i64* %9, align 8
  store i64 %8, i64* %6, align 8
  store i64 %4, i64* %PC, align 8
  ret %struct.Memory* %2
}

define %struct.Memory* @routine_movsd__xmm0__0x61c080(%struct.State* dereferenceable(3376), i64, %struct.Memory*) local_unnamed_addr {
block_400478:
  %PC = getelementptr inbounds %struct.State, %struct.State* %0, i64 0, i32 6, i32 33, i32 0, i32 0
  %3 = load i64, i64* %PC, align 8
  %4 = add i64 %3, 9
  store i64 %4, i64* %PC, align 8
  %5 = getelementptr inbounds %struct.State, %struct.State* %0, i64 0, i32 1, i64 0, i32 0, i32 0, i32 0, i64 0
  %6 = load i64, i64* %5, align 1
  store i64 %6, i64* bitcast (%G_0x61c080_type* @G_0x61c080 to i64*), align 8
  ret %struct.Memory* %2
}

define %struct.Memory* @routine_movq__0x62bac0___rax(%struct.State* dereferenceable(3376), i64, %struct.Memory*) local_unnamed_addr {
block_400478:
  %PC = getelementptr inbounds %struct.State, %struct.State* %0, i64 0, i32 6, i32 33, i32 0, i32 0
  %RAX = getelementptr inbounds %struct.State, %struct.State* %0, i64 0, i32 6, i32 1, i32 0, i32 0
  %3 = load i64, i64* %PC, align 8
  %4 = add i64 %3, 10
  store i64 %4, i64* %PC, align 8
  store i64 ptrtoint (%G__0x62bac0_type* @G__0x62bac0 to i64), i64* %RAX, align 8
  ret %struct.Memory* %2
}

define %struct.Memory* @routine_movq__rax___rcx(%struct.State* dereferenceable(3376), i64, %struct.Memory*) local_unnamed_addr {
block_400478:
  %PC = getelementptr inbounds %struct.State, %struct.State* %0, i64 0, i32 6, i32 33, i32 0, i32 0
  %RAX = getelementptr inbounds %struct.State, %struct.State* %0, i64 0, i32 6, i32 1, i32 0, i32 0
  %RCX = getelementptr inbounds %struct.State, %struct.State* %0, i64 0, i32 6, i32 5, i32 0, i32 0
  %3 = load i64, i64* %RAX, align 8
  %4 = load i64, i64* %PC, align 8
  %5 = add i64 %4, 3
  store i64 %5, i64* %PC, align 8
  store i64 %3, i64* %RCX, align 8
  ret %struct.Memory* %2
}

define %struct.Memory* @routine_addq__0x7d00___rcx(%struct.State* dereferenceable(3376), i64, %struct.Memory*) local_unnamed_addr {
block_400478:
  %PC = getelementptr inbounds %struct.State, %struct.State* %0, i64 0, i32 6, i32 33, i32 0, i32 0
  %RCX = getelementptr inbounds %struct.State, %struct.State* %0, i64 0, i32 6, i32 5, i32 0, i32 0
  %3 = load i64, i64* %RCX, align 8
  %4 = load i64, i64* %PC, align 8
  %5 = add i64 %4, 7
  store i64 %5, i64* %PC, align 8
  %6 = add i64 %3, 32000
  store i64 %6, i64* %RCX, align 8
  %7 = icmp ugt i64 %3, -32001
  %8 = zext i1 %7 to i8
  %9 = getelementptr inbounds %struct.State, %struct.State* %0, i64 0, i32 2, i32 1
  store i8 %8, i8* %9, align 1
  %10 = trunc i64 %6 to i32
  %11 = and i32 %10, 255
  %12 = tail call i32 @llvm.ctpop.i32(i32 %11)
  %13 = trunc i32 %12 to i8
  %14 = and i8 %13, 1
  %15 = xor i8 %14, 1
  %16 = getelementptr inbounds %struct.State, %struct.State* %0, i64 0, i32 2, i32 3
  store i8 %15, i8* %16, align 1
  %17 = xor i64 %3, %6
  %18 = lshr i64 %17, 4
  %19 = trunc i64 %18 to i8
  %20 = and i8 %19, 1
  %21 = getelementptr inbounds %struct.State, %struct.State* %0, i64 0, i32 2, i32 5
  store i8 %20, i8* %21, align 1
  %22 = icmp eq i64 %6, 0
  %23 = zext i1 %22 to i8
  %24 = getelementptr inbounds %struct.State, %struct.State* %0, i64 0, i32 2, i32 7
  store i8 %23, i8* %24, align 1
  %25 = lshr i64 %6, 63
  %26 = trunc i64 %25 to i8
  %27 = getelementptr inbounds %struct.State, %struct.State* %0, i64 0, i32 2, i32 9
  store i8 %26, i8* %27, align 1
  %28 = lshr i64 %3, 63
  %29 = xor i64 %25, %28
  %30 = add nuw nsw i64 %29, %25
  %31 = icmp eq i64 %30, 2
  %32 = zext i1 %31 to i8
  %33 = getelementptr inbounds %struct.State, %struct.State* %0, i64 0, i32 2, i32 13
  store i8 %32, i8* %33, align 1
  ret %struct.Memory* %2
}

define %struct.Memory* @routine_cvttsd2si_0x61c080___edx(%struct.State* dereferenceable(3376), i64, %struct.Memory*) local_unnamed_addr {
block_400478:
  %PC = getelementptr inbounds %struct.State, %struct.State* %0, i64 0, i32 6, i32 33, i32 0, i32 0
  %RDX = getelementptr inbounds %struct.State, %struct.State* %0, i64 0, i32 6, i32 7, i32 0, i32 0
  %3 = load i64, i64* %PC, align 8
  %4 = add i64 %3, 9
  store i64 %4, i64* %PC, align 8
  %5 = load double, double* bitcast (%G_0x61c080_type* @G_0x61c080 to double*), align 8
  %6 = tail call double @llvm.trunc.f64(double %5)
  %7 = tail call double @llvm.fabs.f64(double %6)
  %8 = fcmp ogt double %7, 0x41DFFFFFFFC00000
  %9 = fptosi double %6 to i32
  %10 = zext i32 %9 to i64
  %11 = select i1 %8, i64 2147483648, i64 %10
  store i64 %11, i64* %RDX, align 8
  ret %struct.Memory* %2
}

define %struct.Memory* @routine_movq__rax___rdi(%struct.State* dereferenceable(3376), i64, %struct.Memory*) local_unnamed_addr {
block_400478:
  %PC = getelementptr inbounds %struct.State, %struct.State* %0, i64 0, i32 6, i32 33, i32 0, i32 0
  %RAX = getelementptr inbounds %struct.State, %struct.State* %0, i64 0, i32 6, i32 1, i32 0, i32 0
  %RDI = getelementptr inbounds %struct.State, %struct.State* %0, i64 0, i32 6, i32 11, i32 0, i32 0
  %3 = load i64, i64* %RAX, align 8
  %4 = load i64, i64* %PC, align 8
  %5 = add i64 %4, 3
  store i64 %5, i64* %PC, align 8
  store i64 %3, i64* %RDI, align 8
  ret %struct.Memory* %2
}

define %struct.Memory* @routine_movq__rcx___rsi(%struct.State* dereferenceable(3376), i64, %struct.Memory*) local_unnamed_addr {
block_400478:
  %PC = getelementptr inbounds %struct.State, %struct.State* %0, i64 0, i32 6, i32 33, i32 0, i32 0
  %RCX = getelementptr inbounds %struct.State, %struct.State* %0, i64 0, i32 6, i32 5, i32 0, i32 0
  %RSI = getelementptr inbounds %struct.State, %struct.State* %0, i64 0, i32 6, i32 9, i32 0, i32 0
  %3 = load i64, i64* %RCX, align 8
  %4 = load i64, i64* %PC, align 8
  %5 = add i64 %4, 3
  store i64 %5, i64* %PC, align 8
  store i64 %3, i64* %RSI, align 8
  ret %struct.Memory* %2
}

define %struct.Memory* @routine_callq_._Z4fillIPiiEvT_S1_T0_(%struct.State* dereferenceable(3376), i64, %struct.Memory*, i64 %rel_off1, i64 %rel_off2, i64 %rel_off3) local_unnamed_addr {
block_400478:
  %PC = getelementptr inbounds %struct.State, %struct.State* %0, i64 0, i32 6, i32 33, i32 0, i32 0
  %3 = load i64, i64* %PC, align 8
  %4 = add i64 %3, %rel_off1
  %5 = add i64 %3, %rel_off2
  %6 = getelementptr inbounds %struct.State, %struct.State* %0, i64 0, i32 6, i32 13, i32 0, i32 0
  %7 = load i64, i64* %6, align 8
  %8 = add i64 %7, -8
  %9 = inttoptr i64 %8 to i64*
  store i64 %5, i64* %9, align 8
  store i64 %8, i64* %6, align 8
  store i64 %4, i64* %PC, align 8
  ret %struct.Memory* %2
}

define %struct.Memory* @routine_movq__0x62bac0___rdi(%struct.State* dereferenceable(3376), i64, %struct.Memory*) local_unnamed_addr {
block_400478:
  %PC = getelementptr inbounds %struct.State, %struct.State* %0, i64 0, i32 6, i32 33, i32 0, i32 0
  %RDI = getelementptr inbounds %struct.State, %struct.State* %0, i64 0, i32 6, i32 11, i32 0, i32 0
  %3 = load i64, i64* %PC, align 8
  %4 = add i64 %3, 10
  store i64 %4, i64* %PC, align 8
  store i64 ptrtoint (%G__0x62bac0_type* @G__0x62bac0 to i64), i64* %RDI, align 8
  ret %struct.Memory* %2
}

define %struct.Memory* @routine_movq__0x4166ea___rsi(%struct.State* dereferenceable(3376), i64, %struct.Memory*) local_unnamed_addr {
block_400478:
  %PC = getelementptr inbounds %struct.State, %struct.State* %0, i64 0, i32 6, i32 33, i32 0, i32 0
  %RSI = getelementptr inbounds %struct.State, %struct.State* %0, i64 0, i32 6, i32 9, i32 0, i32 0
  %3 = load i64, i64* %PC, align 8
  %4 = add i64 %3, 10
  store i64 %4, i64* %PC, align 8
  store i64 ptrtoint (%G__0x4166ea_type* @G__0x4166ea to i64), i64* %RSI, align 8
  ret %struct.Memory* %2
}

define %struct.Memory* @routine_callq_._ZN14for_loop_testsILi32EiE7do_testEPKiPKc(%struct.State* dereferenceable(3376), i64, %struct.Memory*, i64 %rel_off1, i64 %rel_off2, i64 %rel_off3) local_unnamed_addr {
block_400478:
  %PC = getelementptr inbounds %struct.State, %struct.State* %0, i64 0, i32 6, i32 33, i32 0, i32 0
  %3 = load i64, i64* %PC, align 8
  %4 = add i64 %3, %rel_off1
  %5 = add i64 %3, %rel_off2
  %6 = getelementptr inbounds %struct.State, %struct.State* %0, i64 0, i32 6, i32 13, i32 0, i32 0
  %7 = load i64, i64* %6, align 8
  %8 = add i64 %7, -8
  %9 = inttoptr i64 %8 to i64*
  store i64 %5, i64* %9, align 8
  store i64 %8, i64* %6, align 8
  store i64 %4, i64* %PC, align 8
  ret %struct.Memory* %2
}

define %struct.Memory* @routine_movq__0x416702___rsi(%struct.State* dereferenceable(3376), i64, %struct.Memory*) local_unnamed_addr {
block_400478:
  %PC = getelementptr inbounds %struct.State, %struct.State* %0, i64 0, i32 6, i32 33, i32 0, i32 0
  %RSI = getelementptr inbounds %struct.State, %struct.State* %0, i64 0, i32 6, i32 9, i32 0, i32 0
  %3 = load i64, i64* %PC, align 8
  %4 = add i64 %3, 10
  store i64 %4, i64* %PC, align 8
  store i64 ptrtoint (%G__0x416702_type* @G__0x416702 to i64), i64* %RSI, align 8
  ret %struct.Memory* %2
}

define %struct.Memory* @routine_callq_._ZN16while_loop_testsILi32EiE7do_testEPKiPKc(%struct.State* dereferenceable(3376), i64, %struct.Memory*, i64 %rel_off1, i64 %rel_off2, i64 %rel_off3) local_unnamed_addr {
block_400478:
  %PC = getelementptr inbounds %struct.State, %struct.State* %0, i64 0, i32 6, i32 33, i32 0, i32 0
  %3 = load i64, i64* %PC, align 8
  %4 = add i64 %3, %rel_off1
  %5 = add i64 %3, %rel_off2
  %6 = getelementptr inbounds %struct.State, %struct.State* %0, i64 0, i32 6, i32 13, i32 0, i32 0
  %7 = load i64, i64* %6, align 8
  %8 = add i64 %7, -8
  %9 = inttoptr i64 %8 to i64*
  store i64 %5, i64* %9, align 8
  store i64 %8, i64* %6, align 8
  store i64 %4, i64* %PC, align 8
  ret %struct.Memory* %2
}

define %struct.Memory* @routine_movq__0x41671c___rsi(%struct.State* dereferenceable(3376), i64, %struct.Memory*) local_unnamed_addr {
block_400478:
  %PC = getelementptr inbounds %struct.State, %struct.State* %0, i64 0, i32 6, i32 33, i32 0, i32 0
  %RSI = getelementptr inbounds %struct.State, %struct.State* %0, i64 0, i32 6, i32 9, i32 0, i32 0
  %3 = load i64, i64* %PC, align 8
  %4 = add i64 %3, 10
  store i64 %4, i64* %PC, align 8
  store i64 ptrtoint (%G__0x41671c_type* @G__0x41671c to i64), i64* %RSI, align 8
  ret %struct.Memory* %2
}

define %struct.Memory* @routine_callq_._ZN13do_loop_testsILi32EiE7do_testEPKiPKc(%struct.State* dereferenceable(3376), i64, %struct.Memory*, i64 %rel_off1, i64 %rel_off2, i64 %rel_off3) local_unnamed_addr {
block_400478:
  %PC = getelementptr inbounds %struct.State, %struct.State* %0, i64 0, i32 6, i32 33, i32 0, i32 0
  %3 = load i64, i64* %PC, align 8
  %4 = add i64 %3, %rel_off1
  %5 = add i64 %3, %rel_off2
  %6 = getelementptr inbounds %struct.State, %struct.State* %0, i64 0, i32 6, i32 13, i32 0, i32 0
  %7 = load i64, i64* %6, align 8
  %8 = add i64 %7, -8
  %9 = inttoptr i64 %8 to i64*
  store i64 %5, i64* %9, align 8
  store i64 %8, i64* %6, align 8
  store i64 %4, i64* %PC, align 8
  ret %struct.Memory* %2
}

define %struct.Memory* @routine_movq__0x416733___rsi(%struct.State* dereferenceable(3376), i64, %struct.Memory*) local_unnamed_addr {
block_400478:
  %PC = getelementptr inbounds %struct.State, %struct.State* %0, i64 0, i32 6, i32 33, i32 0, i32 0
  %RSI = getelementptr inbounds %struct.State, %struct.State* %0, i64 0, i32 6, i32 9, i32 0, i32 0
  %3 = load i64, i64* %PC, align 8
  %4 = add i64 %3, 10
  store i64 %4, i64* %PC, align 8
  store i64 ptrtoint (%G__0x416733_type* @G__0x416733 to i64), i64* %RSI, align 8
  ret %struct.Memory* %2
}

define %struct.Memory* @routine_callq_._ZN15goto_loop_testsILi32EiE7do_testEPKiPKc(%struct.State* dereferenceable(3376), i64, %struct.Memory*, i64 %rel_off1, i64 %rel_off2, i64 %rel_off3) local_unnamed_addr {
block_400478:
  %PC = getelementptr inbounds %struct.State, %struct.State* %0, i64 0, i32 6, i32 33, i32 0, i32 0
  %3 = load i64, i64* %PC, align 8
  %4 = add i64 %3, %rel_off1
  %5 = add i64 %3, %rel_off2
  %6 = getelementptr inbounds %struct.State, %struct.State* %0, i64 0, i32 6, i32 13, i32 0, i32 0
  %7 = load i64, i64* %6, align 8
  %8 = add i64 %7, -8
  %9 = inttoptr i64 %8 to i64*
  store i64 %5, i64* %9, align 8
  store i64 %8, i64* %6, align 8
  store i64 %4, i64* %PC, align 8
  ret %struct.Memory* %2
}

define %struct.Memory* @routine_movq__0x61c0c0___rax(%struct.State* dereferenceable(3376), i64, %struct.Memory*) local_unnamed_addr {
block_400478:
  %PC = getelementptr inbounds %struct.State, %struct.State* %0, i64 0, i32 6, i32 33, i32 0, i32 0
  %RAX = getelementptr inbounds %struct.State, %struct.State* %0, i64 0, i32 6, i32 1, i32 0, i32 0
  %3 = load i64, i64* %PC, align 8
  %4 = add i64 %3, 10
  store i64 %4, i64* %PC, align 8
  store i64 ptrtoint (%G__0x61c0c0_type* @G__0x61c0c0 to i64), i64* %RAX, align 8
  ret %struct.Memory* %2
}

define %struct.Memory* @routine_addq__0xfa00___rcx(%struct.State* dereferenceable(3376), i64, %struct.Memory*) local_unnamed_addr {
block_400478:
  %PC = getelementptr inbounds %struct.State, %struct.State* %0, i64 0, i32 6, i32 33, i32 0, i32 0
  %RCX = getelementptr inbounds %struct.State, %struct.State* %0, i64 0, i32 6, i32 5, i32 0, i32 0
  %3 = load i64, i64* %RCX, align 8
  %4 = load i64, i64* %PC, align 8
  %5 = add i64 %4, 7
  store i64 %5, i64* %PC, align 8
  %6 = add i64 %3, 64000
  store i64 %6, i64* %RCX, align 8
  %7 = icmp ugt i64 %3, -64001
  %8 = zext i1 %7 to i8
  %9 = getelementptr inbounds %struct.State, %struct.State* %0, i64 0, i32 2, i32 1
  store i8 %8, i8* %9, align 1
  %10 = trunc i64 %6 to i32
  %11 = and i32 %10, 255
  %12 = tail call i32 @llvm.ctpop.i32(i32 %11)
  %13 = trunc i32 %12 to i8
  %14 = and i8 %13, 1
  %15 = xor i8 %14, 1
  %16 = getelementptr inbounds %struct.State, %struct.State* %0, i64 0, i32 2, i32 3
  store i8 %15, i8* %16, align 1
  %17 = xor i64 %3, %6
  %18 = lshr i64 %17, 4
  %19 = trunc i64 %18 to i8
  %20 = and i8 %19, 1
  %21 = getelementptr inbounds %struct.State, %struct.State* %0, i64 0, i32 2, i32 5
  store i8 %20, i8* %21, align 1
  %22 = icmp eq i64 %6, 0
  %23 = zext i1 %22 to i8
  %24 = getelementptr inbounds %struct.State, %struct.State* %0, i64 0, i32 2, i32 7
  store i8 %23, i8* %24, align 1
  %25 = lshr i64 %6, 63
  %26 = trunc i64 %25 to i8
  %27 = getelementptr inbounds %struct.State, %struct.State* %0, i64 0, i32 2, i32 9
  store i8 %26, i8* %27, align 1
  %28 = lshr i64 %3, 63
  %29 = xor i64 %25, %28
  %30 = add nuw nsw i64 %29, %25
  %31 = icmp eq i64 %30, 2
  %32 = zext i1 %31 to i8
  %33 = getelementptr inbounds %struct.State, %struct.State* %0, i64 0, i32 2, i32 13
  store i8 %32, i8* %33, align 1
  ret %struct.Memory* %2
}

define %struct.Memory* @routine_movl__0x4___edx(%struct.State* dereferenceable(3376), i64, %struct.Memory*) local_unnamed_addr {
block_400478:
  %PC = getelementptr inbounds %struct.State, %struct.State* %0, i64 0, i32 6, i32 33, i32 0, i32 0
  %RDX = getelementptr inbounds %struct.State, %struct.State* %0, i64 0, i32 6, i32 7, i32 0, i32 0
  %3 = load i64, i64* %PC, align 8
  %4 = add i64 %3, 5
  store i64 %4, i64* %PC, align 8
  store i64 4, i64* %RDX, align 8
  ret %struct.Memory* %2
}

define %struct.Memory* @routine_movl_0x61c078___r8d(%struct.State* dereferenceable(3376), i64, %struct.Memory*) local_unnamed_addr {
block_400478:
  %PC = getelementptr inbounds %struct.State, %struct.State* %0, i64 0, i32 6, i32 33, i32 0, i32 0
  %3 = getelementptr inbounds %struct.State, %struct.State* %0, i64 0, i32 6, i32 17, i32 0, i32 0
  %4 = load i64, i64* %PC, align 8
  %5 = add i64 %4, 8
  store i64 %5, i64* %PC, align 8
  %6 = load i32, i32* bitcast (%G_0x61c078_type* @G_0x61c078 to i32*), align 8
  %7 = zext i32 %6 to i64
  store i64 %7, i64* %3, align 8
  ret %struct.Memory* %2
}

define %struct.Memory* @routine_movq__rax__MINUS0x18__rbp_(%struct.State* dereferenceable(3376), i64, %struct.Memory*) local_unnamed_addr {
block_400478:
  %PC = getelementptr inbounds %struct.State, %struct.State* %0, i64 0, i32 6, i32 33, i32 0, i32 0
  %RAX = getelementptr inbounds %struct.State, %struct.State* %0, i64 0, i32 6, i32 1, i32 0, i32 0
  %RBP = getelementptr inbounds %struct.State, %struct.State* %0, i64 0, i32 6, i32 15, i32 0, i32 0
  %3 = load i64, i64* %RBP, align 8
  %4 = add i64 %3, -24
  %5 = load i64, i64* %RAX, align 8
  %6 = load i64, i64* %PC, align 8
  %7 = add i64 %6, 4
  store i64 %7, i64* %PC, align 8
  %8 = inttoptr i64 %4 to i64*
  store i64 %5, i64* %8, align 8
  ret %struct.Memory* %2
}

define %struct.Memory* @routine_movl__r8d___eax(%struct.State* dereferenceable(3376), i64, %struct.Memory*) local_unnamed_addr {
block_400478:
  %PC = getelementptr inbounds %struct.State, %struct.State* %0, i64 0, i32 6, i32 33, i32 0, i32 0
  %3 = getelementptr inbounds %struct.State, %struct.State* %0, i64 0, i32 6, i32 17, i32 0
  %R8D = bitcast %union.anon* %3 to i32*
  %RAX = getelementptr inbounds %struct.State, %struct.State* %0, i64 0, i32 6, i32 1, i32 0, i32 0
  %4 = load i32, i32* %R8D, align 4
  %5 = zext i32 %4 to i64
  %6 = load i64, i64* %PC, align 8
  %7 = add i64 %6, 3
  store i64 %7, i64* %PC, align 8
  store i64 %5, i64* %RAX, align 8
  ret %struct.Memory* %2
}

define %struct.Memory* @routine_movl__edx__MINUS0x1c__rbp_(%struct.State* dereferenceable(3376), i64, %struct.Memory*) local_unnamed_addr {
block_400478:
  %PC = getelementptr inbounds %struct.State, %struct.State* %0, i64 0, i32 6, i32 33, i32 0, i32 0
  %3 = getelementptr inbounds %struct.State, %struct.State* %0, i64 0, i32 6, i32 7, i32 0
  %EDX = bitcast %union.anon* %3 to i32*
  %RBP = getelementptr inbounds %struct.State, %struct.State* %0, i64 0, i32 6, i32 15, i32 0, i32 0
  %4 = load i64, i64* %RBP, align 8
  %5 = add i64 %4, -28
  %6 = load i32, i32* %EDX, align 4
  %7 = load i64, i64* %PC, align 8
  %8 = add i64 %7, 3
  store i64 %8, i64* %PC, align 8
  %9 = inttoptr i64 %5 to i32*
  store i32 %6, i32* %9, align 4
  ret %struct.Memory* %2
}

define %struct.Memory* @routine_cltd(%struct.State* dereferenceable(3376), i64, %struct.Memory*) local_unnamed_addr {
block_400478:
  %PC = getelementptr inbounds %struct.State, %struct.State* %0, i64 0, i32 6, i32 33, i32 0, i32 0
  %3 = load i64, i64* %PC, align 8
  %4 = add i64 %3, 1
  store i64 %4, i64* %PC, align 8
  %5 = getelementptr inbounds %struct.State, %struct.State* %0, i64 0, i32 6, i32 7, i32 0, i32 0
  %6 = getelementptr inbounds %struct.State, %struct.State* %0, i64 0, i32 6, i32 1, i32 0
  %7 = bitcast %union.anon* %6 to i32*
  %8 = load i32, i32* %7, align 8
  %9 = sext i32 %8 to i64
  %10 = lshr i64 %9, 32
  store i64 %10, i64* %5, align 8
  ret %struct.Memory* %2
}

define %struct.Memory* @routine_movl_MINUS0x1c__rbp____r8d(%struct.State* dereferenceable(3376), i64, %struct.Memory*) local_unnamed_addr {
block_400478:
  %PC = getelementptr inbounds %struct.State, %struct.State* %0, i64 0, i32 6, i32 33, i32 0, i32 0
  %RBP = getelementptr inbounds %struct.State, %struct.State* %0, i64 0, i32 6, i32 15, i32 0, i32 0
  %3 = getelementptr inbounds %struct.State, %struct.State* %0, i64 0, i32 6, i32 17, i32 0, i32 0
  %4 = load i64, i64* %RBP, align 8
  %5 = add i64 %4, -28
  %6 = load i64, i64* %PC, align 8
  %7 = add i64 %6, 4
  store i64 %7, i64* %PC, align 8
  %8 = inttoptr i64 %5 to i32*
  %9 = load i32, i32* %8, align 4
  %10 = zext i32 %9 to i64
  store i64 %10, i64* %3, align 8
  ret %struct.Memory* %2
}

define %struct.Memory* @routine_idivl__r8d(%struct.State* dereferenceable(3376), i64, %struct.Memory*) local_unnamed_addr {
block_400478:
  %PC = getelementptr inbounds %struct.State, %struct.State* %0, i64 0, i32 6, i32 33, i32 0, i32 0
  %3 = getelementptr inbounds %struct.State, %struct.State* %0, i64 0, i32 6, i32 17, i32 0
  %R8D = bitcast %union.anon* %3 to i32*
  %4 = load i32, i32* %R8D, align 4
  %5 = load i64, i64* %PC, align 8
  %6 = add i64 %5, 3
  store i64 %6, i64* %PC, align 8
  %7 = getelementptr inbounds %struct.State, %struct.State* %0, i64 0, i32 6, i32 1, i32 0
  %8 = bitcast %union.anon* %7 to i32*
  %9 = load i32, i32* %8, align 8
  %10 = zext i32 %9 to i64
  %11 = getelementptr inbounds %struct.State, %struct.State* %0, i64 0, i32 6, i32 7, i32 0
  %12 = bitcast %union.anon* %11 to i32*
  %13 = load i32, i32* %12, align 8
  %14 = zext i32 %13 to i64
  %15 = sext i32 %4 to i64
  %16 = shl nuw i64 %14, 32
  %17 = or i64 %16, %10
  %18 = sdiv i64 %17, %15
  %19 = shl i64 %18, 32
  %20 = ashr exact i64 %19, 32
  %21 = icmp eq i64 %18, %20
  br i1 %21, label %24, label %22

; <label>:22:                                     ; preds = %block_400478
  %23 = tail call %struct.Memory* @__remill_error(%struct.State* nonnull dereferenceable(3376) %0, i64 %6, %struct.Memory* %2)
  br label %_ZN12_GLOBAL__N_1L10IDIVedxeaxI2RnIjEEEP6MemoryS4_R5StateT_.exit

; <label>:24:                                     ; preds = %block_400478
  %25 = srem i64 %17, %15
  %26 = getelementptr inbounds %union.anon, %union.anon* %7, i64 0, i32 0
  %27 = and i64 %18, 4294967295
  store i64 %27, i64* %26, align 8
  %28 = getelementptr inbounds %union.anon, %union.anon* %11, i64 0, i32 0
  %29 = and i64 %25, 4294967295
  store i64 %29, i64* %28, align 8
  %30 = getelementptr inbounds %struct.State, %struct.State* %0, i64 0, i32 2, i32 1
  store i8 0, i8* %30, align 1
  %31 = getelementptr inbounds %struct.State, %struct.State* %0, i64 0, i32 2, i32 3
  store i8 0, i8* %31, align 1
  %32 = getelementptr inbounds %struct.State, %struct.State* %0, i64 0, i32 2, i32 5
  store i8 0, i8* %32, align 1
  %33 = getelementptr inbounds %struct.State, %struct.State* %0, i64 0, i32 2, i32 7
  store i8 0, i8* %33, align 1
  %34 = getelementptr inbounds %struct.State, %struct.State* %0, i64 0, i32 2, i32 9
  store i8 0, i8* %34, align 1
  %35 = getelementptr inbounds %struct.State, %struct.State* %0, i64 0, i32 2, i32 13
  store i8 0, i8* %35, align 1
  br label %_ZN12_GLOBAL__N_1L10IDIVedxeaxI2RnIjEEEP6MemoryS4_R5StateT_.exit

_ZN12_GLOBAL__N_1L10IDIVedxeaxI2RnIjEEEP6MemoryS4_R5StateT_.exit: ; preds = %24, %22
  %36 = phi %struct.Memory* [ %23, %22 ], [ %2, %24 ]
  ret %struct.Memory* %36
}

define %struct.Memory* @routine_movsd_0x61c080___xmm0(%struct.State* dereferenceable(3376), i64, %struct.Memory*) local_unnamed_addr {
block_400478:
  %PC = getelementptr inbounds %struct.State, %struct.State* %0, i64 0, i32 6, i32 33, i32 0, i32 0
  %3 = load i64, i64* %PC, align 8
  %4 = add i64 %3, 9
  store i64 %4, i64* %PC, align 8
  %5 = load i64, i64* bitcast (%G_0x61c080_type* @G_0x61c080 to i64*), align 8
  %6 = getelementptr inbounds %struct.State, %struct.State* %0, i64 0, i32 1, i64 0, i32 0, i32 0, i32 0, i64 0
  store i64 %5, i64* %6, align 1
  %7 = getelementptr inbounds %struct.State, %struct.State* %0, i64 0, i32 1, i64 0, i32 0, i32 0, i32 0, i64 1
  %8 = bitcast i64* %7 to double*
  store double 0.000000e+00, double* %8, align 1
  ret %struct.Memory* %2
}

define %struct.Memory* @routine_movq_MINUS0x18__rbp____rdi(%struct.State* dereferenceable(3376), i64, %struct.Memory*) local_unnamed_addr {
block_400478:
  %PC = getelementptr inbounds %struct.State, %struct.State* %0, i64 0, i32 6, i32 33, i32 0, i32 0
  %RDI = getelementptr inbounds %struct.State, %struct.State* %0, i64 0, i32 6, i32 11, i32 0, i32 0
  %RBP = getelementptr inbounds %struct.State, %struct.State* %0, i64 0, i32 6, i32 15, i32 0, i32 0
  %3 = load i64, i64* %RBP, align 8
  %4 = add i64 %3, -24
  %5 = load i64, i64* %PC, align 8
  %6 = add i64 %5, 4
  store i64 %6, i64* %PC, align 8
  %7 = inttoptr i64 %4 to i64*
  %8 = load i64, i64* %7, align 8
  store i64 %8, i64* %RDI, align 8
  ret %struct.Memory* %2
}

define %struct.Memory* @routine_callq_._Z4fillIPddEvT_S1_T0_(%struct.State* dereferenceable(3376), i64, %struct.Memory*, i64 %rel_off1, i64 %rel_off2, i64 %rel_off3) local_unnamed_addr {
block_400478:
  %PC = getelementptr inbounds %struct.State, %struct.State* %0, i64 0, i32 6, i32 33, i32 0, i32 0
  %3 = load i64, i64* %PC, align 8
  %4 = add i64 %3, %rel_off1
  %5 = add i64 %3, %rel_off2
  %6 = getelementptr inbounds %struct.State, %struct.State* %0, i64 0, i32 6, i32 13, i32 0, i32 0
  %7 = load i64, i64* %6, align 8
  %8 = add i64 %7, -8
  %9 = inttoptr i64 %8 to i64*
  store i64 %5, i64* %9, align 8
  store i64 %8, i64* %6, align 8
  store i64 %4, i64* %PC, align 8
  ret %struct.Memory* %2
}

define %struct.Memory* @routine_movq__0x61c0c0___rdi(%struct.State* dereferenceable(3376), i64, %struct.Memory*) local_unnamed_addr {
block_400478:
  %PC = getelementptr inbounds %struct.State, %struct.State* %0, i64 0, i32 6, i32 33, i32 0, i32 0
  %RDI = getelementptr inbounds %struct.State, %struct.State* %0, i64 0, i32 6, i32 11, i32 0, i32 0
  %3 = load i64, i64* %PC, align 8
  %4 = add i64 %3, 10
  store i64 %4, i64* %PC, align 8
  store i64 ptrtoint (%G__0x61c0c0_type* @G__0x61c0c0 to i64), i64* %RDI, align 8
  ret %struct.Memory* %2
}

define %struct.Memory* @routine_movq__0x41674c___rsi(%struct.State* dereferenceable(3376), i64, %struct.Memory*) local_unnamed_addr {
block_400478:
  %PC = getelementptr inbounds %struct.State, %struct.State* %0, i64 0, i32 6, i32 33, i32 0, i32 0
  %RSI = getelementptr inbounds %struct.State, %struct.State* %0, i64 0, i32 6, i32 9, i32 0, i32 0
  %3 = load i64, i64* %PC, align 8
  %4 = add i64 %3, 10
  store i64 %4, i64* %PC, align 8
  store i64 ptrtoint (%G__0x41674c_type* @G__0x41674c to i64), i64* %RSI, align 8
  ret %struct.Memory* %2
}

define %struct.Memory* @routine_callq_._ZN14for_loop_testsILi32EdE7do_testEPKdPKc(%struct.State* dereferenceable(3376), i64, %struct.Memory*, i64 %rel_off1, i64 %rel_off2, i64 %rel_off3) local_unnamed_addr {
block_400478:
  %PC = getelementptr inbounds %struct.State, %struct.State* %0, i64 0, i32 6, i32 33, i32 0, i32 0
  %3 = load i64, i64* %PC, align 8
  %4 = add i64 %3, %rel_off1
  %5 = add i64 %3, %rel_off2
  %6 = getelementptr inbounds %struct.State, %struct.State* %0, i64 0, i32 6, i32 13, i32 0, i32 0
  %7 = load i64, i64* %6, align 8
  %8 = add i64 %7, -8
  %9 = inttoptr i64 %8 to i64*
  store i64 %5, i64* %9, align 8
  store i64 %8, i64* %6, align 8
  store i64 %4, i64* %PC, align 8
  ret %struct.Memory* %2
}

define %struct.Memory* @routine_movq__0x416763___rsi(%struct.State* dereferenceable(3376), i64, %struct.Memory*) local_unnamed_addr {
block_400478:
  %PC = getelementptr inbounds %struct.State, %struct.State* %0, i64 0, i32 6, i32 33, i32 0, i32 0
  %RSI = getelementptr inbounds %struct.State, %struct.State* %0, i64 0, i32 6, i32 9, i32 0, i32 0
  %3 = load i64, i64* %PC, align 8
  %4 = add i64 %3, 10
  store i64 %4, i64* %PC, align 8
  store i64 ptrtoint (%G__0x416763_type* @G__0x416763 to i64), i64* %RSI, align 8
  ret %struct.Memory* %2
}

define %struct.Memory* @routine_callq_._ZN16while_loop_testsILi32EdE7do_testEPKdPKc(%struct.State* dereferenceable(3376), i64, %struct.Memory*, i64 %rel_off1, i64 %rel_off2, i64 %rel_off3) local_unnamed_addr {
block_400478:
  %PC = getelementptr inbounds %struct.State, %struct.State* %0, i64 0, i32 6, i32 33, i32 0, i32 0
  %3 = load i64, i64* %PC, align 8
  %4 = add i64 %3, %rel_off1
  %5 = add i64 %3, %rel_off2
  %6 = getelementptr inbounds %struct.State, %struct.State* %0, i64 0, i32 6, i32 13, i32 0, i32 0
  %7 = load i64, i64* %6, align 8
  %8 = add i64 %7, -8
  %9 = inttoptr i64 %8 to i64*
  store i64 %5, i64* %9, align 8
  store i64 %8, i64* %6, align 8
  store i64 %4, i64* %PC, align 8
  ret %struct.Memory* %2
}

define %struct.Memory* @routine_movq__0x41677c___rsi(%struct.State* dereferenceable(3376), i64, %struct.Memory*) local_unnamed_addr {
block_400478:
  %PC = getelementptr inbounds %struct.State, %struct.State* %0, i64 0, i32 6, i32 33, i32 0, i32 0
  %RSI = getelementptr inbounds %struct.State, %struct.State* %0, i64 0, i32 6, i32 9, i32 0, i32 0
  %3 = load i64, i64* %PC, align 8
  %4 = add i64 %3, 10
  store i64 %4, i64* %PC, align 8
  store i64 ptrtoint (%G__0x41677c_type* @G__0x41677c to i64), i64* %RSI, align 8
  ret %struct.Memory* %2
}

define %struct.Memory* @routine_callq_._ZN13do_loop_testsILi32EdE7do_testEPKdPKc(%struct.State* dereferenceable(3376), i64, %struct.Memory*, i64 %rel_off1, i64 %rel_off2, i64 %rel_off3) local_unnamed_addr {
block_400478:
  %PC = getelementptr inbounds %struct.State, %struct.State* %0, i64 0, i32 6, i32 33, i32 0, i32 0
  %3 = load i64, i64* %PC, align 8
  %4 = add i64 %3, %rel_off1
  %5 = add i64 %3, %rel_off2
  %6 = getelementptr inbounds %struct.State, %struct.State* %0, i64 0, i32 6, i32 13, i32 0, i32 0
  %7 = load i64, i64* %6, align 8
  %8 = add i64 %7, -8
  %9 = inttoptr i64 %8 to i64*
  store i64 %5, i64* %9, align 8
  store i64 %8, i64* %6, align 8
  store i64 %4, i64* %PC, align 8
  ret %struct.Memory* %2
}

define %struct.Memory* @routine_movq__0x416792___rsi(%struct.State* dereferenceable(3376), i64, %struct.Memory*) local_unnamed_addr {
block_400478:
  %PC = getelementptr inbounds %struct.State, %struct.State* %0, i64 0, i32 6, i32 33, i32 0, i32 0
  %RSI = getelementptr inbounds %struct.State, %struct.State* %0, i64 0, i32 6, i32 9, i32 0, i32 0
  %3 = load i64, i64* %PC, align 8
  %4 = add i64 %3, 10
  store i64 %4, i64* %PC, align 8
  store i64 ptrtoint (%G__0x416792_type* @G__0x416792 to i64), i64* %RSI, align 8
  ret %struct.Memory* %2
}

define %struct.Memory* @routine_callq_._ZN15goto_loop_testsILi32EdE7do_testEPKdPKc(%struct.State* dereferenceable(3376), i64, %struct.Memory*, i64 %rel_off1, i64 %rel_off2, i64 %rel_off3) local_unnamed_addr {
block_400478:
  %PC = getelementptr inbounds %struct.State, %struct.State* %0, i64 0, i32 6, i32 33, i32 0, i32 0
  %3 = load i64, i64* %PC, align 8
  %4 = add i64 %3, %rel_off1
  %5 = add i64 %3, %rel_off2
  %6 = getelementptr inbounds %struct.State, %struct.State* %0, i64 0, i32 6, i32 13, i32 0, i32 0
  %7 = load i64, i64* %6, align 8
  %8 = add i64 %7, -8
  %9 = inttoptr i64 %8 to i64*
  store i64 %5, i64* %9, align 8
  store i64 %8, i64* %6, align 8
  store i64 %4, i64* %PC, align 8
  ret %struct.Memory* %2
}

define %struct.Memory* @routine_xorl__eax___eax(%struct.State* dereferenceable(3376), i64, %struct.Memory*) local_unnamed_addr {
block_400478:
  %PC = getelementptr inbounds %struct.State, %struct.State* %0, i64 0, i32 6, i32 33, i32 0, i32 0
  %RAX = getelementptr inbounds %struct.State, %struct.State* %0, i64 0, i32 6, i32 1, i32 0, i32 0
  %3 = load i64, i64* %PC, align 8
  %4 = add i64 %3, 2
  store i64 %4, i64* %PC, align 8
  store i64 0, i64* %RAX, align 8
  %5 = getelementptr inbounds %struct.State, %struct.State* %0, i64 0, i32 2, i32 1
  store i8 0, i8* %5, align 1
  %6 = getelementptr inbounds %struct.State, %struct.State* %0, i64 0, i32 2, i32 3
  store i8 1, i8* %6, align 1
  %7 = getelementptr inbounds %struct.State, %struct.State* %0, i64 0, i32 2, i32 7
  store i8 1, i8* %7, align 1
  %8 = getelementptr inbounds %struct.State, %struct.State* %0, i64 0, i32 2, i32 9
  store i8 0, i8* %8, align 1
  %9 = getelementptr inbounds %struct.State, %struct.State* %0, i64 0, i32 2, i32 13
  store i8 0, i8* %9, align 1
  %10 = getelementptr inbounds %struct.State, %struct.State* %0, i64 0, i32 2, i32 5
  store i8 0, i8* %10, align 1
  ret %struct.Memory* %2
}

define %struct.Memory* @routine_addq__0x20___rsp(%struct.State* dereferenceable(3376), i64, %struct.Memory*) local_unnamed_addr {
block_400478:
  %PC = getelementptr inbounds %struct.State, %struct.State* %0, i64 0, i32 6, i32 33, i32 0, i32 0
  %RSP = getelementptr inbounds %struct.State, %struct.State* %0, i64 0, i32 6, i32 13, i32 0, i32 0
  %3 = load i64, i64* %RSP, align 8
  %4 = load i64, i64* %PC, align 8
  %5 = add i64 %4, 4
  store i64 %5, i64* %PC, align 8
  %6 = add i64 %3, 32
  store i64 %6, i64* %RSP, align 8
  %7 = icmp ugt i64 %3, -33
  %8 = zext i1 %7 to i8
  %9 = getelementptr inbounds %struct.State, %struct.State* %0, i64 0, i32 2, i32 1
  store i8 %8, i8* %9, align 1
  %10 = trunc i64 %6 to i32
  %11 = and i32 %10, 255
  %12 = tail call i32 @llvm.ctpop.i32(i32 %11)
  %13 = trunc i32 %12 to i8
  %14 = and i8 %13, 1
  %15 = xor i8 %14, 1
  %16 = getelementptr inbounds %struct.State, %struct.State* %0, i64 0, i32 2, i32 3
  store i8 %15, i8* %16, align 1
  %17 = xor i64 %3, %6
  %18 = lshr i64 %17, 4
  %19 = trunc i64 %18 to i8
  %20 = and i8 %19, 1
  %21 = getelementptr inbounds %struct.State, %struct.State* %0, i64 0, i32 2, i32 5
  store i8 %20, i8* %21, align 1
  %22 = icmp eq i64 %6, 0
  %23 = zext i1 %22 to i8
  %24 = getelementptr inbounds %struct.State, %struct.State* %0, i64 0, i32 2, i32 7
  store i8 %23, i8* %24, align 1
  %25 = lshr i64 %6, 63
  %26 = trunc i64 %25 to i8
  %27 = getelementptr inbounds %struct.State, %struct.State* %0, i64 0, i32 2, i32 9
  store i8 %26, i8* %27, align 1
  %28 = lshr i64 %3, 63
  %29 = xor i64 %25, %28
  %30 = add nuw nsw i64 %29, %25
  %31 = icmp eq i64 %30, 2
  %32 = zext i1 %31 to i8
  %33 = getelementptr inbounds %struct.State, %struct.State* %0, i64 0, i32 2, i32 13
  store i8 %32, i8* %33, align 1
  ret %struct.Memory* %2
}

define %struct.Memory* @routine_popq__rbp(%struct.State* dereferenceable(3376), i64, %struct.Memory*) local_unnamed_addr {
block_400478:
  %PC = getelementptr inbounds %struct.State, %struct.State* %0, i64 0, i32 6, i32 33, i32 0, i32 0
  %RBP = getelementptr inbounds %struct.State, %struct.State* %0, i64 0, i32 6, i32 15, i32 0, i32 0
  %3 = load i64, i64* %PC, align 8
  %4 = add i64 %3, 1
  store i64 %4, i64* %PC, align 8
  %5 = getelementptr inbounds %struct.State, %struct.State* %0, i64 0, i32 6, i32 13, i32 0, i32 0
  %6 = load i64, i64* %5, align 8
  %7 = add i64 %6, 8
  %8 = inttoptr i64 %6 to i64*
  %9 = load i64, i64* %8, align 8
  store i64 %9, i64* %RBP, align 8
  store i64 %7, i64* %5, align 8
  ret %struct.Memory* %2
}

define %struct.Memory* @routine_retq(%struct.State* dereferenceable(3376), i64, %struct.Memory*) local_unnamed_addr {
block_400478:
  %PC = getelementptr inbounds %struct.State, %struct.State* %0, i64 0, i32 6, i32 33, i32 0, i32 0
  %3 = load i64, i64* %PC, align 8
  %4 = add i64 %3, 1
  store i64 %4, i64* %PC, align 8
  %5 = getelementptr inbounds %struct.State, %struct.State* %0, i64 0, i32 6, i32 13, i32 0, i32 0
  %6 = load i64, i64* %5, align 8
  %7 = inttoptr i64 %6 to i64*
  %8 = load i64, i64* %7, align 8
  store i64 %8, i64* %PC, align 8
  %9 = add i64 %6, 8
  store i64 %9, i64* %5, align 8
  ret %struct.Memory* %2
}

attributes #0 = { nounwind readnone }
attributes #1 = { alwaysinline }
