; ModuleID = 'mcsema/test.proposed.inline.ll'
source_filename = "llvm-link"
target datalayout = "e-m:e-i64:64-f80:128-n8:16:32:64-S128"
target triple = "x86_64-pc-linux-gnu-elf"

%__bss_start_type = type <{ [8 x i8] }>
%struct.State = type { %struct.ArchState, [32 x %union.VectorReg], %struct.ArithFlags, %union.anon, %struct.Segments, %struct.AddressSpace, %struct.GPR, %struct.X87Stack, %struct.MMX, %struct.FPUStatusFlags, %union.anon, %union.FPU, %struct.SegmentCaches }
%struct.ArchState = type { i32, i32, %union.anon }
%union.VectorReg = type { %union.vec512_t }
%union.vec512_t = type { %struct.uint64v8_t }
%struct.uint64v8_t = type { [8 x i64] }
%struct.ArithFlags = type { i8, i8, i8, i8, i8, i8, i8, i8, i8, i8, i8, i8, i8, i8, i8, i8 }
%struct.Segments = type { i16, %union.SegmentSelector, i16, %union.SegmentSelector, i16, %union.SegmentSelector, i16, %union.SegmentSelector, i16, %union.SegmentSelector, i16, %union.SegmentSelector }
%union.SegmentSelector = type { i16 }
%struct.AddressSpace = type { i64, %struct.Reg, i64, %struct.Reg, i64, %struct.Reg, i64, %struct.Reg, i64, %struct.Reg, i64, %struct.Reg }
%struct.Reg = type { %union.anon }
%struct.GPR = type { i64, %struct.Reg, i64, %struct.Reg, i64, %struct.Reg, i64, %struct.Reg, i64, %struct.Reg, i64, %struct.Reg, i64, %struct.Reg, i64, %struct.Reg, i64, %struct.Reg, i64, %struct.Reg, i64, %struct.Reg, i64, %struct.Reg, i64, %struct.Reg, i64, %struct.Reg, i64, %struct.Reg, i64, %struct.Reg, i64, %struct.Reg }
%struct.X87Stack = type { [8 x %struct.anon.3] }
%struct.anon.3 = type { i64, double }
%struct.MMX = type { [8 x %struct.anon.4] }
%struct.anon.4 = type { i64, %union.vec64_t }
%union.vec64_t = type { %struct.uint64v1_t }
%struct.uint64v1_t = type { [1 x i64] }
%struct.FPUStatusFlags = type { i8, i8, i8, i8, i8, i8, i8, i8, i8, i8, i8, i8, i8, i8, i8, i8, i8, i8, i8, i8, [4 x i8] }
%union.anon = type { i64 }
%union.FPU = type { %struct.anon.13 }
%struct.anon.13 = type { %struct.FpuFXSAVE, [96 x i8] }
%struct.FpuFXSAVE = type { %union.SegmentSelector, %union.SegmentSelector, %union.FPUAbridgedTagWord, i8, i16, i32, %union.SegmentSelector, i16, i32, %union.SegmentSelector, i16, %union.FPUControlStatus, %union.FPUControlStatus, [8 x %struct.FPUStackElem], [16 x %union.vec128_t] }
%union.FPUAbridgedTagWord = type { i8 }
%union.FPUControlStatus = type { i32 }
%struct.FPUStackElem = type { %union.anon.11, [6 x i8] }
%union.anon.11 = type { %struct.float80_t }
%struct.float80_t = type { [10 x i8] }
%union.vec128_t = type { %struct.uint128v1_t }
%struct.uint128v1_t = type { [1 x i128] }
%struct.SegmentCaches = type { %struct.SegmentShadow, %struct.SegmentShadow, %struct.SegmentShadow, %struct.SegmentShadow, %struct.SegmentShadow, %struct.SegmentShadow }
%struct.SegmentShadow = type { %union.anon, i32, i32 }
%struct.Memory = type opaque

@__bss_start = local_unnamed_addr global %__bss_start_type zeroinitializer

; Function Attrs: nounwind readnone
declare i32 @llvm.ctpop.i32(i32) #0

declare %struct.Memory* @sub_403d10._ZmiI12ValueWrapperIdEElR14PointerWrapperIT_ES5_(%struct.State* dereferenceable(3376), i64, %struct.Memory*) local_unnamed_addr

declare %struct.Memory* @sub_403cd0._ZNK14PointerWrapperI12ValueWrapperIdEEdeEv(%struct.State* dereferenceable(3376), i64, %struct.Memory*) local_unnamed_addr

declare %struct.Memory* @sub_4052c0._ZmmI12ValueWrapperIdEER14PointerWrapperIT_ES5_(%struct.State* dereferenceable(3376), i64, %struct.Memory*) local_unnamed_addr

declare %struct.Memory* @sub_403250._ZltIdEbRK12ValueWrapperIT_ES4_(%struct.State* dereferenceable(3376), i64, %struct.Memory*) local_unnamed_addr

declare %struct.Memory* @sub_4052e0._ZltI12ValueWrapperIdEEbRK14PointerWrapperIT_ES6_(%struct.State* dereferenceable(3376), i64, %struct.Memory*) local_unnamed_addr

declare %struct.Memory* @sub_403cf0._ZppI12ValueWrapperIdEER14PointerWrapperIT_ES5_(%struct.State* dereferenceable(3376), i64, %struct.Memory*) local_unnamed_addr

declare %struct.Memory* @sub_403d40._ZplI12ValueWrapperIdEE14PointerWrapperIT_ERS4_l(%struct.State* dereferenceable(3376), i64, %struct.Memory*) local_unnamed_addr

declare %struct.Memory* @sub_405130._ZN9benchmark9quicksortI14PointerWrapperI12ValueWrapperIdEES3_EEvT_S5_(%struct.State* dereferenceable(3376), i64, %struct.Memory*) local_unnamed_addr

; Function Attrs: alwaysinline
define %struct.Memory* @_ZN9benchmark9quicksortI14PointerWrapperI12ValueWrapperIdEES3_EEvT_S5_(%struct.State* noalias, i64, %struct.Memory* noalias) local_unnamed_addr #1 {
entry:
  %3 = getelementptr inbounds %struct.State, %struct.State* %0, i64 0, i32 6, i32 33, i32 0, i32 0
  %RBP.i = getelementptr inbounds %struct.State, %struct.State* %0, i64 0, i32 6, i32 15, i32 0, i32 0
  %4 = load i64, i64* %RBP.i, align 8
  %5 = add i64 %1, 1
  store i64 %5, i64* %3, align 8
  %6 = getelementptr inbounds %struct.State, %struct.State* %0, i64 0, i32 6, i32 13, i32 0, i32 0
  %7 = load i64, i64* %6, align 8
  %8 = add i64 %7, -8
  %9 = inttoptr i64 %8 to i64*
  store i64 %4, i64* %9, align 8
  %10 = load i64, i64* %3, align 8
  store i64 %8, i64* %RBP.i, align 8
  %11 = add i64 %7, -104
  store i64 %11, i64* %6, align 8
  %12 = icmp ult i64 %8, 96
  %13 = zext i1 %12 to i8
  %14 = getelementptr inbounds %struct.State, %struct.State* %0, i64 0, i32 2, i32 1
  store i8 %13, i8* %14, align 1
  %15 = trunc i64 %11 to i32
  %16 = and i32 %15, 255
  %17 = tail call i32 @llvm.ctpop.i32(i32 %16)
  %18 = trunc i32 %17 to i8
  %19 = and i8 %18, 1
  %20 = xor i8 %19, 1
  %21 = getelementptr inbounds %struct.State, %struct.State* %0, i64 0, i32 2, i32 3
  store i8 %20, i8* %21, align 1
  %22 = xor i64 %8, %11
  %23 = lshr i64 %22, 4
  %24 = trunc i64 %23 to i8
  %25 = and i8 %24, 1
  %26 = getelementptr inbounds %struct.State, %struct.State* %0, i64 0, i32 2, i32 5
  store i8 %25, i8* %26, align 1
  %27 = icmp eq i64 %11, 0
  %28 = zext i1 %27 to i8
  %29 = getelementptr inbounds %struct.State, %struct.State* %0, i64 0, i32 2, i32 7
  store i8 %28, i8* %29, align 1
  %30 = lshr i64 %11, 63
  %31 = trunc i64 %30 to i8
  %32 = getelementptr inbounds %struct.State, %struct.State* %0, i64 0, i32 2, i32 9
  store i8 %31, i8* %32, align 1
  %33 = lshr i64 %8, 63
  %34 = xor i64 %30, %33
  %35 = add nuw nsw i64 %34, %33
  %36 = icmp eq i64 %35, 2
  %37 = zext i1 %36 to i8
  %38 = getelementptr inbounds %struct.State, %struct.State* %0, i64 0, i32 2, i32 13
  store i8 %37, i8* %38, align 1
  %39 = getelementptr inbounds %struct.State, %struct.State* %0, i64 0, i32 6, i32 1, i32 0
  %RAX.i195 = getelementptr inbounds %union.anon, %union.anon* %39, i64 0, i32 0
  %40 = add i64 %7, -24
  store i64 %40, i64* %RAX.i195, align 8
  %RCX.i192 = getelementptr inbounds %struct.State, %struct.State* %0, i64 0, i32 6, i32 5, i32 0, i32 0
  %41 = add i64 %7, -16
  store i64 %41, i64* %RCX.i192, align 8
  %RDI.i189 = getelementptr inbounds %struct.State, %struct.State* %0, i64 0, i32 6, i32 11, i32 0, i32 0
  %42 = load i64, i64* %RDI.i189, align 8
  %43 = add i64 %10, 19
  store i64 %43, i64* %3, align 8
  %44 = inttoptr i64 %41 to i64*
  store i64 %42, i64* %44, align 8
  %RSI.i186 = getelementptr inbounds %struct.State, %struct.State* %0, i64 0, i32 6, i32 9, i32 0, i32 0
  %45 = load i64, i64* %RBP.i, align 8
  %46 = add i64 %45, -16
  %47 = load i64, i64* %RSI.i186, align 8
  %48 = load i64, i64* %3, align 8
  %49 = add i64 %48, 4
  store i64 %49, i64* %3, align 8
  %50 = inttoptr i64 %46 to i64*
  store i64 %47, i64* %50, align 8
  %51 = load i64, i64* %RAX.i195, align 8
  %52 = load i64, i64* %3, align 8
  store i64 %51, i64* %RDI.i189, align 8
  %53 = load i64, i64* %RCX.i192, align 8
  store i64 %53, i64* %RSI.i186, align 8
  %54 = add i64 %52, -5176
  %55 = add i64 %52, 11
  %56 = load i64, i64* %6, align 8
  %57 = add i64 %56, -8
  %58 = inttoptr i64 %57 to i64*
  store i64 %55, i64* %58, align 8
  store i64 %57, i64* %6, align 8
  store i64 %54, i64* %3, align 8
  %call2_40514e = tail call %struct.Memory* @sub_403d10._ZmiI12ValueWrapperIdEElR14PointerWrapperIT_ES5_(%struct.State* %0, i64 %54, %struct.Memory* %2)
  %59 = load i64, i64* %RAX.i195, align 8
  %60 = load i64, i64* %3, align 8
  %61 = add i64 %59, -1
  %62 = icmp eq i64 %59, 0
  %63 = zext i1 %62 to i8
  store i8 %63, i8* %14, align 1
  %64 = trunc i64 %61 to i32
  %65 = and i32 %64, 255
  %66 = tail call i32 @llvm.ctpop.i32(i32 %65)
  %67 = trunc i32 %66 to i8
  %68 = and i8 %67, 1
  %69 = xor i8 %68, 1
  store i8 %69, i8* %21, align 1
  %70 = xor i64 %61, %59
  %71 = lshr i64 %70, 4
  %72 = trunc i64 %71 to i8
  %73 = and i8 %72, 1
  store i8 %73, i8* %26, align 1
  %74 = icmp eq i64 %61, 0
  %75 = zext i1 %74 to i8
  store i8 %75, i8* %29, align 1
  %76 = lshr i64 %61, 63
  %77 = trunc i64 %76 to i8
  store i8 %77, i8* %32, align 1
  %78 = lshr i64 %59, 63
  %79 = xor i64 %76, %78
  %80 = add nuw nsw i64 %79, %78
  %81 = icmp eq i64 %80, 2
  %82 = zext i1 %81 to i8
  store i8 %82, i8* %38, align 1
  %83 = icmp ne i8 %77, 0
  %84 = xor i1 %83, %81
  %85 = or i1 %74, %84
  %.v = select i1 %85, i64 354, i64 10
  %86 = add i64 %60, %.v
  store i64 %86, i64* %3, align 8
  br i1 %85, label %block_.L_4052b5, label %block_40515d

block_40515d:                                     ; preds = %entry
  %87 = load i64, i64* %RBP.i, align 8
  %88 = add i64 %87, -8
  store i64 %88, i64* %RDI.i189, align 8
  %89 = add i64 %86, -5261
  %90 = add i64 %86, 9
  %91 = load i64, i64* %6, align 8
  %92 = add i64 %91, -8
  %93 = inttoptr i64 %92 to i64*
  store i64 %90, i64* %93, align 8
  store i64 %92, i64* %6, align 8
  store i64 %89, i64* %3, align 8
  %call2_405161 = tail call %struct.Memory* @sub_403cd0._ZNK14PointerWrapperI12ValueWrapperIdEEdeEv(%struct.State* nonnull %0, i64 %89, %struct.Memory* %call2_40514e)
  %94 = bitcast %union.anon* %39 to i64**
  %95 = load i64*, i64** %94, align 8
  %96 = load i64, i64* %3, align 8
  %97 = add i64 %96, 3
  store i64 %97, i64* %3, align 8
  %98 = load i64, i64* %95, align 8
  store i64 %98, i64* %RAX.i195, align 8
  %99 = load i64, i64* %RBP.i, align 8
  %100 = add i64 %99, -24
  %101 = add i64 %96, 7
  store i64 %101, i64* %3, align 8
  %102 = inttoptr i64 %100 to i64*
  store i64 %98, i64* %102, align 8
  %103 = load i64, i64* %RBP.i, align 8
  %104 = add i64 %103, -8
  %105 = load i64, i64* %3, align 8
  %106 = add i64 %105, 4
  store i64 %106, i64* %3, align 8
  %107 = inttoptr i64 %104 to i64*
  %108 = load i64, i64* %107, align 8
  store i64 %108, i64* %RAX.i195, align 8
  %109 = add i64 %103, -32
  %110 = add i64 %105, 8
  store i64 %110, i64* %3, align 8
  %111 = inttoptr i64 %109 to i64*
  store i64 %108, i64* %111, align 8
  %112 = load i64, i64* %RBP.i, align 8
  %113 = add i64 %112, -16
  %114 = load i64, i64* %3, align 8
  %115 = add i64 %114, 4
  store i64 %115, i64* %3, align 8
  %116 = inttoptr i64 %113 to i64*
  %117 = load i64, i64* %116, align 8
  store i64 %117, i64* %RAX.i195, align 8
  %118 = add i64 %112, -40
  %119 = add i64 %114, 8
  store i64 %119, i64* %3, align 8
  %120 = inttoptr i64 %118 to i64*
  store i64 %117, i64* %120, align 8
  %AL.i137 = bitcast %union.anon* %39 to i8*
  %RDX.i61 = getelementptr inbounds %struct.State, %struct.State* %0, i64 0, i32 6, i32 7, i32 0, i32 0
  %.pre = load i64, i64* %3, align 8
  br label %block_.L_40517d

block_.L_40517d:                                  ; preds = %block_.L_40521e, %block_40515d
  %121 = phi i64 [ %.pre, %block_40515d ], [ %300, %block_.L_40521e ]
  %MEMORY.0 = phi %struct.Memory* [ %call2_405161, %block_40515d ], [ %call2_405252, %block_.L_40521e ]
  %122 = add i64 %121, 5
  br label %block_.L_405182

block_.L_405182:                                  ; preds = %block_.L_4051ac, %block_.L_40517d
  %storemerge = phi i64 [ %122, %block_.L_40517d ], [ %174, %block_.L_4051ac ]
  %MEMORY.1 = phi %struct.Memory* [ %MEMORY.0, %block_.L_40517d ], [ %call2_40519a, %block_.L_4051ac ]
  %123 = load i64, i64* %RBP.i, align 8
  %124 = add i64 %123, -40
  store i64 %124, i64* %RDI.i189, align 8
  %125 = add i64 %storemerge, 318
  %126 = add i64 %storemerge, 9
  %127 = load i64, i64* %6, align 8
  %128 = add i64 %127, -8
  %129 = inttoptr i64 %128 to i64*
  store i64 %126, i64* %129, align 8
  store i64 %128, i64* %6, align 8
  store i64 %125, i64* %3, align 8
  %call2_405186 = tail call %struct.Memory* @sub_4052c0._ZmmI12ValueWrapperIdEER14PointerWrapperIT_ES5_(%struct.State* nonnull %0, i64 %125, %struct.Memory* %MEMORY.1)
  %130 = load i64, i64* %RAX.i195, align 8
  %131 = load i64, i64* %3, align 8
  store i64 %130, i64* %RDI.i189, align 8
  %132 = add i64 %131, -5307
  %133 = add i64 %131, 8
  %134 = load i64, i64* %6, align 8
  %135 = add i64 %134, -8
  %136 = inttoptr i64 %135 to i64*
  store i64 %133, i64* %136, align 8
  store i64 %135, i64* %6, align 8
  store i64 %132, i64* %3, align 8
  %call2_40518e = tail call %struct.Memory* @sub_403cd0._ZNK14PointerWrapperI12ValueWrapperIdEEdeEv(%struct.State* nonnull %0, i64 %132, %struct.Memory* %call2_405186)
  %137 = load i64, i64* %RBP.i, align 8
  %138 = add i64 %137, -24
  %139 = load i64, i64* %3, align 8
  store i64 %138, i64* %RDI.i189, align 8
  %140 = load i64, i64* %RAX.i195, align 8
  store i64 %140, i64* %RSI.i186, align 8
  %141 = add i64 %139, -8003
  %142 = add i64 %139, 12
  %143 = load i64, i64* %6, align 8
  %144 = add i64 %143, -8
  %145 = inttoptr i64 %144 to i64*
  store i64 %142, i64* %145, align 8
  store i64 %144, i64* %6, align 8
  store i64 %141, i64* %3, align 8
  %call2_40519a = tail call %struct.Memory* @sub_403250._ZltIdEbRK12ValueWrapperIT_ES4_(%struct.State* nonnull %0, i64 %141, %struct.Memory* %call2_40518e)
  %146 = load i8, i8* %AL.i137, align 1
  %147 = load i64, i64* %3, align 8
  %148 = and i8 %146, 1
  store i8 0, i8* %14, align 1
  %149 = zext i8 %148 to i32
  %150 = tail call i32 @llvm.ctpop.i32(i32 %149)
  %151 = trunc i32 %150 to i8
  %152 = xor i8 %151, 1
  store i8 %152, i8* %21, align 1
  %153 = xor i8 %148, 1
  store i8 %153, i8* %29, align 1
  store i8 0, i8* %32, align 1
  store i8 0, i8* %38, align 1
  store i8 0, i8* %26, align 1
  %154 = icmp eq i8 %153, 0
  %.v18 = select i1 %154, i64 13, i64 8
  %155 = add i64 %147, %.v18
  store i64 %155, i64* %3, align 8
  br i1 %154, label %block_.L_4051ac, label %block_4051a7

block_4051a7:                                     ; preds = %block_.L_405182
  %156 = load i64, i64* %RBP.i, align 8
  %157 = add i64 %156, -32
  store i64 %157, i64* %RDI.i189, align 8
  %158 = add i64 %156, -40
  store i64 %158, i64* %RSI.i186, align 8
  %159 = add i64 %155, 313
  %160 = add i64 %155, 23
  %161 = load i64, i64* %6, align 8
  %162 = add i64 %161, -8
  %163 = inttoptr i64 %162 to i64*
  store i64 %160, i64* %163, align 8
  store i64 %162, i64* %6, align 8
  store i64 %159, i64* %3, align 8
  %call2_4051b9 = tail call %struct.Memory* @sub_4052e0._ZltI12ValueWrapperIdEEbRK14PointerWrapperIT_ES6_(%struct.State* nonnull %0, i64 %159, %struct.Memory* %call2_40519a)
  %164 = load i8, i8* %AL.i137, align 1
  %165 = load i64, i64* %3, align 8
  %166 = and i8 %164, 1
  store i8 0, i8* %14, align 1
  %167 = zext i8 %166 to i32
  %168 = tail call i32 @llvm.ctpop.i32(i32 %167)
  %169 = trunc i32 %168 to i8
  %170 = xor i8 %169, 1
  store i8 %170, i8* %21, align 1
  %171 = xor i8 %166, 1
  store i8 %171, i8* %29, align 1
  store i8 0, i8* %32, align 1
  store i8 0, i8* %38, align 1
  store i8 0, i8* %26, align 1
  %172 = icmp eq i8 %171, 0
  %.v19 = select i1 %172, i64 13, i64 8
  %173 = add i64 %165, %.v19
  store i64 %173, i64* %3, align 8
  br i1 %172, label %block_.L_4051cb, label %block_4051c6

block_.L_4051ac:                                  ; preds = %block_.L_405182
  %174 = add i64 %155, -42
  %175 = add i64 %155, 5
  store i64 %175, i64* %3, align 8
  br label %block_.L_405182

block_4051c6:                                     ; preds = %block_4051a7
  %176 = add i64 %173, 157
  br label %block_.L_405263

block_.L_4051cb:                                  ; preds = %block_4051a7
  %177 = add i64 %173, 5
  br label %block_.L_4051d0

block_.L_4051d0:                                  ; preds = %block_.L_4051f2, %block_.L_4051cb
  %storemerge6 = phi i64 [ %177, %block_.L_4051cb ], [ %234, %block_.L_4051f2 ]
  %MEMORY.2 = phi %struct.Memory* [ %call2_4051b9, %block_.L_4051cb ], [ %call2_4051f6, %block_.L_4051f2 ]
  %178 = load i64, i64* %RBP.i, align 8
  %179 = add i64 %178, -32
  store i64 %179, i64* %RDI.i189, align 8
  %180 = add i64 %storemerge6, -5376
  %181 = add i64 %storemerge6, 9
  %182 = load i64, i64* %6, align 8
  %183 = add i64 %182, -8
  %184 = inttoptr i64 %183 to i64*
  store i64 %181, i64* %184, align 8
  store i64 %183, i64* %6, align 8
  store i64 %180, i64* %3, align 8
  %call2_4051d4 = tail call %struct.Memory* @sub_403cd0._ZNK14PointerWrapperI12ValueWrapperIdEEdeEv(%struct.State* nonnull %0, i64 %180, %struct.Memory* %MEMORY.2)
  %185 = load i64, i64* %RBP.i, align 8
  %186 = add i64 %185, -24
  %187 = load i64, i64* %3, align 8
  store i64 %186, i64* %RSI.i186, align 8
  %188 = load i64, i64* %RAX.i195, align 8
  store i64 %188, i64* %RDI.i189, align 8
  %189 = add i64 %187, -8073
  %190 = add i64 %187, 12
  %191 = load i64, i64* %6, align 8
  %192 = add i64 %191, -8
  %193 = inttoptr i64 %192 to i64*
  store i64 %190, i64* %193, align 8
  store i64 %192, i64* %6, align 8
  store i64 %189, i64* %3, align 8
  %call2_4051e0 = tail call %struct.Memory* @sub_403250._ZltIdEbRK12ValueWrapperIT_ES4_(%struct.State* nonnull %0, i64 %189, %struct.Memory* %call2_4051d4)
  %194 = load i8, i8* %AL.i137, align 1
  %195 = load i64, i64* %3, align 8
  %196 = and i8 %194, 1
  store i8 0, i8* %14, align 1
  %197 = zext i8 %196 to i32
  %198 = tail call i32 @llvm.ctpop.i32(i32 %197)
  %199 = trunc i32 %198 to i8
  %200 = xor i8 %199, 1
  store i8 %200, i8* %21, align 1
  %201 = xor i8 %196, 1
  store i8 %201, i8* %29, align 1
  store i8 0, i8* %32, align 1
  store i8 0, i8* %38, align 1
  store i8 0, i8* %26, align 1
  %202 = icmp eq i8 %201, 0
  %.v20 = select i1 %202, i64 13, i64 8
  %203 = add i64 %195, %.v20
  store i64 %203, i64* %3, align 8
  %204 = load i64, i64* %RBP.i, align 8
  %205 = add i64 %204, -32
  store i64 %205, i64* %RDI.i189, align 8
  br i1 %202, label %block_.L_4051f2, label %block_4051ed

block_4051ed:                                     ; preds = %block_.L_4051d0
  %206 = add i64 %204, -40
  store i64 %206, i64* %RSI.i186, align 8
  %207 = add i64 %203, 243
  %208 = add i64 %203, 36
  %209 = load i64, i64* %6, align 8
  %210 = add i64 %209, -8
  %211 = inttoptr i64 %210 to i64*
  store i64 %208, i64* %211, align 8
  store i64 %210, i64* %6, align 8
  store i64 %207, i64* %3, align 8
  %call2_40520c = tail call %struct.Memory* @sub_4052e0._ZltI12ValueWrapperIdEEbRK14PointerWrapperIT_ES6_(%struct.State* nonnull %0, i64 %207, %struct.Memory* %call2_4051e0)
  %212 = load i8, i8* %AL.i137, align 1
  %213 = load i64, i64* %3, align 8
  %214 = and i8 %212, 1
  store i8 0, i8* %14, align 1
  %215 = zext i8 %214 to i32
  %216 = tail call i32 @llvm.ctpop.i32(i32 %215)
  %217 = trunc i32 %216 to i8
  %218 = xor i8 %217, 1
  store i8 %218, i8* %21, align 1
  %219 = xor i8 %214, 1
  store i8 %219, i8* %29, align 1
  store i8 0, i8* %32, align 1
  store i8 0, i8* %38, align 1
  store i8 0, i8* %26, align 1
  %220 = icmp eq i8 %219, 0
  %.v21 = select i1 %220, i64 13, i64 8
  %221 = add i64 %213, %.v21
  store i64 %221, i64* %3, align 8
  br i1 %220, label %block_.L_40521e, label %block_405219

block_.L_4051f2:                                  ; preds = %block_.L_4051d0
  %222 = add i64 %203, -5378
  %223 = add i64 %203, 9
  %224 = load i64, i64* %6, align 8
  %225 = add i64 %224, -8
  %226 = inttoptr i64 %225 to i64*
  store i64 %223, i64* %226, align 8
  store i64 %225, i64* %6, align 8
  store i64 %222, i64* %3, align 8
  %call2_4051f6 = tail call %struct.Memory* @sub_403cf0._ZppI12ValueWrapperIdEER14PointerWrapperIT_ES5_(%struct.State* nonnull %0, i64 %222, %struct.Memory* %call2_4051e0)
  %227 = load i64, i64* %RBP.i, align 8
  %228 = add i64 %227, -88
  %229 = load i64, i64* %RAX.i195, align 8
  %230 = load i64, i64* %3, align 8
  %231 = add i64 %230, 4
  store i64 %231, i64* %3, align 8
  %232 = inttoptr i64 %228 to i64*
  store i64 %229, i64* %232, align 8
  %233 = load i64, i64* %3, align 8
  %234 = add i64 %233, -47
  %235 = add i64 %233, 5
  store i64 %235, i64* %3, align 8
  br label %block_.L_4051d0

block_405219:                                     ; preds = %block_4051ed
  %236 = add i64 %221, 74
  %237 = add i64 %221, 5
  store i64 %237, i64* %3, align 8
  br label %block_.L_405263

block_.L_40521e:                                  ; preds = %block_4051ed
  %238 = load i64, i64* %RBP.i, align 8
  %239 = add i64 %238, -40
  store i64 %239, i64* %RDI.i189, align 8
  %240 = add i64 %221, -5454
  %241 = add i64 %221, 9
  %242 = load i64, i64* %6, align 8
  %243 = add i64 %242, -8
  %244 = inttoptr i64 %243 to i64*
  store i64 %241, i64* %244, align 8
  store i64 %243, i64* %6, align 8
  store i64 %240, i64* %3, align 8
  %call2_405222 = tail call %struct.Memory* @sub_403cd0._ZNK14PointerWrapperI12ValueWrapperIdEEdeEv(%struct.State* nonnull %0, i64 %240, %struct.Memory* %call2_40520c)
  %245 = load i64, i64* %RBP.i, align 8
  %246 = add i64 %245, -32
  %247 = load i64, i64* %3, align 8
  store i64 %246, i64* %RDI.i189, align 8
  %248 = load i64*, i64** %94, align 8
  %249 = add i64 %247, 7
  store i64 %249, i64* %3, align 8
  %250 = load i64, i64* %248, align 8
  store i64 %250, i64* %RAX.i195, align 8
  %251 = add i64 %245, -48
  %252 = add i64 %247, 11
  store i64 %252, i64* %3, align 8
  %253 = inttoptr i64 %251 to i64*
  store i64 %250, i64* %253, align 8
  %254 = load i64, i64* %3, align 8
  %255 = add i64 %254, -5474
  %256 = add i64 %254, 5
  %257 = load i64, i64* %6, align 8
  %258 = add i64 %257, -8
  %259 = inttoptr i64 %258 to i64*
  store i64 %256, i64* %259, align 8
  store i64 %258, i64* %6, align 8
  store i64 %255, i64* %3, align 8
  %call2_405232 = tail call %struct.Memory* @sub_403cd0._ZNK14PointerWrapperI12ValueWrapperIdEEdeEv(%struct.State* nonnull %0, i64 %255, %struct.Memory* %call2_405222)
  %260 = load i64, i64* %RBP.i, align 8
  %261 = add i64 %260, -40
  %262 = load i64, i64* %3, align 8
  store i64 %261, i64* %RDI.i189, align 8
  %263 = add i64 %260, -96
  %264 = load i64, i64* %RAX.i195, align 8
  %265 = add i64 %262, 8
  store i64 %265, i64* %3, align 8
  %266 = inttoptr i64 %263 to i64*
  store i64 %264, i64* %266, align 8
  %267 = load i64, i64* %3, align 8
  %268 = add i64 %267, -5487
  %269 = add i64 %267, 5
  %270 = load i64, i64* %6, align 8
  %271 = add i64 %270, -8
  %272 = inttoptr i64 %271 to i64*
  store i64 %269, i64* %272, align 8
  store i64 %271, i64* %6, align 8
  store i64 %268, i64* %3, align 8
  %call2_40523f = tail call %struct.Memory* @sub_403cd0._ZNK14PointerWrapperI12ValueWrapperIdEEdeEv(%struct.State* nonnull %0, i64 %268, %struct.Memory* %call2_405232)
  %273 = load i64, i64* %RBP.i, align 8
  %274 = add i64 %273, -32
  %275 = load i64, i64* %3, align 8
  store i64 %274, i64* %RDI.i189, align 8
  %276 = add i64 %273, -96
  %277 = add i64 %275, 8
  store i64 %277, i64* %3, align 8
  %278 = inttoptr i64 %276 to i64*
  %279 = load i64, i64* %278, align 8
  store i64 %279, i64* %RCX.i192, align 8
  %280 = add i64 %275, 11
  store i64 %280, i64* %3, align 8
  %281 = inttoptr i64 %279 to i64*
  %282 = load i64, i64* %281, align 8
  store i64 %282, i64* %RDX.i61, align 8
  %283 = load i64*, i64** %94, align 8
  %284 = add i64 %275, 14
  store i64 %284, i64* %3, align 8
  store i64 %282, i64* %283, align 8
  %285 = load i64, i64* %3, align 8
  %286 = add i64 %285, -5506
  %287 = add i64 %285, 5
  %288 = load i64, i64* %6, align 8
  %289 = add i64 %288, -8
  %290 = inttoptr i64 %289 to i64*
  store i64 %287, i64* %290, align 8
  store i64 %289, i64* %6, align 8
  store i64 %286, i64* %3, align 8
  %call2_405252 = tail call %struct.Memory* @sub_403cd0._ZNK14PointerWrapperI12ValueWrapperIdEEdeEv(%struct.State* nonnull %0, i64 %286, %struct.Memory* %call2_40523f)
  %291 = load i64, i64* %RBP.i, align 8
  %292 = add i64 %291, -48
  %293 = load i64, i64* %3, align 8
  %294 = add i64 %293, 4
  store i64 %294, i64* %3, align 8
  %295 = inttoptr i64 %292 to i64*
  %296 = load i64, i64* %295, align 8
  store i64 %296, i64* %RCX.i192, align 8
  %297 = load i64*, i64** %94, align 8
  %298 = add i64 %293, 7
  store i64 %298, i64* %3, align 8
  store i64 %296, i64* %297, align 8
  %299 = load i64, i64* %3, align 8
  %300 = add i64 %299, -225
  store i64 %300, i64* %3, align 8
  br label %block_.L_40517d

block_.L_405263:                                  ; preds = %block_405219, %block_4051c6
  %storemerge5 = phi i64 [ %176, %block_4051c6 ], [ %236, %block_405219 ]
  %MEMORY.3 = phi %struct.Memory* [ %call2_4051b9, %block_4051c6 ], [ %call2_40520c, %block_405219 ]
  %301 = load i64, i64* %RBP.i, align 8
  %302 = add i64 %301, -40
  store i64 %302, i64* %RDI.i189, align 8
  store i64 1, i64* %RAX.i195, align 8
  store i64 1, i64* %RSI.i186, align 8
  %303 = add i64 %301, -8
  %304 = add i64 %storemerge5, 15
  store i64 %304, i64* %3, align 8
  %305 = inttoptr i64 %303 to i64*
  %306 = load i64, i64* %305, align 8
  store i64 %306, i64* %RCX.i192, align 8
  %307 = add i64 %301, -56
  %308 = add i64 %storemerge5, 19
  store i64 %308, i64* %3, align 8
  %309 = inttoptr i64 %307 to i64*
  store i64 %306, i64* %309, align 8
  %310 = load i64, i64* %3, align 8
  %311 = add i64 %310, -5430
  %312 = add i64 %310, 5
  %313 = load i64, i64* %6, align 8
  %314 = add i64 %313, -8
  %315 = inttoptr i64 %314 to i64*
  store i64 %312, i64* %315, align 8
  store i64 %314, i64* %6, align 8
  store i64 %311, i64* %3, align 8
  %call2_405276 = tail call %struct.Memory* @sub_403d40._ZplI12ValueWrapperIdEE14PointerWrapperIT_ERS4_l(%struct.State* nonnull %0, i64 %311, %struct.Memory* %MEMORY.3)
  %316 = load i64, i64* %RBP.i, align 8
  %317 = add i64 %316, -64
  %318 = load i64, i64* %RAX.i195, align 8
  %319 = load i64, i64* %3, align 8
  %320 = add i64 %319, 4
  store i64 %320, i64* %3, align 8
  %321 = inttoptr i64 %317 to i64*
  store i64 %318, i64* %321, align 8
  %322 = load i64, i64* %RBP.i, align 8
  %323 = add i64 %322, -56
  %324 = load i64, i64* %3, align 8
  %325 = add i64 %324, 4
  store i64 %325, i64* %3, align 8
  %326 = inttoptr i64 %323 to i64*
  %327 = load i64, i64* %326, align 8
  store i64 %327, i64* %RDI.i189, align 8
  %328 = add i64 %322, -64
  %329 = add i64 %324, 8
  store i64 %329, i64* %3, align 8
  %330 = inttoptr i64 %328 to i64*
  %331 = load i64, i64* %330, align 8
  store i64 %331, i64* %RSI.i186, align 8
  %332 = add i64 %324, -335
  %333 = add i64 %324, 13
  %334 = load i64, i64* %6, align 8
  %335 = add i64 %334, -8
  %336 = inttoptr i64 %335 to i64*
  store i64 %333, i64* %336, align 8
  store i64 %335, i64* %6, align 8
  store i64 %332, i64* %3, align 8
  %call2_405287 = tail call %struct.Memory* @sub_405130._ZN9benchmark9quicksortI14PointerWrapperI12ValueWrapperIdEES3_EEvT_S5_(%struct.State* nonnull %0, i64 %332, %struct.Memory* %call2_405276)
  %337 = load i64, i64* %RBP.i, align 8
  %338 = add i64 %337, -40
  %339 = load i64, i64* %3, align 8
  store i64 %338, i64* %RDI.i189, align 8
  %RDX.i = getelementptr inbounds %struct.State, %struct.State* %0, i64 0, i32 6, i32 7, i32 0, i32 0
  store i64 1, i64* %RDX.i, align 8
  store i64 1, i64* %RSI.i186, align 8
  %340 = add i64 %339, -5452
  %341 = add i64 %339, 16
  %342 = load i64, i64* %6, align 8
  %343 = add i64 %342, -8
  %344 = inttoptr i64 %343 to i64*
  store i64 %341, i64* %344, align 8
  store i64 %343, i64* %6, align 8
  store i64 %340, i64* %3, align 8
  %call2_405297 = tail call %struct.Memory* @sub_403d40._ZplI12ValueWrapperIdEE14PointerWrapperIT_ERS4_l(%struct.State* nonnull %0, i64 %340, %struct.Memory* %call2_405287)
  %345 = load i64, i64* %RBP.i, align 8
  %346 = add i64 %345, -72
  %347 = load i64, i64* %RAX.i195, align 8
  %348 = load i64, i64* %3, align 8
  %349 = add i64 %348, 4
  store i64 %349, i64* %3, align 8
  %350 = inttoptr i64 %346 to i64*
  store i64 %347, i64* %350, align 8
  %351 = load i64, i64* %RBP.i, align 8
  %352 = add i64 %351, -16
  %353 = load i64, i64* %3, align 8
  %354 = add i64 %353, 4
  store i64 %354, i64* %3, align 8
  %355 = inttoptr i64 %352 to i64*
  %356 = load i64, i64* %355, align 8
  store i64 %356, i64* %RAX.i195, align 8
  %357 = add i64 %351, -80
  %358 = add i64 %353, 8
  store i64 %358, i64* %3, align 8
  %359 = inttoptr i64 %357 to i64*
  store i64 %356, i64* %359, align 8
  %360 = load i64, i64* %RBP.i, align 8
  %361 = add i64 %360, -72
  %362 = load i64, i64* %3, align 8
  %363 = add i64 %362, 4
  store i64 %363, i64* %3, align 8
  %364 = inttoptr i64 %361 to i64*
  %365 = load i64, i64* %364, align 8
  store i64 %365, i64* %RDI.i189, align 8
  %366 = add i64 %360, -80
  %367 = add i64 %362, 8
  store i64 %367, i64* %3, align 8
  %368 = inttoptr i64 %366 to i64*
  %369 = load i64, i64* %368, align 8
  store i64 %369, i64* %RSI.i186, align 8
  %370 = add i64 %362, -376
  %371 = add i64 %362, 13
  %372 = load i64, i64* %6, align 8
  %373 = add i64 %372, -8
  %374 = inttoptr i64 %373 to i64*
  store i64 %371, i64* %374, align 8
  store i64 %373, i64* %6, align 8
  store i64 %370, i64* %3, align 8
  %call2_4052b0 = tail call %struct.Memory* @sub_405130._ZN9benchmark9quicksortI14PointerWrapperI12ValueWrapperIdEES3_EEvT_S5_(%struct.State* nonnull %0, i64 %370, %struct.Memory* %call2_405297)
  %.pre17 = load i64, i64* %3, align 8
  br label %block_.L_4052b5

block_.L_4052b5:                                  ; preds = %block_.L_405263, %entry
  %375 = phi i64 [ %86, %entry ], [ %.pre17, %block_.L_405263 ]
  %MEMORY.4 = phi %struct.Memory* [ %call2_40514e, %entry ], [ %call2_4052b0, %block_.L_405263 ]
  %376 = load i64, i64* %6, align 8
  %377 = add i64 %376, 96
  store i64 %377, i64* %6, align 8
  %378 = icmp ugt i64 %376, -97
  %379 = zext i1 %378 to i8
  store i8 %379, i8* %14, align 1
  %380 = trunc i64 %377 to i32
  %381 = and i32 %380, 255
  %382 = tail call i32 @llvm.ctpop.i32(i32 %381)
  %383 = trunc i32 %382 to i8
  %384 = and i8 %383, 1
  %385 = xor i8 %384, 1
  store i8 %385, i8* %21, align 1
  %386 = xor i64 %377, %376
  %387 = lshr i64 %386, 4
  %388 = trunc i64 %387 to i8
  %389 = and i8 %388, 1
  store i8 %389, i8* %26, align 1
  %390 = icmp eq i64 %377, 0
  %391 = zext i1 %390 to i8
  store i8 %391, i8* %29, align 1
  %392 = lshr i64 %377, 63
  %393 = trunc i64 %392 to i8
  store i8 %393, i8* %32, align 1
  %394 = lshr i64 %376, 63
  %395 = xor i64 %392, %394
  %396 = add nuw nsw i64 %395, %392
  %397 = icmp eq i64 %396, 2
  %398 = zext i1 %397 to i8
  store i8 %398, i8* %38, align 1
  %399 = add i64 %375, 5
  store i64 %399, i64* %3, align 8
  %400 = add i64 %376, 104
  %401 = inttoptr i64 %377 to i64*
  %402 = load i64, i64* %401, align 8
  store i64 %402, i64* %RBP.i, align 8
  store i64 %400, i64* %6, align 8
  %403 = add i64 %375, 6
  store i64 %403, i64* %3, align 8
  %404 = inttoptr i64 %400 to i64*
  %405 = load i64, i64* %404, align 8
  store i64 %405, i64* %3, align 8
  %406 = add i64 %376, 112
  store i64 %406, i64* %6, align 8
  ret %struct.Memory* %MEMORY.4
}

; Function Attrs: norecurse nounwind
define %struct.Memory* @routine_pushq__rbp(%struct.State* nocapture dereferenceable(3376), i64, %struct.Memory* readnone returned) local_unnamed_addr #2 {
block_400488:
  %PC = getelementptr inbounds %struct.State, %struct.State* %0, i64 0, i32 6, i32 33, i32 0, i32 0
  %RBP = getelementptr inbounds %struct.State, %struct.State* %0, i64 0, i32 6, i32 15, i32 0, i32 0
  %3 = load i64, i64* %RBP, align 8
  %4 = load i64, i64* %PC, align 8
  %5 = add i64 %4, 1
  store i64 %5, i64* %PC, align 8
  %6 = getelementptr inbounds %struct.State, %struct.State* %0, i64 0, i32 6, i32 13, i32 0, i32 0
  %7 = load i64, i64* %6, align 8
  %8 = add i64 %7, -8
  %9 = inttoptr i64 %8 to i64*
  store i64 %3, i64* %9, align 8
  store i64 %8, i64* %6, align 8
  ret %struct.Memory* %2
}

; Function Attrs: norecurse nounwind
define %struct.Memory* @routine_movq__rsp___rbp(%struct.State* nocapture dereferenceable(3376), i64, %struct.Memory* readnone returned) local_unnamed_addr #2 {
block_400488:
  %PC = getelementptr inbounds %struct.State, %struct.State* %0, i64 0, i32 6, i32 33, i32 0, i32 0
  %RSP = getelementptr inbounds %struct.State, %struct.State* %0, i64 0, i32 6, i32 13, i32 0, i32 0
  %RBP = getelementptr inbounds %struct.State, %struct.State* %0, i64 0, i32 6, i32 15, i32 0, i32 0
  %3 = load i64, i64* %RSP, align 8
  %4 = load i64, i64* %PC, align 8
  %5 = add i64 %4, 3
  store i64 %5, i64* %PC, align 8
  store i64 %3, i64* %RBP, align 8
  ret %struct.Memory* %2
}

; Function Attrs: nounwind
define %struct.Memory* @routine_subq__0x60___rsp(%struct.State* nocapture dereferenceable(3376), i64, %struct.Memory* readnone returned) local_unnamed_addr #3 {
block_400488:
  %PC = getelementptr inbounds %struct.State, %struct.State* %0, i64 0, i32 6, i32 33, i32 0, i32 0
  %RSP = getelementptr inbounds %struct.State, %struct.State* %0, i64 0, i32 6, i32 13, i32 0, i32 0
  %3 = load i64, i64* %RSP, align 8
  %4 = load i64, i64* %PC, align 8
  %5 = add i64 %4, 4
  store i64 %5, i64* %PC, align 8
  %6 = add i64 %3, -96
  store i64 %6, i64* %RSP, align 8
  %7 = icmp ult i64 %3, 96
  %8 = zext i1 %7 to i8
  %9 = getelementptr inbounds %struct.State, %struct.State* %0, i64 0, i32 2, i32 1
  store i8 %8, i8* %9, align 1
  %10 = trunc i64 %6 to i32
  %11 = and i32 %10, 255
  %12 = tail call i32 @llvm.ctpop.i32(i32 %11)
  %13 = trunc i32 %12 to i8
  %14 = and i8 %13, 1
  %15 = xor i8 %14, 1
  %16 = getelementptr inbounds %struct.State, %struct.State* %0, i64 0, i32 2, i32 3
  store i8 %15, i8* %16, align 1
  %17 = xor i64 %6, %3
  %18 = lshr i64 %17, 4
  %19 = trunc i64 %18 to i8
  %20 = and i8 %19, 1
  %21 = getelementptr inbounds %struct.State, %struct.State* %0, i64 0, i32 2, i32 5
  store i8 %20, i8* %21, align 1
  %22 = icmp eq i64 %6, 0
  %23 = zext i1 %22 to i8
  %24 = getelementptr inbounds %struct.State, %struct.State* %0, i64 0, i32 2, i32 7
  store i8 %23, i8* %24, align 1
  %25 = lshr i64 %6, 63
  %26 = trunc i64 %25 to i8
  %27 = getelementptr inbounds %struct.State, %struct.State* %0, i64 0, i32 2, i32 9
  store i8 %26, i8* %27, align 1
  %28 = lshr i64 %3, 63
  %29 = xor i64 %25, %28
  %30 = add nuw nsw i64 %29, %28
  %31 = icmp eq i64 %30, 2
  %32 = zext i1 %31 to i8
  %33 = getelementptr inbounds %struct.State, %struct.State* %0, i64 0, i32 2, i32 13
  store i8 %32, i8* %33, align 1
  ret %struct.Memory* %2
}

; Function Attrs: norecurse nounwind
define %struct.Memory* @routine_leaq_MINUS0x10__rbp____rax(%struct.State* nocapture dereferenceable(3376), i64, %struct.Memory* readnone returned) local_unnamed_addr #2 {
block_400488:
  %PC = getelementptr inbounds %struct.State, %struct.State* %0, i64 0, i32 6, i32 33, i32 0, i32 0
  %RAX = getelementptr inbounds %struct.State, %struct.State* %0, i64 0, i32 6, i32 1, i32 0, i32 0
  %RBP = getelementptr inbounds %struct.State, %struct.State* %0, i64 0, i32 6, i32 15, i32 0, i32 0
  %3 = load i64, i64* %RBP, align 8
  %4 = add i64 %3, -16
  %5 = load i64, i64* %PC, align 8
  %6 = add i64 %5, 4
  store i64 %6, i64* %PC, align 8
  store i64 %4, i64* %RAX, align 8
  ret %struct.Memory* %2
}

; Function Attrs: norecurse nounwind
define %struct.Memory* @routine_leaq_MINUS0x8__rbp____rcx(%struct.State* nocapture dereferenceable(3376), i64, %struct.Memory* readnone returned) local_unnamed_addr #2 {
block_400488:
  %PC = getelementptr inbounds %struct.State, %struct.State* %0, i64 0, i32 6, i32 33, i32 0, i32 0
  %RCX = getelementptr inbounds %struct.State, %struct.State* %0, i64 0, i32 6, i32 5, i32 0, i32 0
  %RBP = getelementptr inbounds %struct.State, %struct.State* %0, i64 0, i32 6, i32 15, i32 0, i32 0
  %3 = load i64, i64* %RBP, align 8
  %4 = add i64 %3, -8
  %5 = load i64, i64* %PC, align 8
  %6 = add i64 %5, 4
  store i64 %6, i64* %PC, align 8
  store i64 %4, i64* %RCX, align 8
  ret %struct.Memory* %2
}

; Function Attrs: norecurse nounwind
define %struct.Memory* @routine_movq__rdi__MINUS0x8__rbp_(%struct.State* nocapture dereferenceable(3376), i64, %struct.Memory* readnone returned) local_unnamed_addr #2 {
block_400488:
  %PC = getelementptr inbounds %struct.State, %struct.State* %0, i64 0, i32 6, i32 33, i32 0, i32 0
  %RDI = getelementptr inbounds %struct.State, %struct.State* %0, i64 0, i32 6, i32 11, i32 0, i32 0
  %RBP = getelementptr inbounds %struct.State, %struct.State* %0, i64 0, i32 6, i32 15, i32 0, i32 0
  %3 = load i64, i64* %RBP, align 8
  %4 = add i64 %3, -8
  %5 = load i64, i64* %RDI, align 8
  %6 = load i64, i64* %PC, align 8
  %7 = add i64 %6, 4
  store i64 %7, i64* %PC, align 8
  %8 = inttoptr i64 %4 to i64*
  store i64 %5, i64* %8, align 8
  ret %struct.Memory* %2
}

; Function Attrs: norecurse nounwind
define %struct.Memory* @routine_movq__rsi__MINUS0x10__rbp_(%struct.State* nocapture dereferenceable(3376), i64, %struct.Memory* readnone returned) local_unnamed_addr #2 {
block_400488:
  %PC = getelementptr inbounds %struct.State, %struct.State* %0, i64 0, i32 6, i32 33, i32 0, i32 0
  %RSI = getelementptr inbounds %struct.State, %struct.State* %0, i64 0, i32 6, i32 9, i32 0, i32 0
  %RBP = getelementptr inbounds %struct.State, %struct.State* %0, i64 0, i32 6, i32 15, i32 0, i32 0
  %3 = load i64, i64* %RBP, align 8
  %4 = add i64 %3, -16
  %5 = load i64, i64* %RSI, align 8
  %6 = load i64, i64* %PC, align 8
  %7 = add i64 %6, 4
  store i64 %7, i64* %PC, align 8
  %8 = inttoptr i64 %4 to i64*
  store i64 %5, i64* %8, align 8
  ret %struct.Memory* %2
}

; Function Attrs: norecurse nounwind
define %struct.Memory* @routine_movq__rax___rdi(%struct.State* nocapture dereferenceable(3376), i64, %struct.Memory* readnone returned) local_unnamed_addr #2 {
block_400488:
  %PC = getelementptr inbounds %struct.State, %struct.State* %0, i64 0, i32 6, i32 33, i32 0, i32 0
  %RAX = getelementptr inbounds %struct.State, %struct.State* %0, i64 0, i32 6, i32 1, i32 0, i32 0
  %RDI = getelementptr inbounds %struct.State, %struct.State* %0, i64 0, i32 6, i32 11, i32 0, i32 0
  %3 = load i64, i64* %RAX, align 8
  %4 = load i64, i64* %PC, align 8
  %5 = add i64 %4, 3
  store i64 %5, i64* %PC, align 8
  store i64 %3, i64* %RDI, align 8
  ret %struct.Memory* %2
}

; Function Attrs: norecurse nounwind
define %struct.Memory* @routine_movq__rcx___rsi(%struct.State* nocapture dereferenceable(3376), i64, %struct.Memory* readnone returned) local_unnamed_addr #2 {
block_400488:
  %PC = getelementptr inbounds %struct.State, %struct.State* %0, i64 0, i32 6, i32 33, i32 0, i32 0
  %RCX = getelementptr inbounds %struct.State, %struct.State* %0, i64 0, i32 6, i32 5, i32 0, i32 0
  %RSI = getelementptr inbounds %struct.State, %struct.State* %0, i64 0, i32 6, i32 9, i32 0, i32 0
  %3 = load i64, i64* %RCX, align 8
  %4 = load i64, i64* %PC, align 8
  %5 = add i64 %4, 3
  store i64 %5, i64* %PC, align 8
  store i64 %3, i64* %RSI, align 8
  ret %struct.Memory* %2
}

; Function Attrs: norecurse nounwind
define %struct.Memory* @routine_callq_._ZmiI12ValueWrapperIdEElR14PointerWrapperIT_ES5_(%struct.State* nocapture dereferenceable(3376), i64, %struct.Memory* readnone returned, i64 %rel_off1, i64 %rel_off2, i64 %rel_off3) local_unnamed_addr #2 {
block_400488:
  %PC = getelementptr inbounds %struct.State, %struct.State* %0, i64 0, i32 6, i32 33, i32 0, i32 0
  %3 = load i64, i64* %PC, align 8
  %4 = add i64 %3, %rel_off1
  %5 = add i64 %3, %rel_off2
  %6 = getelementptr inbounds %struct.State, %struct.State* %0, i64 0, i32 6, i32 13, i32 0, i32 0
  %7 = load i64, i64* %6, align 8
  %8 = add i64 %7, -8
  %9 = inttoptr i64 %8 to i64*
  store i64 %5, i64* %9, align 8
  store i64 %8, i64* %6, align 8
  store i64 %4, i64* %PC, align 8
  ret %struct.Memory* %2
}

; Function Attrs: nounwind
define %struct.Memory* @routine_cmpq__0x1___rax(%struct.State* nocapture dereferenceable(3376), i64, %struct.Memory* readnone returned) local_unnamed_addr #3 {
block_400488:
  %PC = getelementptr inbounds %struct.State, %struct.State* %0, i64 0, i32 6, i32 33, i32 0, i32 0
  %RAX = getelementptr inbounds %struct.State, %struct.State* %0, i64 0, i32 6, i32 1, i32 0, i32 0
  %3 = load i64, i64* %RAX, align 8
  %4 = load i64, i64* %PC, align 8
  %5 = add i64 %4, 4
  store i64 %5, i64* %PC, align 8
  %6 = add i64 %3, -1
  %7 = icmp eq i64 %3, 0
  %8 = zext i1 %7 to i8
  %9 = getelementptr inbounds %struct.State, %struct.State* %0, i64 0, i32 2, i32 1
  store i8 %8, i8* %9, align 1
  %10 = trunc i64 %6 to i32
  %11 = and i32 %10, 255
  %12 = tail call i32 @llvm.ctpop.i32(i32 %11)
  %13 = trunc i32 %12 to i8
  %14 = and i8 %13, 1
  %15 = xor i8 %14, 1
  %16 = getelementptr inbounds %struct.State, %struct.State* %0, i64 0, i32 2, i32 3
  store i8 %15, i8* %16, align 1
  %17 = xor i64 %6, %3
  %18 = lshr i64 %17, 4
  %19 = trunc i64 %18 to i8
  %20 = and i8 %19, 1
  %21 = getelementptr inbounds %struct.State, %struct.State* %0, i64 0, i32 2, i32 5
  store i8 %20, i8* %21, align 1
  %22 = icmp eq i64 %6, 0
  %23 = zext i1 %22 to i8
  %24 = getelementptr inbounds %struct.State, %struct.State* %0, i64 0, i32 2, i32 7
  store i8 %23, i8* %24, align 1
  %25 = lshr i64 %6, 63
  %26 = trunc i64 %25 to i8
  %27 = getelementptr inbounds %struct.State, %struct.State* %0, i64 0, i32 2, i32 9
  store i8 %26, i8* %27, align 1
  %28 = lshr i64 %3, 63
  %29 = xor i64 %25, %28
  %30 = add nuw nsw i64 %29, %28
  %31 = icmp eq i64 %30, 2
  %32 = zext i1 %31 to i8
  %33 = getelementptr inbounds %struct.State, %struct.State* %0, i64 0, i32 2, i32 13
  store i8 %32, i8* %33, align 1
  ret %struct.Memory* %2
}

; Function Attrs: norecurse nounwind
define %struct.Memory* @routine_jle_.L_4052b5(%struct.State* nocapture dereferenceable(3376), i64, %struct.Memory* readnone returned, i8* nocapture %BRANCH_TAKEN, i64 %rel_off1, i64 %rel_off2, i64 %rel_off3) local_unnamed_addr #2 {
block_400488:
  %PC = getelementptr inbounds %struct.State, %struct.State* %0, i64 0, i32 6, i32 33, i32 0, i32 0
  %3 = load i64, i64* %PC, align 8
  %4 = getelementptr inbounds %struct.State, %struct.State* %0, i64 0, i32 2, i32 7
  %5 = load i8, i8* %4, align 1
  %6 = icmp ne i8 %5, 0
  %7 = getelementptr inbounds %struct.State, %struct.State* %0, i64 0, i32 2, i32 9
  %8 = load i8, i8* %7, align 1
  %9 = icmp ne i8 %8, 0
  %10 = getelementptr inbounds %struct.State, %struct.State* %0, i64 0, i32 2, i32 13
  %11 = load i8, i8* %10, align 1
  %12 = icmp ne i8 %11, 0
  %13 = xor i1 %9, %12
  %14 = or i1 %6, %13
  %15 = zext i1 %14 to i8
  store i8 %15, i8* %BRANCH_TAKEN, align 1
  %.v = select i1 %14, i64 %rel_off1, i64 %rel_off2
  %16 = add i64 %.v, %3
  store i64 %16, i64* %PC, align 8
  ret %struct.Memory* %2
}

; Function Attrs: norecurse nounwind
define %struct.Memory* @routine_leaq_MINUS0x8__rbp____rdi(%struct.State* nocapture dereferenceable(3376), i64, %struct.Memory* readnone returned) local_unnamed_addr #2 {
block_400488:
  %PC = getelementptr inbounds %struct.State, %struct.State* %0, i64 0, i32 6, i32 33, i32 0, i32 0
  %RDI = getelementptr inbounds %struct.State, %struct.State* %0, i64 0, i32 6, i32 11, i32 0, i32 0
  %RBP = getelementptr inbounds %struct.State, %struct.State* %0, i64 0, i32 6, i32 15, i32 0, i32 0
  %3 = load i64, i64* %RBP, align 8
  %4 = add i64 %3, -8
  %5 = load i64, i64* %PC, align 8
  %6 = add i64 %5, 4
  store i64 %6, i64* %PC, align 8
  store i64 %4, i64* %RDI, align 8
  ret %struct.Memory* %2
}

; Function Attrs: norecurse nounwind
define %struct.Memory* @routine_callq_._ZNK14PointerWrapperI12ValueWrapperIdEEdeEv(%struct.State* nocapture dereferenceable(3376), i64, %struct.Memory* readnone returned, i64 %rel_off1, i64 %rel_off2, i64 %rel_off3) local_unnamed_addr #2 {
block_400488:
  %PC = getelementptr inbounds %struct.State, %struct.State* %0, i64 0, i32 6, i32 33, i32 0, i32 0
  %3 = load i64, i64* %PC, align 8
  %4 = add i64 %3, %rel_off1
  %5 = add i64 %3, %rel_off2
  %6 = getelementptr inbounds %struct.State, %struct.State* %0, i64 0, i32 6, i32 13, i32 0, i32 0
  %7 = load i64, i64* %6, align 8
  %8 = add i64 %7, -8
  %9 = inttoptr i64 %8 to i64*
  store i64 %5, i64* %9, align 8
  store i64 %8, i64* %6, align 8
  store i64 %4, i64* %PC, align 8
  ret %struct.Memory* %2
}

; Function Attrs: norecurse nounwind
define %struct.Memory* @routine_movq___rax____rax(%struct.State* nocapture dereferenceable(3376), i64, %struct.Memory* readnone returned) local_unnamed_addr #2 {
block_400488:
  %PC = getelementptr inbounds %struct.State, %struct.State* %0, i64 0, i32 6, i32 33, i32 0, i32 0
  %RAX = getelementptr inbounds %struct.State, %struct.State* %0, i64 0, i32 6, i32 1, i32 0, i32 0
  %3 = bitcast i64* %RAX to i64**
  %4 = load i64*, i64** %3, align 8
  %5 = load i64, i64* %PC, align 8
  %6 = add i64 %5, 3
  store i64 %6, i64* %PC, align 8
  %7 = load i64, i64* %4, align 8
  store i64 %7, i64* %RAX, align 8
  ret %struct.Memory* %2
}

; Function Attrs: norecurse nounwind
define %struct.Memory* @routine_movq__rax__MINUS0x18__rbp_(%struct.State* nocapture dereferenceable(3376), i64, %struct.Memory* readnone returned) local_unnamed_addr #2 {
block_400488:
  %PC = getelementptr inbounds %struct.State, %struct.State* %0, i64 0, i32 6, i32 33, i32 0, i32 0
  %RAX = getelementptr inbounds %struct.State, %struct.State* %0, i64 0, i32 6, i32 1, i32 0, i32 0
  %RBP = getelementptr inbounds %struct.State, %struct.State* %0, i64 0, i32 6, i32 15, i32 0, i32 0
  %3 = load i64, i64* %RBP, align 8
  %4 = add i64 %3, -24
  %5 = load i64, i64* %RAX, align 8
  %6 = load i64, i64* %PC, align 8
  %7 = add i64 %6, 4
  store i64 %7, i64* %PC, align 8
  %8 = inttoptr i64 %4 to i64*
  store i64 %5, i64* %8, align 8
  ret %struct.Memory* %2
}

; Function Attrs: norecurse nounwind
define %struct.Memory* @routine_movq_MINUS0x8__rbp____rax(%struct.State* nocapture dereferenceable(3376), i64, %struct.Memory* readnone returned) local_unnamed_addr #2 {
block_400488:
  %PC = getelementptr inbounds %struct.State, %struct.State* %0, i64 0, i32 6, i32 33, i32 0, i32 0
  %RAX = getelementptr inbounds %struct.State, %struct.State* %0, i64 0, i32 6, i32 1, i32 0, i32 0
  %RBP = getelementptr inbounds %struct.State, %struct.State* %0, i64 0, i32 6, i32 15, i32 0, i32 0
  %3 = load i64, i64* %RBP, align 8
  %4 = add i64 %3, -8
  %5 = load i64, i64* %PC, align 8
  %6 = add i64 %5, 4
  store i64 %6, i64* %PC, align 8
  %7 = inttoptr i64 %4 to i64*
  %8 = load i64, i64* %7, align 8
  store i64 %8, i64* %RAX, align 8
  ret %struct.Memory* %2
}

; Function Attrs: norecurse nounwind
define %struct.Memory* @routine_movq__rax__MINUS0x20__rbp_(%struct.State* nocapture dereferenceable(3376), i64, %struct.Memory* readnone returned) local_unnamed_addr #2 {
block_400488:
  %PC = getelementptr inbounds %struct.State, %struct.State* %0, i64 0, i32 6, i32 33, i32 0, i32 0
  %RAX = getelementptr inbounds %struct.State, %struct.State* %0, i64 0, i32 6, i32 1, i32 0, i32 0
  %RBP = getelementptr inbounds %struct.State, %struct.State* %0, i64 0, i32 6, i32 15, i32 0, i32 0
  %3 = load i64, i64* %RBP, align 8
  %4 = add i64 %3, -32
  %5 = load i64, i64* %RAX, align 8
  %6 = load i64, i64* %PC, align 8
  %7 = add i64 %6, 4
  store i64 %7, i64* %PC, align 8
  %8 = inttoptr i64 %4 to i64*
  store i64 %5, i64* %8, align 8
  ret %struct.Memory* %2
}

; Function Attrs: norecurse nounwind
define %struct.Memory* @routine_movq_MINUS0x10__rbp____rax(%struct.State* nocapture dereferenceable(3376), i64, %struct.Memory* readnone returned) local_unnamed_addr #2 {
block_400488:
  %PC = getelementptr inbounds %struct.State, %struct.State* %0, i64 0, i32 6, i32 33, i32 0, i32 0
  %RAX = getelementptr inbounds %struct.State, %struct.State* %0, i64 0, i32 6, i32 1, i32 0, i32 0
  %RBP = getelementptr inbounds %struct.State, %struct.State* %0, i64 0, i32 6, i32 15, i32 0, i32 0
  %3 = load i64, i64* %RBP, align 8
  %4 = add i64 %3, -16
  %5 = load i64, i64* %PC, align 8
  %6 = add i64 %5, 4
  store i64 %6, i64* %PC, align 8
  %7 = inttoptr i64 %4 to i64*
  %8 = load i64, i64* %7, align 8
  store i64 %8, i64* %RAX, align 8
  ret %struct.Memory* %2
}

; Function Attrs: norecurse nounwind
define %struct.Memory* @routine_movq__rax__MINUS0x28__rbp_(%struct.State* nocapture dereferenceable(3376), i64, %struct.Memory* readnone returned) local_unnamed_addr #2 {
block_400488:
  %PC = getelementptr inbounds %struct.State, %struct.State* %0, i64 0, i32 6, i32 33, i32 0, i32 0
  %RAX = getelementptr inbounds %struct.State, %struct.State* %0, i64 0, i32 6, i32 1, i32 0, i32 0
  %RBP = getelementptr inbounds %struct.State, %struct.State* %0, i64 0, i32 6, i32 15, i32 0, i32 0
  %3 = load i64, i64* %RBP, align 8
  %4 = add i64 %3, -40
  %5 = load i64, i64* %RAX, align 8
  %6 = load i64, i64* %PC, align 8
  %7 = add i64 %6, 4
  store i64 %7, i64* %PC, align 8
  %8 = inttoptr i64 %4 to i64*
  store i64 %5, i64* %8, align 8
  ret %struct.Memory* %2
}

; Function Attrs: norecurse nounwind
define %struct.Memory* @routine_jmpq_.L_405182(%struct.State* nocapture dereferenceable(3376), i64, %struct.Memory* readnone returned, i64 %rel_off1, i64 %rel_off2) local_unnamed_addr #2 {
block_400488:
  %PC = getelementptr inbounds %struct.State, %struct.State* %0, i64 0, i32 6, i32 33, i32 0, i32 0
  %3 = load i64, i64* %PC, align 8
  %4 = add i64 %3, %rel_off1
  store i64 %4, i64* %PC, align 8
  ret %struct.Memory* %2
}

; Function Attrs: norecurse nounwind
define %struct.Memory* @routine_leaq_MINUS0x28__rbp____rdi(%struct.State* nocapture dereferenceable(3376), i64, %struct.Memory* readnone returned) local_unnamed_addr #2 {
block_400488:
  %PC = getelementptr inbounds %struct.State, %struct.State* %0, i64 0, i32 6, i32 33, i32 0, i32 0
  %RDI = getelementptr inbounds %struct.State, %struct.State* %0, i64 0, i32 6, i32 11, i32 0, i32 0
  %RBP = getelementptr inbounds %struct.State, %struct.State* %0, i64 0, i32 6, i32 15, i32 0, i32 0
  %3 = load i64, i64* %RBP, align 8
  %4 = add i64 %3, -40
  %5 = load i64, i64* %PC, align 8
  %6 = add i64 %5, 4
  store i64 %6, i64* %PC, align 8
  store i64 %4, i64* %RDI, align 8
  ret %struct.Memory* %2
}

; Function Attrs: norecurse nounwind
define %struct.Memory* @routine_callq_._ZmmI12ValueWrapperIdEER14PointerWrapperIT_ES5_(%struct.State* nocapture dereferenceable(3376), i64, %struct.Memory* readnone returned, i64 %rel_off1, i64 %rel_off2, i64 %rel_off3) local_unnamed_addr #2 {
block_400488:
  %PC = getelementptr inbounds %struct.State, %struct.State* %0, i64 0, i32 6, i32 33, i32 0, i32 0
  %3 = load i64, i64* %PC, align 8
  %4 = add i64 %3, %rel_off1
  %5 = add i64 %3, %rel_off2
  %6 = getelementptr inbounds %struct.State, %struct.State* %0, i64 0, i32 6, i32 13, i32 0, i32 0
  %7 = load i64, i64* %6, align 8
  %8 = add i64 %7, -8
  %9 = inttoptr i64 %8 to i64*
  store i64 %5, i64* %9, align 8
  store i64 %8, i64* %6, align 8
  store i64 %4, i64* %PC, align 8
  ret %struct.Memory* %2
}

; Function Attrs: norecurse nounwind
define %struct.Memory* @routine_leaq_MINUS0x18__rbp____rdi(%struct.State* nocapture dereferenceable(3376), i64, %struct.Memory* readnone returned) local_unnamed_addr #2 {
block_400488:
  %PC = getelementptr inbounds %struct.State, %struct.State* %0, i64 0, i32 6, i32 33, i32 0, i32 0
  %RDI = getelementptr inbounds %struct.State, %struct.State* %0, i64 0, i32 6, i32 11, i32 0, i32 0
  %RBP = getelementptr inbounds %struct.State, %struct.State* %0, i64 0, i32 6, i32 15, i32 0, i32 0
  %3 = load i64, i64* %RBP, align 8
  %4 = add i64 %3, -24
  %5 = load i64, i64* %PC, align 8
  %6 = add i64 %5, 4
  store i64 %6, i64* %PC, align 8
  store i64 %4, i64* %RDI, align 8
  ret %struct.Memory* %2
}

; Function Attrs: norecurse nounwind
define %struct.Memory* @routine_movq__rax___rsi(%struct.State* nocapture dereferenceable(3376), i64, %struct.Memory* readnone returned) local_unnamed_addr #2 {
block_400488:
  %PC = getelementptr inbounds %struct.State, %struct.State* %0, i64 0, i32 6, i32 33, i32 0, i32 0
  %RAX = getelementptr inbounds %struct.State, %struct.State* %0, i64 0, i32 6, i32 1, i32 0, i32 0
  %RSI = getelementptr inbounds %struct.State, %struct.State* %0, i64 0, i32 6, i32 9, i32 0, i32 0
  %3 = load i64, i64* %RAX, align 8
  %4 = load i64, i64* %PC, align 8
  %5 = add i64 %4, 3
  store i64 %5, i64* %PC, align 8
  store i64 %3, i64* %RSI, align 8
  ret %struct.Memory* %2
}

; Function Attrs: norecurse nounwind
define %struct.Memory* @routine_callq_._ZltIdEbRK12ValueWrapperIT_ES4_(%struct.State* nocapture dereferenceable(3376), i64, %struct.Memory* readnone returned, i64 %rel_off1, i64 %rel_off2, i64 %rel_off3) local_unnamed_addr #2 {
block_400488:
  %PC = getelementptr inbounds %struct.State, %struct.State* %0, i64 0, i32 6, i32 33, i32 0, i32 0
  %3 = load i64, i64* %PC, align 8
  %4 = add i64 %3, %rel_off1
  %5 = add i64 %3, %rel_off2
  %6 = getelementptr inbounds %struct.State, %struct.State* %0, i64 0, i32 6, i32 13, i32 0, i32 0
  %7 = load i64, i64* %6, align 8
  %8 = add i64 %7, -8
  %9 = inttoptr i64 %8 to i64*
  store i64 %5, i64* %9, align 8
  store i64 %8, i64* %6, align 8
  store i64 %4, i64* %PC, align 8
  ret %struct.Memory* %2
}

; Function Attrs: nounwind
define %struct.Memory* @routine_testb__0x1___al(%struct.State* nocapture dereferenceable(3376), i64, %struct.Memory* readnone returned) local_unnamed_addr #3 {
block_400488:
  %PC = getelementptr inbounds %struct.State, %struct.State* %0, i64 0, i32 6, i32 33, i32 0, i32 0
  %3 = getelementptr inbounds %struct.State, %struct.State* %0, i64 0, i32 6, i32 1, i32 0
  %AL = bitcast %union.anon* %3 to i8*
  %4 = load i8, i8* %AL, align 1
  %5 = load i64, i64* %PC, align 8
  %6 = add i64 %5, 2
  store i64 %6, i64* %PC, align 8
  %7 = and i8 %4, 1
  %8 = getelementptr inbounds %struct.State, %struct.State* %0, i64 0, i32 2, i32 1
  store i8 0, i8* %8, align 1
  %9 = zext i8 %7 to i32
  %10 = tail call i32 @llvm.ctpop.i32(i32 %9)
  %11 = trunc i32 %10 to i8
  %12 = xor i8 %11, 1
  %13 = getelementptr inbounds %struct.State, %struct.State* %0, i64 0, i32 2, i32 3
  store i8 %12, i8* %13, align 1
  %14 = xor i8 %7, 1
  %15 = getelementptr inbounds %struct.State, %struct.State* %0, i64 0, i32 2, i32 7
  store i8 %14, i8* %15, align 1
  %16 = getelementptr inbounds %struct.State, %struct.State* %0, i64 0, i32 2, i32 9
  store i8 0, i8* %16, align 1
  %17 = getelementptr inbounds %struct.State, %struct.State* %0, i64 0, i32 2, i32 13
  store i8 0, i8* %17, align 1
  %18 = getelementptr inbounds %struct.State, %struct.State* %0, i64 0, i32 2, i32 5
  store i8 0, i8* %18, align 1
  ret %struct.Memory* %2
}

; Function Attrs: norecurse nounwind
define %struct.Memory* @routine_jne_.L_4051ac(%struct.State* nocapture dereferenceable(3376), i64, %struct.Memory* readnone returned, i8* nocapture %BRANCH_TAKEN, i64 %rel_off1, i64 %rel_off2, i64 %rel_off3) local_unnamed_addr #2 {
block_400488:
  %PC = getelementptr inbounds %struct.State, %struct.State* %0, i64 0, i32 6, i32 33, i32 0, i32 0
  %3 = load i64, i64* %PC, align 8
  %4 = getelementptr inbounds %struct.State, %struct.State* %0, i64 0, i32 2, i32 7
  %5 = load i8, i8* %4, align 1
  %6 = icmp eq i8 %5, 0
  %7 = zext i1 %6 to i8
  store i8 %7, i8* %BRANCH_TAKEN, align 1
  %.v = select i1 %6, i64 %rel_off1, i64 %rel_off2
  %8 = add i64 %.v, %3
  store i64 %8, i64* %PC, align 8
  ret %struct.Memory* %2
}

; Function Attrs: norecurse nounwind
define %struct.Memory* @routine_jmpq_.L_4051b1(%struct.State* nocapture dereferenceable(3376), i64, %struct.Memory* readnone returned, i64 %rel_off1, i64 %rel_off2) local_unnamed_addr #2 {
block_400488:
  %PC = getelementptr inbounds %struct.State, %struct.State* %0, i64 0, i32 6, i32 33, i32 0, i32 0
  %3 = load i64, i64* %PC, align 8
  %4 = add i64 %3, %rel_off1
  store i64 %4, i64* %PC, align 8
  ret %struct.Memory* %2
}

; Function Attrs: norecurse nounwind
define %struct.Memory* @routine_leaq_MINUS0x20__rbp____rdi(%struct.State* nocapture dereferenceable(3376), i64, %struct.Memory* readnone returned) local_unnamed_addr #2 {
block_400488:
  %PC = getelementptr inbounds %struct.State, %struct.State* %0, i64 0, i32 6, i32 33, i32 0, i32 0
  %RDI = getelementptr inbounds %struct.State, %struct.State* %0, i64 0, i32 6, i32 11, i32 0, i32 0
  %RBP = getelementptr inbounds %struct.State, %struct.State* %0, i64 0, i32 6, i32 15, i32 0, i32 0
  %3 = load i64, i64* %RBP, align 8
  %4 = add i64 %3, -32
  %5 = load i64, i64* %PC, align 8
  %6 = add i64 %5, 4
  store i64 %6, i64* %PC, align 8
  store i64 %4, i64* %RDI, align 8
  ret %struct.Memory* %2
}

; Function Attrs: norecurse nounwind
define %struct.Memory* @routine_leaq_MINUS0x28__rbp____rsi(%struct.State* nocapture dereferenceable(3376), i64, %struct.Memory* readnone returned) local_unnamed_addr #2 {
block_400488:
  %PC = getelementptr inbounds %struct.State, %struct.State* %0, i64 0, i32 6, i32 33, i32 0, i32 0
  %RSI = getelementptr inbounds %struct.State, %struct.State* %0, i64 0, i32 6, i32 9, i32 0, i32 0
  %RBP = getelementptr inbounds %struct.State, %struct.State* %0, i64 0, i32 6, i32 15, i32 0, i32 0
  %3 = load i64, i64* %RBP, align 8
  %4 = add i64 %3, -40
  %5 = load i64, i64* %PC, align 8
  %6 = add i64 %5, 4
  store i64 %6, i64* %PC, align 8
  store i64 %4, i64* %RSI, align 8
  ret %struct.Memory* %2
}

; Function Attrs: norecurse nounwind
define %struct.Memory* @routine_callq_._ZltI12ValueWrapperIdEEbRK14PointerWrapperIT_ES6_(%struct.State* nocapture dereferenceable(3376), i64, %struct.Memory* readnone returned, i64 %rel_off1, i64 %rel_off2, i64 %rel_off3) local_unnamed_addr #2 {
block_400488:
  %PC = getelementptr inbounds %struct.State, %struct.State* %0, i64 0, i32 6, i32 33, i32 0, i32 0
  %3 = load i64, i64* %PC, align 8
  %4 = add i64 %3, %rel_off1
  %5 = add i64 %3, %rel_off2
  %6 = getelementptr inbounds %struct.State, %struct.State* %0, i64 0, i32 6, i32 13, i32 0, i32 0
  %7 = load i64, i64* %6, align 8
  %8 = add i64 %7, -8
  %9 = inttoptr i64 %8 to i64*
  store i64 %5, i64* %9, align 8
  store i64 %8, i64* %6, align 8
  store i64 %4, i64* %PC, align 8
  ret %struct.Memory* %2
}

; Function Attrs: norecurse nounwind
define %struct.Memory* @routine_jne_.L_4051cb(%struct.State* nocapture dereferenceable(3376), i64, %struct.Memory* readnone returned, i8* nocapture %BRANCH_TAKEN, i64 %rel_off1, i64 %rel_off2, i64 %rel_off3) local_unnamed_addr #2 {
block_400488:
  %PC = getelementptr inbounds %struct.State, %struct.State* %0, i64 0, i32 6, i32 33, i32 0, i32 0
  %3 = load i64, i64* %PC, align 8
  %4 = getelementptr inbounds %struct.State, %struct.State* %0, i64 0, i32 2, i32 7
  %5 = load i8, i8* %4, align 1
  %6 = icmp eq i8 %5, 0
  %7 = zext i1 %6 to i8
  store i8 %7, i8* %BRANCH_TAKEN, align 1
  %.v = select i1 %6, i64 %rel_off1, i64 %rel_off2
  %8 = add i64 %.v, %3
  store i64 %8, i64* %PC, align 8
  ret %struct.Memory* %2
}

; Function Attrs: norecurse nounwind
define %struct.Memory* @routine_jmpq_.L_405263(%struct.State* nocapture dereferenceable(3376), i64, %struct.Memory* readnone returned, i64 %rel_off1, i64 %rel_off2) local_unnamed_addr #2 {
block_400488:
  %PC = getelementptr inbounds %struct.State, %struct.State* %0, i64 0, i32 6, i32 33, i32 0, i32 0
  %3 = load i64, i64* %PC, align 8
  %4 = add i64 %3, %rel_off1
  store i64 %4, i64* %PC, align 8
  ret %struct.Memory* %2
}

; Function Attrs: norecurse nounwind
define %struct.Memory* @routine_jmpq_.L_4051d0(%struct.State* nocapture dereferenceable(3376), i64, %struct.Memory* readnone returned, i64 %rel_off1, i64 %rel_off2) local_unnamed_addr #2 {
block_400488:
  %PC = getelementptr inbounds %struct.State, %struct.State* %0, i64 0, i32 6, i32 33, i32 0, i32 0
  %3 = load i64, i64* %PC, align 8
  %4 = add i64 %3, %rel_off1
  store i64 %4, i64* %PC, align 8
  ret %struct.Memory* %2
}

; Function Attrs: norecurse nounwind
define %struct.Memory* @routine_leaq_MINUS0x18__rbp____rsi(%struct.State* nocapture dereferenceable(3376), i64, %struct.Memory* readnone returned) local_unnamed_addr #2 {
block_400488:
  %PC = getelementptr inbounds %struct.State, %struct.State* %0, i64 0, i32 6, i32 33, i32 0, i32 0
  %RSI = getelementptr inbounds %struct.State, %struct.State* %0, i64 0, i32 6, i32 9, i32 0, i32 0
  %RBP = getelementptr inbounds %struct.State, %struct.State* %0, i64 0, i32 6, i32 15, i32 0, i32 0
  %3 = load i64, i64* %RBP, align 8
  %4 = add i64 %3, -24
  %5 = load i64, i64* %PC, align 8
  %6 = add i64 %5, 4
  store i64 %6, i64* %PC, align 8
  store i64 %4, i64* %RSI, align 8
  ret %struct.Memory* %2
}

; Function Attrs: norecurse nounwind
define %struct.Memory* @routine_jne_.L_4051f2(%struct.State* nocapture dereferenceable(3376), i64, %struct.Memory* readnone returned, i8* nocapture %BRANCH_TAKEN, i64 %rel_off1, i64 %rel_off2, i64 %rel_off3) local_unnamed_addr #2 {
block_400488:
  %PC = getelementptr inbounds %struct.State, %struct.State* %0, i64 0, i32 6, i32 33, i32 0, i32 0
  %3 = load i64, i64* %PC, align 8
  %4 = getelementptr inbounds %struct.State, %struct.State* %0, i64 0, i32 2, i32 7
  %5 = load i8, i8* %4, align 1
  %6 = icmp eq i8 %5, 0
  %7 = zext i1 %6 to i8
  store i8 %7, i8* %BRANCH_TAKEN, align 1
  %.v = select i1 %6, i64 %rel_off1, i64 %rel_off2
  %8 = add i64 %.v, %3
  store i64 %8, i64* %PC, align 8
  ret %struct.Memory* %2
}

; Function Attrs: norecurse nounwind
define %struct.Memory* @routine_jmpq_.L_405204(%struct.State* nocapture dereferenceable(3376), i64, %struct.Memory* readnone returned, i64 %rel_off1, i64 %rel_off2) local_unnamed_addr #2 {
block_400488:
  %PC = getelementptr inbounds %struct.State, %struct.State* %0, i64 0, i32 6, i32 33, i32 0, i32 0
  %3 = load i64, i64* %PC, align 8
  %4 = add i64 %3, %rel_off1
  store i64 %4, i64* %PC, align 8
  ret %struct.Memory* %2
}

; Function Attrs: norecurse nounwind
define %struct.Memory* @routine_callq_._ZppI12ValueWrapperIdEER14PointerWrapperIT_ES5_(%struct.State* nocapture dereferenceable(3376), i64, %struct.Memory* readnone returned, i64 %rel_off1, i64 %rel_off2, i64 %rel_off3) local_unnamed_addr #2 {
block_400488:
  %PC = getelementptr inbounds %struct.State, %struct.State* %0, i64 0, i32 6, i32 33, i32 0, i32 0
  %3 = load i64, i64* %PC, align 8
  %4 = add i64 %3, %rel_off1
  %5 = add i64 %3, %rel_off2
  %6 = getelementptr inbounds %struct.State, %struct.State* %0, i64 0, i32 6, i32 13, i32 0, i32 0
  %7 = load i64, i64* %6, align 8
  %8 = add i64 %7, -8
  %9 = inttoptr i64 %8 to i64*
  store i64 %5, i64* %9, align 8
  store i64 %8, i64* %6, align 8
  store i64 %4, i64* %PC, align 8
  ret %struct.Memory* %2
}

; Function Attrs: norecurse nounwind
define %struct.Memory* @routine_movq__rax__MINUS0x58__rbp_(%struct.State* nocapture dereferenceable(3376), i64, %struct.Memory* readnone returned) local_unnamed_addr #2 {
block_400488:
  %PC = getelementptr inbounds %struct.State, %struct.State* %0, i64 0, i32 6, i32 33, i32 0, i32 0
  %RAX = getelementptr inbounds %struct.State, %struct.State* %0, i64 0, i32 6, i32 1, i32 0, i32 0
  %RBP = getelementptr inbounds %struct.State, %struct.State* %0, i64 0, i32 6, i32 15, i32 0, i32 0
  %3 = load i64, i64* %RBP, align 8
  %4 = add i64 %3, -88
  %5 = load i64, i64* %RAX, align 8
  %6 = load i64, i64* %PC, align 8
  %7 = add i64 %6, 4
  store i64 %7, i64* %PC, align 8
  %8 = inttoptr i64 %4 to i64*
  store i64 %5, i64* %8, align 8
  ret %struct.Memory* %2
}

; Function Attrs: norecurse nounwind
define %struct.Memory* @routine_jne_.L_40521e(%struct.State* nocapture dereferenceable(3376), i64, %struct.Memory* readnone returned, i8* nocapture %BRANCH_TAKEN, i64 %rel_off1, i64 %rel_off2, i64 %rel_off3) local_unnamed_addr #2 {
block_400488:
  %PC = getelementptr inbounds %struct.State, %struct.State* %0, i64 0, i32 6, i32 33, i32 0, i32 0
  %3 = load i64, i64* %PC, align 8
  %4 = getelementptr inbounds %struct.State, %struct.State* %0, i64 0, i32 2, i32 7
  %5 = load i8, i8* %4, align 1
  %6 = icmp eq i8 %5, 0
  %7 = zext i1 %6 to i8
  store i8 %7, i8* %BRANCH_TAKEN, align 1
  %.v = select i1 %6, i64 %rel_off1, i64 %rel_off2
  %8 = add i64 %.v, %3
  store i64 %8, i64* %PC, align 8
  ret %struct.Memory* %2
}

; Function Attrs: norecurse nounwind
define %struct.Memory* @routine_movq__rax__MINUS0x30__rbp_(%struct.State* nocapture dereferenceable(3376), i64, %struct.Memory* readnone returned) local_unnamed_addr #2 {
block_400488:
  %PC = getelementptr inbounds %struct.State, %struct.State* %0, i64 0, i32 6, i32 33, i32 0, i32 0
  %RAX = getelementptr inbounds %struct.State, %struct.State* %0, i64 0, i32 6, i32 1, i32 0, i32 0
  %RBP = getelementptr inbounds %struct.State, %struct.State* %0, i64 0, i32 6, i32 15, i32 0, i32 0
  %3 = load i64, i64* %RBP, align 8
  %4 = add i64 %3, -48
  %5 = load i64, i64* %RAX, align 8
  %6 = load i64, i64* %PC, align 8
  %7 = add i64 %6, 4
  store i64 %7, i64* %PC, align 8
  %8 = inttoptr i64 %4 to i64*
  store i64 %5, i64* %8, align 8
  ret %struct.Memory* %2
}

; Function Attrs: norecurse nounwind
define %struct.Memory* @routine_movq__rax__MINUS0x60__rbp_(%struct.State* nocapture dereferenceable(3376), i64, %struct.Memory* readnone returned) local_unnamed_addr #2 {
block_400488:
  %PC = getelementptr inbounds %struct.State, %struct.State* %0, i64 0, i32 6, i32 33, i32 0, i32 0
  %RAX = getelementptr inbounds %struct.State, %struct.State* %0, i64 0, i32 6, i32 1, i32 0, i32 0
  %RBP = getelementptr inbounds %struct.State, %struct.State* %0, i64 0, i32 6, i32 15, i32 0, i32 0
  %3 = load i64, i64* %RBP, align 8
  %4 = add i64 %3, -96
  %5 = load i64, i64* %RAX, align 8
  %6 = load i64, i64* %PC, align 8
  %7 = add i64 %6, 4
  store i64 %7, i64* %PC, align 8
  %8 = inttoptr i64 %4 to i64*
  store i64 %5, i64* %8, align 8
  ret %struct.Memory* %2
}

; Function Attrs: norecurse nounwind
define %struct.Memory* @routine_movq_MINUS0x60__rbp____rcx(%struct.State* nocapture dereferenceable(3376), i64, %struct.Memory* readnone returned) local_unnamed_addr #2 {
block_400488:
  %PC = getelementptr inbounds %struct.State, %struct.State* %0, i64 0, i32 6, i32 33, i32 0, i32 0
  %RCX = getelementptr inbounds %struct.State, %struct.State* %0, i64 0, i32 6, i32 5, i32 0, i32 0
  %RBP = getelementptr inbounds %struct.State, %struct.State* %0, i64 0, i32 6, i32 15, i32 0, i32 0
  %3 = load i64, i64* %RBP, align 8
  %4 = add i64 %3, -96
  %5 = load i64, i64* %PC, align 8
  %6 = add i64 %5, 4
  store i64 %6, i64* %PC, align 8
  %7 = inttoptr i64 %4 to i64*
  %8 = load i64, i64* %7, align 8
  store i64 %8, i64* %RCX, align 8
  ret %struct.Memory* %2
}

; Function Attrs: norecurse nounwind
define %struct.Memory* @routine_movq___rcx____rdx(%struct.State* nocapture dereferenceable(3376), i64, %struct.Memory* readnone returned) local_unnamed_addr #2 {
block_400488:
  %PC = getelementptr inbounds %struct.State, %struct.State* %0, i64 0, i32 6, i32 33, i32 0, i32 0
  %RCX = getelementptr inbounds %struct.State, %struct.State* %0, i64 0, i32 6, i32 5, i32 0, i32 0
  %RDX = getelementptr inbounds %struct.State, %struct.State* %0, i64 0, i32 6, i32 7, i32 0, i32 0
  %3 = bitcast i64* %RCX to i64**
  %4 = load i64*, i64** %3, align 8
  %5 = load i64, i64* %PC, align 8
  %6 = add i64 %5, 3
  store i64 %6, i64* %PC, align 8
  %7 = load i64, i64* %4, align 8
  store i64 %7, i64* %RDX, align 8
  ret %struct.Memory* %2
}

; Function Attrs: norecurse nounwind
define %struct.Memory* @routine_movq__rdx____rax_(%struct.State* nocapture dereferenceable(3376), i64, %struct.Memory* readnone returned) local_unnamed_addr #2 {
block_400488:
  %PC = getelementptr inbounds %struct.State, %struct.State* %0, i64 0, i32 6, i32 33, i32 0, i32 0
  %RAX = getelementptr inbounds %struct.State, %struct.State* %0, i64 0, i32 6, i32 1, i32 0, i32 0
  %RDX = getelementptr inbounds %struct.State, %struct.State* %0, i64 0, i32 6, i32 7, i32 0, i32 0
  %3 = bitcast i64* %RAX to i64**
  %4 = load i64*, i64** %3, align 8
  %5 = load i64, i64* %RDX, align 8
  %6 = load i64, i64* %PC, align 8
  %7 = add i64 %6, 3
  store i64 %7, i64* %PC, align 8
  store i64 %5, i64* %4, align 8
  ret %struct.Memory* %2
}

; Function Attrs: norecurse nounwind
define %struct.Memory* @routine_movq_MINUS0x30__rbp____rcx(%struct.State* nocapture dereferenceable(3376), i64, %struct.Memory* readnone returned) local_unnamed_addr #2 {
block_400488:
  %PC = getelementptr inbounds %struct.State, %struct.State* %0, i64 0, i32 6, i32 33, i32 0, i32 0
  %RCX = getelementptr inbounds %struct.State, %struct.State* %0, i64 0, i32 6, i32 5, i32 0, i32 0
  %RBP = getelementptr inbounds %struct.State, %struct.State* %0, i64 0, i32 6, i32 15, i32 0, i32 0
  %3 = load i64, i64* %RBP, align 8
  %4 = add i64 %3, -48
  %5 = load i64, i64* %PC, align 8
  %6 = add i64 %5, 4
  store i64 %6, i64* %PC, align 8
  %7 = inttoptr i64 %4 to i64*
  %8 = load i64, i64* %7, align 8
  store i64 %8, i64* %RCX, align 8
  ret %struct.Memory* %2
}

; Function Attrs: norecurse nounwind
define %struct.Memory* @routine_movq__rcx____rax_(%struct.State* nocapture dereferenceable(3376), i64, %struct.Memory* readnone returned) local_unnamed_addr #2 {
block_400488:
  %PC = getelementptr inbounds %struct.State, %struct.State* %0, i64 0, i32 6, i32 33, i32 0, i32 0
  %RAX = getelementptr inbounds %struct.State, %struct.State* %0, i64 0, i32 6, i32 1, i32 0, i32 0
  %RCX = getelementptr inbounds %struct.State, %struct.State* %0, i64 0, i32 6, i32 5, i32 0, i32 0
  %3 = bitcast i64* %RAX to i64**
  %4 = load i64*, i64** %3, align 8
  %5 = load i64, i64* %RCX, align 8
  %6 = load i64, i64* %PC, align 8
  %7 = add i64 %6, 3
  store i64 %7, i64* %PC, align 8
  store i64 %5, i64* %4, align 8
  ret %struct.Memory* %2
}

; Function Attrs: norecurse nounwind
define %struct.Memory* @routine_jmpq_.L_40517d(%struct.State* nocapture dereferenceable(3376), i64, %struct.Memory* readnone returned, i64 %rel_off1, i64 %rel_off2) local_unnamed_addr #2 {
block_400488:
  %PC = getelementptr inbounds %struct.State, %struct.State* %0, i64 0, i32 6, i32 33, i32 0, i32 0
  %3 = load i64, i64* %PC, align 8
  %4 = add i64 %3, %rel_off1
  store i64 %4, i64* %PC, align 8
  ret %struct.Memory* %2
}

; Function Attrs: norecurse nounwind
define %struct.Memory* @routine_movl__0x1___eax(%struct.State* nocapture dereferenceable(3376), i64, %struct.Memory* readnone returned) local_unnamed_addr #2 {
block_400488:
  %PC = getelementptr inbounds %struct.State, %struct.State* %0, i64 0, i32 6, i32 33, i32 0, i32 0
  %RAX = getelementptr inbounds %struct.State, %struct.State* %0, i64 0, i32 6, i32 1, i32 0, i32 0
  %3 = load i64, i64* %PC, align 8
  %4 = add i64 %3, 5
  store i64 %4, i64* %PC, align 8
  store i64 1, i64* %RAX, align 8
  ret %struct.Memory* %2
}

; Function Attrs: norecurse nounwind
define %struct.Memory* @routine_movl__eax___esi(%struct.State* nocapture dereferenceable(3376), i64, %struct.Memory* readnone returned) local_unnamed_addr #2 {
block_400488:
  %PC = getelementptr inbounds %struct.State, %struct.State* %0, i64 0, i32 6, i32 33, i32 0, i32 0
  %3 = getelementptr inbounds %struct.State, %struct.State* %0, i64 0, i32 6, i32 1, i32 0
  %EAX = bitcast %union.anon* %3 to i32*
  %RSI = getelementptr inbounds %struct.State, %struct.State* %0, i64 0, i32 6, i32 9, i32 0, i32 0
  %4 = load i32, i32* %EAX, align 4
  %5 = zext i32 %4 to i64
  %6 = load i64, i64* %PC, align 8
  %7 = add i64 %6, 2
  store i64 %7, i64* %PC, align 8
  store i64 %5, i64* %RSI, align 8
  ret %struct.Memory* %2
}

; Function Attrs: norecurse nounwind
define %struct.Memory* @routine_movq_MINUS0x8__rbp____rcx(%struct.State* nocapture dereferenceable(3376), i64, %struct.Memory* readnone returned) local_unnamed_addr #2 {
block_400488:
  %PC = getelementptr inbounds %struct.State, %struct.State* %0, i64 0, i32 6, i32 33, i32 0, i32 0
  %RCX = getelementptr inbounds %struct.State, %struct.State* %0, i64 0, i32 6, i32 5, i32 0, i32 0
  %RBP = getelementptr inbounds %struct.State, %struct.State* %0, i64 0, i32 6, i32 15, i32 0, i32 0
  %3 = load i64, i64* %RBP, align 8
  %4 = add i64 %3, -8
  %5 = load i64, i64* %PC, align 8
  %6 = add i64 %5, 4
  store i64 %6, i64* %PC, align 8
  %7 = inttoptr i64 %4 to i64*
  %8 = load i64, i64* %7, align 8
  store i64 %8, i64* %RCX, align 8
  ret %struct.Memory* %2
}

; Function Attrs: norecurse nounwind
define %struct.Memory* @routine_movq__rcx__MINUS0x38__rbp_(%struct.State* nocapture dereferenceable(3376), i64, %struct.Memory* readnone returned) local_unnamed_addr #2 {
block_400488:
  %PC = getelementptr inbounds %struct.State, %struct.State* %0, i64 0, i32 6, i32 33, i32 0, i32 0
  %RCX = getelementptr inbounds %struct.State, %struct.State* %0, i64 0, i32 6, i32 5, i32 0, i32 0
  %RBP = getelementptr inbounds %struct.State, %struct.State* %0, i64 0, i32 6, i32 15, i32 0, i32 0
  %3 = load i64, i64* %RBP, align 8
  %4 = add i64 %3, -56
  %5 = load i64, i64* %RCX, align 8
  %6 = load i64, i64* %PC, align 8
  %7 = add i64 %6, 4
  store i64 %7, i64* %PC, align 8
  %8 = inttoptr i64 %4 to i64*
  store i64 %5, i64* %8, align 8
  ret %struct.Memory* %2
}

; Function Attrs: norecurse nounwind
define %struct.Memory* @routine_callq_._ZplI12ValueWrapperIdEE14PointerWrapperIT_ERS4_l(%struct.State* nocapture dereferenceable(3376), i64, %struct.Memory* readnone returned, i64 %rel_off1, i64 %rel_off2, i64 %rel_off3) local_unnamed_addr #2 {
block_400488:
  %PC = getelementptr inbounds %struct.State, %struct.State* %0, i64 0, i32 6, i32 33, i32 0, i32 0
  %3 = load i64, i64* %PC, align 8
  %4 = add i64 %3, %rel_off1
  %5 = add i64 %3, %rel_off2
  %6 = getelementptr inbounds %struct.State, %struct.State* %0, i64 0, i32 6, i32 13, i32 0, i32 0
  %7 = load i64, i64* %6, align 8
  %8 = add i64 %7, -8
  %9 = inttoptr i64 %8 to i64*
  store i64 %5, i64* %9, align 8
  store i64 %8, i64* %6, align 8
  store i64 %4, i64* %PC, align 8
  ret %struct.Memory* %2
}

; Function Attrs: norecurse nounwind
define %struct.Memory* @routine_movq__rax__MINUS0x40__rbp_(%struct.State* nocapture dereferenceable(3376), i64, %struct.Memory* readnone returned) local_unnamed_addr #2 {
block_400488:
  %PC = getelementptr inbounds %struct.State, %struct.State* %0, i64 0, i32 6, i32 33, i32 0, i32 0
  %RAX = getelementptr inbounds %struct.State, %struct.State* %0, i64 0, i32 6, i32 1, i32 0, i32 0
  %RBP = getelementptr inbounds %struct.State, %struct.State* %0, i64 0, i32 6, i32 15, i32 0, i32 0
  %3 = load i64, i64* %RBP, align 8
  %4 = add i64 %3, -64
  %5 = load i64, i64* %RAX, align 8
  %6 = load i64, i64* %PC, align 8
  %7 = add i64 %6, 4
  store i64 %7, i64* %PC, align 8
  %8 = inttoptr i64 %4 to i64*
  store i64 %5, i64* %8, align 8
  ret %struct.Memory* %2
}

; Function Attrs: norecurse nounwind
define %struct.Memory* @routine_movq_MINUS0x38__rbp____rdi(%struct.State* nocapture dereferenceable(3376), i64, %struct.Memory* readnone returned) local_unnamed_addr #2 {
block_400488:
  %PC = getelementptr inbounds %struct.State, %struct.State* %0, i64 0, i32 6, i32 33, i32 0, i32 0
  %RDI = getelementptr inbounds %struct.State, %struct.State* %0, i64 0, i32 6, i32 11, i32 0, i32 0
  %RBP = getelementptr inbounds %struct.State, %struct.State* %0, i64 0, i32 6, i32 15, i32 0, i32 0
  %3 = load i64, i64* %RBP, align 8
  %4 = add i64 %3, -56
  %5 = load i64, i64* %PC, align 8
  %6 = add i64 %5, 4
  store i64 %6, i64* %PC, align 8
  %7 = inttoptr i64 %4 to i64*
  %8 = load i64, i64* %7, align 8
  store i64 %8, i64* %RDI, align 8
  ret %struct.Memory* %2
}

; Function Attrs: norecurse nounwind
define %struct.Memory* @routine_movq_MINUS0x40__rbp____rsi(%struct.State* nocapture dereferenceable(3376), i64, %struct.Memory* readnone returned) local_unnamed_addr #2 {
block_400488:
  %PC = getelementptr inbounds %struct.State, %struct.State* %0, i64 0, i32 6, i32 33, i32 0, i32 0
  %RSI = getelementptr inbounds %struct.State, %struct.State* %0, i64 0, i32 6, i32 9, i32 0, i32 0
  %RBP = getelementptr inbounds %struct.State, %struct.State* %0, i64 0, i32 6, i32 15, i32 0, i32 0
  %3 = load i64, i64* %RBP, align 8
  %4 = add i64 %3, -64
  %5 = load i64, i64* %PC, align 8
  %6 = add i64 %5, 4
  store i64 %6, i64* %PC, align 8
  %7 = inttoptr i64 %4 to i64*
  %8 = load i64, i64* %7, align 8
  store i64 %8, i64* %RSI, align 8
  ret %struct.Memory* %2
}

; Function Attrs: norecurse nounwind
define %struct.Memory* @routine_callq_._ZN9benchmark9quicksortI14PointerWrapperI12ValueWrapperIdEES3_EEvT_S5_(%struct.State* nocapture dereferenceable(3376), i64, %struct.Memory* readnone returned, i64 %rel_off1, i64 %rel_off2, i64 %rel_off3) local_unnamed_addr #2 {
block_400488:
  %PC = getelementptr inbounds %struct.State, %struct.State* %0, i64 0, i32 6, i32 33, i32 0, i32 0
  %3 = load i64, i64* %PC, align 8
  %4 = add i64 %3, %rel_off1
  %5 = add i64 %3, %rel_off2
  %6 = getelementptr inbounds %struct.State, %struct.State* %0, i64 0, i32 6, i32 13, i32 0, i32 0
  %7 = load i64, i64* %6, align 8
  %8 = add i64 %7, -8
  %9 = inttoptr i64 %8 to i64*
  store i64 %5, i64* %9, align 8
  store i64 %8, i64* %6, align 8
  store i64 %4, i64* %PC, align 8
  ret %struct.Memory* %2
}

; Function Attrs: norecurse nounwind
define %struct.Memory* @routine_movl__0x1___edx(%struct.State* nocapture dereferenceable(3376), i64, %struct.Memory* readnone returned) local_unnamed_addr #2 {
block_400488:
  %PC = getelementptr inbounds %struct.State, %struct.State* %0, i64 0, i32 6, i32 33, i32 0, i32 0
  %RDX = getelementptr inbounds %struct.State, %struct.State* %0, i64 0, i32 6, i32 7, i32 0, i32 0
  %3 = load i64, i64* %PC, align 8
  %4 = add i64 %3, 5
  store i64 %4, i64* %PC, align 8
  store i64 1, i64* %RDX, align 8
  ret %struct.Memory* %2
}

; Function Attrs: norecurse nounwind
define %struct.Memory* @routine_movl__edx___esi(%struct.State* nocapture dereferenceable(3376), i64, %struct.Memory* readnone returned) local_unnamed_addr #2 {
block_400488:
  %PC = getelementptr inbounds %struct.State, %struct.State* %0, i64 0, i32 6, i32 33, i32 0, i32 0
  %3 = getelementptr inbounds %struct.State, %struct.State* %0, i64 0, i32 6, i32 7, i32 0
  %EDX = bitcast %union.anon* %3 to i32*
  %RSI = getelementptr inbounds %struct.State, %struct.State* %0, i64 0, i32 6, i32 9, i32 0, i32 0
  %4 = load i32, i32* %EDX, align 4
  %5 = zext i32 %4 to i64
  %6 = load i64, i64* %PC, align 8
  %7 = add i64 %6, 2
  store i64 %7, i64* %PC, align 8
  store i64 %5, i64* %RSI, align 8
  ret %struct.Memory* %2
}

; Function Attrs: norecurse nounwind
define %struct.Memory* @routine_movq__rax__MINUS0x48__rbp_(%struct.State* nocapture dereferenceable(3376), i64, %struct.Memory* readnone returned) local_unnamed_addr #2 {
block_400488:
  %PC = getelementptr inbounds %struct.State, %struct.State* %0, i64 0, i32 6, i32 33, i32 0, i32 0
  %RAX = getelementptr inbounds %struct.State, %struct.State* %0, i64 0, i32 6, i32 1, i32 0, i32 0
  %RBP = getelementptr inbounds %struct.State, %struct.State* %0, i64 0, i32 6, i32 15, i32 0, i32 0
  %3 = load i64, i64* %RBP, align 8
  %4 = add i64 %3, -72
  %5 = load i64, i64* %RAX, align 8
  %6 = load i64, i64* %PC, align 8
  %7 = add i64 %6, 4
  store i64 %7, i64* %PC, align 8
  %8 = inttoptr i64 %4 to i64*
  store i64 %5, i64* %8, align 8
  ret %struct.Memory* %2
}

; Function Attrs: norecurse nounwind
define %struct.Memory* @routine_movq__rax__MINUS0x50__rbp_(%struct.State* nocapture dereferenceable(3376), i64, %struct.Memory* readnone returned) local_unnamed_addr #2 {
block_400488:
  %PC = getelementptr inbounds %struct.State, %struct.State* %0, i64 0, i32 6, i32 33, i32 0, i32 0
  %RAX = getelementptr inbounds %struct.State, %struct.State* %0, i64 0, i32 6, i32 1, i32 0, i32 0
  %RBP = getelementptr inbounds %struct.State, %struct.State* %0, i64 0, i32 6, i32 15, i32 0, i32 0
  %3 = load i64, i64* %RBP, align 8
  %4 = add i64 %3, -80
  %5 = load i64, i64* %RAX, align 8
  %6 = load i64, i64* %PC, align 8
  %7 = add i64 %6, 4
  store i64 %7, i64* %PC, align 8
  %8 = inttoptr i64 %4 to i64*
  store i64 %5, i64* %8, align 8
  ret %struct.Memory* %2
}

; Function Attrs: norecurse nounwind
define %struct.Memory* @routine_movq_MINUS0x48__rbp____rdi(%struct.State* nocapture dereferenceable(3376), i64, %struct.Memory* readnone returned) local_unnamed_addr #2 {
block_400488:
  %PC = getelementptr inbounds %struct.State, %struct.State* %0, i64 0, i32 6, i32 33, i32 0, i32 0
  %RDI = getelementptr inbounds %struct.State, %struct.State* %0, i64 0, i32 6, i32 11, i32 0, i32 0
  %RBP = getelementptr inbounds %struct.State, %struct.State* %0, i64 0, i32 6, i32 15, i32 0, i32 0
  %3 = load i64, i64* %RBP, align 8
  %4 = add i64 %3, -72
  %5 = load i64, i64* %PC, align 8
  %6 = add i64 %5, 4
  store i64 %6, i64* %PC, align 8
  %7 = inttoptr i64 %4 to i64*
  %8 = load i64, i64* %7, align 8
  store i64 %8, i64* %RDI, align 8
  ret %struct.Memory* %2
}

; Function Attrs: norecurse nounwind
define %struct.Memory* @routine_movq_MINUS0x50__rbp____rsi(%struct.State* nocapture dereferenceable(3376), i64, %struct.Memory* readnone returned) local_unnamed_addr #2 {
block_400488:
  %PC = getelementptr inbounds %struct.State, %struct.State* %0, i64 0, i32 6, i32 33, i32 0, i32 0
  %RSI = getelementptr inbounds %struct.State, %struct.State* %0, i64 0, i32 6, i32 9, i32 0, i32 0
  %RBP = getelementptr inbounds %struct.State, %struct.State* %0, i64 0, i32 6, i32 15, i32 0, i32 0
  %3 = load i64, i64* %RBP, align 8
  %4 = add i64 %3, -80
  %5 = load i64, i64* %PC, align 8
  %6 = add i64 %5, 4
  store i64 %6, i64* %PC, align 8
  %7 = inttoptr i64 %4 to i64*
  %8 = load i64, i64* %7, align 8
  store i64 %8, i64* %RSI, align 8
  ret %struct.Memory* %2
}

; Function Attrs: nounwind
define %struct.Memory* @routine_addq__0x60___rsp(%struct.State* nocapture dereferenceable(3376), i64, %struct.Memory* readnone returned) local_unnamed_addr #3 {
block_400488:
  %PC = getelementptr inbounds %struct.State, %struct.State* %0, i64 0, i32 6, i32 33, i32 0, i32 0
  %RSP = getelementptr inbounds %struct.State, %struct.State* %0, i64 0, i32 6, i32 13, i32 0, i32 0
  %3 = load i64, i64* %RSP, align 8
  %4 = load i64, i64* %PC, align 8
  %5 = add i64 %4, 4
  store i64 %5, i64* %PC, align 8
  %6 = add i64 %3, 96
  store i64 %6, i64* %RSP, align 8
  %7 = icmp ugt i64 %3, -97
  %8 = zext i1 %7 to i8
  %9 = getelementptr inbounds %struct.State, %struct.State* %0, i64 0, i32 2, i32 1
  store i8 %8, i8* %9, align 1
  %10 = trunc i64 %6 to i32
  %11 = and i32 %10, 255
  %12 = tail call i32 @llvm.ctpop.i32(i32 %11)
  %13 = trunc i32 %12 to i8
  %14 = and i8 %13, 1
  %15 = xor i8 %14, 1
  %16 = getelementptr inbounds %struct.State, %struct.State* %0, i64 0, i32 2, i32 3
  store i8 %15, i8* %16, align 1
  %17 = xor i64 %6, %3
  %18 = lshr i64 %17, 4
  %19 = trunc i64 %18 to i8
  %20 = and i8 %19, 1
  %21 = getelementptr inbounds %struct.State, %struct.State* %0, i64 0, i32 2, i32 5
  store i8 %20, i8* %21, align 1
  %22 = icmp eq i64 %6, 0
  %23 = zext i1 %22 to i8
  %24 = getelementptr inbounds %struct.State, %struct.State* %0, i64 0, i32 2, i32 7
  store i8 %23, i8* %24, align 1
  %25 = lshr i64 %6, 63
  %26 = trunc i64 %25 to i8
  %27 = getelementptr inbounds %struct.State, %struct.State* %0, i64 0, i32 2, i32 9
  store i8 %26, i8* %27, align 1
  %28 = lshr i64 %3, 63
  %29 = xor i64 %25, %28
  %30 = add nuw nsw i64 %29, %25
  %31 = icmp eq i64 %30, 2
  %32 = zext i1 %31 to i8
  %33 = getelementptr inbounds %struct.State, %struct.State* %0, i64 0, i32 2, i32 13
  store i8 %32, i8* %33, align 1
  ret %struct.Memory* %2
}

; Function Attrs: norecurse nounwind
define %struct.Memory* @routine_popq__rbp(%struct.State* nocapture dereferenceable(3376), i64, %struct.Memory* readnone returned) local_unnamed_addr #2 {
block_400488:
  %PC = getelementptr inbounds %struct.State, %struct.State* %0, i64 0, i32 6, i32 33, i32 0, i32 0
  %RBP = getelementptr inbounds %struct.State, %struct.State* %0, i64 0, i32 6, i32 15, i32 0, i32 0
  %3 = load i64, i64* %PC, align 8
  %4 = add i64 %3, 1
  store i64 %4, i64* %PC, align 8
  %5 = getelementptr inbounds %struct.State, %struct.State* %0, i64 0, i32 6, i32 13, i32 0, i32 0
  %6 = load i64, i64* %5, align 8
  %7 = add i64 %6, 8
  %8 = inttoptr i64 %6 to i64*
  %9 = load i64, i64* %8, align 8
  store i64 %9, i64* %RBP, align 8
  store i64 %7, i64* %5, align 8
  ret %struct.Memory* %2
}

; Function Attrs: norecurse nounwind
define %struct.Memory* @routine_retq(%struct.State* nocapture dereferenceable(3376), i64, %struct.Memory* readnone returned) local_unnamed_addr #2 {
block_400488:
  %PC = getelementptr inbounds %struct.State, %struct.State* %0, i64 0, i32 6, i32 33, i32 0, i32 0
  %3 = load i64, i64* %PC, align 8
  %4 = add i64 %3, 1
  store i64 %4, i64* %PC, align 8
  %5 = getelementptr inbounds %struct.State, %struct.State* %0, i64 0, i32 6, i32 13, i32 0, i32 0
  %6 = load i64, i64* %5, align 8
  %7 = inttoptr i64 %6 to i64*
  %8 = load i64, i64* %7, align 8
  store i64 %8, i64* %PC, align 8
  %9 = add i64 %6, 8
  store i64 %9, i64* %5, align 8
  ret %struct.Memory* %2
}

attributes #0 = { nounwind readnone }
attributes #1 = { alwaysinline }
attributes #2 = { norecurse nounwind }
attributes #3 = { nounwind }
