; ModuleID = 'test.bc'
source_filename = "llvm-link"
target datalayout = "e-m:e-i64:64-f80:128-n8:16:32:64-S128"
target triple = "x86_64-pc-linux-gnu-elf"
%union.anon = type { i64 }
%seg_400388__init_type = type <{ [23 x i8] }>
%seg_4003a0__text_type = type <{ [354 x i8] }>
%seg_400504__fini_type = type <{ [9 x i8] }>
%seg_400510__rodata_type = type <{ [4 x i8] }>
%seg_400514__eh_frame_hdr_type = type <{ [52 x i8] }>
%seg_400548__eh_frame_type = type <{ [208 x i8] }>
%seg_600e40__init_array_type = type <{ i64, i64 }>
%seg_601018__data_type = type <{ [16 x i8] }>
%__bss_start_type = type <{ [8 x i8] }>
%struct.State = type { %struct.ArchState, [32 x %union.VectorReg], %struct.ArithFlags, %union.anon, %struct.Segments, %struct.AddressSpace, %struct.GPR, %struct.X87Stack, %struct.MMX, %struct.FPUStatusFlags, %union.anon, %union.FPU, %struct.SegmentCaches }
%struct.ArchState = type { i32, i32, %union.anon }
%union.VectorReg = type { %union.vec512_t }
%union.vec512_t = type { %struct.uint64v8_t }
%struct.uint64v8_t = type { [8 x i64] }
%struct.ArithFlags = type { i8, i8, i8, i8, i8, i8, i8, i8, i8, i8, i8, i8, i8, i8, i8, i8 }
%struct.Segments = type { i16, %union.SegmentSelector, i16, %union.SegmentSelector, i16, %union.SegmentSelector, i16, %union.SegmentSelector, i16, %union.SegmentSelector, i16, %union.SegmentSelector }
%union.SegmentSelector = type { i16 }
%struct.AddressSpace = type { i64, %struct.Reg, i64, %struct.Reg, i64, %struct.Reg, i64, %struct.Reg, i64, %struct.Reg, i64, %struct.Reg }
%struct.Reg = type { %union.anon }
%struct.GPR = type { i64, %struct.Reg, i64, %struct.Reg, i64, %struct.Reg, i64, %struct.Reg, i64, %struct.Reg, i64, %struct.Reg, i64, %struct.Reg, i64, %struct.Reg, i64, %struct.Reg, i64, %struct.Reg, i64, %struct.Reg, i64, %struct.Reg, i64, %struct.Reg, i64, %struct.Reg, i64, %struct.Reg, i64, %struct.Reg, i64, %struct.Reg }
%struct.X87Stack = type { [8 x %struct.anon.3] }
%struct.anon.3 = type { i64, double }
%struct.MMX = type { [8 x %struct.anon.4] }
%struct.anon.4 = type { i64, %union.vec64_t }
%union.vec64_t = type { %struct.uint64v1_t }
%struct.uint64v1_t = type { [1 x i64] }
%struct.FPUStatusFlags = type { i8, i8, i8, i8, i8, i8, i8, i8, i8, i8, i8, i8, i8, i8, i8, i8, i8, i8, i8, i8, [4 x i8] }
%union.FPU = type { %struct.anon.13 }
%struct.anon.13 = type { %struct.FpuFXSAVE, [96 x i8] }
%struct.FpuFXSAVE = type { %union.SegmentSelector, %union.SegmentSelector, %union.FPUAbridgedTagWord, i8, i16, i32, %union.SegmentSelector, i16, i32, %union.SegmentSelector, i16, %union.FPUControlStatus, %union.FPUControlStatus, [8 x %struct.FPUStackElem], [16 x %union.vec128_t] }
%union.FPUAbridgedTagWord = type { i8 }
%union.FPUControlStatus = type { i32 }
%struct.FPUStackElem = type { %union.anon.11, [6 x i8] }
%union.anon.11 = type { %struct.float80_t }
%struct.float80_t = type { [10 x i8] }
%union.vec128_t = type { %struct.uint128v1_t }
%struct.uint128v1_t = type { [1 x i128] }
%struct.SegmentCaches = type { %struct.SegmentShadow, %struct.SegmentShadow, %struct.SegmentShadow, %struct.SegmentShadow, %struct.SegmentShadow, %struct.SegmentShadow }
%struct.SegmentShadow = type { %union.anon, i32, i32 }
%struct.Memory = type opaque
%struct.uint8v32_t = type { [32 x i8] }
%struct.anon.2 = type { i8, i8 }
%struct.int32v8_t = type { [8 x i32] }
%struct.float32v8_t = type { [8 x float] }
%struct.uint8v8_t = type { [8 x i8] }
%struct.uint8v16_t = type { [16 x i8] }
%struct.uint16v8_t = type { [8 x i16] }
%struct.uint8v4_t = type { [4 x i8] }
%struct.int16v4_t = type { [4 x i16] }
%struct.int32v4_t = type { [4 x i32] }
%struct.uint64v2_t = type { [2 x i64] }
%struct.uint64v4_t = type { [4 x i64] }
%struct.uint128v2_t = type { [2 x i128] }
%struct.uint16v16_t = type { [16 x i16] }
%struct.float64v4_t = type { [4 x double] }
%"class.(anonymous namespace)::BitMatrix" = type { %"class.std::bitset", [16 x [16 x i8]] }
%"class.std::bitset" = type { %struct.uint64v4_t }
%struct.bcd80_t = type { [9 x %union.FPUAbridgedTagWord], %union.FPUAbridgedTagWord }
%struct.FpuFSAVE = type { %union.SegmentSelector, i16, %union.SegmentSelector, i16, %union.SegmentSelector, i16, i32, %union.SegmentSelector, i16, i32, %union.SegmentSelector, i16, [8 x %struct.FPUStackElem] }
%struct.anon.5 = type { i32, i32 }
@switch.table = private unnamed_addr constant [4 x i32] [i32 2048, i32 3072, i32 0, i32 1024]
@DR0 = external global i64, align 8
@DR1 = external global i64, align 8
@DR2 = external global i64, align 8
@DR3 = external global i64, align 8
@DR4 = external global i64, align 8
@DR5 = external global i64, align 8
@DR6 = external global i64, align 8
@DR7 = external global i64, align 8
@gCR0 = external global %union.anon, align 1
@gCR1 = external global %union.anon, align 1
@gCR2 = external global %union.anon, align 1
@gCR3 = external global %union.anon, align 1
@gCR4 = external global %union.anon, align 1
@gCR8 = external global %union.anon, align 1
@seg_400388__init = internal constant %seg_400388__init_type <{ [23 x i8] c"H\83\EC\08H\8B\05e\0C \00H\85\C0t\02\FF\D0H\83\C4\08\C3" }>
@seg_4003a0__text = internal constant %seg_4003a0__text_type <{ [354 x i8] c"1\EDI\89\D1^H\89\E2H\83\E4\F0PTI\C7\C0\00\05@\00H\C7\C1\90\04@\00H\C7\C7\88\04@\00\FF\15&\0C \00\F4\0F\1FD\00\00\F3\C3f.\0F\1F\84\00\00\00\00\00\0F\1F@\00U\B8(\10`\00H=(\10`\00H\89\E5t\17\B8\00\00\00\00H\85\C0t\0D]\BF(\10`\00\FF\E0\0F\1FD\00\00]\C3f\0F\1FD\00\00\BE(\10`\00UH\81\EE(\10`\00H\89\E5H\C1\FE\03H\89\F0H\C1\E8?H\01\C6H\D1\FEt\15\B8\00\00\00\00H\85\C0t\0B]\BF(\10`\00\FF\E0\0F\1F\00]\C3f\0F\1FD\00\00\80=\D1\0B \00\00u\17UH\89\E5\E8~\FF\FF\FF\C6\05\BF\0B \00\01]\C3\0F\1FD\00\00\F3\C3\0F\1F@\00f.\0F\1F\84\00\00\00\00\00UH\89\E5]\EB\89\90U\C3f\0F\1FD\00\00AWAVI\89\D7AUATL\8D%\9E\09 \00UH\8D-\9E\09 \00SA\89\FDI\89\F6L)\E5H\83\EC\08H\C1\FD\03\E8\C7\FE\FF\FFH\85\EDt 1\DB\0F\1F\84\00\00\00\00\00L\89\FAL\89\F6D\89\EFA\FF\14\DCH\83\C3\01H9\DDu\EAH\83\C4\08[]A\5CA]A^A_\C3\90f.\0F\1F\84\00\00\00\00\00\F3\C3" }>
@seg_400504__fini = internal constant %seg_400504__fini_type <{ [9 x i8] c"H\83\EC\08H\83\C4\08\C3" }>
@seg_400510__rodata = internal constant %seg_400510__rodata_type <{ [4 x i8] c"\01\00\02\00" }>
@seg_400514__eh_frame_hdr = internal constant %seg_400514__eh_frame_hdr_type <{ [52 x i8] c"\01\1B\03;0\00\00\00\05\00\00\00\8C\FE\FF\FFL\00\00\00\BC\FE\FF\FFx\00\00\00t\FF\FF\FF\8C\00\00\00|\FF\FF\FF\A4\00\00\00\EC\FF\FF\FF\EC\00\00\00" }>
@seg_400548__eh_frame = internal constant %seg_400548__eh_frame_type <{ [208 x i8] c"\14\00\00\00\00\00\00\00\01zR\00\01x\10\01\1B\0C\07\08\90\01\07\10\10\00\00\00\1C\00\00\008\FE\FF\FF+\00\00\00\00\00\00\00\14\00\00\00\00\00\00\00\01zR\00\01x\10\01\1B\0C\07\08\90\01\00\00\10\00\00\00\1C\00\00\00<\FE\FF\FF\02\00\00\00\00\00\00\00\14\00\00\000\00\00\00\E0\FE\FF\FF\02\00\00\00\00\00\00\00\00\00\00\00D\00\00\00H\00\00\00\D0\FE\FF\FFe\00\00\00\00B\0E\10\8F\02B\0E\18\8E\03E\0E \8D\04B\0E(\8C\05H\0E0\86\06H\0E8\83\07M\0E@r\0E8A\0E0A\0E(B\0E B\0E\18B\0E\10B\0E\08\00\10\00\00\00\90\00\00\00\F8\FE\FF\FF\02\00\00\00\00\00\00\00\00\00\00\00" }>
@seg_601018__data = internal global %seg_601018__data_type zeroinitializer
@__bss_start = global %__bss_start_type zeroinitializer
@0 = internal global i1 false

; Function Declaraions
declare %struct.Memory* @__remill_error(%struct.State* dereferenceable(3376), i64, %struct.Memory*)
declare i32 @__remill_fpu_exception_test_and_clear(i32, i32)
declare void @llvm.lifetime.start(i64, i8* nocapture)
declare void @llvm.lifetime.end(i64, i8* nocapture)
declare i32 @llvm.ctpop.i32(i32)
declare i32 @llvm.bswap.i32(i32)
declare i64 @llvm.bswap.i64(i64)
declare i32 @llvm.cttz.i32(i32, i1)
declare i64 @llvm.cttz.i64(i64, i1)
declare i32 @llvm.ctlz.i32(i32, i1)
declare i64 @llvm.ctlz.i64(i64, i1)
declare void @llvm.memcpy.p0i8.p0i8.i64(i8* nocapture writeonly, i8* nocapture readonly, i64, i32, i1)
declare double @llvm.nearbyint.f64(double)
declare double @llvm.fabs.f64(double)
declare <4 x double> @llvm.nearbyint.v4f64(<4 x double>)
declare <4 x double> @llvm.fabs.v4f64(<4 x double>)
declare double @llvm.trunc.f64(double)
declare <4 x double> @llvm.trunc.v4f64(<4 x double>)
declare float @llvm.nearbyint.f32(float)
declare float @llvm.fabs.f32(float)
declare <4 x float> @llvm.nearbyint.v4f32(<4 x float>)
declare <4 x float> @llvm.fabs.v4f32(<4 x float>)
declare float @llvm.trunc.f32(float)
declare <4 x float> @llvm.trunc.v4f32(<4 x float>)
declare void @llvm.memset.p0i8.i64(i8* nocapture writeonly, i8, i64, i32, i1)

; Buiitins  
declare double @atan(double) local_unnamed_addr #9
declare double @cos(double) local_unnamed_addr #9
declare double @sin(double) local_unnamed_addr #9
declare double @sqrt(double) local_unnamed_addr #9
declare double @tan(double) local_unnamed_addr #9
declare extern_weak x86_64_sysvcc i64 @abort() #18
declare extern_weak x86_64_sysvcc i64 @abs(i64) #18
declare extern_weak x86_64_sysvcc i64 @asin(i64) #18
declare extern_weak x86_64_sysvcc i64 @atof(i64) #18
declare extern_weak x86_64_sysvcc i64 @atoi(i64) #18
declare extern_weak x86_64_sysvcc i64 @atol(i64) #18
declare extern_weak x86_64_sysvcc i64 @calloc(i64, i64) #18
declare extern_weak x86_64_sysvcc i64 @clock() #18
declare extern_weak x86_64_sysvcc i64 @cosf(i64) #18
declare extern_weak x86_64_sysvcc i64 @exit(i64) #18
declare extern_weak x86_64_sysvcc i64 @exp(i64) #18
declare extern_weak x86_64_sysvcc i64 @fflush(i64) #18
declare extern_weak x86_64_sysvcc i64 @floor(i64) #18
declare extern_weak x86_64_sysvcc i64 @fprintf(i64, i64, i64, i64, i64, i64, i64, i64, i64, i64, i64, i64, i64, i64, i64, i64) #18
declare extern_weak x86_64_sysvcc i64 @fputs(i64, i64) #18
declare extern_weak x86_64_sysvcc i64 @free(i64) #18
declare extern_weak x86_64_sysvcc i64 @fwrite(i64, i64, i64, i64) #18
declare extern_weak x86_64_sysvcc i64 @getchar() #18
declare extern_weak x86_64_sysvcc i64 @gettimeofday(i64, i64) #18
declare extern_weak x86_64_sysvcc i64 @__isoc99_fscanf(i64, i64, i64, i64, i64, i64, i64, i64, i64, i64, i64, i64, i64, i64, i64, i64) #18
declare extern_weak x86_64_sysvcc i64 @__isoc99_scanf(i64, i64, i64, i64, i64, i64, i64, i64, i64, i64, i64, i64, i64, i64, i64, i64) #18
declare extern_weak x86_64_sysvcc i64 @__isoc99_sscanf(i64, i64, i64, i64, i64, i64, i64, i64, i64, i64, i64, i64, i64, i64, i64, i64) #18
declare extern_weak x86_64_sysvcc i64 @log(i64) #18
declare extern_weak x86_64_sysvcc i64 @lrand48() #18
declare extern_weak x86_64_sysvcc i64 @malloc(i64) #18
declare extern_weak x86_64_sysvcc i64 @memalign(i64, i64) #18
declare extern_weak x86_64_sysvcc i64 @memcpy(i64, i64, i64) #18
declare extern_weak x86_64_sysvcc i64 @memset(i64, i64, i64) #18
declare extern_weak x86_64_sysvcc i64 @perror(i64) #18
declare extern_weak x86_64_sysvcc i64 @posix_memalign(i64, i64, i64) #18
declare extern_weak x86_64_sysvcc i64 @pow(i64, i64) #18
declare extern_weak x86_64_sysvcc i64 @printf(i64, i64, i64, i64, i64, i64, i64, i64, i64, i64, i64, i64, i64, i64, i64, i64) #18
declare extern_weak x86_64_sysvcc i64 @putchar(i64) #18
declare extern_weak x86_64_sysvcc i64 @puts(i64) #18
declare extern_weak x86_64_sysvcc i64 @rand() #18
declare extern_weak x86_64_sysvcc i64 @random() #18
declare extern_weak x86_64_sysvcc i64 @realloc(i64, i64) #18
declare extern_weak x86_64_sysvcc i64 @seed48(i64) #18
declare extern_weak x86_64_sysvcc i64 @sinf(i64) #18
declare extern_weak x86_64_sysvcc i64 @sprintf(i64, i64, i64, i64, i64, i64, i64, i64, i64, i64, i64, i64, i64, i64, i64, i64) #18
declare extern_weak x86_64_sysvcc i64 @srand(i64) #18
declare extern_weak x86_64_sysvcc i64 @strcat(i64, i64) #18
declare extern_weak x86_64_sysvcc i64 @strcmp(i64, i64) #18
declare extern_weak x86_64_sysvcc i64 @strcpy(i64, i64) #18
declare extern_weak x86_64_sysvcc i64 @strdup(i64) #18
declare extern_weak x86_64_sysvcc i64 @strlen(i64) #18
declare extern_weak x86_64_sysvcc i64 @strncmp(i64, i64, i64) #18
declare extern_weak x86_64_sysvcc i64 @strtoll(i64, i64, i64) #18
declare extern_weak x86_64_sysvcc i64 @time(i64) #18
declare extern_weak x86_64_sysvcc i64 @ungetc(i64, i64) #18
declare extern_weak x86_64_sysvcc i64 @pthread_join(i64, i64) #18
declare extern_weak x86_64_sysvcc i64 @pthread_create(i64, i64, i64, i64) #18

declare %struct.Memory* @__remill_function_call(%struct.State* dereferenceable(3376), i64, %struct.Memory*)

define internal %struct.Memory* @ext_pthread_create(%struct.State*, i64, %struct.Memory*) #18 {
  %4 = call %struct.Memory* @__remill_function_call(%struct.State* %0, i64 ptrtoint (i64 (i64, i64, i64, i64)* @pthread_create to i64), %struct.Memory* %2)
  ret %struct.Memory* %4
}

define internal %struct.Memory* @ext_pthread_join(%struct.State*, i64, %struct.Memory*) #18 {
  %4 = call %struct.Memory* @__remill_function_call(%struct.State* %0, i64 ptrtoint (i64 (i64, i64)* @pthread_join to i64), %struct.Memory* %2)
  ret %struct.Memory* %4
}

define internal %struct.Memory* @ext_gettimeofday(%struct.State*, i64, %struct.Memory*) #18 {
  %4 = call %struct.Memory* @__remill_function_call(%struct.State* %0, i64 ptrtoint (i64 (i64, i64)* @gettimeofday to i64), %struct.Memory* %2)
  ret %struct.Memory* %4
}

define internal %struct.Memory* @ext___isoc99_scanf(%struct.State*, i64, %struct.Memory*) #18 {
  %4 = call %struct.Memory* @__remill_function_call(%struct.State* %0, i64 ptrtoint (i64 (i64, i64, i64, i64, i64, i64, i64, i64, i64, i64, i64, i64, i64, i64, i64, i64)* @__isoc99_scanf to i64), %struct.Memory* %2)
  ret %struct.Memory* %4
}


define internal %struct.Memory* @ext_fflush(%struct.State*, i64, %struct.Memory*) #18 {
  %4 = call %struct.Memory* @__remill_function_call(%struct.State* %0, i64 ptrtoint (i64 (i64)* @fflush to i64), %struct.Memory* %2)
  ret %struct.Memory* %4
}

define internal %struct.Memory* @ext___isoc99_fscanf(%struct.State*, i64, %struct.Memory*) #18 {
  %4 = call %struct.Memory* @__remill_function_call(%struct.State* %0, i64 ptrtoint (i64 (i64, i64, i64, i64, i64, i64, i64, i64, i64, i64, i64, i64, i64, i64, i64, i64)* @__isoc99_fscanf to i64), %struct.Memory* %2)
  ret %struct.Memory* %4
}

define internal %struct.Memory* @ext___isoc99_sscanf(%struct.State*, i64, %struct.Memory*) #18 {
  %4 = call %struct.Memory* @__remill_function_call(%struct.State* %0, i64 ptrtoint (i64 (i64, i64, i64, i64, i64, i64, i64, i64, i64, i64, i64, i64, i64, i64, i64, i64)* @__isoc99_sscanf to i64), %struct.Memory* %2)
  ret %struct.Memory* %4
}

define internal %struct.Memory* @ext_memcpy(%struct.State*, i64, %struct.Memory*) #18 {
  %4 = call %struct.Memory* @__remill_function_call(%struct.State* %0, i64 ptrtoint (i64 (i64, i64, i64)* @memcpy to i64), %struct.Memory* %2)
  ret %struct.Memory* %4
}

define internal %struct.Memory* @ext_posix_memalign(%struct.State*, i64, %struct.Memory*) #18 {
  %4 = call %struct.Memory* @__remill_function_call(%struct.State* %0, i64 ptrtoint (i64 (i64, i64, i64)* @posix_memalign to i64), %struct.Memory* %2)
  ret %struct.Memory* %4
}

define internal %struct.Memory* @ext_fprintf(%struct.State*, i64, %struct.Memory*) #18 {
  %4 = call %struct.Memory* @__remill_function_call(%struct.State* %0, i64 ptrtoint (i64 (i64, i64, i64, i64, i64, i64, i64, i64, i64, i64, i64, i64, i64, i64, i64, i64)* @fprintf to i64), %struct.Memory* %2)
  ret %struct.Memory* %4
}

define internal %struct.Memory* @ext_memset(%struct.State*, i64, %struct.Memory*) #18 {
  %4 = call %struct.Memory* @__remill_function_call(%struct.State* %0, i64 ptrtoint (i64 (i64, i64, i64)* @memset to i64), %struct.Memory* %2)
  ret %struct.Memory* %4
}

define internal %struct.Memory* @ext_perror(%struct.State*, i64, %struct.Memory*) #18 {
  %4 = call %struct.Memory* @__remill_function_call(%struct.State* %0, i64 ptrtoint (i64 (i64)* @perror to i64), %struct.Memory* %2)
  ret %struct.Memory* %4
}

define internal %struct.Memory* @ext_floor(%struct.State*, i64, %struct.Memory*) #18 {
  %4 = call %struct.Memory* @__remill_function_call(%struct.State* %0, i64 ptrtoint (i64 (i64)* @floor to i64), %struct.Memory* %2)
  ret %struct.Memory* %4
}

define internal %struct.Memory* @ext_malloc(%struct.State*, i64, %struct.Memory*) #18 {
  %4 = call %struct.Memory* @__remill_function_call(%struct.State* %0, i64 ptrtoint (i64 (i64)* @malloc to i64), %struct.Memory* %2)
  ret %struct.Memory* %4
}

define internal %struct.Memory* @ext_atoi(%struct.State*, i64, %struct.Memory*) #18 {
  %4 = call %struct.Memory* @__remill_function_call(%struct.State* %0, i64 ptrtoint (i64 (i64)* @atoi to i64), %struct.Memory* %2)
  ret %struct.Memory* %4
}

define internal %struct.Memory* @ext_strcpy(%struct.State*, i64, %struct.Memory*) #18 {
  %4 = call %struct.Memory* @__remill_function_call(%struct.State* %0, i64 ptrtoint (i64 (i64, i64)* @strcpy to i64), %struct.Memory* %2)
  ret %struct.Memory* %4
}

define internal %struct.Memory* @ext_ungetc(%struct.State*, i64, %struct.Memory*) #18 {
  %4 = call %struct.Memory* @__remill_function_call(%struct.State* %0, i64 ptrtoint (i64 (i64, i64)* @ungetc to i64), %struct.Memory* %2)
  ret %struct.Memory* %4
}

define internal %struct.Memory* @ext_pow(%struct.State*, i64, %struct.Memory*) #18 {
  %4 = call %struct.Memory* @__remill_function_call(%struct.State* %0, i64 ptrtoint (i64 (i64, i64)* @pow to i64), %struct.Memory* %2)
  ret %struct.Memory* %4
}

define internal %struct.Memory* @ext_seed48(%struct.State*, i64, %struct.Memory*) #18 {
  %4 = call %struct.Memory* @__remill_function_call(%struct.State* %0, i64 ptrtoint (i64 (i64)* @seed48 to i64), %struct.Memory* %2)
  ret %struct.Memory* %4
}

define internal %struct.Memory* @ext_asin(%struct.State*, i64, %struct.Memory*) #18 {
  %4 = call %struct.Memory* @__remill_function_call(%struct.State* %0, i64 ptrtoint (i64 (i64)* @asin to i64), %struct.Memory* %2)
  ret %struct.Memory* %4
}

define internal %struct.Memory* @ext_strdup(%struct.State*, i64, %struct.Memory*) #18 {
  %4 = call %struct.Memory* @__remill_function_call(%struct.State* %0, i64 ptrtoint (i64 (i64)* @strdup to i64), %struct.Memory* %2)
  ret %struct.Memory* %4
}

define internal %struct.Memory* @ext_cosf(%struct.State*, i64, %struct.Memory*) #18 {
  %4 = call %struct.Memory* @__remill_function_call(%struct.State* %0, i64 ptrtoint (i64 (i64)* @cosf to i64), %struct.Memory* %2)
  ret %struct.Memory* %4
}

define internal %struct.Memory* @ext_abs(%struct.State*, i64, %struct.Memory*) #18 {
  %4 = call %struct.Memory* @__remill_function_call(%struct.State* %0, i64 ptrtoint (i64 (i64)* @abs to i64), %struct.Memory* %2)
  ret %struct.Memory* %4
}

define internal %struct.Memory* @ext_abort(%struct.State*, i64, %struct.Memory*) #18 {
  %4 = call %struct.Memory* @__remill_function_call(%struct.State* %0, i64 ptrtoint (i64 ()* @abort to i64), %struct.Memory* %2)
  ret %struct.Memory* %4
}

define internal %struct.Memory* @ext_exit(%struct.State*, i64, %struct.Memory*) #18 {
  %4 = call %struct.Memory* @__remill_function_call(%struct.State* %0, i64 ptrtoint (i64 (i64)* @exit to i64), %struct.Memory* %2)
  ret %struct.Memory* %4
}

define internal %struct.Memory* @ext_putchar(%struct.State*, i64, %struct.Memory*) #18 {
  %4 = call %struct.Memory* @__remill_function_call(%struct.State* %0, i64 ptrtoint (i64 (i64)* @putchar to i64), %struct.Memory* %2)
  ret %struct.Memory* %4
}

define internal %struct.Memory* @ext_strncmp(%struct.State*, i64, %struct.Memory*) #18 {
  %4 = call %struct.Memory* @__remill_function_call(%struct.State* %0, i64 ptrtoint (i64 (i64, i64, i64)* @strncmp to i64), %struct.Memory* %2)
  ret %struct.Memory* %4
}

define internal %struct.Memory* @ext_strcmp(%struct.State*, i64, %struct.Memory*) #18 {
  %4 = call %struct.Memory* @__remill_function_call(%struct.State* %0, i64 ptrtoint (i64 (i64, i64)* @strcmp to i64), %struct.Memory* %2)
  ret %struct.Memory* %4
}

define internal %struct.Memory* @ext_rand(%struct.State*, i64, %struct.Memory*) #18 {
  %4 = call %struct.Memory* @__remill_function_call(%struct.State* %0, i64 ptrtoint (i64 ()* @rand to i64), %struct.Memory* %2)
  ret %struct.Memory* %4
}

define internal %struct.Memory* @ext_calloc(%struct.State*, i64, %struct.Memory*) #18 {
  %4 = call %struct.Memory* @__remill_function_call(%struct.State* %0, i64 ptrtoint (i64 (i64, i64)* @calloc to i64), %struct.Memory* %2)
  ret %struct.Memory* %4
}

define internal %struct.Memory* @ext_fwrite(%struct.State*, i64, %struct.Memory*) #18 {
  %4 = call %struct.Memory* @__remill_function_call(%struct.State* %0, i64 ptrtoint (i64 (i64, i64, i64, i64)* @fwrite to i64), %struct.Memory* %2)
  ret %struct.Memory* %4
}

define internal %struct.Memory* @ext_realloc(%struct.State*, i64, %struct.Memory*) #18 {
  %4 = call %struct.Memory* @__remill_function_call(%struct.State* %0, i64 ptrtoint (i64 (i64, i64)* @realloc to i64), %struct.Memory* %2)
  ret %struct.Memory* %4
}


define internal %struct.Memory* @ext_log(%struct.State*, i64, %struct.Memory*) #18 {
  %4 = call %struct.Memory* @__remill_function_call(%struct.State* %0, i64 ptrtoint (i64 (i64)* @log to i64), %struct.Memory* %2)
  ret %struct.Memory* %4
}


define internal %struct.Memory* @ext_exp(%struct.State*, i64, %struct.Memory*) #18 {
  %4 = call %struct.Memory* @__remill_function_call(%struct.State* %0, i64 ptrtoint (i64 (i64)* @exp to i64), %struct.Memory* %2)
  ret %struct.Memory* %4
}

define internal %struct.Memory* @ext_sprintf(%struct.State*, i64, %struct.Memory*) #18 {
  %4 = call %struct.Memory* @__remill_function_call(%struct.State* %0, i64 ptrtoint (i64 (i64, i64, i64, i64, i64, i64, i64, i64, i64, i64, i64, i64, i64, i64, i64, i64)* @sprintf to i64), %struct.Memory* %2)
  ret %struct.Memory* %4
}

define internal %struct.Memory* @ext_strcat(%struct.State*, i64, %struct.Memory*) #18 {
  %4 = call %struct.Memory* @__remill_function_call(%struct.State* %0, i64 ptrtoint (i64 (i64, i64)* @strcat to i64), %struct.Memory* %2)
  ret %struct.Memory* %4
}

define internal %struct.Memory* @ext_puts(%struct.State*, i64, %struct.Memory*) #18 {
  %4 = call %struct.Memory* @__remill_function_call(%struct.State* %0, i64 ptrtoint (i64 (i64)* @puts to i64), %struct.Memory* %2)
  ret %struct.Memory* %4
}

define internal %struct.Memory* @ext_atol(%struct.State*, i64, %struct.Memory*) #18 {
  %4 = call %struct.Memory* @__remill_function_call(%struct.State* %0, i64 ptrtoint (i64 (i64)* @atol to i64), %struct.Memory* %2)
  ret %struct.Memory* %4
}

define internal %struct.Memory* @ext_atof(%struct.State*, i64, %struct.Memory*) #18 {
  %4 = call %struct.Memory* @__remill_function_call(%struct.State* %0, i64 ptrtoint (i64 (i64)* @atof to i64), %struct.Memory* %2)
  ret %struct.Memory* %4
}

define internal %struct.Memory* @ext_clock(%struct.State*, i64, %struct.Memory*) #18 {
  %4 = call %struct.Memory* @__remill_function_call(%struct.State* %0, i64 ptrtoint (i64 ()* @clock to i64), %struct.Memory* %2)
  ret %struct.Memory* %4
}

define internal %struct.Memory* @ext_strlen(%struct.State*, i64, %struct.Memory*) #18 {
  %4 = call %struct.Memory* @__remill_function_call(%struct.State* %0, i64 ptrtoint (i64 (i64)* @strlen to i64), %struct.Memory* %2)
  ret %struct.Memory* %4
}

define internal %struct.Memory* @ext_free(%struct.State*, i64, %struct.Memory*) #18 {
  %4 = call %struct.Memory* @__remill_function_call(%struct.State* %0, i64 ptrtoint (i64 (i64)* @free to i64), %struct.Memory* %2)
  ret %struct.Memory* %4
}

define internal %struct.Memory* @ext_srand(%struct.State*, i64, %struct.Memory*) #18 {
  %4 = call %struct.Memory* @__remill_function_call(%struct.State* %0, i64 ptrtoint (i64 (i64)* @srand to i64), %struct.Memory* %2)
  ret %struct.Memory* %4
}

define internal %struct.Memory* @ext_fputs(%struct.State*, i64, %struct.Memory*) #18 {
  %4 = call %struct.Memory* @__remill_function_call(%struct.State* %0, i64 ptrtoint (i64 (i64, i64)* @fputs to i64), %struct.Memory* %2)
  ret %struct.Memory* %4
}

define internal %struct.Memory* @ext_strtoll(%struct.State*, i64, %struct.Memory*) #18 {
  %4 = call %struct.Memory* @__remill_function_call(%struct.State* %0, i64 ptrtoint (i64 (i64, i64, i64)* @strtoll to i64), %struct.Memory* %2)
  ret %struct.Memory* %4
}

define internal %struct.Memory* @ext_sinf(%struct.State*, i64, %struct.Memory*) #18 {
  %4 = call %struct.Memory* @__remill_function_call(%struct.State* %0, i64 ptrtoint (i64 (i64)* @sinf to i64), %struct.Memory* %2)
  ret %struct.Memory* %4
}

define internal %struct.Memory* @ext_time(%struct.State*, i64, %struct.Memory*) #18 {
  %4 = call %struct.Memory* @__remill_function_call(%struct.State* %0, i64 ptrtoint (i64 (i64)* @time to i64), %struct.Memory* %2)
  ret %struct.Memory* %4
}

define internal %struct.Memory* @ext_printf(%struct.State*, i64, %struct.Memory*) #18 {
  %4 = call %struct.Memory* @__remill_function_call(%struct.State* %0, i64 ptrtoint (i64 (i64, i64, i64, i64, i64, i64, i64, i64, i64, i64, i64, i64, i64, i64, i64, i64)* @printf to i64), %struct.Memory* %2)
  ret %struct.Memory* %4
}

define internal %struct.Memory* @ext_memalign(%struct.State*, i64, %struct.Memory*) #18 {
  %4 = call %struct.Memory* @__remill_function_call(%struct.State* %0, i64 ptrtoint (i64 (i64, i64)* @memalign to i64), %struct.Memory* %2)
  ret %struct.Memory* %4
}

define internal %struct.Memory* @ext_random(%struct.State*, i64, %struct.Memory*) #18 {
  %4 = call %struct.Memory* @__remill_function_call(%struct.State* %0, i64 ptrtoint (i64 ()* @random to i64), %struct.Memory* %2)
  ret %struct.Memory* %4
}

define internal %struct.Memory* @ext_lrand48(%struct.State*, i64, %struct.Memory*) #18 {
  %4 = call %struct.Memory* @__remill_function_call(%struct.State* %0, i64 ptrtoint (i64 ()* @lrand48 to i64), %struct.Memory* %2)
  ret %struct.Memory* %4
}

define internal %struct.Memory* @ext_getchar(%struct.State*, i64, %struct.Memory*) #18 {
  %4 = call %struct.Memory* @__remill_function_call(%struct.State* %0, i64 ptrtoint (i64 ()* @getchar to i64), %struct.Memory* %2)
  ret %struct.Memory* %4
}

declare %struct.Memory* @ext_sqrt(%struct.State* noalias dereferenceable(3376), i64, %struct.Memory* noalias)
declare %struct.Memory* @ext_atan(%struct.State* noalias dereferenceable(3376), i64, %struct.Memory* noalias)
declare %struct.Memory* @ext_cos(%struct.State* noalias dereferenceable(3376), i64, %struct.Memory* noalias) 
declare %struct.Memory* @ext_tan(%struct.State* noalias dereferenceable(3376), i64, %struct.Memory* noalias) 
declare %struct.Memory* @ext_sin(%struct.State* noalias dereferenceable(3376), i64, %struct.Memory* noalias) 


; Data Access Globals


define %struct.Memory* @kernel_trmm_StrictFP(%struct.State* noalias , i64, %struct.Memory* noalias) alwaysinline  {
entry:
  %3 = getelementptr inbounds %struct.State, %struct.State* %0, i64 0, i32 6, i32 33, i32 0, i32 0
  store i64 %1, i64* %3, align 8
  %BRANCH_TAKEN = alloca i8, align 1
  store i8 0, i8* %BRANCH_TAKEN, align 1
  %MEMORY = alloca %struct.Memory*, align 8
  store %struct.Memory* %2, %struct.Memory** %MEMORY, align 8

  ; Code: .kernel_trmm_StrictFP:	 RIP: 400c20	 Bytes: 0
  ; Code: pushq %rbp	 RIP: 400c20	 Bytes: 1
  %loadMem_400c20 = load %struct.Memory*, %struct.Memory** %MEMORY
  %call_400c20 = call %struct.Memory* @routine_pushq__rbp(%struct.State* %0, i64  0, %struct.Memory* %loadMem_400c20)
  store %struct.Memory* %call_400c20, %struct.Memory** %MEMORY

  ; Code: movq %rsp, %rbp	 RIP: 400c21	 Bytes: 3
  %loadMem_400c21 = load %struct.Memory*, %struct.Memory** %MEMORY
  %call_400c21 = call %struct.Memory* @routine_movq__rsp___rbp(%struct.State* %0, i64  0, %struct.Memory* %loadMem_400c21)
  store %struct.Memory* %call_400c21, %struct.Memory** %MEMORY

  ; Code: movl %edi, -0x4(%rbp)	 RIP: 400c24	 Bytes: 3
  %loadMem_400c24 = load %struct.Memory*, %struct.Memory** %MEMORY
  %call_400c24 = call %struct.Memory* @routine_movl__edi__MINUS0x4__rbp_(%struct.State* %0, i64  0, %struct.Memory* %loadMem_400c24)
  store %struct.Memory* %call_400c24, %struct.Memory** %MEMORY

  ; Code: movsd %xmm0, -0x10(%rbp)	 RIP: 400c27	 Bytes: 5
  %loadMem_400c27 = load %struct.Memory*, %struct.Memory** %MEMORY
  %call_400c27 = call %struct.Memory* @routine_movsd__xmm0__MINUS0x10__rbp_(%struct.State* %0, i64  0, %struct.Memory* %loadMem_400c27)
  store %struct.Memory* %call_400c27, %struct.Memory** %MEMORY

  ; Code: movq %rsi, -0x18(%rbp)	 RIP: 400c2c	 Bytes: 4
  %loadMem_400c2c = load %struct.Memory*, %struct.Memory** %MEMORY
  %call_400c2c = call %struct.Memory* @routine_movq__rsi__MINUS0x18__rbp_(%struct.State* %0, i64  0, %struct.Memory* %loadMem_400c2c)
  store %struct.Memory* %call_400c2c, %struct.Memory** %MEMORY

  ; Code: movq %rdx, -0x20(%rbp)	 RIP: 400c30	 Bytes: 4
  %loadMem_400c30 = load %struct.Memory*, %struct.Memory** %MEMORY
  %call_400c30 = call %struct.Memory* @routine_movq__rdx__MINUS0x20__rbp_(%struct.State* %0, i64  0, %struct.Memory* %loadMem_400c30)
  store %struct.Memory* %call_400c30, %struct.Memory** %MEMORY

  ; Code: movl $0x1, -0x24(%rbp)	 RIP: 400c34	 Bytes: 7
  %loadMem_400c34 = load %struct.Memory*, %struct.Memory** %MEMORY
  %call_400c34 = call %struct.Memory* @routine_movl__0x1__MINUS0x24__rbp_(%struct.State* %0, i64  0, %struct.Memory* %loadMem_400c34)
  store %struct.Memory* %call_400c34, %struct.Memory** %MEMORY

  ; Code: .L_400c3b:	 RIP: 400c3b	 Bytes: 0
  br label %block_.L_400c3b
block_.L_400c3b:

  ; Code: movl -0x24(%rbp), %eax	 RIP: 400c3b	 Bytes: 3
  %loadMem_400c3b = load %struct.Memory*, %struct.Memory** %MEMORY
  %call_400c3b = call %struct.Memory* @routine_movl_MINUS0x24__rbp____eax(%struct.State* %0, i64  0, %struct.Memory* %loadMem_400c3b)
  store %struct.Memory* %call_400c3b, %struct.Memory** %MEMORY

  ; Code: cmpl -0x4(%rbp), %eax	 RIP: 400c3e	 Bytes: 3
  %loadMem_400c3e = load %struct.Memory*, %struct.Memory** %MEMORY
  %call_400c3e = call %struct.Memory* @routine_cmpl_MINUS0x4__rbp____eax(%struct.State* %0, i64  0, %struct.Memory* %loadMem_400c3e)
  store %struct.Memory* %call_400c3e, %struct.Memory** %MEMORY

  ; Code: jge .L_400cf3	 RIP: 400c41	 Bytes: 6
  %loadMem_400c41 = load %struct.Memory*, %struct.Memory** %MEMORY
  %call_400c41 = call %struct.Memory* @routine_jge_.L_400cf3(%struct.State* %0, i64  0, %struct.Memory* %loadMem_400c41, i8* %BRANCH_TAKEN, i64 178, i64 6, i64 6)
  store %struct.Memory* %call_400c41, %struct.Memory** %MEMORY

  %loadBr_400c41 = load i8, i8* %BRANCH_TAKEN
  %cmpBr_400c41 = icmp eq i8 %loadBr_400c41, 1
  br i1 %cmpBr_400c41, label %block_.L_400cf3, label %block_400c47

block_400c47:
  ; Code: movl $0x0, -0x28(%rbp)	 RIP: 400c47	 Bytes: 7
  %loadMem_400c47 = load %struct.Memory*, %struct.Memory** %MEMORY
  %call_400c47 = call %struct.Memory* @routine_movl__0x0__MINUS0x28__rbp_(%struct.State* %0, i64  0, %struct.Memory* %loadMem_400c47)
  store %struct.Memory* %call_400c47, %struct.Memory** %MEMORY

  ; Code: .L_400c4e:	 RIP: 400c4e	 Bytes: 0
  br label %block_.L_400c4e
block_.L_400c4e:

  ; Code: movl -0x28(%rbp), %eax	 RIP: 400c4e	 Bytes: 3
  %loadMem_400c4e = load %struct.Memory*, %struct.Memory** %MEMORY
  %call_400c4e = call %struct.Memory* @routine_movl_MINUS0x28__rbp____eax(%struct.State* %0, i64  0, %struct.Memory* %loadMem_400c4e)
  store %struct.Memory* %call_400c4e, %struct.Memory** %MEMORY

  ; Code: cmpl -0x4(%rbp), %eax	 RIP: 400c51	 Bytes: 3
  %loadMem_400c51 = load %struct.Memory*, %struct.Memory** %MEMORY
  %call_400c51 = call %struct.Memory* @routine_cmpl_MINUS0x4__rbp____eax(%struct.State* %0, i64  0, %struct.Memory* %loadMem_400c51)
  store %struct.Memory* %call_400c51, %struct.Memory** %MEMORY

  ; Code: jge .L_400ce0	 RIP: 400c54	 Bytes: 6
  %loadMem_400c54 = load %struct.Memory*, %struct.Memory** %MEMORY
  %call_400c54 = call %struct.Memory* @routine_jge_.L_400ce0(%struct.State* %0, i64  0, %struct.Memory* %loadMem_400c54, i8* %BRANCH_TAKEN, i64 140, i64 6, i64 6)
  store %struct.Memory* %call_400c54, %struct.Memory** %MEMORY

  %loadBr_400c54 = load i8, i8* %BRANCH_TAKEN
  %cmpBr_400c54 = icmp eq i8 %loadBr_400c54, 1
  br i1 %cmpBr_400c54, label %block_.L_400ce0, label %block_400c5a

block_400c5a:
  ; Code: movl $0x0, -0x2c(%rbp)	 RIP: 400c5a	 Bytes: 7
  %loadMem_400c5a = load %struct.Memory*, %struct.Memory** %MEMORY
  %call_400c5a = call %struct.Memory* @routine_movl__0x0__MINUS0x2c__rbp_(%struct.State* %0, i64  0, %struct.Memory* %loadMem_400c5a)
  store %struct.Memory* %call_400c5a, %struct.Memory** %MEMORY

  ; Code: .L_400c61:	 RIP: 400c61	 Bytes: 0
  br label %block_.L_400c61
block_.L_400c61:

  ; Code: movl -0x2c(%rbp), %eax	 RIP: 400c61	 Bytes: 3
  %loadMem_400c61 = load %struct.Memory*, %struct.Memory** %MEMORY
  %call_400c61 = call %struct.Memory* @routine_movl_MINUS0x2c__rbp____eax(%struct.State* %0, i64  0, %struct.Memory* %loadMem_400c61)
  store %struct.Memory* %call_400c61, %struct.Memory** %MEMORY

  ; Code: cmpl -0x24(%rbp), %eax	 RIP: 400c64	 Bytes: 3
  %loadMem_400c64 = load %struct.Memory*, %struct.Memory** %MEMORY
  %call_400c64 = call %struct.Memory* @routine_cmpl_MINUS0x24__rbp____eax(%struct.State* %0, i64  0, %struct.Memory* %loadMem_400c64)
  store %struct.Memory* %call_400c64, %struct.Memory** %MEMORY

  ; Code: jge .L_400ccd	 RIP: 400c67	 Bytes: 6
  %loadMem_400c67 = load %struct.Memory*, %struct.Memory** %MEMORY
  %call_400c67 = call %struct.Memory* @routine_jge_.L_400ccd(%struct.State* %0, i64  0, %struct.Memory* %loadMem_400c67, i8* %BRANCH_TAKEN, i64 102, i64 6, i64 6)
  store %struct.Memory* %call_400c67, %struct.Memory** %MEMORY

  %loadBr_400c67 = load i8, i8* %BRANCH_TAKEN
  %cmpBr_400c67 = icmp eq i8 %loadBr_400c67, 1
  br i1 %cmpBr_400c67, label %block_.L_400ccd, label %block_400c6d

block_400c6d:
  ; Code: movsd -0x10(%rbp), %xmm0	 RIP: 400c6d	 Bytes: 5
  %loadMem_400c6d = load %struct.Memory*, %struct.Memory** %MEMORY
  %call_400c6d = call %struct.Memory* @routine_movsd_MINUS0x10__rbp____xmm0(%struct.State* %0, i64  0, %struct.Memory* %loadMem_400c6d)
  store %struct.Memory* %call_400c6d, %struct.Memory** %MEMORY

  ; Code: movq -0x18(%rbp), %rax	 RIP: 400c72	 Bytes: 4
  %loadMem_400c72 = load %struct.Memory*, %struct.Memory** %MEMORY
  %call_400c72 = call %struct.Memory* @routine_movq_MINUS0x18__rbp____rax(%struct.State* %0, i64  0, %struct.Memory* %loadMem_400c72)
  store %struct.Memory* %call_400c72, %struct.Memory** %MEMORY

  ; Code: movslq -0x24(%rbp), %rcx	 RIP: 400c76	 Bytes: 4
  %loadMem_400c76 = load %struct.Memory*, %struct.Memory** %MEMORY
  %call_400c76 = call %struct.Memory* @routine_movslq_MINUS0x24__rbp____rcx(%struct.State* %0, i64  0, %struct.Memory* %loadMem_400c76)
  store %struct.Memory* %call_400c76, %struct.Memory** %MEMORY

  ; Code: shlq $0xd, %rcx	 RIP: 400c7a	 Bytes: 4
  %loadMem_400c7a = load %struct.Memory*, %struct.Memory** %MEMORY
  %call_400c7a = call %struct.Memory* @routine_shlq__0xd___rcx(%struct.State* %0, i64  0, %struct.Memory* %loadMem_400c7a)
  store %struct.Memory* %call_400c7a, %struct.Memory** %MEMORY

  ; Code: addq %rcx, %rax	 RIP: 400c7e	 Bytes: 3
  %loadMem_400c7e = load %struct.Memory*, %struct.Memory** %MEMORY
  %call_400c7e = call %struct.Memory* @routine_addq__rcx___rax(%struct.State* %0, i64  0, %struct.Memory* %loadMem_400c7e)
  store %struct.Memory* %call_400c7e, %struct.Memory** %MEMORY

  ; Code: movslq -0x2c(%rbp), %rcx	 RIP: 400c81	 Bytes: 4
  %loadMem_400c81 = load %struct.Memory*, %struct.Memory** %MEMORY
  %call_400c81 = call %struct.Memory* @routine_movslq_MINUS0x2c__rbp____rcx(%struct.State* %0, i64  0, %struct.Memory* %loadMem_400c81)
  store %struct.Memory* %call_400c81, %struct.Memory** %MEMORY

  ; Code: mulsd (%rax,%rcx,8), %xmm0	 RIP: 400c85	 Bytes: 5
  %loadMem_400c85 = load %struct.Memory*, %struct.Memory** %MEMORY
  %call_400c85 = call %struct.Memory* @routine_mulsd___rax__rcx_8____xmm0(%struct.State* %0, i64  0, %struct.Memory* %loadMem_400c85)
  store %struct.Memory* %call_400c85, %struct.Memory** %MEMORY

  ; Code: movq -0x20(%rbp), %rax	 RIP: 400c8a	 Bytes: 4
  %loadMem_400c8a = load %struct.Memory*, %struct.Memory** %MEMORY
  %call_400c8a = call %struct.Memory* @routine_movq_MINUS0x20__rbp____rax(%struct.State* %0, i64  0, %struct.Memory* %loadMem_400c8a)
  store %struct.Memory* %call_400c8a, %struct.Memory** %MEMORY

  ; Code: movslq -0x28(%rbp), %rcx	 RIP: 400c8e	 Bytes: 4
  %loadMem_400c8e = load %struct.Memory*, %struct.Memory** %MEMORY
  %call_400c8e = call %struct.Memory* @routine_movslq_MINUS0x28__rbp____rcx(%struct.State* %0, i64  0, %struct.Memory* %loadMem_400c8e)
  store %struct.Memory* %call_400c8e, %struct.Memory** %MEMORY

  ; Code: shlq $0xd, %rcx	 RIP: 400c92	 Bytes: 4
  %loadMem_400c92 = load %struct.Memory*, %struct.Memory** %MEMORY
  %call_400c92 = call %struct.Memory* @routine_shlq__0xd___rcx(%struct.State* %0, i64  0, %struct.Memory* %loadMem_400c92)
  store %struct.Memory* %call_400c92, %struct.Memory** %MEMORY

  ; Code: addq %rcx, %rax	 RIP: 400c96	 Bytes: 3
  %loadMem_400c96 = load %struct.Memory*, %struct.Memory** %MEMORY
  %call_400c96 = call %struct.Memory* @routine_addq__rcx___rax(%struct.State* %0, i64  0, %struct.Memory* %loadMem_400c96)
  store %struct.Memory* %call_400c96, %struct.Memory** %MEMORY

  ; Code: movslq -0x2c(%rbp), %rcx	 RIP: 400c99	 Bytes: 4
  %loadMem_400c99 = load %struct.Memory*, %struct.Memory** %MEMORY
  %call_400c99 = call %struct.Memory* @routine_movslq_MINUS0x2c__rbp____rcx(%struct.State* %0, i64  0, %struct.Memory* %loadMem_400c99)
  store %struct.Memory* %call_400c99, %struct.Memory** %MEMORY

  ; Code: mulsd (%rax,%rcx,8), %xmm0	 RIP: 400c9d	 Bytes: 5
  %loadMem_400c9d = load %struct.Memory*, %struct.Memory** %MEMORY
  %call_400c9d = call %struct.Memory* @routine_mulsd___rax__rcx_8____xmm0(%struct.State* %0, i64  0, %struct.Memory* %loadMem_400c9d)
  store %struct.Memory* %call_400c9d, %struct.Memory** %MEMORY

  ; Code: movq -0x20(%rbp), %rax	 RIP: 400ca2	 Bytes: 4
  %loadMem_400ca2 = load %struct.Memory*, %struct.Memory** %MEMORY
  %call_400ca2 = call %struct.Memory* @routine_movq_MINUS0x20__rbp____rax(%struct.State* %0, i64  0, %struct.Memory* %loadMem_400ca2)
  store %struct.Memory* %call_400ca2, %struct.Memory** %MEMORY

  ; Code: movslq -0x24(%rbp), %rcx	 RIP: 400ca6	 Bytes: 4
  %loadMem_400ca6 = load %struct.Memory*, %struct.Memory** %MEMORY
  %call_400ca6 = call %struct.Memory* @routine_movslq_MINUS0x24__rbp____rcx(%struct.State* %0, i64  0, %struct.Memory* %loadMem_400ca6)
  store %struct.Memory* %call_400ca6, %struct.Memory** %MEMORY

  ; Code: shlq $0xd, %rcx	 RIP: 400caa	 Bytes: 4
  %loadMem_400caa = load %struct.Memory*, %struct.Memory** %MEMORY
  %call_400caa = call %struct.Memory* @routine_shlq__0xd___rcx(%struct.State* %0, i64  0, %struct.Memory* %loadMem_400caa)
  store %struct.Memory* %call_400caa, %struct.Memory** %MEMORY

  ; Code: addq %rcx, %rax	 RIP: 400cae	 Bytes: 3
  %loadMem_400cae = load %struct.Memory*, %struct.Memory** %MEMORY
  %call_400cae = call %struct.Memory* @routine_addq__rcx___rax(%struct.State* %0, i64  0, %struct.Memory* %loadMem_400cae)
  store %struct.Memory* %call_400cae, %struct.Memory** %MEMORY

  ; Code: movslq -0x28(%rbp), %rcx	 RIP: 400cb1	 Bytes: 4
  %loadMem_400cb1 = load %struct.Memory*, %struct.Memory** %MEMORY
  %call_400cb1 = call %struct.Memory* @routine_movslq_MINUS0x28__rbp____rcx(%struct.State* %0, i64  0, %struct.Memory* %loadMem_400cb1)
  store %struct.Memory* %call_400cb1, %struct.Memory** %MEMORY

  ; Code: addsd (%rax,%rcx,8), %xmm0	 RIP: 400cb5	 Bytes: 5
  %loadMem_400cb5 = load %struct.Memory*, %struct.Memory** %MEMORY
  %call_400cb5 = call %struct.Memory* @routine_addsd___rax__rcx_8____xmm0(%struct.State* %0, i64  0, %struct.Memory* %loadMem_400cb5)
  store %struct.Memory* %call_400cb5, %struct.Memory** %MEMORY

  ; Code: movsd %xmm0, (%rax,%rcx,8)	 RIP: 400cba	 Bytes: 5
  %loadMem_400cba = load %struct.Memory*, %struct.Memory** %MEMORY
  %call_400cba = call %struct.Memory* @routine_movsd__xmm0____rax__rcx_8_(%struct.State* %0, i64  0, %struct.Memory* %loadMem_400cba)
  store %struct.Memory* %call_400cba, %struct.Memory** %MEMORY

  ; Code: movl -0x2c(%rbp), %eax	 RIP: 400cbf	 Bytes: 3
  %loadMem_400cbf = load %struct.Memory*, %struct.Memory** %MEMORY
  %call_400cbf = call %struct.Memory* @routine_movl_MINUS0x2c__rbp____eax(%struct.State* %0, i64  0, %struct.Memory* %loadMem_400cbf)
  store %struct.Memory* %call_400cbf, %struct.Memory** %MEMORY

  ; Code: addl $0x1, %eax	 RIP: 400cc2	 Bytes: 3
  %loadMem_400cc2 = load %struct.Memory*, %struct.Memory** %MEMORY
  %call_400cc2 = call %struct.Memory* @routine_addl__0x1___eax(%struct.State* %0, i64  0, %struct.Memory* %loadMem_400cc2)
  store %struct.Memory* %call_400cc2, %struct.Memory** %MEMORY

  ; Code: movl %eax, -0x2c(%rbp)	 RIP: 400cc5	 Bytes: 3
  %loadMem_400cc5 = load %struct.Memory*, %struct.Memory** %MEMORY
  %call_400cc5 = call %struct.Memory* @routine_movl__eax__MINUS0x2c__rbp_(%struct.State* %0, i64  0, %struct.Memory* %loadMem_400cc5)
  store %struct.Memory* %call_400cc5, %struct.Memory** %MEMORY

  ; Code: jmpq .L_400c61	 RIP: 400cc8	 Bytes: 5
  %loadMem_400cc8 = load %struct.Memory*, %struct.Memory** %MEMORY
  %call_400cc8 = call %struct.Memory* @routine_jmpq_.L_400c61(%struct.State* %0, i64  0, %struct.Memory* %loadMem_400cc8, i64 -103, i64 5)
  store %struct.Memory* %call_400cc8, %struct.Memory** %MEMORY

  br label %block_.L_400c61

  ; Code: .L_400ccd:	 RIP: 400ccd	 Bytes: 0
block_.L_400ccd:

  ; Code: jmpq .L_400cd2	 RIP: 400ccd	 Bytes: 5
  %loadMem_400ccd = load %struct.Memory*, %struct.Memory** %MEMORY
  %call_400ccd = call %struct.Memory* @routine_jmpq_.L_400cd2(%struct.State* %0, i64  0, %struct.Memory* %loadMem_400ccd, i64 5, i64 5)
  store %struct.Memory* %call_400ccd, %struct.Memory** %MEMORY

  br label %block_.L_400cd2

  ; Code: .L_400cd2:	 RIP: 400cd2	 Bytes: 0
block_.L_400cd2:

  ; Code: movl -0x28(%rbp), %eax	 RIP: 400cd2	 Bytes: 3
  %loadMem_400cd2 = load %struct.Memory*, %struct.Memory** %MEMORY
  %call_400cd2 = call %struct.Memory* @routine_movl_MINUS0x28__rbp____eax(%struct.State* %0, i64  0, %struct.Memory* %loadMem_400cd2)
  store %struct.Memory* %call_400cd2, %struct.Memory** %MEMORY

  ; Code: addl $0x1, %eax	 RIP: 400cd5	 Bytes: 3
  %loadMem_400cd5 = load %struct.Memory*, %struct.Memory** %MEMORY
  %call_400cd5 = call %struct.Memory* @routine_addl__0x1___eax(%struct.State* %0, i64  0, %struct.Memory* %loadMem_400cd5)
  store %struct.Memory* %call_400cd5, %struct.Memory** %MEMORY

  ; Code: movl %eax, -0x28(%rbp)	 RIP: 400cd8	 Bytes: 3
  %loadMem_400cd8 = load %struct.Memory*, %struct.Memory** %MEMORY
  %call_400cd8 = call %struct.Memory* @routine_movl__eax__MINUS0x28__rbp_(%struct.State* %0, i64  0, %struct.Memory* %loadMem_400cd8)
  store %struct.Memory* %call_400cd8, %struct.Memory** %MEMORY

  ; Code: jmpq .L_400c4e	 RIP: 400cdb	 Bytes: 5
  %loadMem_400cdb = load %struct.Memory*, %struct.Memory** %MEMORY
  %call_400cdb = call %struct.Memory* @routine_jmpq_.L_400c4e(%struct.State* %0, i64  0, %struct.Memory* %loadMem_400cdb, i64 -141, i64 5)
  store %struct.Memory* %call_400cdb, %struct.Memory** %MEMORY

  br label %block_.L_400c4e

  ; Code: .L_400ce0:	 RIP: 400ce0	 Bytes: 0
block_.L_400ce0:

  ; Code: jmpq .L_400ce5	 RIP: 400ce0	 Bytes: 5
  %loadMem_400ce0 = load %struct.Memory*, %struct.Memory** %MEMORY
  %call_400ce0 = call %struct.Memory* @routine_jmpq_.L_400ce5(%struct.State* %0, i64  0, %struct.Memory* %loadMem_400ce0, i64 5, i64 5)
  store %struct.Memory* %call_400ce0, %struct.Memory** %MEMORY

  br label %block_.L_400ce5

  ; Code: .L_400ce5:	 RIP: 400ce5	 Bytes: 0
block_.L_400ce5:

  ; Code: movl -0x24(%rbp), %eax	 RIP: 400ce5	 Bytes: 3
  %loadMem_400ce5 = load %struct.Memory*, %struct.Memory** %MEMORY
  %call_400ce5 = call %struct.Memory* @routine_movl_MINUS0x24__rbp____eax(%struct.State* %0, i64  0, %struct.Memory* %loadMem_400ce5)
  store %struct.Memory* %call_400ce5, %struct.Memory** %MEMORY

  ; Code: addl $0x1, %eax	 RIP: 400ce8	 Bytes: 3
  %loadMem_400ce8 = load %struct.Memory*, %struct.Memory** %MEMORY
  %call_400ce8 = call %struct.Memory* @routine_addl__0x1___eax(%struct.State* %0, i64  0, %struct.Memory* %loadMem_400ce8)
  store %struct.Memory* %call_400ce8, %struct.Memory** %MEMORY

  ; Code: movl %eax, -0x24(%rbp)	 RIP: 400ceb	 Bytes: 3
  %loadMem_400ceb = load %struct.Memory*, %struct.Memory** %MEMORY
  %call_400ceb = call %struct.Memory* @routine_movl__eax__MINUS0x24__rbp_(%struct.State* %0, i64  0, %struct.Memory* %loadMem_400ceb)
  store %struct.Memory* %call_400ceb, %struct.Memory** %MEMORY

  ; Code: jmpq .L_400c3b	 RIP: 400cee	 Bytes: 5
  %loadMem_400cee = load %struct.Memory*, %struct.Memory** %MEMORY
  %call_400cee = call %struct.Memory* @routine_jmpq_.L_400c3b(%struct.State* %0, i64  0, %struct.Memory* %loadMem_400cee, i64 -179, i64 5)
  store %struct.Memory* %call_400cee, %struct.Memory** %MEMORY

  br label %block_.L_400c3b

  ; Code: .L_400cf3:	 RIP: 400cf3	 Bytes: 0
block_.L_400cf3:

  ; Code: popq %rbp	 RIP: 400cf3	 Bytes: 1
  %loadMem_400cf3 = load %struct.Memory*, %struct.Memory** %MEMORY
  %call_400cf3 = call %struct.Memory* @routine_popq__rbp(%struct.State* %0, i64  0, %struct.Memory* %loadMem_400cf3)
  store %struct.Memory* %call_400cf3, %struct.Memory** %MEMORY

  ; Code: retq	 RIP: 400cf4	 Bytes: 1
  %loadMem_400cf4 = load %struct.Memory*, %struct.Memory** %MEMORY
  %call_400cf4 = call %struct.Memory* @routine_retq(%struct.State* %0, i64  0, %struct.Memory* %loadMem_400cf4)
  store %struct.Memory* %call_400cf4, %struct.Memory** %MEMORY

  ret %struct.Memory* %call_400cf4
}

define internal %struct.Memory* @_ZN12_GLOBAL__N_1L4PUSHI2InImEEEP6MemoryS4_R5StateT_(%struct.Memory*, %struct.State* nocapture dereferenceable(3376), i64) #0 {
  %4 = getelementptr inbounds %struct.State, %struct.State* %1, i64 0, i32 6, i32 13, i32 0, i32 0
  %5 = load i64, i64* %4, align 8
  %6 = add i64 %5, -8
  %7 = inttoptr i64 %6 to i64*
  store i64 %2, i64* %7
  store i64 %6, i64* %4, align 8
  ret %struct.Memory* %0
}

define %struct.Memory* @routine_pushq__rbp(%struct.State*  dereferenceable(3376), i64, %struct.Memory* ) #19 {
block_400488:
  %3 = getelementptr inbounds %struct.State, %struct.State* %0, i32 0, i32 6
  %4 = getelementptr inbounds %struct.GPR, %struct.GPR* %3, i32 0, i32 33
  %5 = getelementptr inbounds %struct.Reg, %struct.Reg* %4, i32 0, i32 0
  %PC = bitcast %union.anon* %5 to i64*
  %6 = getelementptr inbounds %struct.State, %struct.State* %0, i32 0, i32 6
  %7 = getelementptr inbounds %struct.GPR, %struct.GPR* %6, i32 0, i32 15
  %8 = getelementptr inbounds %struct.Reg, %struct.Reg* %7, i32 0, i32 0
  %RBP = bitcast %union.anon* %8 to i64*
  %9 = load i64, i64* %RBP
  %10 = load i64, i64* %PC
  %11 = add i64 %10, 1
  store i64 %11, i64* %PC
  %12 = call %struct.Memory* @_ZN12_GLOBAL__N_1L4PUSHI2InImEEEP6MemoryS4_R5StateT_(%struct.Memory* %2, %struct.State* %0, i64 %9)
  ret %struct.Memory* %12
}

define internal %struct.Memory* @_ZN12_GLOBAL__N_1L3MOVI3RnWImE2RnImEEEP6MemoryS6_R5StateT_T0_(%struct.Memory* readnone returned, %struct.State* nocapture readnone dereferenceable(3376), i64* nocapture, i64) #2 {
  store i64 %3, i64* %2, align 8
  ret %struct.Memory* %0
}

define %struct.Memory* @routine_movq__rsp___rbp(%struct.State*  dereferenceable(3376), i64, %struct.Memory* ) #19 {
block_400488:
  %3 = getelementptr inbounds %struct.State, %struct.State* %0, i32 0, i32 6
  %4 = getelementptr inbounds %struct.GPR, %struct.GPR* %3, i32 0, i32 33
  %5 = getelementptr inbounds %struct.Reg, %struct.Reg* %4, i32 0, i32 0
  %PC = bitcast %union.anon* %5 to i64*
  %6 = getelementptr inbounds %struct.State, %struct.State* %0, i32 0, i32 6
  %7 = getelementptr inbounds %struct.GPR, %struct.GPR* %6, i32 0, i32 13
  %8 = getelementptr inbounds %struct.Reg, %struct.Reg* %7, i32 0, i32 0
  %RSP = bitcast %union.anon* %8 to i64*
  %9 = getelementptr inbounds %struct.State, %struct.State* %0, i32 0, i32 6
  %10 = getelementptr inbounds %struct.GPR, %struct.GPR* %9, i32 0, i32 15
  %11 = getelementptr inbounds %struct.Reg, %struct.Reg* %10, i32 0, i32 0
  %RBP = bitcast %union.anon* %11 to i64*
  %12 = load i64, i64* %RSP
  %13 = load i64, i64* %PC
  %14 = add i64 %13, 3
  store i64 %14, i64* %PC
  %15 = call %struct.Memory* @_ZN12_GLOBAL__N_1L3MOVI3RnWImE2RnImEEEP6MemoryS6_R5StateT_T0_(%struct.Memory* %2, %struct.State* %0, i64* %RBP, i64 %12)
  ret %struct.Memory* %15
}

define internal %struct.Memory* @_ZN12_GLOBAL__N_1L3MOVI3MnWIjE2RnIjEEEP6MemoryS6_R5StateT_T0_(%struct.Memory* readnone, %struct.State* nocapture readnone dereferenceable(3376), i64, i64) #8 {
  %5 = trunc i64 %3 to i32
  %6 = inttoptr i64 %2 to i32*
  store i32 %5, i32* %6
  ret %struct.Memory* %0
}

define %struct.Memory* @routine_movl__edi__MINUS0x4__rbp_(%struct.State*  dereferenceable(3376), i64, %struct.Memory* ) #19 {
block_400488:
  %3 = getelementptr inbounds %struct.State, %struct.State* %0, i32 0, i32 6
  %4 = getelementptr inbounds %struct.GPR, %struct.GPR* %3, i32 0, i32 33
  %5 = getelementptr inbounds %struct.Reg, %struct.Reg* %4, i32 0, i32 0
  %PC = bitcast %union.anon* %5 to i64*
  %6 = getelementptr inbounds %struct.State, %struct.State* %0, i32 0, i32 6
  %7 = getelementptr inbounds %struct.GPR, %struct.GPR* %6, i32 0, i32 11
  %8 = getelementptr inbounds %struct.Reg, %struct.Reg* %7, i32 0, i32 0
  %EDI = bitcast %union.anon* %8 to i32*
  %9 = getelementptr inbounds %struct.State, %struct.State* %0, i32 0, i32 6
  %10 = getelementptr inbounds %struct.GPR, %struct.GPR* %9, i32 0, i32 15
  %11 = getelementptr inbounds %struct.Reg, %struct.Reg* %10, i32 0, i32 0
  %RBP = bitcast %union.anon* %11 to i64*
  %12 = load i64, i64* %RBP
  %13 = sub i64 %12, 4
  %14 = load i32, i32* %EDI
  %15 = zext i32 %14 to i64
  %16 = load i64, i64* %PC
  %17 = add i64 %16, 3
  store i64 %17, i64* %PC
  %18 = call %struct.Memory* @_ZN12_GLOBAL__N_1L3MOVI3MnWIjE2RnIjEEEP6MemoryS6_R5StateT_T0_(%struct.Memory* %2, %struct.State* %0, i64 %13, i64 %15)
  ret %struct.Memory* %18
}

define internal %struct.Memory* @_ZN12_GLOBAL__N_1L9MOVSD_MEMI4MVnWI7vec64_tE2VnI8vec128_tEEEP6MemoryS8_R5StateT_T0_(%struct.Memory* readnone, %struct.State* nocapture readnone dereferenceable(3376), i64, i8* nocapture readonly) #7 {
  %5 = bitcast i8* %3 to double*
  %6 = load double, double* %5, align 1
  %7 = inttoptr i64 %2 to double*
  store double %6, double* %7
  ret %struct.Memory* %0
}

define %struct.Memory* @routine_movsd__xmm0__MINUS0x10__rbp_(%struct.State*  dereferenceable(3376), i64, %struct.Memory* ) #19 {
block_400488:
  %3 = getelementptr inbounds %struct.State, %struct.State* %0, i32 0, i32 6
  %4 = getelementptr inbounds %struct.GPR, %struct.GPR* %3, i32 0, i32 33
  %5 = getelementptr inbounds %struct.Reg, %struct.Reg* %4, i32 0, i32 0
  %PC = bitcast %union.anon* %5 to i64*
  %6 = getelementptr inbounds %struct.State, %struct.State* %0, i32 0, i32 6
  %7 = getelementptr inbounds %struct.GPR, %struct.GPR* %6, i32 0, i32 15
  %8 = getelementptr inbounds %struct.Reg, %struct.Reg* %7, i32 0, i32 0
  %RBP = bitcast %union.anon* %8 to i64*
  %9 = getelementptr inbounds %struct.State, %struct.State* %0, i32 0, i32 1
  %10 = getelementptr inbounds [32 x %union.VectorReg], [32 x %union.VectorReg]* %9, i64 0, i64 0
  %XMM0 = bitcast %union.VectorReg* %10 to %union.vec128_t*
  %11 = load i64, i64* %RBP
  %12 = sub i64 %11, 16
  %13 = bitcast %union.vec128_t* %XMM0 to i8*
  %14 = load i64, i64* %PC
  %15 = add i64 %14, 5
  store i64 %15, i64* %PC
  %16 = call %struct.Memory* @_ZN12_GLOBAL__N_1L9MOVSD_MEMI4MVnWI7vec64_tE2VnI8vec128_tEEEP6MemoryS8_R5StateT_T0_(%struct.Memory* %2, %struct.State* %0, i64 %12, i8* %13)
  ret %struct.Memory* %16
}

define internal %struct.Memory* @_ZN12_GLOBAL__N_1L3MOVI3MnWImE2RnImEEEP6MemoryS6_R5StateT_T0_(%struct.Memory* readnone, %struct.State* nocapture readnone dereferenceable(3376), i64, i64) #8 {
  %5 = inttoptr i64 %2 to i64*
  store i64 %3, i64* %5
  ret %struct.Memory* %0
}

define %struct.Memory* @routine_movq__rsi__MINUS0x18__rbp_(%struct.State*  dereferenceable(3376), i64, %struct.Memory* ) #19 {
block_400488:
  %3 = getelementptr inbounds %struct.State, %struct.State* %0, i32 0, i32 6
  %4 = getelementptr inbounds %struct.GPR, %struct.GPR* %3, i32 0, i32 33
  %5 = getelementptr inbounds %struct.Reg, %struct.Reg* %4, i32 0, i32 0
  %PC = bitcast %union.anon* %5 to i64*
  %6 = getelementptr inbounds %struct.State, %struct.State* %0, i32 0, i32 6
  %7 = getelementptr inbounds %struct.GPR, %struct.GPR* %6, i32 0, i32 9
  %8 = getelementptr inbounds %struct.Reg, %struct.Reg* %7, i32 0, i32 0
  %RSI = bitcast %union.anon* %8 to i64*
  %9 = getelementptr inbounds %struct.State, %struct.State* %0, i32 0, i32 6
  %10 = getelementptr inbounds %struct.GPR, %struct.GPR* %9, i32 0, i32 15
  %11 = getelementptr inbounds %struct.Reg, %struct.Reg* %10, i32 0, i32 0
  %RBP = bitcast %union.anon* %11 to i64*
  %12 = load i64, i64* %RBP
  %13 = sub i64 %12, 24
  %14 = load i64, i64* %RSI
  %15 = load i64, i64* %PC
  %16 = add i64 %15, 4
  store i64 %16, i64* %PC
  %17 = call %struct.Memory* @_ZN12_GLOBAL__N_1L3MOVI3MnWImE2RnImEEEP6MemoryS6_R5StateT_T0_(%struct.Memory* %2, %struct.State* %0, i64 %13, i64 %14)
  ret %struct.Memory* %17
}


define %struct.Memory* @routine_movq__rdx__MINUS0x20__rbp_(%struct.State*  dereferenceable(3376), i64, %struct.Memory* ) #19 {
block_400488:
  %3 = getelementptr inbounds %struct.State, %struct.State* %0, i32 0, i32 6
  %4 = getelementptr inbounds %struct.GPR, %struct.GPR* %3, i32 0, i32 33
  %5 = getelementptr inbounds %struct.Reg, %struct.Reg* %4, i32 0, i32 0
  %PC = bitcast %union.anon* %5 to i64*
  %6 = getelementptr inbounds %struct.State, %struct.State* %0, i32 0, i32 6
  %7 = getelementptr inbounds %struct.GPR, %struct.GPR* %6, i32 0, i32 7
  %8 = getelementptr inbounds %struct.Reg, %struct.Reg* %7, i32 0, i32 0
  %RDX = bitcast %union.anon* %8 to i64*
  %9 = getelementptr inbounds %struct.State, %struct.State* %0, i32 0, i32 6
  %10 = getelementptr inbounds %struct.GPR, %struct.GPR* %9, i32 0, i32 15
  %11 = getelementptr inbounds %struct.Reg, %struct.Reg* %10, i32 0, i32 0
  %RBP = bitcast %union.anon* %11 to i64*
  %12 = load i64, i64* %RBP
  %13 = sub i64 %12, 32
  %14 = load i64, i64* %RDX
  %15 = load i64, i64* %PC
  %16 = add i64 %15, 4
  store i64 %16, i64* %PC
  %17 = call %struct.Memory* @_ZN12_GLOBAL__N_1L3MOVI3MnWImE2RnImEEEP6MemoryS6_R5StateT_T0_(%struct.Memory* %2, %struct.State* %0, i64 %13, i64 %14)
  ret %struct.Memory* %17
}

define internal %struct.Memory* @_ZN12_GLOBAL__N_1L3MOVI3MnWIjE2InIjEEEP6MemoryS6_R5StateT_T0_(%struct.Memory* readnone, %struct.State* nocapture readnone dereferenceable(3376), i64, i64) #8 {
  %5 = trunc i64 %3 to i32
  %6 = inttoptr i64 %2 to i32*
  store i32 %5, i32* %6
  ret %struct.Memory* %0
}

define %struct.Memory* @routine_movl__0x1__MINUS0x24__rbp_(%struct.State*  dereferenceable(3376), i64, %struct.Memory* ) #19 {
block_400488:
  %3 = getelementptr inbounds %struct.State, %struct.State* %0, i32 0, i32 6
  %4 = getelementptr inbounds %struct.GPR, %struct.GPR* %3, i32 0, i32 33
  %5 = getelementptr inbounds %struct.Reg, %struct.Reg* %4, i32 0, i32 0
  %PC = bitcast %union.anon* %5 to i64*
  %6 = getelementptr inbounds %struct.State, %struct.State* %0, i32 0, i32 6
  %7 = getelementptr inbounds %struct.GPR, %struct.GPR* %6, i32 0, i32 15
  %8 = getelementptr inbounds %struct.Reg, %struct.Reg* %7, i32 0, i32 0
  %RBP = bitcast %union.anon* %8 to i64*
  %9 = load i64, i64* %RBP
  %10 = sub i64 %9, 36
  %11 = load i64, i64* %PC
  %12 = add i64 %11, 7
  store i64 %12, i64* %PC
  %13 = call %struct.Memory* @_ZN12_GLOBAL__N_1L3MOVI3MnWIjE2InIjEEEP6MemoryS6_R5StateT_T0_(%struct.Memory* %2, %struct.State* %0, i64 %10, i64 1)
  ret %struct.Memory* %13
}

define internal %struct.Memory* @_ZN12_GLOBAL__N_1L3MOVI3RnWImE2MnIjEEEP6MemoryS6_R5StateT_T0_(%struct.Memory* returned, %struct.State* nocapture readnone dereferenceable(3376), i64* nocapture, i64) #0 {
  %5 = inttoptr i64 %3 to i32*
  %6 = load i32, i32* %5
  %7 = zext i32 %6 to i64
  store i64 %7, i64* %2, align 8
  ret %struct.Memory* %0
}

define %struct.Memory* @routine_movl_MINUS0x24__rbp____eax(%struct.State*  dereferenceable(3376), i64, %struct.Memory* ) #19 {
block_400488:
  %3 = getelementptr inbounds %struct.State, %struct.State* %0, i32 0, i32 6
  %4 = getelementptr inbounds %struct.GPR, %struct.GPR* %3, i32 0, i32 33
  %5 = getelementptr inbounds %struct.Reg, %struct.Reg* %4, i32 0, i32 0
  %PC = bitcast %union.anon* %5 to i64*
  %6 = getelementptr inbounds %struct.State, %struct.State* %0, i32 0, i32 6
  %7 = getelementptr inbounds %struct.GPR, %struct.GPR* %6, i32 0, i32 1
  %8 = getelementptr inbounds %struct.Reg, %struct.Reg* %7, i32 0, i32 0
  %RAX = bitcast %union.anon* %8 to i64*
  %9 = getelementptr inbounds %struct.State, %struct.State* %0, i32 0, i32 6
  %10 = getelementptr inbounds %struct.GPR, %struct.GPR* %9, i32 0, i32 15
  %11 = getelementptr inbounds %struct.Reg, %struct.Reg* %10, i32 0, i32 0
  %RBP = bitcast %union.anon* %11 to i64*
  %12 = load i64, i64* %RBP
  %13 = sub i64 %12, 36
  %14 = load i64, i64* %PC
  %15 = add i64 %14, 3
  store i64 %15, i64* %PC
  %16 = call %struct.Memory* @_ZN12_GLOBAL__N_1L3MOVI3RnWImE2MnIjEEEP6MemoryS6_R5StateT_T0_(%struct.Memory* %2, %struct.State* %0, i64* %RAX, i64 %13)
  ret %struct.Memory* %16
}

define internal %struct.Memory* @_ZN12_GLOBAL__N_1L3CMPI2RnIjE2MnIjEEEP6MemoryS6_R5StateT_T0_(%struct.Memory*, %struct.State* nocapture dereferenceable(3376), i64, i64) #0 {
  %5 = trunc i64 %2 to i32
  %6 = inttoptr i64 %3 to i32*
  %7 = load i32, i32* %6
  %8 = sub i32 %5, %7
  %9 = icmp ult i32 %5, %7
  %10 = zext i1 %9 to i8
  %11 = getelementptr inbounds %struct.State, %struct.State* %1, i64 0, i32 2, i32 1
  store i8 %10, i8* %11, align 1
  %12 = and i32 %8, 255
  %13 = tail call i32 @llvm.ctpop.i32(i32 %12) #22
  %14 = trunc i32 %13 to i8
  %15 = and i8 %14, 1
  %16 = xor i8 %15, 1
  %17 = getelementptr inbounds %struct.State, %struct.State* %1, i64 0, i32 2, i32 3
  store i8 %16, i8* %17, align 1
  %18 = xor i32 %7, %5
  %19 = xor i32 %18, %8
  %20 = lshr i32 %19, 4
  %21 = trunc i32 %20 to i8
  %22 = and i8 %21, 1
  %23 = getelementptr inbounds %struct.State, %struct.State* %1, i64 0, i32 2, i32 5
  store i8 %22, i8* %23, align 1
  %24 = icmp eq i32 %8, 0
  %25 = zext i1 %24 to i8
  %26 = getelementptr inbounds %struct.State, %struct.State* %1, i64 0, i32 2, i32 7
  store i8 %25, i8* %26, align 1
  %27 = lshr i32 %8, 31
  %28 = trunc i32 %27 to i8
  %29 = getelementptr inbounds %struct.State, %struct.State* %1, i64 0, i32 2, i32 9
  store i8 %28, i8* %29, align 1
  %30 = lshr i32 %5, 31
  %31 = lshr i32 %7, 31
  %32 = xor i32 %31, %30
  %33 = xor i32 %27, %30
  %34 = add   i32 %33, %32
  %35 = icmp eq i32 %34, 2
  %36 = zext i1 %35 to i8
  %37 = getelementptr inbounds %struct.State, %struct.State* %1, i64 0, i32 2, i32 13
  store i8 %36, i8* %37, align 1
  ret %struct.Memory* %0
}

define %struct.Memory* @routine_cmpl_MINUS0x4__rbp____eax(%struct.State*  dereferenceable(3376), i64, %struct.Memory* ) #19 {
block_400488:
  %3 = getelementptr inbounds %struct.State, %struct.State* %0, i32 0, i32 6
  %4 = getelementptr inbounds %struct.GPR, %struct.GPR* %3, i32 0, i32 33
  %5 = getelementptr inbounds %struct.Reg, %struct.Reg* %4, i32 0, i32 0
  %PC = bitcast %union.anon* %5 to i64*
  %6 = getelementptr inbounds %struct.State, %struct.State* %0, i32 0, i32 6
  %7 = getelementptr inbounds %struct.GPR, %struct.GPR* %6, i32 0, i32 1
  %8 = getelementptr inbounds %struct.Reg, %struct.Reg* %7, i32 0, i32 0
  %EAX = bitcast %union.anon* %8 to i32*
  %9 = getelementptr inbounds %struct.State, %struct.State* %0, i32 0, i32 6
  %10 = getelementptr inbounds %struct.GPR, %struct.GPR* %9, i32 0, i32 15
  %11 = getelementptr inbounds %struct.Reg, %struct.Reg* %10, i32 0, i32 0
  %RBP = bitcast %union.anon* %11 to i64*
  %12 = load i32, i32* %EAX
  %13 = zext i32 %12 to i64
  %14 = load i64, i64* %RBP
  %15 = sub i64 %14, 4
  %16 = load i64, i64* %PC
  %17 = add i64 %16, 3
  store i64 %17, i64* %PC
  %18 = call %struct.Memory* @_ZN12_GLOBAL__N_1L3CMPI2RnIjE2MnIjEEEP6MemoryS6_R5StateT_T0_(%struct.Memory* %2, %struct.State* %0, i64 %13, i64 %15)
  ret %struct.Memory* %18
}

define internal %struct.Memory* @_ZN12_GLOBAL__N_1L3JNLEP6MemoryR5State3RnWIhE2InImES7_(%struct.Memory* readnone returned, %struct.State* nocapture dereferenceable(3376), i8* nocapture, i64, i64) #2 {
  %6 = getelementptr inbounds %struct.State, %struct.State* %1, i64 0, i32 2, i32 9
  %7 = load i8, i8* %6, align 1
  %8 = icmp ne i8 %7, 0
  %9 = getelementptr inbounds %struct.State, %struct.State* %1, i64 0, i32 2, i32 13
  %10 = load i8, i8* %9, align 1
  %11 = icmp ne i8 %10, 0
  %12 = xor i1 %8, %11
  %13 = xor i1 %12, true
  %14 = zext i1 %13 to i8
  store i8 %14, i8* %2, align 1
  %15 = getelementptr inbounds %struct.State, %struct.State* %1, i64 0, i32 6, i32 33, i32 0, i32 0
  %16 = select i1 %12, i64 %4, i64 %3
  store i64 %16, i64* %15, align 8
  ret %struct.Memory* %0
}

define %struct.Memory* @routine_jge_.L_400cf3(%struct.State*  dereferenceable(3376), i64, %struct.Memory*, i8* %BRANCH_TAKEN, i64 %rel_off1, i64 %rel_off2, i64 %rel_off3) {
block_400488:
  %3 = getelementptr inbounds %struct.State, %struct.State* %0, i32 0, i32 6
  %4 = getelementptr inbounds %struct.GPR, %struct.GPR* %3, i32 0, i32 33
  %5 = getelementptr inbounds %struct.Reg, %struct.Reg* %4, i32 0, i32 0
  %PC = bitcast %union.anon* %5 to i64*
  %6 = load i64, i64* %PC
  %7 = add i64 %6, %rel_off1
  %8 = load i64, i64* %PC
  %9 = add i64 %8, %rel_off2
  %10 = load i64, i64* %PC
  %11 = add i64 %10, %rel_off3
  store i64 %11, i64* %PC
  %12 = call %struct.Memory* @_ZN12_GLOBAL__N_1L3JNLEP6MemoryR5State3RnWIhE2InImES7_(%struct.Memory* %2, %struct.State* %0, i8* %BRANCH_TAKEN, i64 %7, i64 %9)
  ret %struct.Memory* %12
}


define %struct.Memory* @routine_movl__0x0__MINUS0x28__rbp_(%struct.State*  dereferenceable(3376), i64, %struct.Memory* ) #19 {
block_400488:
  %3 = getelementptr inbounds %struct.State, %struct.State* %0, i32 0, i32 6
  %4 = getelementptr inbounds %struct.GPR, %struct.GPR* %3, i32 0, i32 33
  %5 = getelementptr inbounds %struct.Reg, %struct.Reg* %4, i32 0, i32 0
  %PC = bitcast %union.anon* %5 to i64*
  %6 = getelementptr inbounds %struct.State, %struct.State* %0, i32 0, i32 6
  %7 = getelementptr inbounds %struct.GPR, %struct.GPR* %6, i32 0, i32 15
  %8 = getelementptr inbounds %struct.Reg, %struct.Reg* %7, i32 0, i32 0
  %RBP = bitcast %union.anon* %8 to i64*
  %9 = load i64, i64* %RBP
  %10 = sub i64 %9, 40
  %11 = load i64, i64* %PC
  %12 = add i64 %11, 7
  store i64 %12, i64* %PC
  %13 = call %struct.Memory* @_ZN12_GLOBAL__N_1L3MOVI3MnWIjE2InIjEEEP6MemoryS6_R5StateT_T0_(%struct.Memory* %2, %struct.State* %0, i64 %10, i64 0)
  ret %struct.Memory* %13
}


define %struct.Memory* @routine_movl_MINUS0x28__rbp____eax(%struct.State*  dereferenceable(3376), i64, %struct.Memory* ) #19 {
block_400488:
  %3 = getelementptr inbounds %struct.State, %struct.State* %0, i32 0, i32 6
  %4 = getelementptr inbounds %struct.GPR, %struct.GPR* %3, i32 0, i32 33
  %5 = getelementptr inbounds %struct.Reg, %struct.Reg* %4, i32 0, i32 0
  %PC = bitcast %union.anon* %5 to i64*
  %6 = getelementptr inbounds %struct.State, %struct.State* %0, i32 0, i32 6
  %7 = getelementptr inbounds %struct.GPR, %struct.GPR* %6, i32 0, i32 1
  %8 = getelementptr inbounds %struct.Reg, %struct.Reg* %7, i32 0, i32 0
  %RAX = bitcast %union.anon* %8 to i64*
  %9 = getelementptr inbounds %struct.State, %struct.State* %0, i32 0, i32 6
  %10 = getelementptr inbounds %struct.GPR, %struct.GPR* %9, i32 0, i32 15
  %11 = getelementptr inbounds %struct.Reg, %struct.Reg* %10, i32 0, i32 0
  %RBP = bitcast %union.anon* %11 to i64*
  %12 = load i64, i64* %RBP
  %13 = sub i64 %12, 40
  %14 = load i64, i64* %PC
  %15 = add i64 %14, 3
  store i64 %15, i64* %PC
  %16 = call %struct.Memory* @_ZN12_GLOBAL__N_1L3MOVI3RnWImE2MnIjEEEP6MemoryS6_R5StateT_T0_(%struct.Memory* %2, %struct.State* %0, i64* %RAX, i64 %13)
  ret %struct.Memory* %16
}




define %struct.Memory* @routine_jge_.L_400ce0(%struct.State*  dereferenceable(3376), i64, %struct.Memory*, i8* %BRANCH_TAKEN, i64 %rel_off1, i64 %rel_off2, i64 %rel_off3) {
block_400488:
  %3 = getelementptr inbounds %struct.State, %struct.State* %0, i32 0, i32 6
  %4 = getelementptr inbounds %struct.GPR, %struct.GPR* %3, i32 0, i32 33
  %5 = getelementptr inbounds %struct.Reg, %struct.Reg* %4, i32 0, i32 0
  %PC = bitcast %union.anon* %5 to i64*
  %6 = load i64, i64* %PC
  %7 = add i64 %6, %rel_off1
  %8 = load i64, i64* %PC
  %9 = add i64 %8, %rel_off2
  %10 = load i64, i64* %PC
  %11 = add i64 %10, %rel_off3
  store i64 %11, i64* %PC
  %12 = call %struct.Memory* @_ZN12_GLOBAL__N_1L3JNLEP6MemoryR5State3RnWIhE2InImES7_(%struct.Memory* %2, %struct.State* %0, i8* %BRANCH_TAKEN, i64 %7, i64 %9)
  ret %struct.Memory* %12
}


define %struct.Memory* @routine_movl__0x0__MINUS0x2c__rbp_(%struct.State*  dereferenceable(3376), i64, %struct.Memory* ) #19 {
block_400488:
  %3 = getelementptr inbounds %struct.State, %struct.State* %0, i32 0, i32 6
  %4 = getelementptr inbounds %struct.GPR, %struct.GPR* %3, i32 0, i32 33
  %5 = getelementptr inbounds %struct.Reg, %struct.Reg* %4, i32 0, i32 0
  %PC = bitcast %union.anon* %5 to i64*
  %6 = getelementptr inbounds %struct.State, %struct.State* %0, i32 0, i32 6
  %7 = getelementptr inbounds %struct.GPR, %struct.GPR* %6, i32 0, i32 15
  %8 = getelementptr inbounds %struct.Reg, %struct.Reg* %7, i32 0, i32 0
  %RBP = bitcast %union.anon* %8 to i64*
  %9 = load i64, i64* %RBP
  %10 = sub i64 %9, 44
  %11 = load i64, i64* %PC
  %12 = add i64 %11, 7
  store i64 %12, i64* %PC
  %13 = call %struct.Memory* @_ZN12_GLOBAL__N_1L3MOVI3MnWIjE2InIjEEEP6MemoryS6_R5StateT_T0_(%struct.Memory* %2, %struct.State* %0, i64 %10, i64 0)
  ret %struct.Memory* %13
}


define %struct.Memory* @routine_movl_MINUS0x2c__rbp____eax(%struct.State*  dereferenceable(3376), i64, %struct.Memory* ) #19 {
block_400488:
  %3 = getelementptr inbounds %struct.State, %struct.State* %0, i32 0, i32 6
  %4 = getelementptr inbounds %struct.GPR, %struct.GPR* %3, i32 0, i32 33
  %5 = getelementptr inbounds %struct.Reg, %struct.Reg* %4, i32 0, i32 0
  %PC = bitcast %union.anon* %5 to i64*
  %6 = getelementptr inbounds %struct.State, %struct.State* %0, i32 0, i32 6
  %7 = getelementptr inbounds %struct.GPR, %struct.GPR* %6, i32 0, i32 1
  %8 = getelementptr inbounds %struct.Reg, %struct.Reg* %7, i32 0, i32 0
  %RAX = bitcast %union.anon* %8 to i64*
  %9 = getelementptr inbounds %struct.State, %struct.State* %0, i32 0, i32 6
  %10 = getelementptr inbounds %struct.GPR, %struct.GPR* %9, i32 0, i32 15
  %11 = getelementptr inbounds %struct.Reg, %struct.Reg* %10, i32 0, i32 0
  %RBP = bitcast %union.anon* %11 to i64*
  %12 = load i64, i64* %RBP
  %13 = sub i64 %12, 44
  %14 = load i64, i64* %PC
  %15 = add i64 %14, 3
  store i64 %15, i64* %PC
  %16 = call %struct.Memory* @_ZN12_GLOBAL__N_1L3MOVI3RnWImE2MnIjEEEP6MemoryS6_R5StateT_T0_(%struct.Memory* %2, %struct.State* %0, i64* %RAX, i64 %13)
  ret %struct.Memory* %16
}


define %struct.Memory* @routine_cmpl_MINUS0x24__rbp____eax(%struct.State*  dereferenceable(3376), i64, %struct.Memory* ) #19 {
block_400488:
  %3 = getelementptr inbounds %struct.State, %struct.State* %0, i32 0, i32 6
  %4 = getelementptr inbounds %struct.GPR, %struct.GPR* %3, i32 0, i32 33
  %5 = getelementptr inbounds %struct.Reg, %struct.Reg* %4, i32 0, i32 0
  %PC = bitcast %union.anon* %5 to i64*
  %6 = getelementptr inbounds %struct.State, %struct.State* %0, i32 0, i32 6
  %7 = getelementptr inbounds %struct.GPR, %struct.GPR* %6, i32 0, i32 1
  %8 = getelementptr inbounds %struct.Reg, %struct.Reg* %7, i32 0, i32 0
  %EAX = bitcast %union.anon* %8 to i32*
  %9 = getelementptr inbounds %struct.State, %struct.State* %0, i32 0, i32 6
  %10 = getelementptr inbounds %struct.GPR, %struct.GPR* %9, i32 0, i32 15
  %11 = getelementptr inbounds %struct.Reg, %struct.Reg* %10, i32 0, i32 0
  %RBP = bitcast %union.anon* %11 to i64*
  %12 = load i32, i32* %EAX
  %13 = zext i32 %12 to i64
  %14 = load i64, i64* %RBP
  %15 = sub i64 %14, 36
  %16 = load i64, i64* %PC
  %17 = add i64 %16, 3
  store i64 %17, i64* %PC
  %18 = call %struct.Memory* @_ZN12_GLOBAL__N_1L3CMPI2RnIjE2MnIjEEEP6MemoryS6_R5StateT_T0_(%struct.Memory* %2, %struct.State* %0, i64 %13, i64 %15)
  ret %struct.Memory* %18
}


define %struct.Memory* @routine_jge_.L_400ccd(%struct.State*  dereferenceable(3376), i64, %struct.Memory*, i8* %BRANCH_TAKEN, i64 %rel_off1, i64 %rel_off2, i64 %rel_off3) {
block_400488:
  %3 = getelementptr inbounds %struct.State, %struct.State* %0, i32 0, i32 6
  %4 = getelementptr inbounds %struct.GPR, %struct.GPR* %3, i32 0, i32 33
  %5 = getelementptr inbounds %struct.Reg, %struct.Reg* %4, i32 0, i32 0
  %PC = bitcast %union.anon* %5 to i64*
  %6 = load i64, i64* %PC
  %7 = add i64 %6, %rel_off1
  %8 = load i64, i64* %PC
  %9 = add i64 %8, %rel_off2
  %10 = load i64, i64* %PC
  %11 = add i64 %10, %rel_off3
  store i64 %11, i64* %PC
  %12 = call %struct.Memory* @_ZN12_GLOBAL__N_1L3JNLEP6MemoryR5State3RnWIhE2InImES7_(%struct.Memory* %2, %struct.State* %0, i8* %BRANCH_TAKEN, i64 %7, i64 %9)
  ret %struct.Memory* %12
}

define internal %struct.Memory* @_ZN12_GLOBAL__N_1L9MOVSD_MEMI3VnWI8vec128_tE3MVnI7vec64_tEEEP6MemoryS8_R5StateT_T0_(%struct.Memory* returned, %struct.State* nocapture readnone dereferenceable(3376), i8* nocapture, i64) #0 {
  %5 = inttoptr i64 %3 to double*
  %6 = load double, double* %5
  %7 = bitcast i8* %2 to double*
  store double %6, double* %7, align 1
  %8 = getelementptr inbounds i8, i8* %2, i64 8
  %9 = bitcast i8* %8 to double*
  store double 0.000000e+00, double* %9, align 1
  ret %struct.Memory* %0
}

define %struct.Memory* @routine_movsd_MINUS0x10__rbp____xmm0(%struct.State*  dereferenceable(3376), i64, %struct.Memory* ) #19 {
block_400488:
  %3 = getelementptr inbounds %struct.State, %struct.State* %0, i32 0, i32 6
  %4 = getelementptr inbounds %struct.GPR, %struct.GPR* %3, i32 0, i32 33
  %5 = getelementptr inbounds %struct.Reg, %struct.Reg* %4, i32 0, i32 0
  %PC = bitcast %union.anon* %5 to i64*
  %6 = getelementptr inbounds %struct.State, %struct.State* %0, i32 0, i32 6
  %7 = getelementptr inbounds %struct.GPR, %struct.GPR* %6, i32 0, i32 15
  %8 = getelementptr inbounds %struct.Reg, %struct.Reg* %7, i32 0, i32 0
  %RBP = bitcast %union.anon* %8 to i64*
  %9 = getelementptr inbounds %struct.State, %struct.State* %0, i32 0, i32 1
  %10 = getelementptr inbounds [32 x %union.VectorReg], [32 x %union.VectorReg]* %9, i64 0, i64 0
  %YMM0 = bitcast %union.VectorReg* %10 to %"class.std::bitset"*
  %11 = bitcast %"class.std::bitset"* %YMM0 to i8*
  %12 = load i64, i64* %RBP
  %13 = sub i64 %12, 16
  %14 = load i64, i64* %PC
  %15 = add i64 %14, 5
  store i64 %15, i64* %PC
  %16 = call %struct.Memory* @_ZN12_GLOBAL__N_1L9MOVSD_MEMI3VnWI8vec128_tE3MVnI7vec64_tEEEP6MemoryS8_R5StateT_T0_(%struct.Memory* %2, %struct.State* %0, i8* %11, i64 %13)
  ret %struct.Memory* %16
}

define internal %struct.Memory* @_ZN12_GLOBAL__N_1L3MOVI3RnWImE2MnImEEEP6MemoryS6_R5StateT_T0_(%struct.Memory* returned, %struct.State* nocapture readnone dereferenceable(3376), i64* nocapture, i64) #0 {
  %5 = inttoptr i64 %3 to i64*
  %6 = load i64, i64* %5
  store i64 %6, i64* %2, align 8
  ret %struct.Memory* %0
}

define %struct.Memory* @routine_movq_MINUS0x18__rbp____rax(%struct.State*  dereferenceable(3376), i64, %struct.Memory* ) #19 {
block_400488:
  %3 = getelementptr inbounds %struct.State, %struct.State* %0, i32 0, i32 6
  %4 = getelementptr inbounds %struct.GPR, %struct.GPR* %3, i32 0, i32 33
  %5 = getelementptr inbounds %struct.Reg, %struct.Reg* %4, i32 0, i32 0
  %PC = bitcast %union.anon* %5 to i64*
  %6 = getelementptr inbounds %struct.State, %struct.State* %0, i32 0, i32 6
  %7 = getelementptr inbounds %struct.GPR, %struct.GPR* %6, i32 0, i32 1
  %8 = getelementptr inbounds %struct.Reg, %struct.Reg* %7, i32 0, i32 0
  %RAX = bitcast %union.anon* %8 to i64*
  %9 = getelementptr inbounds %struct.State, %struct.State* %0, i32 0, i32 6
  %10 = getelementptr inbounds %struct.GPR, %struct.GPR* %9, i32 0, i32 15
  %11 = getelementptr inbounds %struct.Reg, %struct.Reg* %10, i32 0, i32 0
  %RBP = bitcast %union.anon* %11 to i64*
  %12 = load i64, i64* %RBP
  %13 = sub i64 %12, 24
  %14 = load i64, i64* %PC
  %15 = add i64 %14, 4
  store i64 %15, i64* %PC
  %16 = call %struct.Memory* @_ZN12_GLOBAL__N_1L3MOVI3RnWImE2MnImEEEP6MemoryS6_R5StateT_T0_(%struct.Memory* %2, %struct.State* %0, i64* %RAX, i64 %13)
  ret %struct.Memory* %16
}

define internal %struct.Memory* @_ZN12_GLOBAL__N_1L5MOVSXI3RnWImE2MnIjElEEP6MemoryS6_R5StateT_T0_(%struct.Memory* returned, %struct.State* nocapture readnone dereferenceable(3376), i64* nocapture, i64) #0 {
  %5 = inttoptr i64 %3 to i32*
  %6 = load i32, i32* %5
  %7 = sext i32 %6 to i64
  store i64 %7, i64* %2, align 8
  ret %struct.Memory* %0
}

define %struct.Memory* @routine_movslq_MINUS0x24__rbp____rcx(%struct.State*  dereferenceable(3376), i64, %struct.Memory* ) #19 {
block_400488:
  %3 = getelementptr inbounds %struct.State, %struct.State* %0, i32 0, i32 6
  %4 = getelementptr inbounds %struct.GPR, %struct.GPR* %3, i32 0, i32 33
  %5 = getelementptr inbounds %struct.Reg, %struct.Reg* %4, i32 0, i32 0
  %PC = bitcast %union.anon* %5 to i64*
  %6 = getelementptr inbounds %struct.State, %struct.State* %0, i32 0, i32 6
  %7 = getelementptr inbounds %struct.GPR, %struct.GPR* %6, i32 0, i32 5
  %8 = getelementptr inbounds %struct.Reg, %struct.Reg* %7, i32 0, i32 0
  %RCX = bitcast %union.anon* %8 to i64*
  %9 = getelementptr inbounds %struct.State, %struct.State* %0, i32 0, i32 6
  %10 = getelementptr inbounds %struct.GPR, %struct.GPR* %9, i32 0, i32 15
  %11 = getelementptr inbounds %struct.Reg, %struct.Reg* %10, i32 0, i32 0
  %RBP = bitcast %union.anon* %11 to i64*
  %12 = load i64, i64* %RBP
  %13 = sub i64 %12, 36
  %14 = load i64, i64* %PC
  %15 = add i64 %14, 4
  store i64 %15, i64* %PC
  %16 = call %struct.Memory* @_ZN12_GLOBAL__N_1L5MOVSXI3RnWImE2MnIjElEEP6MemoryS6_R5StateT_T0_(%struct.Memory* %2, %struct.State* %0, i64* %RCX, i64 %13)
  ret %struct.Memory* %16
}

define internal %struct.Memory* @_ZN12_GLOBAL__N_1L3SHLI3RnWImE2RnImE2InImEEEP6MemoryS8_R5StateT_T0_T1_(%struct.Memory* readnone, %struct.State* nocapture dereferenceable(3376), i64* nocapture, i64, i64) #0 {
  %6 = trunc i64 %4 to i6
  switch i6 %6, label %12 [
    i6 0, label %41
    i6 1, label %7
  ]

; <label>:7:                                      ; preds = %5
  %8 = shl i64 %3, 1
  %9 = icmp slt i64 %3, 0
  %10 = icmp slt i64 %8, 0
  %11 = xor i1 %9, %10
  br label %19

; <label>:12:                                     ; preds = %5
  %13 = and i64 %4, 63
  %14 = add  i64 %13, -1
  %15 = shl i64 %3, %14
  %16 = icmp slt i64 %15, 0
  %17 = icmp ne i8 0, 0
  %18 = shl i64 %15, 1
  br label %19

; <label>:19:                                     ; preds = %12, %7
  %20 = phi i1 [ %9, %7 ], [ %16, %12 ]
  %21 = phi i1 [ %11, %7 ], [ %17, %12 ]
  %22 = phi i64 [ %8, %7 ], [ %18, %12 ]
  store i64 %22, i64* %2, align 8
  %23 = getelementptr inbounds %struct.State, %struct.State* %1, i64 0, i32 2, i32 1
  %24 = zext i1 %20 to i8
  store i8 %24, i8* %23, align 1
  %25 = getelementptr inbounds %struct.State, %struct.State* %1, i64 0, i32 2, i32 3
  %26 = trunc i64 %22 to i32
  %27 = and i32 %26, 254
  %28 = tail call i32 @llvm.ctpop.i32(i32 %27) #22
  %29 = trunc i32 %28 to i8
  %30 = and i8 %29, 1
  %31 = xor i8 %30, 1
  store i8 %31, i8* %25, align 1
  %32 = getelementptr inbounds %struct.State, %struct.State* %1, i64 0, i32 2, i32 5
  store i8 0, i8* %32, align 1
  %33 = getelementptr inbounds %struct.State, %struct.State* %1, i64 0, i32 2, i32 7
  %34 = icmp eq i64 %22, 0
  %35 = zext i1 %34 to i8
  store i8 %35, i8* %33, align 1
  %36 = getelementptr inbounds %struct.State, %struct.State* %1, i64 0, i32 2, i32 9
  %37 = lshr i64 %22, 63
  %38 = trunc i64 %37 to i8
  store i8 %38, i8* %36, align 1
  %39 = getelementptr inbounds %struct.State, %struct.State* %1, i64 0, i32 2, i32 13
  %40 = zext i1 %21 to i8
  store i8 %40, i8* %39, align 1
  br label %41

; <label>:41:                                     ; preds = %19, %5
  ret %struct.Memory* %0
}

define %struct.Memory* @routine_shlq__0xd___rcx(%struct.State*  dereferenceable(3376), i64, %struct.Memory* ) #19 {
block_400488:
  %3 = getelementptr inbounds %struct.State, %struct.State* %0, i32 0, i32 6
  %4 = getelementptr inbounds %struct.GPR, %struct.GPR* %3, i32 0, i32 33
  %5 = getelementptr inbounds %struct.Reg, %struct.Reg* %4, i32 0, i32 0
  %PC = bitcast %union.anon* %5 to i64*
  %6 = getelementptr inbounds %struct.State, %struct.State* %0, i32 0, i32 6
  %7 = getelementptr inbounds %struct.GPR, %struct.GPR* %6, i32 0, i32 5
  %8 = getelementptr inbounds %struct.Reg, %struct.Reg* %7, i32 0, i32 0
  %RCX = bitcast %union.anon* %8 to i64*
  %9 = load i64, i64* %RCX
  %10 = load i64, i64* %PC
  %11 = add i64 %10, 4
  store i64 %11, i64* %PC
  %12 = call %struct.Memory* @_ZN12_GLOBAL__N_1L3SHLI3RnWImE2RnImE2InImEEEP6MemoryS8_R5StateT_T0_T1_(%struct.Memory* %2, %struct.State* %0, i64* %RCX, i64 %9, i64 13)
  ret %struct.Memory* %12
}

define internal %struct.Memory* @_ZN12_GLOBAL__N_1L3ADDI3RnWImE2RnImES4_EEP6MemoryS6_R5StateT_T0_T1_(%struct.Memory* readnone returned, %struct.State* nocapture dereferenceable(3376), i64* nocapture, i64, i64) #0 {
  %6 = add i64 %4, %3
  store i64 %6, i64* %2, align 8
  %7 = icmp ult i64 %6, %3
  %8 = icmp ult i64 %6, %4
  %9 = or i1 %7, %8
  %10 = zext i1 %9 to i8
  %11 = getelementptr inbounds %struct.State, %struct.State* %1, i64 0, i32 2, i32 1
  store i8 %10, i8* %11, align 1
  %12 = trunc i64 %6 to i32
  %13 = and i32 %12, 255
  %14 = tail call i32 @llvm.ctpop.i32(i32 %13) #22
  %15 = trunc i32 %14 to i8
  %16 = and i8 %15, 1
  %17 = xor i8 %16, 1
  %18 = getelementptr inbounds %struct.State, %struct.State* %1, i64 0, i32 2, i32 3
  store i8 %17, i8* %18, align 1
  %19 = xor i64 %4, %3
  %20 = xor i64 %19, %6
  %21 = lshr i64 %20, 4
  %22 = trunc i64 %21 to i8
  %23 = and i8 %22, 1
  %24 = getelementptr inbounds %struct.State, %struct.State* %1, i64 0, i32 2, i32 5
  store i8 %23, i8* %24, align 1
  %25 = icmp eq i64 %6, 0
  %26 = zext i1 %25 to i8
  %27 = getelementptr inbounds %struct.State, %struct.State* %1, i64 0, i32 2, i32 7
  store i8 %26, i8* %27, align 1
  %28 = lshr i64 %6, 63
  %29 = trunc i64 %28 to i8
  %30 = getelementptr inbounds %struct.State, %struct.State* %1, i64 0, i32 2, i32 9
  store i8 %29, i8* %30, align 1
  %31 = lshr i64 %3, 63
  %32 = lshr i64 %4, 63
  %33 = xor i64 %28, %31
  %34 = xor i64 %28, %32
  %35 = add   i64 %33, %34
  %36 = icmp eq i64 %35, 2
  %37 = zext i1 %36 to i8
  %38 = getelementptr inbounds %struct.State, %struct.State* %1, i64 0, i32 2, i32 13
  store i8 %37, i8* %38, align 1
  ret %struct.Memory* %0
}

define %struct.Memory* @routine_addq__rcx___rax(%struct.State*  dereferenceable(3376), i64, %struct.Memory* ) #19 {
block_400488:
  %3 = getelementptr inbounds %struct.State, %struct.State* %0, i32 0, i32 6
  %4 = getelementptr inbounds %struct.GPR, %struct.GPR* %3, i32 0, i32 33
  %5 = getelementptr inbounds %struct.Reg, %struct.Reg* %4, i32 0, i32 0
  %PC = bitcast %union.anon* %5 to i64*
  %6 = getelementptr inbounds %struct.State, %struct.State* %0, i32 0, i32 6
  %7 = getelementptr inbounds %struct.GPR, %struct.GPR* %6, i32 0, i32 1
  %8 = getelementptr inbounds %struct.Reg, %struct.Reg* %7, i32 0, i32 0
  %RAX = bitcast %union.anon* %8 to i64*
  %9 = getelementptr inbounds %struct.State, %struct.State* %0, i32 0, i32 6
  %10 = getelementptr inbounds %struct.GPR, %struct.GPR* %9, i32 0, i32 5
  %11 = getelementptr inbounds %struct.Reg, %struct.Reg* %10, i32 0, i32 0
  %RCX = bitcast %union.anon* %11 to i64*
  %12 = load i64, i64* %RAX
  %13 = load i64, i64* %RCX
  %14 = load i64, i64* %PC
  %15 = add i64 %14, 3
  store i64 %15, i64* %PC
  %16 = call %struct.Memory* @_ZN12_GLOBAL__N_1L3ADDI3RnWImE2RnImES4_EEP6MemoryS6_R5StateT_T0_T1_(%struct.Memory* %2, %struct.State* %0, i64* %RAX, i64 %12, i64 %13)
  ret %struct.Memory* %16
}


define %struct.Memory* @routine_movslq_MINUS0x2c__rbp____rcx(%struct.State*  dereferenceable(3376), i64, %struct.Memory* ) #19 {
block_400488:
  %3 = getelementptr inbounds %struct.State, %struct.State* %0, i32 0, i32 6
  %4 = getelementptr inbounds %struct.GPR, %struct.GPR* %3, i32 0, i32 33
  %5 = getelementptr inbounds %struct.Reg, %struct.Reg* %4, i32 0, i32 0
  %PC = bitcast %union.anon* %5 to i64*
  %6 = getelementptr inbounds %struct.State, %struct.State* %0, i32 0, i32 6
  %7 = getelementptr inbounds %struct.GPR, %struct.GPR* %6, i32 0, i32 5
  %8 = getelementptr inbounds %struct.Reg, %struct.Reg* %7, i32 0, i32 0
  %RCX = bitcast %union.anon* %8 to i64*
  %9 = getelementptr inbounds %struct.State, %struct.State* %0, i32 0, i32 6
  %10 = getelementptr inbounds %struct.GPR, %struct.GPR* %9, i32 0, i32 15
  %11 = getelementptr inbounds %struct.Reg, %struct.Reg* %10, i32 0, i32 0
  %RBP = bitcast %union.anon* %11 to i64*
  %12 = load i64, i64* %RBP
  %13 = sub i64 %12, 44
  %14 = load i64, i64* %PC
  %15 = add i64 %14, 4
  store i64 %15, i64* %PC
  %16 = call %struct.Memory* @_ZN12_GLOBAL__N_1L5MOVSXI3RnWImE2MnIjElEEP6MemoryS6_R5StateT_T0_(%struct.Memory* %2, %struct.State* %0, i64* %RCX, i64 %13)
  ret %struct.Memory* %16
}

define internal %struct.Memory* @_ZN12_GLOBAL__N_1L5MULSDI3VnWI8vec128_tE2VnIS2_E3MVnIS2_EEEP6MemoryS9_R5StateT_T0_T1_(%struct.Memory* returned, %struct.State* nocapture readnone dereferenceable(3376), i8* nocapture, i8* nocapture readonly, i64) #0 {
  %6 = bitcast i8* %3 to double*
  %7 = load double, double* %6, align 1
  %8 = getelementptr inbounds i8, i8* %3, i64 8
  %9 = bitcast i8* %8 to i64*
  %10 = load i64, i64* %9, align 1
  %11 = inttoptr i64 %4 to double*
  %12 = load double, double* %11
  %13 = fmul double %7, %12
  %14 = bitcast i8* %2 to double*
  store double %13, double* %14, align 1
  %15 = getelementptr inbounds i8, i8* %2, i64 8
  %16 = bitcast i8* %15 to i64*
  store i64 %10, i64* %16, align 1
  ret %struct.Memory* %0
}

define %struct.Memory* @routine_mulsd___rax__rcx_8____xmm0(%struct.State*  dereferenceable(3376), i64, %struct.Memory* ) #19 {
block_400488:
  %3 = getelementptr inbounds %struct.State, %struct.State* %0, i32 0, i32 6
  %4 = getelementptr inbounds %struct.GPR, %struct.GPR* %3, i32 0, i32 33
  %5 = getelementptr inbounds %struct.Reg, %struct.Reg* %4, i32 0, i32 0
  %PC = bitcast %union.anon* %5 to i64*
  %6 = getelementptr inbounds %struct.State, %struct.State* %0, i32 0, i32 6
  %7 = getelementptr inbounds %struct.GPR, %struct.GPR* %6, i32 0, i32 1
  %8 = getelementptr inbounds %struct.Reg, %struct.Reg* %7, i32 0, i32 0
  %RAX = bitcast %union.anon* %8 to i64*
  %9 = getelementptr inbounds %struct.State, %struct.State* %0, i32 0, i32 6
  %10 = getelementptr inbounds %struct.GPR, %struct.GPR* %9, i32 0, i32 5
  %11 = getelementptr inbounds %struct.Reg, %struct.Reg* %10, i32 0, i32 0
  %RCX = bitcast %union.anon* %11 to i64*
  %12 = getelementptr inbounds %struct.State, %struct.State* %0, i32 0, i32 1
  %13 = getelementptr inbounds [32 x %union.VectorReg], [32 x %union.VectorReg]* %12, i64 0, i64 0
  %YMM0 = bitcast %union.VectorReg* %13 to %"class.std::bitset"*
  %14 = bitcast %"class.std::bitset"* %YMM0 to i8*
  %15 = bitcast %"class.std::bitset"* %YMM0 to i8*
  %16 = load i64, i64* %RAX
  %17 = load i64, i64* %RCX
  %18 = mul i64 %17, 8
  %19 = add i64 %18, %16
  %20 = load i64, i64* %PC
  %21 = add i64 %20, 5
  store i64 %21, i64* %PC
  %22 = call %struct.Memory* @_ZN12_GLOBAL__N_1L5MULSDI3VnWI8vec128_tE2VnIS2_E3MVnIS2_EEEP6MemoryS9_R5StateT_T0_T1_(%struct.Memory* %2, %struct.State* %0, i8* %14, i8* %15, i64 %19)
  ret %struct.Memory* %22
}


define %struct.Memory* @routine_movq_MINUS0x20__rbp____rax(%struct.State*  dereferenceable(3376), i64, %struct.Memory* ) #19 {
block_400488:
  %3 = getelementptr inbounds %struct.State, %struct.State* %0, i32 0, i32 6
  %4 = getelementptr inbounds %struct.GPR, %struct.GPR* %3, i32 0, i32 33
  %5 = getelementptr inbounds %struct.Reg, %struct.Reg* %4, i32 0, i32 0
  %PC = bitcast %union.anon* %5 to i64*
  %6 = getelementptr inbounds %struct.State, %struct.State* %0, i32 0, i32 6
  %7 = getelementptr inbounds %struct.GPR, %struct.GPR* %6, i32 0, i32 1
  %8 = getelementptr inbounds %struct.Reg, %struct.Reg* %7, i32 0, i32 0
  %RAX = bitcast %union.anon* %8 to i64*
  %9 = getelementptr inbounds %struct.State, %struct.State* %0, i32 0, i32 6
  %10 = getelementptr inbounds %struct.GPR, %struct.GPR* %9, i32 0, i32 15
  %11 = getelementptr inbounds %struct.Reg, %struct.Reg* %10, i32 0, i32 0
  %RBP = bitcast %union.anon* %11 to i64*
  %12 = load i64, i64* %RBP
  %13 = sub i64 %12, 32
  %14 = load i64, i64* %PC
  %15 = add i64 %14, 4
  store i64 %15, i64* %PC
  %16 = call %struct.Memory* @_ZN12_GLOBAL__N_1L3MOVI3RnWImE2MnImEEEP6MemoryS6_R5StateT_T0_(%struct.Memory* %2, %struct.State* %0, i64* %RAX, i64 %13)
  ret %struct.Memory* %16
}


define %struct.Memory* @routine_movslq_MINUS0x28__rbp____rcx(%struct.State*  dereferenceable(3376), i64, %struct.Memory* ) #19 {
block_400488:
  %3 = getelementptr inbounds %struct.State, %struct.State* %0, i32 0, i32 6
  %4 = getelementptr inbounds %struct.GPR, %struct.GPR* %3, i32 0, i32 33
  %5 = getelementptr inbounds %struct.Reg, %struct.Reg* %4, i32 0, i32 0
  %PC = bitcast %union.anon* %5 to i64*
  %6 = getelementptr inbounds %struct.State, %struct.State* %0, i32 0, i32 6
  %7 = getelementptr inbounds %struct.GPR, %struct.GPR* %6, i32 0, i32 5
  %8 = getelementptr inbounds %struct.Reg, %struct.Reg* %7, i32 0, i32 0
  %RCX = bitcast %union.anon* %8 to i64*
  %9 = getelementptr inbounds %struct.State, %struct.State* %0, i32 0, i32 6
  %10 = getelementptr inbounds %struct.GPR, %struct.GPR* %9, i32 0, i32 15
  %11 = getelementptr inbounds %struct.Reg, %struct.Reg* %10, i32 0, i32 0
  %RBP = bitcast %union.anon* %11 to i64*
  %12 = load i64, i64* %RBP
  %13 = sub i64 %12, 40
  %14 = load i64, i64* %PC
  %15 = add i64 %14, 4
  store i64 %15, i64* %PC
  %16 = call %struct.Memory* @_ZN12_GLOBAL__N_1L5MOVSXI3RnWImE2MnIjElEEP6MemoryS6_R5StateT_T0_(%struct.Memory* %2, %struct.State* %0, i64* %RCX, i64 %13)
  ret %struct.Memory* %16
}



















define internal %struct.Memory* @_ZN12_GLOBAL__N_1L5ADDSDI3VnWI8vec128_tE2VnIS2_E3MVnI7vec64_tEEEP6MemorySA_R5StateT_T0_T1_(%struct.Memory* returned, %struct.State* nocapture readnone dereferenceable(3376), i8* nocapture, i8* nocapture readonly, i64) #0 {
  %6 = bitcast i8* %3 to double*
  %7 = load double, double* %6, align 1
  %8 = getelementptr inbounds i8, i8* %3, i64 8
  %9 = bitcast i8* %8 to i64*
  %10 = load i64, i64* %9, align 1
  %11 = inttoptr i64 %4 to double*
  %12 = load double, double* %11
  %13 = fadd double %7, %12
  %14 = bitcast i8* %2 to double*
  store double %13, double* %14, align 1
  %15 = getelementptr inbounds i8, i8* %2, i64 8
  %16 = bitcast i8* %15 to i64*
  store i64 %10, i64* %16, align 1
  ret %struct.Memory* %0
}

define %struct.Memory* @routine_addsd___rax__rcx_8____xmm0(%struct.State*  dereferenceable(3376), i64, %struct.Memory* ) #19 {
block_400488:
  %3 = getelementptr inbounds %struct.State, %struct.State* %0, i32 0, i32 6
  %4 = getelementptr inbounds %struct.GPR, %struct.GPR* %3, i32 0, i32 33
  %5 = getelementptr inbounds %struct.Reg, %struct.Reg* %4, i32 0, i32 0
  %PC = bitcast %union.anon* %5 to i64*
  %6 = getelementptr inbounds %struct.State, %struct.State* %0, i32 0, i32 6
  %7 = getelementptr inbounds %struct.GPR, %struct.GPR* %6, i32 0, i32 1
  %8 = getelementptr inbounds %struct.Reg, %struct.Reg* %7, i32 0, i32 0
  %RAX = bitcast %union.anon* %8 to i64*
  %9 = getelementptr inbounds %struct.State, %struct.State* %0, i32 0, i32 6
  %10 = getelementptr inbounds %struct.GPR, %struct.GPR* %9, i32 0, i32 5
  %11 = getelementptr inbounds %struct.Reg, %struct.Reg* %10, i32 0, i32 0
  %RCX = bitcast %union.anon* %11 to i64*
  %12 = getelementptr inbounds %struct.State, %struct.State* %0, i32 0, i32 1
  %13 = getelementptr inbounds [32 x %union.VectorReg], [32 x %union.VectorReg]* %12, i64 0, i64 0
  %YMM0 = bitcast %union.VectorReg* %13 to %"class.std::bitset"*
  %14 = bitcast %"class.std::bitset"* %YMM0 to i8*
  %15 = bitcast %"class.std::bitset"* %YMM0 to i8*
  %16 = load i64, i64* %RAX
  %17 = load i64, i64* %RCX
  %18 = mul i64 %17, 8
  %19 = add i64 %18, %16
  %20 = load i64, i64* %PC
  %21 = add i64 %20, 5
  store i64 %21, i64* %PC
  %22 = call %struct.Memory* @_ZN12_GLOBAL__N_1L5ADDSDI3VnWI8vec128_tE2VnIS2_E3MVnI7vec64_tEEEP6MemorySA_R5StateT_T0_T1_(%struct.Memory* %2, %struct.State* %0, i8* %14, i8* %15, i64 %19)
  ret %struct.Memory* %22
}


define %struct.Memory* @routine_movsd__xmm0____rax__rcx_8_(%struct.State*  dereferenceable(3376), i64, %struct.Memory* ) #19 {
block_400488:
  %3 = getelementptr inbounds %struct.State, %struct.State* %0, i32 0, i32 6
  %4 = getelementptr inbounds %struct.GPR, %struct.GPR* %3, i32 0, i32 33
  %5 = getelementptr inbounds %struct.Reg, %struct.Reg* %4, i32 0, i32 0
  %PC = bitcast %union.anon* %5 to i64*
  %6 = getelementptr inbounds %struct.State, %struct.State* %0, i32 0, i32 6
  %7 = getelementptr inbounds %struct.GPR, %struct.GPR* %6, i32 0, i32 1
  %8 = getelementptr inbounds %struct.Reg, %struct.Reg* %7, i32 0, i32 0
  %RAX = bitcast %union.anon* %8 to i64*
  %9 = getelementptr inbounds %struct.State, %struct.State* %0, i32 0, i32 6
  %10 = getelementptr inbounds %struct.GPR, %struct.GPR* %9, i32 0, i32 5
  %11 = getelementptr inbounds %struct.Reg, %struct.Reg* %10, i32 0, i32 0
  %RCX = bitcast %union.anon* %11 to i64*
  %12 = getelementptr inbounds %struct.State, %struct.State* %0, i32 0, i32 1
  %13 = getelementptr inbounds [32 x %union.VectorReg], [32 x %union.VectorReg]* %12, i64 0, i64 0
  %XMM0 = bitcast %union.VectorReg* %13 to %union.vec128_t*
  %14 = load i64, i64* %RAX
  %15 = load i64, i64* %RCX
  %16 = mul i64 %15, 8
  %17 = add i64 %16, %14
  %18 = bitcast %union.vec128_t* %XMM0 to i8*
  %19 = load i64, i64* %PC
  %20 = add i64 %19, 5
  store i64 %20, i64* %PC
  %21 = call %struct.Memory* @_ZN12_GLOBAL__N_1L9MOVSD_MEMI4MVnWI7vec64_tE2VnI8vec128_tEEEP6MemoryS8_R5StateT_T0_(%struct.Memory* %2, %struct.State* %0, i64 %17, i8* %18)
  ret %struct.Memory* %21
}



define internal %struct.Memory* @_ZN12_GLOBAL__N_1L3ADDI3RnWImE2RnIjE2InIjEEEP6MemoryS8_R5StateT_T0_T1_(%struct.Memory* readnone returned, %struct.State* nocapture dereferenceable(3376), i64* nocapture, i64, i64) #0 {
  %6 = trunc i64 %3 to i32
  %7 = trunc i64 %4 to i32
  %8 = add i32 %7, %6
  %9 = zext i32 %8 to i64
  store i64 %9, i64* %2, align 8
  %10 = icmp ult i32 %8, %6
  %11 = icmp ult i32 %8, %7
  %12 = or i1 %10, %11
  %13 = zext i1 %12 to i8
  %14 = getelementptr inbounds %struct.State, %struct.State* %1, i64 0, i32 2, i32 1
  store i8 %13, i8* %14, align 1
  %15 = and i32 %8, 255
  %16 = tail call i32 @llvm.ctpop.i32(i32 %15) #22
  %17 = trunc i32 %16 to i8
  %18 = and i8 %17, 1
  %19 = xor i8 %18, 1
  %20 = getelementptr inbounds %struct.State, %struct.State* %1, i64 0, i32 2, i32 3
  store i8 %19, i8* %20, align 1
  %21 = xor i64 %4, %3
  %22 = trunc i64 %21 to i32
  %23 = xor i32 %22, %8
  %24 = lshr i32 %23, 4
  %25 = trunc i32 %24 to i8
  %26 = and i8 %25, 1
  %27 = getelementptr inbounds %struct.State, %struct.State* %1, i64 0, i32 2, i32 5
  store i8 %26, i8* %27, align 1
  %28 = icmp eq i32 %8, 0
  %29 = zext i1 %28 to i8
  %30 = getelementptr inbounds %struct.State, %struct.State* %1, i64 0, i32 2, i32 7
  store i8 %29, i8* %30, align 1
  %31 = lshr i32 %8, 31
  %32 = trunc i32 %31 to i8
  %33 = getelementptr inbounds %struct.State, %struct.State* %1, i64 0, i32 2, i32 9
  store i8 %32, i8* %33, align 1
  %34 = lshr i32 %6, 31
  %35 = lshr i32 %7, 31
  %36 = xor i32 %31, %34
  %37 = xor i32 %31, %35
  %38 = add   i32 %36, %37
  %39 = icmp eq i32 %38, 2
  %40 = zext i1 %39 to i8
  %41 = getelementptr inbounds %struct.State, %struct.State* %1, i64 0, i32 2, i32 13
  store i8 %40, i8* %41, align 1
  ret %struct.Memory* %0
}

define %struct.Memory* @routine_addl__0x1___eax(%struct.State*  dereferenceable(3376), i64, %struct.Memory* ) #19 {
block_400488:
  %3 = getelementptr inbounds %struct.State, %struct.State* %0, i32 0, i32 6
  %4 = getelementptr inbounds %struct.GPR, %struct.GPR* %3, i32 0, i32 33
  %5 = getelementptr inbounds %struct.Reg, %struct.Reg* %4, i32 0, i32 0
  %PC = bitcast %union.anon* %5 to i64*
  %6 = getelementptr inbounds %struct.State, %struct.State* %0, i32 0, i32 6
  %7 = getelementptr inbounds %struct.GPR, %struct.GPR* %6, i32 0, i32 1
  %8 = getelementptr inbounds %struct.Reg, %struct.Reg* %7, i32 0, i32 0
  %RAX = bitcast %union.anon* %8 to i64*
  %9 = load i64, i64* %RAX
  %10 = load i64, i64* %PC
  %11 = add i64 %10, 3
  store i64 %11, i64* %PC
  %12 = call %struct.Memory* @_ZN12_GLOBAL__N_1L3ADDI3RnWImE2RnIjE2InIjEEEP6MemoryS8_R5StateT_T0_T1_(%struct.Memory* %2, %struct.State* %0, i64* %RAX, i64 %9, i64 1)
  ret %struct.Memory* %12
}


define %struct.Memory* @routine_movl__eax__MINUS0x2c__rbp_(%struct.State*  dereferenceable(3376), i64, %struct.Memory* ) #19 {
block_400488:
  %3 = getelementptr inbounds %struct.State, %struct.State* %0, i32 0, i32 6
  %4 = getelementptr inbounds %struct.GPR, %struct.GPR* %3, i32 0, i32 33
  %5 = getelementptr inbounds %struct.Reg, %struct.Reg* %4, i32 0, i32 0
  %PC = bitcast %union.anon* %5 to i64*
  %6 = getelementptr inbounds %struct.State, %struct.State* %0, i32 0, i32 6
  %7 = getelementptr inbounds %struct.GPR, %struct.GPR* %6, i32 0, i32 1
  %8 = getelementptr inbounds %struct.Reg, %struct.Reg* %7, i32 0, i32 0
  %EAX = bitcast %union.anon* %8 to i32*
  %9 = getelementptr inbounds %struct.State, %struct.State* %0, i32 0, i32 6
  %10 = getelementptr inbounds %struct.GPR, %struct.GPR* %9, i32 0, i32 15
  %11 = getelementptr inbounds %struct.Reg, %struct.Reg* %10, i32 0, i32 0
  %RBP = bitcast %union.anon* %11 to i64*
  %12 = load i64, i64* %RBP
  %13 = sub i64 %12, 44
  %14 = load i32, i32* %EAX
  %15 = zext i32 %14 to i64
  %16 = load i64, i64* %PC
  %17 = add i64 %16, 3
  store i64 %17, i64* %PC
  %18 = call %struct.Memory* @_ZN12_GLOBAL__N_1L3MOVI3MnWIjE2RnIjEEEP6MemoryS6_R5StateT_T0_(%struct.Memory* %2, %struct.State* %0, i64 %13, i64 %15)
  ret %struct.Memory* %18
}

define internal %struct.Memory* @_ZN12_GLOBAL__N_1L3JMPI2InImEEEP6MemoryS4_R5StateT_(%struct.Memory* readnone returned, %struct.State* nocapture dereferenceable(3376), i64) #2 {
  %4 = getelementptr inbounds %struct.State, %struct.State* %1, i64 0, i32 6, i32 33, i32 0, i32 0
  store i64 %2, i64* %4, align 8
  ret %struct.Memory* %0
}

define %struct.Memory* @routine_jmpq_.L_400c61(%struct.State*  dereferenceable(3376), i64, %struct.Memory*, i64 %rel_off1, i64 %rel_off2) {
block_400488:
  %3 = getelementptr inbounds %struct.State, %struct.State* %0, i32 0, i32 6
  %4 = getelementptr inbounds %struct.GPR, %struct.GPR* %3, i32 0, i32 33
  %5 = getelementptr inbounds %struct.Reg, %struct.Reg* %4, i32 0, i32 0
  %PC = bitcast %union.anon* %5 to i64*
  %6 = load i64, i64* %PC
  %7 = add i64 %6, %rel_off1
  %8 = load i64, i64* %PC
  %9 = add i64 %8, %rel_off2
  store i64 %9, i64* %PC
  %10 = call %struct.Memory* @_ZN12_GLOBAL__N_1L3JMPI2InImEEEP6MemoryS4_R5StateT_(%struct.Memory* %2, %struct.State* %0, i64 %7)
  ret %struct.Memory* %10
}


define %struct.Memory* @routine_jmpq_.L_400cd2(%struct.State*  dereferenceable(3376), i64, %struct.Memory*, i64 %rel_off1, i64 %rel_off2) {
block_400488:
  %3 = getelementptr inbounds %struct.State, %struct.State* %0, i32 0, i32 6
  %4 = getelementptr inbounds %struct.GPR, %struct.GPR* %3, i32 0, i32 33
  %5 = getelementptr inbounds %struct.Reg, %struct.Reg* %4, i32 0, i32 0
  %PC = bitcast %union.anon* %5 to i64*
  %6 = load i64, i64* %PC
  %7 = add i64 %6, %rel_off1
  %8 = load i64, i64* %PC
  %9 = add i64 %8, %rel_off2
  store i64 %9, i64* %PC
  %10 = call %struct.Memory* @_ZN12_GLOBAL__N_1L3JMPI2InImEEEP6MemoryS4_R5StateT_(%struct.Memory* %2, %struct.State* %0, i64 %7)
  ret %struct.Memory* %10
}






define %struct.Memory* @routine_movl__eax__MINUS0x28__rbp_(%struct.State*  dereferenceable(3376), i64, %struct.Memory* ) #19 {
block_400488:
  %3 = getelementptr inbounds %struct.State, %struct.State* %0, i32 0, i32 6
  %4 = getelementptr inbounds %struct.GPR, %struct.GPR* %3, i32 0, i32 33
  %5 = getelementptr inbounds %struct.Reg, %struct.Reg* %4, i32 0, i32 0
  %PC = bitcast %union.anon* %5 to i64*
  %6 = getelementptr inbounds %struct.State, %struct.State* %0, i32 0, i32 6
  %7 = getelementptr inbounds %struct.GPR, %struct.GPR* %6, i32 0, i32 1
  %8 = getelementptr inbounds %struct.Reg, %struct.Reg* %7, i32 0, i32 0
  %EAX = bitcast %union.anon* %8 to i32*
  %9 = getelementptr inbounds %struct.State, %struct.State* %0, i32 0, i32 6
  %10 = getelementptr inbounds %struct.GPR, %struct.GPR* %9, i32 0, i32 15
  %11 = getelementptr inbounds %struct.Reg, %struct.Reg* %10, i32 0, i32 0
  %RBP = bitcast %union.anon* %11 to i64*
  %12 = load i64, i64* %RBP
  %13 = sub i64 %12, 40
  %14 = load i32, i32* %EAX
  %15 = zext i32 %14 to i64
  %16 = load i64, i64* %PC
  %17 = add i64 %16, 3
  store i64 %17, i64* %PC
  %18 = call %struct.Memory* @_ZN12_GLOBAL__N_1L3MOVI3MnWIjE2RnIjEEEP6MemoryS6_R5StateT_T0_(%struct.Memory* %2, %struct.State* %0, i64 %13, i64 %15)
  ret %struct.Memory* %18
}


define %struct.Memory* @routine_jmpq_.L_400c4e(%struct.State*  dereferenceable(3376), i64, %struct.Memory*, i64 %rel_off1, i64 %rel_off2) {
block_400488:
  %3 = getelementptr inbounds %struct.State, %struct.State* %0, i32 0, i32 6
  %4 = getelementptr inbounds %struct.GPR, %struct.GPR* %3, i32 0, i32 33
  %5 = getelementptr inbounds %struct.Reg, %struct.Reg* %4, i32 0, i32 0
  %PC = bitcast %union.anon* %5 to i64*
  %6 = load i64, i64* %PC
  %7 = add i64 %6, %rel_off1
  %8 = load i64, i64* %PC
  %9 = add i64 %8, %rel_off2
  store i64 %9, i64* %PC
  %10 = call %struct.Memory* @_ZN12_GLOBAL__N_1L3JMPI2InImEEEP6MemoryS4_R5StateT_(%struct.Memory* %2, %struct.State* %0, i64 %7)
  ret %struct.Memory* %10
}


define %struct.Memory* @routine_jmpq_.L_400ce5(%struct.State*  dereferenceable(3376), i64, %struct.Memory*, i64 %rel_off1, i64 %rel_off2) {
block_400488:
  %3 = getelementptr inbounds %struct.State, %struct.State* %0, i32 0, i32 6
  %4 = getelementptr inbounds %struct.GPR, %struct.GPR* %3, i32 0, i32 33
  %5 = getelementptr inbounds %struct.Reg, %struct.Reg* %4, i32 0, i32 0
  %PC = bitcast %union.anon* %5 to i64*
  %6 = load i64, i64* %PC
  %7 = add i64 %6, %rel_off1
  %8 = load i64, i64* %PC
  %9 = add i64 %8, %rel_off2
  store i64 %9, i64* %PC
  %10 = call %struct.Memory* @_ZN12_GLOBAL__N_1L3JMPI2InImEEEP6MemoryS4_R5StateT_(%struct.Memory* %2, %struct.State* %0, i64 %7)
  ret %struct.Memory* %10
}






define %struct.Memory* @routine_movl__eax__MINUS0x24__rbp_(%struct.State*  dereferenceable(3376), i64, %struct.Memory* ) #19 {
block_400488:
  %3 = getelementptr inbounds %struct.State, %struct.State* %0, i32 0, i32 6
  %4 = getelementptr inbounds %struct.GPR, %struct.GPR* %3, i32 0, i32 33
  %5 = getelementptr inbounds %struct.Reg, %struct.Reg* %4, i32 0, i32 0
  %PC = bitcast %union.anon* %5 to i64*
  %6 = getelementptr inbounds %struct.State, %struct.State* %0, i32 0, i32 6
  %7 = getelementptr inbounds %struct.GPR, %struct.GPR* %6, i32 0, i32 1
  %8 = getelementptr inbounds %struct.Reg, %struct.Reg* %7, i32 0, i32 0
  %EAX = bitcast %union.anon* %8 to i32*
  %9 = getelementptr inbounds %struct.State, %struct.State* %0, i32 0, i32 6
  %10 = getelementptr inbounds %struct.GPR, %struct.GPR* %9, i32 0, i32 15
  %11 = getelementptr inbounds %struct.Reg, %struct.Reg* %10, i32 0, i32 0
  %RBP = bitcast %union.anon* %11 to i64*
  %12 = load i64, i64* %RBP
  %13 = sub i64 %12, 36
  %14 = load i32, i32* %EAX
  %15 = zext i32 %14 to i64
  %16 = load i64, i64* %PC
  %17 = add i64 %16, 3
  store i64 %17, i64* %PC
  %18 = call %struct.Memory* @_ZN12_GLOBAL__N_1L3MOVI3MnWIjE2RnIjEEEP6MemoryS6_R5StateT_T0_(%struct.Memory* %2, %struct.State* %0, i64 %13, i64 %15)
  ret %struct.Memory* %18
}


define %struct.Memory* @routine_jmpq_.L_400c3b(%struct.State*  dereferenceable(3376), i64, %struct.Memory*, i64 %rel_off1, i64 %rel_off2) {
block_400488:
  %3 = getelementptr inbounds %struct.State, %struct.State* %0, i32 0, i32 6
  %4 = getelementptr inbounds %struct.GPR, %struct.GPR* %3, i32 0, i32 33
  %5 = getelementptr inbounds %struct.Reg, %struct.Reg* %4, i32 0, i32 0
  %PC = bitcast %union.anon* %5 to i64*
  %6 = load i64, i64* %PC
  %7 = add i64 %6, %rel_off1
  %8 = load i64, i64* %PC
  %9 = add i64 %8, %rel_off2
  store i64 %9, i64* %PC
  %10 = call %struct.Memory* @_ZN12_GLOBAL__N_1L3JMPI2InImEEEP6MemoryS4_R5StateT_(%struct.Memory* %2, %struct.State* %0, i64 %7)
  ret %struct.Memory* %10
}

define internal %struct.Memory* @_ZN12_GLOBAL__N_1L3POPI3RnWImEEEP6MemoryS4_R5StateT_(%struct.Memory*, %struct.State* nocapture dereferenceable(3376), i64* nocapture) #0 {
  %4 = getelementptr inbounds %struct.State, %struct.State* %1, i64 0, i32 6, i32 13, i32 0, i32 0
  %5 = load i64, i64* %4, align 8
  %6 = add i64 %5, 8
  %7 = inttoptr i64 %5 to i64*
  %8 = load i64, i64* %7
  store i64 %8, i64* %2, align 8
  store i64 %6, i64* %4, align 8
  ret %struct.Memory* %0
}

define %struct.Memory* @routine_popq__rbp(%struct.State*  dereferenceable(3376), i64, %struct.Memory* ) #19 {
block_400488:
  %3 = getelementptr inbounds %struct.State, %struct.State* %0, i32 0, i32 6
  %4 = getelementptr inbounds %struct.GPR, %struct.GPR* %3, i32 0, i32 33
  %5 = getelementptr inbounds %struct.Reg, %struct.Reg* %4, i32 0, i32 0
  %PC = bitcast %union.anon* %5 to i64*
  %6 = getelementptr inbounds %struct.State, %struct.State* %0, i32 0, i32 6
  %7 = getelementptr inbounds %struct.GPR, %struct.GPR* %6, i32 0, i32 15
  %8 = getelementptr inbounds %struct.Reg, %struct.Reg* %7, i32 0, i32 0
  %RBP = bitcast %union.anon* %8 to i64*
  %9 = load i64, i64* %PC
  %10 = add i64 %9, 1
  store i64 %10, i64* %PC
  %11 = call %struct.Memory* @_ZN12_GLOBAL__N_1L3POPI3RnWImEEEP6MemoryS4_R5StateT_(%struct.Memory* %2, %struct.State* %0, i64* %RBP)
  ret %struct.Memory* %11
}

define internal %struct.Memory* @_ZN12_GLOBAL__N_1L3RETEP6MemoryR5State(%struct.Memory* returned, %struct.State* nocapture dereferenceable(3376)) #0 {
  %3 = getelementptr inbounds %struct.State, %struct.State* %1, i64 0, i32 6, i32 33, i32 0, i32 0
  %4 = getelementptr inbounds %struct.State, %struct.State* %1, i64 0, i32 6, i32 13, i32 0, i32 0
  %5 = load i64, i64* %4, align 8
  %6 = inttoptr i64 %5 to i64*
  %7 = load i64, i64* %6
  store i64 %7, i64* %3, align 8
  %8 = add i64 %5, 8
  store i64 %8, i64* %4, align 8
  ret %struct.Memory* %0
}

define %struct.Memory* @routine_retq(%struct.State*  dereferenceable(3376), i64, %struct.Memory* ) #19 {
block_400488:
  %3 = getelementptr inbounds %struct.State, %struct.State* %0, i32 0, i32 6
  %4 = getelementptr inbounds %struct.GPR, %struct.GPR* %3, i32 0, i32 33
  %5 = getelementptr inbounds %struct.Reg, %struct.Reg* %4, i32 0, i32 0
  %PC = bitcast %union.anon* %5 to i64*
  %6 = load i64, i64* %PC
  %7 = add i64 %6, 1
  store i64 %7, i64* %PC
  %8 = call %struct.Memory* @_ZN12_GLOBAL__N_1L3RETEP6MemoryR5State(%struct.Memory* %2, %struct.State* %0)
  ret %struct.Memory* %8
}

