; ModuleID = 'mcsema/test.proposed.inline.ll'
source_filename = "llvm-link"
target datalayout = "e-m:e-i64:64-f80:128-n8:16:32:64-S128"
target triple = "x86_64-pc-linux-gnu-elf"

%__bss_start_type = type <{ [8 x i8] }>
%struct.State = type { %struct.ArchState, [32 x %union.VectorReg], %struct.ArithFlags, %union.anon, %struct.Segments, %struct.AddressSpace, %struct.GPR, %struct.X87Stack, %struct.MMX, %struct.FPUStatusFlags, %union.anon, %union.FPU, %struct.SegmentCaches }
%struct.ArchState = type { i32, i32, %union.anon }
%union.VectorReg = type { %union.vec512_t }
%union.vec512_t = type { %struct.uint64v8_t }
%struct.uint64v8_t = type { [8 x i64] }
%struct.ArithFlags = type { i8, i8, i8, i8, i8, i8, i8, i8, i8, i8, i8, i8, i8, i8, i8, i8 }
%struct.Segments = type { i16, %union.SegmentSelector, i16, %union.SegmentSelector, i16, %union.SegmentSelector, i16, %union.SegmentSelector, i16, %union.SegmentSelector, i16, %union.SegmentSelector }
%union.SegmentSelector = type { i16 }
%struct.AddressSpace = type { i64, %struct.Reg, i64, %struct.Reg, i64, %struct.Reg, i64, %struct.Reg, i64, %struct.Reg, i64, %struct.Reg }
%struct.Reg = type { %union.anon }
%struct.GPR = type { i64, %struct.Reg, i64, %struct.Reg, i64, %struct.Reg, i64, %struct.Reg, i64, %struct.Reg, i64, %struct.Reg, i64, %struct.Reg, i64, %struct.Reg, i64, %struct.Reg, i64, %struct.Reg, i64, %struct.Reg, i64, %struct.Reg, i64, %struct.Reg, i64, %struct.Reg, i64, %struct.Reg, i64, %struct.Reg, i64, %struct.Reg }
%struct.X87Stack = type { [8 x %struct.anon.3] }
%struct.anon.3 = type { i64, double }
%struct.MMX = type { [8 x %struct.anon.4] }
%struct.anon.4 = type { i64, %union.vec64_t }
%union.vec64_t = type { %struct.uint64v1_t }
%struct.uint64v1_t = type { [1 x i64] }
%struct.FPUStatusFlags = type { i8, i8, i8, i8, i8, i8, i8, i8, i8, i8, i8, i8, i8, i8, i8, i8, i8, i8, i8, i8, [4 x i8] }
%union.anon = type { i64 }
%union.FPU = type { %struct.anon.13 }
%struct.anon.13 = type { %struct.FpuFXSAVE, [96 x i8] }
%struct.FpuFXSAVE = type { %union.SegmentSelector, %union.SegmentSelector, %union.FPUAbridgedTagWord, i8, i16, i32, %union.SegmentSelector, i16, i32, %union.SegmentSelector, i16, %union.FPUControlStatus, %union.FPUControlStatus, [8 x %struct.FPUStackElem], [16 x %union.vec128_t] }
%union.FPUAbridgedTagWord = type { i8 }
%union.FPUControlStatus = type { i32 }
%struct.FPUStackElem = type { %union.anon.11, [6 x i8] }
%union.anon.11 = type { %struct.float80_t }
%struct.float80_t = type { [10 x i8] }
%union.vec128_t = type { %struct.uint128v1_t }
%struct.uint128v1_t = type { [1 x i128] }
%struct.SegmentCaches = type { %struct.SegmentShadow, %struct.SegmentShadow, %struct.SegmentShadow, %struct.SegmentShadow, %struct.SegmentShadow, %struct.SegmentShadow }
%struct.SegmentShadow = type { %union.anon, i32, i32 }
%struct.Memory = type opaque

@__bss_start = local_unnamed_addr global %__bss_start_type zeroinitializer

; Function Attrs: nounwind readnone
declare i32 @llvm.ctpop.i32(i32) #0

declare %struct.Memory* @sub_400e50._Z11start_timerv(%struct.State* dereferenceable(3376), i64, %struct.Memory*) local_unnamed_addr

declare %struct.Memory* @sub_40fd10._ZN34custom_multiply_multiple_variable2IiE8do_shiftEiiiii(%struct.State* dereferenceable(3376), i64, %struct.Memory*) local_unnamed_addr

declare %struct.Memory* @sub_40fd40._Z26check_shifted_variable_sumIi34custom_multiply_multiple_variable2IiEEvT_S2_S2_S2_S2_(%struct.State* dereferenceable(3376), i64, %struct.Memory*) local_unnamed_addr

declare %struct.Memory* @sub_400e70._Z5timerv(%struct.State* dereferenceable(3376), i64, %struct.Memory*) local_unnamed_addr

declare %struct.Memory* @sub_400810._Z13record_resultdPKc(%struct.State* dereferenceable(3376), i64, %struct.Memory*) local_unnamed_addr

; Function Attrs: alwaysinline
define %struct.Memory* @_Z14test_variable4Ii34custom_multiply_multiple_variable2IiEEvPT_iS2_S2_S2_S2_PKc(%struct.State* noalias, i64, %struct.Memory* noalias) local_unnamed_addr #1 {
entry:
  %3 = getelementptr inbounds %struct.State, %struct.State* %0, i64 0, i32 6, i32 33, i32 0, i32 0
  %RBP.i = getelementptr inbounds %struct.State, %struct.State* %0, i64 0, i32 6, i32 15, i32 0, i32 0
  %4 = load i64, i64* %RBP.i, align 8
  %5 = add i64 %1, 1
  store i64 %5, i64* %3, align 8
  %6 = getelementptr inbounds %struct.State, %struct.State* %0, i64 0, i32 6, i32 13, i32 0, i32 0
  %7 = load i64, i64* %6, align 8
  %8 = add i64 %7, -8
  %9 = inttoptr i64 %8 to i64*
  store i64 %4, i64* %9, align 8
  %10 = load i64, i64* %3, align 8
  store i64 %8, i64* %RBP.i, align 8
  %11 = add i64 %7, -72
  store i64 %11, i64* %6, align 8
  %12 = icmp ult i64 %8, 64
  %13 = zext i1 %12 to i8
  %14 = getelementptr inbounds %struct.State, %struct.State* %0, i64 0, i32 2, i32 1
  store i8 %13, i8* %14, align 1
  %15 = trunc i64 %11 to i32
  %16 = and i32 %15, 255
  %17 = tail call i32 @llvm.ctpop.i32(i32 %16)
  %18 = trunc i32 %17 to i8
  %19 = and i8 %18, 1
  %20 = xor i8 %19, 1
  %21 = getelementptr inbounds %struct.State, %struct.State* %0, i64 0, i32 2, i32 3
  store i8 %20, i8* %21, align 1
  %22 = xor i64 %8, %11
  %23 = lshr i64 %22, 4
  %24 = trunc i64 %23 to i8
  %25 = and i8 %24, 1
  %26 = getelementptr inbounds %struct.State, %struct.State* %0, i64 0, i32 2, i32 5
  store i8 %25, i8* %26, align 1
  %27 = icmp eq i64 %11, 0
  %28 = zext i1 %27 to i8
  %29 = getelementptr inbounds %struct.State, %struct.State* %0, i64 0, i32 2, i32 7
  store i8 %28, i8* %29, align 1
  %30 = lshr i64 %11, 63
  %31 = trunc i64 %30 to i8
  %32 = getelementptr inbounds %struct.State, %struct.State* %0, i64 0, i32 2, i32 9
  store i8 %31, i8* %32, align 1
  %33 = lshr i64 %8, 63
  %34 = xor i64 %30, %33
  %35 = add nuw nsw i64 %34, %33
  %36 = icmp eq i64 %35, 2
  %37 = zext i1 %36 to i8
  %38 = getelementptr inbounds %struct.State, %struct.State* %0, i64 0, i32 2, i32 13
  store i8 %37, i8* %38, align 1
  %RAX.i104 = getelementptr inbounds %struct.State, %struct.State* %0, i64 0, i32 6, i32 1, i32 0, i32 0
  %39 = add i64 %7, 8
  %40 = add i64 %10, 11
  store i64 %40, i64* %3, align 8
  %41 = inttoptr i64 %39 to i64*
  %42 = load i64, i64* %41, align 8
  store i64 %42, i64* %RAX.i104, align 8
  %RDI.i101 = getelementptr inbounds %struct.State, %struct.State* %0, i64 0, i32 6, i32 11, i32 0, i32 0
  %43 = add i64 %7, -16
  %44 = load i64, i64* %RDI.i101, align 8
  %45 = add i64 %10, 15
  store i64 %45, i64* %3, align 8
  %46 = inttoptr i64 %43 to i64*
  store i64 %44, i64* %46, align 8
  %47 = getelementptr inbounds %struct.State, %struct.State* %0, i64 0, i32 6, i32 9, i32 0
  %ESI.i = bitcast %union.anon* %47 to i32*
  %48 = load i64, i64* %RBP.i, align 8
  %49 = add i64 %48, -12
  %50 = load i32, i32* %ESI.i, align 4
  %51 = load i64, i64* %3, align 8
  %52 = add i64 %51, 3
  store i64 %52, i64* %3, align 8
  %53 = inttoptr i64 %49 to i32*
  store i32 %50, i32* %53, align 4
  %54 = getelementptr inbounds %struct.State, %struct.State* %0, i64 0, i32 6, i32 7, i32 0
  %EDX.i = bitcast %union.anon* %54 to i32*
  %55 = load i64, i64* %RBP.i, align 8
  %56 = add i64 %55, -16
  %57 = load i32, i32* %EDX.i, align 4
  %58 = load i64, i64* %3, align 8
  %59 = add i64 %58, 3
  store i64 %59, i64* %3, align 8
  %60 = inttoptr i64 %56 to i32*
  store i32 %57, i32* %60, align 4
  %61 = getelementptr inbounds %struct.State, %struct.State* %0, i64 0, i32 6, i32 5, i32 0
  %ECX.i = bitcast %union.anon* %61 to i32*
  %62 = load i64, i64* %RBP.i, align 8
  %63 = add i64 %62, -20
  %64 = load i32, i32* %ECX.i, align 4
  %65 = load i64, i64* %3, align 8
  %66 = add i64 %65, 3
  store i64 %66, i64* %3, align 8
  %67 = inttoptr i64 %63 to i32*
  store i32 %64, i32* %67, align 4
  %68 = getelementptr inbounds %struct.State, %struct.State* %0, i64 0, i32 6, i32 17, i32 0
  %R8D.i92 = bitcast %union.anon* %68 to i32*
  %69 = load i64, i64* %RBP.i, align 8
  %70 = add i64 %69, -24
  %71 = load i32, i32* %R8D.i92, align 4
  %72 = load i64, i64* %3, align 8
  %73 = add i64 %72, 4
  store i64 %73, i64* %3, align 8
  %74 = inttoptr i64 %70 to i32*
  store i32 %71, i32* %74, align 4
  %75 = getelementptr inbounds %struct.State, %struct.State* %0, i64 0, i32 6, i32 19, i32 0
  %R9D.i = bitcast %union.anon* %75 to i32*
  %76 = load i64, i64* %RBP.i, align 8
  %77 = add i64 %76, -28
  %78 = load i32, i32* %R9D.i, align 4
  %79 = load i64, i64* %3, align 8
  %80 = add i64 %79, 4
  store i64 %80, i64* %3, align 8
  %81 = inttoptr i64 %77 to i32*
  store i32 %78, i32* %81, align 4
  %82 = load i64, i64* %RBP.i, align 8
  %83 = add i64 %82, -40
  %84 = load i64, i64* %RAX.i104, align 8
  %85 = load i64, i64* %3, align 8
  %86 = add i64 %85, 4
  store i64 %86, i64* %3, align 8
  %87 = inttoptr i64 %83 to i64*
  store i64 %84, i64* %87, align 8
  %88 = load i64, i64* %3, align 8
  %89 = add i64 %88, -27637
  %90 = add i64 %88, 5
  %91 = load i64, i64* %6, align 8
  %92 = add i64 %91, -8
  %93 = inttoptr i64 %92 to i64*
  store i64 %90, i64* %93, align 8
  store i64 %92, i64* %6, align 8
  store i64 %89, i64* %3, align 8
  %call2_407a45 = tail call %struct.Memory* @sub_400e50._Z11start_timerv(%struct.State* %0, i64 %89, %struct.Memory* %2)
  %94 = load i64, i64* %RBP.i, align 8
  %95 = add i64 %94, -44
  %96 = load i64, i64* %3, align 8
  %97 = add i64 %96, 7
  store i64 %97, i64* %3, align 8
  %98 = inttoptr i64 %95 to i32*
  store i32 0, i32* %98, align 4
  %RCX.i61 = getelementptr inbounds %union.anon, %union.anon* %61, i64 0, i32 0
  %RSI.i54 = getelementptr inbounds %union.anon, %union.anon* %47, i64 0, i32 0
  %RDX.i51 = getelementptr inbounds %union.anon, %union.anon* %54, i64 0, i32 0
  %99 = getelementptr inbounds %union.anon, %union.anon* %68, i64 0, i32 0
  %.pre = load i64, i64* %3, align 8
  br label %block_.L_407a51

block_.L_407a51:                                  ; preds = %block_.L_407aac, %entry
  %100 = phi i64 [ %.pre, %entry ], [ %348, %block_.L_407aac ]
  %MEMORY.0 = phi %struct.Memory* [ %call2_407a45, %entry ], [ %call2_407abc, %block_.L_407aac ]
  %101 = load i64, i64* %RBP.i, align 8
  %102 = add i64 %101, -44
  %103 = add i64 %100, 3
  store i64 %103, i64* %3, align 8
  %104 = inttoptr i64 %102 to i32*
  %105 = load i32, i32* %104, align 4
  %106 = zext i32 %105 to i64
  store i64 %106, i64* %RAX.i104, align 8
  %107 = load i32, i32* inttoptr (i64 6398080 to i32*), align 128
  %108 = sub i32 %105, %107
  %109 = icmp ult i32 %105, %107
  %110 = zext i1 %109 to i8
  store i8 %110, i8* %14, align 1
  %111 = and i32 %108, 255
  %112 = tail call i32 @llvm.ctpop.i32(i32 %111)
  %113 = trunc i32 %112 to i8
  %114 = and i8 %113, 1
  %115 = xor i8 %114, 1
  store i8 %115, i8* %21, align 1
  %116 = xor i32 %107, %105
  %117 = xor i32 %116, %108
  %118 = lshr i32 %117, 4
  %119 = trunc i32 %118 to i8
  %120 = and i8 %119, 1
  store i8 %120, i8* %26, align 1
  %121 = icmp eq i32 %108, 0
  %122 = zext i1 %121 to i8
  store i8 %122, i8* %29, align 1
  %123 = lshr i32 %108, 31
  %124 = trunc i32 %123 to i8
  store i8 %124, i8* %32, align 1
  %125 = lshr i32 %105, 31
  %126 = lshr i32 %107, 31
  %127 = xor i32 %126, %125
  %128 = xor i32 %123, %125
  %129 = add nuw nsw i32 %128, %127
  %130 = icmp eq i32 %129, 2
  %131 = zext i1 %130 to i8
  store i8 %131, i8* %38, align 1
  %132 = icmp ne i8 %124, 0
  %133 = xor i1 %132, %130
  %.v = select i1 %133, i64 16, i64 126
  %134 = add i64 %100, %.v
  store i64 %134, i64* %3, align 8
  br i1 %133, label %block_407a61, label %block_.L_407acf

block_407a61:                                     ; preds = %block_.L_407a51
  %135 = add i64 %101, -48
  %136 = add i64 %134, 7
  store i64 %136, i64* %3, align 8
  %137 = inttoptr i64 %135 to i32*
  store i32 0, i32* %137, align 4
  %138 = load i64, i64* %RBP.i, align 8
  %139 = add i64 %138, -52
  %140 = load i64, i64* %3, align 8
  %141 = add i64 %140, 7
  store i64 %141, i64* %3, align 8
  %142 = inttoptr i64 %139 to i32*
  store i32 0, i32* %142, align 4
  %.pre6 = load i64, i64* %3, align 8
  br label %block_.L_407a6f

block_.L_407a6f:                                  ; preds = %block_407a7b, %block_407a61
  %143 = phi i64 [ %.pre6, %block_407a61 ], [ %286, %block_407a7b ]
  %MEMORY.1 = phi %struct.Memory* [ %MEMORY.0, %block_407a61 ], [ %call2_407a93, %block_407a7b ]
  %144 = load i64, i64* %RBP.i, align 8
  %145 = add i64 %144, -52
  %146 = add i64 %143, 3
  store i64 %146, i64* %3, align 8
  %147 = inttoptr i64 %145 to i32*
  %148 = load i32, i32* %147, align 4
  %149 = zext i32 %148 to i64
  store i64 %149, i64* %RAX.i104, align 8
  %150 = add i64 %144, -12
  %151 = add i64 %143, 6
  store i64 %151, i64* %3, align 8
  %152 = inttoptr i64 %150 to i32*
  %153 = load i32, i32* %152, align 4
  %154 = sub i32 %148, %153
  %155 = icmp ult i32 %148, %153
  %156 = zext i1 %155 to i8
  store i8 %156, i8* %14, align 1
  %157 = and i32 %154, 255
  %158 = tail call i32 @llvm.ctpop.i32(i32 %157)
  %159 = trunc i32 %158 to i8
  %160 = and i8 %159, 1
  %161 = xor i8 %160, 1
  store i8 %161, i8* %21, align 1
  %162 = xor i32 %153, %148
  %163 = xor i32 %162, %154
  %164 = lshr i32 %163, 4
  %165 = trunc i32 %164 to i8
  %166 = and i8 %165, 1
  store i8 %166, i8* %26, align 1
  %167 = icmp eq i32 %154, 0
  %168 = zext i1 %167 to i8
  store i8 %168, i8* %29, align 1
  %169 = lshr i32 %154, 31
  %170 = trunc i32 %169 to i8
  store i8 %170, i8* %32, align 1
  %171 = lshr i32 %148, 31
  %172 = lshr i32 %153, 31
  %173 = xor i32 %172, %171
  %174 = xor i32 %169, %171
  %175 = add nuw nsw i32 %174, %173
  %176 = icmp eq i32 %175, 2
  %177 = zext i1 %176 to i8
  store i8 %177, i8* %38, align 1
  %178 = icmp ne i8 %170, 0
  %179 = xor i1 %178, %176
  %.v7 = select i1 %179, i64 12, i64 61
  %180 = add i64 %143, %.v7
  store i64 %180, i64* %3, align 8
  br i1 %179, label %block_407a7b, label %block_.L_407aac

block_407a7b:                                     ; preds = %block_.L_407a6f
  %181 = add i64 %144, -8
  %182 = add i64 %180, 4
  store i64 %182, i64* %3, align 8
  %183 = inttoptr i64 %181 to i64*
  %184 = load i64, i64* %183, align 8
  store i64 %184, i64* %RAX.i104, align 8
  %185 = add i64 %180, 8
  store i64 %185, i64* %3, align 8
  %186 = load i32, i32* %147, align 4
  %187 = sext i32 %186 to i64
  store i64 %187, i64* %RCX.i61, align 8
  %188 = shl nsw i64 %187, 2
  %189 = add i64 %188, %184
  %190 = add i64 %180, 11
  store i64 %190, i64* %3, align 8
  %191 = inttoptr i64 %189 to i32*
  %192 = load i32, i32* %191, align 4
  %193 = zext i32 %192 to i64
  store i64 %193, i64* %RDI.i101, align 8
  %194 = add i64 %144, -16
  %195 = add i64 %180, 14
  store i64 %195, i64* %3, align 8
  %196 = inttoptr i64 %194 to i32*
  %197 = load i32, i32* %196, align 4
  %198 = zext i32 %197 to i64
  store i64 %198, i64* %RSI.i54, align 8
  %199 = add i64 %144, -20
  %200 = add i64 %180, 17
  store i64 %200, i64* %3, align 8
  %201 = inttoptr i64 %199 to i32*
  %202 = load i32, i32* %201, align 4
  %203 = zext i32 %202 to i64
  store i64 %203, i64* %RDX.i51, align 8
  %204 = add i64 %144, -24
  %205 = add i64 %180, 20
  store i64 %205, i64* %3, align 8
  %206 = inttoptr i64 %204 to i32*
  %207 = load i32, i32* %206, align 4
  %208 = zext i32 %207 to i64
  store i64 %208, i64* %RCX.i61, align 8
  %209 = add i64 %144, -28
  %210 = add i64 %180, 24
  store i64 %210, i64* %3, align 8
  %211 = inttoptr i64 %209 to i32*
  %212 = load i32, i32* %211, align 4
  %213 = zext i32 %212 to i64
  store i64 %213, i64* %99, align 8
  %214 = add i64 %180, 33429
  %215 = add i64 %180, 29
  %216 = load i64, i64* %6, align 8
  %217 = add i64 %216, -8
  %218 = inttoptr i64 %217 to i64*
  store i64 %215, i64* %218, align 8
  store i64 %217, i64* %6, align 8
  store i64 %214, i64* %3, align 8
  %call2_407a93 = tail call %struct.Memory* @sub_40fd10._ZN34custom_multiply_multiple_variable2IiE8do_shiftEiiiii(%struct.State* nonnull %0, i64 %214, %struct.Memory* %MEMORY.1)
  %219 = load i64, i64* %RAX.i104, align 8
  %220 = load i64, i64* %RBP.i, align 8
  %221 = add i64 %220, -48
  %222 = load i64, i64* %3, align 8
  %223 = add i64 %222, 3
  store i64 %223, i64* %3, align 8
  %224 = trunc i64 %219 to i32
  %225 = inttoptr i64 %221 to i32*
  %226 = load i32, i32* %225, align 4
  %227 = add i32 %226, %224
  %228 = zext i32 %227 to i64
  store i64 %228, i64* %RAX.i104, align 8
  %229 = icmp ult i32 %227, %224
  %230 = icmp ult i32 %227, %226
  %231 = or i1 %229, %230
  %232 = zext i1 %231 to i8
  store i8 %232, i8* %14, align 1
  %233 = and i32 %227, 255
  %234 = tail call i32 @llvm.ctpop.i32(i32 %233)
  %235 = trunc i32 %234 to i8
  %236 = and i8 %235, 1
  %237 = xor i8 %236, 1
  store i8 %237, i8* %21, align 1
  %238 = xor i32 %226, %224
  %239 = xor i32 %238, %227
  %240 = lshr i32 %239, 4
  %241 = trunc i32 %240 to i8
  %242 = and i8 %241, 1
  store i8 %242, i8* %26, align 1
  %243 = icmp eq i32 %227, 0
  %244 = zext i1 %243 to i8
  store i8 %244, i8* %29, align 1
  %245 = lshr i32 %227, 31
  %246 = trunc i32 %245 to i8
  store i8 %246, i8* %32, align 1
  %247 = lshr i32 %224, 31
  %248 = lshr i32 %226, 31
  %249 = xor i32 %245, %247
  %250 = xor i32 %245, %248
  %251 = add nuw nsw i32 %249, %250
  %252 = icmp eq i32 %251, 2
  %253 = zext i1 %252 to i8
  store i8 %253, i8* %38, align 1
  %254 = add i64 %222, 6
  store i64 %254, i64* %3, align 8
  store i32 %227, i32* %225, align 4
  %255 = load i64, i64* %RBP.i, align 8
  %256 = add i64 %255, -52
  %257 = load i64, i64* %3, align 8
  %258 = add i64 %257, 3
  store i64 %258, i64* %3, align 8
  %259 = inttoptr i64 %256 to i32*
  %260 = load i32, i32* %259, align 4
  %261 = add i32 %260, 1
  %262 = zext i32 %261 to i64
  store i64 %262, i64* %RAX.i104, align 8
  %263 = icmp eq i32 %260, -1
  %264 = icmp eq i32 %261, 0
  %265 = or i1 %263, %264
  %266 = zext i1 %265 to i8
  store i8 %266, i8* %14, align 1
  %267 = and i32 %261, 255
  %268 = tail call i32 @llvm.ctpop.i32(i32 %267)
  %269 = trunc i32 %268 to i8
  %270 = and i8 %269, 1
  %271 = xor i8 %270, 1
  store i8 %271, i8* %21, align 1
  %272 = xor i32 %261, %260
  %273 = lshr i32 %272, 4
  %274 = trunc i32 %273 to i8
  %275 = and i8 %274, 1
  store i8 %275, i8* %26, align 1
  %276 = zext i1 %264 to i8
  store i8 %276, i8* %29, align 1
  %277 = lshr i32 %261, 31
  %278 = trunc i32 %277 to i8
  store i8 %278, i8* %32, align 1
  %279 = lshr i32 %260, 31
  %280 = xor i32 %277, %279
  %281 = add nuw nsw i32 %280, %277
  %282 = icmp eq i32 %281, 2
  %283 = zext i1 %282 to i8
  store i8 %283, i8* %38, align 1
  %284 = add i64 %257, 9
  store i64 %284, i64* %3, align 8
  store i32 %261, i32* %259, align 4
  %285 = load i64, i64* %3, align 8
  %286 = add i64 %285, -56
  store i64 %286, i64* %3, align 8
  br label %block_.L_407a6f

block_.L_407aac:                                  ; preds = %block_.L_407a6f
  %287 = add i64 %144, -48
  %288 = add i64 %180, 3
  store i64 %288, i64* %3, align 8
  %289 = inttoptr i64 %287 to i32*
  %290 = load i32, i32* %289, align 4
  %291 = zext i32 %290 to i64
  store i64 %291, i64* %RDI.i101, align 8
  %292 = add i64 %144, -16
  %293 = add i64 %180, 6
  store i64 %293, i64* %3, align 8
  %294 = inttoptr i64 %292 to i32*
  %295 = load i32, i32* %294, align 4
  %296 = zext i32 %295 to i64
  store i64 %296, i64* %RSI.i54, align 8
  %297 = add i64 %144, -20
  %298 = add i64 %180, 9
  store i64 %298, i64* %3, align 8
  %299 = inttoptr i64 %297 to i32*
  %300 = load i32, i32* %299, align 4
  %301 = zext i32 %300 to i64
  store i64 %301, i64* %RDX.i51, align 8
  %302 = add i64 %144, -24
  %303 = add i64 %180, 12
  store i64 %303, i64* %3, align 8
  %304 = inttoptr i64 %302 to i32*
  %305 = load i32, i32* %304, align 4
  %306 = zext i32 %305 to i64
  store i64 %306, i64* %RCX.i61, align 8
  %307 = add i64 %144, -28
  %308 = add i64 %180, 16
  store i64 %308, i64* %3, align 8
  %309 = inttoptr i64 %307 to i32*
  %310 = load i32, i32* %309, align 4
  %311 = zext i32 %310 to i64
  store i64 %311, i64* %99, align 8
  %312 = add i64 %180, 33428
  %313 = add i64 %180, 21
  %314 = load i64, i64* %6, align 8
  %315 = add i64 %314, -8
  %316 = inttoptr i64 %315 to i64*
  store i64 %313, i64* %316, align 8
  store i64 %315, i64* %6, align 8
  store i64 %312, i64* %3, align 8
  %call2_407abc = tail call %struct.Memory* @sub_40fd40._Z26check_shifted_variable_sumIi34custom_multiply_multiple_variable2IiEEvT_S2_S2_S2_S2_(%struct.State* nonnull %0, i64 %312, %struct.Memory* %MEMORY.1)
  %317 = load i64, i64* %RBP.i, align 8
  %318 = add i64 %317, -44
  %319 = load i64, i64* %3, align 8
  %320 = add i64 %319, 3
  store i64 %320, i64* %3, align 8
  %321 = inttoptr i64 %318 to i32*
  %322 = load i32, i32* %321, align 4
  %323 = add i32 %322, 1
  %324 = zext i32 %323 to i64
  store i64 %324, i64* %RAX.i104, align 8
  %325 = icmp eq i32 %322, -1
  %326 = icmp eq i32 %323, 0
  %327 = or i1 %325, %326
  %328 = zext i1 %327 to i8
  store i8 %328, i8* %14, align 1
  %329 = and i32 %323, 255
  %330 = tail call i32 @llvm.ctpop.i32(i32 %329)
  %331 = trunc i32 %330 to i8
  %332 = and i8 %331, 1
  %333 = xor i8 %332, 1
  store i8 %333, i8* %21, align 1
  %334 = xor i32 %323, %322
  %335 = lshr i32 %334, 4
  %336 = trunc i32 %335 to i8
  %337 = and i8 %336, 1
  store i8 %337, i8* %26, align 1
  %338 = zext i1 %326 to i8
  store i8 %338, i8* %29, align 1
  %339 = lshr i32 %323, 31
  %340 = trunc i32 %339 to i8
  store i8 %340, i8* %32, align 1
  %341 = lshr i32 %322, 31
  %342 = xor i32 %339, %341
  %343 = add nuw nsw i32 %342, %339
  %344 = icmp eq i32 %343, 2
  %345 = zext i1 %344 to i8
  store i8 %345, i8* %38, align 1
  %346 = add i64 %319, 9
  store i64 %346, i64* %3, align 8
  store i32 %323, i32* %321, align 4
  %347 = load i64, i64* %3, align 8
  %348 = add i64 %347, -121
  store i64 %348, i64* %3, align 8
  br label %block_.L_407a51

block_.L_407acf:                                  ; preds = %block_.L_407a51
  %349 = add i64 %134, -27743
  %350 = add i64 %134, 5
  %351 = load i64, i64* %6, align 8
  %352 = add i64 %351, -8
  %353 = inttoptr i64 %352 to i64*
  store i64 %350, i64* %353, align 8
  store i64 %352, i64* %6, align 8
  store i64 %349, i64* %3, align 8
  %call2_407acf = tail call %struct.Memory* @sub_400e70._Z5timerv(%struct.State* nonnull %0, i64 %349, %struct.Memory* %MEMORY.0)
  %354 = load i64, i64* %RBP.i, align 8
  %355 = add i64 %354, -40
  %356 = load i64, i64* %3, align 8
  %357 = add i64 %356, 4
  store i64 %357, i64* %3, align 8
  %358 = inttoptr i64 %355 to i64*
  %359 = load i64, i64* %358, align 8
  store i64 %359, i64* %RDI.i101, align 8
  %360 = add i64 %356, -29380
  %361 = add i64 %356, 9
  %362 = load i64, i64* %6, align 8
  %363 = add i64 %362, -8
  %364 = inttoptr i64 %363 to i64*
  store i64 %361, i64* %364, align 8
  store i64 %363, i64* %6, align 8
  store i64 %360, i64* %3, align 8
  %call2_407ad8 = tail call %struct.Memory* @sub_400810._Z13record_resultdPKc(%struct.State* nonnull %0, i64 %360, %struct.Memory* %call2_407acf)
  %365 = load i64, i64* %6, align 8
  %366 = load i64, i64* %3, align 8
  %367 = add i64 %365, 64
  store i64 %367, i64* %6, align 8
  %368 = icmp ugt i64 %365, -65
  %369 = zext i1 %368 to i8
  store i8 %369, i8* %14, align 1
  %370 = trunc i64 %367 to i32
  %371 = and i32 %370, 255
  %372 = tail call i32 @llvm.ctpop.i32(i32 %371)
  %373 = trunc i32 %372 to i8
  %374 = and i8 %373, 1
  %375 = xor i8 %374, 1
  store i8 %375, i8* %21, align 1
  %376 = xor i64 %367, %365
  %377 = lshr i64 %376, 4
  %378 = trunc i64 %377 to i8
  %379 = and i8 %378, 1
  store i8 %379, i8* %26, align 1
  %380 = icmp eq i64 %367, 0
  %381 = zext i1 %380 to i8
  store i8 %381, i8* %29, align 1
  %382 = lshr i64 %367, 63
  %383 = trunc i64 %382 to i8
  store i8 %383, i8* %32, align 1
  %384 = lshr i64 %365, 63
  %385 = xor i64 %382, %384
  %386 = add nuw nsw i64 %385, %382
  %387 = icmp eq i64 %386, 2
  %388 = zext i1 %387 to i8
  store i8 %388, i8* %38, align 1
  %389 = add i64 %366, 5
  store i64 %389, i64* %3, align 8
  %390 = add i64 %365, 72
  %391 = inttoptr i64 %367 to i64*
  %392 = load i64, i64* %391, align 8
  store i64 %392, i64* %RBP.i, align 8
  store i64 %390, i64* %6, align 8
  %393 = add i64 %366, 6
  store i64 %393, i64* %3, align 8
  %394 = inttoptr i64 %390 to i64*
  %395 = load i64, i64* %394, align 8
  store i64 %395, i64* %3, align 8
  %396 = add i64 %365, 80
  store i64 %396, i64* %6, align 8
  ret %struct.Memory* %call2_407ad8
}

; Function Attrs: norecurse nounwind
define %struct.Memory* @routine_pushq__rbp(%struct.State* nocapture dereferenceable(3376), i64, %struct.Memory* readnone returned) local_unnamed_addr #2 {
block_400488:
  %PC = getelementptr inbounds %struct.State, %struct.State* %0, i64 0, i32 6, i32 33, i32 0, i32 0
  %RBP = getelementptr inbounds %struct.State, %struct.State* %0, i64 0, i32 6, i32 15, i32 0, i32 0
  %3 = load i64, i64* %RBP, align 8
  %4 = load i64, i64* %PC, align 8
  %5 = add i64 %4, 1
  store i64 %5, i64* %PC, align 8
  %6 = getelementptr inbounds %struct.State, %struct.State* %0, i64 0, i32 6, i32 13, i32 0, i32 0
  %7 = load i64, i64* %6, align 8
  %8 = add i64 %7, -8
  %9 = inttoptr i64 %8 to i64*
  store i64 %3, i64* %9, align 8
  store i64 %8, i64* %6, align 8
  ret %struct.Memory* %2
}

; Function Attrs: norecurse nounwind
define %struct.Memory* @routine_movq__rsp___rbp(%struct.State* nocapture dereferenceable(3376), i64, %struct.Memory* readnone returned) local_unnamed_addr #2 {
block_400488:
  %PC = getelementptr inbounds %struct.State, %struct.State* %0, i64 0, i32 6, i32 33, i32 0, i32 0
  %RSP = getelementptr inbounds %struct.State, %struct.State* %0, i64 0, i32 6, i32 13, i32 0, i32 0
  %RBP = getelementptr inbounds %struct.State, %struct.State* %0, i64 0, i32 6, i32 15, i32 0, i32 0
  %3 = load i64, i64* %RSP, align 8
  %4 = load i64, i64* %PC, align 8
  %5 = add i64 %4, 3
  store i64 %5, i64* %PC, align 8
  store i64 %3, i64* %RBP, align 8
  ret %struct.Memory* %2
}

; Function Attrs: nounwind
define %struct.Memory* @routine_subq__0x40___rsp(%struct.State* nocapture dereferenceable(3376), i64, %struct.Memory* readnone returned) local_unnamed_addr #3 {
block_400488:
  %PC = getelementptr inbounds %struct.State, %struct.State* %0, i64 0, i32 6, i32 33, i32 0, i32 0
  %RSP = getelementptr inbounds %struct.State, %struct.State* %0, i64 0, i32 6, i32 13, i32 0, i32 0
  %3 = load i64, i64* %RSP, align 8
  %4 = load i64, i64* %PC, align 8
  %5 = add i64 %4, 4
  store i64 %5, i64* %PC, align 8
  %6 = add i64 %3, -64
  store i64 %6, i64* %RSP, align 8
  %7 = icmp ult i64 %3, 64
  %8 = zext i1 %7 to i8
  %9 = getelementptr inbounds %struct.State, %struct.State* %0, i64 0, i32 2, i32 1
  store i8 %8, i8* %9, align 1
  %10 = trunc i64 %6 to i32
  %11 = and i32 %10, 255
  %12 = tail call i32 @llvm.ctpop.i32(i32 %11)
  %13 = trunc i32 %12 to i8
  %14 = and i8 %13, 1
  %15 = xor i8 %14, 1
  %16 = getelementptr inbounds %struct.State, %struct.State* %0, i64 0, i32 2, i32 3
  store i8 %15, i8* %16, align 1
  %17 = xor i64 %6, %3
  %18 = lshr i64 %17, 4
  %19 = trunc i64 %18 to i8
  %20 = and i8 %19, 1
  %21 = getelementptr inbounds %struct.State, %struct.State* %0, i64 0, i32 2, i32 5
  store i8 %20, i8* %21, align 1
  %22 = icmp eq i64 %6, 0
  %23 = zext i1 %22 to i8
  %24 = getelementptr inbounds %struct.State, %struct.State* %0, i64 0, i32 2, i32 7
  store i8 %23, i8* %24, align 1
  %25 = lshr i64 %6, 63
  %26 = trunc i64 %25 to i8
  %27 = getelementptr inbounds %struct.State, %struct.State* %0, i64 0, i32 2, i32 9
  store i8 %26, i8* %27, align 1
  %28 = lshr i64 %3, 63
  %29 = xor i64 %25, %28
  %30 = add nuw nsw i64 %29, %28
  %31 = icmp eq i64 %30, 2
  %32 = zext i1 %31 to i8
  %33 = getelementptr inbounds %struct.State, %struct.State* %0, i64 0, i32 2, i32 13
  store i8 %32, i8* %33, align 1
  ret %struct.Memory* %2
}

; Function Attrs: norecurse nounwind
define %struct.Memory* @routine_movq_0x10__rbp____rax(%struct.State* nocapture dereferenceable(3376), i64, %struct.Memory* readnone returned) local_unnamed_addr #2 {
block_400488:
  %PC = getelementptr inbounds %struct.State, %struct.State* %0, i64 0, i32 6, i32 33, i32 0, i32 0
  %RAX = getelementptr inbounds %struct.State, %struct.State* %0, i64 0, i32 6, i32 1, i32 0, i32 0
  %RBP = getelementptr inbounds %struct.State, %struct.State* %0, i64 0, i32 6, i32 15, i32 0, i32 0
  %3 = load i64, i64* %RBP, align 8
  %4 = add i64 %3, 16
  %5 = load i64, i64* %PC, align 8
  %6 = add i64 %5, 4
  store i64 %6, i64* %PC, align 8
  %7 = inttoptr i64 %4 to i64*
  %8 = load i64, i64* %7, align 8
  store i64 %8, i64* %RAX, align 8
  ret %struct.Memory* %2
}

; Function Attrs: norecurse nounwind
define %struct.Memory* @routine_movq__rdi__MINUS0x8__rbp_(%struct.State* nocapture dereferenceable(3376), i64, %struct.Memory* readnone returned) local_unnamed_addr #2 {
block_400488:
  %PC = getelementptr inbounds %struct.State, %struct.State* %0, i64 0, i32 6, i32 33, i32 0, i32 0
  %RDI = getelementptr inbounds %struct.State, %struct.State* %0, i64 0, i32 6, i32 11, i32 0, i32 0
  %RBP = getelementptr inbounds %struct.State, %struct.State* %0, i64 0, i32 6, i32 15, i32 0, i32 0
  %3 = load i64, i64* %RBP, align 8
  %4 = add i64 %3, -8
  %5 = load i64, i64* %RDI, align 8
  %6 = load i64, i64* %PC, align 8
  %7 = add i64 %6, 4
  store i64 %7, i64* %PC, align 8
  %8 = inttoptr i64 %4 to i64*
  store i64 %5, i64* %8, align 8
  ret %struct.Memory* %2
}

; Function Attrs: norecurse nounwind
define %struct.Memory* @routine_movl__esi__MINUS0xc__rbp_(%struct.State* nocapture dereferenceable(3376), i64, %struct.Memory* readnone returned) local_unnamed_addr #2 {
block_400488:
  %PC = getelementptr inbounds %struct.State, %struct.State* %0, i64 0, i32 6, i32 33, i32 0, i32 0
  %3 = getelementptr inbounds %struct.State, %struct.State* %0, i64 0, i32 6, i32 9, i32 0
  %ESI = bitcast %union.anon* %3 to i32*
  %RBP = getelementptr inbounds %struct.State, %struct.State* %0, i64 0, i32 6, i32 15, i32 0, i32 0
  %4 = load i64, i64* %RBP, align 8
  %5 = add i64 %4, -12
  %6 = load i32, i32* %ESI, align 4
  %7 = load i64, i64* %PC, align 8
  %8 = add i64 %7, 3
  store i64 %8, i64* %PC, align 8
  %9 = inttoptr i64 %5 to i32*
  store i32 %6, i32* %9, align 4
  ret %struct.Memory* %2
}

; Function Attrs: norecurse nounwind
define %struct.Memory* @routine_movl__edx__MINUS0x10__rbp_(%struct.State* nocapture dereferenceable(3376), i64, %struct.Memory* readnone returned) local_unnamed_addr #2 {
block_400488:
  %PC = getelementptr inbounds %struct.State, %struct.State* %0, i64 0, i32 6, i32 33, i32 0, i32 0
  %3 = getelementptr inbounds %struct.State, %struct.State* %0, i64 0, i32 6, i32 7, i32 0
  %EDX = bitcast %union.anon* %3 to i32*
  %RBP = getelementptr inbounds %struct.State, %struct.State* %0, i64 0, i32 6, i32 15, i32 0, i32 0
  %4 = load i64, i64* %RBP, align 8
  %5 = add i64 %4, -16
  %6 = load i32, i32* %EDX, align 4
  %7 = load i64, i64* %PC, align 8
  %8 = add i64 %7, 3
  store i64 %8, i64* %PC, align 8
  %9 = inttoptr i64 %5 to i32*
  store i32 %6, i32* %9, align 4
  ret %struct.Memory* %2
}

; Function Attrs: norecurse nounwind
define %struct.Memory* @routine_movl__ecx__MINUS0x14__rbp_(%struct.State* nocapture dereferenceable(3376), i64, %struct.Memory* readnone returned) local_unnamed_addr #2 {
block_400488:
  %PC = getelementptr inbounds %struct.State, %struct.State* %0, i64 0, i32 6, i32 33, i32 0, i32 0
  %3 = getelementptr inbounds %struct.State, %struct.State* %0, i64 0, i32 6, i32 5, i32 0
  %ECX = bitcast %union.anon* %3 to i32*
  %RBP = getelementptr inbounds %struct.State, %struct.State* %0, i64 0, i32 6, i32 15, i32 0, i32 0
  %4 = load i64, i64* %RBP, align 8
  %5 = add i64 %4, -20
  %6 = load i32, i32* %ECX, align 4
  %7 = load i64, i64* %PC, align 8
  %8 = add i64 %7, 3
  store i64 %8, i64* %PC, align 8
  %9 = inttoptr i64 %5 to i32*
  store i32 %6, i32* %9, align 4
  ret %struct.Memory* %2
}

; Function Attrs: norecurse nounwind
define %struct.Memory* @routine_movl__r8d__MINUS0x18__rbp_(%struct.State* nocapture dereferenceable(3376), i64, %struct.Memory* readnone returned) local_unnamed_addr #2 {
block_400488:
  %PC = getelementptr inbounds %struct.State, %struct.State* %0, i64 0, i32 6, i32 33, i32 0, i32 0
  %3 = getelementptr inbounds %struct.State, %struct.State* %0, i64 0, i32 6, i32 17, i32 0
  %R8D = bitcast %union.anon* %3 to i32*
  %RBP = getelementptr inbounds %struct.State, %struct.State* %0, i64 0, i32 6, i32 15, i32 0, i32 0
  %4 = load i64, i64* %RBP, align 8
  %5 = add i64 %4, -24
  %6 = load i32, i32* %R8D, align 4
  %7 = load i64, i64* %PC, align 8
  %8 = add i64 %7, 4
  store i64 %8, i64* %PC, align 8
  %9 = inttoptr i64 %5 to i32*
  store i32 %6, i32* %9, align 4
  ret %struct.Memory* %2
}

; Function Attrs: norecurse nounwind
define %struct.Memory* @routine_movl__r9d__MINUS0x1c__rbp_(%struct.State* nocapture dereferenceable(3376), i64, %struct.Memory* readnone returned) local_unnamed_addr #2 {
block_400488:
  %PC = getelementptr inbounds %struct.State, %struct.State* %0, i64 0, i32 6, i32 33, i32 0, i32 0
  %3 = getelementptr inbounds %struct.State, %struct.State* %0, i64 0, i32 6, i32 19, i32 0
  %R9D = bitcast %union.anon* %3 to i32*
  %RBP = getelementptr inbounds %struct.State, %struct.State* %0, i64 0, i32 6, i32 15, i32 0, i32 0
  %4 = load i64, i64* %RBP, align 8
  %5 = add i64 %4, -28
  %6 = load i32, i32* %R9D, align 4
  %7 = load i64, i64* %PC, align 8
  %8 = add i64 %7, 4
  store i64 %8, i64* %PC, align 8
  %9 = inttoptr i64 %5 to i32*
  store i32 %6, i32* %9, align 4
  ret %struct.Memory* %2
}

; Function Attrs: norecurse nounwind
define %struct.Memory* @routine_movq__rax__MINUS0x28__rbp_(%struct.State* nocapture dereferenceable(3376), i64, %struct.Memory* readnone returned) local_unnamed_addr #2 {
block_400488:
  %PC = getelementptr inbounds %struct.State, %struct.State* %0, i64 0, i32 6, i32 33, i32 0, i32 0
  %RAX = getelementptr inbounds %struct.State, %struct.State* %0, i64 0, i32 6, i32 1, i32 0, i32 0
  %RBP = getelementptr inbounds %struct.State, %struct.State* %0, i64 0, i32 6, i32 15, i32 0, i32 0
  %3 = load i64, i64* %RBP, align 8
  %4 = add i64 %3, -40
  %5 = load i64, i64* %RAX, align 8
  %6 = load i64, i64* %PC, align 8
  %7 = add i64 %6, 4
  store i64 %7, i64* %PC, align 8
  %8 = inttoptr i64 %4 to i64*
  store i64 %5, i64* %8, align 8
  ret %struct.Memory* %2
}

; Function Attrs: norecurse nounwind
define %struct.Memory* @routine_callq_._Z11start_timerv(%struct.State* nocapture dereferenceable(3376), i64, %struct.Memory* readnone returned, i64 %rel_off1, i64 %rel_off2, i64 %rel_off3) local_unnamed_addr #2 {
block_400488:
  %PC = getelementptr inbounds %struct.State, %struct.State* %0, i64 0, i32 6, i32 33, i32 0, i32 0
  %3 = load i64, i64* %PC, align 8
  %4 = add i64 %3, %rel_off1
  %5 = add i64 %3, %rel_off2
  %6 = getelementptr inbounds %struct.State, %struct.State* %0, i64 0, i32 6, i32 13, i32 0, i32 0
  %7 = load i64, i64* %6, align 8
  %8 = add i64 %7, -8
  %9 = inttoptr i64 %8 to i64*
  store i64 %5, i64* %9, align 8
  store i64 %8, i64* %6, align 8
  store i64 %4, i64* %PC, align 8
  ret %struct.Memory* %2
}

; Function Attrs: norecurse nounwind
define %struct.Memory* @routine_movl__0x0__MINUS0x2c__rbp_(%struct.State* nocapture dereferenceable(3376), i64, %struct.Memory* readnone returned) local_unnamed_addr #2 {
block_400488:
  %PC = getelementptr inbounds %struct.State, %struct.State* %0, i64 0, i32 6, i32 33, i32 0, i32 0
  %RBP = getelementptr inbounds %struct.State, %struct.State* %0, i64 0, i32 6, i32 15, i32 0, i32 0
  %3 = load i64, i64* %RBP, align 8
  %4 = add i64 %3, -44
  %5 = load i64, i64* %PC, align 8
  %6 = add i64 %5, 7
  store i64 %6, i64* %PC, align 8
  %7 = inttoptr i64 %4 to i32*
  store i32 0, i32* %7, align 4
  ret %struct.Memory* %2
}

; Function Attrs: norecurse nounwind
define %struct.Memory* @routine_movl_MINUS0x2c__rbp____eax(%struct.State* nocapture dereferenceable(3376), i64, %struct.Memory* readnone returned) local_unnamed_addr #2 {
block_400488:
  %PC = getelementptr inbounds %struct.State, %struct.State* %0, i64 0, i32 6, i32 33, i32 0, i32 0
  %RAX = getelementptr inbounds %struct.State, %struct.State* %0, i64 0, i32 6, i32 1, i32 0, i32 0
  %RBP = getelementptr inbounds %struct.State, %struct.State* %0, i64 0, i32 6, i32 15, i32 0, i32 0
  %3 = load i64, i64* %RBP, align 8
  %4 = add i64 %3, -44
  %5 = load i64, i64* %PC, align 8
  %6 = add i64 %5, 3
  store i64 %6, i64* %PC, align 8
  %7 = inttoptr i64 %4 to i32*
  %8 = load i32, i32* %7, align 4
  %9 = zext i32 %8 to i64
  store i64 %9, i64* %RAX, align 8
  ret %struct.Memory* %2
}

; Function Attrs: nounwind
define %struct.Memory* @routine_cmpl_0x61a080___eax(%struct.State* nocapture dereferenceable(3376), i64, %struct.Memory* readnone returned) local_unnamed_addr #3 {
block_400488:
  %PC = getelementptr inbounds %struct.State, %struct.State* %0, i64 0, i32 6, i32 33, i32 0, i32 0
  %3 = getelementptr inbounds %struct.State, %struct.State* %0, i64 0, i32 6, i32 1, i32 0
  %EAX = bitcast %union.anon* %3 to i32*
  %4 = load i32, i32* %EAX, align 4
  %5 = load i64, i64* %PC, align 8
  %6 = add i64 %5, 7
  store i64 %6, i64* %PC, align 8
  %7 = load i32, i32* inttoptr (i64 6398080 to i32*), align 128
  %8 = sub i32 %4, %7
  %9 = icmp ult i32 %4, %7
  %10 = zext i1 %9 to i8
  %11 = getelementptr inbounds %struct.State, %struct.State* %0, i64 0, i32 2, i32 1
  store i8 %10, i8* %11, align 1
  %12 = and i32 %8, 255
  %13 = tail call i32 @llvm.ctpop.i32(i32 %12)
  %14 = trunc i32 %13 to i8
  %15 = and i8 %14, 1
  %16 = xor i8 %15, 1
  %17 = getelementptr inbounds %struct.State, %struct.State* %0, i64 0, i32 2, i32 3
  store i8 %16, i8* %17, align 1
  %18 = xor i32 %7, %4
  %19 = xor i32 %18, %8
  %20 = lshr i32 %19, 4
  %21 = trunc i32 %20 to i8
  %22 = and i8 %21, 1
  %23 = getelementptr inbounds %struct.State, %struct.State* %0, i64 0, i32 2, i32 5
  store i8 %22, i8* %23, align 1
  %24 = icmp eq i32 %8, 0
  %25 = zext i1 %24 to i8
  %26 = getelementptr inbounds %struct.State, %struct.State* %0, i64 0, i32 2, i32 7
  store i8 %25, i8* %26, align 1
  %27 = lshr i32 %8, 31
  %28 = trunc i32 %27 to i8
  %29 = getelementptr inbounds %struct.State, %struct.State* %0, i64 0, i32 2, i32 9
  store i8 %28, i8* %29, align 1
  %30 = lshr i32 %4, 31
  %31 = lshr i32 %7, 31
  %32 = xor i32 %31, %30
  %33 = xor i32 %27, %30
  %34 = add nuw nsw i32 %33, %32
  %35 = icmp eq i32 %34, 2
  %36 = zext i1 %35 to i8
  %37 = getelementptr inbounds %struct.State, %struct.State* %0, i64 0, i32 2, i32 13
  store i8 %36, i8* %37, align 1
  ret %struct.Memory* %2
}

; Function Attrs: norecurse nounwind
define %struct.Memory* @routine_jge_.L_407acf(%struct.State* nocapture dereferenceable(3376), i64, %struct.Memory* readnone returned, i8* nocapture %BRANCH_TAKEN, i64 %rel_off1, i64 %rel_off2, i64 %rel_off3) local_unnamed_addr #2 {
block_400488:
  %PC = getelementptr inbounds %struct.State, %struct.State* %0, i64 0, i32 6, i32 33, i32 0, i32 0
  %3 = load i64, i64* %PC, align 8
  %4 = getelementptr inbounds %struct.State, %struct.State* %0, i64 0, i32 2, i32 9
  %5 = load i8, i8* %4, align 1
  %6 = icmp ne i8 %5, 0
  %7 = getelementptr inbounds %struct.State, %struct.State* %0, i64 0, i32 2, i32 13
  %8 = load i8, i8* %7, align 1
  %9 = icmp ne i8 %8, 0
  %10 = xor i1 %6, %9
  %11 = xor i1 %10, true
  %12 = zext i1 %11 to i8
  store i8 %12, i8* %BRANCH_TAKEN, align 1
  %.v = select i1 %10, i64 %rel_off2, i64 %rel_off1
  %13 = add i64 %.v, %3
  store i64 %13, i64* %PC, align 8
  ret %struct.Memory* %2
}

; Function Attrs: norecurse nounwind
define %struct.Memory* @routine_movl__0x0__MINUS0x30__rbp_(%struct.State* nocapture dereferenceable(3376), i64, %struct.Memory* readnone returned) local_unnamed_addr #2 {
block_400488:
  %PC = getelementptr inbounds %struct.State, %struct.State* %0, i64 0, i32 6, i32 33, i32 0, i32 0
  %RBP = getelementptr inbounds %struct.State, %struct.State* %0, i64 0, i32 6, i32 15, i32 0, i32 0
  %3 = load i64, i64* %RBP, align 8
  %4 = add i64 %3, -48
  %5 = load i64, i64* %PC, align 8
  %6 = add i64 %5, 7
  store i64 %6, i64* %PC, align 8
  %7 = inttoptr i64 %4 to i32*
  store i32 0, i32* %7, align 4
  ret %struct.Memory* %2
}

; Function Attrs: norecurse nounwind
define %struct.Memory* @routine_movl__0x0__MINUS0x34__rbp_(%struct.State* nocapture dereferenceable(3376), i64, %struct.Memory* readnone returned) local_unnamed_addr #2 {
block_400488:
  %PC = getelementptr inbounds %struct.State, %struct.State* %0, i64 0, i32 6, i32 33, i32 0, i32 0
  %RBP = getelementptr inbounds %struct.State, %struct.State* %0, i64 0, i32 6, i32 15, i32 0, i32 0
  %3 = load i64, i64* %RBP, align 8
  %4 = add i64 %3, -52
  %5 = load i64, i64* %PC, align 8
  %6 = add i64 %5, 7
  store i64 %6, i64* %PC, align 8
  %7 = inttoptr i64 %4 to i32*
  store i32 0, i32* %7, align 4
  ret %struct.Memory* %2
}

; Function Attrs: norecurse nounwind
define %struct.Memory* @routine_movl_MINUS0x34__rbp____eax(%struct.State* nocapture dereferenceable(3376), i64, %struct.Memory* readnone returned) local_unnamed_addr #2 {
block_400488:
  %PC = getelementptr inbounds %struct.State, %struct.State* %0, i64 0, i32 6, i32 33, i32 0, i32 0
  %RAX = getelementptr inbounds %struct.State, %struct.State* %0, i64 0, i32 6, i32 1, i32 0, i32 0
  %RBP = getelementptr inbounds %struct.State, %struct.State* %0, i64 0, i32 6, i32 15, i32 0, i32 0
  %3 = load i64, i64* %RBP, align 8
  %4 = add i64 %3, -52
  %5 = load i64, i64* %PC, align 8
  %6 = add i64 %5, 3
  store i64 %6, i64* %PC, align 8
  %7 = inttoptr i64 %4 to i32*
  %8 = load i32, i32* %7, align 4
  %9 = zext i32 %8 to i64
  store i64 %9, i64* %RAX, align 8
  ret %struct.Memory* %2
}

; Function Attrs: nounwind
define %struct.Memory* @routine_cmpl_MINUS0xc__rbp____eax(%struct.State* nocapture dereferenceable(3376), i64, %struct.Memory* readnone returned) local_unnamed_addr #3 {
block_400488:
  %PC = getelementptr inbounds %struct.State, %struct.State* %0, i64 0, i32 6, i32 33, i32 0, i32 0
  %3 = getelementptr inbounds %struct.State, %struct.State* %0, i64 0, i32 6, i32 1, i32 0
  %EAX = bitcast %union.anon* %3 to i32*
  %RBP = getelementptr inbounds %struct.State, %struct.State* %0, i64 0, i32 6, i32 15, i32 0, i32 0
  %4 = load i32, i32* %EAX, align 4
  %5 = load i64, i64* %RBP, align 8
  %6 = add i64 %5, -12
  %7 = load i64, i64* %PC, align 8
  %8 = add i64 %7, 3
  store i64 %8, i64* %PC, align 8
  %9 = inttoptr i64 %6 to i32*
  %10 = load i32, i32* %9, align 4
  %11 = sub i32 %4, %10
  %12 = icmp ult i32 %4, %10
  %13 = zext i1 %12 to i8
  %14 = getelementptr inbounds %struct.State, %struct.State* %0, i64 0, i32 2, i32 1
  store i8 %13, i8* %14, align 1
  %15 = and i32 %11, 255
  %16 = tail call i32 @llvm.ctpop.i32(i32 %15)
  %17 = trunc i32 %16 to i8
  %18 = and i8 %17, 1
  %19 = xor i8 %18, 1
  %20 = getelementptr inbounds %struct.State, %struct.State* %0, i64 0, i32 2, i32 3
  store i8 %19, i8* %20, align 1
  %21 = xor i32 %10, %4
  %22 = xor i32 %21, %11
  %23 = lshr i32 %22, 4
  %24 = trunc i32 %23 to i8
  %25 = and i8 %24, 1
  %26 = getelementptr inbounds %struct.State, %struct.State* %0, i64 0, i32 2, i32 5
  store i8 %25, i8* %26, align 1
  %27 = icmp eq i32 %11, 0
  %28 = zext i1 %27 to i8
  %29 = getelementptr inbounds %struct.State, %struct.State* %0, i64 0, i32 2, i32 7
  store i8 %28, i8* %29, align 1
  %30 = lshr i32 %11, 31
  %31 = trunc i32 %30 to i8
  %32 = getelementptr inbounds %struct.State, %struct.State* %0, i64 0, i32 2, i32 9
  store i8 %31, i8* %32, align 1
  %33 = lshr i32 %4, 31
  %34 = lshr i32 %10, 31
  %35 = xor i32 %34, %33
  %36 = xor i32 %30, %33
  %37 = add nuw nsw i32 %36, %35
  %38 = icmp eq i32 %37, 2
  %39 = zext i1 %38 to i8
  %40 = getelementptr inbounds %struct.State, %struct.State* %0, i64 0, i32 2, i32 13
  store i8 %39, i8* %40, align 1
  ret %struct.Memory* %2
}

; Function Attrs: norecurse nounwind
define %struct.Memory* @routine_jge_.L_407aac(%struct.State* nocapture dereferenceable(3376), i64, %struct.Memory* readnone returned, i8* nocapture %BRANCH_TAKEN, i64 %rel_off1, i64 %rel_off2, i64 %rel_off3) local_unnamed_addr #2 {
block_400488:
  %PC = getelementptr inbounds %struct.State, %struct.State* %0, i64 0, i32 6, i32 33, i32 0, i32 0
  %3 = load i64, i64* %PC, align 8
  %4 = getelementptr inbounds %struct.State, %struct.State* %0, i64 0, i32 2, i32 9
  %5 = load i8, i8* %4, align 1
  %6 = icmp ne i8 %5, 0
  %7 = getelementptr inbounds %struct.State, %struct.State* %0, i64 0, i32 2, i32 13
  %8 = load i8, i8* %7, align 1
  %9 = icmp ne i8 %8, 0
  %10 = xor i1 %6, %9
  %11 = xor i1 %10, true
  %12 = zext i1 %11 to i8
  store i8 %12, i8* %BRANCH_TAKEN, align 1
  %.v = select i1 %10, i64 %rel_off2, i64 %rel_off1
  %13 = add i64 %.v, %3
  store i64 %13, i64* %PC, align 8
  ret %struct.Memory* %2
}

; Function Attrs: norecurse nounwind
define %struct.Memory* @routine_movq_MINUS0x8__rbp____rax(%struct.State* nocapture dereferenceable(3376), i64, %struct.Memory* readnone returned) local_unnamed_addr #2 {
block_400488:
  %PC = getelementptr inbounds %struct.State, %struct.State* %0, i64 0, i32 6, i32 33, i32 0, i32 0
  %RAX = getelementptr inbounds %struct.State, %struct.State* %0, i64 0, i32 6, i32 1, i32 0, i32 0
  %RBP = getelementptr inbounds %struct.State, %struct.State* %0, i64 0, i32 6, i32 15, i32 0, i32 0
  %3 = load i64, i64* %RBP, align 8
  %4 = add i64 %3, -8
  %5 = load i64, i64* %PC, align 8
  %6 = add i64 %5, 4
  store i64 %6, i64* %PC, align 8
  %7 = inttoptr i64 %4 to i64*
  %8 = load i64, i64* %7, align 8
  store i64 %8, i64* %RAX, align 8
  ret %struct.Memory* %2
}

; Function Attrs: norecurse nounwind
define %struct.Memory* @routine_movslq_MINUS0x34__rbp____rcx(%struct.State* nocapture dereferenceable(3376), i64, %struct.Memory* readnone returned) local_unnamed_addr #2 {
block_400488:
  %PC = getelementptr inbounds %struct.State, %struct.State* %0, i64 0, i32 6, i32 33, i32 0, i32 0
  %RCX = getelementptr inbounds %struct.State, %struct.State* %0, i64 0, i32 6, i32 5, i32 0, i32 0
  %RBP = getelementptr inbounds %struct.State, %struct.State* %0, i64 0, i32 6, i32 15, i32 0, i32 0
  %3 = load i64, i64* %RBP, align 8
  %4 = add i64 %3, -52
  %5 = load i64, i64* %PC, align 8
  %6 = add i64 %5, 4
  store i64 %6, i64* %PC, align 8
  %7 = inttoptr i64 %4 to i32*
  %8 = load i32, i32* %7, align 4
  %9 = sext i32 %8 to i64
  store i64 %9, i64* %RCX, align 8
  ret %struct.Memory* %2
}

; Function Attrs: norecurse nounwind
define %struct.Memory* @routine_movl___rax__rcx_4____edi(%struct.State* nocapture dereferenceable(3376), i64, %struct.Memory* readnone returned) local_unnamed_addr #2 {
block_400488:
  %PC = getelementptr inbounds %struct.State, %struct.State* %0, i64 0, i32 6, i32 33, i32 0, i32 0
  %RAX = getelementptr inbounds %struct.State, %struct.State* %0, i64 0, i32 6, i32 1, i32 0, i32 0
  %RCX = getelementptr inbounds %struct.State, %struct.State* %0, i64 0, i32 6, i32 5, i32 0, i32 0
  %RDI = getelementptr inbounds %struct.State, %struct.State* %0, i64 0, i32 6, i32 11, i32 0, i32 0
  %3 = load i64, i64* %RAX, align 8
  %4 = load i64, i64* %RCX, align 8
  %5 = shl i64 %4, 2
  %6 = add i64 %5, %3
  %7 = load i64, i64* %PC, align 8
  %8 = add i64 %7, 3
  store i64 %8, i64* %PC, align 8
  %9 = inttoptr i64 %6 to i32*
  %10 = load i32, i32* %9, align 4
  %11 = zext i32 %10 to i64
  store i64 %11, i64* %RDI, align 8
  ret %struct.Memory* %2
}

; Function Attrs: norecurse nounwind
define %struct.Memory* @routine_movl_MINUS0x10__rbp____esi(%struct.State* nocapture dereferenceable(3376), i64, %struct.Memory* readnone returned) local_unnamed_addr #2 {
block_400488:
  %PC = getelementptr inbounds %struct.State, %struct.State* %0, i64 0, i32 6, i32 33, i32 0, i32 0
  %RSI = getelementptr inbounds %struct.State, %struct.State* %0, i64 0, i32 6, i32 9, i32 0, i32 0
  %RBP = getelementptr inbounds %struct.State, %struct.State* %0, i64 0, i32 6, i32 15, i32 0, i32 0
  %3 = load i64, i64* %RBP, align 8
  %4 = add i64 %3, -16
  %5 = load i64, i64* %PC, align 8
  %6 = add i64 %5, 3
  store i64 %6, i64* %PC, align 8
  %7 = inttoptr i64 %4 to i32*
  %8 = load i32, i32* %7, align 4
  %9 = zext i32 %8 to i64
  store i64 %9, i64* %RSI, align 8
  ret %struct.Memory* %2
}

; Function Attrs: norecurse nounwind
define %struct.Memory* @routine_movl_MINUS0x14__rbp____edx(%struct.State* nocapture dereferenceable(3376), i64, %struct.Memory* readnone returned) local_unnamed_addr #2 {
block_400488:
  %PC = getelementptr inbounds %struct.State, %struct.State* %0, i64 0, i32 6, i32 33, i32 0, i32 0
  %RDX = getelementptr inbounds %struct.State, %struct.State* %0, i64 0, i32 6, i32 7, i32 0, i32 0
  %RBP = getelementptr inbounds %struct.State, %struct.State* %0, i64 0, i32 6, i32 15, i32 0, i32 0
  %3 = load i64, i64* %RBP, align 8
  %4 = add i64 %3, -20
  %5 = load i64, i64* %PC, align 8
  %6 = add i64 %5, 3
  store i64 %6, i64* %PC, align 8
  %7 = inttoptr i64 %4 to i32*
  %8 = load i32, i32* %7, align 4
  %9 = zext i32 %8 to i64
  store i64 %9, i64* %RDX, align 8
  ret %struct.Memory* %2
}

; Function Attrs: norecurse nounwind
define %struct.Memory* @routine_movl_MINUS0x18__rbp____ecx(%struct.State* nocapture dereferenceable(3376), i64, %struct.Memory* readnone returned) local_unnamed_addr #2 {
block_400488:
  %PC = getelementptr inbounds %struct.State, %struct.State* %0, i64 0, i32 6, i32 33, i32 0, i32 0
  %RCX = getelementptr inbounds %struct.State, %struct.State* %0, i64 0, i32 6, i32 5, i32 0, i32 0
  %RBP = getelementptr inbounds %struct.State, %struct.State* %0, i64 0, i32 6, i32 15, i32 0, i32 0
  %3 = load i64, i64* %RBP, align 8
  %4 = add i64 %3, -24
  %5 = load i64, i64* %PC, align 8
  %6 = add i64 %5, 3
  store i64 %6, i64* %PC, align 8
  %7 = inttoptr i64 %4 to i32*
  %8 = load i32, i32* %7, align 4
  %9 = zext i32 %8 to i64
  store i64 %9, i64* %RCX, align 8
  ret %struct.Memory* %2
}

; Function Attrs: norecurse nounwind
define %struct.Memory* @routine_movl_MINUS0x1c__rbp____r8d(%struct.State* nocapture dereferenceable(3376), i64, %struct.Memory* readnone returned) local_unnamed_addr #2 {
block_400488:
  %PC = getelementptr inbounds %struct.State, %struct.State* %0, i64 0, i32 6, i32 33, i32 0, i32 0
  %RBP = getelementptr inbounds %struct.State, %struct.State* %0, i64 0, i32 6, i32 15, i32 0, i32 0
  %3 = getelementptr inbounds %struct.State, %struct.State* %0, i64 0, i32 6, i32 17, i32 0, i32 0
  %4 = load i64, i64* %RBP, align 8
  %5 = add i64 %4, -28
  %6 = load i64, i64* %PC, align 8
  %7 = add i64 %6, 4
  store i64 %7, i64* %PC, align 8
  %8 = inttoptr i64 %5 to i32*
  %9 = load i32, i32* %8, align 4
  %10 = zext i32 %9 to i64
  store i64 %10, i64* %3, align 8
  ret %struct.Memory* %2
}

; Function Attrs: norecurse nounwind
define %struct.Memory* @routine_callq_._ZN34custom_multiply_multiple_variable2IiE8do_shiftEiiiii(%struct.State* nocapture dereferenceable(3376), i64, %struct.Memory* readnone returned, i64 %rel_off1, i64 %rel_off2, i64 %rel_off3) local_unnamed_addr #2 {
block_400488:
  %PC = getelementptr inbounds %struct.State, %struct.State* %0, i64 0, i32 6, i32 33, i32 0, i32 0
  %3 = load i64, i64* %PC, align 8
  %4 = add i64 %3, %rel_off1
  %5 = add i64 %3, %rel_off2
  %6 = getelementptr inbounds %struct.State, %struct.State* %0, i64 0, i32 6, i32 13, i32 0, i32 0
  %7 = load i64, i64* %6, align 8
  %8 = add i64 %7, -8
  %9 = inttoptr i64 %8 to i64*
  store i64 %5, i64* %9, align 8
  store i64 %8, i64* %6, align 8
  store i64 %4, i64* %PC, align 8
  ret %struct.Memory* %2
}

; Function Attrs: nounwind
define %struct.Memory* @routine_addl_MINUS0x30__rbp____eax(%struct.State* nocapture dereferenceable(3376), i64, %struct.Memory* readnone returned) local_unnamed_addr #3 {
block_400488:
  %PC = getelementptr inbounds %struct.State, %struct.State* %0, i64 0, i32 6, i32 33, i32 0, i32 0
  %RAX = getelementptr inbounds %struct.State, %struct.State* %0, i64 0, i32 6, i32 1, i32 0, i32 0
  %RBP = getelementptr inbounds %struct.State, %struct.State* %0, i64 0, i32 6, i32 15, i32 0, i32 0
  %3 = load i64, i64* %RAX, align 8
  %4 = load i64, i64* %RBP, align 8
  %5 = add i64 %4, -48
  %6 = load i64, i64* %PC, align 8
  %7 = add i64 %6, 3
  store i64 %7, i64* %PC, align 8
  %8 = trunc i64 %3 to i32
  %9 = inttoptr i64 %5 to i32*
  %10 = load i32, i32* %9, align 4
  %11 = add i32 %10, %8
  %12 = zext i32 %11 to i64
  store i64 %12, i64* %RAX, align 8
  %13 = icmp ult i32 %11, %8
  %14 = icmp ult i32 %11, %10
  %15 = or i1 %13, %14
  %16 = zext i1 %15 to i8
  %17 = getelementptr inbounds %struct.State, %struct.State* %0, i64 0, i32 2, i32 1
  store i8 %16, i8* %17, align 1
  %18 = and i32 %11, 255
  %19 = tail call i32 @llvm.ctpop.i32(i32 %18)
  %20 = trunc i32 %19 to i8
  %21 = and i8 %20, 1
  %22 = xor i8 %21, 1
  %23 = getelementptr inbounds %struct.State, %struct.State* %0, i64 0, i32 2, i32 3
  store i8 %22, i8* %23, align 1
  %24 = xor i32 %10, %8
  %25 = xor i32 %24, %11
  %26 = lshr i32 %25, 4
  %27 = trunc i32 %26 to i8
  %28 = and i8 %27, 1
  %29 = getelementptr inbounds %struct.State, %struct.State* %0, i64 0, i32 2, i32 5
  store i8 %28, i8* %29, align 1
  %30 = icmp eq i32 %11, 0
  %31 = zext i1 %30 to i8
  %32 = getelementptr inbounds %struct.State, %struct.State* %0, i64 0, i32 2, i32 7
  store i8 %31, i8* %32, align 1
  %33 = lshr i32 %11, 31
  %34 = trunc i32 %33 to i8
  %35 = getelementptr inbounds %struct.State, %struct.State* %0, i64 0, i32 2, i32 9
  store i8 %34, i8* %35, align 1
  %36 = lshr i32 %8, 31
  %37 = lshr i32 %10, 31
  %38 = xor i32 %33, %36
  %39 = xor i32 %33, %37
  %40 = add nuw nsw i32 %38, %39
  %41 = icmp eq i32 %40, 2
  %42 = zext i1 %41 to i8
  %43 = getelementptr inbounds %struct.State, %struct.State* %0, i64 0, i32 2, i32 13
  store i8 %42, i8* %43, align 1
  ret %struct.Memory* %2
}

; Function Attrs: norecurse nounwind
define %struct.Memory* @routine_movl__eax__MINUS0x30__rbp_(%struct.State* nocapture dereferenceable(3376), i64, %struct.Memory* readnone returned) local_unnamed_addr #2 {
block_400488:
  %PC = getelementptr inbounds %struct.State, %struct.State* %0, i64 0, i32 6, i32 33, i32 0, i32 0
  %3 = getelementptr inbounds %struct.State, %struct.State* %0, i64 0, i32 6, i32 1, i32 0
  %EAX = bitcast %union.anon* %3 to i32*
  %RBP = getelementptr inbounds %struct.State, %struct.State* %0, i64 0, i32 6, i32 15, i32 0, i32 0
  %4 = load i64, i64* %RBP, align 8
  %5 = add i64 %4, -48
  %6 = load i32, i32* %EAX, align 4
  %7 = load i64, i64* %PC, align 8
  %8 = add i64 %7, 3
  store i64 %8, i64* %PC, align 8
  %9 = inttoptr i64 %5 to i32*
  store i32 %6, i32* %9, align 4
  ret %struct.Memory* %2
}

; Function Attrs: nounwind
define %struct.Memory* @routine_addl__0x1___eax(%struct.State* nocapture dereferenceable(3376), i64, %struct.Memory* readnone returned) local_unnamed_addr #3 {
block_400488:
  %PC = getelementptr inbounds %struct.State, %struct.State* %0, i64 0, i32 6, i32 33, i32 0, i32 0
  %RAX = getelementptr inbounds %struct.State, %struct.State* %0, i64 0, i32 6, i32 1, i32 0, i32 0
  %3 = load i64, i64* %RAX, align 8
  %4 = load i64, i64* %PC, align 8
  %5 = add i64 %4, 3
  store i64 %5, i64* %PC, align 8
  %6 = trunc i64 %3 to i32
  %7 = add i32 %6, 1
  %8 = zext i32 %7 to i64
  store i64 %8, i64* %RAX, align 8
  %9 = icmp eq i32 %6, -1
  %10 = icmp eq i32 %7, 0
  %11 = or i1 %9, %10
  %12 = zext i1 %11 to i8
  %13 = getelementptr inbounds %struct.State, %struct.State* %0, i64 0, i32 2, i32 1
  store i8 %12, i8* %13, align 1
  %14 = and i32 %7, 255
  %15 = tail call i32 @llvm.ctpop.i32(i32 %14)
  %16 = trunc i32 %15 to i8
  %17 = and i8 %16, 1
  %18 = xor i8 %17, 1
  %19 = getelementptr inbounds %struct.State, %struct.State* %0, i64 0, i32 2, i32 3
  store i8 %18, i8* %19, align 1
  %20 = xor i32 %7, %6
  %21 = lshr i32 %20, 4
  %22 = trunc i32 %21 to i8
  %23 = and i8 %22, 1
  %24 = getelementptr inbounds %struct.State, %struct.State* %0, i64 0, i32 2, i32 5
  store i8 %23, i8* %24, align 1
  %25 = zext i1 %10 to i8
  %26 = getelementptr inbounds %struct.State, %struct.State* %0, i64 0, i32 2, i32 7
  store i8 %25, i8* %26, align 1
  %27 = lshr i32 %7, 31
  %28 = trunc i32 %27 to i8
  %29 = getelementptr inbounds %struct.State, %struct.State* %0, i64 0, i32 2, i32 9
  store i8 %28, i8* %29, align 1
  %30 = lshr i32 %6, 31
  %31 = xor i32 %27, %30
  %32 = add nuw nsw i32 %31, %27
  %33 = icmp eq i32 %32, 2
  %34 = zext i1 %33 to i8
  %35 = getelementptr inbounds %struct.State, %struct.State* %0, i64 0, i32 2, i32 13
  store i8 %34, i8* %35, align 1
  ret %struct.Memory* %2
}

; Function Attrs: norecurse nounwind
define %struct.Memory* @routine_movl__eax__MINUS0x34__rbp_(%struct.State* nocapture dereferenceable(3376), i64, %struct.Memory* readnone returned) local_unnamed_addr #2 {
block_400488:
  %PC = getelementptr inbounds %struct.State, %struct.State* %0, i64 0, i32 6, i32 33, i32 0, i32 0
  %3 = getelementptr inbounds %struct.State, %struct.State* %0, i64 0, i32 6, i32 1, i32 0
  %EAX = bitcast %union.anon* %3 to i32*
  %RBP = getelementptr inbounds %struct.State, %struct.State* %0, i64 0, i32 6, i32 15, i32 0, i32 0
  %4 = load i64, i64* %RBP, align 8
  %5 = add i64 %4, -52
  %6 = load i32, i32* %EAX, align 4
  %7 = load i64, i64* %PC, align 8
  %8 = add i64 %7, 3
  store i64 %8, i64* %PC, align 8
  %9 = inttoptr i64 %5 to i32*
  store i32 %6, i32* %9, align 4
  ret %struct.Memory* %2
}

; Function Attrs: norecurse nounwind
define %struct.Memory* @routine_jmpq_.L_407a6f(%struct.State* nocapture dereferenceable(3376), i64, %struct.Memory* readnone returned, i64 %rel_off1, i64 %rel_off2) local_unnamed_addr #2 {
block_400488:
  %PC = getelementptr inbounds %struct.State, %struct.State* %0, i64 0, i32 6, i32 33, i32 0, i32 0
  %3 = load i64, i64* %PC, align 8
  %4 = add i64 %3, %rel_off1
  store i64 %4, i64* %PC, align 8
  ret %struct.Memory* %2
}

; Function Attrs: norecurse nounwind
define %struct.Memory* @routine_movl_MINUS0x30__rbp____edi(%struct.State* nocapture dereferenceable(3376), i64, %struct.Memory* readnone returned) local_unnamed_addr #2 {
block_400488:
  %PC = getelementptr inbounds %struct.State, %struct.State* %0, i64 0, i32 6, i32 33, i32 0, i32 0
  %RDI = getelementptr inbounds %struct.State, %struct.State* %0, i64 0, i32 6, i32 11, i32 0, i32 0
  %RBP = getelementptr inbounds %struct.State, %struct.State* %0, i64 0, i32 6, i32 15, i32 0, i32 0
  %3 = load i64, i64* %RBP, align 8
  %4 = add i64 %3, -48
  %5 = load i64, i64* %PC, align 8
  %6 = add i64 %5, 3
  store i64 %6, i64* %PC, align 8
  %7 = inttoptr i64 %4 to i32*
  %8 = load i32, i32* %7, align 4
  %9 = zext i32 %8 to i64
  store i64 %9, i64* %RDI, align 8
  ret %struct.Memory* %2
}

; Function Attrs: norecurse nounwind
define %struct.Memory* @routine_callq_._Z26check_shifted_variable_sumIi34custom_multiply_multiple_variable2IiEEvT_S2_S2_S2_S2_(%struct.State* nocapture dereferenceable(3376), i64, %struct.Memory* readnone returned, i64 %rel_off1, i64 %rel_off2, i64 %rel_off3) local_unnamed_addr #2 {
block_400488:
  %PC = getelementptr inbounds %struct.State, %struct.State* %0, i64 0, i32 6, i32 33, i32 0, i32 0
  %3 = load i64, i64* %PC, align 8
  %4 = add i64 %3, %rel_off1
  %5 = add i64 %3, %rel_off2
  %6 = getelementptr inbounds %struct.State, %struct.State* %0, i64 0, i32 6, i32 13, i32 0, i32 0
  %7 = load i64, i64* %6, align 8
  %8 = add i64 %7, -8
  %9 = inttoptr i64 %8 to i64*
  store i64 %5, i64* %9, align 8
  store i64 %8, i64* %6, align 8
  store i64 %4, i64* %PC, align 8
  ret %struct.Memory* %2
}

; Function Attrs: norecurse nounwind
define %struct.Memory* @routine_movl__eax__MINUS0x2c__rbp_(%struct.State* nocapture dereferenceable(3376), i64, %struct.Memory* readnone returned) local_unnamed_addr #2 {
block_400488:
  %PC = getelementptr inbounds %struct.State, %struct.State* %0, i64 0, i32 6, i32 33, i32 0, i32 0
  %3 = getelementptr inbounds %struct.State, %struct.State* %0, i64 0, i32 6, i32 1, i32 0
  %EAX = bitcast %union.anon* %3 to i32*
  %RBP = getelementptr inbounds %struct.State, %struct.State* %0, i64 0, i32 6, i32 15, i32 0, i32 0
  %4 = load i64, i64* %RBP, align 8
  %5 = add i64 %4, -44
  %6 = load i32, i32* %EAX, align 4
  %7 = load i64, i64* %PC, align 8
  %8 = add i64 %7, 3
  store i64 %8, i64* %PC, align 8
  %9 = inttoptr i64 %5 to i32*
  store i32 %6, i32* %9, align 4
  ret %struct.Memory* %2
}

; Function Attrs: norecurse nounwind
define %struct.Memory* @routine_jmpq_.L_407a51(%struct.State* nocapture dereferenceable(3376), i64, %struct.Memory* readnone returned, i64 %rel_off1, i64 %rel_off2) local_unnamed_addr #2 {
block_400488:
  %PC = getelementptr inbounds %struct.State, %struct.State* %0, i64 0, i32 6, i32 33, i32 0, i32 0
  %3 = load i64, i64* %PC, align 8
  %4 = add i64 %3, %rel_off1
  store i64 %4, i64* %PC, align 8
  ret %struct.Memory* %2
}

; Function Attrs: norecurse nounwind
define %struct.Memory* @routine_callq_._Z5timerv(%struct.State* nocapture dereferenceable(3376), i64, %struct.Memory* readnone returned, i64 %rel_off1, i64 %rel_off2, i64 %rel_off3) local_unnamed_addr #2 {
block_400488:
  %PC = getelementptr inbounds %struct.State, %struct.State* %0, i64 0, i32 6, i32 33, i32 0, i32 0
  %3 = load i64, i64* %PC, align 8
  %4 = add i64 %3, %rel_off1
  %5 = add i64 %3, %rel_off2
  %6 = getelementptr inbounds %struct.State, %struct.State* %0, i64 0, i32 6, i32 13, i32 0, i32 0
  %7 = load i64, i64* %6, align 8
  %8 = add i64 %7, -8
  %9 = inttoptr i64 %8 to i64*
  store i64 %5, i64* %9, align 8
  store i64 %8, i64* %6, align 8
  store i64 %4, i64* %PC, align 8
  ret %struct.Memory* %2
}

; Function Attrs: norecurse nounwind
define %struct.Memory* @routine_movq_MINUS0x28__rbp____rdi(%struct.State* nocapture dereferenceable(3376), i64, %struct.Memory* readnone returned) local_unnamed_addr #2 {
block_400488:
  %PC = getelementptr inbounds %struct.State, %struct.State* %0, i64 0, i32 6, i32 33, i32 0, i32 0
  %RDI = getelementptr inbounds %struct.State, %struct.State* %0, i64 0, i32 6, i32 11, i32 0, i32 0
  %RBP = getelementptr inbounds %struct.State, %struct.State* %0, i64 0, i32 6, i32 15, i32 0, i32 0
  %3 = load i64, i64* %RBP, align 8
  %4 = add i64 %3, -40
  %5 = load i64, i64* %PC, align 8
  %6 = add i64 %5, 4
  store i64 %6, i64* %PC, align 8
  %7 = inttoptr i64 %4 to i64*
  %8 = load i64, i64* %7, align 8
  store i64 %8, i64* %RDI, align 8
  ret %struct.Memory* %2
}

; Function Attrs: norecurse nounwind
define %struct.Memory* @routine_callq_._Z13record_resultdPKc(%struct.State* nocapture dereferenceable(3376), i64, %struct.Memory* readnone returned, i64 %rel_off1, i64 %rel_off2, i64 %rel_off3) local_unnamed_addr #2 {
block_400488:
  %PC = getelementptr inbounds %struct.State, %struct.State* %0, i64 0, i32 6, i32 33, i32 0, i32 0
  %3 = load i64, i64* %PC, align 8
  %4 = add i64 %3, %rel_off1
  %5 = add i64 %3, %rel_off2
  %6 = getelementptr inbounds %struct.State, %struct.State* %0, i64 0, i32 6, i32 13, i32 0, i32 0
  %7 = load i64, i64* %6, align 8
  %8 = add i64 %7, -8
  %9 = inttoptr i64 %8 to i64*
  store i64 %5, i64* %9, align 8
  store i64 %8, i64* %6, align 8
  store i64 %4, i64* %PC, align 8
  ret %struct.Memory* %2
}

; Function Attrs: nounwind
define %struct.Memory* @routine_addq__0x40___rsp(%struct.State* nocapture dereferenceable(3376), i64, %struct.Memory* readnone returned) local_unnamed_addr #3 {
block_400488:
  %PC = getelementptr inbounds %struct.State, %struct.State* %0, i64 0, i32 6, i32 33, i32 0, i32 0
  %RSP = getelementptr inbounds %struct.State, %struct.State* %0, i64 0, i32 6, i32 13, i32 0, i32 0
  %3 = load i64, i64* %RSP, align 8
  %4 = load i64, i64* %PC, align 8
  %5 = add i64 %4, 4
  store i64 %5, i64* %PC, align 8
  %6 = add i64 %3, 64
  store i64 %6, i64* %RSP, align 8
  %7 = icmp ugt i64 %3, -65
  %8 = zext i1 %7 to i8
  %9 = getelementptr inbounds %struct.State, %struct.State* %0, i64 0, i32 2, i32 1
  store i8 %8, i8* %9, align 1
  %10 = trunc i64 %6 to i32
  %11 = and i32 %10, 255
  %12 = tail call i32 @llvm.ctpop.i32(i32 %11)
  %13 = trunc i32 %12 to i8
  %14 = and i8 %13, 1
  %15 = xor i8 %14, 1
  %16 = getelementptr inbounds %struct.State, %struct.State* %0, i64 0, i32 2, i32 3
  store i8 %15, i8* %16, align 1
  %17 = xor i64 %6, %3
  %18 = lshr i64 %17, 4
  %19 = trunc i64 %18 to i8
  %20 = and i8 %19, 1
  %21 = getelementptr inbounds %struct.State, %struct.State* %0, i64 0, i32 2, i32 5
  store i8 %20, i8* %21, align 1
  %22 = icmp eq i64 %6, 0
  %23 = zext i1 %22 to i8
  %24 = getelementptr inbounds %struct.State, %struct.State* %0, i64 0, i32 2, i32 7
  store i8 %23, i8* %24, align 1
  %25 = lshr i64 %6, 63
  %26 = trunc i64 %25 to i8
  %27 = getelementptr inbounds %struct.State, %struct.State* %0, i64 0, i32 2, i32 9
  store i8 %26, i8* %27, align 1
  %28 = lshr i64 %3, 63
  %29 = xor i64 %25, %28
  %30 = add nuw nsw i64 %29, %25
  %31 = icmp eq i64 %30, 2
  %32 = zext i1 %31 to i8
  %33 = getelementptr inbounds %struct.State, %struct.State* %0, i64 0, i32 2, i32 13
  store i8 %32, i8* %33, align 1
  ret %struct.Memory* %2
}

; Function Attrs: norecurse nounwind
define %struct.Memory* @routine_popq__rbp(%struct.State* nocapture dereferenceable(3376), i64, %struct.Memory* readnone returned) local_unnamed_addr #2 {
block_400488:
  %PC = getelementptr inbounds %struct.State, %struct.State* %0, i64 0, i32 6, i32 33, i32 0, i32 0
  %RBP = getelementptr inbounds %struct.State, %struct.State* %0, i64 0, i32 6, i32 15, i32 0, i32 0
  %3 = load i64, i64* %PC, align 8
  %4 = add i64 %3, 1
  store i64 %4, i64* %PC, align 8
  %5 = getelementptr inbounds %struct.State, %struct.State* %0, i64 0, i32 6, i32 13, i32 0, i32 0
  %6 = load i64, i64* %5, align 8
  %7 = add i64 %6, 8
  %8 = inttoptr i64 %6 to i64*
  %9 = load i64, i64* %8, align 8
  store i64 %9, i64* %RBP, align 8
  store i64 %7, i64* %5, align 8
  ret %struct.Memory* %2
}

; Function Attrs: norecurse nounwind
define %struct.Memory* @routine_retq(%struct.State* nocapture dereferenceable(3376), i64, %struct.Memory* readnone returned) local_unnamed_addr #2 {
block_400488:
  %PC = getelementptr inbounds %struct.State, %struct.State* %0, i64 0, i32 6, i32 33, i32 0, i32 0
  %3 = load i64, i64* %PC, align 8
  %4 = add i64 %3, 1
  store i64 %4, i64* %PC, align 8
  %5 = getelementptr inbounds %struct.State, %struct.State* %0, i64 0, i32 6, i32 13, i32 0, i32 0
  %6 = load i64, i64* %5, align 8
  %7 = inttoptr i64 %6 to i64*
  %8 = load i64, i64* %7, align 8
  store i64 %8, i64* %PC, align 8
  %9 = add i64 %6, 8
  store i64 %9, i64* %5, align 8
  ret %struct.Memory* %2
}

attributes #0 = { nounwind readnone }
attributes #1 = { alwaysinline }
attributes #2 = { norecurse nounwind }
attributes #3 = { nounwind }
