; ModuleID = 'mcsema/test.proposed.ll'
source_filename = "llvm-link"
target datalayout = "e-m:e-i64:64-f80:128-n8:16:32:64-S128"
target triple = "x86_64-pc-linux-gnu-elf"

%union.anon = type { i64 }
%seg_400388__init_type = type <{ [23 x i8] }>
%seg_4003a0__text_type = type <{ [354 x i8] }>
%seg_400504__fini_type = type <{ [9 x i8] }>
%seg_400510__rodata_type = type <{ [4 x i8] }>
%seg_400514__eh_frame_hdr_type = type <{ [52 x i8] }>
%seg_400548__eh_frame_type = type <{ [208 x i8] }>
%seg_601018__data_type = type <{ [16 x i8] }>
%__bss_start_type = type <{ [8 x i8] }>
%seg_400514__fini_type = type <{ [9 x i8] }>
%seg_400520__rodata_type = type <{ [4 x i8] }>
%seg_400524__eh_frame_hdr_type = type <{ [52 x i8] }>
%seg_400558__eh_frame_type = type <{ [208 x i8] }>
%struct.State = type { %struct.ArchState, [32 x %union.VectorReg], %struct.ArithFlags, %union.anon, %struct.Segments, %struct.AddressSpace, %struct.GPR, %struct.X87Stack, %struct.MMX, %struct.FPUStatusFlags, %union.anon, %union.FPU, %struct.SegmentCaches }
%struct.ArchState = type { i32, i32, %union.anon }
%union.VectorReg = type { %union.vec512_t }
%union.vec512_t = type { %struct.uint64v8_t }
%struct.uint64v8_t = type { [8 x i64] }
%struct.ArithFlags = type { i8, i8, i8, i8, i8, i8, i8, i8, i8, i8, i8, i8, i8, i8, i8, i8 }
%struct.Segments = type { i16, %union.SegmentSelector, i16, %union.SegmentSelector, i16, %union.SegmentSelector, i16, %union.SegmentSelector, i16, %union.SegmentSelector, i16, %union.SegmentSelector }
%union.SegmentSelector = type { i16 }
%struct.AddressSpace = type { i64, %struct.Reg, i64, %struct.Reg, i64, %struct.Reg, i64, %struct.Reg, i64, %struct.Reg, i64, %struct.Reg }
%struct.Reg = type { %union.anon }
%struct.GPR = type { i64, %struct.Reg, i64, %struct.Reg, i64, %struct.Reg, i64, %struct.Reg, i64, %struct.Reg, i64, %struct.Reg, i64, %struct.Reg, i64, %struct.Reg, i64, %struct.Reg, i64, %struct.Reg, i64, %struct.Reg, i64, %struct.Reg, i64, %struct.Reg, i64, %struct.Reg, i64, %struct.Reg, i64, %struct.Reg, i64, %struct.Reg }
%struct.X87Stack = type { [8 x %struct.anon.3] }
%struct.anon.3 = type { i64, double }
%struct.MMX = type { [8 x %struct.anon.4] }
%struct.anon.4 = type { i64, %union.vec64_t }
%union.vec64_t = type { %struct.uint64v1_t }
%struct.uint64v1_t = type { [1 x i64] }
%struct.FPUStatusFlags = type { i8, i8, i8, i8, i8, i8, i8, i8, i8, i8, i8, i8, i8, i8, i8, i8, i8, i8, i8, i8, [4 x i8] }
%union.FPU = type { %struct.anon.13 }
%struct.anon.13 = type { %struct.FpuFXSAVE, [96 x i8] }
%struct.FpuFXSAVE = type { %union.SegmentSelector, %union.SegmentSelector, %union.FPUAbridgedTagWord, i8, i16, i32, %union.SegmentSelector, i16, i32, %union.SegmentSelector, i16, %union.FPUControlStatus, %union.FPUControlStatus, [8 x %struct.FPUStackElem], [16 x %union.vec128_t] }
%union.FPUAbridgedTagWord = type { i8 }
%union.FPUControlStatus = type { i32 }
%struct.FPUStackElem = type { %union.anon.11, [6 x i8] }
%union.anon.11 = type { %struct.float80_t }
%struct.float80_t = type { [10 x i8] }
%union.vec128_t = type { %struct.uint128v1_t }
%struct.uint128v1_t = type { [1 x i128] }
%struct.SegmentCaches = type { %struct.SegmentShadow, %struct.SegmentShadow, %struct.SegmentShadow, %struct.SegmentShadow, %struct.SegmentShadow, %struct.SegmentShadow }
%struct.SegmentShadow = type { %union.anon, i32, i32 }
%struct.Memory = type opaque

@switch.table = private unnamed_addr constant [4 x i32] [i32 2048, i32 3072, i32 0, i32 1024]
@DR0 = external global i64, align 8
@DR1 = external global i64, align 8
@DR2 = external global i64, align 8
@DR3 = external global i64, align 8
@DR4 = external global i64, align 8
@DR5 = external global i64, align 8
@DR6 = external global i64, align 8
@DR7 = external global i64, align 8
@gCR0 = external global %union.anon, align 1
@gCR1 = external global %union.anon, align 1
@gCR2 = external global %union.anon, align 1
@gCR3 = external global %union.anon, align 1
@gCR4 = external global %union.anon, align 1
@gCR8 = external global %union.anon, align 1
@seg_400388__init = internal constant %seg_400388__init_type <{ [23 x i8] c"H\83\EC\08H\8B\05e\0C \00H\85\C0t\02\FF\D0H\83\C4\08\C3" }>
@seg_4003a0__text = internal constant %seg_4003a0__text_type <{ [354 x i8] c"1\EDI\89\D1^H\89\E2H\83\E4\F0PTI\C7\C0\00\05@\00H\C7\C1\90\04@\00H\C7\C7\88\04@\00\FF\15&\0C \00\F4\0F\1FD\00\00\F3\C3f.\0F\1F\84\00\00\00\00\00\0F\1F@\00U\B8(\10`\00H=(\10`\00H\89\E5t\17\B8\00\00\00\00H\85\C0t\0D]\BF(\10`\00\FF\E0\0F\1FD\00\00]\C3f\0F\1FD\00\00\BE(\10`\00UH\81\EE(\10`\00H\89\E5H\C1\FE\03H\89\F0H\C1\E8?H\01\C6H\D1\FEt\15\B8\00\00\00\00H\85\C0t\0B]\BF(\10`\00\FF\E0\0F\1F\00]\C3f\0F\1FD\00\00\80=\D1\0B \00\00u\17UH\89\E5\E8~\FF\FF\FF\C6\05\BF\0B \00\01]\C3\0F\1FD\00\00\F3\C3\0F\1F@\00f.\0F\1F\84\00\00\00\00\00UH\89\E5]\EB\89\90U\C3f\0F\1FD\00\00AWAVI\89\D7AUATL\8D%\9E\09 \00UH\8D-\9E\09 \00SA\89\FDI\89\F6L)\E5H\83\EC\08H\C1\FD\03\E8\C7\FE\FF\FFH\85\EDt 1\DB\0F\1F\84\00\00\00\00\00L\89\FAL\89\F6D\89\EFA\FF\14\DCH\83\C3\01H9\DDu\EAH\83\C4\08[]A\5CA]A^A_\C3\90f.\0F\1F\84\00\00\00\00\00\F3\C3" }>
@seg_400504__fini = internal constant %seg_400504__fini_type <{ [9 x i8] c"H\83\EC\08H\83\C4\08\C3" }>
@seg_400510__rodata = internal constant %seg_400510__rodata_type <{ [4 x i8] c"\01\00\02\00" }>
@seg_400514__eh_frame_hdr = internal constant %seg_400514__eh_frame_hdr_type <{ [52 x i8] c"\01\1B\03;0\00\00\00\05\00\00\00\8C\FE\FF\FFL\00\00\00\BC\FE\FF\FFx\00\00\00t\FF\FF\FF\8C\00\00\00|\FF\FF\FF\A4\00\00\00\EC\FF\FF\FF\EC\00\00\00" }>
@seg_400548__eh_frame = internal constant %seg_400548__eh_frame_type <{ [208 x i8] c"\14\00\00\00\00\00\00\00\01zR\00\01x\10\01\1B\0C\07\08\90\01\07\10\10\00\00\00\1C\00\00\008\FE\FF\FF+\00\00\00\00\00\00\00\14\00\00\00\00\00\00\00\01zR\00\01x\10\01\1B\0C\07\08\90\01\00\00\10\00\00\00\1C\00\00\00<\FE\FF\FF\02\00\00\00\00\00\00\00\14\00\00\000\00\00\00\E0\FE\FF\FF\02\00\00\00\00\00\00\00\00\00\00\00D\00\00\00H\00\00\00\D0\FE\FF\FFe\00\00\00\00B\0E\10\8F\02B\0E\18\8E\03E\0E \8D\04B\0E(\8C\05H\0E0\86\06H\0E8\83\07M\0E@r\0E8A\0E0A\0E(B\0E B\0E\18B\0E\10B\0E\08\00\10\00\00\00\90\00\00\00\F8\FE\FF\FF\02\00\00\00\00\00\00\00\00\00\00\00" }>
@seg_601018__data = internal global %seg_601018__data_type zeroinitializer
@__bss_start = global %__bss_start_type zeroinitializer
@0 = internal global i1 false
@seg_400514__fini = internal constant %seg_400514__fini_type <{ [9 x i8] c"H\83\EC\08H\83\C4\08\C3" }>
@seg_400520__rodata = internal constant %seg_400520__rodata_type <{ [4 x i8] c"\01\00\02\00" }>
@seg_400524__eh_frame_hdr = internal constant %seg_400524__eh_frame_hdr_type <{ [52 x i8] c"\01\1B\03;0\00\00\00\05\00\00\00|\FE\FF\FFL\00\00\00\AC\FE\FF\FFx\00\00\00d\FF\FF\FF\8C\00\00\00|\FF\FF\FF\A4\00\00\00\EC\FF\FF\FF\EC\00\00\00" }>
@seg_400558__eh_frame = internal constant %seg_400558__eh_frame_type <{ [208 x i8] c"\14\00\00\00\00\00\00\00\01zR\00\01x\10\01\1B\0C\07\08\90\01\07\10\10\00\00\00\1C\00\00\00(\FE\FF\FF+\00\00\00\00\00\00\00\14\00\00\00\00\00\00\00\01zR\00\01x\10\01\1B\0C\07\08\90\01\00\00\10\00\00\00\1C\00\00\00,\FE\FF\FF\02\00\00\00\00\00\00\00\14\00\00\000\00\00\00\D0\FE\FF\FF\09\00\00\00\00\00\00\00\00\00\00\00D\00\00\00H\00\00\00\D0\FE\FF\FFe\00\00\00\00B\0E\10\8F\02B\0E\18\8E\03E\0E \8D\04B\0E(\8C\05H\0E0\86\06H\0E8\83\07M\0E@r\0E8A\0E0A\0E(B\0E B\0E\18B\0E\10B\0E\08\00\10\00\00\00\90\00\00\00\F8\FE\FF\FF\02\00\00\00\00\00\00\00\00\00\00\00" }>

; Function Attrs: nounwind readnone
declare i32 @llvm.ctpop.i32(i32) #0

declare %struct.Memory* @__remill_error(%struct.State* dereferenceable(3376), i64, %struct.Memory*)

declare %struct.Memory* @sub_400e50._Z11start_timerv(%struct.State* dereferenceable(3376), i64, %struct.Memory*)

declare %struct.Memory* @sub_40e2d0._ZN28custom_multiple_variable_andIlE8do_shiftElllll(%struct.State* dereferenceable(3376), i64, %struct.Memory*)

declare %struct.Memory* @sub_40e310._Z26check_shifted_variable_sumIl28custom_multiple_variable_andIlEEvT_S2_S2_S2_S2_(%struct.State* dereferenceable(3376), i64, %struct.Memory*)

declare %struct.Memory* @sub_400e70._Z5timerv(%struct.State* dereferenceable(3376), i64, %struct.Memory*)

declare %struct.Memory* @sub_400810._Z13record_resultdPKc(%struct.State* dereferenceable(3376), i64, %struct.Memory*)

; Function Attrs: alwaysinline
define %struct.Memory* @_Z14test_variable4Il28custom_multiple_variable_andIlEEvPT_iS2_S2_S2_S2_PKc(%struct.State* noalias, i64, %struct.Memory* noalias) #1 {
entry:
  %3 = getelementptr inbounds %struct.State, %struct.State* %0, i64 0, i32 6, i32 33, i32 0, i32 0
  store i64 %1, i64* %3, align 8
  %BRANCH_TAKEN = alloca i8, align 1
  store i8 0, i8* %BRANCH_TAKEN, align 1
  %MEMORY = alloca %struct.Memory*, align 8
  store %struct.Memory* %2, %struct.Memory** %MEMORY, align 8
  %loadMem_4099d0 = load %struct.Memory*, %struct.Memory** %MEMORY
  %4 = getelementptr inbounds %struct.State, %struct.State* %0, i32 0, i32 6
  %5 = getelementptr inbounds %struct.GPR, %struct.GPR* %4, i32 0, i32 33
  %6 = getelementptr inbounds %struct.Reg, %struct.Reg* %5, i32 0, i32 0
  %PC.i = bitcast %union.anon* %6 to i64*
  %7 = getelementptr inbounds %struct.State, %struct.State* %0, i32 0, i32 6
  %8 = getelementptr inbounds %struct.GPR, %struct.GPR* %7, i32 0, i32 15
  %9 = getelementptr inbounds %struct.Reg, %struct.Reg* %8, i32 0, i32 0
  %RBP.i = bitcast %union.anon* %9 to i64*
  %10 = load i64, i64* %RBP.i
  %11 = load i64, i64* %PC.i
  %12 = add i64 %11, 1
  store i64 %12, i64* %PC.i
  %13 = getelementptr inbounds %struct.State, %struct.State* %0, i64 0, i32 6, i32 13, i32 0, i32 0
  %14 = load i64, i64* %13, align 8
  %15 = add i64 %14, -8
  %16 = inttoptr i64 %15 to i64*
  store i64 %10, i64* %16
  store i64 %15, i64* %13, align 8
  store %struct.Memory* %loadMem_4099d0, %struct.Memory** %MEMORY
  %loadMem_4099d1 = load %struct.Memory*, %struct.Memory** %MEMORY
  %17 = getelementptr inbounds %struct.State, %struct.State* %0, i32 0, i32 6
  %18 = getelementptr inbounds %struct.GPR, %struct.GPR* %17, i32 0, i32 33
  %19 = getelementptr inbounds %struct.Reg, %struct.Reg* %18, i32 0, i32 0
  %PC.i110 = bitcast %union.anon* %19 to i64*
  %20 = getelementptr inbounds %struct.State, %struct.State* %0, i32 0, i32 6
  %21 = getelementptr inbounds %struct.GPR, %struct.GPR* %20, i32 0, i32 13
  %22 = getelementptr inbounds %struct.Reg, %struct.Reg* %21, i32 0, i32 0
  %RSP.i111 = bitcast %union.anon* %22 to i64*
  %23 = getelementptr inbounds %struct.State, %struct.State* %0, i32 0, i32 6
  %24 = getelementptr inbounds %struct.GPR, %struct.GPR* %23, i32 0, i32 15
  %25 = getelementptr inbounds %struct.Reg, %struct.Reg* %24, i32 0, i32 0
  %RBP.i112 = bitcast %union.anon* %25 to i64*
  %26 = load i64, i64* %RSP.i111
  %27 = load i64, i64* %PC.i110
  %28 = add i64 %27, 3
  store i64 %28, i64* %PC.i110
  store i64 %26, i64* %RBP.i112, align 8
  store %struct.Memory* %loadMem_4099d1, %struct.Memory** %MEMORY
  %loadMem_4099d4 = load %struct.Memory*, %struct.Memory** %MEMORY
  %29 = getelementptr inbounds %struct.State, %struct.State* %0, i32 0, i32 6
  %30 = getelementptr inbounds %struct.GPR, %struct.GPR* %29, i32 0, i32 33
  %31 = getelementptr inbounds %struct.Reg, %struct.Reg* %30, i32 0, i32 0
  %PC.i108 = bitcast %union.anon* %31 to i64*
  %32 = getelementptr inbounds %struct.State, %struct.State* %0, i32 0, i32 6
  %33 = getelementptr inbounds %struct.GPR, %struct.GPR* %32, i32 0, i32 13
  %34 = getelementptr inbounds %struct.Reg, %struct.Reg* %33, i32 0, i32 0
  %RSP.i109 = bitcast %union.anon* %34 to i64*
  %35 = load i64, i64* %RSP.i109
  %36 = load i64, i64* %PC.i108
  %37 = add i64 %36, 4
  store i64 %37, i64* %PC.i108
  %38 = sub i64 %35, 80
  store i64 %38, i64* %RSP.i109, align 8
  %39 = icmp ult i64 %35, 80
  %40 = zext i1 %39 to i8
  %41 = getelementptr inbounds %struct.State, %struct.State* %0, i64 0, i32 2, i32 1
  store i8 %40, i8* %41, align 1
  %42 = trunc i64 %38 to i32
  %43 = and i32 %42, 255
  %44 = call i32 @llvm.ctpop.i32(i32 %43)
  %45 = trunc i32 %44 to i8
  %46 = and i8 %45, 1
  %47 = xor i8 %46, 1
  %48 = getelementptr inbounds %struct.State, %struct.State* %0, i64 0, i32 2, i32 3
  store i8 %47, i8* %48, align 1
  %49 = xor i64 80, %35
  %50 = xor i64 %49, %38
  %51 = lshr i64 %50, 4
  %52 = trunc i64 %51 to i8
  %53 = and i8 %52, 1
  %54 = getelementptr inbounds %struct.State, %struct.State* %0, i64 0, i32 2, i32 5
  store i8 %53, i8* %54, align 1
  %55 = icmp eq i64 %38, 0
  %56 = zext i1 %55 to i8
  %57 = getelementptr inbounds %struct.State, %struct.State* %0, i64 0, i32 2, i32 7
  store i8 %56, i8* %57, align 1
  %58 = lshr i64 %38, 63
  %59 = trunc i64 %58 to i8
  %60 = getelementptr inbounds %struct.State, %struct.State* %0, i64 0, i32 2, i32 9
  store i8 %59, i8* %60, align 1
  %61 = lshr i64 %35, 63
  %62 = xor i64 %58, %61
  %63 = add i64 %62, %61
  %64 = icmp eq i64 %63, 2
  %65 = zext i1 %64 to i8
  %66 = getelementptr inbounds %struct.State, %struct.State* %0, i64 0, i32 2, i32 13
  store i8 %65, i8* %66, align 1
  store %struct.Memory* %loadMem_4099d4, %struct.Memory** %MEMORY
  %loadMem_4099d8 = load %struct.Memory*, %struct.Memory** %MEMORY
  %67 = getelementptr inbounds %struct.State, %struct.State* %0, i32 0, i32 6
  %68 = getelementptr inbounds %struct.GPR, %struct.GPR* %67, i32 0, i32 33
  %69 = getelementptr inbounds %struct.Reg, %struct.Reg* %68, i32 0, i32 0
  %PC.i105 = bitcast %union.anon* %69 to i64*
  %70 = getelementptr inbounds %struct.State, %struct.State* %0, i32 0, i32 6
  %71 = getelementptr inbounds %struct.GPR, %struct.GPR* %70, i32 0, i32 1
  %72 = getelementptr inbounds %struct.Reg, %struct.Reg* %71, i32 0, i32 0
  %RAX.i106 = bitcast %union.anon* %72 to i64*
  %73 = getelementptr inbounds %struct.State, %struct.State* %0, i32 0, i32 6
  %74 = getelementptr inbounds %struct.GPR, %struct.GPR* %73, i32 0, i32 15
  %75 = getelementptr inbounds %struct.Reg, %struct.Reg* %74, i32 0, i32 0
  %RBP.i107 = bitcast %union.anon* %75 to i64*
  %76 = load i64, i64* %RBP.i107
  %77 = add i64 %76, 16
  %78 = load i64, i64* %PC.i105
  %79 = add i64 %78, 4
  store i64 %79, i64* %PC.i105
  %80 = inttoptr i64 %77 to i64*
  %81 = load i64, i64* %80
  store i64 %81, i64* %RAX.i106, align 8
  store %struct.Memory* %loadMem_4099d8, %struct.Memory** %MEMORY
  %loadMem_4099dc = load %struct.Memory*, %struct.Memory** %MEMORY
  %82 = getelementptr inbounds %struct.State, %struct.State* %0, i32 0, i32 6
  %83 = getelementptr inbounds %struct.GPR, %struct.GPR* %82, i32 0, i32 33
  %84 = getelementptr inbounds %struct.Reg, %struct.Reg* %83, i32 0, i32 0
  %PC.i102 = bitcast %union.anon* %84 to i64*
  %85 = getelementptr inbounds %struct.State, %struct.State* %0, i32 0, i32 6
  %86 = getelementptr inbounds %struct.GPR, %struct.GPR* %85, i32 0, i32 11
  %87 = getelementptr inbounds %struct.Reg, %struct.Reg* %86, i32 0, i32 0
  %RDI.i103 = bitcast %union.anon* %87 to i64*
  %88 = getelementptr inbounds %struct.State, %struct.State* %0, i32 0, i32 6
  %89 = getelementptr inbounds %struct.GPR, %struct.GPR* %88, i32 0, i32 15
  %90 = getelementptr inbounds %struct.Reg, %struct.Reg* %89, i32 0, i32 0
  %RBP.i104 = bitcast %union.anon* %90 to i64*
  %91 = load i64, i64* %RBP.i104
  %92 = sub i64 %91, 8
  %93 = load i64, i64* %RDI.i103
  %94 = load i64, i64* %PC.i102
  %95 = add i64 %94, 4
  store i64 %95, i64* %PC.i102
  %96 = inttoptr i64 %92 to i64*
  store i64 %93, i64* %96
  store %struct.Memory* %loadMem_4099dc, %struct.Memory** %MEMORY
  %loadMem_4099e0 = load %struct.Memory*, %struct.Memory** %MEMORY
  %97 = getelementptr inbounds %struct.State, %struct.State* %0, i32 0, i32 6
  %98 = getelementptr inbounds %struct.GPR, %struct.GPR* %97, i32 0, i32 33
  %99 = getelementptr inbounds %struct.Reg, %struct.Reg* %98, i32 0, i32 0
  %PC.i100 = bitcast %union.anon* %99 to i64*
  %100 = getelementptr inbounds %struct.State, %struct.State* %0, i32 0, i32 6
  %101 = getelementptr inbounds %struct.GPR, %struct.GPR* %100, i32 0, i32 9
  %102 = getelementptr inbounds %struct.Reg, %struct.Reg* %101, i32 0, i32 0
  %ESI.i = bitcast %union.anon* %102 to i32*
  %103 = getelementptr inbounds %struct.State, %struct.State* %0, i32 0, i32 6
  %104 = getelementptr inbounds %struct.GPR, %struct.GPR* %103, i32 0, i32 15
  %105 = getelementptr inbounds %struct.Reg, %struct.Reg* %104, i32 0, i32 0
  %RBP.i101 = bitcast %union.anon* %105 to i64*
  %106 = load i64, i64* %RBP.i101
  %107 = sub i64 %106, 12
  %108 = load i32, i32* %ESI.i
  %109 = zext i32 %108 to i64
  %110 = load i64, i64* %PC.i100
  %111 = add i64 %110, 3
  store i64 %111, i64* %PC.i100
  %112 = inttoptr i64 %107 to i32*
  store i32 %108, i32* %112
  store %struct.Memory* %loadMem_4099e0, %struct.Memory** %MEMORY
  %loadMem_4099e3 = load %struct.Memory*, %struct.Memory** %MEMORY
  %113 = getelementptr inbounds %struct.State, %struct.State* %0, i32 0, i32 6
  %114 = getelementptr inbounds %struct.GPR, %struct.GPR* %113, i32 0, i32 33
  %115 = getelementptr inbounds %struct.Reg, %struct.Reg* %114, i32 0, i32 0
  %PC.i97 = bitcast %union.anon* %115 to i64*
  %116 = getelementptr inbounds %struct.State, %struct.State* %0, i32 0, i32 6
  %117 = getelementptr inbounds %struct.GPR, %struct.GPR* %116, i32 0, i32 7
  %118 = getelementptr inbounds %struct.Reg, %struct.Reg* %117, i32 0, i32 0
  %RDX.i98 = bitcast %union.anon* %118 to i64*
  %119 = getelementptr inbounds %struct.State, %struct.State* %0, i32 0, i32 6
  %120 = getelementptr inbounds %struct.GPR, %struct.GPR* %119, i32 0, i32 15
  %121 = getelementptr inbounds %struct.Reg, %struct.Reg* %120, i32 0, i32 0
  %RBP.i99 = bitcast %union.anon* %121 to i64*
  %122 = load i64, i64* %RBP.i99
  %123 = sub i64 %122, 24
  %124 = load i64, i64* %RDX.i98
  %125 = load i64, i64* %PC.i97
  %126 = add i64 %125, 4
  store i64 %126, i64* %PC.i97
  %127 = inttoptr i64 %123 to i64*
  store i64 %124, i64* %127
  store %struct.Memory* %loadMem_4099e3, %struct.Memory** %MEMORY
  %loadMem_4099e7 = load %struct.Memory*, %struct.Memory** %MEMORY
  %128 = getelementptr inbounds %struct.State, %struct.State* %0, i32 0, i32 6
  %129 = getelementptr inbounds %struct.GPR, %struct.GPR* %128, i32 0, i32 33
  %130 = getelementptr inbounds %struct.Reg, %struct.Reg* %129, i32 0, i32 0
  %PC.i94 = bitcast %union.anon* %130 to i64*
  %131 = getelementptr inbounds %struct.State, %struct.State* %0, i32 0, i32 6
  %132 = getelementptr inbounds %struct.GPR, %struct.GPR* %131, i32 0, i32 5
  %133 = getelementptr inbounds %struct.Reg, %struct.Reg* %132, i32 0, i32 0
  %RCX.i95 = bitcast %union.anon* %133 to i64*
  %134 = getelementptr inbounds %struct.State, %struct.State* %0, i32 0, i32 6
  %135 = getelementptr inbounds %struct.GPR, %struct.GPR* %134, i32 0, i32 15
  %136 = getelementptr inbounds %struct.Reg, %struct.Reg* %135, i32 0, i32 0
  %RBP.i96 = bitcast %union.anon* %136 to i64*
  %137 = load i64, i64* %RBP.i96
  %138 = sub i64 %137, 32
  %139 = load i64, i64* %RCX.i95
  %140 = load i64, i64* %PC.i94
  %141 = add i64 %140, 4
  store i64 %141, i64* %PC.i94
  %142 = inttoptr i64 %138 to i64*
  store i64 %139, i64* %142
  store %struct.Memory* %loadMem_4099e7, %struct.Memory** %MEMORY
  %loadMem_4099eb = load %struct.Memory*, %struct.Memory** %MEMORY
  %143 = getelementptr inbounds %struct.State, %struct.State* %0, i32 0, i32 6
  %144 = getelementptr inbounds %struct.GPR, %struct.GPR* %143, i32 0, i32 33
  %145 = getelementptr inbounds %struct.Reg, %struct.Reg* %144, i32 0, i32 0
  %PC.i91 = bitcast %union.anon* %145 to i64*
  %146 = getelementptr inbounds %struct.State, %struct.State* %0, i32 0, i32 6
  %147 = getelementptr inbounds %struct.GPR, %struct.GPR* %146, i32 0, i32 15
  %148 = getelementptr inbounds %struct.Reg, %struct.Reg* %147, i32 0, i32 0
  %RBP.i92 = bitcast %union.anon* %148 to i64*
  %149 = getelementptr inbounds %struct.State, %struct.State* %0, i32 0, i32 6
  %150 = getelementptr inbounds %struct.GPR, %struct.GPR* %149, i32 0, i32 17
  %151 = getelementptr inbounds %struct.Reg, %struct.Reg* %150, i32 0, i32 0
  %R8.i93 = bitcast %union.anon* %151 to i64*
  %152 = load i64, i64* %RBP.i92
  %153 = sub i64 %152, 40
  %154 = load i64, i64* %R8.i93
  %155 = load i64, i64* %PC.i91
  %156 = add i64 %155, 4
  store i64 %156, i64* %PC.i91
  %157 = inttoptr i64 %153 to i64*
  store i64 %154, i64* %157
  store %struct.Memory* %loadMem_4099eb, %struct.Memory** %MEMORY
  %loadMem_4099ef = load %struct.Memory*, %struct.Memory** %MEMORY
  %158 = getelementptr inbounds %struct.State, %struct.State* %0, i32 0, i32 6
  %159 = getelementptr inbounds %struct.GPR, %struct.GPR* %158, i32 0, i32 33
  %160 = getelementptr inbounds %struct.Reg, %struct.Reg* %159, i32 0, i32 0
  %PC.i89 = bitcast %union.anon* %160 to i64*
  %161 = getelementptr inbounds %struct.State, %struct.State* %0, i32 0, i32 6
  %162 = getelementptr inbounds %struct.GPR, %struct.GPR* %161, i32 0, i32 15
  %163 = getelementptr inbounds %struct.Reg, %struct.Reg* %162, i32 0, i32 0
  %RBP.i90 = bitcast %union.anon* %163 to i64*
  %164 = getelementptr inbounds %struct.State, %struct.State* %0, i32 0, i32 6
  %165 = getelementptr inbounds %struct.GPR, %struct.GPR* %164, i32 0, i32 19
  %166 = getelementptr inbounds %struct.Reg, %struct.Reg* %165, i32 0, i32 0
  %R9.i = bitcast %union.anon* %166 to i64*
  %167 = load i64, i64* %RBP.i90
  %168 = sub i64 %167, 48
  %169 = load i64, i64* %R9.i
  %170 = load i64, i64* %PC.i89
  %171 = add i64 %170, 4
  store i64 %171, i64* %PC.i89
  %172 = inttoptr i64 %168 to i64*
  store i64 %169, i64* %172
  store %struct.Memory* %loadMem_4099ef, %struct.Memory** %MEMORY
  %loadMem_4099f3 = load %struct.Memory*, %struct.Memory** %MEMORY
  %173 = getelementptr inbounds %struct.State, %struct.State* %0, i32 0, i32 6
  %174 = getelementptr inbounds %struct.GPR, %struct.GPR* %173, i32 0, i32 33
  %175 = getelementptr inbounds %struct.Reg, %struct.Reg* %174, i32 0, i32 0
  %PC.i86 = bitcast %union.anon* %175 to i64*
  %176 = getelementptr inbounds %struct.State, %struct.State* %0, i32 0, i32 6
  %177 = getelementptr inbounds %struct.GPR, %struct.GPR* %176, i32 0, i32 1
  %178 = getelementptr inbounds %struct.Reg, %struct.Reg* %177, i32 0, i32 0
  %RAX.i87 = bitcast %union.anon* %178 to i64*
  %179 = getelementptr inbounds %struct.State, %struct.State* %0, i32 0, i32 6
  %180 = getelementptr inbounds %struct.GPR, %struct.GPR* %179, i32 0, i32 15
  %181 = getelementptr inbounds %struct.Reg, %struct.Reg* %180, i32 0, i32 0
  %RBP.i88 = bitcast %union.anon* %181 to i64*
  %182 = load i64, i64* %RBP.i88
  %183 = sub i64 %182, 56
  %184 = load i64, i64* %RAX.i87
  %185 = load i64, i64* %PC.i86
  %186 = add i64 %185, 4
  store i64 %186, i64* %PC.i86
  %187 = inttoptr i64 %183 to i64*
  store i64 %184, i64* %187
  store %struct.Memory* %loadMem_4099f3, %struct.Memory** %MEMORY
  %loadMem1_4099f7 = load %struct.Memory*, %struct.Memory** %MEMORY
  %188 = getelementptr inbounds %struct.State, %struct.State* %0, i32 0, i32 6
  %189 = getelementptr inbounds %struct.GPR, %struct.GPR* %188, i32 0, i32 33
  %190 = getelementptr inbounds %struct.Reg, %struct.Reg* %189, i32 0, i32 0
  %PC.i85 = bitcast %union.anon* %190 to i64*
  %191 = load i64, i64* %PC.i85
  %192 = add i64 %191, -35751
  %193 = load i64, i64* %PC.i85
  %194 = add i64 %193, 5
  %195 = load i64, i64* %PC.i85
  %196 = add i64 %195, 5
  store i64 %196, i64* %PC.i85
  %197 = getelementptr inbounds %struct.State, %struct.State* %0, i64 0, i32 6, i32 13, i32 0, i32 0
  %198 = load i64, i64* %197, align 8
  %199 = add i64 %198, -8
  %200 = inttoptr i64 %199 to i64*
  store i64 %194, i64* %200
  store i64 %199, i64* %197, align 8
  %201 = getelementptr inbounds %struct.State, %struct.State* %0, i64 0, i32 6, i32 33, i32 0, i32 0
  store i64 %192, i64* %201, align 8
  store %struct.Memory* %loadMem1_4099f7, %struct.Memory** %MEMORY
  %loadMem2_4099f7 = load %struct.Memory*, %struct.Memory** %MEMORY
  %loadPC_4099f7 = load i64, i64* %3
  %call2_4099f7 = call %struct.Memory* @sub_400e50._Z11start_timerv(%struct.State* %0, i64 %loadPC_4099f7, %struct.Memory* %loadMem2_4099f7)
  store %struct.Memory* %call2_4099f7, %struct.Memory** %MEMORY
  %loadMem_4099fc = load %struct.Memory*, %struct.Memory** %MEMORY
  %202 = getelementptr inbounds %struct.State, %struct.State* %0, i32 0, i32 6
  %203 = getelementptr inbounds %struct.GPR, %struct.GPR* %202, i32 0, i32 33
  %204 = getelementptr inbounds %struct.Reg, %struct.Reg* %203, i32 0, i32 0
  %PC.i83 = bitcast %union.anon* %204 to i64*
  %205 = getelementptr inbounds %struct.State, %struct.State* %0, i32 0, i32 6
  %206 = getelementptr inbounds %struct.GPR, %struct.GPR* %205, i32 0, i32 15
  %207 = getelementptr inbounds %struct.Reg, %struct.Reg* %206, i32 0, i32 0
  %RBP.i84 = bitcast %union.anon* %207 to i64*
  %208 = load i64, i64* %RBP.i84
  %209 = sub i64 %208, 60
  %210 = load i64, i64* %PC.i83
  %211 = add i64 %210, 7
  store i64 %211, i64* %PC.i83
  %212 = inttoptr i64 %209 to i32*
  store i32 0, i32* %212
  store %struct.Memory* %loadMem_4099fc, %struct.Memory** %MEMORY
  br label %block_.L_409a03

block_.L_409a03:                                  ; preds = %block_.L_409a65, %entry
  %loadMem_409a03 = load %struct.Memory*, %struct.Memory** %MEMORY
  %213 = getelementptr inbounds %struct.State, %struct.State* %0, i32 0, i32 6
  %214 = getelementptr inbounds %struct.GPR, %struct.GPR* %213, i32 0, i32 33
  %215 = getelementptr inbounds %struct.Reg, %struct.Reg* %214, i32 0, i32 0
  %PC.i80 = bitcast %union.anon* %215 to i64*
  %216 = getelementptr inbounds %struct.State, %struct.State* %0, i32 0, i32 6
  %217 = getelementptr inbounds %struct.GPR, %struct.GPR* %216, i32 0, i32 1
  %218 = getelementptr inbounds %struct.Reg, %struct.Reg* %217, i32 0, i32 0
  %RAX.i81 = bitcast %union.anon* %218 to i64*
  %219 = getelementptr inbounds %struct.State, %struct.State* %0, i32 0, i32 6
  %220 = getelementptr inbounds %struct.GPR, %struct.GPR* %219, i32 0, i32 15
  %221 = getelementptr inbounds %struct.Reg, %struct.Reg* %220, i32 0, i32 0
  %RBP.i82 = bitcast %union.anon* %221 to i64*
  %222 = load i64, i64* %RBP.i82
  %223 = sub i64 %222, 60
  %224 = load i64, i64* %PC.i80
  %225 = add i64 %224, 3
  store i64 %225, i64* %PC.i80
  %226 = inttoptr i64 %223 to i32*
  %227 = load i32, i32* %226
  %228 = zext i32 %227 to i64
  store i64 %228, i64* %RAX.i81, align 8
  store %struct.Memory* %loadMem_409a03, %struct.Memory** %MEMORY
  %loadMem_409a06 = load %struct.Memory*, %struct.Memory** %MEMORY
  %229 = getelementptr inbounds %struct.State, %struct.State* %0, i32 0, i32 6
  %230 = getelementptr inbounds %struct.GPR, %struct.GPR* %229, i32 0, i32 33
  %231 = getelementptr inbounds %struct.Reg, %struct.Reg* %230, i32 0, i32 0
  %PC.i78 = bitcast %union.anon* %231 to i64*
  %232 = getelementptr inbounds %struct.State, %struct.State* %0, i32 0, i32 6
  %233 = getelementptr inbounds %struct.GPR, %struct.GPR* %232, i32 0, i32 1
  %234 = getelementptr inbounds %struct.Reg, %struct.Reg* %233, i32 0, i32 0
  %EAX.i79 = bitcast %union.anon* %234 to i32*
  %235 = load i32, i32* %EAX.i79
  %236 = zext i32 %235 to i64
  %237 = load i64, i64* %PC.i78
  %238 = add i64 %237, 7
  store i64 %238, i64* %PC.i78
  %239 = load i32, i32* inttoptr (i64 6398080 to i32*)
  %240 = sub i32 %235, %239
  %241 = icmp ult i32 %235, %239
  %242 = zext i1 %241 to i8
  %243 = getelementptr inbounds %struct.State, %struct.State* %0, i64 0, i32 2, i32 1
  store i8 %242, i8* %243, align 1
  %244 = and i32 %240, 255
  %245 = call i32 @llvm.ctpop.i32(i32 %244)
  %246 = trunc i32 %245 to i8
  %247 = and i8 %246, 1
  %248 = xor i8 %247, 1
  %249 = getelementptr inbounds %struct.State, %struct.State* %0, i64 0, i32 2, i32 3
  store i8 %248, i8* %249, align 1
  %250 = xor i32 %239, %235
  %251 = xor i32 %250, %240
  %252 = lshr i32 %251, 4
  %253 = trunc i32 %252 to i8
  %254 = and i8 %253, 1
  %255 = getelementptr inbounds %struct.State, %struct.State* %0, i64 0, i32 2, i32 5
  store i8 %254, i8* %255, align 1
  %256 = icmp eq i32 %240, 0
  %257 = zext i1 %256 to i8
  %258 = getelementptr inbounds %struct.State, %struct.State* %0, i64 0, i32 2, i32 7
  store i8 %257, i8* %258, align 1
  %259 = lshr i32 %240, 31
  %260 = trunc i32 %259 to i8
  %261 = getelementptr inbounds %struct.State, %struct.State* %0, i64 0, i32 2, i32 9
  store i8 %260, i8* %261, align 1
  %262 = lshr i32 %235, 31
  %263 = lshr i32 %239, 31
  %264 = xor i32 %263, %262
  %265 = xor i32 %259, %262
  %266 = add i32 %265, %264
  %267 = icmp eq i32 %266, 2
  %268 = zext i1 %267 to i8
  %269 = getelementptr inbounds %struct.State, %struct.State* %0, i64 0, i32 2, i32 13
  store i8 %268, i8* %269, align 1
  store %struct.Memory* %loadMem_409a06, %struct.Memory** %MEMORY
  %loadMem_409a0d = load %struct.Memory*, %struct.Memory** %MEMORY
  %270 = getelementptr inbounds %struct.State, %struct.State* %0, i32 0, i32 6
  %271 = getelementptr inbounds %struct.GPR, %struct.GPR* %270, i32 0, i32 33
  %272 = getelementptr inbounds %struct.Reg, %struct.Reg* %271, i32 0, i32 0
  %PC.i77 = bitcast %union.anon* %272 to i64*
  %273 = load i64, i64* %PC.i77
  %274 = add i64 %273, 127
  %275 = load i64, i64* %PC.i77
  %276 = add i64 %275, 6
  %277 = load i64, i64* %PC.i77
  %278 = add i64 %277, 6
  store i64 %278, i64* %PC.i77
  %279 = getelementptr inbounds %struct.State, %struct.State* %0, i64 0, i32 2, i32 9
  %280 = load i8, i8* %279, align 1
  %281 = icmp ne i8 %280, 0
  %282 = getelementptr inbounds %struct.State, %struct.State* %0, i64 0, i32 2, i32 13
  %283 = load i8, i8* %282, align 1
  %284 = icmp ne i8 %283, 0
  %285 = xor i1 %281, %284
  %286 = xor i1 %285, true
  %287 = zext i1 %286 to i8
  store i8 %287, i8* %BRANCH_TAKEN, align 1
  %288 = getelementptr inbounds %struct.State, %struct.State* %0, i64 0, i32 6, i32 33, i32 0, i32 0
  %289 = select i1 %285, i64 %276, i64 %274
  store i64 %289, i64* %288, align 8
  store %struct.Memory* %loadMem_409a0d, %struct.Memory** %MEMORY
  %loadBr_409a0d = load i8, i8* %BRANCH_TAKEN
  %cmpBr_409a0d = icmp eq i8 %loadBr_409a0d, 1
  br i1 %cmpBr_409a0d, label %block_.L_409a8c, label %block_409a13

block_409a13:                                     ; preds = %block_.L_409a03
  %loadMem_409a13 = load %struct.Memory*, %struct.Memory** %MEMORY
  %290 = getelementptr inbounds %struct.State, %struct.State* %0, i32 0, i32 6
  %291 = getelementptr inbounds %struct.GPR, %struct.GPR* %290, i32 0, i32 33
  %292 = getelementptr inbounds %struct.Reg, %struct.Reg* %291, i32 0, i32 0
  %PC.i75 = bitcast %union.anon* %292 to i64*
  %293 = getelementptr inbounds %struct.State, %struct.State* %0, i32 0, i32 6
  %294 = getelementptr inbounds %struct.GPR, %struct.GPR* %293, i32 0, i32 15
  %295 = getelementptr inbounds %struct.Reg, %struct.Reg* %294, i32 0, i32 0
  %RBP.i76 = bitcast %union.anon* %295 to i64*
  %296 = load i64, i64* %RBP.i76
  %297 = sub i64 %296, 72
  %298 = load i64, i64* %PC.i75
  %299 = add i64 %298, 8
  store i64 %299, i64* %PC.i75
  %300 = inttoptr i64 %297 to i64*
  store i64 0, i64* %300
  store %struct.Memory* %loadMem_409a13, %struct.Memory** %MEMORY
  %loadMem_409a1b = load %struct.Memory*, %struct.Memory** %MEMORY
  %301 = getelementptr inbounds %struct.State, %struct.State* %0, i32 0, i32 6
  %302 = getelementptr inbounds %struct.GPR, %struct.GPR* %301, i32 0, i32 33
  %303 = getelementptr inbounds %struct.Reg, %struct.Reg* %302, i32 0, i32 0
  %PC.i73 = bitcast %union.anon* %303 to i64*
  %304 = getelementptr inbounds %struct.State, %struct.State* %0, i32 0, i32 6
  %305 = getelementptr inbounds %struct.GPR, %struct.GPR* %304, i32 0, i32 15
  %306 = getelementptr inbounds %struct.Reg, %struct.Reg* %305, i32 0, i32 0
  %RBP.i74 = bitcast %union.anon* %306 to i64*
  %307 = load i64, i64* %RBP.i74
  %308 = sub i64 %307, 76
  %309 = load i64, i64* %PC.i73
  %310 = add i64 %309, 7
  store i64 %310, i64* %PC.i73
  %311 = inttoptr i64 %308 to i32*
  store i32 0, i32* %311
  store %struct.Memory* %loadMem_409a1b, %struct.Memory** %MEMORY
  br label %block_.L_409a22

block_.L_409a22:                                  ; preds = %block_409a2e, %block_409a13
  %loadMem_409a22 = load %struct.Memory*, %struct.Memory** %MEMORY
  %312 = getelementptr inbounds %struct.State, %struct.State* %0, i32 0, i32 6
  %313 = getelementptr inbounds %struct.GPR, %struct.GPR* %312, i32 0, i32 33
  %314 = getelementptr inbounds %struct.Reg, %struct.Reg* %313, i32 0, i32 0
  %PC.i70 = bitcast %union.anon* %314 to i64*
  %315 = getelementptr inbounds %struct.State, %struct.State* %0, i32 0, i32 6
  %316 = getelementptr inbounds %struct.GPR, %struct.GPR* %315, i32 0, i32 1
  %317 = getelementptr inbounds %struct.Reg, %struct.Reg* %316, i32 0, i32 0
  %RAX.i71 = bitcast %union.anon* %317 to i64*
  %318 = getelementptr inbounds %struct.State, %struct.State* %0, i32 0, i32 6
  %319 = getelementptr inbounds %struct.GPR, %struct.GPR* %318, i32 0, i32 15
  %320 = getelementptr inbounds %struct.Reg, %struct.Reg* %319, i32 0, i32 0
  %RBP.i72 = bitcast %union.anon* %320 to i64*
  %321 = load i64, i64* %RBP.i72
  %322 = sub i64 %321, 76
  %323 = load i64, i64* %PC.i70
  %324 = add i64 %323, 3
  store i64 %324, i64* %PC.i70
  %325 = inttoptr i64 %322 to i32*
  %326 = load i32, i32* %325
  %327 = zext i32 %326 to i64
  store i64 %327, i64* %RAX.i71, align 8
  store %struct.Memory* %loadMem_409a22, %struct.Memory** %MEMORY
  %loadMem_409a25 = load %struct.Memory*, %struct.Memory** %MEMORY
  %328 = getelementptr inbounds %struct.State, %struct.State* %0, i32 0, i32 6
  %329 = getelementptr inbounds %struct.GPR, %struct.GPR* %328, i32 0, i32 33
  %330 = getelementptr inbounds %struct.Reg, %struct.Reg* %329, i32 0, i32 0
  %PC.i67 = bitcast %union.anon* %330 to i64*
  %331 = getelementptr inbounds %struct.State, %struct.State* %0, i32 0, i32 6
  %332 = getelementptr inbounds %struct.GPR, %struct.GPR* %331, i32 0, i32 1
  %333 = getelementptr inbounds %struct.Reg, %struct.Reg* %332, i32 0, i32 0
  %EAX.i68 = bitcast %union.anon* %333 to i32*
  %334 = getelementptr inbounds %struct.State, %struct.State* %0, i32 0, i32 6
  %335 = getelementptr inbounds %struct.GPR, %struct.GPR* %334, i32 0, i32 15
  %336 = getelementptr inbounds %struct.Reg, %struct.Reg* %335, i32 0, i32 0
  %RBP.i69 = bitcast %union.anon* %336 to i64*
  %337 = load i32, i32* %EAX.i68
  %338 = zext i32 %337 to i64
  %339 = load i64, i64* %RBP.i69
  %340 = sub i64 %339, 12
  %341 = load i64, i64* %PC.i67
  %342 = add i64 %341, 3
  store i64 %342, i64* %PC.i67
  %343 = inttoptr i64 %340 to i32*
  %344 = load i32, i32* %343
  %345 = sub i32 %337, %344
  %346 = icmp ult i32 %337, %344
  %347 = zext i1 %346 to i8
  %348 = getelementptr inbounds %struct.State, %struct.State* %0, i64 0, i32 2, i32 1
  store i8 %347, i8* %348, align 1
  %349 = and i32 %345, 255
  %350 = call i32 @llvm.ctpop.i32(i32 %349)
  %351 = trunc i32 %350 to i8
  %352 = and i8 %351, 1
  %353 = xor i8 %352, 1
  %354 = getelementptr inbounds %struct.State, %struct.State* %0, i64 0, i32 2, i32 3
  store i8 %353, i8* %354, align 1
  %355 = xor i32 %344, %337
  %356 = xor i32 %355, %345
  %357 = lshr i32 %356, 4
  %358 = trunc i32 %357 to i8
  %359 = and i8 %358, 1
  %360 = getelementptr inbounds %struct.State, %struct.State* %0, i64 0, i32 2, i32 5
  store i8 %359, i8* %360, align 1
  %361 = icmp eq i32 %345, 0
  %362 = zext i1 %361 to i8
  %363 = getelementptr inbounds %struct.State, %struct.State* %0, i64 0, i32 2, i32 7
  store i8 %362, i8* %363, align 1
  %364 = lshr i32 %345, 31
  %365 = trunc i32 %364 to i8
  %366 = getelementptr inbounds %struct.State, %struct.State* %0, i64 0, i32 2, i32 9
  store i8 %365, i8* %366, align 1
  %367 = lshr i32 %337, 31
  %368 = lshr i32 %344, 31
  %369 = xor i32 %368, %367
  %370 = xor i32 %364, %367
  %371 = add i32 %370, %369
  %372 = icmp eq i32 %371, 2
  %373 = zext i1 %372 to i8
  %374 = getelementptr inbounds %struct.State, %struct.State* %0, i64 0, i32 2, i32 13
  store i8 %373, i8* %374, align 1
  store %struct.Memory* %loadMem_409a25, %struct.Memory** %MEMORY
  %loadMem_409a28 = load %struct.Memory*, %struct.Memory** %MEMORY
  %375 = getelementptr inbounds %struct.State, %struct.State* %0, i32 0, i32 6
  %376 = getelementptr inbounds %struct.GPR, %struct.GPR* %375, i32 0, i32 33
  %377 = getelementptr inbounds %struct.Reg, %struct.Reg* %376, i32 0, i32 0
  %PC.i66 = bitcast %union.anon* %377 to i64*
  %378 = load i64, i64* %PC.i66
  %379 = add i64 %378, 61
  %380 = load i64, i64* %PC.i66
  %381 = add i64 %380, 6
  %382 = load i64, i64* %PC.i66
  %383 = add i64 %382, 6
  store i64 %383, i64* %PC.i66
  %384 = getelementptr inbounds %struct.State, %struct.State* %0, i64 0, i32 2, i32 9
  %385 = load i8, i8* %384, align 1
  %386 = icmp ne i8 %385, 0
  %387 = getelementptr inbounds %struct.State, %struct.State* %0, i64 0, i32 2, i32 13
  %388 = load i8, i8* %387, align 1
  %389 = icmp ne i8 %388, 0
  %390 = xor i1 %386, %389
  %391 = xor i1 %390, true
  %392 = zext i1 %391 to i8
  store i8 %392, i8* %BRANCH_TAKEN, align 1
  %393 = getelementptr inbounds %struct.State, %struct.State* %0, i64 0, i32 6, i32 33, i32 0, i32 0
  %394 = select i1 %390, i64 %381, i64 %379
  store i64 %394, i64* %393, align 8
  store %struct.Memory* %loadMem_409a28, %struct.Memory** %MEMORY
  %loadBr_409a28 = load i8, i8* %BRANCH_TAKEN
  %cmpBr_409a28 = icmp eq i8 %loadBr_409a28, 1
  br i1 %cmpBr_409a28, label %block_.L_409a65, label %block_409a2e

block_409a2e:                                     ; preds = %block_.L_409a22
  %loadMem_409a2e = load %struct.Memory*, %struct.Memory** %MEMORY
  %395 = getelementptr inbounds %struct.State, %struct.State* %0, i32 0, i32 6
  %396 = getelementptr inbounds %struct.GPR, %struct.GPR* %395, i32 0, i32 33
  %397 = getelementptr inbounds %struct.Reg, %struct.Reg* %396, i32 0, i32 0
  %PC.i63 = bitcast %union.anon* %397 to i64*
  %398 = getelementptr inbounds %struct.State, %struct.State* %0, i32 0, i32 6
  %399 = getelementptr inbounds %struct.GPR, %struct.GPR* %398, i32 0, i32 1
  %400 = getelementptr inbounds %struct.Reg, %struct.Reg* %399, i32 0, i32 0
  %RAX.i64 = bitcast %union.anon* %400 to i64*
  %401 = getelementptr inbounds %struct.State, %struct.State* %0, i32 0, i32 6
  %402 = getelementptr inbounds %struct.GPR, %struct.GPR* %401, i32 0, i32 15
  %403 = getelementptr inbounds %struct.Reg, %struct.Reg* %402, i32 0, i32 0
  %RBP.i65 = bitcast %union.anon* %403 to i64*
  %404 = load i64, i64* %RBP.i65
  %405 = sub i64 %404, 8
  %406 = load i64, i64* %PC.i63
  %407 = add i64 %406, 4
  store i64 %407, i64* %PC.i63
  %408 = inttoptr i64 %405 to i64*
  %409 = load i64, i64* %408
  store i64 %409, i64* %RAX.i64, align 8
  store %struct.Memory* %loadMem_409a2e, %struct.Memory** %MEMORY
  %loadMem_409a32 = load %struct.Memory*, %struct.Memory** %MEMORY
  %410 = getelementptr inbounds %struct.State, %struct.State* %0, i32 0, i32 6
  %411 = getelementptr inbounds %struct.GPR, %struct.GPR* %410, i32 0, i32 33
  %412 = getelementptr inbounds %struct.Reg, %struct.Reg* %411, i32 0, i32 0
  %PC.i60 = bitcast %union.anon* %412 to i64*
  %413 = getelementptr inbounds %struct.State, %struct.State* %0, i32 0, i32 6
  %414 = getelementptr inbounds %struct.GPR, %struct.GPR* %413, i32 0, i32 5
  %415 = getelementptr inbounds %struct.Reg, %struct.Reg* %414, i32 0, i32 0
  %RCX.i61 = bitcast %union.anon* %415 to i64*
  %416 = getelementptr inbounds %struct.State, %struct.State* %0, i32 0, i32 6
  %417 = getelementptr inbounds %struct.GPR, %struct.GPR* %416, i32 0, i32 15
  %418 = getelementptr inbounds %struct.Reg, %struct.Reg* %417, i32 0, i32 0
  %RBP.i62 = bitcast %union.anon* %418 to i64*
  %419 = load i64, i64* %RBP.i62
  %420 = sub i64 %419, 76
  %421 = load i64, i64* %PC.i60
  %422 = add i64 %421, 4
  store i64 %422, i64* %PC.i60
  %423 = inttoptr i64 %420 to i32*
  %424 = load i32, i32* %423
  %425 = sext i32 %424 to i64
  store i64 %425, i64* %RCX.i61, align 8
  store %struct.Memory* %loadMem_409a32, %struct.Memory** %MEMORY
  %loadMem_409a36 = load %struct.Memory*, %struct.Memory** %MEMORY
  %426 = getelementptr inbounds %struct.State, %struct.State* %0, i32 0, i32 6
  %427 = getelementptr inbounds %struct.GPR, %struct.GPR* %426, i32 0, i32 33
  %428 = getelementptr inbounds %struct.Reg, %struct.Reg* %427, i32 0, i32 0
  %PC.i56 = bitcast %union.anon* %428 to i64*
  %429 = getelementptr inbounds %struct.State, %struct.State* %0, i32 0, i32 6
  %430 = getelementptr inbounds %struct.GPR, %struct.GPR* %429, i32 0, i32 1
  %431 = getelementptr inbounds %struct.Reg, %struct.Reg* %430, i32 0, i32 0
  %RAX.i57 = bitcast %union.anon* %431 to i64*
  %432 = getelementptr inbounds %struct.State, %struct.State* %0, i32 0, i32 6
  %433 = getelementptr inbounds %struct.GPR, %struct.GPR* %432, i32 0, i32 5
  %434 = getelementptr inbounds %struct.Reg, %struct.Reg* %433, i32 0, i32 0
  %RCX.i58 = bitcast %union.anon* %434 to i64*
  %435 = getelementptr inbounds %struct.State, %struct.State* %0, i32 0, i32 6
  %436 = getelementptr inbounds %struct.GPR, %struct.GPR* %435, i32 0, i32 11
  %437 = getelementptr inbounds %struct.Reg, %struct.Reg* %436, i32 0, i32 0
  %RDI.i59 = bitcast %union.anon* %437 to i64*
  %438 = load i64, i64* %RAX.i57
  %439 = load i64, i64* %RCX.i58
  %440 = mul i64 %439, 8
  %441 = add i64 %440, %438
  %442 = load i64, i64* %PC.i56
  %443 = add i64 %442, 4
  store i64 %443, i64* %PC.i56
  %444 = inttoptr i64 %441 to i64*
  %445 = load i64, i64* %444
  store i64 %445, i64* %RDI.i59, align 8
  store %struct.Memory* %loadMem_409a36, %struct.Memory** %MEMORY
  %loadMem_409a3a = load %struct.Memory*, %struct.Memory** %MEMORY
  %446 = getelementptr inbounds %struct.State, %struct.State* %0, i32 0, i32 6
  %447 = getelementptr inbounds %struct.GPR, %struct.GPR* %446, i32 0, i32 33
  %448 = getelementptr inbounds %struct.Reg, %struct.Reg* %447, i32 0, i32 0
  %PC.i53 = bitcast %union.anon* %448 to i64*
  %449 = getelementptr inbounds %struct.State, %struct.State* %0, i32 0, i32 6
  %450 = getelementptr inbounds %struct.GPR, %struct.GPR* %449, i32 0, i32 9
  %451 = getelementptr inbounds %struct.Reg, %struct.Reg* %450, i32 0, i32 0
  %RSI.i54 = bitcast %union.anon* %451 to i64*
  %452 = getelementptr inbounds %struct.State, %struct.State* %0, i32 0, i32 6
  %453 = getelementptr inbounds %struct.GPR, %struct.GPR* %452, i32 0, i32 15
  %454 = getelementptr inbounds %struct.Reg, %struct.Reg* %453, i32 0, i32 0
  %RBP.i55 = bitcast %union.anon* %454 to i64*
  %455 = load i64, i64* %RBP.i55
  %456 = sub i64 %455, 24
  %457 = load i64, i64* %PC.i53
  %458 = add i64 %457, 4
  store i64 %458, i64* %PC.i53
  %459 = inttoptr i64 %456 to i64*
  %460 = load i64, i64* %459
  store i64 %460, i64* %RSI.i54, align 8
  store %struct.Memory* %loadMem_409a3a, %struct.Memory** %MEMORY
  %loadMem_409a3e = load %struct.Memory*, %struct.Memory** %MEMORY
  %461 = getelementptr inbounds %struct.State, %struct.State* %0, i32 0, i32 6
  %462 = getelementptr inbounds %struct.GPR, %struct.GPR* %461, i32 0, i32 33
  %463 = getelementptr inbounds %struct.Reg, %struct.Reg* %462, i32 0, i32 0
  %PC.i50 = bitcast %union.anon* %463 to i64*
  %464 = getelementptr inbounds %struct.State, %struct.State* %0, i32 0, i32 6
  %465 = getelementptr inbounds %struct.GPR, %struct.GPR* %464, i32 0, i32 7
  %466 = getelementptr inbounds %struct.Reg, %struct.Reg* %465, i32 0, i32 0
  %RDX.i51 = bitcast %union.anon* %466 to i64*
  %467 = getelementptr inbounds %struct.State, %struct.State* %0, i32 0, i32 6
  %468 = getelementptr inbounds %struct.GPR, %struct.GPR* %467, i32 0, i32 15
  %469 = getelementptr inbounds %struct.Reg, %struct.Reg* %468, i32 0, i32 0
  %RBP.i52 = bitcast %union.anon* %469 to i64*
  %470 = load i64, i64* %RBP.i52
  %471 = sub i64 %470, 32
  %472 = load i64, i64* %PC.i50
  %473 = add i64 %472, 4
  store i64 %473, i64* %PC.i50
  %474 = inttoptr i64 %471 to i64*
  %475 = load i64, i64* %474
  store i64 %475, i64* %RDX.i51, align 8
  store %struct.Memory* %loadMem_409a3e, %struct.Memory** %MEMORY
  %loadMem_409a42 = load %struct.Memory*, %struct.Memory** %MEMORY
  %476 = getelementptr inbounds %struct.State, %struct.State* %0, i32 0, i32 6
  %477 = getelementptr inbounds %struct.GPR, %struct.GPR* %476, i32 0, i32 33
  %478 = getelementptr inbounds %struct.Reg, %struct.Reg* %477, i32 0, i32 0
  %PC.i47 = bitcast %union.anon* %478 to i64*
  %479 = getelementptr inbounds %struct.State, %struct.State* %0, i32 0, i32 6
  %480 = getelementptr inbounds %struct.GPR, %struct.GPR* %479, i32 0, i32 5
  %481 = getelementptr inbounds %struct.Reg, %struct.Reg* %480, i32 0, i32 0
  %RCX.i48 = bitcast %union.anon* %481 to i64*
  %482 = getelementptr inbounds %struct.State, %struct.State* %0, i32 0, i32 6
  %483 = getelementptr inbounds %struct.GPR, %struct.GPR* %482, i32 0, i32 15
  %484 = getelementptr inbounds %struct.Reg, %struct.Reg* %483, i32 0, i32 0
  %RBP.i49 = bitcast %union.anon* %484 to i64*
  %485 = load i64, i64* %RBP.i49
  %486 = sub i64 %485, 40
  %487 = load i64, i64* %PC.i47
  %488 = add i64 %487, 4
  store i64 %488, i64* %PC.i47
  %489 = inttoptr i64 %486 to i64*
  %490 = load i64, i64* %489
  store i64 %490, i64* %RCX.i48, align 8
  store %struct.Memory* %loadMem_409a42, %struct.Memory** %MEMORY
  %loadMem_409a46 = load %struct.Memory*, %struct.Memory** %MEMORY
  %491 = getelementptr inbounds %struct.State, %struct.State* %0, i32 0, i32 6
  %492 = getelementptr inbounds %struct.GPR, %struct.GPR* %491, i32 0, i32 33
  %493 = getelementptr inbounds %struct.Reg, %struct.Reg* %492, i32 0, i32 0
  %PC.i44 = bitcast %union.anon* %493 to i64*
  %494 = getelementptr inbounds %struct.State, %struct.State* %0, i32 0, i32 6
  %495 = getelementptr inbounds %struct.GPR, %struct.GPR* %494, i32 0, i32 15
  %496 = getelementptr inbounds %struct.Reg, %struct.Reg* %495, i32 0, i32 0
  %RBP.i45 = bitcast %union.anon* %496 to i64*
  %497 = getelementptr inbounds %struct.State, %struct.State* %0, i32 0, i32 6
  %498 = getelementptr inbounds %struct.GPR, %struct.GPR* %497, i32 0, i32 17
  %499 = getelementptr inbounds %struct.Reg, %struct.Reg* %498, i32 0, i32 0
  %R8.i46 = bitcast %union.anon* %499 to i64*
  %500 = load i64, i64* %RBP.i45
  %501 = sub i64 %500, 48
  %502 = load i64, i64* %PC.i44
  %503 = add i64 %502, 4
  store i64 %503, i64* %PC.i44
  %504 = inttoptr i64 %501 to i64*
  %505 = load i64, i64* %504
  store i64 %505, i64* %R8.i46, align 8
  store %struct.Memory* %loadMem_409a46, %struct.Memory** %MEMORY
  %loadMem1_409a4a = load %struct.Memory*, %struct.Memory** %MEMORY
  %506 = getelementptr inbounds %struct.State, %struct.State* %0, i32 0, i32 6
  %507 = getelementptr inbounds %struct.GPR, %struct.GPR* %506, i32 0, i32 33
  %508 = getelementptr inbounds %struct.Reg, %struct.Reg* %507, i32 0, i32 0
  %PC.i43 = bitcast %union.anon* %508 to i64*
  %509 = load i64, i64* %PC.i43
  %510 = add i64 %509, 18566
  %511 = load i64, i64* %PC.i43
  %512 = add i64 %511, 5
  %513 = load i64, i64* %PC.i43
  %514 = add i64 %513, 5
  store i64 %514, i64* %PC.i43
  %515 = getelementptr inbounds %struct.State, %struct.State* %0, i64 0, i32 6, i32 13, i32 0, i32 0
  %516 = load i64, i64* %515, align 8
  %517 = add i64 %516, -8
  %518 = inttoptr i64 %517 to i64*
  store i64 %512, i64* %518
  store i64 %517, i64* %515, align 8
  %519 = getelementptr inbounds %struct.State, %struct.State* %0, i64 0, i32 6, i32 33, i32 0, i32 0
  store i64 %510, i64* %519, align 8
  store %struct.Memory* %loadMem1_409a4a, %struct.Memory** %MEMORY
  %loadMem2_409a4a = load %struct.Memory*, %struct.Memory** %MEMORY
  %loadPC_409a4a = load i64, i64* %3
  %call2_409a4a = call %struct.Memory* @sub_40e2d0._ZN28custom_multiple_variable_andIlE8do_shiftElllll(%struct.State* %0, i64 %loadPC_409a4a, %struct.Memory* %loadMem2_409a4a)
  store %struct.Memory* %call2_409a4a, %struct.Memory** %MEMORY
  %loadMem_409a4f = load %struct.Memory*, %struct.Memory** %MEMORY
  %520 = getelementptr inbounds %struct.State, %struct.State* %0, i32 0, i32 6
  %521 = getelementptr inbounds %struct.GPR, %struct.GPR* %520, i32 0, i32 33
  %522 = getelementptr inbounds %struct.Reg, %struct.Reg* %521, i32 0, i32 0
  %PC.i40 = bitcast %union.anon* %522 to i64*
  %523 = getelementptr inbounds %struct.State, %struct.State* %0, i32 0, i32 6
  %524 = getelementptr inbounds %struct.GPR, %struct.GPR* %523, i32 0, i32 1
  %525 = getelementptr inbounds %struct.Reg, %struct.Reg* %524, i32 0, i32 0
  %RAX.i41 = bitcast %union.anon* %525 to i64*
  %526 = getelementptr inbounds %struct.State, %struct.State* %0, i32 0, i32 6
  %527 = getelementptr inbounds %struct.GPR, %struct.GPR* %526, i32 0, i32 15
  %528 = getelementptr inbounds %struct.Reg, %struct.Reg* %527, i32 0, i32 0
  %RBP.i42 = bitcast %union.anon* %528 to i64*
  %529 = load i64, i64* %RAX.i41
  %530 = load i64, i64* %RBP.i42
  %531 = sub i64 %530, 72
  %532 = load i64, i64* %PC.i40
  %533 = add i64 %532, 4
  store i64 %533, i64* %PC.i40
  %534 = inttoptr i64 %531 to i64*
  %535 = load i64, i64* %534
  %536 = add i64 %535, %529
  store i64 %536, i64* %RAX.i41, align 8
  %537 = icmp ult i64 %536, %529
  %538 = icmp ult i64 %536, %535
  %539 = or i1 %537, %538
  %540 = zext i1 %539 to i8
  %541 = getelementptr inbounds %struct.State, %struct.State* %0, i64 0, i32 2, i32 1
  store i8 %540, i8* %541, align 1
  %542 = trunc i64 %536 to i32
  %543 = and i32 %542, 255
  %544 = call i32 @llvm.ctpop.i32(i32 %543)
  %545 = trunc i32 %544 to i8
  %546 = and i8 %545, 1
  %547 = xor i8 %546, 1
  %548 = getelementptr inbounds %struct.State, %struct.State* %0, i64 0, i32 2, i32 3
  store i8 %547, i8* %548, align 1
  %549 = xor i64 %535, %529
  %550 = xor i64 %549, %536
  %551 = lshr i64 %550, 4
  %552 = trunc i64 %551 to i8
  %553 = and i8 %552, 1
  %554 = getelementptr inbounds %struct.State, %struct.State* %0, i64 0, i32 2, i32 5
  store i8 %553, i8* %554, align 1
  %555 = icmp eq i64 %536, 0
  %556 = zext i1 %555 to i8
  %557 = getelementptr inbounds %struct.State, %struct.State* %0, i64 0, i32 2, i32 7
  store i8 %556, i8* %557, align 1
  %558 = lshr i64 %536, 63
  %559 = trunc i64 %558 to i8
  %560 = getelementptr inbounds %struct.State, %struct.State* %0, i64 0, i32 2, i32 9
  store i8 %559, i8* %560, align 1
  %561 = lshr i64 %529, 63
  %562 = lshr i64 %535, 63
  %563 = xor i64 %558, %561
  %564 = xor i64 %558, %562
  %565 = add i64 %563, %564
  %566 = icmp eq i64 %565, 2
  %567 = zext i1 %566 to i8
  %568 = getelementptr inbounds %struct.State, %struct.State* %0, i64 0, i32 2, i32 13
  store i8 %567, i8* %568, align 1
  store %struct.Memory* %loadMem_409a4f, %struct.Memory** %MEMORY
  %loadMem_409a53 = load %struct.Memory*, %struct.Memory** %MEMORY
  %569 = getelementptr inbounds %struct.State, %struct.State* %0, i32 0, i32 6
  %570 = getelementptr inbounds %struct.GPR, %struct.GPR* %569, i32 0, i32 33
  %571 = getelementptr inbounds %struct.Reg, %struct.Reg* %570, i32 0, i32 0
  %PC.i37 = bitcast %union.anon* %571 to i64*
  %572 = getelementptr inbounds %struct.State, %struct.State* %0, i32 0, i32 6
  %573 = getelementptr inbounds %struct.GPR, %struct.GPR* %572, i32 0, i32 1
  %574 = getelementptr inbounds %struct.Reg, %struct.Reg* %573, i32 0, i32 0
  %RAX.i38 = bitcast %union.anon* %574 to i64*
  %575 = getelementptr inbounds %struct.State, %struct.State* %0, i32 0, i32 6
  %576 = getelementptr inbounds %struct.GPR, %struct.GPR* %575, i32 0, i32 15
  %577 = getelementptr inbounds %struct.Reg, %struct.Reg* %576, i32 0, i32 0
  %RBP.i39 = bitcast %union.anon* %577 to i64*
  %578 = load i64, i64* %RBP.i39
  %579 = sub i64 %578, 72
  %580 = load i64, i64* %RAX.i38
  %581 = load i64, i64* %PC.i37
  %582 = add i64 %581, 4
  store i64 %582, i64* %PC.i37
  %583 = inttoptr i64 %579 to i64*
  store i64 %580, i64* %583
  store %struct.Memory* %loadMem_409a53, %struct.Memory** %MEMORY
  %loadMem_409a57 = load %struct.Memory*, %struct.Memory** %MEMORY
  %584 = getelementptr inbounds %struct.State, %struct.State* %0, i32 0, i32 6
  %585 = getelementptr inbounds %struct.GPR, %struct.GPR* %584, i32 0, i32 33
  %586 = getelementptr inbounds %struct.Reg, %struct.Reg* %585, i32 0, i32 0
  %PC.i34 = bitcast %union.anon* %586 to i64*
  %587 = getelementptr inbounds %struct.State, %struct.State* %0, i32 0, i32 6
  %588 = getelementptr inbounds %struct.GPR, %struct.GPR* %587, i32 0, i32 1
  %589 = getelementptr inbounds %struct.Reg, %struct.Reg* %588, i32 0, i32 0
  %RAX.i35 = bitcast %union.anon* %589 to i64*
  %590 = getelementptr inbounds %struct.State, %struct.State* %0, i32 0, i32 6
  %591 = getelementptr inbounds %struct.GPR, %struct.GPR* %590, i32 0, i32 15
  %592 = getelementptr inbounds %struct.Reg, %struct.Reg* %591, i32 0, i32 0
  %RBP.i36 = bitcast %union.anon* %592 to i64*
  %593 = load i64, i64* %RBP.i36
  %594 = sub i64 %593, 76
  %595 = load i64, i64* %PC.i34
  %596 = add i64 %595, 3
  store i64 %596, i64* %PC.i34
  %597 = inttoptr i64 %594 to i32*
  %598 = load i32, i32* %597
  %599 = zext i32 %598 to i64
  store i64 %599, i64* %RAX.i35, align 8
  store %struct.Memory* %loadMem_409a57, %struct.Memory** %MEMORY
  %loadMem_409a5a = load %struct.Memory*, %struct.Memory** %MEMORY
  %600 = getelementptr inbounds %struct.State, %struct.State* %0, i32 0, i32 6
  %601 = getelementptr inbounds %struct.GPR, %struct.GPR* %600, i32 0, i32 33
  %602 = getelementptr inbounds %struct.Reg, %struct.Reg* %601, i32 0, i32 0
  %PC.i32 = bitcast %union.anon* %602 to i64*
  %603 = getelementptr inbounds %struct.State, %struct.State* %0, i32 0, i32 6
  %604 = getelementptr inbounds %struct.GPR, %struct.GPR* %603, i32 0, i32 1
  %605 = getelementptr inbounds %struct.Reg, %struct.Reg* %604, i32 0, i32 0
  %RAX.i33 = bitcast %union.anon* %605 to i64*
  %606 = load i64, i64* %RAX.i33
  %607 = load i64, i64* %PC.i32
  %608 = add i64 %607, 3
  store i64 %608, i64* %PC.i32
  %609 = trunc i64 %606 to i32
  %610 = add i32 1, %609
  %611 = zext i32 %610 to i64
  store i64 %611, i64* %RAX.i33, align 8
  %612 = icmp ult i32 %610, %609
  %613 = icmp ult i32 %610, 1
  %614 = or i1 %612, %613
  %615 = zext i1 %614 to i8
  %616 = getelementptr inbounds %struct.State, %struct.State* %0, i64 0, i32 2, i32 1
  store i8 %615, i8* %616, align 1
  %617 = and i32 %610, 255
  %618 = call i32 @llvm.ctpop.i32(i32 %617)
  %619 = trunc i32 %618 to i8
  %620 = and i8 %619, 1
  %621 = xor i8 %620, 1
  %622 = getelementptr inbounds %struct.State, %struct.State* %0, i64 0, i32 2, i32 3
  store i8 %621, i8* %622, align 1
  %623 = xor i64 1, %606
  %624 = trunc i64 %623 to i32
  %625 = xor i32 %624, %610
  %626 = lshr i32 %625, 4
  %627 = trunc i32 %626 to i8
  %628 = and i8 %627, 1
  %629 = getelementptr inbounds %struct.State, %struct.State* %0, i64 0, i32 2, i32 5
  store i8 %628, i8* %629, align 1
  %630 = icmp eq i32 %610, 0
  %631 = zext i1 %630 to i8
  %632 = getelementptr inbounds %struct.State, %struct.State* %0, i64 0, i32 2, i32 7
  store i8 %631, i8* %632, align 1
  %633 = lshr i32 %610, 31
  %634 = trunc i32 %633 to i8
  %635 = getelementptr inbounds %struct.State, %struct.State* %0, i64 0, i32 2, i32 9
  store i8 %634, i8* %635, align 1
  %636 = lshr i32 %609, 31
  %637 = xor i32 %633, %636
  %638 = add i32 %637, %633
  %639 = icmp eq i32 %638, 2
  %640 = zext i1 %639 to i8
  %641 = getelementptr inbounds %struct.State, %struct.State* %0, i64 0, i32 2, i32 13
  store i8 %640, i8* %641, align 1
  store %struct.Memory* %loadMem_409a5a, %struct.Memory** %MEMORY
  %loadMem_409a5d = load %struct.Memory*, %struct.Memory** %MEMORY
  %642 = getelementptr inbounds %struct.State, %struct.State* %0, i32 0, i32 6
  %643 = getelementptr inbounds %struct.GPR, %struct.GPR* %642, i32 0, i32 33
  %644 = getelementptr inbounds %struct.Reg, %struct.Reg* %643, i32 0, i32 0
  %PC.i29 = bitcast %union.anon* %644 to i64*
  %645 = getelementptr inbounds %struct.State, %struct.State* %0, i32 0, i32 6
  %646 = getelementptr inbounds %struct.GPR, %struct.GPR* %645, i32 0, i32 1
  %647 = getelementptr inbounds %struct.Reg, %struct.Reg* %646, i32 0, i32 0
  %EAX.i30 = bitcast %union.anon* %647 to i32*
  %648 = getelementptr inbounds %struct.State, %struct.State* %0, i32 0, i32 6
  %649 = getelementptr inbounds %struct.GPR, %struct.GPR* %648, i32 0, i32 15
  %650 = getelementptr inbounds %struct.Reg, %struct.Reg* %649, i32 0, i32 0
  %RBP.i31 = bitcast %union.anon* %650 to i64*
  %651 = load i64, i64* %RBP.i31
  %652 = sub i64 %651, 76
  %653 = load i32, i32* %EAX.i30
  %654 = zext i32 %653 to i64
  %655 = load i64, i64* %PC.i29
  %656 = add i64 %655, 3
  store i64 %656, i64* %PC.i29
  %657 = inttoptr i64 %652 to i32*
  store i32 %653, i32* %657
  store %struct.Memory* %loadMem_409a5d, %struct.Memory** %MEMORY
  %loadMem_409a60 = load %struct.Memory*, %struct.Memory** %MEMORY
  %658 = getelementptr inbounds %struct.State, %struct.State* %0, i32 0, i32 6
  %659 = getelementptr inbounds %struct.GPR, %struct.GPR* %658, i32 0, i32 33
  %660 = getelementptr inbounds %struct.Reg, %struct.Reg* %659, i32 0, i32 0
  %PC.i28 = bitcast %union.anon* %660 to i64*
  %661 = load i64, i64* %PC.i28
  %662 = add i64 %661, -62
  %663 = load i64, i64* %PC.i28
  %664 = add i64 %663, 5
  store i64 %664, i64* %PC.i28
  %665 = getelementptr inbounds %struct.State, %struct.State* %0, i64 0, i32 6, i32 33, i32 0, i32 0
  store i64 %662, i64* %665, align 8
  store %struct.Memory* %loadMem_409a60, %struct.Memory** %MEMORY
  br label %block_.L_409a22

block_.L_409a65:                                  ; preds = %block_.L_409a22
  %loadMem_409a65 = load %struct.Memory*, %struct.Memory** %MEMORY
  %666 = getelementptr inbounds %struct.State, %struct.State* %0, i32 0, i32 6
  %667 = getelementptr inbounds %struct.GPR, %struct.GPR* %666, i32 0, i32 33
  %668 = getelementptr inbounds %struct.Reg, %struct.Reg* %667, i32 0, i32 0
  %PC.i25 = bitcast %union.anon* %668 to i64*
  %669 = getelementptr inbounds %struct.State, %struct.State* %0, i32 0, i32 6
  %670 = getelementptr inbounds %struct.GPR, %struct.GPR* %669, i32 0, i32 11
  %671 = getelementptr inbounds %struct.Reg, %struct.Reg* %670, i32 0, i32 0
  %RDI.i26 = bitcast %union.anon* %671 to i64*
  %672 = getelementptr inbounds %struct.State, %struct.State* %0, i32 0, i32 6
  %673 = getelementptr inbounds %struct.GPR, %struct.GPR* %672, i32 0, i32 15
  %674 = getelementptr inbounds %struct.Reg, %struct.Reg* %673, i32 0, i32 0
  %RBP.i27 = bitcast %union.anon* %674 to i64*
  %675 = load i64, i64* %RBP.i27
  %676 = sub i64 %675, 72
  %677 = load i64, i64* %PC.i25
  %678 = add i64 %677, 4
  store i64 %678, i64* %PC.i25
  %679 = inttoptr i64 %676 to i64*
  %680 = load i64, i64* %679
  store i64 %680, i64* %RDI.i26, align 8
  store %struct.Memory* %loadMem_409a65, %struct.Memory** %MEMORY
  %loadMem_409a69 = load %struct.Memory*, %struct.Memory** %MEMORY
  %681 = getelementptr inbounds %struct.State, %struct.State* %0, i32 0, i32 6
  %682 = getelementptr inbounds %struct.GPR, %struct.GPR* %681, i32 0, i32 33
  %683 = getelementptr inbounds %struct.Reg, %struct.Reg* %682, i32 0, i32 0
  %PC.i23 = bitcast %union.anon* %683 to i64*
  %684 = getelementptr inbounds %struct.State, %struct.State* %0, i32 0, i32 6
  %685 = getelementptr inbounds %struct.GPR, %struct.GPR* %684, i32 0, i32 9
  %686 = getelementptr inbounds %struct.Reg, %struct.Reg* %685, i32 0, i32 0
  %RSI.i = bitcast %union.anon* %686 to i64*
  %687 = getelementptr inbounds %struct.State, %struct.State* %0, i32 0, i32 6
  %688 = getelementptr inbounds %struct.GPR, %struct.GPR* %687, i32 0, i32 15
  %689 = getelementptr inbounds %struct.Reg, %struct.Reg* %688, i32 0, i32 0
  %RBP.i24 = bitcast %union.anon* %689 to i64*
  %690 = load i64, i64* %RBP.i24
  %691 = sub i64 %690, 24
  %692 = load i64, i64* %PC.i23
  %693 = add i64 %692, 4
  store i64 %693, i64* %PC.i23
  %694 = inttoptr i64 %691 to i64*
  %695 = load i64, i64* %694
  store i64 %695, i64* %RSI.i, align 8
  store %struct.Memory* %loadMem_409a69, %struct.Memory** %MEMORY
  %loadMem_409a6d = load %struct.Memory*, %struct.Memory** %MEMORY
  %696 = getelementptr inbounds %struct.State, %struct.State* %0, i32 0, i32 6
  %697 = getelementptr inbounds %struct.GPR, %struct.GPR* %696, i32 0, i32 33
  %698 = getelementptr inbounds %struct.Reg, %struct.Reg* %697, i32 0, i32 0
  %PC.i21 = bitcast %union.anon* %698 to i64*
  %699 = getelementptr inbounds %struct.State, %struct.State* %0, i32 0, i32 6
  %700 = getelementptr inbounds %struct.GPR, %struct.GPR* %699, i32 0, i32 7
  %701 = getelementptr inbounds %struct.Reg, %struct.Reg* %700, i32 0, i32 0
  %RDX.i = bitcast %union.anon* %701 to i64*
  %702 = getelementptr inbounds %struct.State, %struct.State* %0, i32 0, i32 6
  %703 = getelementptr inbounds %struct.GPR, %struct.GPR* %702, i32 0, i32 15
  %704 = getelementptr inbounds %struct.Reg, %struct.Reg* %703, i32 0, i32 0
  %RBP.i22 = bitcast %union.anon* %704 to i64*
  %705 = load i64, i64* %RBP.i22
  %706 = sub i64 %705, 32
  %707 = load i64, i64* %PC.i21
  %708 = add i64 %707, 4
  store i64 %708, i64* %PC.i21
  %709 = inttoptr i64 %706 to i64*
  %710 = load i64, i64* %709
  store i64 %710, i64* %RDX.i, align 8
  store %struct.Memory* %loadMem_409a6d, %struct.Memory** %MEMORY
  %loadMem_409a71 = load %struct.Memory*, %struct.Memory** %MEMORY
  %711 = getelementptr inbounds %struct.State, %struct.State* %0, i32 0, i32 6
  %712 = getelementptr inbounds %struct.GPR, %struct.GPR* %711, i32 0, i32 33
  %713 = getelementptr inbounds %struct.Reg, %struct.Reg* %712, i32 0, i32 0
  %PC.i19 = bitcast %union.anon* %713 to i64*
  %714 = getelementptr inbounds %struct.State, %struct.State* %0, i32 0, i32 6
  %715 = getelementptr inbounds %struct.GPR, %struct.GPR* %714, i32 0, i32 5
  %716 = getelementptr inbounds %struct.Reg, %struct.Reg* %715, i32 0, i32 0
  %RCX.i = bitcast %union.anon* %716 to i64*
  %717 = getelementptr inbounds %struct.State, %struct.State* %0, i32 0, i32 6
  %718 = getelementptr inbounds %struct.GPR, %struct.GPR* %717, i32 0, i32 15
  %719 = getelementptr inbounds %struct.Reg, %struct.Reg* %718, i32 0, i32 0
  %RBP.i20 = bitcast %union.anon* %719 to i64*
  %720 = load i64, i64* %RBP.i20
  %721 = sub i64 %720, 40
  %722 = load i64, i64* %PC.i19
  %723 = add i64 %722, 4
  store i64 %723, i64* %PC.i19
  %724 = inttoptr i64 %721 to i64*
  %725 = load i64, i64* %724
  store i64 %725, i64* %RCX.i, align 8
  store %struct.Memory* %loadMem_409a71, %struct.Memory** %MEMORY
  %loadMem_409a75 = load %struct.Memory*, %struct.Memory** %MEMORY
  %726 = getelementptr inbounds %struct.State, %struct.State* %0, i32 0, i32 6
  %727 = getelementptr inbounds %struct.GPR, %struct.GPR* %726, i32 0, i32 33
  %728 = getelementptr inbounds %struct.Reg, %struct.Reg* %727, i32 0, i32 0
  %PC.i17 = bitcast %union.anon* %728 to i64*
  %729 = getelementptr inbounds %struct.State, %struct.State* %0, i32 0, i32 6
  %730 = getelementptr inbounds %struct.GPR, %struct.GPR* %729, i32 0, i32 15
  %731 = getelementptr inbounds %struct.Reg, %struct.Reg* %730, i32 0, i32 0
  %RBP.i18 = bitcast %union.anon* %731 to i64*
  %732 = getelementptr inbounds %struct.State, %struct.State* %0, i32 0, i32 6
  %733 = getelementptr inbounds %struct.GPR, %struct.GPR* %732, i32 0, i32 17
  %734 = getelementptr inbounds %struct.Reg, %struct.Reg* %733, i32 0, i32 0
  %R8.i = bitcast %union.anon* %734 to i64*
  %735 = load i64, i64* %RBP.i18
  %736 = sub i64 %735, 48
  %737 = load i64, i64* %PC.i17
  %738 = add i64 %737, 4
  store i64 %738, i64* %PC.i17
  %739 = inttoptr i64 %736 to i64*
  %740 = load i64, i64* %739
  store i64 %740, i64* %R8.i, align 8
  store %struct.Memory* %loadMem_409a75, %struct.Memory** %MEMORY
  %loadMem1_409a79 = load %struct.Memory*, %struct.Memory** %MEMORY
  %741 = getelementptr inbounds %struct.State, %struct.State* %0, i32 0, i32 6
  %742 = getelementptr inbounds %struct.GPR, %struct.GPR* %741, i32 0, i32 33
  %743 = getelementptr inbounds %struct.Reg, %struct.Reg* %742, i32 0, i32 0
  %PC.i16 = bitcast %union.anon* %743 to i64*
  %744 = load i64, i64* %PC.i16
  %745 = add i64 %744, 18583
  %746 = load i64, i64* %PC.i16
  %747 = add i64 %746, 5
  %748 = load i64, i64* %PC.i16
  %749 = add i64 %748, 5
  store i64 %749, i64* %PC.i16
  %750 = getelementptr inbounds %struct.State, %struct.State* %0, i64 0, i32 6, i32 13, i32 0, i32 0
  %751 = load i64, i64* %750, align 8
  %752 = add i64 %751, -8
  %753 = inttoptr i64 %752 to i64*
  store i64 %747, i64* %753
  store i64 %752, i64* %750, align 8
  %754 = getelementptr inbounds %struct.State, %struct.State* %0, i64 0, i32 6, i32 33, i32 0, i32 0
  store i64 %745, i64* %754, align 8
  store %struct.Memory* %loadMem1_409a79, %struct.Memory** %MEMORY
  %loadMem2_409a79 = load %struct.Memory*, %struct.Memory** %MEMORY
  %loadPC_409a79 = load i64, i64* %3
  %call2_409a79 = call %struct.Memory* @sub_40e310._Z26check_shifted_variable_sumIl28custom_multiple_variable_andIlEEvT_S2_S2_S2_S2_(%struct.State* %0, i64 %loadPC_409a79, %struct.Memory* %loadMem2_409a79)
  store %struct.Memory* %call2_409a79, %struct.Memory** %MEMORY
  %loadMem_409a7e = load %struct.Memory*, %struct.Memory** %MEMORY
  %755 = getelementptr inbounds %struct.State, %struct.State* %0, i32 0, i32 6
  %756 = getelementptr inbounds %struct.GPR, %struct.GPR* %755, i32 0, i32 33
  %757 = getelementptr inbounds %struct.Reg, %struct.Reg* %756, i32 0, i32 0
  %PC.i13 = bitcast %union.anon* %757 to i64*
  %758 = getelementptr inbounds %struct.State, %struct.State* %0, i32 0, i32 6
  %759 = getelementptr inbounds %struct.GPR, %struct.GPR* %758, i32 0, i32 1
  %760 = getelementptr inbounds %struct.Reg, %struct.Reg* %759, i32 0, i32 0
  %RAX.i14 = bitcast %union.anon* %760 to i64*
  %761 = getelementptr inbounds %struct.State, %struct.State* %0, i32 0, i32 6
  %762 = getelementptr inbounds %struct.GPR, %struct.GPR* %761, i32 0, i32 15
  %763 = getelementptr inbounds %struct.Reg, %struct.Reg* %762, i32 0, i32 0
  %RBP.i15 = bitcast %union.anon* %763 to i64*
  %764 = load i64, i64* %RBP.i15
  %765 = sub i64 %764, 60
  %766 = load i64, i64* %PC.i13
  %767 = add i64 %766, 3
  store i64 %767, i64* %PC.i13
  %768 = inttoptr i64 %765 to i32*
  %769 = load i32, i32* %768
  %770 = zext i32 %769 to i64
  store i64 %770, i64* %RAX.i14, align 8
  store %struct.Memory* %loadMem_409a7e, %struct.Memory** %MEMORY
  %loadMem_409a81 = load %struct.Memory*, %struct.Memory** %MEMORY
  %771 = getelementptr inbounds %struct.State, %struct.State* %0, i32 0, i32 6
  %772 = getelementptr inbounds %struct.GPR, %struct.GPR* %771, i32 0, i32 33
  %773 = getelementptr inbounds %struct.Reg, %struct.Reg* %772, i32 0, i32 0
  %PC.i12 = bitcast %union.anon* %773 to i64*
  %774 = getelementptr inbounds %struct.State, %struct.State* %0, i32 0, i32 6
  %775 = getelementptr inbounds %struct.GPR, %struct.GPR* %774, i32 0, i32 1
  %776 = getelementptr inbounds %struct.Reg, %struct.Reg* %775, i32 0, i32 0
  %RAX.i = bitcast %union.anon* %776 to i64*
  %777 = load i64, i64* %RAX.i
  %778 = load i64, i64* %PC.i12
  %779 = add i64 %778, 3
  store i64 %779, i64* %PC.i12
  %780 = trunc i64 %777 to i32
  %781 = add i32 1, %780
  %782 = zext i32 %781 to i64
  store i64 %782, i64* %RAX.i, align 8
  %783 = icmp ult i32 %781, %780
  %784 = icmp ult i32 %781, 1
  %785 = or i1 %783, %784
  %786 = zext i1 %785 to i8
  %787 = getelementptr inbounds %struct.State, %struct.State* %0, i64 0, i32 2, i32 1
  store i8 %786, i8* %787, align 1
  %788 = and i32 %781, 255
  %789 = call i32 @llvm.ctpop.i32(i32 %788)
  %790 = trunc i32 %789 to i8
  %791 = and i8 %790, 1
  %792 = xor i8 %791, 1
  %793 = getelementptr inbounds %struct.State, %struct.State* %0, i64 0, i32 2, i32 3
  store i8 %792, i8* %793, align 1
  %794 = xor i64 1, %777
  %795 = trunc i64 %794 to i32
  %796 = xor i32 %795, %781
  %797 = lshr i32 %796, 4
  %798 = trunc i32 %797 to i8
  %799 = and i8 %798, 1
  %800 = getelementptr inbounds %struct.State, %struct.State* %0, i64 0, i32 2, i32 5
  store i8 %799, i8* %800, align 1
  %801 = icmp eq i32 %781, 0
  %802 = zext i1 %801 to i8
  %803 = getelementptr inbounds %struct.State, %struct.State* %0, i64 0, i32 2, i32 7
  store i8 %802, i8* %803, align 1
  %804 = lshr i32 %781, 31
  %805 = trunc i32 %804 to i8
  %806 = getelementptr inbounds %struct.State, %struct.State* %0, i64 0, i32 2, i32 9
  store i8 %805, i8* %806, align 1
  %807 = lshr i32 %780, 31
  %808 = xor i32 %804, %807
  %809 = add i32 %808, %804
  %810 = icmp eq i32 %809, 2
  %811 = zext i1 %810 to i8
  %812 = getelementptr inbounds %struct.State, %struct.State* %0, i64 0, i32 2, i32 13
  store i8 %811, i8* %812, align 1
  store %struct.Memory* %loadMem_409a81, %struct.Memory** %MEMORY
  %loadMem_409a84 = load %struct.Memory*, %struct.Memory** %MEMORY
  %813 = getelementptr inbounds %struct.State, %struct.State* %0, i32 0, i32 6
  %814 = getelementptr inbounds %struct.GPR, %struct.GPR* %813, i32 0, i32 33
  %815 = getelementptr inbounds %struct.Reg, %struct.Reg* %814, i32 0, i32 0
  %PC.i10 = bitcast %union.anon* %815 to i64*
  %816 = getelementptr inbounds %struct.State, %struct.State* %0, i32 0, i32 6
  %817 = getelementptr inbounds %struct.GPR, %struct.GPR* %816, i32 0, i32 1
  %818 = getelementptr inbounds %struct.Reg, %struct.Reg* %817, i32 0, i32 0
  %EAX.i = bitcast %union.anon* %818 to i32*
  %819 = getelementptr inbounds %struct.State, %struct.State* %0, i32 0, i32 6
  %820 = getelementptr inbounds %struct.GPR, %struct.GPR* %819, i32 0, i32 15
  %821 = getelementptr inbounds %struct.Reg, %struct.Reg* %820, i32 0, i32 0
  %RBP.i11 = bitcast %union.anon* %821 to i64*
  %822 = load i64, i64* %RBP.i11
  %823 = sub i64 %822, 60
  %824 = load i32, i32* %EAX.i
  %825 = zext i32 %824 to i64
  %826 = load i64, i64* %PC.i10
  %827 = add i64 %826, 3
  store i64 %827, i64* %PC.i10
  %828 = inttoptr i64 %823 to i32*
  store i32 %824, i32* %828
  store %struct.Memory* %loadMem_409a84, %struct.Memory** %MEMORY
  %loadMem_409a87 = load %struct.Memory*, %struct.Memory** %MEMORY
  %829 = getelementptr inbounds %struct.State, %struct.State* %0, i32 0, i32 6
  %830 = getelementptr inbounds %struct.GPR, %struct.GPR* %829, i32 0, i32 33
  %831 = getelementptr inbounds %struct.Reg, %struct.Reg* %830, i32 0, i32 0
  %PC.i9 = bitcast %union.anon* %831 to i64*
  %832 = load i64, i64* %PC.i9
  %833 = add i64 %832, -132
  %834 = load i64, i64* %PC.i9
  %835 = add i64 %834, 5
  store i64 %835, i64* %PC.i9
  %836 = getelementptr inbounds %struct.State, %struct.State* %0, i64 0, i32 6, i32 33, i32 0, i32 0
  store i64 %833, i64* %836, align 8
  store %struct.Memory* %loadMem_409a87, %struct.Memory** %MEMORY
  br label %block_.L_409a03

block_.L_409a8c:                                  ; preds = %block_.L_409a03
  %loadMem1_409a8c = load %struct.Memory*, %struct.Memory** %MEMORY
  %837 = getelementptr inbounds %struct.State, %struct.State* %0, i32 0, i32 6
  %838 = getelementptr inbounds %struct.GPR, %struct.GPR* %837, i32 0, i32 33
  %839 = getelementptr inbounds %struct.Reg, %struct.Reg* %838, i32 0, i32 0
  %PC.i8 = bitcast %union.anon* %839 to i64*
  %840 = load i64, i64* %PC.i8
  %841 = add i64 %840, -35868
  %842 = load i64, i64* %PC.i8
  %843 = add i64 %842, 5
  %844 = load i64, i64* %PC.i8
  %845 = add i64 %844, 5
  store i64 %845, i64* %PC.i8
  %846 = getelementptr inbounds %struct.State, %struct.State* %0, i64 0, i32 6, i32 13, i32 0, i32 0
  %847 = load i64, i64* %846, align 8
  %848 = add i64 %847, -8
  %849 = inttoptr i64 %848 to i64*
  store i64 %843, i64* %849
  store i64 %848, i64* %846, align 8
  %850 = getelementptr inbounds %struct.State, %struct.State* %0, i64 0, i32 6, i32 33, i32 0, i32 0
  store i64 %841, i64* %850, align 8
  store %struct.Memory* %loadMem1_409a8c, %struct.Memory** %MEMORY
  %loadMem2_409a8c = load %struct.Memory*, %struct.Memory** %MEMORY
  %loadPC_409a8c = load i64, i64* %3
  %call2_409a8c = call %struct.Memory* @sub_400e70._Z5timerv(%struct.State* %0, i64 %loadPC_409a8c, %struct.Memory* %loadMem2_409a8c)
  store %struct.Memory* %call2_409a8c, %struct.Memory** %MEMORY
  %loadMem_409a91 = load %struct.Memory*, %struct.Memory** %MEMORY
  %851 = getelementptr inbounds %struct.State, %struct.State* %0, i32 0, i32 6
  %852 = getelementptr inbounds %struct.GPR, %struct.GPR* %851, i32 0, i32 33
  %853 = getelementptr inbounds %struct.Reg, %struct.Reg* %852, i32 0, i32 0
  %PC.i6 = bitcast %union.anon* %853 to i64*
  %854 = getelementptr inbounds %struct.State, %struct.State* %0, i32 0, i32 6
  %855 = getelementptr inbounds %struct.GPR, %struct.GPR* %854, i32 0, i32 11
  %856 = getelementptr inbounds %struct.Reg, %struct.Reg* %855, i32 0, i32 0
  %RDI.i = bitcast %union.anon* %856 to i64*
  %857 = getelementptr inbounds %struct.State, %struct.State* %0, i32 0, i32 6
  %858 = getelementptr inbounds %struct.GPR, %struct.GPR* %857, i32 0, i32 15
  %859 = getelementptr inbounds %struct.Reg, %struct.Reg* %858, i32 0, i32 0
  %RBP.i7 = bitcast %union.anon* %859 to i64*
  %860 = load i64, i64* %RBP.i7
  %861 = sub i64 %860, 56
  %862 = load i64, i64* %PC.i6
  %863 = add i64 %862, 4
  store i64 %863, i64* %PC.i6
  %864 = inttoptr i64 %861 to i64*
  %865 = load i64, i64* %864
  store i64 %865, i64* %RDI.i, align 8
  store %struct.Memory* %loadMem_409a91, %struct.Memory** %MEMORY
  %loadMem1_409a95 = load %struct.Memory*, %struct.Memory** %MEMORY
  %866 = getelementptr inbounds %struct.State, %struct.State* %0, i32 0, i32 6
  %867 = getelementptr inbounds %struct.GPR, %struct.GPR* %866, i32 0, i32 33
  %868 = getelementptr inbounds %struct.Reg, %struct.Reg* %867, i32 0, i32 0
  %PC.i5 = bitcast %union.anon* %868 to i64*
  %869 = load i64, i64* %PC.i5
  %870 = add i64 %869, -37509
  %871 = load i64, i64* %PC.i5
  %872 = add i64 %871, 5
  %873 = load i64, i64* %PC.i5
  %874 = add i64 %873, 5
  store i64 %874, i64* %PC.i5
  %875 = getelementptr inbounds %struct.State, %struct.State* %0, i64 0, i32 6, i32 13, i32 0, i32 0
  %876 = load i64, i64* %875, align 8
  %877 = add i64 %876, -8
  %878 = inttoptr i64 %877 to i64*
  store i64 %872, i64* %878
  store i64 %877, i64* %875, align 8
  %879 = getelementptr inbounds %struct.State, %struct.State* %0, i64 0, i32 6, i32 33, i32 0, i32 0
  store i64 %870, i64* %879, align 8
  store %struct.Memory* %loadMem1_409a95, %struct.Memory** %MEMORY
  %loadMem2_409a95 = load %struct.Memory*, %struct.Memory** %MEMORY
  %loadPC_409a95 = load i64, i64* %3
  %call2_409a95 = call %struct.Memory* @sub_400810._Z13record_resultdPKc(%struct.State* %0, i64 %loadPC_409a95, %struct.Memory* %loadMem2_409a95)
  store %struct.Memory* %call2_409a95, %struct.Memory** %MEMORY
  %loadMem_409a9a = load %struct.Memory*, %struct.Memory** %MEMORY
  %880 = getelementptr inbounds %struct.State, %struct.State* %0, i32 0, i32 6
  %881 = getelementptr inbounds %struct.GPR, %struct.GPR* %880, i32 0, i32 33
  %882 = getelementptr inbounds %struct.Reg, %struct.Reg* %881, i32 0, i32 0
  %PC.i4 = bitcast %union.anon* %882 to i64*
  %883 = getelementptr inbounds %struct.State, %struct.State* %0, i32 0, i32 6
  %884 = getelementptr inbounds %struct.GPR, %struct.GPR* %883, i32 0, i32 13
  %885 = getelementptr inbounds %struct.Reg, %struct.Reg* %884, i32 0, i32 0
  %RSP.i = bitcast %union.anon* %885 to i64*
  %886 = load i64, i64* %RSP.i
  %887 = load i64, i64* %PC.i4
  %888 = add i64 %887, 4
  store i64 %888, i64* %PC.i4
  %889 = add i64 80, %886
  store i64 %889, i64* %RSP.i, align 8
  %890 = icmp ult i64 %889, %886
  %891 = icmp ult i64 %889, 80
  %892 = or i1 %890, %891
  %893 = zext i1 %892 to i8
  %894 = getelementptr inbounds %struct.State, %struct.State* %0, i64 0, i32 2, i32 1
  store i8 %893, i8* %894, align 1
  %895 = trunc i64 %889 to i32
  %896 = and i32 %895, 255
  %897 = call i32 @llvm.ctpop.i32(i32 %896)
  %898 = trunc i32 %897 to i8
  %899 = and i8 %898, 1
  %900 = xor i8 %899, 1
  %901 = getelementptr inbounds %struct.State, %struct.State* %0, i64 0, i32 2, i32 3
  store i8 %900, i8* %901, align 1
  %902 = xor i64 80, %886
  %903 = xor i64 %902, %889
  %904 = lshr i64 %903, 4
  %905 = trunc i64 %904 to i8
  %906 = and i8 %905, 1
  %907 = getelementptr inbounds %struct.State, %struct.State* %0, i64 0, i32 2, i32 5
  store i8 %906, i8* %907, align 1
  %908 = icmp eq i64 %889, 0
  %909 = zext i1 %908 to i8
  %910 = getelementptr inbounds %struct.State, %struct.State* %0, i64 0, i32 2, i32 7
  store i8 %909, i8* %910, align 1
  %911 = lshr i64 %889, 63
  %912 = trunc i64 %911 to i8
  %913 = getelementptr inbounds %struct.State, %struct.State* %0, i64 0, i32 2, i32 9
  store i8 %912, i8* %913, align 1
  %914 = lshr i64 %886, 63
  %915 = xor i64 %911, %914
  %916 = add i64 %915, %911
  %917 = icmp eq i64 %916, 2
  %918 = zext i1 %917 to i8
  %919 = getelementptr inbounds %struct.State, %struct.State* %0, i64 0, i32 2, i32 13
  store i8 %918, i8* %919, align 1
  store %struct.Memory* %loadMem_409a9a, %struct.Memory** %MEMORY
  %loadMem_409a9e = load %struct.Memory*, %struct.Memory** %MEMORY
  %920 = getelementptr inbounds %struct.State, %struct.State* %0, i32 0, i32 6
  %921 = getelementptr inbounds %struct.GPR, %struct.GPR* %920, i32 0, i32 33
  %922 = getelementptr inbounds %struct.Reg, %struct.Reg* %921, i32 0, i32 0
  %PC.i2 = bitcast %union.anon* %922 to i64*
  %923 = getelementptr inbounds %struct.State, %struct.State* %0, i32 0, i32 6
  %924 = getelementptr inbounds %struct.GPR, %struct.GPR* %923, i32 0, i32 15
  %925 = getelementptr inbounds %struct.Reg, %struct.Reg* %924, i32 0, i32 0
  %RBP.i3 = bitcast %union.anon* %925 to i64*
  %926 = load i64, i64* %PC.i2
  %927 = add i64 %926, 1
  store i64 %927, i64* %PC.i2
  %928 = getelementptr inbounds %struct.State, %struct.State* %0, i64 0, i32 6, i32 13, i32 0, i32 0
  %929 = load i64, i64* %928, align 8
  %930 = add i64 %929, 8
  %931 = inttoptr i64 %929 to i64*
  %932 = load i64, i64* %931
  store i64 %932, i64* %RBP.i3, align 8
  store i64 %930, i64* %928, align 8
  store %struct.Memory* %loadMem_409a9e, %struct.Memory** %MEMORY
  %loadMem_409a9f = load %struct.Memory*, %struct.Memory** %MEMORY
  %933 = getelementptr inbounds %struct.State, %struct.State* %0, i32 0, i32 6
  %934 = getelementptr inbounds %struct.GPR, %struct.GPR* %933, i32 0, i32 33
  %935 = getelementptr inbounds %struct.Reg, %struct.Reg* %934, i32 0, i32 0
  %PC.i1 = bitcast %union.anon* %935 to i64*
  %936 = load i64, i64* %PC.i1
  %937 = add i64 %936, 1
  store i64 %937, i64* %PC.i1
  %938 = getelementptr inbounds %struct.State, %struct.State* %0, i64 0, i32 6, i32 33, i32 0, i32 0
  %939 = getelementptr inbounds %struct.State, %struct.State* %0, i64 0, i32 6, i32 13, i32 0, i32 0
  %940 = load i64, i64* %939, align 8
  %941 = inttoptr i64 %940 to i64*
  %942 = load i64, i64* %941
  store i64 %942, i64* %938, align 8
  %943 = add i64 %940, 8
  store i64 %943, i64* %939, align 8
  store %struct.Memory* %loadMem_409a9f, %struct.Memory** %MEMORY
  ret %struct.Memory* %loadMem_409a9f
}

define %struct.Memory* @routine_pushq__rbp(%struct.State* dereferenceable(3376), i64, %struct.Memory*) {
block_400488:
  %3 = getelementptr inbounds %struct.State, %struct.State* %0, i32 0, i32 6
  %4 = getelementptr inbounds %struct.GPR, %struct.GPR* %3, i32 0, i32 33
  %5 = getelementptr inbounds %struct.Reg, %struct.Reg* %4, i32 0, i32 0
  %PC = bitcast %union.anon* %5 to i64*
  %6 = getelementptr inbounds %struct.State, %struct.State* %0, i32 0, i32 6
  %7 = getelementptr inbounds %struct.GPR, %struct.GPR* %6, i32 0, i32 15
  %8 = getelementptr inbounds %struct.Reg, %struct.Reg* %7, i32 0, i32 0
  %RBP = bitcast %union.anon* %8 to i64*
  %9 = load i64, i64* %RBP
  %10 = load i64, i64* %PC
  %11 = add i64 %10, 1
  store i64 %11, i64* %PC
  %12 = getelementptr inbounds %struct.State, %struct.State* %0, i64 0, i32 6, i32 13, i32 0, i32 0
  %13 = load i64, i64* %12, align 8
  %14 = add i64 %13, -8
  %15 = inttoptr i64 %14 to i64*
  store i64 %9, i64* %15
  store i64 %14, i64* %12, align 8
  ret %struct.Memory* %2
}

define %struct.Memory* @routine_movq__rsp___rbp(%struct.State* dereferenceable(3376), i64, %struct.Memory*) {
block_400488:
  %3 = getelementptr inbounds %struct.State, %struct.State* %0, i32 0, i32 6
  %4 = getelementptr inbounds %struct.GPR, %struct.GPR* %3, i32 0, i32 33
  %5 = getelementptr inbounds %struct.Reg, %struct.Reg* %4, i32 0, i32 0
  %PC = bitcast %union.anon* %5 to i64*
  %6 = getelementptr inbounds %struct.State, %struct.State* %0, i32 0, i32 6
  %7 = getelementptr inbounds %struct.GPR, %struct.GPR* %6, i32 0, i32 13
  %8 = getelementptr inbounds %struct.Reg, %struct.Reg* %7, i32 0, i32 0
  %RSP = bitcast %union.anon* %8 to i64*
  %9 = getelementptr inbounds %struct.State, %struct.State* %0, i32 0, i32 6
  %10 = getelementptr inbounds %struct.GPR, %struct.GPR* %9, i32 0, i32 15
  %11 = getelementptr inbounds %struct.Reg, %struct.Reg* %10, i32 0, i32 0
  %RBP = bitcast %union.anon* %11 to i64*
  %12 = load i64, i64* %RSP
  %13 = load i64, i64* %PC
  %14 = add i64 %13, 3
  store i64 %14, i64* %PC
  store i64 %12, i64* %RBP, align 8
  ret %struct.Memory* %2
}

define %struct.Memory* @routine_subq__0x50___rsp(%struct.State* dereferenceable(3376), i64, %struct.Memory*) {
block_400488:
  %3 = getelementptr inbounds %struct.State, %struct.State* %0, i32 0, i32 6
  %4 = getelementptr inbounds %struct.GPR, %struct.GPR* %3, i32 0, i32 33
  %5 = getelementptr inbounds %struct.Reg, %struct.Reg* %4, i32 0, i32 0
  %PC = bitcast %union.anon* %5 to i64*
  %6 = getelementptr inbounds %struct.State, %struct.State* %0, i32 0, i32 6
  %7 = getelementptr inbounds %struct.GPR, %struct.GPR* %6, i32 0, i32 13
  %8 = getelementptr inbounds %struct.Reg, %struct.Reg* %7, i32 0, i32 0
  %RSP = bitcast %union.anon* %8 to i64*
  %9 = load i64, i64* %RSP
  %10 = load i64, i64* %PC
  %11 = add i64 %10, 4
  store i64 %11, i64* %PC
  %12 = sub i64 %9, 80
  store i64 %12, i64* %RSP, align 8
  %13 = icmp ult i64 %9, 80
  %14 = zext i1 %13 to i8
  %15 = getelementptr inbounds %struct.State, %struct.State* %0, i64 0, i32 2, i32 1
  store i8 %14, i8* %15, align 1
  %16 = trunc i64 %12 to i32
  %17 = and i32 %16, 255
  %18 = call i32 @llvm.ctpop.i32(i32 %17)
  %19 = trunc i32 %18 to i8
  %20 = and i8 %19, 1
  %21 = xor i8 %20, 1
  %22 = getelementptr inbounds %struct.State, %struct.State* %0, i64 0, i32 2, i32 3
  store i8 %21, i8* %22, align 1
  %23 = xor i64 80, %9
  %24 = xor i64 %23, %12
  %25 = lshr i64 %24, 4
  %26 = trunc i64 %25 to i8
  %27 = and i8 %26, 1
  %28 = getelementptr inbounds %struct.State, %struct.State* %0, i64 0, i32 2, i32 5
  store i8 %27, i8* %28, align 1
  %29 = icmp eq i64 %12, 0
  %30 = zext i1 %29 to i8
  %31 = getelementptr inbounds %struct.State, %struct.State* %0, i64 0, i32 2, i32 7
  store i8 %30, i8* %31, align 1
  %32 = lshr i64 %12, 63
  %33 = trunc i64 %32 to i8
  %34 = getelementptr inbounds %struct.State, %struct.State* %0, i64 0, i32 2, i32 9
  store i8 %33, i8* %34, align 1
  %35 = lshr i64 %9, 63
  %36 = xor i64 %32, %35
  %37 = add i64 %36, %35
  %38 = icmp eq i64 %37, 2
  %39 = zext i1 %38 to i8
  %40 = getelementptr inbounds %struct.State, %struct.State* %0, i64 0, i32 2, i32 13
  store i8 %39, i8* %40, align 1
  ret %struct.Memory* %2
}

define %struct.Memory* @routine_movq_0x10__rbp____rax(%struct.State* dereferenceable(3376), i64, %struct.Memory*) {
block_400488:
  %3 = getelementptr inbounds %struct.State, %struct.State* %0, i32 0, i32 6
  %4 = getelementptr inbounds %struct.GPR, %struct.GPR* %3, i32 0, i32 33
  %5 = getelementptr inbounds %struct.Reg, %struct.Reg* %4, i32 0, i32 0
  %PC = bitcast %union.anon* %5 to i64*
  %6 = getelementptr inbounds %struct.State, %struct.State* %0, i32 0, i32 6
  %7 = getelementptr inbounds %struct.GPR, %struct.GPR* %6, i32 0, i32 1
  %8 = getelementptr inbounds %struct.Reg, %struct.Reg* %7, i32 0, i32 0
  %RAX = bitcast %union.anon* %8 to i64*
  %9 = getelementptr inbounds %struct.State, %struct.State* %0, i32 0, i32 6
  %10 = getelementptr inbounds %struct.GPR, %struct.GPR* %9, i32 0, i32 15
  %11 = getelementptr inbounds %struct.Reg, %struct.Reg* %10, i32 0, i32 0
  %RBP = bitcast %union.anon* %11 to i64*
  %12 = load i64, i64* %RBP
  %13 = add i64 %12, 16
  %14 = load i64, i64* %PC
  %15 = add i64 %14, 4
  store i64 %15, i64* %PC
  %16 = inttoptr i64 %13 to i64*
  %17 = load i64, i64* %16
  store i64 %17, i64* %RAX, align 8
  ret %struct.Memory* %2
}

define %struct.Memory* @routine_movq__rdi__MINUS0x8__rbp_(%struct.State* dereferenceable(3376), i64, %struct.Memory*) {
block_400488:
  %3 = getelementptr inbounds %struct.State, %struct.State* %0, i32 0, i32 6
  %4 = getelementptr inbounds %struct.GPR, %struct.GPR* %3, i32 0, i32 33
  %5 = getelementptr inbounds %struct.Reg, %struct.Reg* %4, i32 0, i32 0
  %PC = bitcast %union.anon* %5 to i64*
  %6 = getelementptr inbounds %struct.State, %struct.State* %0, i32 0, i32 6
  %7 = getelementptr inbounds %struct.GPR, %struct.GPR* %6, i32 0, i32 11
  %8 = getelementptr inbounds %struct.Reg, %struct.Reg* %7, i32 0, i32 0
  %RDI = bitcast %union.anon* %8 to i64*
  %9 = getelementptr inbounds %struct.State, %struct.State* %0, i32 0, i32 6
  %10 = getelementptr inbounds %struct.GPR, %struct.GPR* %9, i32 0, i32 15
  %11 = getelementptr inbounds %struct.Reg, %struct.Reg* %10, i32 0, i32 0
  %RBP = bitcast %union.anon* %11 to i64*
  %12 = load i64, i64* %RBP
  %13 = sub i64 %12, 8
  %14 = load i64, i64* %RDI
  %15 = load i64, i64* %PC
  %16 = add i64 %15, 4
  store i64 %16, i64* %PC
  %17 = inttoptr i64 %13 to i64*
  store i64 %14, i64* %17
  ret %struct.Memory* %2
}

define %struct.Memory* @routine_movl__esi__MINUS0xc__rbp_(%struct.State* dereferenceable(3376), i64, %struct.Memory*) {
block_400488:
  %3 = getelementptr inbounds %struct.State, %struct.State* %0, i32 0, i32 6
  %4 = getelementptr inbounds %struct.GPR, %struct.GPR* %3, i32 0, i32 33
  %5 = getelementptr inbounds %struct.Reg, %struct.Reg* %4, i32 0, i32 0
  %PC = bitcast %union.anon* %5 to i64*
  %6 = getelementptr inbounds %struct.State, %struct.State* %0, i32 0, i32 6
  %7 = getelementptr inbounds %struct.GPR, %struct.GPR* %6, i32 0, i32 9
  %8 = getelementptr inbounds %struct.Reg, %struct.Reg* %7, i32 0, i32 0
  %ESI = bitcast %union.anon* %8 to i32*
  %9 = getelementptr inbounds %struct.State, %struct.State* %0, i32 0, i32 6
  %10 = getelementptr inbounds %struct.GPR, %struct.GPR* %9, i32 0, i32 15
  %11 = getelementptr inbounds %struct.Reg, %struct.Reg* %10, i32 0, i32 0
  %RBP = bitcast %union.anon* %11 to i64*
  %12 = load i64, i64* %RBP
  %13 = sub i64 %12, 12
  %14 = load i32, i32* %ESI
  %15 = zext i32 %14 to i64
  %16 = load i64, i64* %PC
  %17 = add i64 %16, 3
  store i64 %17, i64* %PC
  %18 = inttoptr i64 %13 to i32*
  store i32 %14, i32* %18
  ret %struct.Memory* %2
}

define %struct.Memory* @routine_movq__rdx__MINUS0x18__rbp_(%struct.State* dereferenceable(3376), i64, %struct.Memory*) {
block_400488:
  %3 = getelementptr inbounds %struct.State, %struct.State* %0, i32 0, i32 6
  %4 = getelementptr inbounds %struct.GPR, %struct.GPR* %3, i32 0, i32 33
  %5 = getelementptr inbounds %struct.Reg, %struct.Reg* %4, i32 0, i32 0
  %PC = bitcast %union.anon* %5 to i64*
  %6 = getelementptr inbounds %struct.State, %struct.State* %0, i32 0, i32 6
  %7 = getelementptr inbounds %struct.GPR, %struct.GPR* %6, i32 0, i32 7
  %8 = getelementptr inbounds %struct.Reg, %struct.Reg* %7, i32 0, i32 0
  %RDX = bitcast %union.anon* %8 to i64*
  %9 = getelementptr inbounds %struct.State, %struct.State* %0, i32 0, i32 6
  %10 = getelementptr inbounds %struct.GPR, %struct.GPR* %9, i32 0, i32 15
  %11 = getelementptr inbounds %struct.Reg, %struct.Reg* %10, i32 0, i32 0
  %RBP = bitcast %union.anon* %11 to i64*
  %12 = load i64, i64* %RBP
  %13 = sub i64 %12, 24
  %14 = load i64, i64* %RDX
  %15 = load i64, i64* %PC
  %16 = add i64 %15, 4
  store i64 %16, i64* %PC
  %17 = inttoptr i64 %13 to i64*
  store i64 %14, i64* %17
  ret %struct.Memory* %2
}

define %struct.Memory* @routine_movq__rcx__MINUS0x20__rbp_(%struct.State* dereferenceable(3376), i64, %struct.Memory*) {
block_400488:
  %3 = getelementptr inbounds %struct.State, %struct.State* %0, i32 0, i32 6
  %4 = getelementptr inbounds %struct.GPR, %struct.GPR* %3, i32 0, i32 33
  %5 = getelementptr inbounds %struct.Reg, %struct.Reg* %4, i32 0, i32 0
  %PC = bitcast %union.anon* %5 to i64*
  %6 = getelementptr inbounds %struct.State, %struct.State* %0, i32 0, i32 6
  %7 = getelementptr inbounds %struct.GPR, %struct.GPR* %6, i32 0, i32 5
  %8 = getelementptr inbounds %struct.Reg, %struct.Reg* %7, i32 0, i32 0
  %RCX = bitcast %union.anon* %8 to i64*
  %9 = getelementptr inbounds %struct.State, %struct.State* %0, i32 0, i32 6
  %10 = getelementptr inbounds %struct.GPR, %struct.GPR* %9, i32 0, i32 15
  %11 = getelementptr inbounds %struct.Reg, %struct.Reg* %10, i32 0, i32 0
  %RBP = bitcast %union.anon* %11 to i64*
  %12 = load i64, i64* %RBP
  %13 = sub i64 %12, 32
  %14 = load i64, i64* %RCX
  %15 = load i64, i64* %PC
  %16 = add i64 %15, 4
  store i64 %16, i64* %PC
  %17 = inttoptr i64 %13 to i64*
  store i64 %14, i64* %17
  ret %struct.Memory* %2
}

define %struct.Memory* @routine_movq__r8__MINUS0x28__rbp_(%struct.State* dereferenceable(3376), i64, %struct.Memory*) {
block_400488:
  %3 = getelementptr inbounds %struct.State, %struct.State* %0, i32 0, i32 6
  %4 = getelementptr inbounds %struct.GPR, %struct.GPR* %3, i32 0, i32 33
  %5 = getelementptr inbounds %struct.Reg, %struct.Reg* %4, i32 0, i32 0
  %PC = bitcast %union.anon* %5 to i64*
  %6 = getelementptr inbounds %struct.State, %struct.State* %0, i32 0, i32 6
  %7 = getelementptr inbounds %struct.GPR, %struct.GPR* %6, i32 0, i32 15
  %8 = getelementptr inbounds %struct.Reg, %struct.Reg* %7, i32 0, i32 0
  %RBP = bitcast %union.anon* %8 to i64*
  %9 = getelementptr inbounds %struct.State, %struct.State* %0, i32 0, i32 6
  %10 = getelementptr inbounds %struct.GPR, %struct.GPR* %9, i32 0, i32 17
  %11 = getelementptr inbounds %struct.Reg, %struct.Reg* %10, i32 0, i32 0
  %R8 = bitcast %union.anon* %11 to i64*
  %12 = load i64, i64* %RBP
  %13 = sub i64 %12, 40
  %14 = load i64, i64* %R8
  %15 = load i64, i64* %PC
  %16 = add i64 %15, 4
  store i64 %16, i64* %PC
  %17 = inttoptr i64 %13 to i64*
  store i64 %14, i64* %17
  ret %struct.Memory* %2
}

define %struct.Memory* @routine_movq__r9__MINUS0x30__rbp_(%struct.State* dereferenceable(3376), i64, %struct.Memory*) {
block_400488:
  %3 = getelementptr inbounds %struct.State, %struct.State* %0, i32 0, i32 6
  %4 = getelementptr inbounds %struct.GPR, %struct.GPR* %3, i32 0, i32 33
  %5 = getelementptr inbounds %struct.Reg, %struct.Reg* %4, i32 0, i32 0
  %PC = bitcast %union.anon* %5 to i64*
  %6 = getelementptr inbounds %struct.State, %struct.State* %0, i32 0, i32 6
  %7 = getelementptr inbounds %struct.GPR, %struct.GPR* %6, i32 0, i32 15
  %8 = getelementptr inbounds %struct.Reg, %struct.Reg* %7, i32 0, i32 0
  %RBP = bitcast %union.anon* %8 to i64*
  %9 = getelementptr inbounds %struct.State, %struct.State* %0, i32 0, i32 6
  %10 = getelementptr inbounds %struct.GPR, %struct.GPR* %9, i32 0, i32 19
  %11 = getelementptr inbounds %struct.Reg, %struct.Reg* %10, i32 0, i32 0
  %R9 = bitcast %union.anon* %11 to i64*
  %12 = load i64, i64* %RBP
  %13 = sub i64 %12, 48
  %14 = load i64, i64* %R9
  %15 = load i64, i64* %PC
  %16 = add i64 %15, 4
  store i64 %16, i64* %PC
  %17 = inttoptr i64 %13 to i64*
  store i64 %14, i64* %17
  ret %struct.Memory* %2
}

define %struct.Memory* @routine_movq__rax__MINUS0x38__rbp_(%struct.State* dereferenceable(3376), i64, %struct.Memory*) {
block_400488:
  %3 = getelementptr inbounds %struct.State, %struct.State* %0, i32 0, i32 6
  %4 = getelementptr inbounds %struct.GPR, %struct.GPR* %3, i32 0, i32 33
  %5 = getelementptr inbounds %struct.Reg, %struct.Reg* %4, i32 0, i32 0
  %PC = bitcast %union.anon* %5 to i64*
  %6 = getelementptr inbounds %struct.State, %struct.State* %0, i32 0, i32 6
  %7 = getelementptr inbounds %struct.GPR, %struct.GPR* %6, i32 0, i32 1
  %8 = getelementptr inbounds %struct.Reg, %struct.Reg* %7, i32 0, i32 0
  %RAX = bitcast %union.anon* %8 to i64*
  %9 = getelementptr inbounds %struct.State, %struct.State* %0, i32 0, i32 6
  %10 = getelementptr inbounds %struct.GPR, %struct.GPR* %9, i32 0, i32 15
  %11 = getelementptr inbounds %struct.Reg, %struct.Reg* %10, i32 0, i32 0
  %RBP = bitcast %union.anon* %11 to i64*
  %12 = load i64, i64* %RBP
  %13 = sub i64 %12, 56
  %14 = load i64, i64* %RAX
  %15 = load i64, i64* %PC
  %16 = add i64 %15, 4
  store i64 %16, i64* %PC
  %17 = inttoptr i64 %13 to i64*
  store i64 %14, i64* %17
  ret %struct.Memory* %2
}

define %struct.Memory* @routine_callq_._Z11start_timerv(%struct.State* dereferenceable(3376), i64, %struct.Memory*, i64 %rel_off1, i64 %rel_off2, i64 %rel_off3) {
block_400488:
  %3 = getelementptr inbounds %struct.State, %struct.State* %0, i32 0, i32 6
  %4 = getelementptr inbounds %struct.GPR, %struct.GPR* %3, i32 0, i32 33
  %5 = getelementptr inbounds %struct.Reg, %struct.Reg* %4, i32 0, i32 0
  %PC = bitcast %union.anon* %5 to i64*
  %6 = load i64, i64* %PC
  %7 = add i64 %6, %rel_off1
  %8 = load i64, i64* %PC
  %9 = add i64 %8, %rel_off2
  %10 = load i64, i64* %PC
  %11 = add i64 %10, %rel_off3
  store i64 %11, i64* %PC
  %12 = getelementptr inbounds %struct.State, %struct.State* %0, i64 0, i32 6, i32 13, i32 0, i32 0
  %13 = load i64, i64* %12, align 8
  %14 = add i64 %13, -8
  %15 = inttoptr i64 %14 to i64*
  store i64 %9, i64* %15
  store i64 %14, i64* %12, align 8
  %16 = getelementptr inbounds %struct.State, %struct.State* %0, i64 0, i32 6, i32 33, i32 0, i32 0
  store i64 %7, i64* %16, align 8
  ret %struct.Memory* %2
}

define %struct.Memory* @routine_movl__0x0__MINUS0x3c__rbp_(%struct.State* dereferenceable(3376), i64, %struct.Memory*) {
block_400488:
  %3 = getelementptr inbounds %struct.State, %struct.State* %0, i32 0, i32 6
  %4 = getelementptr inbounds %struct.GPR, %struct.GPR* %3, i32 0, i32 33
  %5 = getelementptr inbounds %struct.Reg, %struct.Reg* %4, i32 0, i32 0
  %PC = bitcast %union.anon* %5 to i64*
  %6 = getelementptr inbounds %struct.State, %struct.State* %0, i32 0, i32 6
  %7 = getelementptr inbounds %struct.GPR, %struct.GPR* %6, i32 0, i32 15
  %8 = getelementptr inbounds %struct.Reg, %struct.Reg* %7, i32 0, i32 0
  %RBP = bitcast %union.anon* %8 to i64*
  %9 = load i64, i64* %RBP
  %10 = sub i64 %9, 60
  %11 = load i64, i64* %PC
  %12 = add i64 %11, 7
  store i64 %12, i64* %PC
  %13 = inttoptr i64 %10 to i32*
  store i32 0, i32* %13
  ret %struct.Memory* %2
}

define %struct.Memory* @routine_movl_MINUS0x3c__rbp____eax(%struct.State* dereferenceable(3376), i64, %struct.Memory*) {
block_400488:
  %3 = getelementptr inbounds %struct.State, %struct.State* %0, i32 0, i32 6
  %4 = getelementptr inbounds %struct.GPR, %struct.GPR* %3, i32 0, i32 33
  %5 = getelementptr inbounds %struct.Reg, %struct.Reg* %4, i32 0, i32 0
  %PC = bitcast %union.anon* %5 to i64*
  %6 = getelementptr inbounds %struct.State, %struct.State* %0, i32 0, i32 6
  %7 = getelementptr inbounds %struct.GPR, %struct.GPR* %6, i32 0, i32 1
  %8 = getelementptr inbounds %struct.Reg, %struct.Reg* %7, i32 0, i32 0
  %RAX = bitcast %union.anon* %8 to i64*
  %9 = getelementptr inbounds %struct.State, %struct.State* %0, i32 0, i32 6
  %10 = getelementptr inbounds %struct.GPR, %struct.GPR* %9, i32 0, i32 15
  %11 = getelementptr inbounds %struct.Reg, %struct.Reg* %10, i32 0, i32 0
  %RBP = bitcast %union.anon* %11 to i64*
  %12 = load i64, i64* %RBP
  %13 = sub i64 %12, 60
  %14 = load i64, i64* %PC
  %15 = add i64 %14, 3
  store i64 %15, i64* %PC
  %16 = inttoptr i64 %13 to i32*
  %17 = load i32, i32* %16
  %18 = zext i32 %17 to i64
  store i64 %18, i64* %RAX, align 8
  ret %struct.Memory* %2
}

define %struct.Memory* @routine_cmpl_0x61a080___eax(%struct.State* dereferenceable(3376), i64, %struct.Memory*) {
block_400488:
  %3 = getelementptr inbounds %struct.State, %struct.State* %0, i32 0, i32 6
  %4 = getelementptr inbounds %struct.GPR, %struct.GPR* %3, i32 0, i32 33
  %5 = getelementptr inbounds %struct.Reg, %struct.Reg* %4, i32 0, i32 0
  %PC = bitcast %union.anon* %5 to i64*
  %6 = getelementptr inbounds %struct.State, %struct.State* %0, i32 0, i32 6
  %7 = getelementptr inbounds %struct.GPR, %struct.GPR* %6, i32 0, i32 1
  %8 = getelementptr inbounds %struct.Reg, %struct.Reg* %7, i32 0, i32 0
  %EAX = bitcast %union.anon* %8 to i32*
  %9 = load i32, i32* %EAX
  %10 = zext i32 %9 to i64
  %11 = load i64, i64* %PC
  %12 = add i64 %11, 7
  store i64 %12, i64* %PC
  %13 = load i32, i32* inttoptr (i64 6398080 to i32*)
  %14 = sub i32 %9, %13
  %15 = icmp ult i32 %9, %13
  %16 = zext i1 %15 to i8
  %17 = getelementptr inbounds %struct.State, %struct.State* %0, i64 0, i32 2, i32 1
  store i8 %16, i8* %17, align 1
  %18 = and i32 %14, 255
  %19 = call i32 @llvm.ctpop.i32(i32 %18)
  %20 = trunc i32 %19 to i8
  %21 = and i8 %20, 1
  %22 = xor i8 %21, 1
  %23 = getelementptr inbounds %struct.State, %struct.State* %0, i64 0, i32 2, i32 3
  store i8 %22, i8* %23, align 1
  %24 = xor i32 %13, %9
  %25 = xor i32 %24, %14
  %26 = lshr i32 %25, 4
  %27 = trunc i32 %26 to i8
  %28 = and i8 %27, 1
  %29 = getelementptr inbounds %struct.State, %struct.State* %0, i64 0, i32 2, i32 5
  store i8 %28, i8* %29, align 1
  %30 = icmp eq i32 %14, 0
  %31 = zext i1 %30 to i8
  %32 = getelementptr inbounds %struct.State, %struct.State* %0, i64 0, i32 2, i32 7
  store i8 %31, i8* %32, align 1
  %33 = lshr i32 %14, 31
  %34 = trunc i32 %33 to i8
  %35 = getelementptr inbounds %struct.State, %struct.State* %0, i64 0, i32 2, i32 9
  store i8 %34, i8* %35, align 1
  %36 = lshr i32 %9, 31
  %37 = lshr i32 %13, 31
  %38 = xor i32 %37, %36
  %39 = xor i32 %33, %36
  %40 = add i32 %39, %38
  %41 = icmp eq i32 %40, 2
  %42 = zext i1 %41 to i8
  %43 = getelementptr inbounds %struct.State, %struct.State* %0, i64 0, i32 2, i32 13
  store i8 %42, i8* %43, align 1
  ret %struct.Memory* %2
}

define %struct.Memory* @routine_jge_.L_409a8c(%struct.State* dereferenceable(3376), i64, %struct.Memory*, i8* %BRANCH_TAKEN, i64 %rel_off1, i64 %rel_off2, i64 %rel_off3) {
block_400488:
  %3 = getelementptr inbounds %struct.State, %struct.State* %0, i32 0, i32 6
  %4 = getelementptr inbounds %struct.GPR, %struct.GPR* %3, i32 0, i32 33
  %5 = getelementptr inbounds %struct.Reg, %struct.Reg* %4, i32 0, i32 0
  %PC = bitcast %union.anon* %5 to i64*
  %6 = load i64, i64* %PC
  %7 = add i64 %6, %rel_off1
  %8 = load i64, i64* %PC
  %9 = add i64 %8, %rel_off2
  %10 = load i64, i64* %PC
  %11 = add i64 %10, %rel_off3
  store i64 %11, i64* %PC
  %12 = getelementptr inbounds %struct.State, %struct.State* %0, i64 0, i32 2, i32 9
  %13 = load i8, i8* %12, align 1
  %14 = icmp ne i8 %13, 0
  %15 = getelementptr inbounds %struct.State, %struct.State* %0, i64 0, i32 2, i32 13
  %16 = load i8, i8* %15, align 1
  %17 = icmp ne i8 %16, 0
  %18 = xor i1 %14, %17
  %19 = xor i1 %18, true
  %20 = zext i1 %19 to i8
  store i8 %20, i8* %BRANCH_TAKEN, align 1
  %21 = getelementptr inbounds %struct.State, %struct.State* %0, i64 0, i32 6, i32 33, i32 0, i32 0
  %22 = select i1 %18, i64 %9, i64 %7
  store i64 %22, i64* %21, align 8
  ret %struct.Memory* %2
}

define %struct.Memory* @routine_movq__0x0__MINUS0x48__rbp_(%struct.State* dereferenceable(3376), i64, %struct.Memory*) {
block_400488:
  %3 = getelementptr inbounds %struct.State, %struct.State* %0, i32 0, i32 6
  %4 = getelementptr inbounds %struct.GPR, %struct.GPR* %3, i32 0, i32 33
  %5 = getelementptr inbounds %struct.Reg, %struct.Reg* %4, i32 0, i32 0
  %PC = bitcast %union.anon* %5 to i64*
  %6 = getelementptr inbounds %struct.State, %struct.State* %0, i32 0, i32 6
  %7 = getelementptr inbounds %struct.GPR, %struct.GPR* %6, i32 0, i32 15
  %8 = getelementptr inbounds %struct.Reg, %struct.Reg* %7, i32 0, i32 0
  %RBP = bitcast %union.anon* %8 to i64*
  %9 = load i64, i64* %RBP
  %10 = sub i64 %9, 72
  %11 = load i64, i64* %PC
  %12 = add i64 %11, 8
  store i64 %12, i64* %PC
  %13 = inttoptr i64 %10 to i64*
  store i64 0, i64* %13
  ret %struct.Memory* %2
}

define %struct.Memory* @routine_movl__0x0__MINUS0x4c__rbp_(%struct.State* dereferenceable(3376), i64, %struct.Memory*) {
block_400488:
  %3 = getelementptr inbounds %struct.State, %struct.State* %0, i32 0, i32 6
  %4 = getelementptr inbounds %struct.GPR, %struct.GPR* %3, i32 0, i32 33
  %5 = getelementptr inbounds %struct.Reg, %struct.Reg* %4, i32 0, i32 0
  %PC = bitcast %union.anon* %5 to i64*
  %6 = getelementptr inbounds %struct.State, %struct.State* %0, i32 0, i32 6
  %7 = getelementptr inbounds %struct.GPR, %struct.GPR* %6, i32 0, i32 15
  %8 = getelementptr inbounds %struct.Reg, %struct.Reg* %7, i32 0, i32 0
  %RBP = bitcast %union.anon* %8 to i64*
  %9 = load i64, i64* %RBP
  %10 = sub i64 %9, 76
  %11 = load i64, i64* %PC
  %12 = add i64 %11, 7
  store i64 %12, i64* %PC
  %13 = inttoptr i64 %10 to i32*
  store i32 0, i32* %13
  ret %struct.Memory* %2
}

define %struct.Memory* @routine_movl_MINUS0x4c__rbp____eax(%struct.State* dereferenceable(3376), i64, %struct.Memory*) {
block_400488:
  %3 = getelementptr inbounds %struct.State, %struct.State* %0, i32 0, i32 6
  %4 = getelementptr inbounds %struct.GPR, %struct.GPR* %3, i32 0, i32 33
  %5 = getelementptr inbounds %struct.Reg, %struct.Reg* %4, i32 0, i32 0
  %PC = bitcast %union.anon* %5 to i64*
  %6 = getelementptr inbounds %struct.State, %struct.State* %0, i32 0, i32 6
  %7 = getelementptr inbounds %struct.GPR, %struct.GPR* %6, i32 0, i32 1
  %8 = getelementptr inbounds %struct.Reg, %struct.Reg* %7, i32 0, i32 0
  %RAX = bitcast %union.anon* %8 to i64*
  %9 = getelementptr inbounds %struct.State, %struct.State* %0, i32 0, i32 6
  %10 = getelementptr inbounds %struct.GPR, %struct.GPR* %9, i32 0, i32 15
  %11 = getelementptr inbounds %struct.Reg, %struct.Reg* %10, i32 0, i32 0
  %RBP = bitcast %union.anon* %11 to i64*
  %12 = load i64, i64* %RBP
  %13 = sub i64 %12, 76
  %14 = load i64, i64* %PC
  %15 = add i64 %14, 3
  store i64 %15, i64* %PC
  %16 = inttoptr i64 %13 to i32*
  %17 = load i32, i32* %16
  %18 = zext i32 %17 to i64
  store i64 %18, i64* %RAX, align 8
  ret %struct.Memory* %2
}

define %struct.Memory* @routine_cmpl_MINUS0xc__rbp____eax(%struct.State* dereferenceable(3376), i64, %struct.Memory*) {
block_400488:
  %3 = getelementptr inbounds %struct.State, %struct.State* %0, i32 0, i32 6
  %4 = getelementptr inbounds %struct.GPR, %struct.GPR* %3, i32 0, i32 33
  %5 = getelementptr inbounds %struct.Reg, %struct.Reg* %4, i32 0, i32 0
  %PC = bitcast %union.anon* %5 to i64*
  %6 = getelementptr inbounds %struct.State, %struct.State* %0, i32 0, i32 6
  %7 = getelementptr inbounds %struct.GPR, %struct.GPR* %6, i32 0, i32 1
  %8 = getelementptr inbounds %struct.Reg, %struct.Reg* %7, i32 0, i32 0
  %EAX = bitcast %union.anon* %8 to i32*
  %9 = getelementptr inbounds %struct.State, %struct.State* %0, i32 0, i32 6
  %10 = getelementptr inbounds %struct.GPR, %struct.GPR* %9, i32 0, i32 15
  %11 = getelementptr inbounds %struct.Reg, %struct.Reg* %10, i32 0, i32 0
  %RBP = bitcast %union.anon* %11 to i64*
  %12 = load i32, i32* %EAX
  %13 = zext i32 %12 to i64
  %14 = load i64, i64* %RBP
  %15 = sub i64 %14, 12
  %16 = load i64, i64* %PC
  %17 = add i64 %16, 3
  store i64 %17, i64* %PC
  %18 = inttoptr i64 %15 to i32*
  %19 = load i32, i32* %18
  %20 = sub i32 %12, %19
  %21 = icmp ult i32 %12, %19
  %22 = zext i1 %21 to i8
  %23 = getelementptr inbounds %struct.State, %struct.State* %0, i64 0, i32 2, i32 1
  store i8 %22, i8* %23, align 1
  %24 = and i32 %20, 255
  %25 = call i32 @llvm.ctpop.i32(i32 %24)
  %26 = trunc i32 %25 to i8
  %27 = and i8 %26, 1
  %28 = xor i8 %27, 1
  %29 = getelementptr inbounds %struct.State, %struct.State* %0, i64 0, i32 2, i32 3
  store i8 %28, i8* %29, align 1
  %30 = xor i32 %19, %12
  %31 = xor i32 %30, %20
  %32 = lshr i32 %31, 4
  %33 = trunc i32 %32 to i8
  %34 = and i8 %33, 1
  %35 = getelementptr inbounds %struct.State, %struct.State* %0, i64 0, i32 2, i32 5
  store i8 %34, i8* %35, align 1
  %36 = icmp eq i32 %20, 0
  %37 = zext i1 %36 to i8
  %38 = getelementptr inbounds %struct.State, %struct.State* %0, i64 0, i32 2, i32 7
  store i8 %37, i8* %38, align 1
  %39 = lshr i32 %20, 31
  %40 = trunc i32 %39 to i8
  %41 = getelementptr inbounds %struct.State, %struct.State* %0, i64 0, i32 2, i32 9
  store i8 %40, i8* %41, align 1
  %42 = lshr i32 %12, 31
  %43 = lshr i32 %19, 31
  %44 = xor i32 %43, %42
  %45 = xor i32 %39, %42
  %46 = add i32 %45, %44
  %47 = icmp eq i32 %46, 2
  %48 = zext i1 %47 to i8
  %49 = getelementptr inbounds %struct.State, %struct.State* %0, i64 0, i32 2, i32 13
  store i8 %48, i8* %49, align 1
  ret %struct.Memory* %2
}

define %struct.Memory* @routine_jge_.L_409a65(%struct.State* dereferenceable(3376), i64, %struct.Memory*, i8* %BRANCH_TAKEN, i64 %rel_off1, i64 %rel_off2, i64 %rel_off3) {
block_400488:
  %3 = getelementptr inbounds %struct.State, %struct.State* %0, i32 0, i32 6
  %4 = getelementptr inbounds %struct.GPR, %struct.GPR* %3, i32 0, i32 33
  %5 = getelementptr inbounds %struct.Reg, %struct.Reg* %4, i32 0, i32 0
  %PC = bitcast %union.anon* %5 to i64*
  %6 = load i64, i64* %PC
  %7 = add i64 %6, %rel_off1
  %8 = load i64, i64* %PC
  %9 = add i64 %8, %rel_off2
  %10 = load i64, i64* %PC
  %11 = add i64 %10, %rel_off3
  store i64 %11, i64* %PC
  %12 = getelementptr inbounds %struct.State, %struct.State* %0, i64 0, i32 2, i32 9
  %13 = load i8, i8* %12, align 1
  %14 = icmp ne i8 %13, 0
  %15 = getelementptr inbounds %struct.State, %struct.State* %0, i64 0, i32 2, i32 13
  %16 = load i8, i8* %15, align 1
  %17 = icmp ne i8 %16, 0
  %18 = xor i1 %14, %17
  %19 = xor i1 %18, true
  %20 = zext i1 %19 to i8
  store i8 %20, i8* %BRANCH_TAKEN, align 1
  %21 = getelementptr inbounds %struct.State, %struct.State* %0, i64 0, i32 6, i32 33, i32 0, i32 0
  %22 = select i1 %18, i64 %9, i64 %7
  store i64 %22, i64* %21, align 8
  ret %struct.Memory* %2
}

define %struct.Memory* @routine_movq_MINUS0x8__rbp____rax(%struct.State* dereferenceable(3376), i64, %struct.Memory*) {
block_400488:
  %3 = getelementptr inbounds %struct.State, %struct.State* %0, i32 0, i32 6
  %4 = getelementptr inbounds %struct.GPR, %struct.GPR* %3, i32 0, i32 33
  %5 = getelementptr inbounds %struct.Reg, %struct.Reg* %4, i32 0, i32 0
  %PC = bitcast %union.anon* %5 to i64*
  %6 = getelementptr inbounds %struct.State, %struct.State* %0, i32 0, i32 6
  %7 = getelementptr inbounds %struct.GPR, %struct.GPR* %6, i32 0, i32 1
  %8 = getelementptr inbounds %struct.Reg, %struct.Reg* %7, i32 0, i32 0
  %RAX = bitcast %union.anon* %8 to i64*
  %9 = getelementptr inbounds %struct.State, %struct.State* %0, i32 0, i32 6
  %10 = getelementptr inbounds %struct.GPR, %struct.GPR* %9, i32 0, i32 15
  %11 = getelementptr inbounds %struct.Reg, %struct.Reg* %10, i32 0, i32 0
  %RBP = bitcast %union.anon* %11 to i64*
  %12 = load i64, i64* %RBP
  %13 = sub i64 %12, 8
  %14 = load i64, i64* %PC
  %15 = add i64 %14, 4
  store i64 %15, i64* %PC
  %16 = inttoptr i64 %13 to i64*
  %17 = load i64, i64* %16
  store i64 %17, i64* %RAX, align 8
  ret %struct.Memory* %2
}

define %struct.Memory* @routine_movslq_MINUS0x4c__rbp____rcx(%struct.State* dereferenceable(3376), i64, %struct.Memory*) {
block_400488:
  %3 = getelementptr inbounds %struct.State, %struct.State* %0, i32 0, i32 6
  %4 = getelementptr inbounds %struct.GPR, %struct.GPR* %3, i32 0, i32 33
  %5 = getelementptr inbounds %struct.Reg, %struct.Reg* %4, i32 0, i32 0
  %PC = bitcast %union.anon* %5 to i64*
  %6 = getelementptr inbounds %struct.State, %struct.State* %0, i32 0, i32 6
  %7 = getelementptr inbounds %struct.GPR, %struct.GPR* %6, i32 0, i32 5
  %8 = getelementptr inbounds %struct.Reg, %struct.Reg* %7, i32 0, i32 0
  %RCX = bitcast %union.anon* %8 to i64*
  %9 = getelementptr inbounds %struct.State, %struct.State* %0, i32 0, i32 6
  %10 = getelementptr inbounds %struct.GPR, %struct.GPR* %9, i32 0, i32 15
  %11 = getelementptr inbounds %struct.Reg, %struct.Reg* %10, i32 0, i32 0
  %RBP = bitcast %union.anon* %11 to i64*
  %12 = load i64, i64* %RBP
  %13 = sub i64 %12, 76
  %14 = load i64, i64* %PC
  %15 = add i64 %14, 4
  store i64 %15, i64* %PC
  %16 = inttoptr i64 %13 to i32*
  %17 = load i32, i32* %16
  %18 = sext i32 %17 to i64
  store i64 %18, i64* %RCX, align 8
  ret %struct.Memory* %2
}

define %struct.Memory* @routine_movq___rax__rcx_8____rdi(%struct.State* dereferenceable(3376), i64, %struct.Memory*) {
block_400488:
  %3 = getelementptr inbounds %struct.State, %struct.State* %0, i32 0, i32 6
  %4 = getelementptr inbounds %struct.GPR, %struct.GPR* %3, i32 0, i32 33
  %5 = getelementptr inbounds %struct.Reg, %struct.Reg* %4, i32 0, i32 0
  %PC = bitcast %union.anon* %5 to i64*
  %6 = getelementptr inbounds %struct.State, %struct.State* %0, i32 0, i32 6
  %7 = getelementptr inbounds %struct.GPR, %struct.GPR* %6, i32 0, i32 1
  %8 = getelementptr inbounds %struct.Reg, %struct.Reg* %7, i32 0, i32 0
  %RAX = bitcast %union.anon* %8 to i64*
  %9 = getelementptr inbounds %struct.State, %struct.State* %0, i32 0, i32 6
  %10 = getelementptr inbounds %struct.GPR, %struct.GPR* %9, i32 0, i32 5
  %11 = getelementptr inbounds %struct.Reg, %struct.Reg* %10, i32 0, i32 0
  %RCX = bitcast %union.anon* %11 to i64*
  %12 = getelementptr inbounds %struct.State, %struct.State* %0, i32 0, i32 6
  %13 = getelementptr inbounds %struct.GPR, %struct.GPR* %12, i32 0, i32 11
  %14 = getelementptr inbounds %struct.Reg, %struct.Reg* %13, i32 0, i32 0
  %RDI = bitcast %union.anon* %14 to i64*
  %15 = load i64, i64* %RAX
  %16 = load i64, i64* %RCX
  %17 = mul i64 %16, 8
  %18 = add i64 %17, %15
  %19 = load i64, i64* %PC
  %20 = add i64 %19, 4
  store i64 %20, i64* %PC
  %21 = inttoptr i64 %18 to i64*
  %22 = load i64, i64* %21
  store i64 %22, i64* %RDI, align 8
  ret %struct.Memory* %2
}

define %struct.Memory* @routine_movq_MINUS0x18__rbp____rsi(%struct.State* dereferenceable(3376), i64, %struct.Memory*) {
block_400488:
  %3 = getelementptr inbounds %struct.State, %struct.State* %0, i32 0, i32 6
  %4 = getelementptr inbounds %struct.GPR, %struct.GPR* %3, i32 0, i32 33
  %5 = getelementptr inbounds %struct.Reg, %struct.Reg* %4, i32 0, i32 0
  %PC = bitcast %union.anon* %5 to i64*
  %6 = getelementptr inbounds %struct.State, %struct.State* %0, i32 0, i32 6
  %7 = getelementptr inbounds %struct.GPR, %struct.GPR* %6, i32 0, i32 9
  %8 = getelementptr inbounds %struct.Reg, %struct.Reg* %7, i32 0, i32 0
  %RSI = bitcast %union.anon* %8 to i64*
  %9 = getelementptr inbounds %struct.State, %struct.State* %0, i32 0, i32 6
  %10 = getelementptr inbounds %struct.GPR, %struct.GPR* %9, i32 0, i32 15
  %11 = getelementptr inbounds %struct.Reg, %struct.Reg* %10, i32 0, i32 0
  %RBP = bitcast %union.anon* %11 to i64*
  %12 = load i64, i64* %RBP
  %13 = sub i64 %12, 24
  %14 = load i64, i64* %PC
  %15 = add i64 %14, 4
  store i64 %15, i64* %PC
  %16 = inttoptr i64 %13 to i64*
  %17 = load i64, i64* %16
  store i64 %17, i64* %RSI, align 8
  ret %struct.Memory* %2
}

define %struct.Memory* @routine_movq_MINUS0x20__rbp____rdx(%struct.State* dereferenceable(3376), i64, %struct.Memory*) {
block_400488:
  %3 = getelementptr inbounds %struct.State, %struct.State* %0, i32 0, i32 6
  %4 = getelementptr inbounds %struct.GPR, %struct.GPR* %3, i32 0, i32 33
  %5 = getelementptr inbounds %struct.Reg, %struct.Reg* %4, i32 0, i32 0
  %PC = bitcast %union.anon* %5 to i64*
  %6 = getelementptr inbounds %struct.State, %struct.State* %0, i32 0, i32 6
  %7 = getelementptr inbounds %struct.GPR, %struct.GPR* %6, i32 0, i32 7
  %8 = getelementptr inbounds %struct.Reg, %struct.Reg* %7, i32 0, i32 0
  %RDX = bitcast %union.anon* %8 to i64*
  %9 = getelementptr inbounds %struct.State, %struct.State* %0, i32 0, i32 6
  %10 = getelementptr inbounds %struct.GPR, %struct.GPR* %9, i32 0, i32 15
  %11 = getelementptr inbounds %struct.Reg, %struct.Reg* %10, i32 0, i32 0
  %RBP = bitcast %union.anon* %11 to i64*
  %12 = load i64, i64* %RBP
  %13 = sub i64 %12, 32
  %14 = load i64, i64* %PC
  %15 = add i64 %14, 4
  store i64 %15, i64* %PC
  %16 = inttoptr i64 %13 to i64*
  %17 = load i64, i64* %16
  store i64 %17, i64* %RDX, align 8
  ret %struct.Memory* %2
}

define %struct.Memory* @routine_movq_MINUS0x28__rbp____rcx(%struct.State* dereferenceable(3376), i64, %struct.Memory*) {
block_400488:
  %3 = getelementptr inbounds %struct.State, %struct.State* %0, i32 0, i32 6
  %4 = getelementptr inbounds %struct.GPR, %struct.GPR* %3, i32 0, i32 33
  %5 = getelementptr inbounds %struct.Reg, %struct.Reg* %4, i32 0, i32 0
  %PC = bitcast %union.anon* %5 to i64*
  %6 = getelementptr inbounds %struct.State, %struct.State* %0, i32 0, i32 6
  %7 = getelementptr inbounds %struct.GPR, %struct.GPR* %6, i32 0, i32 5
  %8 = getelementptr inbounds %struct.Reg, %struct.Reg* %7, i32 0, i32 0
  %RCX = bitcast %union.anon* %8 to i64*
  %9 = getelementptr inbounds %struct.State, %struct.State* %0, i32 0, i32 6
  %10 = getelementptr inbounds %struct.GPR, %struct.GPR* %9, i32 0, i32 15
  %11 = getelementptr inbounds %struct.Reg, %struct.Reg* %10, i32 0, i32 0
  %RBP = bitcast %union.anon* %11 to i64*
  %12 = load i64, i64* %RBP
  %13 = sub i64 %12, 40
  %14 = load i64, i64* %PC
  %15 = add i64 %14, 4
  store i64 %15, i64* %PC
  %16 = inttoptr i64 %13 to i64*
  %17 = load i64, i64* %16
  store i64 %17, i64* %RCX, align 8
  ret %struct.Memory* %2
}

define %struct.Memory* @routine_movq_MINUS0x30__rbp____r8(%struct.State* dereferenceable(3376), i64, %struct.Memory*) {
block_400488:
  %3 = getelementptr inbounds %struct.State, %struct.State* %0, i32 0, i32 6
  %4 = getelementptr inbounds %struct.GPR, %struct.GPR* %3, i32 0, i32 33
  %5 = getelementptr inbounds %struct.Reg, %struct.Reg* %4, i32 0, i32 0
  %PC = bitcast %union.anon* %5 to i64*
  %6 = getelementptr inbounds %struct.State, %struct.State* %0, i32 0, i32 6
  %7 = getelementptr inbounds %struct.GPR, %struct.GPR* %6, i32 0, i32 15
  %8 = getelementptr inbounds %struct.Reg, %struct.Reg* %7, i32 0, i32 0
  %RBP = bitcast %union.anon* %8 to i64*
  %9 = getelementptr inbounds %struct.State, %struct.State* %0, i32 0, i32 6
  %10 = getelementptr inbounds %struct.GPR, %struct.GPR* %9, i32 0, i32 17
  %11 = getelementptr inbounds %struct.Reg, %struct.Reg* %10, i32 0, i32 0
  %R8 = bitcast %union.anon* %11 to i64*
  %12 = load i64, i64* %RBP
  %13 = sub i64 %12, 48
  %14 = load i64, i64* %PC
  %15 = add i64 %14, 4
  store i64 %15, i64* %PC
  %16 = inttoptr i64 %13 to i64*
  %17 = load i64, i64* %16
  store i64 %17, i64* %R8, align 8
  ret %struct.Memory* %2
}

define %struct.Memory* @routine_callq_._ZN28custom_multiple_variable_andIlE8do_shiftElllll(%struct.State* dereferenceable(3376), i64, %struct.Memory*, i64 %rel_off1, i64 %rel_off2, i64 %rel_off3) {
block_400488:
  %3 = getelementptr inbounds %struct.State, %struct.State* %0, i32 0, i32 6
  %4 = getelementptr inbounds %struct.GPR, %struct.GPR* %3, i32 0, i32 33
  %5 = getelementptr inbounds %struct.Reg, %struct.Reg* %4, i32 0, i32 0
  %PC = bitcast %union.anon* %5 to i64*
  %6 = load i64, i64* %PC
  %7 = add i64 %6, %rel_off1
  %8 = load i64, i64* %PC
  %9 = add i64 %8, %rel_off2
  %10 = load i64, i64* %PC
  %11 = add i64 %10, %rel_off3
  store i64 %11, i64* %PC
  %12 = getelementptr inbounds %struct.State, %struct.State* %0, i64 0, i32 6, i32 13, i32 0, i32 0
  %13 = load i64, i64* %12, align 8
  %14 = add i64 %13, -8
  %15 = inttoptr i64 %14 to i64*
  store i64 %9, i64* %15
  store i64 %14, i64* %12, align 8
  %16 = getelementptr inbounds %struct.State, %struct.State* %0, i64 0, i32 6, i32 33, i32 0, i32 0
  store i64 %7, i64* %16, align 8
  ret %struct.Memory* %2
}

define %struct.Memory* @routine_addq_MINUS0x48__rbp____rax(%struct.State* dereferenceable(3376), i64, %struct.Memory*) {
block_400488:
  %3 = getelementptr inbounds %struct.State, %struct.State* %0, i32 0, i32 6
  %4 = getelementptr inbounds %struct.GPR, %struct.GPR* %3, i32 0, i32 33
  %5 = getelementptr inbounds %struct.Reg, %struct.Reg* %4, i32 0, i32 0
  %PC = bitcast %union.anon* %5 to i64*
  %6 = getelementptr inbounds %struct.State, %struct.State* %0, i32 0, i32 6
  %7 = getelementptr inbounds %struct.GPR, %struct.GPR* %6, i32 0, i32 1
  %8 = getelementptr inbounds %struct.Reg, %struct.Reg* %7, i32 0, i32 0
  %RAX = bitcast %union.anon* %8 to i64*
  %9 = getelementptr inbounds %struct.State, %struct.State* %0, i32 0, i32 6
  %10 = getelementptr inbounds %struct.GPR, %struct.GPR* %9, i32 0, i32 15
  %11 = getelementptr inbounds %struct.Reg, %struct.Reg* %10, i32 0, i32 0
  %RBP = bitcast %union.anon* %11 to i64*
  %12 = load i64, i64* %RAX
  %13 = load i64, i64* %RBP
  %14 = sub i64 %13, 72
  %15 = load i64, i64* %PC
  %16 = add i64 %15, 4
  store i64 %16, i64* %PC
  %17 = inttoptr i64 %14 to i64*
  %18 = load i64, i64* %17
  %19 = add i64 %18, %12
  store i64 %19, i64* %RAX, align 8
  %20 = icmp ult i64 %19, %12
  %21 = icmp ult i64 %19, %18
  %22 = or i1 %20, %21
  %23 = zext i1 %22 to i8
  %24 = getelementptr inbounds %struct.State, %struct.State* %0, i64 0, i32 2, i32 1
  store i8 %23, i8* %24, align 1
  %25 = trunc i64 %19 to i32
  %26 = and i32 %25, 255
  %27 = call i32 @llvm.ctpop.i32(i32 %26)
  %28 = trunc i32 %27 to i8
  %29 = and i8 %28, 1
  %30 = xor i8 %29, 1
  %31 = getelementptr inbounds %struct.State, %struct.State* %0, i64 0, i32 2, i32 3
  store i8 %30, i8* %31, align 1
  %32 = xor i64 %18, %12
  %33 = xor i64 %32, %19
  %34 = lshr i64 %33, 4
  %35 = trunc i64 %34 to i8
  %36 = and i8 %35, 1
  %37 = getelementptr inbounds %struct.State, %struct.State* %0, i64 0, i32 2, i32 5
  store i8 %36, i8* %37, align 1
  %38 = icmp eq i64 %19, 0
  %39 = zext i1 %38 to i8
  %40 = getelementptr inbounds %struct.State, %struct.State* %0, i64 0, i32 2, i32 7
  store i8 %39, i8* %40, align 1
  %41 = lshr i64 %19, 63
  %42 = trunc i64 %41 to i8
  %43 = getelementptr inbounds %struct.State, %struct.State* %0, i64 0, i32 2, i32 9
  store i8 %42, i8* %43, align 1
  %44 = lshr i64 %12, 63
  %45 = lshr i64 %18, 63
  %46 = xor i64 %41, %44
  %47 = xor i64 %41, %45
  %48 = add i64 %46, %47
  %49 = icmp eq i64 %48, 2
  %50 = zext i1 %49 to i8
  %51 = getelementptr inbounds %struct.State, %struct.State* %0, i64 0, i32 2, i32 13
  store i8 %50, i8* %51, align 1
  ret %struct.Memory* %2
}

define %struct.Memory* @routine_movq__rax__MINUS0x48__rbp_(%struct.State* dereferenceable(3376), i64, %struct.Memory*) {
block_400488:
  %3 = getelementptr inbounds %struct.State, %struct.State* %0, i32 0, i32 6
  %4 = getelementptr inbounds %struct.GPR, %struct.GPR* %3, i32 0, i32 33
  %5 = getelementptr inbounds %struct.Reg, %struct.Reg* %4, i32 0, i32 0
  %PC = bitcast %union.anon* %5 to i64*
  %6 = getelementptr inbounds %struct.State, %struct.State* %0, i32 0, i32 6
  %7 = getelementptr inbounds %struct.GPR, %struct.GPR* %6, i32 0, i32 1
  %8 = getelementptr inbounds %struct.Reg, %struct.Reg* %7, i32 0, i32 0
  %RAX = bitcast %union.anon* %8 to i64*
  %9 = getelementptr inbounds %struct.State, %struct.State* %0, i32 0, i32 6
  %10 = getelementptr inbounds %struct.GPR, %struct.GPR* %9, i32 0, i32 15
  %11 = getelementptr inbounds %struct.Reg, %struct.Reg* %10, i32 0, i32 0
  %RBP = bitcast %union.anon* %11 to i64*
  %12 = load i64, i64* %RBP
  %13 = sub i64 %12, 72
  %14 = load i64, i64* %RAX
  %15 = load i64, i64* %PC
  %16 = add i64 %15, 4
  store i64 %16, i64* %PC
  %17 = inttoptr i64 %13 to i64*
  store i64 %14, i64* %17
  ret %struct.Memory* %2
}

define %struct.Memory* @routine_addl__0x1___eax(%struct.State* dereferenceable(3376), i64, %struct.Memory*) {
block_400488:
  %3 = getelementptr inbounds %struct.State, %struct.State* %0, i32 0, i32 6
  %4 = getelementptr inbounds %struct.GPR, %struct.GPR* %3, i32 0, i32 33
  %5 = getelementptr inbounds %struct.Reg, %struct.Reg* %4, i32 0, i32 0
  %PC = bitcast %union.anon* %5 to i64*
  %6 = getelementptr inbounds %struct.State, %struct.State* %0, i32 0, i32 6
  %7 = getelementptr inbounds %struct.GPR, %struct.GPR* %6, i32 0, i32 1
  %8 = getelementptr inbounds %struct.Reg, %struct.Reg* %7, i32 0, i32 0
  %RAX = bitcast %union.anon* %8 to i64*
  %9 = load i64, i64* %RAX
  %10 = load i64, i64* %PC
  %11 = add i64 %10, 3
  store i64 %11, i64* %PC
  %12 = trunc i64 %9 to i32
  %13 = add i32 1, %12
  %14 = zext i32 %13 to i64
  store i64 %14, i64* %RAX, align 8
  %15 = icmp ult i32 %13, %12
  %16 = icmp ult i32 %13, 1
  %17 = or i1 %15, %16
  %18 = zext i1 %17 to i8
  %19 = getelementptr inbounds %struct.State, %struct.State* %0, i64 0, i32 2, i32 1
  store i8 %18, i8* %19, align 1
  %20 = and i32 %13, 255
  %21 = call i32 @llvm.ctpop.i32(i32 %20)
  %22 = trunc i32 %21 to i8
  %23 = and i8 %22, 1
  %24 = xor i8 %23, 1
  %25 = getelementptr inbounds %struct.State, %struct.State* %0, i64 0, i32 2, i32 3
  store i8 %24, i8* %25, align 1
  %26 = xor i64 1, %9
  %27 = trunc i64 %26 to i32
  %28 = xor i32 %27, %13
  %29 = lshr i32 %28, 4
  %30 = trunc i32 %29 to i8
  %31 = and i8 %30, 1
  %32 = getelementptr inbounds %struct.State, %struct.State* %0, i64 0, i32 2, i32 5
  store i8 %31, i8* %32, align 1
  %33 = icmp eq i32 %13, 0
  %34 = zext i1 %33 to i8
  %35 = getelementptr inbounds %struct.State, %struct.State* %0, i64 0, i32 2, i32 7
  store i8 %34, i8* %35, align 1
  %36 = lshr i32 %13, 31
  %37 = trunc i32 %36 to i8
  %38 = getelementptr inbounds %struct.State, %struct.State* %0, i64 0, i32 2, i32 9
  store i8 %37, i8* %38, align 1
  %39 = lshr i32 %12, 31
  %40 = xor i32 %36, %39
  %41 = add i32 %40, %36
  %42 = icmp eq i32 %41, 2
  %43 = zext i1 %42 to i8
  %44 = getelementptr inbounds %struct.State, %struct.State* %0, i64 0, i32 2, i32 13
  store i8 %43, i8* %44, align 1
  ret %struct.Memory* %2
}

define %struct.Memory* @routine_movl__eax__MINUS0x4c__rbp_(%struct.State* dereferenceable(3376), i64, %struct.Memory*) {
block_400488:
  %3 = getelementptr inbounds %struct.State, %struct.State* %0, i32 0, i32 6
  %4 = getelementptr inbounds %struct.GPR, %struct.GPR* %3, i32 0, i32 33
  %5 = getelementptr inbounds %struct.Reg, %struct.Reg* %4, i32 0, i32 0
  %PC = bitcast %union.anon* %5 to i64*
  %6 = getelementptr inbounds %struct.State, %struct.State* %0, i32 0, i32 6
  %7 = getelementptr inbounds %struct.GPR, %struct.GPR* %6, i32 0, i32 1
  %8 = getelementptr inbounds %struct.Reg, %struct.Reg* %7, i32 0, i32 0
  %EAX = bitcast %union.anon* %8 to i32*
  %9 = getelementptr inbounds %struct.State, %struct.State* %0, i32 0, i32 6
  %10 = getelementptr inbounds %struct.GPR, %struct.GPR* %9, i32 0, i32 15
  %11 = getelementptr inbounds %struct.Reg, %struct.Reg* %10, i32 0, i32 0
  %RBP = bitcast %union.anon* %11 to i64*
  %12 = load i64, i64* %RBP
  %13 = sub i64 %12, 76
  %14 = load i32, i32* %EAX
  %15 = zext i32 %14 to i64
  %16 = load i64, i64* %PC
  %17 = add i64 %16, 3
  store i64 %17, i64* %PC
  %18 = inttoptr i64 %13 to i32*
  store i32 %14, i32* %18
  ret %struct.Memory* %2
}

define %struct.Memory* @routine_jmpq_.L_409a22(%struct.State* dereferenceable(3376), i64, %struct.Memory*, i64 %rel_off1, i64 %rel_off2) {
block_400488:
  %3 = getelementptr inbounds %struct.State, %struct.State* %0, i32 0, i32 6
  %4 = getelementptr inbounds %struct.GPR, %struct.GPR* %3, i32 0, i32 33
  %5 = getelementptr inbounds %struct.Reg, %struct.Reg* %4, i32 0, i32 0
  %PC = bitcast %union.anon* %5 to i64*
  %6 = load i64, i64* %PC
  %7 = add i64 %6, %rel_off1
  %8 = load i64, i64* %PC
  %9 = add i64 %8, %rel_off2
  store i64 %9, i64* %PC
  %10 = getelementptr inbounds %struct.State, %struct.State* %0, i64 0, i32 6, i32 33, i32 0, i32 0
  store i64 %7, i64* %10, align 8
  ret %struct.Memory* %2
}

define %struct.Memory* @routine_movq_MINUS0x48__rbp____rdi(%struct.State* dereferenceable(3376), i64, %struct.Memory*) {
block_400488:
  %3 = getelementptr inbounds %struct.State, %struct.State* %0, i32 0, i32 6
  %4 = getelementptr inbounds %struct.GPR, %struct.GPR* %3, i32 0, i32 33
  %5 = getelementptr inbounds %struct.Reg, %struct.Reg* %4, i32 0, i32 0
  %PC = bitcast %union.anon* %5 to i64*
  %6 = getelementptr inbounds %struct.State, %struct.State* %0, i32 0, i32 6
  %7 = getelementptr inbounds %struct.GPR, %struct.GPR* %6, i32 0, i32 11
  %8 = getelementptr inbounds %struct.Reg, %struct.Reg* %7, i32 0, i32 0
  %RDI = bitcast %union.anon* %8 to i64*
  %9 = getelementptr inbounds %struct.State, %struct.State* %0, i32 0, i32 6
  %10 = getelementptr inbounds %struct.GPR, %struct.GPR* %9, i32 0, i32 15
  %11 = getelementptr inbounds %struct.Reg, %struct.Reg* %10, i32 0, i32 0
  %RBP = bitcast %union.anon* %11 to i64*
  %12 = load i64, i64* %RBP
  %13 = sub i64 %12, 72
  %14 = load i64, i64* %PC
  %15 = add i64 %14, 4
  store i64 %15, i64* %PC
  %16 = inttoptr i64 %13 to i64*
  %17 = load i64, i64* %16
  store i64 %17, i64* %RDI, align 8
  ret %struct.Memory* %2
}

define %struct.Memory* @routine_callq_._Z26check_shifted_variable_sumIl28custom_multiple_variable_andIlEEvT_S2_S2_S2_S2_(%struct.State* dereferenceable(3376), i64, %struct.Memory*, i64 %rel_off1, i64 %rel_off2, i64 %rel_off3) {
block_400488:
  %3 = getelementptr inbounds %struct.State, %struct.State* %0, i32 0, i32 6
  %4 = getelementptr inbounds %struct.GPR, %struct.GPR* %3, i32 0, i32 33
  %5 = getelementptr inbounds %struct.Reg, %struct.Reg* %4, i32 0, i32 0
  %PC = bitcast %union.anon* %5 to i64*
  %6 = load i64, i64* %PC
  %7 = add i64 %6, %rel_off1
  %8 = load i64, i64* %PC
  %9 = add i64 %8, %rel_off2
  %10 = load i64, i64* %PC
  %11 = add i64 %10, %rel_off3
  store i64 %11, i64* %PC
  %12 = getelementptr inbounds %struct.State, %struct.State* %0, i64 0, i32 6, i32 13, i32 0, i32 0
  %13 = load i64, i64* %12, align 8
  %14 = add i64 %13, -8
  %15 = inttoptr i64 %14 to i64*
  store i64 %9, i64* %15
  store i64 %14, i64* %12, align 8
  %16 = getelementptr inbounds %struct.State, %struct.State* %0, i64 0, i32 6, i32 33, i32 0, i32 0
  store i64 %7, i64* %16, align 8
  ret %struct.Memory* %2
}

define %struct.Memory* @routine_movl__eax__MINUS0x3c__rbp_(%struct.State* dereferenceable(3376), i64, %struct.Memory*) {
block_400488:
  %3 = getelementptr inbounds %struct.State, %struct.State* %0, i32 0, i32 6
  %4 = getelementptr inbounds %struct.GPR, %struct.GPR* %3, i32 0, i32 33
  %5 = getelementptr inbounds %struct.Reg, %struct.Reg* %4, i32 0, i32 0
  %PC = bitcast %union.anon* %5 to i64*
  %6 = getelementptr inbounds %struct.State, %struct.State* %0, i32 0, i32 6
  %7 = getelementptr inbounds %struct.GPR, %struct.GPR* %6, i32 0, i32 1
  %8 = getelementptr inbounds %struct.Reg, %struct.Reg* %7, i32 0, i32 0
  %EAX = bitcast %union.anon* %8 to i32*
  %9 = getelementptr inbounds %struct.State, %struct.State* %0, i32 0, i32 6
  %10 = getelementptr inbounds %struct.GPR, %struct.GPR* %9, i32 0, i32 15
  %11 = getelementptr inbounds %struct.Reg, %struct.Reg* %10, i32 0, i32 0
  %RBP = bitcast %union.anon* %11 to i64*
  %12 = load i64, i64* %RBP
  %13 = sub i64 %12, 60
  %14 = load i32, i32* %EAX
  %15 = zext i32 %14 to i64
  %16 = load i64, i64* %PC
  %17 = add i64 %16, 3
  store i64 %17, i64* %PC
  %18 = inttoptr i64 %13 to i32*
  store i32 %14, i32* %18
  ret %struct.Memory* %2
}

define %struct.Memory* @routine_jmpq_.L_409a03(%struct.State* dereferenceable(3376), i64, %struct.Memory*, i64 %rel_off1, i64 %rel_off2) {
block_400488:
  %3 = getelementptr inbounds %struct.State, %struct.State* %0, i32 0, i32 6
  %4 = getelementptr inbounds %struct.GPR, %struct.GPR* %3, i32 0, i32 33
  %5 = getelementptr inbounds %struct.Reg, %struct.Reg* %4, i32 0, i32 0
  %PC = bitcast %union.anon* %5 to i64*
  %6 = load i64, i64* %PC
  %7 = add i64 %6, %rel_off1
  %8 = load i64, i64* %PC
  %9 = add i64 %8, %rel_off2
  store i64 %9, i64* %PC
  %10 = getelementptr inbounds %struct.State, %struct.State* %0, i64 0, i32 6, i32 33, i32 0, i32 0
  store i64 %7, i64* %10, align 8
  ret %struct.Memory* %2
}

define %struct.Memory* @routine_callq_._Z5timerv(%struct.State* dereferenceable(3376), i64, %struct.Memory*, i64 %rel_off1, i64 %rel_off2, i64 %rel_off3) {
block_400488:
  %3 = getelementptr inbounds %struct.State, %struct.State* %0, i32 0, i32 6
  %4 = getelementptr inbounds %struct.GPR, %struct.GPR* %3, i32 0, i32 33
  %5 = getelementptr inbounds %struct.Reg, %struct.Reg* %4, i32 0, i32 0
  %PC = bitcast %union.anon* %5 to i64*
  %6 = load i64, i64* %PC
  %7 = add i64 %6, %rel_off1
  %8 = load i64, i64* %PC
  %9 = add i64 %8, %rel_off2
  %10 = load i64, i64* %PC
  %11 = add i64 %10, %rel_off3
  store i64 %11, i64* %PC
  %12 = getelementptr inbounds %struct.State, %struct.State* %0, i64 0, i32 6, i32 13, i32 0, i32 0
  %13 = load i64, i64* %12, align 8
  %14 = add i64 %13, -8
  %15 = inttoptr i64 %14 to i64*
  store i64 %9, i64* %15
  store i64 %14, i64* %12, align 8
  %16 = getelementptr inbounds %struct.State, %struct.State* %0, i64 0, i32 6, i32 33, i32 0, i32 0
  store i64 %7, i64* %16, align 8
  ret %struct.Memory* %2
}

define %struct.Memory* @routine_movq_MINUS0x38__rbp____rdi(%struct.State* dereferenceable(3376), i64, %struct.Memory*) {
block_400488:
  %3 = getelementptr inbounds %struct.State, %struct.State* %0, i32 0, i32 6
  %4 = getelementptr inbounds %struct.GPR, %struct.GPR* %3, i32 0, i32 33
  %5 = getelementptr inbounds %struct.Reg, %struct.Reg* %4, i32 0, i32 0
  %PC = bitcast %union.anon* %5 to i64*
  %6 = getelementptr inbounds %struct.State, %struct.State* %0, i32 0, i32 6
  %7 = getelementptr inbounds %struct.GPR, %struct.GPR* %6, i32 0, i32 11
  %8 = getelementptr inbounds %struct.Reg, %struct.Reg* %7, i32 0, i32 0
  %RDI = bitcast %union.anon* %8 to i64*
  %9 = getelementptr inbounds %struct.State, %struct.State* %0, i32 0, i32 6
  %10 = getelementptr inbounds %struct.GPR, %struct.GPR* %9, i32 0, i32 15
  %11 = getelementptr inbounds %struct.Reg, %struct.Reg* %10, i32 0, i32 0
  %RBP = bitcast %union.anon* %11 to i64*
  %12 = load i64, i64* %RBP
  %13 = sub i64 %12, 56
  %14 = load i64, i64* %PC
  %15 = add i64 %14, 4
  store i64 %15, i64* %PC
  %16 = inttoptr i64 %13 to i64*
  %17 = load i64, i64* %16
  store i64 %17, i64* %RDI, align 8
  ret %struct.Memory* %2
}

define %struct.Memory* @routine_callq_._Z13record_resultdPKc(%struct.State* dereferenceable(3376), i64, %struct.Memory*, i64 %rel_off1, i64 %rel_off2, i64 %rel_off3) {
block_400488:
  %3 = getelementptr inbounds %struct.State, %struct.State* %0, i32 0, i32 6
  %4 = getelementptr inbounds %struct.GPR, %struct.GPR* %3, i32 0, i32 33
  %5 = getelementptr inbounds %struct.Reg, %struct.Reg* %4, i32 0, i32 0
  %PC = bitcast %union.anon* %5 to i64*
  %6 = load i64, i64* %PC
  %7 = add i64 %6, %rel_off1
  %8 = load i64, i64* %PC
  %9 = add i64 %8, %rel_off2
  %10 = load i64, i64* %PC
  %11 = add i64 %10, %rel_off3
  store i64 %11, i64* %PC
  %12 = getelementptr inbounds %struct.State, %struct.State* %0, i64 0, i32 6, i32 13, i32 0, i32 0
  %13 = load i64, i64* %12, align 8
  %14 = add i64 %13, -8
  %15 = inttoptr i64 %14 to i64*
  store i64 %9, i64* %15
  store i64 %14, i64* %12, align 8
  %16 = getelementptr inbounds %struct.State, %struct.State* %0, i64 0, i32 6, i32 33, i32 0, i32 0
  store i64 %7, i64* %16, align 8
  ret %struct.Memory* %2
}

define %struct.Memory* @routine_addq__0x50___rsp(%struct.State* dereferenceable(3376), i64, %struct.Memory*) {
block_400488:
  %3 = getelementptr inbounds %struct.State, %struct.State* %0, i32 0, i32 6
  %4 = getelementptr inbounds %struct.GPR, %struct.GPR* %3, i32 0, i32 33
  %5 = getelementptr inbounds %struct.Reg, %struct.Reg* %4, i32 0, i32 0
  %PC = bitcast %union.anon* %5 to i64*
  %6 = getelementptr inbounds %struct.State, %struct.State* %0, i32 0, i32 6
  %7 = getelementptr inbounds %struct.GPR, %struct.GPR* %6, i32 0, i32 13
  %8 = getelementptr inbounds %struct.Reg, %struct.Reg* %7, i32 0, i32 0
  %RSP = bitcast %union.anon* %8 to i64*
  %9 = load i64, i64* %RSP
  %10 = load i64, i64* %PC
  %11 = add i64 %10, 4
  store i64 %11, i64* %PC
  %12 = add i64 80, %9
  store i64 %12, i64* %RSP, align 8
  %13 = icmp ult i64 %12, %9
  %14 = icmp ult i64 %12, 80
  %15 = or i1 %13, %14
  %16 = zext i1 %15 to i8
  %17 = getelementptr inbounds %struct.State, %struct.State* %0, i64 0, i32 2, i32 1
  store i8 %16, i8* %17, align 1
  %18 = trunc i64 %12 to i32
  %19 = and i32 %18, 255
  %20 = call i32 @llvm.ctpop.i32(i32 %19)
  %21 = trunc i32 %20 to i8
  %22 = and i8 %21, 1
  %23 = xor i8 %22, 1
  %24 = getelementptr inbounds %struct.State, %struct.State* %0, i64 0, i32 2, i32 3
  store i8 %23, i8* %24, align 1
  %25 = xor i64 80, %9
  %26 = xor i64 %25, %12
  %27 = lshr i64 %26, 4
  %28 = trunc i64 %27 to i8
  %29 = and i8 %28, 1
  %30 = getelementptr inbounds %struct.State, %struct.State* %0, i64 0, i32 2, i32 5
  store i8 %29, i8* %30, align 1
  %31 = icmp eq i64 %12, 0
  %32 = zext i1 %31 to i8
  %33 = getelementptr inbounds %struct.State, %struct.State* %0, i64 0, i32 2, i32 7
  store i8 %32, i8* %33, align 1
  %34 = lshr i64 %12, 63
  %35 = trunc i64 %34 to i8
  %36 = getelementptr inbounds %struct.State, %struct.State* %0, i64 0, i32 2, i32 9
  store i8 %35, i8* %36, align 1
  %37 = lshr i64 %9, 63
  %38 = xor i64 %34, %37
  %39 = add i64 %38, %34
  %40 = icmp eq i64 %39, 2
  %41 = zext i1 %40 to i8
  %42 = getelementptr inbounds %struct.State, %struct.State* %0, i64 0, i32 2, i32 13
  store i8 %41, i8* %42, align 1
  ret %struct.Memory* %2
}

define %struct.Memory* @routine_popq__rbp(%struct.State* dereferenceable(3376), i64, %struct.Memory*) {
block_400488:
  %3 = getelementptr inbounds %struct.State, %struct.State* %0, i32 0, i32 6
  %4 = getelementptr inbounds %struct.GPR, %struct.GPR* %3, i32 0, i32 33
  %5 = getelementptr inbounds %struct.Reg, %struct.Reg* %4, i32 0, i32 0
  %PC = bitcast %union.anon* %5 to i64*
  %6 = getelementptr inbounds %struct.State, %struct.State* %0, i32 0, i32 6
  %7 = getelementptr inbounds %struct.GPR, %struct.GPR* %6, i32 0, i32 15
  %8 = getelementptr inbounds %struct.Reg, %struct.Reg* %7, i32 0, i32 0
  %RBP = bitcast %union.anon* %8 to i64*
  %9 = load i64, i64* %PC
  %10 = add i64 %9, 1
  store i64 %10, i64* %PC
  %11 = getelementptr inbounds %struct.State, %struct.State* %0, i64 0, i32 6, i32 13, i32 0, i32 0
  %12 = load i64, i64* %11, align 8
  %13 = add i64 %12, 8
  %14 = inttoptr i64 %12 to i64*
  %15 = load i64, i64* %14
  store i64 %15, i64* %RBP, align 8
  store i64 %13, i64* %11, align 8
  ret %struct.Memory* %2
}

define %struct.Memory* @routine_retq(%struct.State* dereferenceable(3376), i64, %struct.Memory*) {
block_400488:
  %3 = getelementptr inbounds %struct.State, %struct.State* %0, i32 0, i32 6
  %4 = getelementptr inbounds %struct.GPR, %struct.GPR* %3, i32 0, i32 33
  %5 = getelementptr inbounds %struct.Reg, %struct.Reg* %4, i32 0, i32 0
  %PC = bitcast %union.anon* %5 to i64*
  %6 = load i64, i64* %PC
  %7 = add i64 %6, 1
  store i64 %7, i64* %PC
  %8 = getelementptr inbounds %struct.State, %struct.State* %0, i64 0, i32 6, i32 33, i32 0, i32 0
  %9 = getelementptr inbounds %struct.State, %struct.State* %0, i64 0, i32 6, i32 13, i32 0, i32 0
  %10 = load i64, i64* %9, align 8
  %11 = inttoptr i64 %10 to i64*
  %12 = load i64, i64* %11
  store i64 %12, i64* %8, align 8
  %13 = add i64 %10, 8
  store i64 %13, i64* %9, align 8
  ret %struct.Memory* %2
}

attributes #0 = { nounwind readnone }
attributes #1 = { alwaysinline }
