; ModuleID = 'test.bc'
source_filename = "llvm-link"
target datalayout = "e-m:e-i64:64-f80:128-n8:16:32:64-S128"
target triple = "x86_64-pc-linux-gnu-elf"
%union.anon = type { i64 }
%seg_400388__init_type = type <{ [23 x i8] }>
%seg_4003a0__text_type = type <{ [354 x i8] }>
%seg_400504__fini_type = type <{ [9 x i8] }>
%seg_400510__rodata_type = type <{ [4 x i8] }>
%seg_400514__eh_frame_hdr_type = type <{ [52 x i8] }>
%seg_400548__eh_frame_type = type <{ [208 x i8] }>
%seg_600e40__init_array_type = type <{ i64, i64 }>
%seg_601018__data_type = type <{ [16 x i8] }>
%__bss_start_type = type <{ [8 x i8] }>
%struct.State = type { %struct.ArchState, [32 x %union.VectorReg], %struct.ArithFlags, %union.anon, %struct.Segments, %struct.AddressSpace, %struct.GPR, %struct.X87Stack, %struct.MMX, %struct.FPUStatusFlags, %union.anon, %union.FPU, %struct.SegmentCaches }
%struct.ArchState = type { i32, i32, %union.anon }
%union.VectorReg = type { %union.vec512_t }
%union.vec512_t = type { %struct.uint64v8_t }
%struct.uint64v8_t = type { [8 x i64] }
%struct.ArithFlags = type { i8, i8, i8, i8, i8, i8, i8, i8, i8, i8, i8, i8, i8, i8, i8, i8 }
%struct.Segments = type { i16, %union.SegmentSelector, i16, %union.SegmentSelector, i16, %union.SegmentSelector, i16, %union.SegmentSelector, i16, %union.SegmentSelector, i16, %union.SegmentSelector }
%union.SegmentSelector = type { i16 }
%struct.AddressSpace = type { i64, %struct.Reg, i64, %struct.Reg, i64, %struct.Reg, i64, %struct.Reg, i64, %struct.Reg, i64, %struct.Reg }
%struct.Reg = type { %union.anon }
%struct.GPR = type { i64, %struct.Reg, i64, %struct.Reg, i64, %struct.Reg, i64, %struct.Reg, i64, %struct.Reg, i64, %struct.Reg, i64, %struct.Reg, i64, %struct.Reg, i64, %struct.Reg, i64, %struct.Reg, i64, %struct.Reg, i64, %struct.Reg, i64, %struct.Reg, i64, %struct.Reg, i64, %struct.Reg, i64, %struct.Reg, i64, %struct.Reg }
%struct.X87Stack = type { [8 x %struct.anon.3] }
%struct.anon.3 = type { i64, double }
%struct.MMX = type { [8 x %struct.anon.4] }
%struct.anon.4 = type { i64, %union.vec64_t }
%union.vec64_t = type { %struct.uint64v1_t }
%struct.uint64v1_t = type { [1 x i64] }
%struct.FPUStatusFlags = type { i8, i8, i8, i8, i8, i8, i8, i8, i8, i8, i8, i8, i8, i8, i8, i8, i8, i8, i8, i8, [4 x i8] }
%union.FPU = type { %struct.anon.13 }
%struct.anon.13 = type { %struct.FpuFXSAVE, [96 x i8] }
%struct.FpuFXSAVE = type { %union.SegmentSelector, %union.SegmentSelector, %union.FPUAbridgedTagWord, i8, i16, i32, %union.SegmentSelector, i16, i32, %union.SegmentSelector, i16, %union.FPUControlStatus, %union.FPUControlStatus, [8 x %struct.FPUStackElem], [16 x %union.vec128_t] }
%union.FPUAbridgedTagWord = type { i8 }
%union.FPUControlStatus = type { i32 }
%struct.FPUStackElem = type { %union.anon.11, [6 x i8] }
%union.anon.11 = type { %struct.float80_t }
%struct.float80_t = type { [10 x i8] }
%union.vec128_t = type { %struct.uint128v1_t }
%struct.uint128v1_t = type { [1 x i128] }
%struct.SegmentCaches = type { %struct.SegmentShadow, %struct.SegmentShadow, %struct.SegmentShadow, %struct.SegmentShadow, %struct.SegmentShadow, %struct.SegmentShadow }
%struct.SegmentShadow = type { %union.anon, i32, i32 }
%struct.Memory = type opaque
%struct.uint8v32_t = type { [32 x i8] }
%struct.anon.2 = type { i8, i8 }
%struct.int32v8_t = type { [8 x i32] }
%struct.float32v8_t = type { [8 x float] }
%struct.uint8v8_t = type { [8 x i8] }
%struct.uint8v16_t = type { [16 x i8] }
%struct.uint16v8_t = type { [8 x i16] }
%struct.uint8v4_t = type { [4 x i8] }
%struct.int16v4_t = type { [4 x i16] }
%struct.int32v4_t = type { [4 x i32] }
%struct.uint64v2_t = type { [2 x i64] }
%struct.uint64v4_t = type { [4 x i64] }
%struct.uint128v2_t = type { [2 x i128] }
%struct.uint16v16_t = type { [16 x i16] }
%struct.float64v4_t = type { [4 x double] }
%"class.(anonymous namespace)::BitMatrix" = type { %"class.std::bitset", [16 x [16 x i8]] }
%"class.std::bitset" = type { %struct.uint64v4_t }
%struct.bcd80_t = type { [9 x %union.FPUAbridgedTagWord], %union.FPUAbridgedTagWord }
%struct.FpuFSAVE = type { %union.SegmentSelector, i16, %union.SegmentSelector, i16, %union.SegmentSelector, i16, i32, %union.SegmentSelector, i16, i32, %union.SegmentSelector, i16, [8 x %struct.FPUStackElem] }
%struct.anon.5 = type { i32, i32 }
@switch.table = private unnamed_addr constant [4 x i32] [i32 2048, i32 3072, i32 0, i32 1024]
@DR0 = external global i64, align 8
@DR1 = external global i64, align 8
@DR2 = external global i64, align 8
@DR3 = external global i64, align 8
@DR4 = external global i64, align 8
@DR5 = external global i64, align 8
@DR6 = external global i64, align 8
@DR7 = external global i64, align 8
@gCR0 = external global %union.anon, align 1
@gCR1 = external global %union.anon, align 1
@gCR2 = external global %union.anon, align 1
@gCR3 = external global %union.anon, align 1
@gCR4 = external global %union.anon, align 1
@gCR8 = external global %union.anon, align 1
@seg_400388__init = internal constant %seg_400388__init_type <{ [23 x i8] c"H\83\EC\08H\8B\05e\0C \00H\85\C0t\02\FF\D0H\83\C4\08\C3" }>
@seg_4003a0__text = internal constant %seg_4003a0__text_type <{ [354 x i8] c"1\EDI\89\D1^H\89\E2H\83\E4\F0PTI\C7\C0\00\05@\00H\C7\C1\90\04@\00H\C7\C7\88\04@\00\FF\15&\0C \00\F4\0F\1FD\00\00\F3\C3f.\0F\1F\84\00\00\00\00\00\0F\1F@\00U\B8(\10`\00H=(\10`\00H\89\E5t\17\B8\00\00\00\00H\85\C0t\0D]\BF(\10`\00\FF\E0\0F\1FD\00\00]\C3f\0F\1FD\00\00\BE(\10`\00UH\81\EE(\10`\00H\89\E5H\C1\FE\03H\89\F0H\C1\E8?H\01\C6H\D1\FEt\15\B8\00\00\00\00H\85\C0t\0B]\BF(\10`\00\FF\E0\0F\1F\00]\C3f\0F\1FD\00\00\80=\D1\0B \00\00u\17UH\89\E5\E8~\FF\FF\FF\C6\05\BF\0B \00\01]\C3\0F\1FD\00\00\F3\C3\0F\1F@\00f.\0F\1F\84\00\00\00\00\00UH\89\E5]\EB\89\90U\C3f\0F\1FD\00\00AWAVI\89\D7AUATL\8D%\9E\09 \00UH\8D-\9E\09 \00SA\89\FDI\89\F6L)\E5H\83\EC\08H\C1\FD\03\E8\C7\FE\FF\FFH\85\EDt 1\DB\0F\1F\84\00\00\00\00\00L\89\FAL\89\F6D\89\EFA\FF\14\DCH\83\C3\01H9\DDu\EAH\83\C4\08[]A\5CA]A^A_\C3\90f.\0F\1F\84\00\00\00\00\00\F3\C3" }>
@seg_400504__fini = internal constant %seg_400504__fini_type <{ [9 x i8] c"H\83\EC\08H\83\C4\08\C3" }>
@seg_400510__rodata = internal constant %seg_400510__rodata_type <{ [4 x i8] c"\01\00\02\00" }>
@seg_400514__eh_frame_hdr = internal constant %seg_400514__eh_frame_hdr_type <{ [52 x i8] c"\01\1B\03;0\00\00\00\05\00\00\00\8C\FE\FF\FFL\00\00\00\BC\FE\FF\FFx\00\00\00t\FF\FF\FF\8C\00\00\00|\FF\FF\FF\A4\00\00\00\EC\FF\FF\FF\EC\00\00\00" }>
@seg_400548__eh_frame = internal constant %seg_400548__eh_frame_type <{ [208 x i8] c"\14\00\00\00\00\00\00\00\01zR\00\01x\10\01\1B\0C\07\08\90\01\07\10\10\00\00\00\1C\00\00\008\FE\FF\FF+\00\00\00\00\00\00\00\14\00\00\00\00\00\00\00\01zR\00\01x\10\01\1B\0C\07\08\90\01\00\00\10\00\00\00\1C\00\00\00<\FE\FF\FF\02\00\00\00\00\00\00\00\14\00\00\000\00\00\00\E0\FE\FF\FF\02\00\00\00\00\00\00\00\00\00\00\00D\00\00\00H\00\00\00\D0\FE\FF\FFe\00\00\00\00B\0E\10\8F\02B\0E\18\8E\03E\0E \8D\04B\0E(\8C\05H\0E0\86\06H\0E8\83\07M\0E@r\0E8A\0E0A\0E(B\0E B\0E\18B\0E\10B\0E\08\00\10\00\00\00\90\00\00\00\F8\FE\FF\FF\02\00\00\00\00\00\00\00\00\00\00\00" }>
@seg_601018__data = internal global %seg_601018__data_type zeroinitializer
@__bss_start = global %__bss_start_type zeroinitializer
@0 = internal global i1 false
%seg_400514__fini_type = type <{ [9 x i8] }>
%seg_400520__rodata_type = type <{ [4 x i8] }>
%seg_400524__eh_frame_hdr_type = type <{ [52 x i8] }>
%seg_400558__eh_frame_type = type <{ [208 x i8] }>
@seg_400514__fini = internal constant %seg_400514__fini_type <{ [9 x i8] c"H\83\EC\08H\83\C4\08\C3" }>
@seg_400520__rodata = internal constant %seg_400520__rodata_type <{ [4 x i8] c"\01\00\02\00" }>
@seg_400524__eh_frame_hdr = internal constant %seg_400524__eh_frame_hdr_type <{ [52 x i8] c"\01\1B\03;0\00\00\00\05\00\00\00|\FE\FF\FFL\00\00\00\AC\FE\FF\FFx\00\00\00d\FF\FF\FF\8C\00\00\00|\FF\FF\FF\A4\00\00\00\EC\FF\FF\FF\EC\00\00\00" }>
@seg_400558__eh_frame = internal constant %seg_400558__eh_frame_type <{ [208 x i8] c"\14\00\00\00\00\00\00\00\01zR\00\01x\10\01\1B\0C\07\08\90\01\07\10\10\00\00\00\1C\00\00\00(\FE\FF\FF+\00\00\00\00\00\00\00\14\00\00\00\00\00\00\00\01zR\00\01x\10\01\1B\0C\07\08\90\01\00\00\10\00\00\00\1C\00\00\00,\FE\FF\FF\02\00\00\00\00\00\00\00\14\00\00\000\00\00\00\D0\FE\FF\FF\0B\00\00\00\00\00\00\00\00\00\00\00D\00\00\00H\00\00\00\D0\FE\FF\FFe\00\00\00\00B\0E\10\8F\02B\0E\18\8E\03E\0E \8D\04B\0E(\8C\05H\0E0\86\06H\0E8\83\07M\0E@r\0E8A\0E0A\0E(B\0E B\0E\18B\0E\10B\0E\08\00\10\00\00\00\90\00\00\00\F8\FE\FF\FF\02\00\00\00\00\00\00\00\00\00\00\00" }>

; Function Declaraions
declare i32 @llvm.ctpop.i32(i32) #2
declare %struct.Memory* @__remill_error(%struct.State* dereferenceable(3376), i64, %struct.Memory*)

declare %struct.Memory* @sub_400410.printf_plt(%struct.State* dereferenceable(3376), i64, %struct.Memory*)

; Data Access Globals
%G_0x601038_type = type <{ [8 x i8] }>
@G_0x601038= global %G_0x601038_type <{ [8 x i8] c"\00\00\00\00\00\00\00\00" }>
%G_0x601040_type = type <{ [8 x i8] }>
@G_0x601040= global %G_0x601040_type <{ [8 x i8] c"\00\00\00\00\00\00\00\00" }>


define %struct.Memory* @main(%struct.State* noalias , i64, %struct.Memory* noalias) alwaysinline  {
entry:
  %3 = getelementptr inbounds %struct.State, %struct.State* %0, i64 0, i32 6, i32 33, i32 0, i32 0
  store i64 %1, i64* %3, align 8
  %BRANCH_TAKEN = alloca i8, align 1
  store i8 0, i8* %BRANCH_TAKEN, align 1
  %MEMORY = alloca %struct.Memory*, align 8
  store %struct.Memory* %2, %struct.Memory** %MEMORY, align 8

  ; Code: .main:	 RIP: 400510	 Bytes: 0
  ; Code: pushq %rbp	 RIP: 400510	 Bytes: 1
  %loadMem_400510 = load %struct.Memory*, %struct.Memory** %MEMORY
  %call_400510 = call %struct.Memory* @routine_pushq__rbp(%struct.State* %0, i64  0, %struct.Memory* %loadMem_400510)
  store %struct.Memory* %call_400510, %struct.Memory** %MEMORY

  ; Code: movq %rsp, %rbp	 RIP: 400511	 Bytes: 3
  %loadMem_400511 = load %struct.Memory*, %struct.Memory** %MEMORY
  %call_400511 = call %struct.Memory* @routine_movq__rsp___rbp(%struct.State* %0, i64  0, %struct.Memory* %loadMem_400511)
  store %struct.Memory* %call_400511, %struct.Memory** %MEMORY

  ; Code: subq $0x80, %rsp	 RIP: 400514	 Bytes: 7
  %loadMem_400514 = load %struct.Memory*, %struct.Memory** %MEMORY
  %call_400514 = call %struct.Memory* @routine_subq__0x80___rsp(%struct.State* %0, i64  0, %struct.Memory* %loadMem_400514)
  store %struct.Memory* %call_400514, %struct.Memory** %MEMORY

  ; Code: movq $0x400a60, %rdi	 RIP: 40051b	 Bytes: 10
  %loadMem_40051b = load %struct.Memory*, %struct.Memory** %MEMORY
  %call_40051b = call %struct.Memory* @routine_movq__0x400a60___rdi(%struct.State* %0, i64  0, %struct.Memory* %loadMem_40051b)
  store %struct.Memory* %call_40051b, %struct.Memory** %MEMORY

  ; Code: movl $0x0, -0x4(%rbp)	 RIP: 400525	 Bytes: 7
  %loadMem_400525 = load %struct.Memory*, %struct.Memory** %MEMORY
  %call_400525 = call %struct.Memory* @routine_movl__0x0__MINUS0x4__rbp_(%struct.State* %0, i64  0, %struct.Memory* %loadMem_400525)
  store %struct.Memory* %call_400525, %struct.Memory** %MEMORY

  ; Code: movb $0x0, %al	 RIP: 40052c	 Bytes: 2
  %loadMem_40052c = load %struct.Memory*, %struct.Memory** %MEMORY
  %call_40052c = call %struct.Memory* @routine_movb__0x0___al(%struct.State* %0, i64  0, %struct.Memory* %loadMem_40052c)
  store %struct.Memory* %call_40052c, %struct.Memory** %MEMORY

  ; Code: callq .printf_plt	 RIP: 40052e	 Bytes: 5
  %loadMem1_40052e = load %struct.Memory*, %struct.Memory** %MEMORY
  %call1_40052e = call %struct.Memory* @routine_callq_.printf_plt(%struct.State* %0, i64  0, %struct.Memory* %loadMem1_40052e, i64 -286, i64 5, i64 5)
  store %struct.Memory* %call1_40052e, %struct.Memory** %MEMORY

  %loadMem2_40052e = load %struct.Memory*, %struct.Memory** %MEMORY
  %loadPC_40052e = load i64, i64* %3
  %call2_40052e = call %struct.Memory* @sub_400410.printf_plt(%struct.State* %0, i64  %loadPC_40052e, %struct.Memory* %loadMem2_40052e)
  store %struct.Memory* %call2_40052e, %struct.Memory** %MEMORY

  ; Code: movq $0x400a28, %rdi	 RIP: 400533	 Bytes: 10
  %loadMem_400533 = load %struct.Memory*, %struct.Memory** %MEMORY
  %call_400533 = call %struct.Memory* @routine_movq__0x400a28___rdi(%struct.State* %0, i64  0, %struct.Memory* %loadMem_400533)
  store %struct.Memory* %call_400533, %struct.Memory** %MEMORY

  ; Code: movl %eax, -0x5c(%rbp)	 RIP: 40053d	 Bytes: 3
  %loadMem_40053d = load %struct.Memory*, %struct.Memory** %MEMORY
  %call_40053d = call %struct.Memory* @routine_movl__eax__MINUS0x5c__rbp_(%struct.State* %0, i64  0, %struct.Memory* %loadMem_40053d)
  store %struct.Memory* %call_40053d, %struct.Memory** %MEMORY

  ; Code: movb $0x0, %al	 RIP: 400540	 Bytes: 2
  %loadMem_400540 = load %struct.Memory*, %struct.Memory** %MEMORY
  %call_400540 = call %struct.Memory* @routine_movb__0x0___al(%struct.State* %0, i64  0, %struct.Memory* %loadMem_400540)
  store %struct.Memory* %call_400540, %struct.Memory** %MEMORY

  ; Code: callq .printf_plt	 RIP: 400542	 Bytes: 5
  %loadMem1_400542 = load %struct.Memory*, %struct.Memory** %MEMORY
  %call1_400542 = call %struct.Memory* @routine_callq_.printf_plt(%struct.State* %0, i64  0, %struct.Memory* %loadMem1_400542, i64 -306, i64 5, i64 5)
  store %struct.Memory* %call1_400542, %struct.Memory** %MEMORY

  %loadMem2_400542 = load %struct.Memory*, %struct.Memory** %MEMORY
  %loadPC_400542 = load i64, i64* %3
  %call2_400542 = call %struct.Memory* @sub_400410.printf_plt(%struct.State* %0, i64  %loadPC_400542, %struct.Memory* %loadMem2_400542)
  store %struct.Memory* %call2_400542, %struct.Memory** %MEMORY

  ; Code: movq $0x400a62, %rdi	 RIP: 400547	 Bytes: 10
  %loadMem_400547 = load %struct.Memory*, %struct.Memory** %MEMORY
  %call_400547 = call %struct.Memory* @routine_movq__0x400a62___rdi(%struct.State* %0, i64  0, %struct.Memory* %loadMem_400547)
  store %struct.Memory* %call_400547, %struct.Memory** %MEMORY

  ; Code: movsd 0x48f(%rip), %xmm0	 RIP: 400551	 Bytes: 8
  %loadMem_400551 = load %struct.Memory*, %struct.Memory** %MEMORY
  %call_400551 = call %struct.Memory* @routine_movsd_0x48f__rip____xmm0(%struct.State* %0, i64  0, %struct.Memory* %loadMem_400551)
  store %struct.Memory* %call_400551, %struct.Memory** %MEMORY

  ; Code: movsd 0x48f(%rip), %xmm1	 RIP: 400559	 Bytes: 8
  %loadMem_400559 = load %struct.Memory*, %struct.Memory** %MEMORY
  %call_400559 = call %struct.Memory* @routine_movsd_0x48f__rip____xmm1(%struct.State* %0, i64  0, %struct.Memory* %loadMem_400559)
  store %struct.Memory* %call_400559, %struct.Memory** %MEMORY

  ; Code: movsd 0x48f(%rip), %xmm2	 RIP: 400561	 Bytes: 8
  %loadMem_400561 = load %struct.Memory*, %struct.Memory** %MEMORY
  %call_400561 = call %struct.Memory* @routine_movsd_0x48f__rip____xmm2(%struct.State* %0, i64  0, %struct.Memory* %loadMem_400561)
  store %struct.Memory* %call_400561, %struct.Memory** %MEMORY

  ; Code: movsd 0x48f(%rip), %xmm3	 RIP: 400569	 Bytes: 8
  %loadMem_400569 = load %struct.Memory*, %struct.Memory** %MEMORY
  %call_400569 = call %struct.Memory* @routine_movsd_0x48f__rip____xmm3(%struct.State* %0, i64  0, %struct.Memory* %loadMem_400569)
  store %struct.Memory* %call_400569, %struct.Memory** %MEMORY

  ; Code: movsd 0x48f(%rip), %xmm4	 RIP: 400571	 Bytes: 8
  %loadMem_400571 = load %struct.Memory*, %struct.Memory** %MEMORY
  %call_400571 = call %struct.Memory* @routine_movsd_0x48f__rip____xmm4(%struct.State* %0, i64  0, %struct.Memory* %loadMem_400571)
  store %struct.Memory* %call_400571, %struct.Memory** %MEMORY

  ; Code: movsd 0x48f(%rip), %xmm5	 RIP: 400579	 Bytes: 8
  %loadMem_400579 = load %struct.Memory*, %struct.Memory** %MEMORY
  %call_400579 = call %struct.Memory* @routine_movsd_0x48f__rip____xmm5(%struct.State* %0, i64  0, %struct.Memory* %loadMem_400579)
  store %struct.Memory* %call_400579, %struct.Memory** %MEMORY

  ; Code: movq $0x3d09, -0x38(%rbp)	 RIP: 400581	 Bytes: 8
  %loadMem_400581 = load %struct.Memory*, %struct.Memory** %MEMORY
  %call_400581 = call %struct.Memory* @routine_movq__0x3d09__MINUS0x38__rbp_(%struct.State* %0, i64  0, %struct.Memory* %loadMem_400581)
  store %struct.Memory* %call_400581, %struct.Memory** %MEMORY

  ; Code: movsd %xmm4, 0x6012d0	 RIP: 400589	 Bytes: 9
  %loadMem_400589 = load %struct.Memory*, %struct.Memory** %MEMORY
  %call_400589 = call %struct.Memory* @routine_movsd__xmm4__0x6012d0(%struct.State* %0, i64  0, %struct.Memory* %loadMem_400589)
  store %struct.Memory* %call_400589, %struct.Memory** %MEMORY

  ; Code: movq $0x1e848000, -0x40(%rbp)	 RIP: 400592	 Bytes: 8
  %loadMem_400592 = load %struct.Memory*, %struct.Memory** %MEMORY
  %call_400592 = call %struct.Memory* @routine_movq__0x1e848000__MINUS0x40__rbp_(%struct.State* %0, i64  0, %struct.Memory* %loadMem_400592)
  store %struct.Memory* %call_400592, %struct.Memory** %MEMORY

  ; Code: movsd %xmm5, 0x601260	 RIP: 40059a	 Bytes: 9
  %loadMem_40059a = load %struct.Memory*, %struct.Memory** %MEMORY
  %call_40059a = call %struct.Memory* @routine_movsd__xmm5__0x601260(%struct.State* %0, i64  0, %struct.Memory* %loadMem_40059a)
  store %struct.Memory* %call_40059a, %struct.Memory** %MEMORY

  ; Code: movsd %xmm4, 0x601288	 RIP: 4005a3	 Bytes: 9
  %loadMem_4005a3 = load %struct.Memory*, %struct.Memory** %MEMORY
  %call_4005a3 = call %struct.Memory* @routine_movsd__xmm4__0x601288(%struct.State* %0, i64  0, %struct.Memory* %loadMem_4005a3)
  store %struct.Memory* %call_4005a3, %struct.Memory** %MEMORY

  ; Code: movsd %xmm3, 0x601120	 RIP: 4005ac	 Bytes: 9
  %loadMem_4005ac = load %struct.Memory*, %struct.Memory** %MEMORY
  %call_4005ac = call %struct.Memory* @routine_movsd__xmm3__0x601120(%struct.State* %0, i64  0, %struct.Memory* %loadMem_4005ac)
  store %struct.Memory* %call_4005ac, %struct.Memory** %MEMORY

  ; Code: movsd %xmm2, 0x6012a0	 RIP: 4005b5	 Bytes: 9
  %loadMem_4005b5 = load %struct.Memory*, %struct.Memory** %MEMORY
  %call_4005b5 = call %struct.Memory* @routine_movsd__xmm2__0x6012a0(%struct.State* %0, i64  0, %struct.Memory* %loadMem_4005b5)
  store %struct.Memory* %call_4005b5, %struct.Memory** %MEMORY

  ; Code: movsd %xmm1, 0x601278	 RIP: 4005be	 Bytes: 9
  %loadMem_4005be = load %struct.Memory*, %struct.Memory** %MEMORY
  %call_4005be = call %struct.Memory* @routine_movsd__xmm1__0x601278(%struct.State* %0, i64  0, %struct.Memory* %loadMem_4005be)
  store %struct.Memory* %call_4005be, %struct.Memory** %MEMORY

  ; Code: movsd %xmm0, 0x601128	 RIP: 4005c7	 Bytes: 9
  %loadMem_4005c7 = load %struct.Memory*, %struct.Memory** %MEMORY
  %call_4005c7 = call %struct.Memory* @routine_movsd__xmm0__0x601128(%struct.State* %0, i64  0, %struct.Memory* %loadMem_4005c7)
  store %struct.Memory* %call_4005c7, %struct.Memory** %MEMORY

  ; Code: movsd 0x601288, %xmm0	 RIP: 4005d0	 Bytes: 9
  %loadMem_4005d0 = load %struct.Memory*, %struct.Memory** %MEMORY
  %call_4005d0 = call %struct.Memory* @routine_movsd_0x601288___xmm0(%struct.State* %0, i64  0, %struct.Memory* %loadMem_4005d0)
  store %struct.Memory* %call_4005d0, %struct.Memory** %MEMORY

  ; Code: movsd %xmm0, 0x601280	 RIP: 4005d9	 Bytes: 9
  %loadMem_4005d9 = load %struct.Memory*, %struct.Memory** %MEMORY
  %call_4005d9 = call %struct.Memory* @routine_movsd__xmm0__0x601280(%struct.State* %0, i64  0, %struct.Memory* %loadMem_4005d9)
  store %struct.Memory* %call_4005d9, %struct.Memory** %MEMORY

  ; Code: movl %eax, -0x60(%rbp)	 RIP: 4005e2	 Bytes: 3
  %loadMem_4005e2 = load %struct.Memory*, %struct.Memory** %MEMORY
  %call_4005e2 = call %struct.Memory* @routine_movl__eax__MINUS0x60__rbp_(%struct.State* %0, i64  0, %struct.Memory* %loadMem_4005e2)
  store %struct.Memory* %call_4005e2, %struct.Memory** %MEMORY

  ; Code: movb $0x0, %al	 RIP: 4005e5	 Bytes: 2
  %loadMem_4005e5 = load %struct.Memory*, %struct.Memory** %MEMORY
  %call_4005e5 = call %struct.Memory* @routine_movb__0x0___al(%struct.State* %0, i64  0, %struct.Memory* %loadMem_4005e5)
  store %struct.Memory* %call_4005e5, %struct.Memory** %MEMORY

  ; Code: callq .printf_plt	 RIP: 4005e7	 Bytes: 5
  %loadMem1_4005e7 = load %struct.Memory*, %struct.Memory** %MEMORY
  %call1_4005e7 = call %struct.Memory* @routine_callq_.printf_plt(%struct.State* %0, i64  0, %struct.Memory* %loadMem1_4005e7, i64 -471, i64 5, i64 5)
  store %struct.Memory* %call1_4005e7, %struct.Memory** %MEMORY

  %loadMem2_4005e7 = load %struct.Memory*, %struct.Memory** %MEMORY
  %loadPC_4005e7 = load i64, i64* %3
  %call2_4005e7 = call %struct.Memory* @sub_400410.printf_plt(%struct.State* %0, i64  %loadPC_4005e7, %struct.Memory* %loadMem2_4005e7)
  store %struct.Memory* %call2_4005e7, %struct.Memory** %MEMORY

  ; Code: movq $0x400a92, %rdi	 RIP: 4005ec	 Bytes: 10
  %loadMem_4005ec = load %struct.Memory*, %struct.Memory** %MEMORY
  %call_4005ec = call %struct.Memory* @routine_movq__0x400a92___rdi(%struct.State* %0, i64  0, %struct.Memory* %loadMem_4005ec)
  store %struct.Memory* %call_4005ec, %struct.Memory** %MEMORY

  ; Code: movl %eax, -0x64(%rbp)	 RIP: 4005f6	 Bytes: 3
  %loadMem_4005f6 = load %struct.Memory*, %struct.Memory** %MEMORY
  %call_4005f6 = call %struct.Memory* @routine_movl__eax__MINUS0x64__rbp_(%struct.State* %0, i64  0, %struct.Memory* %loadMem_4005f6)
  store %struct.Memory* %call_4005f6, %struct.Memory** %MEMORY

  ; Code: movb $0x0, %al	 RIP: 4005f9	 Bytes: 2
  %loadMem_4005f9 = load %struct.Memory*, %struct.Memory** %MEMORY
  %call_4005f9 = call %struct.Memory* @routine_movb__0x0___al(%struct.State* %0, i64  0, %struct.Memory* %loadMem_4005f9)
  store %struct.Memory* %call_4005f9, %struct.Memory** %MEMORY

  ; Code: callq .printf_plt	 RIP: 4005fb	 Bytes: 5
  %loadMem1_4005fb = load %struct.Memory*, %struct.Memory** %MEMORY
  %call1_4005fb = call %struct.Memory* @routine_callq_.printf_plt(%struct.State* %0, i64  0, %struct.Memory* %loadMem1_4005fb, i64 -491, i64 5, i64 5)
  store %struct.Memory* %call1_4005fb, %struct.Memory** %MEMORY

  %loadMem2_4005fb = load %struct.Memory*, %struct.Memory** %MEMORY
  %loadPC_4005fb = load i64, i64* %3
  %call2_4005fb = call %struct.Memory* @sub_400410.printf_plt(%struct.State* %0, i64  %loadPC_4005fb, %struct.Memory* %loadMem2_4005fb)
  store %struct.Memory* %call2_4005fb, %struct.Memory** %MEMORY

  ; Code: xorps %xmm0, %xmm0	 RIP: 400600	 Bytes: 3
  %loadMem_400600 = load %struct.Memory*, %struct.Memory** %MEMORY
  %call_400600 = call %struct.Memory* @routine_xorps__xmm0___xmm0(%struct.State* %0, i64  0, %struct.Memory* %loadMem_400600)
  store %struct.Memory* %call_400600, %struct.Memory** %MEMORY

  ; Code: imulq $0x2710, -0x38(%rbp), %rdi	 RIP: 400603	 Bytes: 8
  %loadMem_400603 = load %struct.Memory*, %struct.Memory** %MEMORY
  %call_400603 = call %struct.Memory* @routine_imulq__0x2710__MINUS0x38__rbp____rdi(%struct.State* %0, i64  0, %struct.Memory* %loadMem_400603)
  store %struct.Memory* %call_400603, %struct.Memory** %MEMORY

  ; Code: movq %rdi, -0x50(%rbp)	 RIP: 40060b	 Bytes: 4
  %loadMem_40060b = load %struct.Memory*, %struct.Memory** %MEMORY
  %call_40060b = call %struct.Memory* @routine_movq__rdi__MINUS0x50__rbp_(%struct.State* %0, i64  0, %struct.Memory* %loadMem_40060b)
  store %struct.Memory* %call_40060b, %struct.Memory** %MEMORY

  ; Code: movsd 0x601260, %xmm1	 RIP: 40060f	 Bytes: 9
  %loadMem_40060f = load %struct.Memory*, %struct.Memory** %MEMORY
  %call_40060f = call %struct.Memory* @routine_movsd_0x601260___xmm1(%struct.State* %0, i64  0, %struct.Memory* %loadMem_40060f)
  store %struct.Memory* %call_40060f, %struct.Memory** %MEMORY

  ; Code: movsd 0x6012a0, %xmm2	 RIP: 400618	 Bytes: 9
  %loadMem_400618 = load %struct.Memory*, %struct.Memory** %MEMORY
  %call_400618 = call %struct.Memory* @routine_movsd_0x6012a0___xmm2(%struct.State* %0, i64  0, %struct.Memory* %loadMem_400618)
  store %struct.Memory* %call_400618, %struct.Memory** %MEMORY

  ; Code: cvtsi2sdq -0x50(%rbp), %xmm3	 RIP: 400621	 Bytes: 6
  %loadMem_400621 = load %struct.Memory*, %struct.Memory** %MEMORY
  %call_400621 = call %struct.Memory* @routine_cvtsi2sdq_MINUS0x50__rbp____xmm3(%struct.State* %0, i64  0, %struct.Memory* %loadMem_400621)
  store %struct.Memory* %call_400621, %struct.Memory** %MEMORY

  ; Code: mulsd %xmm3, %xmm2	 RIP: 400627	 Bytes: 4
  %loadMem_400627 = load %struct.Memory*, %struct.Memory** %MEMORY
  %call_400627 = call %struct.Memory* @routine_mulsd__xmm3___xmm2(%struct.State* %0, i64  0, %struct.Memory* %loadMem_400627)
  store %struct.Memory* %call_400627, %struct.Memory** %MEMORY

  ; Code: divsd %xmm2, %xmm1	 RIP: 40062b	 Bytes: 4
  %loadMem_40062b = load %struct.Memory*, %struct.Memory** %MEMORY
  %call_40062b = call %struct.Memory* @routine_divsd__xmm2___xmm1(%struct.State* %0, i64  0, %struct.Memory* %loadMem_40062b)
  store %struct.Memory* %call_40062b, %struct.Memory** %MEMORY

  ; Code: movsd %xmm1, -0x30(%rbp)	 RIP: 40062f	 Bytes: 5
  %loadMem_40062f = load %struct.Memory*, %struct.Memory** %MEMORY
  %call_40062f = call %struct.Memory* @routine_movsd__xmm1__MINUS0x30__rbp_(%struct.State* %0, i64  0, %struct.Memory* %loadMem_40062f)
  store %struct.Memory* %call_40062f, %struct.Memory** %MEMORY

  ; Code: movsd %xmm0, -0x10(%rbp)	 RIP: 400634	 Bytes: 5
  %loadMem_400634 = load %struct.Memory*, %struct.Memory** %MEMORY
  %call_400634 = call %struct.Memory* @routine_movsd__xmm0__MINUS0x10__rbp_(%struct.State* %0, i64  0, %struct.Memory* %loadMem_400634)
  store %struct.Memory* %call_400634, %struct.Memory** %MEMORY

  ; Code: movsd %xmm0, -0x20(%rbp)	 RIP: 400639	 Bytes: 5
  %loadMem_400639 = load %struct.Memory*, %struct.Memory** %MEMORY
  %call_400639 = call %struct.Memory* @routine_movsd__xmm0__MINUS0x20__rbp_(%struct.State* %0, i64  0, %struct.Memory* %loadMem_400639)
  store %struct.Memory* %call_400639, %struct.Memory** %MEMORY

  ; Code: movq $0x1, -0x48(%rbp)	 RIP: 40063e	 Bytes: 8
  %loadMem_40063e = load %struct.Memory*, %struct.Memory** %MEMORY
  %call_40063e = call %struct.Memory* @routine_movq__0x1__MINUS0x48__rbp_(%struct.State* %0, i64  0, %struct.Memory* %loadMem_40063e)
  store %struct.Memory* %call_40063e, %struct.Memory** %MEMORY

  ; Code: movl %eax, -0x68(%rbp)	 RIP: 400646	 Bytes: 3
  %loadMem_400646 = load %struct.Memory*, %struct.Memory** %MEMORY
  %call_400646 = call %struct.Memory* @routine_movl__eax__MINUS0x68__rbp_(%struct.State* %0, i64  0, %struct.Memory* %loadMem_400646)
  store %struct.Memory* %call_400646, %struct.Memory** %MEMORY

  ; Code: .L_400649:	 RIP: 400649	 Bytes: 0
  br label %block_.L_400649
block_.L_400649:

  ; Code: movq -0x48(%rbp), %rax	 RIP: 400649	 Bytes: 4
  %loadMem_400649 = load %struct.Memory*, %struct.Memory** %MEMORY
  %call_400649 = call %struct.Memory* @routine_movq_MINUS0x48__rbp____rax(%struct.State* %0, i64  0, %struct.Memory* %loadMem_400649)
  store %struct.Memory* %call_400649, %struct.Memory** %MEMORY

  ; Code: movq -0x50(%rbp), %rcx	 RIP: 40064d	 Bytes: 4
  %loadMem_40064d = load %struct.Memory*, %struct.Memory** %MEMORY
  %call_40064d = call %struct.Memory* @routine_movq_MINUS0x50__rbp____rcx(%struct.State* %0, i64  0, %struct.Memory* %loadMem_40064d)
  store %struct.Memory* %call_40064d, %struct.Memory** %MEMORY

  ; Code: subq $0x1, %rcx	 RIP: 400651	 Bytes: 4
  %loadMem_400651 = load %struct.Memory*, %struct.Memory** %MEMORY
  %call_400651 = call %struct.Memory* @routine_subq__0x1___rcx(%struct.State* %0, i64  0, %struct.Memory* %loadMem_400651)
  store %struct.Memory* %call_400651, %struct.Memory** %MEMORY

  ; Code: cmpq %rcx, %rax	 RIP: 400655	 Bytes: 3
  %loadMem_400655 = load %struct.Memory*, %struct.Memory** %MEMORY
  %call_400655 = call %struct.Memory* @routine_cmpq__rcx___rax(%struct.State* %0, i64  0, %struct.Memory* %loadMem_400655)
  store %struct.Memory* %call_400655, %struct.Memory** %MEMORY

  ; Code: jg .L_400781	 RIP: 400658	 Bytes: 6
  %loadMem_400658 = load %struct.Memory*, %struct.Memory** %MEMORY
  %call_400658 = call %struct.Memory* @routine_jg_.L_400781(%struct.State* %0, i64  0, %struct.Memory* %loadMem_400658, i8* %BRANCH_TAKEN, i64 297, i64 6, i64 6)
  store %struct.Memory* %call_400658, %struct.Memory** %MEMORY

  %loadBr_400658 = load i8, i8* %BRANCH_TAKEN
  %cmpBr_400658 = icmp eq i8 %loadBr_400658, 1
  br i1 %cmpBr_400658, label %block_.L_400781, label %block_40065e

block_40065e:
  ; Code: cvtsi2sdq -0x48(%rbp), %xmm0	 RIP: 40065e	 Bytes: 6
  %loadMem_40065e = load %struct.Memory*, %struct.Memory** %MEMORY
  %call_40065e = call %struct.Memory* @routine_cvtsi2sdq_MINUS0x48__rbp____xmm0(%struct.State* %0, i64  0, %struct.Memory* %loadMem_40065e)
  store %struct.Memory* %call_40065e, %struct.Memory** %MEMORY

  ; Code: mulsd -0x30(%rbp), %xmm0	 RIP: 400664	 Bytes: 5
  %loadMem_400664 = load %struct.Memory*, %struct.Memory** %MEMORY
  %call_400664 = call %struct.Memory* @routine_mulsd_MINUS0x30__rbp____xmm0(%struct.State* %0, i64  0, %struct.Memory* %loadMem_400664)
  store %struct.Memory* %call_400664, %struct.Memory** %MEMORY

  ; Code: movsd %xmm0, -0x18(%rbp)	 RIP: 400669	 Bytes: 5
  %loadMem_400669 = load %struct.Memory*, %struct.Memory** %MEMORY
  %call_400669 = call %struct.Memory* @routine_movsd__xmm0__MINUS0x18__rbp_(%struct.State* %0, i64  0, %struct.Memory* %loadMem_400669)
  store %struct.Memory* %call_400669, %struct.Memory** %MEMORY

  ; Code: movsd -0x18(%rbp), %xmm0	 RIP: 40066e	 Bytes: 5
  %loadMem_40066e = load %struct.Memory*, %struct.Memory** %MEMORY
  %call_40066e = call %struct.Memory* @routine_movsd_MINUS0x18__rbp____xmm0(%struct.State* %0, i64  0, %struct.Memory* %loadMem_40066e)
  store %struct.Memory* %call_40066e, %struct.Memory** %MEMORY

  ; Code: mulsd -0x18(%rbp), %xmm0	 RIP: 400673	 Bytes: 5
  %loadMem_400673 = load %struct.Memory*, %struct.Memory** %MEMORY
  %call_400673 = call %struct.Memory* @routine_mulsd_MINUS0x18__rbp____xmm0(%struct.State* %0, i64  0, %struct.Memory* %loadMem_400673)
  store %struct.Memory* %call_400673, %struct.Memory** %MEMORY

  ; Code: movsd %xmm0, -0x28(%rbp)	 RIP: 400678	 Bytes: 5
  %loadMem_400678 = load %struct.Memory*, %struct.Memory** %MEMORY
  %call_400678 = call %struct.Memory* @routine_movsd__xmm0__MINUS0x28__rbp_(%struct.State* %0, i64  0, %struct.Memory* %loadMem_400678)
  store %struct.Memory* %call_400678, %struct.Memory** %MEMORY

  ; Code: movsd -0x18(%rbp), %xmm0	 RIP: 40067d	 Bytes: 5
  %loadMem_40067d = load %struct.Memory*, %struct.Memory** %MEMORY
  %call_40067d = call %struct.Memory* @routine_movsd_MINUS0x18__rbp____xmm0(%struct.State* %0, i64  0, %struct.Memory* %loadMem_40067d)
  store %struct.Memory* %call_40067d, %struct.Memory** %MEMORY

  ; Code: movsd 0x601060, %xmm1	 RIP: 400682	 Bytes: 9
  %loadMem_400682 = load %struct.Memory*, %struct.Memory** %MEMORY
  %call_400682 = call %struct.Memory* @routine_movsd_0x601060___xmm1(%struct.State* %0, i64  0, %struct.Memory* %loadMem_400682)
  store %struct.Memory* %call_400682, %struct.Memory** %MEMORY

  ; Code: mulsd -0x28(%rbp), %xmm1	 RIP: 40068b	 Bytes: 5
  %loadMem_40068b = load %struct.Memory*, %struct.Memory** %MEMORY
  %call_40068b = call %struct.Memory* @routine_mulsd_MINUS0x28__rbp____xmm1(%struct.State* %0, i64  0, %struct.Memory* %loadMem_40068b)
  store %struct.Memory* %call_40068b, %struct.Memory** %MEMORY

  ; Code: addsd 0x601058, %xmm1	 RIP: 400690	 Bytes: 9
  %loadMem_400690 = load %struct.Memory*, %struct.Memory** %MEMORY
  %call_400690 = call %struct.Memory* @routine_addsd_0x601058___xmm1(%struct.State* %0, i64  0, %struct.Memory* %loadMem_400690)
  store %struct.Memory* %call_400690, %struct.Memory** %MEMORY

  ; Code: mulsd -0x28(%rbp), %xmm1	 RIP: 400699	 Bytes: 5
  %loadMem_400699 = load %struct.Memory*, %struct.Memory** %MEMORY
  %call_400699 = call %struct.Memory* @routine_mulsd_MINUS0x28__rbp____xmm1(%struct.State* %0, i64  0, %struct.Memory* %loadMem_400699)
  store %struct.Memory* %call_400699, %struct.Memory** %MEMORY

  ; Code: addsd 0x601050, %xmm1	 RIP: 40069e	 Bytes: 9
  %loadMem_40069e = load %struct.Memory*, %struct.Memory** %MEMORY
  %call_40069e = call %struct.Memory* @routine_addsd_0x601050___xmm1(%struct.State* %0, i64  0, %struct.Memory* %loadMem_40069e)
  store %struct.Memory* %call_40069e, %struct.Memory** %MEMORY

  ; Code: mulsd -0x28(%rbp), %xmm1	 RIP: 4006a7	 Bytes: 5
  %loadMem_4006a7 = load %struct.Memory*, %struct.Memory** %MEMORY
  %call_4006a7 = call %struct.Memory* @routine_mulsd_MINUS0x28__rbp____xmm1(%struct.State* %0, i64  0, %struct.Memory* %loadMem_4006a7)
  store %struct.Memory* %call_4006a7, %struct.Memory** %MEMORY

  ; Code: addsd 0x601048, %xmm1	 RIP: 4006ac	 Bytes: 9
  %loadMem_4006ac = load %struct.Memory*, %struct.Memory** %MEMORY
  %call_4006ac = call %struct.Memory* @routine_addsd_0x601048___xmm1(%struct.State* %0, i64  0, %struct.Memory* %loadMem_4006ac)
  store %struct.Memory* %call_4006ac, %struct.Memory** %MEMORY

  ; Code: mulsd -0x28(%rbp), %xmm1	 RIP: 4006b5	 Bytes: 5
  %loadMem_4006b5 = load %struct.Memory*, %struct.Memory** %MEMORY
  %call_4006b5 = call %struct.Memory* @routine_mulsd_MINUS0x28__rbp____xmm1(%struct.State* %0, i64  0, %struct.Memory* %loadMem_4006b5)
  store %struct.Memory* %call_4006b5, %struct.Memory** %MEMORY

  ; Code: addsd 0x601040, %xmm1	 RIP: 4006ba	 Bytes: 9
  %loadMem_4006ba = load %struct.Memory*, %struct.Memory** %MEMORY
  %call_4006ba = call %struct.Memory* @routine_addsd_0x601040___xmm1(%struct.State* %0, i64  0, %struct.Memory* %loadMem_4006ba)
  store %struct.Memory* %call_4006ba, %struct.Memory** %MEMORY

  ; Code: mulsd -0x28(%rbp), %xmm1	 RIP: 4006c3	 Bytes: 5
  %loadMem_4006c3 = load %struct.Memory*, %struct.Memory** %MEMORY
  %call_4006c3 = call %struct.Memory* @routine_mulsd_MINUS0x28__rbp____xmm1(%struct.State* %0, i64  0, %struct.Memory* %loadMem_4006c3)
  store %struct.Memory* %call_4006c3, %struct.Memory** %MEMORY

  ; Code: addsd 0x601038, %xmm1	 RIP: 4006c8	 Bytes: 9
  %loadMem_4006c8 = load %struct.Memory*, %struct.Memory** %MEMORY
  %call_4006c8 = call %struct.Memory* @routine_addsd_0x601038___xmm1(%struct.State* %0, i64  0, %struct.Memory* %loadMem_4006c8)
  store %struct.Memory* %call_4006c8, %struct.Memory** %MEMORY

  ; Code: mulsd -0x28(%rbp), %xmm1	 RIP: 4006d1	 Bytes: 5
  %loadMem_4006d1 = load %struct.Memory*, %struct.Memory** %MEMORY
  %call_4006d1 = call %struct.Memory* @routine_mulsd_MINUS0x28__rbp____xmm1(%struct.State* %0, i64  0, %struct.Memory* %loadMem_4006d1)
  store %struct.Memory* %call_4006d1, %struct.Memory** %MEMORY

  ; Code: addsd 0x601288, %xmm1	 RIP: 4006d6	 Bytes: 9
  %loadMem_4006d6 = load %struct.Memory*, %struct.Memory** %MEMORY
  %call_4006d6 = call %struct.Memory* @routine_addsd_0x601288___xmm1(%struct.State* %0, i64  0, %struct.Memory* %loadMem_4006d6)
  store %struct.Memory* %call_4006d6, %struct.Memory** %MEMORY

  ; Code: mulsd %xmm1, %xmm0	 RIP: 4006df	 Bytes: 4
  %loadMem_4006df = load %struct.Memory*, %struct.Memory** %MEMORY
  %call_4006df = call %struct.Memory* @routine_mulsd__xmm1___xmm0(%struct.State* %0, i64  0, %struct.Memory* %loadMem_4006df)
  store %struct.Memory* %call_4006df, %struct.Memory** %MEMORY

  ; Code: movsd %xmm0, -0x20(%rbp)	 RIP: 4006e3	 Bytes: 5
  %loadMem_4006e3 = load %struct.Memory*, %struct.Memory** %MEMORY
  %call_4006e3 = call %struct.Memory* @routine_movsd__xmm0__MINUS0x20__rbp_(%struct.State* %0, i64  0, %struct.Memory* %loadMem_4006e3)
  store %struct.Memory* %call_4006e3, %struct.Memory** %MEMORY

  ; Code: movsd -0x10(%rbp), %xmm0	 RIP: 4006e8	 Bytes: 5
  %loadMem_4006e8 = load %struct.Memory*, %struct.Memory** %MEMORY
  %call_4006e8 = call %struct.Memory* @routine_movsd_MINUS0x10__rbp____xmm0(%struct.State* %0, i64  0, %struct.Memory* %loadMem_4006e8)
  store %struct.Memory* %call_4006e8, %struct.Memory** %MEMORY

  ; Code: movsd -0x20(%rbp), %xmm1	 RIP: 4006ed	 Bytes: 5
  %loadMem_4006ed = load %struct.Memory*, %struct.Memory** %MEMORY
  %call_4006ed = call %struct.Memory* @routine_movsd_MINUS0x20__rbp____xmm1(%struct.State* %0, i64  0, %struct.Memory* %loadMem_4006ed)
  store %struct.Memory* %call_4006ed, %struct.Memory** %MEMORY

  ; Code: movsd -0x28(%rbp), %xmm2	 RIP: 4006f2	 Bytes: 5
  %loadMem_4006f2 = load %struct.Memory*, %struct.Memory** %MEMORY
  %call_4006f2 = call %struct.Memory* @routine_movsd_MINUS0x28__rbp____xmm2(%struct.State* %0, i64  0, %struct.Memory* %loadMem_4006f2)
  store %struct.Memory* %call_4006f2, %struct.Memory** %MEMORY

  ; Code: movsd -0x28(%rbp), %xmm3	 RIP: 4006f7	 Bytes: 5
  %loadMem_4006f7 = load %struct.Memory*, %struct.Memory** %MEMORY
  %call_4006f7 = call %struct.Memory* @routine_movsd_MINUS0x28__rbp____xmm3(%struct.State* %0, i64  0, %struct.Memory* %loadMem_4006f7)
  store %struct.Memory* %call_4006f7, %struct.Memory** %MEMORY

  ; Code: movsd -0x28(%rbp), %xmm4	 RIP: 4006fc	 Bytes: 5
  %loadMem_4006fc = load %struct.Memory*, %struct.Memory** %MEMORY
  %call_4006fc = call %struct.Memory* @routine_movsd_MINUS0x28__rbp____xmm4(%struct.State* %0, i64  0, %struct.Memory* %loadMem_4006fc)
  store %struct.Memory* %call_4006fc, %struct.Memory** %MEMORY

  ; Code: movsd -0x28(%rbp), %xmm5	 RIP: 400701	 Bytes: 5
  %loadMem_400701 = load %struct.Memory*, %struct.Memory** %MEMORY
  %call_400701 = call %struct.Memory* @routine_movsd_MINUS0x28__rbp____xmm5(%struct.State* %0, i64  0, %struct.Memory* %loadMem_400701)
  store %struct.Memory* %call_400701, %struct.Memory** %MEMORY

  ; Code: movsd -0x28(%rbp), %xmm6	 RIP: 400706	 Bytes: 5
  %loadMem_400706 = load %struct.Memory*, %struct.Memory** %MEMORY
  %call_400706 = call %struct.Memory* @routine_movsd_MINUS0x28__rbp____xmm6(%struct.State* %0, i64  0, %struct.Memory* %loadMem_400706)
  store %struct.Memory* %call_400706, %struct.Memory** %MEMORY

  ; Code: movsd 0x601098, %xmm7	 RIP: 40070b	 Bytes: 9
  %loadMem_40070b = load %struct.Memory*, %struct.Memory** %MEMORY
  %call_40070b = call %struct.Memory* @routine_movsd_0x601098___xmm7(%struct.State* %0, i64  0, %struct.Memory* %loadMem_40070b)
  store %struct.Memory* %call_40070b, %struct.Memory** %MEMORY

  ; Code: mulsd -0x28(%rbp), %xmm7	 RIP: 400714	 Bytes: 5
  %loadMem_400714 = load %struct.Memory*, %struct.Memory** %MEMORY
  %call_400714 = call %struct.Memory* @routine_mulsd_MINUS0x28__rbp____xmm7(%struct.State* %0, i64  0, %struct.Memory* %loadMem_400714)
  store %struct.Memory* %call_400714, %struct.Memory** %MEMORY

  ; Code: addsd 0x601090, %xmm7	 RIP: 400719	 Bytes: 9
  %loadMem_400719 = load %struct.Memory*, %struct.Memory** %MEMORY
  %call_400719 = call %struct.Memory* @routine_addsd_0x601090___xmm7(%struct.State* %0, i64  0, %struct.Memory* %loadMem_400719)
  store %struct.Memory* %call_400719, %struct.Memory** %MEMORY

  ; Code: mulsd %xmm7, %xmm6	 RIP: 400722	 Bytes: 4
  %loadMem_400722 = load %struct.Memory*, %struct.Memory** %MEMORY
  %call_400722 = call %struct.Memory* @routine_mulsd__xmm7___xmm6(%struct.State* %0, i64  0, %struct.Memory* %loadMem_400722)
  store %struct.Memory* %call_400722, %struct.Memory** %MEMORY

  ; Code: addsd 0x601088, %xmm6	 RIP: 400726	 Bytes: 9
  %loadMem_400726 = load %struct.Memory*, %struct.Memory** %MEMORY
  %call_400726 = call %struct.Memory* @routine_addsd_0x601088___xmm6(%struct.State* %0, i64  0, %struct.Memory* %loadMem_400726)
  store %struct.Memory* %call_400726, %struct.Memory** %MEMORY

  ; Code: mulsd %xmm6, %xmm5	 RIP: 40072f	 Bytes: 4
  %loadMem_40072f = load %struct.Memory*, %struct.Memory** %MEMORY
  %call_40072f = call %struct.Memory* @routine_mulsd__xmm6___xmm5(%struct.State* %0, i64  0, %struct.Memory* %loadMem_40072f)
  store %struct.Memory* %call_40072f, %struct.Memory** %MEMORY

  ; Code: addsd 0x601080, %xmm5	 RIP: 400733	 Bytes: 9
  %loadMem_400733 = load %struct.Memory*, %struct.Memory** %MEMORY
  %call_400733 = call %struct.Memory* @routine_addsd_0x601080___xmm5(%struct.State* %0, i64  0, %struct.Memory* %loadMem_400733)
  store %struct.Memory* %call_400733, %struct.Memory** %MEMORY

  ; Code: mulsd %xmm5, %xmm4	 RIP: 40073c	 Bytes: 4
  %loadMem_40073c = load %struct.Memory*, %struct.Memory** %MEMORY
  %call_40073c = call %struct.Memory* @routine_mulsd__xmm5___xmm4(%struct.State* %0, i64  0, %struct.Memory* %loadMem_40073c)
  store %struct.Memory* %call_40073c, %struct.Memory** %MEMORY

  ; Code: addsd 0x601078, %xmm4	 RIP: 400740	 Bytes: 9
  %loadMem_400740 = load %struct.Memory*, %struct.Memory** %MEMORY
  %call_400740 = call %struct.Memory* @routine_addsd_0x601078___xmm4(%struct.State* %0, i64  0, %struct.Memory* %loadMem_400740)
  store %struct.Memory* %call_400740, %struct.Memory** %MEMORY

  ; Code: mulsd %xmm4, %xmm3	 RIP: 400749	 Bytes: 4
  %loadMem_400749 = load %struct.Memory*, %struct.Memory** %MEMORY
  %call_400749 = call %struct.Memory* @routine_mulsd__xmm4___xmm3(%struct.State* %0, i64  0, %struct.Memory* %loadMem_400749)
  store %struct.Memory* %call_400749, %struct.Memory** %MEMORY

  ; Code: addsd 0x601070, %xmm3	 RIP: 40074d	 Bytes: 9
  %loadMem_40074d = load %struct.Memory*, %struct.Memory** %MEMORY
  %call_40074d = call %struct.Memory* @routine_addsd_0x601070___xmm3(%struct.State* %0, i64  0, %struct.Memory* %loadMem_40074d)
  store %struct.Memory* %call_40074d, %struct.Memory** %MEMORY

  ; Code: mulsd %xmm3, %xmm2	 RIP: 400756	 Bytes: 4
  %loadMem_400756 = load %struct.Memory*, %struct.Memory** %MEMORY
  %call_400756 = call %struct.Memory* @routine_mulsd__xmm3___xmm2(%struct.State* %0, i64  0, %struct.Memory* %loadMem_400756)
  store %struct.Memory* %call_400756, %struct.Memory** %MEMORY

  ; Code: addsd 0x601288, %xmm2	 RIP: 40075a	 Bytes: 9
  %loadMem_40075a = load %struct.Memory*, %struct.Memory** %MEMORY
  %call_40075a = call %struct.Memory* @routine_addsd_0x601288___xmm2(%struct.State* %0, i64  0, %struct.Memory* %loadMem_40075a)
  store %struct.Memory* %call_40075a, %struct.Memory** %MEMORY

  ; Code: divsd %xmm2, %xmm1	 RIP: 400763	 Bytes: 4
  %loadMem_400763 = load %struct.Memory*, %struct.Memory** %MEMORY
  %call_400763 = call %struct.Memory* @routine_divsd__xmm2___xmm1(%struct.State* %0, i64  0, %struct.Memory* %loadMem_400763)
  store %struct.Memory* %call_400763, %struct.Memory** %MEMORY

  ; Code: addsd %xmm1, %xmm0	 RIP: 400767	 Bytes: 4
  %loadMem_400767 = load %struct.Memory*, %struct.Memory** %MEMORY
  %call_400767 = call %struct.Memory* @routine_addsd__xmm1___xmm0(%struct.State* %0, i64  0, %struct.Memory* %loadMem_400767)
  store %struct.Memory* %call_400767, %struct.Memory** %MEMORY

  ; Code: movsd %xmm0, -0x10(%rbp)	 RIP: 40076b	 Bytes: 5
  %loadMem_40076b = load %struct.Memory*, %struct.Memory** %MEMORY
  %call_40076b = call %struct.Memory* @routine_movsd__xmm0__MINUS0x10__rbp_(%struct.State* %0, i64  0, %struct.Memory* %loadMem_40076b)
  store %struct.Memory* %call_40076b, %struct.Memory** %MEMORY

  ; Code: movq -0x48(%rbp), %rax	 RIP: 400770	 Bytes: 4
  %loadMem_400770 = load %struct.Memory*, %struct.Memory** %MEMORY
  %call_400770 = call %struct.Memory* @routine_movq_MINUS0x48__rbp____rax(%struct.State* %0, i64  0, %struct.Memory* %loadMem_400770)
  store %struct.Memory* %call_400770, %struct.Memory** %MEMORY

  ; Code: addq $0x1, %rax	 RIP: 400774	 Bytes: 4
  %loadMem_400774 = load %struct.Memory*, %struct.Memory** %MEMORY
  %call_400774 = call %struct.Memory* @routine_addq__0x1___rax(%struct.State* %0, i64  0, %struct.Memory* %loadMem_400774)
  store %struct.Memory* %call_400774, %struct.Memory** %MEMORY

  ; Code: movq %rax, -0x48(%rbp)	 RIP: 400778	 Bytes: 4
  %loadMem_400778 = load %struct.Memory*, %struct.Memory** %MEMORY
  %call_400778 = call %struct.Memory* @routine_movq__rax__MINUS0x48__rbp_(%struct.State* %0, i64  0, %struct.Memory* %loadMem_400778)
  store %struct.Memory* %call_400778, %struct.Memory** %MEMORY

  ; Code: jmpq .L_400649	 RIP: 40077c	 Bytes: 5
  %loadMem_40077c = load %struct.Memory*, %struct.Memory** %MEMORY
  %call_40077c = call %struct.Memory* @routine_jmpq_.L_400649(%struct.State* %0, i64  0, %struct.Memory* %loadMem_40077c, i64 -307, i64 5)
  store %struct.Memory* %call_40077c, %struct.Memory** %MEMORY

  br label %block_.L_400649

  ; Code: .L_400781:	 RIP: 400781	 Bytes: 0
block_.L_400781:

  ; Code: movq $0x400ab6, %rdi	 RIP: 400781	 Bytes: 10
  %loadMem_400781 = load %struct.Memory*, %struct.Memory** %MEMORY
  %call_400781 = call %struct.Memory* @routine_movq__0x400ab6___rdi(%struct.State* %0, i64  0, %struct.Memory* %loadMem_400781)
  store %struct.Memory* %call_400781, %struct.Memory** %MEMORY

  ; Code: xorps %xmm0, %xmm0	 RIP: 40078b	 Bytes: 3
  %loadMem_40078b = load %struct.Memory*, %struct.Memory** %MEMORY
  %call_40078b = call %struct.Memory* @routine_xorps__xmm0___xmm0(%struct.State* %0, i64  0, %struct.Memory* %loadMem_40078b)
  store %struct.Memory* %call_40078b, %struct.Memory** %MEMORY

  ; Code: movsd 0x282(%rip), %xmm1	 RIP: 40078e	 Bytes: 8
  %loadMem_40078e = load %struct.Memory*, %struct.Memory** %MEMORY
  %call_40078e = call %struct.Memory* @routine_movsd_0x282__rip____xmm1(%struct.State* %0, i64  0, %struct.Memory* %loadMem_40078e)
  store %struct.Memory* %call_40078e, %struct.Memory** %MEMORY

  ; Code: movsd 0x282(%rip), %xmm2	 RIP: 400796	 Bytes: 8
  %loadMem_400796 = load %struct.Memory*, %struct.Memory** %MEMORY
  %call_400796 = call %struct.Memory* @routine_movsd_0x282__rip____xmm2(%struct.State* %0, i64  0, %struct.Memory* %loadMem_400796)
  store %struct.Memory* %call_400796, %struct.Memory** %MEMORY

  ; Code: movsd 0x601260, %xmm3	 RIP: 40079e	 Bytes: 9
  %loadMem_40079e = load %struct.Memory*, %struct.Memory** %MEMORY
  %call_40079e = call %struct.Memory* @routine_movsd_0x601260___xmm3(%struct.State* %0, i64  0, %struct.Memory* %loadMem_40079e)
  store %struct.Memory* %call_40079e, %struct.Memory** %MEMORY

  ; Code: divsd 0x6012a0, %xmm3	 RIP: 4007a7	 Bytes: 9
  %loadMem_4007a7 = load %struct.Memory*, %struct.Memory** %MEMORY
  %call_4007a7 = call %struct.Memory* @routine_divsd_0x6012a0___xmm3(%struct.State* %0, i64  0, %struct.Memory* %loadMem_4007a7)
  store %struct.Memory* %call_4007a7, %struct.Memory** %MEMORY

  ; Code: movsd %xmm3, -0x18(%rbp)	 RIP: 4007b0	 Bytes: 5
  %loadMem_4007b0 = load %struct.Memory*, %struct.Memory** %MEMORY
  %call_4007b0 = call %struct.Memory* @routine_movsd__xmm3__MINUS0x18__rbp_(%struct.State* %0, i64  0, %struct.Memory* %loadMem_4007b0)
  store %struct.Memory* %call_4007b0, %struct.Memory** %MEMORY

  ; Code: movsd -0x18(%rbp), %xmm3	 RIP: 4007b5	 Bytes: 5
  %loadMem_4007b5 = load %struct.Memory*, %struct.Memory** %MEMORY
  %call_4007b5 = call %struct.Memory* @routine_movsd_MINUS0x18__rbp____xmm3(%struct.State* %0, i64  0, %struct.Memory* %loadMem_4007b5)
  store %struct.Memory* %call_4007b5, %struct.Memory** %MEMORY

  ; Code: mulsd -0x18(%rbp), %xmm3	 RIP: 4007ba	 Bytes: 5
  %loadMem_4007ba = load %struct.Memory*, %struct.Memory** %MEMORY
  %call_4007ba = call %struct.Memory* @routine_mulsd_MINUS0x18__rbp____xmm3(%struct.State* %0, i64  0, %struct.Memory* %loadMem_4007ba)
  store %struct.Memory* %call_4007ba, %struct.Memory** %MEMORY

  ; Code: movsd %xmm3, -0x28(%rbp)	 RIP: 4007bf	 Bytes: 5
  %loadMem_4007bf = load %struct.Memory*, %struct.Memory** %MEMORY
  %call_4007bf = call %struct.Memory* @routine_movsd__xmm3__MINUS0x28__rbp_(%struct.State* %0, i64  0, %struct.Memory* %loadMem_4007bf)
  store %struct.Memory* %call_4007bf, %struct.Memory** %MEMORY

  ; Code: movsd -0x18(%rbp), %xmm3	 RIP: 4007c4	 Bytes: 5
  %loadMem_4007c4 = load %struct.Memory*, %struct.Memory** %MEMORY
  %call_4007c4 = call %struct.Memory* @routine_movsd_MINUS0x18__rbp____xmm3(%struct.State* %0, i64  0, %struct.Memory* %loadMem_4007c4)
  store %struct.Memory* %call_4007c4, %struct.Memory** %MEMORY

  ; Code: movsd 0x601060, %xmm4	 RIP: 4007c9	 Bytes: 9
  %loadMem_4007c9 = load %struct.Memory*, %struct.Memory** %MEMORY
  %call_4007c9 = call %struct.Memory* @routine_movsd_0x601060___xmm4(%struct.State* %0, i64  0, %struct.Memory* %loadMem_4007c9)
  store %struct.Memory* %call_4007c9, %struct.Memory** %MEMORY

  ; Code: mulsd -0x28(%rbp), %xmm4	 RIP: 4007d2	 Bytes: 5
  %loadMem_4007d2 = load %struct.Memory*, %struct.Memory** %MEMORY
  %call_4007d2 = call %struct.Memory* @routine_mulsd_MINUS0x28__rbp____xmm4(%struct.State* %0, i64  0, %struct.Memory* %loadMem_4007d2)
  store %struct.Memory* %call_4007d2, %struct.Memory** %MEMORY

  ; Code: addsd 0x601058, %xmm4	 RIP: 4007d7	 Bytes: 9
  %loadMem_4007d7 = load %struct.Memory*, %struct.Memory** %MEMORY
  %call_4007d7 = call %struct.Memory* @routine_addsd_0x601058___xmm4(%struct.State* %0, i64  0, %struct.Memory* %loadMem_4007d7)
  store %struct.Memory* %call_4007d7, %struct.Memory** %MEMORY

  ; Code: mulsd -0x28(%rbp), %xmm4	 RIP: 4007e0	 Bytes: 5
  %loadMem_4007e0 = load %struct.Memory*, %struct.Memory** %MEMORY
  %call_4007e0 = call %struct.Memory* @routine_mulsd_MINUS0x28__rbp____xmm4(%struct.State* %0, i64  0, %struct.Memory* %loadMem_4007e0)
  store %struct.Memory* %call_4007e0, %struct.Memory** %MEMORY

  ; Code: addsd 0x601050, %xmm4	 RIP: 4007e5	 Bytes: 9
  %loadMem_4007e5 = load %struct.Memory*, %struct.Memory** %MEMORY
  %call_4007e5 = call %struct.Memory* @routine_addsd_0x601050___xmm4(%struct.State* %0, i64  0, %struct.Memory* %loadMem_4007e5)
  store %struct.Memory* %call_4007e5, %struct.Memory** %MEMORY

  ; Code: mulsd -0x28(%rbp), %xmm4	 RIP: 4007ee	 Bytes: 5
  %loadMem_4007ee = load %struct.Memory*, %struct.Memory** %MEMORY
  %call_4007ee = call %struct.Memory* @routine_mulsd_MINUS0x28__rbp____xmm4(%struct.State* %0, i64  0, %struct.Memory* %loadMem_4007ee)
  store %struct.Memory* %call_4007ee, %struct.Memory** %MEMORY

  ; Code: addsd 0x601048, %xmm4	 RIP: 4007f3	 Bytes: 9
  %loadMem_4007f3 = load %struct.Memory*, %struct.Memory** %MEMORY
  %call_4007f3 = call %struct.Memory* @routine_addsd_0x601048___xmm4(%struct.State* %0, i64  0, %struct.Memory* %loadMem_4007f3)
  store %struct.Memory* %call_4007f3, %struct.Memory** %MEMORY

  ; Code: mulsd -0x28(%rbp), %xmm4	 RIP: 4007fc	 Bytes: 5
  %loadMem_4007fc = load %struct.Memory*, %struct.Memory** %MEMORY
  %call_4007fc = call %struct.Memory* @routine_mulsd_MINUS0x28__rbp____xmm4(%struct.State* %0, i64  0, %struct.Memory* %loadMem_4007fc)
  store %struct.Memory* %call_4007fc, %struct.Memory** %MEMORY

  ; Code: addsd 0x601040, %xmm4	 RIP: 400801	 Bytes: 9
  %loadMem_400801 = load %struct.Memory*, %struct.Memory** %MEMORY
  %call_400801 = call %struct.Memory* @routine_addsd_0x601040___xmm4(%struct.State* %0, i64  0, %struct.Memory* %loadMem_400801)
  store %struct.Memory* %call_400801, %struct.Memory** %MEMORY

  ; Code: mulsd -0x28(%rbp), %xmm4	 RIP: 40080a	 Bytes: 5
  %loadMem_40080a = load %struct.Memory*, %struct.Memory** %MEMORY
  %call_40080a = call %struct.Memory* @routine_mulsd_MINUS0x28__rbp____xmm4(%struct.State* %0, i64  0, %struct.Memory* %loadMem_40080a)
  store %struct.Memory* %call_40080a, %struct.Memory** %MEMORY

  ; Code: addsd 0x601038, %xmm4	 RIP: 40080f	 Bytes: 9
  %loadMem_40080f = load %struct.Memory*, %struct.Memory** %MEMORY
  %call_40080f = call %struct.Memory* @routine_addsd_0x601038___xmm4(%struct.State* %0, i64  0, %struct.Memory* %loadMem_40080f)
  store %struct.Memory* %call_40080f, %struct.Memory** %MEMORY

  ; Code: mulsd -0x28(%rbp), %xmm4	 RIP: 400818	 Bytes: 5
  %loadMem_400818 = load %struct.Memory*, %struct.Memory** %MEMORY
  %call_400818 = call %struct.Memory* @routine_mulsd_MINUS0x28__rbp____xmm4(%struct.State* %0, i64  0, %struct.Memory* %loadMem_400818)
  store %struct.Memory* %call_400818, %struct.Memory** %MEMORY

  ; Code: addsd 0x601288, %xmm4	 RIP: 40081d	 Bytes: 9
  %loadMem_40081d = load %struct.Memory*, %struct.Memory** %MEMORY
  %call_40081d = call %struct.Memory* @routine_addsd_0x601288___xmm4(%struct.State* %0, i64  0, %struct.Memory* %loadMem_40081d)
  store %struct.Memory* %call_40081d, %struct.Memory** %MEMORY

  ; Code: mulsd %xmm4, %xmm3	 RIP: 400826	 Bytes: 4
  %loadMem_400826 = load %struct.Memory*, %struct.Memory** %MEMORY
  %call_400826 = call %struct.Memory* @routine_mulsd__xmm4___xmm3(%struct.State* %0, i64  0, %struct.Memory* %loadMem_400826)
  store %struct.Memory* %call_400826, %struct.Memory** %MEMORY

  ; Code: movsd %xmm3, 0x601298	 RIP: 40082a	 Bytes: 9
  %loadMem_40082a = load %struct.Memory*, %struct.Memory** %MEMORY
  %call_40082a = call %struct.Memory* @routine_movsd__xmm3__0x601298(%struct.State* %0, i64  0, %struct.Memory* %loadMem_40082a)
  store %struct.Memory* %call_40082a, %struct.Memory** %MEMORY

  ; Code: movsd -0x28(%rbp), %xmm3	 RIP: 400833	 Bytes: 5
  %loadMem_400833 = load %struct.Memory*, %struct.Memory** %MEMORY
  %call_400833 = call %struct.Memory* @routine_movsd_MINUS0x28__rbp____xmm3(%struct.State* %0, i64  0, %struct.Memory* %loadMem_400833)
  store %struct.Memory* %call_400833, %struct.Memory** %MEMORY

  ; Code: movsd -0x28(%rbp), %xmm4	 RIP: 400838	 Bytes: 5
  %loadMem_400838 = load %struct.Memory*, %struct.Memory** %MEMORY
  %call_400838 = call %struct.Memory* @routine_movsd_MINUS0x28__rbp____xmm4(%struct.State* %0, i64  0, %struct.Memory* %loadMem_400838)
  store %struct.Memory* %call_400838, %struct.Memory** %MEMORY

  ; Code: movsd -0x28(%rbp), %xmm5	 RIP: 40083d	 Bytes: 5
  %loadMem_40083d = load %struct.Memory*, %struct.Memory** %MEMORY
  %call_40083d = call %struct.Memory* @routine_movsd_MINUS0x28__rbp____xmm5(%struct.State* %0, i64  0, %struct.Memory* %loadMem_40083d)
  store %struct.Memory* %call_40083d, %struct.Memory** %MEMORY

  ; Code: movsd -0x28(%rbp), %xmm6	 RIP: 400842	 Bytes: 5
  %loadMem_400842 = load %struct.Memory*, %struct.Memory** %MEMORY
  %call_400842 = call %struct.Memory* @routine_movsd_MINUS0x28__rbp____xmm6(%struct.State* %0, i64  0, %struct.Memory* %loadMem_400842)
  store %struct.Memory* %call_400842, %struct.Memory** %MEMORY

  ; Code: movsd -0x28(%rbp), %xmm7	 RIP: 400847	 Bytes: 5
  %loadMem_400847 = load %struct.Memory*, %struct.Memory** %MEMORY
  %call_400847 = call %struct.Memory* @routine_movsd_MINUS0x28__rbp____xmm7(%struct.State* %0, i64  0, %struct.Memory* %loadMem_400847)
  store %struct.Memory* %call_400847, %struct.Memory** %MEMORY

  ; Code: movsd 0x601098, %xmm8	 RIP: 40084c	 Bytes: 10
  %loadMem_40084c = load %struct.Memory*, %struct.Memory** %MEMORY
  %call_40084c = call %struct.Memory* @routine_movsd_0x601098___xmm8(%struct.State* %0, i64  0, %struct.Memory* %loadMem_40084c)
  store %struct.Memory* %call_40084c, %struct.Memory** %MEMORY

  ; Code: mulsd -0x28(%rbp), %xmm8	 RIP: 400856	 Bytes: 6
  %loadMem_400856 = load %struct.Memory*, %struct.Memory** %MEMORY
  %call_400856 = call %struct.Memory* @routine_mulsd_MINUS0x28__rbp____xmm8(%struct.State* %0, i64  0, %struct.Memory* %loadMem_400856)
  store %struct.Memory* %call_400856, %struct.Memory** %MEMORY

  ; Code: addsd 0x601090, %xmm8	 RIP: 40085c	 Bytes: 10
  %loadMem_40085c = load %struct.Memory*, %struct.Memory** %MEMORY
  %call_40085c = call %struct.Memory* @routine_addsd_0x601090___xmm8(%struct.State* %0, i64  0, %struct.Memory* %loadMem_40085c)
  store %struct.Memory* %call_40085c, %struct.Memory** %MEMORY

  ; Code: mulsd %xmm8, %xmm7	 RIP: 400866	 Bytes: 5
  %loadMem_400866 = load %struct.Memory*, %struct.Memory** %MEMORY
  %call_400866 = call %struct.Memory* @routine_mulsd__xmm8___xmm7(%struct.State* %0, i64  0, %struct.Memory* %loadMem_400866)
  store %struct.Memory* %call_400866, %struct.Memory** %MEMORY

  ; Code: addsd 0x601088, %xmm7	 RIP: 40086b	 Bytes: 9
  %loadMem_40086b = load %struct.Memory*, %struct.Memory** %MEMORY
  %call_40086b = call %struct.Memory* @routine_addsd_0x601088___xmm7(%struct.State* %0, i64  0, %struct.Memory* %loadMem_40086b)
  store %struct.Memory* %call_40086b, %struct.Memory** %MEMORY

  ; Code: mulsd %xmm7, %xmm6	 RIP: 400874	 Bytes: 4
  %loadMem_400874 = load %struct.Memory*, %struct.Memory** %MEMORY
  %call_400874 = call %struct.Memory* @routine_mulsd__xmm7___xmm6(%struct.State* %0, i64  0, %struct.Memory* %loadMem_400874)
  store %struct.Memory* %call_400874, %struct.Memory** %MEMORY

  ; Code: addsd 0x601080, %xmm6	 RIP: 400878	 Bytes: 9
  %loadMem_400878 = load %struct.Memory*, %struct.Memory** %MEMORY
  %call_400878 = call %struct.Memory* @routine_addsd_0x601080___xmm6(%struct.State* %0, i64  0, %struct.Memory* %loadMem_400878)
  store %struct.Memory* %call_400878, %struct.Memory** %MEMORY

  ; Code: mulsd %xmm6, %xmm5	 RIP: 400881	 Bytes: 4
  %loadMem_400881 = load %struct.Memory*, %struct.Memory** %MEMORY
  %call_400881 = call %struct.Memory* @routine_mulsd__xmm6___xmm5(%struct.State* %0, i64  0, %struct.Memory* %loadMem_400881)
  store %struct.Memory* %call_400881, %struct.Memory** %MEMORY

  ; Code: addsd 0x601078, %xmm5	 RIP: 400885	 Bytes: 9
  %loadMem_400885 = load %struct.Memory*, %struct.Memory** %MEMORY
  %call_400885 = call %struct.Memory* @routine_addsd_0x601078___xmm5(%struct.State* %0, i64  0, %struct.Memory* %loadMem_400885)
  store %struct.Memory* %call_400885, %struct.Memory** %MEMORY

  ; Code: mulsd %xmm5, %xmm4	 RIP: 40088e	 Bytes: 4
  %loadMem_40088e = load %struct.Memory*, %struct.Memory** %MEMORY
  %call_40088e = call %struct.Memory* @routine_mulsd__xmm5___xmm4(%struct.State* %0, i64  0, %struct.Memory* %loadMem_40088e)
  store %struct.Memory* %call_40088e, %struct.Memory** %MEMORY

  ; Code: addsd 0x601070, %xmm4	 RIP: 400892	 Bytes: 9
  %loadMem_400892 = load %struct.Memory*, %struct.Memory** %MEMORY
  %call_400892 = call %struct.Memory* @routine_addsd_0x601070___xmm4(%struct.State* %0, i64  0, %struct.Memory* %loadMem_400892)
  store %struct.Memory* %call_400892, %struct.Memory** %MEMORY

  ; Code: mulsd %xmm4, %xmm3	 RIP: 40089b	 Bytes: 4
  %loadMem_40089b = load %struct.Memory*, %struct.Memory** %MEMORY
  %call_40089b = call %struct.Memory* @routine_mulsd__xmm4___xmm3(%struct.State* %0, i64  0, %struct.Memory* %loadMem_40089b)
  store %struct.Memory* %call_40089b, %struct.Memory** %MEMORY

  ; Code: addsd 0x601288, %xmm3	 RIP: 40089f	 Bytes: 9
  %loadMem_40089f = load %struct.Memory*, %struct.Memory** %MEMORY
  %call_40089f = call %struct.Memory* @routine_addsd_0x601288___xmm3(%struct.State* %0, i64  0, %struct.Memory* %loadMem_40089f)
  store %struct.Memory* %call_40089f, %struct.Memory** %MEMORY

  ; Code: movsd %xmm3, 0x601258	 RIP: 4008a8	 Bytes: 9
  %loadMem_4008a8 = load %struct.Memory*, %struct.Memory** %MEMORY
  %call_4008a8 = call %struct.Memory* @routine_movsd__xmm3__0x601258(%struct.State* %0, i64  0, %struct.Memory* %loadMem_4008a8)
  store %struct.Memory* %call_4008a8, %struct.Memory** %MEMORY

  ; Code: movsd 0x601298, %xmm3	 RIP: 4008b1	 Bytes: 9
  %loadMem_4008b1 = load %struct.Memory*, %struct.Memory** %MEMORY
  %call_4008b1 = call %struct.Memory* @routine_movsd_0x601298___xmm3(%struct.State* %0, i64  0, %struct.Memory* %loadMem_4008b1)
  store %struct.Memory* %call_4008b1, %struct.Memory** %MEMORY

  ; Code: divsd 0x601258, %xmm3	 RIP: 4008ba	 Bytes: 9
  %loadMem_4008ba = load %struct.Memory*, %struct.Memory** %MEMORY
  %call_4008ba = call %struct.Memory* @routine_divsd_0x601258___xmm3(%struct.State* %0, i64  0, %struct.Memory* %loadMem_4008ba)
  store %struct.Memory* %call_4008ba, %struct.Memory** %MEMORY

  ; Code: movsd %xmm3, 0x601298	 RIP: 4008c3	 Bytes: 9
  %loadMem_4008c3 = load %struct.Memory*, %struct.Memory** %MEMORY
  %call_4008c3 = call %struct.Memory* @routine_movsd__xmm3__0x601298(%struct.State* %0, i64  0, %struct.Memory* %loadMem_4008c3)
  store %struct.Memory* %call_4008c3, %struct.Memory** %MEMORY

  ; Code: movsd -0x30(%rbp), %xmm3	 RIP: 4008cc	 Bytes: 5
  %loadMem_4008cc = load %struct.Memory*, %struct.Memory** %MEMORY
  %call_4008cc = call %struct.Memory* @routine_movsd_MINUS0x30__rbp____xmm3(%struct.State* %0, i64  0, %struct.Memory* %loadMem_4008cc)
  store %struct.Memory* %call_4008cc, %struct.Memory** %MEMORY

  ; Code: movsd 0x601298, %xmm4	 RIP: 4008d1	 Bytes: 9
  %loadMem_4008d1 = load %struct.Memory*, %struct.Memory** %MEMORY
  %call_4008d1 = call %struct.Memory* @routine_movsd_0x601298___xmm4(%struct.State* %0, i64  0, %struct.Memory* %loadMem_4008d1)
  store %struct.Memory* %call_4008d1, %struct.Memory** %MEMORY

  ; Code: movsd 0x601120, %xmm5	 RIP: 4008da	 Bytes: 9
  %loadMem_4008da = load %struct.Memory*, %struct.Memory** %MEMORY
  %call_4008da = call %struct.Memory* @routine_movsd_0x601120___xmm5(%struct.State* %0, i64  0, %struct.Memory* %loadMem_4008da)
  store %struct.Memory* %call_4008da, %struct.Memory** %MEMORY

  ; Code: mulsd -0x10(%rbp), %xmm5	 RIP: 4008e3	 Bytes: 5
  %loadMem_4008e3 = load %struct.Memory*, %struct.Memory** %MEMORY
  %call_4008e3 = call %struct.Memory* @routine_mulsd_MINUS0x10__rbp____xmm5(%struct.State* %0, i64  0, %struct.Memory* %loadMem_4008e3)
  store %struct.Memory* %call_4008e3, %struct.Memory** %MEMORY

  ; Code: addsd %xmm5, %xmm4	 RIP: 4008e8	 Bytes: 4
  %loadMem_4008e8 = load %struct.Memory*, %struct.Memory** %MEMORY
  %call_4008e8 = call %struct.Memory* @routine_addsd__xmm5___xmm4(%struct.State* %0, i64  0, %struct.Memory* %loadMem_4008e8)
  store %struct.Memory* %call_4008e8, %struct.Memory** %MEMORY

  ; Code: mulsd %xmm4, %xmm3	 RIP: 4008ec	 Bytes: 4
  %loadMem_4008ec = load %struct.Memory*, %struct.Memory** %MEMORY
  %call_4008ec = call %struct.Memory* @routine_mulsd__xmm4___xmm3(%struct.State* %0, i64  0, %struct.Memory* %loadMem_4008ec)
  store %struct.Memory* %call_4008ec, %struct.Memory** %MEMORY

  ; Code: divsd 0x601120, %xmm3	 RIP: 4008f0	 Bytes: 9
  %loadMem_4008f0 = load %struct.Memory*, %struct.Memory** %MEMORY
  %call_4008f0 = call %struct.Memory* @routine_divsd_0x601120___xmm3(%struct.State* %0, i64  0, %struct.Memory* %loadMem_4008f0)
  store %struct.Memory* %call_4008f0, %struct.Memory** %MEMORY

  ; Code: movsd %xmm3, 0x601298	 RIP: 4008f9	 Bytes: 9
  %loadMem_4008f9 = load %struct.Memory*, %struct.Memory** %MEMORY
  %call_4008f9 = call %struct.Memory* @routine_movsd__xmm3__0x601298(%struct.State* %0, i64  0, %struct.Memory* %loadMem_4008f9)
  store %struct.Memory* %call_4008f9, %struct.Memory** %MEMORY

  ; Code: movsd %xmm2, 0x601258	 RIP: 400902	 Bytes: 9
  %loadMem_400902 = load %struct.Memory*, %struct.Memory** %MEMORY
  %call_400902 = call %struct.Memory* @routine_movsd__xmm2__0x601258(%struct.State* %0, i64  0, %struct.Memory* %loadMem_400902)
  store %struct.Memory* %call_400902, %struct.Memory** %MEMORY

  ; Code: movsd 0x601298, %xmm2	 RIP: 40090b	 Bytes: 9
  %loadMem_40090b = load %struct.Memory*, %struct.Memory** %MEMORY
  %call_40090b = call %struct.Memory* @routine_movsd_0x601298___xmm2(%struct.State* %0, i64  0, %struct.Memory* %loadMem_40090b)
  store %struct.Memory* %call_40090b, %struct.Memory** %MEMORY

  ; Code: subsd 0x601258, %xmm2	 RIP: 400914	 Bytes: 9
  %loadMem_400914 = load %struct.Memory*, %struct.Memory** %MEMORY
  %call_400914 = call %struct.Memory* @routine_subsd_0x601258___xmm2(%struct.State* %0, i64  0, %struct.Memory* %loadMem_400914)
  store %struct.Memory* %call_400914, %struct.Memory** %MEMORY

  ; Code: movsd %xmm2, 0x601290	 RIP: 40091d	 Bytes: 9
  %loadMem_40091d = load %struct.Memory*, %struct.Memory** %MEMORY
  %call_40091d = call %struct.Memory* @routine_movsd__xmm2__0x601290(%struct.State* %0, i64  0, %struct.Memory* %loadMem_40091d)
  store %struct.Memory* %call_40091d, %struct.Memory** %MEMORY

  ; Code: mulsd 0x601290, %xmm1	 RIP: 400926	 Bytes: 9
  %loadMem_400926 = load %struct.Memory*, %struct.Memory** %MEMORY
  %call_400926 = call %struct.Memory* @routine_mulsd_0x601290___xmm1(%struct.State* %0, i64  0, %struct.Memory* %loadMem_400926)
  store %struct.Memory* %call_400926, %struct.Memory** %MEMORY

  ; Code: movsd %xmm0, -0x70(%rbp)	 RIP: 40092f	 Bytes: 5
  %loadMem_40092f = load %struct.Memory*, %struct.Memory** %MEMORY
  %call_40092f = call %struct.Memory* @routine_movsd__xmm0__MINUS0x70__rbp_(%struct.State* %0, i64  0, %struct.Memory* %loadMem_40092f)
  store %struct.Memory* %call_40092f, %struct.Memory** %MEMORY

  ; Code: movaps %xmm1, %xmm0	 RIP: 400934	 Bytes: 3
  %loadMem_400934 = load %struct.Memory*, %struct.Memory** %MEMORY
  %call_400934 = call %struct.Memory* @routine_movaps__xmm1___xmm0(%struct.State* %0, i64  0, %struct.Memory* %loadMem_400934)
  store %struct.Memory* %call_400934, %struct.Memory** %MEMORY

  ; Code: movsd -0x70(%rbp), %xmm1	 RIP: 400937	 Bytes: 5
  %loadMem_400937 = load %struct.Memory*, %struct.Memory** %MEMORY
  %call_400937 = call %struct.Memory* @routine_movsd_MINUS0x70__rbp____xmm1(%struct.State* %0, i64  0, %struct.Memory* %loadMem_400937)
  store %struct.Memory* %call_400937, %struct.Memory** %MEMORY

  ; Code: movsd -0x70(%rbp), %xmm2	 RIP: 40093c	 Bytes: 5
  %loadMem_40093c = load %struct.Memory*, %struct.Memory** %MEMORY
  %call_40093c = call %struct.Memory* @routine_movsd_MINUS0x70__rbp____xmm2(%struct.State* %0, i64  0, %struct.Memory* %loadMem_40093c)
  store %struct.Memory* %call_40093c, %struct.Memory** %MEMORY

  ; Code: movb $0x3, %al	 RIP: 400941	 Bytes: 2
  %loadMem_400941 = load %struct.Memory*, %struct.Memory** %MEMORY
  %call_400941 = call %struct.Memory* @routine_movb__0x3___al(%struct.State* %0, i64  0, %struct.Memory* %loadMem_400941)
  store %struct.Memory* %call_400941, %struct.Memory** %MEMORY

  ; Code: callq .printf_plt	 RIP: 400943	 Bytes: 5
  %loadMem1_400943 = load %struct.Memory*, %struct.Memory** %MEMORY
  %call1_400943 = call %struct.Memory* @routine_callq_.printf_plt(%struct.State* %0, i64  0, %struct.Memory* %loadMem1_400943, i64 -1331, i64 5, i64 5)
  store %struct.Memory* %call1_400943, %struct.Memory** %MEMORY

  %loadMem2_400943 = load %struct.Memory*, %struct.Memory** %MEMORY
  %loadPC_400943 = load i64, i64* %3
  %call2_400943 = call %struct.Memory* @sub_400410.printf_plt(%struct.State* %0, i64  %loadPC_400943, %struct.Memory* %loadMem2_400943)
  store %struct.Memory* %call2_400943, %struct.Memory** %MEMORY

  ; Code: xorl %ecx, %ecx	 RIP: 400948	 Bytes: 2
  %loadMem_400948 = load %struct.Memory*, %struct.Memory** %MEMORY
  %call_400948 = call %struct.Memory* @routine_xorl__ecx___ecx(%struct.State* %0, i64  0, %struct.Memory* %loadMem_400948)
  store %struct.Memory* %call_400948, %struct.Memory** %MEMORY

  ; Code: movl %eax, -0x74(%rbp)	 RIP: 40094a	 Bytes: 3
  %loadMem_40094a = load %struct.Memory*, %struct.Memory** %MEMORY
  %call_40094a = call %struct.Memory* @routine_movl__eax__MINUS0x74__rbp_(%struct.State* %0, i64  0, %struct.Memory* %loadMem_40094a)
  store %struct.Memory* %call_40094a, %struct.Memory** %MEMORY

  ; Code: movl %ecx, %eax	 RIP: 40094d	 Bytes: 2
  %loadMem_40094d = load %struct.Memory*, %struct.Memory** %MEMORY
  %call_40094d = call %struct.Memory* @routine_movl__ecx___eax(%struct.State* %0, i64  0, %struct.Memory* %loadMem_40094d)
  store %struct.Memory* %call_40094d, %struct.Memory** %MEMORY

  ; Code: addq $0x80, %rsp	 RIP: 40094f	 Bytes: 7
  %loadMem_40094f = load %struct.Memory*, %struct.Memory** %MEMORY
  %call_40094f = call %struct.Memory* @routine_addq__0x80___rsp(%struct.State* %0, i64  0, %struct.Memory* %loadMem_40094f)
  store %struct.Memory* %call_40094f, %struct.Memory** %MEMORY

  ; Code: popq %rbp	 RIP: 400956	 Bytes: 1
  %loadMem_400956 = load %struct.Memory*, %struct.Memory** %MEMORY
  %call_400956 = call %struct.Memory* @routine_popq__rbp(%struct.State* %0, i64  0, %struct.Memory* %loadMem_400956)
  store %struct.Memory* %call_400956, %struct.Memory** %MEMORY

  ; Code: retq	 RIP: 400957	 Bytes: 1
  %loadMem_400957 = load %struct.Memory*, %struct.Memory** %MEMORY
  %call_400957 = call %struct.Memory* @routine_retq(%struct.State* %0, i64  0, %struct.Memory* %loadMem_400957)
  store %struct.Memory* %call_400957, %struct.Memory** %MEMORY

  ret %struct.Memory* %call_400957
}

define internal %struct.Memory* @_ZN12_GLOBAL__N_1L4PUSHI2InImEEEP6MemoryS4_R5StateT_(%struct.Memory*, %struct.State* nocapture dereferenceable(3376), i64) #0 {
  %4 = getelementptr inbounds %struct.State, %struct.State* %1, i64 0, i32 6, i32 13, i32 0, i32 0
  %5 = load i64, i64* %4, align 8
  %6 = add i64 %5, -8
  %7 = inttoptr i64 %6 to i64*
  store i64 %2, i64* %7
  store i64 %6, i64* %4, align 8
  ret %struct.Memory* %0
}

define %struct.Memory* @routine_pushq__rbp(%struct.State*  dereferenceable(3376), i64, %struct.Memory* ) #19 {
block_400488:
  %3 = getelementptr inbounds %struct.State, %struct.State* %0, i32 0, i32 6
  %4 = getelementptr inbounds %struct.GPR, %struct.GPR* %3, i32 0, i32 33
  %5 = getelementptr inbounds %struct.Reg, %struct.Reg* %4, i32 0, i32 0
  %PC = bitcast %union.anon* %5 to i64*
  %6 = getelementptr inbounds %struct.State, %struct.State* %0, i32 0, i32 6
  %7 = getelementptr inbounds %struct.GPR, %struct.GPR* %6, i32 0, i32 15
  %8 = getelementptr inbounds %struct.Reg, %struct.Reg* %7, i32 0, i32 0
  %RBP = bitcast %union.anon* %8 to i64*
  %9 = load i64, i64* %RBP
  %10 = load i64, i64* %PC
  %11 = add i64 %10, 1
  store i64 %11, i64* %PC
  %12 = call %struct.Memory* @_ZN12_GLOBAL__N_1L4PUSHI2InImEEEP6MemoryS4_R5StateT_(%struct.Memory* %2, %struct.State* %0, i64 %9)
  ret %struct.Memory* %12
}

define internal %struct.Memory* @_ZN12_GLOBAL__N_1L3MOVI3RnWImE2RnImEEEP6MemoryS6_R5StateT_T0_(%struct.Memory* readnone returned, %struct.State* nocapture readnone dereferenceable(3376), i64* nocapture, i64) #2 {
  store i64 %3, i64* %2, align 8
  ret %struct.Memory* %0
}

define %struct.Memory* @routine_movq__rsp___rbp(%struct.State*  dereferenceable(3376), i64, %struct.Memory* ) #19 {
block_400488:
  %3 = getelementptr inbounds %struct.State, %struct.State* %0, i32 0, i32 6
  %4 = getelementptr inbounds %struct.GPR, %struct.GPR* %3, i32 0, i32 33
  %5 = getelementptr inbounds %struct.Reg, %struct.Reg* %4, i32 0, i32 0
  %PC = bitcast %union.anon* %5 to i64*
  %6 = getelementptr inbounds %struct.State, %struct.State* %0, i32 0, i32 6
  %7 = getelementptr inbounds %struct.GPR, %struct.GPR* %6, i32 0, i32 13
  %8 = getelementptr inbounds %struct.Reg, %struct.Reg* %7, i32 0, i32 0
  %RSP = bitcast %union.anon* %8 to i64*
  %9 = getelementptr inbounds %struct.State, %struct.State* %0, i32 0, i32 6
  %10 = getelementptr inbounds %struct.GPR, %struct.GPR* %9, i32 0, i32 15
  %11 = getelementptr inbounds %struct.Reg, %struct.Reg* %10, i32 0, i32 0
  %RBP = bitcast %union.anon* %11 to i64*
  %12 = load i64, i64* %RSP
  %13 = load i64, i64* %PC
  %14 = add i64 %13, 3
  store i64 %14, i64* %PC
  %15 = call %struct.Memory* @_ZN12_GLOBAL__N_1L3MOVI3RnWImE2RnImEEEP6MemoryS6_R5StateT_T0_(%struct.Memory* %2, %struct.State* %0, i64* %RBP, i64 %12)
  ret %struct.Memory* %15
}

define internal %struct.Memory* @_ZN12_GLOBAL__N_1L3SUBI3RnWImE2RnImE2InImEEEP6MemoryS8_R5StateT_T0_T1_(%struct.Memory* readnone returned, %struct.State* nocapture dereferenceable(3376), i64* nocapture, i64, i64) #0 {
  %6 = sub i64 %3, %4
  store i64 %6, i64* %2, align 8
  %7 = icmp ult i64 %3, %4
  %8 = zext i1 %7 to i8
  %9 = getelementptr inbounds %struct.State, %struct.State* %1, i64 0, i32 2, i32 1
  store i8 %8, i8* %9, align 1
  %10 = trunc i64 %6 to i32
  %11 = and i32 %10, 255
  %12 = tail call i32 @llvm.ctpop.i32(i32 %11) #22
  %13 = trunc i32 %12 to i8
  %14 = and i8 %13, 1
  %15 = xor i8 %14, 1
  %16 = getelementptr inbounds %struct.State, %struct.State* %1, i64 0, i32 2, i32 3
  store i8 %15, i8* %16, align 1
  %17 = xor i64 %4, %3
  %18 = xor i64 %17, %6
  %19 = lshr i64 %18, 4
  %20 = trunc i64 %19 to i8
  %21 = and i8 %20, 1
  %22 = getelementptr inbounds %struct.State, %struct.State* %1, i64 0, i32 2, i32 5
  store i8 %21, i8* %22, align 1
  %23 = icmp eq i64 %6, 0
  %24 = zext i1 %23 to i8
  %25 = getelementptr inbounds %struct.State, %struct.State* %1, i64 0, i32 2, i32 7
  store i8 %24, i8* %25, align 1
  %26 = lshr i64 %6, 63
  %27 = trunc i64 %26 to i8
  %28 = getelementptr inbounds %struct.State, %struct.State* %1, i64 0, i32 2, i32 9
  store i8 %27, i8* %28, align 1
  %29 = lshr i64 %3, 63
  %30 = lshr i64 %4, 63
  %31 = xor i64 %30, %29
  %32 = xor i64 %26, %29
  %33 = add   i64 %32, %31
  %34 = icmp eq i64 %33, 2
  %35 = zext i1 %34 to i8
  %36 = getelementptr inbounds %struct.State, %struct.State* %1, i64 0, i32 2, i32 13
  store i8 %35, i8* %36, align 1
  ret %struct.Memory* %0
}

define %struct.Memory* @routine_subq__0x80___rsp(%struct.State*  dereferenceable(3376), i64, %struct.Memory* ) #19 {
block_400488:
  %3 = getelementptr inbounds %struct.State, %struct.State* %0, i32 0, i32 6
  %4 = getelementptr inbounds %struct.GPR, %struct.GPR* %3, i32 0, i32 33
  %5 = getelementptr inbounds %struct.Reg, %struct.Reg* %4, i32 0, i32 0
  %PC = bitcast %union.anon* %5 to i64*
  %6 = getelementptr inbounds %struct.State, %struct.State* %0, i32 0, i32 6
  %7 = getelementptr inbounds %struct.GPR, %struct.GPR* %6, i32 0, i32 13
  %8 = getelementptr inbounds %struct.Reg, %struct.Reg* %7, i32 0, i32 0
  %RSP = bitcast %union.anon* %8 to i64*
  %9 = load i64, i64* %RSP
  %10 = load i64, i64* %PC
  %11 = add i64 %10, 7
  store i64 %11, i64* %PC
  %12 = call %struct.Memory* @_ZN12_GLOBAL__N_1L3SUBI3RnWImE2RnImE2InImEEEP6MemoryS8_R5StateT_T0_T1_(%struct.Memory* %2, %struct.State* %0, i64* %RSP, i64 %9, i64 128)
  ret %struct.Memory* %12
}

define internal %struct.Memory* @_ZN12_GLOBAL__N_1L3MOVI3RnWImE2InImEEEP6MemoryS6_R5StateT_T0_(%struct.Memory* readnone returned, %struct.State* nocapture readnone dereferenceable(3376), i64* nocapture, i64) #2 {
  store i64 %3, i64* %2, align 8
  ret %struct.Memory* %0
}

define %struct.Memory* @routine_movq__0x400a60___rdi(%struct.State*  dereferenceable(3376), i64, %struct.Memory* ) #19 {
block_400488:
  %3 = getelementptr inbounds %struct.State, %struct.State* %0, i32 0, i32 6
  %4 = getelementptr inbounds %struct.GPR, %struct.GPR* %3, i32 0, i32 33
  %5 = getelementptr inbounds %struct.Reg, %struct.Reg* %4, i32 0, i32 0
  %PC = bitcast %union.anon* %5 to i64*
  %6 = getelementptr inbounds %struct.State, %struct.State* %0, i32 0, i32 6
  %7 = getelementptr inbounds %struct.GPR, %struct.GPR* %6, i32 0, i32 11
  %8 = getelementptr inbounds %struct.Reg, %struct.Reg* %7, i32 0, i32 0
  %RDI = bitcast %union.anon* %8 to i64*
  %9 = load i64, i64* %PC
  %10 = add i64 %9, 10
  store i64 %10, i64* %PC
  %11 = call %struct.Memory* @_ZN12_GLOBAL__N_1L3MOVI3RnWImE2InImEEEP6MemoryS6_R5StateT_T0_(%struct.Memory* %2, %struct.State* %0, i64* %RDI, i64 4196960)
  ret %struct.Memory* %11
}

define internal %struct.Memory* @_ZN12_GLOBAL__N_1L3MOVI3MnWIjE2InIjEEEP6MemoryS6_R5StateT_T0_(%struct.Memory* readnone, %struct.State* nocapture readnone dereferenceable(3376), i64, i64) #8 {
  %5 = trunc i64 %3 to i32
  %6 = inttoptr i64 %2 to i32*
  store i32 %5, i32* %6
  ret %struct.Memory* %0
}

define %struct.Memory* @routine_movl__0x0__MINUS0x4__rbp_(%struct.State*  dereferenceable(3376), i64, %struct.Memory* ) #19 {
block_400488:
  %3 = getelementptr inbounds %struct.State, %struct.State* %0, i32 0, i32 6
  %4 = getelementptr inbounds %struct.GPR, %struct.GPR* %3, i32 0, i32 33
  %5 = getelementptr inbounds %struct.Reg, %struct.Reg* %4, i32 0, i32 0
  %PC = bitcast %union.anon* %5 to i64*
  %6 = getelementptr inbounds %struct.State, %struct.State* %0, i32 0, i32 6
  %7 = getelementptr inbounds %struct.GPR, %struct.GPR* %6, i32 0, i32 15
  %8 = getelementptr inbounds %struct.Reg, %struct.Reg* %7, i32 0, i32 0
  %RBP = bitcast %union.anon* %8 to i64*
  %9 = load i64, i64* %RBP
  %10 = sub i64 %9, 4
  %11 = load i64, i64* %PC
  %12 = add i64 %11, 7
  store i64 %12, i64* %PC
  %13 = call %struct.Memory* @_ZN12_GLOBAL__N_1L3MOVI3MnWIjE2InIjEEEP6MemoryS6_R5StateT_T0_(%struct.Memory* %2, %struct.State* %0, i64 %10, i64 0)
  ret %struct.Memory* %13
}

define internal %struct.Memory* @_ZN12_GLOBAL__N_1L3MOVI3RnWIhE2InIhEEEP6MemoryS6_R5StateT_T0_(%struct.Memory* readnone returned, %struct.State* nocapture readnone dereferenceable(3376), i8* nocapture, i64) #2 {
  %5 = trunc i64 %3 to i8
  store i8 %5, i8* %2, align 1
  ret %struct.Memory* %0
}

define %struct.Memory* @routine_movb__0x0___al(%struct.State*  dereferenceable(3376), i64, %struct.Memory* ) #19 {
block_400488:
  %3 = getelementptr inbounds %struct.State, %struct.State* %0, i32 0, i32 6
  %4 = getelementptr inbounds %struct.GPR, %struct.GPR* %3, i32 0, i32 33
  %5 = getelementptr inbounds %struct.Reg, %struct.Reg* %4, i32 0, i32 0
  %PC = bitcast %union.anon* %5 to i64*
  %6 = getelementptr inbounds %struct.State, %struct.State* %0, i32 0, i32 6
  %7 = getelementptr inbounds %struct.GPR, %struct.GPR* %6, i32 0, i32 1
  %8 = getelementptr inbounds %struct.Reg, %struct.Reg* %7, i32 0, i32 0
  %9 = bitcast %union.anon* %8 to %struct.anon.2*
  %AL = getelementptr inbounds %struct.anon.2, %struct.anon.2* %9, i32 0, i32 0
  %10 = load i64, i64* %PC
  %11 = add i64 %10, 2
  store i64 %11, i64* %PC
  %12 = call %struct.Memory* @_ZN12_GLOBAL__N_1L3MOVI3RnWIhE2InIhEEEP6MemoryS6_R5StateT_T0_(%struct.Memory* %2, %struct.State* %0, i8* %AL, i64 0)
  ret %struct.Memory* %12
}

define internal %struct.Memory* @_ZN12_GLOBAL__N_1L4CALLI2InImEEEP6MemoryS4_R5StateT_S2_(%struct.Memory* readnone, %struct.State* nocapture dereferenceable(3376), i64, i64) #0 {
  %5 = getelementptr inbounds %struct.State, %struct.State* %1, i64 0, i32 6, i32 13, i32 0, i32 0
  %6 = load i64, i64* %5, align 8
  %7 = add i64 %6, -8
  %8 = inttoptr i64 %7 to i64*
  store i64 %3, i64* %8
  store i64 %7, i64* %5, align 8
  %9 = getelementptr inbounds %struct.State, %struct.State* %1, i64 0, i32 6, i32 33, i32 0, i32 0
  store i64 %2, i64* %9, align 8
  ret %struct.Memory* %0
}

define %struct.Memory* @routine_callq_.printf_plt(%struct.State*  dereferenceable(3376), i64, %struct.Memory*, i64 %rel_off1, i64 %rel_off2, i64 %rel_off3) {
block_400488:
  %3 = getelementptr inbounds %struct.State, %struct.State* %0, i32 0, i32 6
  %4 = getelementptr inbounds %struct.GPR, %struct.GPR* %3, i32 0, i32 33
  %5 = getelementptr inbounds %struct.Reg, %struct.Reg* %4, i32 0, i32 0
  %PC = bitcast %union.anon* %5 to i64*
  %6 = load i64, i64* %PC
  %7 = add i64 %6, %rel_off1
  %8 = load i64, i64* %PC
  %9 = add i64 %8, %rel_off2
  %10 = load i64, i64* %PC
  %11 = add i64 %10, %rel_off3
  store i64 %11, i64* %PC
  %12 = call %struct.Memory* @_ZN12_GLOBAL__N_1L4CALLI2InImEEEP6MemoryS4_R5StateT_S2_(%struct.Memory* %2, %struct.State* %0, i64 %7, i64 %9)
  ret %struct.Memory* %12
}


define %struct.Memory* @routine_movq__0x400a28___rdi(%struct.State*  dereferenceable(3376), i64, %struct.Memory* ) #19 {
block_400488:
  %3 = getelementptr inbounds %struct.State, %struct.State* %0, i32 0, i32 6
  %4 = getelementptr inbounds %struct.GPR, %struct.GPR* %3, i32 0, i32 33
  %5 = getelementptr inbounds %struct.Reg, %struct.Reg* %4, i32 0, i32 0
  %PC = bitcast %union.anon* %5 to i64*
  %6 = getelementptr inbounds %struct.State, %struct.State* %0, i32 0, i32 6
  %7 = getelementptr inbounds %struct.GPR, %struct.GPR* %6, i32 0, i32 11
  %8 = getelementptr inbounds %struct.Reg, %struct.Reg* %7, i32 0, i32 0
  %RDI = bitcast %union.anon* %8 to i64*
  %9 = load i64, i64* %PC
  %10 = add i64 %9, 10
  store i64 %10, i64* %PC
  %11 = call %struct.Memory* @_ZN12_GLOBAL__N_1L3MOVI3RnWImE2InImEEEP6MemoryS6_R5StateT_T0_(%struct.Memory* %2, %struct.State* %0, i64* %RDI, i64 4196904)
  ret %struct.Memory* %11
}

define internal %struct.Memory* @_ZN12_GLOBAL__N_1L3MOVI3MnWIjE2RnIjEEEP6MemoryS6_R5StateT_T0_(%struct.Memory* readnone, %struct.State* nocapture readnone dereferenceable(3376), i64, i64) #8 {
  %5 = trunc i64 %3 to i32
  %6 = inttoptr i64 %2 to i32*
  store i32 %5, i32* %6
  ret %struct.Memory* %0
}

define %struct.Memory* @routine_movl__eax__MINUS0x5c__rbp_(%struct.State*  dereferenceable(3376), i64, %struct.Memory* ) #19 {
block_400488:
  %3 = getelementptr inbounds %struct.State, %struct.State* %0, i32 0, i32 6
  %4 = getelementptr inbounds %struct.GPR, %struct.GPR* %3, i32 0, i32 33
  %5 = getelementptr inbounds %struct.Reg, %struct.Reg* %4, i32 0, i32 0
  %PC = bitcast %union.anon* %5 to i64*
  %6 = getelementptr inbounds %struct.State, %struct.State* %0, i32 0, i32 6
  %7 = getelementptr inbounds %struct.GPR, %struct.GPR* %6, i32 0, i32 1
  %8 = getelementptr inbounds %struct.Reg, %struct.Reg* %7, i32 0, i32 0
  %EAX = bitcast %union.anon* %8 to i32*
  %9 = getelementptr inbounds %struct.State, %struct.State* %0, i32 0, i32 6
  %10 = getelementptr inbounds %struct.GPR, %struct.GPR* %9, i32 0, i32 15
  %11 = getelementptr inbounds %struct.Reg, %struct.Reg* %10, i32 0, i32 0
  %RBP = bitcast %union.anon* %11 to i64*
  %12 = load i64, i64* %RBP
  %13 = sub i64 %12, 92
  %14 = load i32, i32* %EAX
  %15 = zext i32 %14 to i64
  %16 = load i64, i64* %PC
  %17 = add i64 %16, 3
  store i64 %17, i64* %PC
  %18 = call %struct.Memory* @_ZN12_GLOBAL__N_1L3MOVI3MnWIjE2RnIjEEEP6MemoryS6_R5StateT_T0_(%struct.Memory* %2, %struct.State* %0, i64 %13, i64 %15)
  ret %struct.Memory* %18
}






define %struct.Memory* @routine_movq__0x400a62___rdi(%struct.State*  dereferenceable(3376), i64, %struct.Memory* ) #19 {
block_400488:
  %3 = getelementptr inbounds %struct.State, %struct.State* %0, i32 0, i32 6
  %4 = getelementptr inbounds %struct.GPR, %struct.GPR* %3, i32 0, i32 33
  %5 = getelementptr inbounds %struct.Reg, %struct.Reg* %4, i32 0, i32 0
  %PC = bitcast %union.anon* %5 to i64*
  %6 = getelementptr inbounds %struct.State, %struct.State* %0, i32 0, i32 6
  %7 = getelementptr inbounds %struct.GPR, %struct.GPR* %6, i32 0, i32 11
  %8 = getelementptr inbounds %struct.Reg, %struct.Reg* %7, i32 0, i32 0
  %RDI = bitcast %union.anon* %8 to i64*
  %9 = load i64, i64* %PC
  %10 = add i64 %9, 10
  store i64 %10, i64* %PC
  %11 = call %struct.Memory* @_ZN12_GLOBAL__N_1L3MOVI3RnWImE2InImEEEP6MemoryS6_R5StateT_T0_(%struct.Memory* %2, %struct.State* %0, i64* %RDI, i64 4196962)
  ret %struct.Memory* %11
}

define internal %struct.Memory* @_ZN12_GLOBAL__N_1L9MOVSD_MEMI3VnWI8vec128_tE3MVnI7vec64_tEEEP6MemoryS8_R5StateT_T0_(%struct.Memory* returned, %struct.State* nocapture readnone dereferenceable(3376), i8* nocapture, i64) #0 {
  %5 = inttoptr i64 %3 to double*
  %6 = load double, double* %5
  %7 = bitcast i8* %2 to double*
  store double %6, double* %7, align 1
  %8 = getelementptr inbounds i8, i8* %2, i64 8
  %9 = bitcast i8* %8 to double*
  store double 0.000000e+00, double* %9, align 1
  ret %struct.Memory* %0
}

define %struct.Memory* @routine_movsd_0x48f__rip____xmm0(%struct.State*  dereferenceable(3376), i64, %struct.Memory* ) #19 {
block_400488:
  %3 = getelementptr inbounds %struct.State, %struct.State* %0, i32 0, i32 6
  %4 = getelementptr inbounds %struct.GPR, %struct.GPR* %3, i32 0, i32 33
  %5 = getelementptr inbounds %struct.Reg, %struct.Reg* %4, i32 0, i32 0
  %PC = bitcast %union.anon* %5 to i64*
  %6 = getelementptr inbounds %struct.State, %struct.State* %0, i32 0, i32 1
  %7 = getelementptr inbounds [32 x %union.VectorReg], [32 x %union.VectorReg]* %6, i64 0, i64 0
  %YMM0 = bitcast %union.VectorReg* %7 to %"class.std::bitset"*
  %8 = bitcast %"class.std::bitset"* %YMM0 to i8*
  %9 = load i64, i64* %PC
  %10 = add i64 %9, 1175
  %11 = load i64, i64* %PC
  %12 = add i64 %11, 8
  store i64 %12, i64* %PC
  %13 = call %struct.Memory* @_ZN12_GLOBAL__N_1L9MOVSD_MEMI3VnWI8vec128_tE3MVnI7vec64_tEEEP6MemoryS8_R5StateT_T0_(%struct.Memory* %2, %struct.State* %0, i8* %8, i64 %10)
  ret %struct.Memory* %13
}


define %struct.Memory* @routine_movsd_0x48f__rip____xmm1(%struct.State*  dereferenceable(3376), i64, %struct.Memory* ) #19 {
block_400488:
  %3 = getelementptr inbounds %struct.State, %struct.State* %0, i32 0, i32 6
  %4 = getelementptr inbounds %struct.GPR, %struct.GPR* %3, i32 0, i32 33
  %5 = getelementptr inbounds %struct.Reg, %struct.Reg* %4, i32 0, i32 0
  %PC = bitcast %union.anon* %5 to i64*
  %6 = getelementptr inbounds %struct.State, %struct.State* %0, i32 0, i32 1
  %7 = getelementptr inbounds [32 x %union.VectorReg], [32 x %union.VectorReg]* %6, i64 0, i64 1
  %YMM1 = bitcast %union.VectorReg* %7 to %"class.std::bitset"*
  %8 = bitcast %"class.std::bitset"* %YMM1 to i8*
  %9 = load i64, i64* %PC
  %10 = add i64 %9, 1175
  %11 = load i64, i64* %PC
  %12 = add i64 %11, 8
  store i64 %12, i64* %PC
  %13 = call %struct.Memory* @_ZN12_GLOBAL__N_1L9MOVSD_MEMI3VnWI8vec128_tE3MVnI7vec64_tEEEP6MemoryS8_R5StateT_T0_(%struct.Memory* %2, %struct.State* %0, i8* %8, i64 %10)
  ret %struct.Memory* %13
}


define %struct.Memory* @routine_movsd_0x48f__rip____xmm2(%struct.State*  dereferenceable(3376), i64, %struct.Memory* ) #19 {
block_400488:
  %3 = getelementptr inbounds %struct.State, %struct.State* %0, i32 0, i32 6
  %4 = getelementptr inbounds %struct.GPR, %struct.GPR* %3, i32 0, i32 33
  %5 = getelementptr inbounds %struct.Reg, %struct.Reg* %4, i32 0, i32 0
  %PC = bitcast %union.anon* %5 to i64*
  %6 = getelementptr inbounds %struct.State, %struct.State* %0, i32 0, i32 1
  %7 = getelementptr inbounds [32 x %union.VectorReg], [32 x %union.VectorReg]* %6, i64 0, i64 2
  %YMM2 = bitcast %union.VectorReg* %7 to %"class.std::bitset"*
  %8 = bitcast %"class.std::bitset"* %YMM2 to i8*
  %9 = load i64, i64* %PC
  %10 = add i64 %9, 1175
  %11 = load i64, i64* %PC
  %12 = add i64 %11, 8
  store i64 %12, i64* %PC
  %13 = call %struct.Memory* @_ZN12_GLOBAL__N_1L9MOVSD_MEMI3VnWI8vec128_tE3MVnI7vec64_tEEEP6MemoryS8_R5StateT_T0_(%struct.Memory* %2, %struct.State* %0, i8* %8, i64 %10)
  ret %struct.Memory* %13
}


define %struct.Memory* @routine_movsd_0x48f__rip____xmm3(%struct.State*  dereferenceable(3376), i64, %struct.Memory* ) #19 {
block_400488:
  %3 = getelementptr inbounds %struct.State, %struct.State* %0, i32 0, i32 6
  %4 = getelementptr inbounds %struct.GPR, %struct.GPR* %3, i32 0, i32 33
  %5 = getelementptr inbounds %struct.Reg, %struct.Reg* %4, i32 0, i32 0
  %PC = bitcast %union.anon* %5 to i64*
  %6 = getelementptr inbounds %struct.State, %struct.State* %0, i32 0, i32 1
  %7 = getelementptr inbounds [32 x %union.VectorReg], [32 x %union.VectorReg]* %6, i64 0, i64 3
  %YMM3 = bitcast %union.VectorReg* %7 to %"class.std::bitset"*
  %8 = bitcast %"class.std::bitset"* %YMM3 to i8*
  %9 = load i64, i64* %PC
  %10 = add i64 %9, 1175
  %11 = load i64, i64* %PC
  %12 = add i64 %11, 8
  store i64 %12, i64* %PC
  %13 = call %struct.Memory* @_ZN12_GLOBAL__N_1L9MOVSD_MEMI3VnWI8vec128_tE3MVnI7vec64_tEEEP6MemoryS8_R5StateT_T0_(%struct.Memory* %2, %struct.State* %0, i8* %8, i64 %10)
  ret %struct.Memory* %13
}


define %struct.Memory* @routine_movsd_0x48f__rip____xmm4(%struct.State*  dereferenceable(3376), i64, %struct.Memory* ) #19 {
block_400488:
  %3 = getelementptr inbounds %struct.State, %struct.State* %0, i32 0, i32 6
  %4 = getelementptr inbounds %struct.GPR, %struct.GPR* %3, i32 0, i32 33
  %5 = getelementptr inbounds %struct.Reg, %struct.Reg* %4, i32 0, i32 0
  %PC = bitcast %union.anon* %5 to i64*
  %6 = getelementptr inbounds %struct.State, %struct.State* %0, i32 0, i32 1
  %7 = getelementptr inbounds [32 x %union.VectorReg], [32 x %union.VectorReg]* %6, i64 0, i64 4
  %YMM4 = bitcast %union.VectorReg* %7 to %"class.std::bitset"*
  %8 = bitcast %"class.std::bitset"* %YMM4 to i8*
  %9 = load i64, i64* %PC
  %10 = add i64 %9, 1175
  %11 = load i64, i64* %PC
  %12 = add i64 %11, 8
  store i64 %12, i64* %PC
  %13 = call %struct.Memory* @_ZN12_GLOBAL__N_1L9MOVSD_MEMI3VnWI8vec128_tE3MVnI7vec64_tEEEP6MemoryS8_R5StateT_T0_(%struct.Memory* %2, %struct.State* %0, i8* %8, i64 %10)
  ret %struct.Memory* %13
}


define %struct.Memory* @routine_movsd_0x48f__rip____xmm5(%struct.State*  dereferenceable(3376), i64, %struct.Memory* ) #19 {
block_400488:
  %3 = getelementptr inbounds %struct.State, %struct.State* %0, i32 0, i32 6
  %4 = getelementptr inbounds %struct.GPR, %struct.GPR* %3, i32 0, i32 33
  %5 = getelementptr inbounds %struct.Reg, %struct.Reg* %4, i32 0, i32 0
  %PC = bitcast %union.anon* %5 to i64*
  %6 = getelementptr inbounds %struct.State, %struct.State* %0, i32 0, i32 1
  %7 = getelementptr inbounds [32 x %union.VectorReg], [32 x %union.VectorReg]* %6, i64 0, i64 5
  %YMM5 = bitcast %union.VectorReg* %7 to %"class.std::bitset"*
  %8 = bitcast %"class.std::bitset"* %YMM5 to i8*
  %9 = load i64, i64* %PC
  %10 = add i64 %9, 1175
  %11 = load i64, i64* %PC
  %12 = add i64 %11, 8
  store i64 %12, i64* %PC
  %13 = call %struct.Memory* @_ZN12_GLOBAL__N_1L9MOVSD_MEMI3VnWI8vec128_tE3MVnI7vec64_tEEEP6MemoryS8_R5StateT_T0_(%struct.Memory* %2, %struct.State* %0, i8* %8, i64 %10)
  ret %struct.Memory* %13
}

define internal %struct.Memory* @_ZN12_GLOBAL__N_1L3MOVI3MnWImE2InImEEEP6MemoryS6_R5StateT_T0_(%struct.Memory* readnone, %struct.State* nocapture readnone dereferenceable(3376), i64, i64) #8 {
  %5 = inttoptr i64 %2 to i64*
  store i64 %3, i64* %5
  ret %struct.Memory* %0
}

define %struct.Memory* @routine_movq__0x3d09__MINUS0x38__rbp_(%struct.State*  dereferenceable(3376), i64, %struct.Memory* ) #19 {
block_400488:
  %3 = getelementptr inbounds %struct.State, %struct.State* %0, i32 0, i32 6
  %4 = getelementptr inbounds %struct.GPR, %struct.GPR* %3, i32 0, i32 33
  %5 = getelementptr inbounds %struct.Reg, %struct.Reg* %4, i32 0, i32 0
  %PC = bitcast %union.anon* %5 to i64*
  %6 = getelementptr inbounds %struct.State, %struct.State* %0, i32 0, i32 6
  %7 = getelementptr inbounds %struct.GPR, %struct.GPR* %6, i32 0, i32 15
  %8 = getelementptr inbounds %struct.Reg, %struct.Reg* %7, i32 0, i32 0
  %RBP = bitcast %union.anon* %8 to i64*
  %9 = load i64, i64* %RBP
  %10 = sub i64 %9, 56
  %11 = load i64, i64* %PC
  %12 = add i64 %11, 8
  store i64 %12, i64* %PC
  %13 = call %struct.Memory* @_ZN12_GLOBAL__N_1L3MOVI3MnWImE2InImEEEP6MemoryS6_R5StateT_T0_(%struct.Memory* %2, %struct.State* %0, i64 %10, i64 15625)
  ret %struct.Memory* %13
}

define internal %struct.Memory* @_ZN12_GLOBAL__N_1L9MOVSD_MEMI4MVnWI7vec64_tE2VnI8vec128_tEEEP6MemoryS8_R5StateT_T0_(%struct.Memory* readnone, %struct.State* nocapture readnone dereferenceable(3376), i64, i8* nocapture readonly) #7 {
  %5 = bitcast i8* %3 to double*
  %6 = load double, double* %5, align 1
  %7 = inttoptr i64 %2 to double*
  store double %6, double* %7
  ret %struct.Memory* %0
}

define %struct.Memory* @routine_movsd__xmm4__0x6012d0(%struct.State*  dereferenceable(3376), i64, %struct.Memory* ) #19 {
block_400488:
  %3 = getelementptr inbounds %struct.State, %struct.State* %0, i32 0, i32 6
  %4 = getelementptr inbounds %struct.GPR, %struct.GPR* %3, i32 0, i32 33
  %5 = getelementptr inbounds %struct.Reg, %struct.Reg* %4, i32 0, i32 0
  %PC = bitcast %union.anon* %5 to i64*
  %6 = getelementptr inbounds %struct.State, %struct.State* %0, i32 0, i32 1
  %7 = getelementptr inbounds [32 x %union.VectorReg], [32 x %union.VectorReg]* %6, i64 0, i64 4
  %XMM4 = bitcast %union.VectorReg* %7 to %union.vec128_t*
  %8 = bitcast %union.vec128_t* %XMM4 to i8*
  %9 = load i64, i64* %PC
  %10 = add i64 %9, 9
  store i64 %10, i64* %PC
  %11 = call %struct.Memory* @_ZN12_GLOBAL__N_1L9MOVSD_MEMI4MVnWI7vec64_tE2VnI8vec128_tEEEP6MemoryS8_R5StateT_T0_(%struct.Memory* %2, %struct.State* %0, i64 6296272, i8* %8)
  ret %struct.Memory* %11
}


define %struct.Memory* @routine_movq__0x1e848000__MINUS0x40__rbp_(%struct.State*  dereferenceable(3376), i64, %struct.Memory* ) #19 {
block_400488:
  %3 = getelementptr inbounds %struct.State, %struct.State* %0, i32 0, i32 6
  %4 = getelementptr inbounds %struct.GPR, %struct.GPR* %3, i32 0, i32 33
  %5 = getelementptr inbounds %struct.Reg, %struct.Reg* %4, i32 0, i32 0
  %PC = bitcast %union.anon* %5 to i64*
  %6 = getelementptr inbounds %struct.State, %struct.State* %0, i32 0, i32 6
  %7 = getelementptr inbounds %struct.GPR, %struct.GPR* %6, i32 0, i32 15
  %8 = getelementptr inbounds %struct.Reg, %struct.Reg* %7, i32 0, i32 0
  %RBP = bitcast %union.anon* %8 to i64*
  %9 = load i64, i64* %RBP
  %10 = sub i64 %9, 64
  %11 = load i64, i64* %PC
  %12 = add i64 %11, 8
  store i64 %12, i64* %PC
  %13 = call %struct.Memory* @_ZN12_GLOBAL__N_1L3MOVI3MnWImE2InImEEEP6MemoryS6_R5StateT_T0_(%struct.Memory* %2, %struct.State* %0, i64 %10, i64 512000000)
  ret %struct.Memory* %13
}


define %struct.Memory* @routine_movsd__xmm5__0x601260(%struct.State*  dereferenceable(3376), i64, %struct.Memory* ) #19 {
block_400488:
  %3 = getelementptr inbounds %struct.State, %struct.State* %0, i32 0, i32 6
  %4 = getelementptr inbounds %struct.GPR, %struct.GPR* %3, i32 0, i32 33
  %5 = getelementptr inbounds %struct.Reg, %struct.Reg* %4, i32 0, i32 0
  %PC = bitcast %union.anon* %5 to i64*
  %6 = getelementptr inbounds %struct.State, %struct.State* %0, i32 0, i32 1
  %7 = getelementptr inbounds [32 x %union.VectorReg], [32 x %union.VectorReg]* %6, i64 0, i64 5
  %XMM5 = bitcast %union.VectorReg* %7 to %union.vec128_t*
  %8 = bitcast %union.vec128_t* %XMM5 to i8*
  %9 = load i64, i64* %PC
  %10 = add i64 %9, 9
  store i64 %10, i64* %PC
  %11 = call %struct.Memory* @_ZN12_GLOBAL__N_1L9MOVSD_MEMI4MVnWI7vec64_tE2VnI8vec128_tEEEP6MemoryS8_R5StateT_T0_(%struct.Memory* %2, %struct.State* %0, i64 6296160, i8* %8)
  ret %struct.Memory* %11
}


define %struct.Memory* @routine_movsd__xmm4__0x601288(%struct.State*  dereferenceable(3376), i64, %struct.Memory* ) #19 {
block_400488:
  %3 = getelementptr inbounds %struct.State, %struct.State* %0, i32 0, i32 6
  %4 = getelementptr inbounds %struct.GPR, %struct.GPR* %3, i32 0, i32 33
  %5 = getelementptr inbounds %struct.Reg, %struct.Reg* %4, i32 0, i32 0
  %PC = bitcast %union.anon* %5 to i64*
  %6 = getelementptr inbounds %struct.State, %struct.State* %0, i32 0, i32 1
  %7 = getelementptr inbounds [32 x %union.VectorReg], [32 x %union.VectorReg]* %6, i64 0, i64 4
  %XMM4 = bitcast %union.VectorReg* %7 to %union.vec128_t*
  %8 = bitcast %union.vec128_t* %XMM4 to i8*
  %9 = load i64, i64* %PC
  %10 = add i64 %9, 9
  store i64 %10, i64* %PC
  %11 = call %struct.Memory* @_ZN12_GLOBAL__N_1L9MOVSD_MEMI4MVnWI7vec64_tE2VnI8vec128_tEEEP6MemoryS8_R5StateT_T0_(%struct.Memory* %2, %struct.State* %0, i64 6296200, i8* %8)
  ret %struct.Memory* %11
}


define %struct.Memory* @routine_movsd__xmm3__0x601120(%struct.State*  dereferenceable(3376), i64, %struct.Memory* ) #19 {
block_400488:
  %3 = getelementptr inbounds %struct.State, %struct.State* %0, i32 0, i32 6
  %4 = getelementptr inbounds %struct.GPR, %struct.GPR* %3, i32 0, i32 33
  %5 = getelementptr inbounds %struct.Reg, %struct.Reg* %4, i32 0, i32 0
  %PC = bitcast %union.anon* %5 to i64*
  %6 = getelementptr inbounds %struct.State, %struct.State* %0, i32 0, i32 1
  %7 = getelementptr inbounds [32 x %union.VectorReg], [32 x %union.VectorReg]* %6, i64 0, i64 3
  %XMM3 = bitcast %union.VectorReg* %7 to %union.vec128_t*
  %8 = bitcast %union.vec128_t* %XMM3 to i8*
  %9 = load i64, i64* %PC
  %10 = add i64 %9, 9
  store i64 %10, i64* %PC
  %11 = call %struct.Memory* @_ZN12_GLOBAL__N_1L9MOVSD_MEMI4MVnWI7vec64_tE2VnI8vec128_tEEEP6MemoryS8_R5StateT_T0_(%struct.Memory* %2, %struct.State* %0, i64 6295840, i8* %8)
  ret %struct.Memory* %11
}


define %struct.Memory* @routine_movsd__xmm2__0x6012a0(%struct.State*  dereferenceable(3376), i64, %struct.Memory* ) #19 {
block_400488:
  %3 = getelementptr inbounds %struct.State, %struct.State* %0, i32 0, i32 6
  %4 = getelementptr inbounds %struct.GPR, %struct.GPR* %3, i32 0, i32 33
  %5 = getelementptr inbounds %struct.Reg, %struct.Reg* %4, i32 0, i32 0
  %PC = bitcast %union.anon* %5 to i64*
  %6 = getelementptr inbounds %struct.State, %struct.State* %0, i32 0, i32 1
  %7 = getelementptr inbounds [32 x %union.VectorReg], [32 x %union.VectorReg]* %6, i64 0, i64 2
  %XMM2 = bitcast %union.VectorReg* %7 to %union.vec128_t*
  %8 = bitcast %union.vec128_t* %XMM2 to i8*
  %9 = load i64, i64* %PC
  %10 = add i64 %9, 9
  store i64 %10, i64* %PC
  %11 = call %struct.Memory* @_ZN12_GLOBAL__N_1L9MOVSD_MEMI4MVnWI7vec64_tE2VnI8vec128_tEEEP6MemoryS8_R5StateT_T0_(%struct.Memory* %2, %struct.State* %0, i64 6296224, i8* %8)
  ret %struct.Memory* %11
}


define %struct.Memory* @routine_movsd__xmm1__0x601278(%struct.State*  dereferenceable(3376), i64, %struct.Memory* ) #19 {
block_400488:
  %3 = getelementptr inbounds %struct.State, %struct.State* %0, i32 0, i32 6
  %4 = getelementptr inbounds %struct.GPR, %struct.GPR* %3, i32 0, i32 33
  %5 = getelementptr inbounds %struct.Reg, %struct.Reg* %4, i32 0, i32 0
  %PC = bitcast %union.anon* %5 to i64*
  %6 = getelementptr inbounds %struct.State, %struct.State* %0, i32 0, i32 1
  %7 = getelementptr inbounds [32 x %union.VectorReg], [32 x %union.VectorReg]* %6, i64 0, i64 1
  %XMM1 = bitcast %union.VectorReg* %7 to %union.vec128_t*
  %8 = bitcast %union.vec128_t* %XMM1 to i8*
  %9 = load i64, i64* %PC
  %10 = add i64 %9, 9
  store i64 %10, i64* %PC
  %11 = call %struct.Memory* @_ZN12_GLOBAL__N_1L9MOVSD_MEMI4MVnWI7vec64_tE2VnI8vec128_tEEEP6MemoryS8_R5StateT_T0_(%struct.Memory* %2, %struct.State* %0, i64 6296184, i8* %8)
  ret %struct.Memory* %11
}


define %struct.Memory* @routine_movsd__xmm0__0x601128(%struct.State*  dereferenceable(3376), i64, %struct.Memory* ) #19 {
block_400488:
  %3 = getelementptr inbounds %struct.State, %struct.State* %0, i32 0, i32 6
  %4 = getelementptr inbounds %struct.GPR, %struct.GPR* %3, i32 0, i32 33
  %5 = getelementptr inbounds %struct.Reg, %struct.Reg* %4, i32 0, i32 0
  %PC = bitcast %union.anon* %5 to i64*
  %6 = getelementptr inbounds %struct.State, %struct.State* %0, i32 0, i32 1
  %7 = getelementptr inbounds [32 x %union.VectorReg], [32 x %union.VectorReg]* %6, i64 0, i64 0
  %XMM0 = bitcast %union.VectorReg* %7 to %union.vec128_t*
  %8 = bitcast %union.vec128_t* %XMM0 to i8*
  %9 = load i64, i64* %PC
  %10 = add i64 %9, 9
  store i64 %10, i64* %PC
  %11 = call %struct.Memory* @_ZN12_GLOBAL__N_1L9MOVSD_MEMI4MVnWI7vec64_tE2VnI8vec128_tEEEP6MemoryS8_R5StateT_T0_(%struct.Memory* %2, %struct.State* %0, i64 6295848, i8* %8)
  ret %struct.Memory* %11
}


define %struct.Memory* @routine_movsd_0x601288___xmm0(%struct.State*  dereferenceable(3376), i64, %struct.Memory* ) #19 {
block_400488:
  %3 = getelementptr inbounds %struct.State, %struct.State* %0, i32 0, i32 6
  %4 = getelementptr inbounds %struct.GPR, %struct.GPR* %3, i32 0, i32 33
  %5 = getelementptr inbounds %struct.Reg, %struct.Reg* %4, i32 0, i32 0
  %PC = bitcast %union.anon* %5 to i64*
  %6 = getelementptr inbounds %struct.State, %struct.State* %0, i32 0, i32 1
  %7 = getelementptr inbounds [32 x %union.VectorReg], [32 x %union.VectorReg]* %6, i64 0, i64 0
  %YMM0 = bitcast %union.VectorReg* %7 to %"class.std::bitset"*
  %8 = bitcast %"class.std::bitset"* %YMM0 to i8*
  %9 = load i64, i64* %PC
  %10 = add i64 %9, 9
  store i64 %10, i64* %PC
  %11 = call %struct.Memory* @_ZN12_GLOBAL__N_1L9MOVSD_MEMI3VnWI8vec128_tE3MVnI7vec64_tEEEP6MemoryS8_R5StateT_T0_(%struct.Memory* %2, %struct.State* %0, i8* %8, i64 6296200)
  ret %struct.Memory* %11
}


define %struct.Memory* @routine_movsd__xmm0__0x601280(%struct.State*  dereferenceable(3376), i64, %struct.Memory* ) #19 {
block_400488:
  %3 = getelementptr inbounds %struct.State, %struct.State* %0, i32 0, i32 6
  %4 = getelementptr inbounds %struct.GPR, %struct.GPR* %3, i32 0, i32 33
  %5 = getelementptr inbounds %struct.Reg, %struct.Reg* %4, i32 0, i32 0
  %PC = bitcast %union.anon* %5 to i64*
  %6 = getelementptr inbounds %struct.State, %struct.State* %0, i32 0, i32 1
  %7 = getelementptr inbounds [32 x %union.VectorReg], [32 x %union.VectorReg]* %6, i64 0, i64 0
  %XMM0 = bitcast %union.VectorReg* %7 to %union.vec128_t*
  %8 = bitcast %union.vec128_t* %XMM0 to i8*
  %9 = load i64, i64* %PC
  %10 = add i64 %9, 9
  store i64 %10, i64* %PC
  %11 = call %struct.Memory* @_ZN12_GLOBAL__N_1L9MOVSD_MEMI4MVnWI7vec64_tE2VnI8vec128_tEEEP6MemoryS8_R5StateT_T0_(%struct.Memory* %2, %struct.State* %0, i64 6296192, i8* %8)
  ret %struct.Memory* %11
}


define %struct.Memory* @routine_movl__eax__MINUS0x60__rbp_(%struct.State*  dereferenceable(3376), i64, %struct.Memory* ) #19 {
block_400488:
  %3 = getelementptr inbounds %struct.State, %struct.State* %0, i32 0, i32 6
  %4 = getelementptr inbounds %struct.GPR, %struct.GPR* %3, i32 0, i32 33
  %5 = getelementptr inbounds %struct.Reg, %struct.Reg* %4, i32 0, i32 0
  %PC = bitcast %union.anon* %5 to i64*
  %6 = getelementptr inbounds %struct.State, %struct.State* %0, i32 0, i32 6
  %7 = getelementptr inbounds %struct.GPR, %struct.GPR* %6, i32 0, i32 1
  %8 = getelementptr inbounds %struct.Reg, %struct.Reg* %7, i32 0, i32 0
  %EAX = bitcast %union.anon* %8 to i32*
  %9 = getelementptr inbounds %struct.State, %struct.State* %0, i32 0, i32 6
  %10 = getelementptr inbounds %struct.GPR, %struct.GPR* %9, i32 0, i32 15
  %11 = getelementptr inbounds %struct.Reg, %struct.Reg* %10, i32 0, i32 0
  %RBP = bitcast %union.anon* %11 to i64*
  %12 = load i64, i64* %RBP
  %13 = sub i64 %12, 96
  %14 = load i32, i32* %EAX
  %15 = zext i32 %14 to i64
  %16 = load i64, i64* %PC
  %17 = add i64 %16, 3
  store i64 %17, i64* %PC
  %18 = call %struct.Memory* @_ZN12_GLOBAL__N_1L3MOVI3MnWIjE2RnIjEEEP6MemoryS6_R5StateT_T0_(%struct.Memory* %2, %struct.State* %0, i64 %13, i64 %15)
  ret %struct.Memory* %18
}






define %struct.Memory* @routine_movq__0x400a92___rdi(%struct.State*  dereferenceable(3376), i64, %struct.Memory* ) #19 {
block_400488:
  %3 = getelementptr inbounds %struct.State, %struct.State* %0, i32 0, i32 6
  %4 = getelementptr inbounds %struct.GPR, %struct.GPR* %3, i32 0, i32 33
  %5 = getelementptr inbounds %struct.Reg, %struct.Reg* %4, i32 0, i32 0
  %PC = bitcast %union.anon* %5 to i64*
  %6 = getelementptr inbounds %struct.State, %struct.State* %0, i32 0, i32 6
  %7 = getelementptr inbounds %struct.GPR, %struct.GPR* %6, i32 0, i32 11
  %8 = getelementptr inbounds %struct.Reg, %struct.Reg* %7, i32 0, i32 0
  %RDI = bitcast %union.anon* %8 to i64*
  %9 = load i64, i64* %PC
  %10 = add i64 %9, 10
  store i64 %10, i64* %PC
  %11 = call %struct.Memory* @_ZN12_GLOBAL__N_1L3MOVI3RnWImE2InImEEEP6MemoryS6_R5StateT_T0_(%struct.Memory* %2, %struct.State* %0, i64* %RDI, i64 4197010)
  ret %struct.Memory* %11
}


define %struct.Memory* @routine_movl__eax__MINUS0x64__rbp_(%struct.State*  dereferenceable(3376), i64, %struct.Memory* ) #19 {
block_400488:
  %3 = getelementptr inbounds %struct.State, %struct.State* %0, i32 0, i32 6
  %4 = getelementptr inbounds %struct.GPR, %struct.GPR* %3, i32 0, i32 33
  %5 = getelementptr inbounds %struct.Reg, %struct.Reg* %4, i32 0, i32 0
  %PC = bitcast %union.anon* %5 to i64*
  %6 = getelementptr inbounds %struct.State, %struct.State* %0, i32 0, i32 6
  %7 = getelementptr inbounds %struct.GPR, %struct.GPR* %6, i32 0, i32 1
  %8 = getelementptr inbounds %struct.Reg, %struct.Reg* %7, i32 0, i32 0
  %EAX = bitcast %union.anon* %8 to i32*
  %9 = getelementptr inbounds %struct.State, %struct.State* %0, i32 0, i32 6
  %10 = getelementptr inbounds %struct.GPR, %struct.GPR* %9, i32 0, i32 15
  %11 = getelementptr inbounds %struct.Reg, %struct.Reg* %10, i32 0, i32 0
  %RBP = bitcast %union.anon* %11 to i64*
  %12 = load i64, i64* %RBP
  %13 = sub i64 %12, 100
  %14 = load i32, i32* %EAX
  %15 = zext i32 %14 to i64
  %16 = load i64, i64* %PC
  %17 = add i64 %16, 3
  store i64 %17, i64* %PC
  %18 = call %struct.Memory* @_ZN12_GLOBAL__N_1L3MOVI3MnWIjE2RnIjEEEP6MemoryS6_R5StateT_T0_(%struct.Memory* %2, %struct.State* %0, i64 %13, i64 %15)
  ret %struct.Memory* %18
}





define internal %struct.Memory* @_ZN12_GLOBAL__N_1L4PXORI3VnWI8vec128_tE2VnIS2_ES5_EEP6MemoryS7_R5StateT_T0_T1_(%struct.Memory* readnone returned, %struct.State* nocapture readnone dereferenceable(3376), i8* nocapture, i8* nocapture readonly, i8* nocapture readonly) #0 {
  %6 = bitcast i8* %3 to i64*
  %7 = load i64, i64* %6, align 1
  %8 = getelementptr inbounds i8, i8* %3, i64 8
  %9 = bitcast i8* %8 to i64*
  %10 = load i64, i64* %9, align 1
  %11 = bitcast i8* %4 to i64*
  %12 = load i64, i64* %11, align 1
  %13 = getelementptr inbounds i8, i8* %4, i64 8
  %14 = bitcast i8* %13 to i64*
  %15 = load i64, i64* %14, align 1
  %16 = xor i64 %12, %7
  %17 = xor i64 %15, %10
  %18 = trunc i64 %16 to i32
  %19 = lshr i64 %16, 32
  %20 = trunc i64 %19 to i32
  %21 = bitcast i8* %2 to i32*
  store i32 %18, i32* %21, align 1
  %22 = getelementptr inbounds i8, i8* %2, i64 4
  %23 = bitcast i8* %22 to i32*
  store i32 %20, i32* %23, align 1
  %24 = trunc i64 %17 to i32
  %25 = getelementptr inbounds i8, i8* %2, i64 8
  %26 = bitcast i8* %25 to i32*
  store i32 %24, i32* %26, align 1
  %27 = lshr i64 %17, 32
  %28 = trunc i64 %27 to i32
  %29 = getelementptr inbounds i8, i8* %2, i64 12
  %30 = bitcast i8* %29 to i32*
  store i32 %28, i32* %30, align 1
  ret %struct.Memory* %0
}

define %struct.Memory* @routine_xorps__xmm0___xmm0(%struct.State*  dereferenceable(3376), i64, %struct.Memory* ) #19 {
block_400488:
  %3 = getelementptr inbounds %struct.State, %struct.State* %0, i32 0, i32 6
  %4 = getelementptr inbounds %struct.GPR, %struct.GPR* %3, i32 0, i32 33
  %5 = getelementptr inbounds %struct.Reg, %struct.Reg* %4, i32 0, i32 0
  %PC = bitcast %union.anon* %5 to i64*
  %6 = getelementptr inbounds %struct.State, %struct.State* %0, i32 0, i32 1
  %7 = getelementptr inbounds [32 x %union.VectorReg], [32 x %union.VectorReg]* %6, i64 0, i64 0
  %YMM0 = bitcast %union.VectorReg* %7 to %"class.std::bitset"*
  %8 = getelementptr inbounds %struct.State, %struct.State* %0, i32 0, i32 1
  %9 = getelementptr inbounds [32 x %union.VectorReg], [32 x %union.VectorReg]* %8, i64 0, i64 0
  %XMM0 = bitcast %union.VectorReg* %9 to %union.vec128_t*
  %10 = bitcast %"class.std::bitset"* %YMM0 to i8*
  %11 = bitcast %"class.std::bitset"* %YMM0 to i8*
  %12 = bitcast %union.vec128_t* %XMM0 to i8*
  %13 = load i64, i64* %PC
  %14 = add i64 %13, 3
  store i64 %14, i64* %PC
  %15 = call %struct.Memory* @_ZN12_GLOBAL__N_1L4PXORI3VnWI8vec128_tE2VnIS2_ES5_EEP6MemoryS7_R5StateT_T0_T1_(%struct.Memory* %2, %struct.State* %0, i8* %10, i8* %11, i8* %12)
  ret %struct.Memory* %15
}

define internal %struct.Memory* @_ZN12_GLOBAL__N_1L4IMULI3RnWImE2MnImE2InImEEEP6MemoryS8_R5StateT_T0_T1_(%struct.Memory*, %struct.State* nocapture dereferenceable(3376), i64* nocapture, i64, i64) #0 {
  %6 = inttoptr i64 %3 to i64*
  %7 = load i64, i64* %6
  %8 = sext i64 %7 to i128
  %9 = and i128 %8, -18446744073709551616
  %10 = sext i64 %4 to i128
  %11 = and i128 %10, -18446744073709551616
  %12 = zext i64 %7 to i128
  %13 = or i128 %9, %12
  %14 = zext i64 %4 to i128
  %15 = or i128 %11, %14
  %16 = mul  i128 %13, %15
  %17 = trunc i128 %16 to i64
  store i64 %17, i64* %2, align 8
  %18 = sext i64 %17 to i128
  %19 = icmp ne i128 %18, %16
  %20 = zext i1 %19 to i8
  %21 = getelementptr inbounds %struct.State, %struct.State* %1, i64 0, i32 2, i32 1
  store i8 %20, i8* %21, align 1
  %22 = trunc i128 %16 to i32
  %23 = and i32 %22, 255
  %24 = tail call i32 @llvm.ctpop.i32(i32 %23) #22
  %25 = trunc i32 %24 to i8
  %26 = and i8 %25, 1
  %27 = xor i8 %26, 1
  %28 = getelementptr inbounds %struct.State, %struct.State* %1, i64 0, i32 2, i32 3
  store i8 %27, i8* %28, align 1
  %29 = getelementptr inbounds %struct.State, %struct.State* %1, i64 0, i32 2, i32 5
  store i8 0, i8* %29, align 1
  %30 = getelementptr inbounds %struct.State, %struct.State* %1, i64 0, i32 2, i32 7
  store i8 0, i8* %30, align 1
  %31 = lshr i64 %17, 63
  %32 = trunc i64 %31 to i8
  %33 = getelementptr inbounds %struct.State, %struct.State* %1, i64 0, i32 2, i32 9
  store i8 %32, i8* %33, align 1
  %34 = getelementptr inbounds %struct.State, %struct.State* %1, i64 0, i32 2, i32 13
  store i8 %20, i8* %34, align 1
  ret %struct.Memory* %0
}

define %struct.Memory* @routine_imulq__0x2710__MINUS0x38__rbp____rdi(%struct.State*  dereferenceable(3376), i64, %struct.Memory* ) #19 {
block_400488:
  %3 = getelementptr inbounds %struct.State, %struct.State* %0, i32 0, i32 6
  %4 = getelementptr inbounds %struct.GPR, %struct.GPR* %3, i32 0, i32 33
  %5 = getelementptr inbounds %struct.Reg, %struct.Reg* %4, i32 0, i32 0
  %PC = bitcast %union.anon* %5 to i64*
  %6 = getelementptr inbounds %struct.State, %struct.State* %0, i32 0, i32 6
  %7 = getelementptr inbounds %struct.GPR, %struct.GPR* %6, i32 0, i32 11
  %8 = getelementptr inbounds %struct.Reg, %struct.Reg* %7, i32 0, i32 0
  %RDI = bitcast %union.anon* %8 to i64*
  %9 = getelementptr inbounds %struct.State, %struct.State* %0, i32 0, i32 6
  %10 = getelementptr inbounds %struct.GPR, %struct.GPR* %9, i32 0, i32 15
  %11 = getelementptr inbounds %struct.Reg, %struct.Reg* %10, i32 0, i32 0
  %RBP = bitcast %union.anon* %11 to i64*
  %12 = load i64, i64* %RBP
  %13 = sub i64 %12, 56
  %14 = load i64, i64* %PC
  %15 = add i64 %14, 8
  store i64 %15, i64* %PC
  %16 = call %struct.Memory* @_ZN12_GLOBAL__N_1L4IMULI3RnWImE2MnImE2InImEEEP6MemoryS8_R5StateT_T0_T1_(%struct.Memory* %2, %struct.State* %0, i64* %RDI, i64 %13, i64 10000)
  ret %struct.Memory* %16
}

define internal %struct.Memory* @_ZN12_GLOBAL__N_1L3MOVI3MnWImE2RnImEEEP6MemoryS6_R5StateT_T0_(%struct.Memory* readnone, %struct.State* nocapture readnone dereferenceable(3376), i64, i64) #8 {
  %5 = inttoptr i64 %2 to i64*
  store i64 %3, i64* %5
  ret %struct.Memory* %0
}

define %struct.Memory* @routine_movq__rdi__MINUS0x50__rbp_(%struct.State*  dereferenceable(3376), i64, %struct.Memory* ) #19 {
block_400488:
  %3 = getelementptr inbounds %struct.State, %struct.State* %0, i32 0, i32 6
  %4 = getelementptr inbounds %struct.GPR, %struct.GPR* %3, i32 0, i32 33
  %5 = getelementptr inbounds %struct.Reg, %struct.Reg* %4, i32 0, i32 0
  %PC = bitcast %union.anon* %5 to i64*
  %6 = getelementptr inbounds %struct.State, %struct.State* %0, i32 0, i32 6
  %7 = getelementptr inbounds %struct.GPR, %struct.GPR* %6, i32 0, i32 11
  %8 = getelementptr inbounds %struct.Reg, %struct.Reg* %7, i32 0, i32 0
  %RDI = bitcast %union.anon* %8 to i64*
  %9 = getelementptr inbounds %struct.State, %struct.State* %0, i32 0, i32 6
  %10 = getelementptr inbounds %struct.GPR, %struct.GPR* %9, i32 0, i32 15
  %11 = getelementptr inbounds %struct.Reg, %struct.Reg* %10, i32 0, i32 0
  %RBP = bitcast %union.anon* %11 to i64*
  %12 = load i64, i64* %RBP
  %13 = sub i64 %12, 80
  %14 = load i64, i64* %RDI
  %15 = load i64, i64* %PC
  %16 = add i64 %15, 4
  store i64 %16, i64* %PC
  %17 = call %struct.Memory* @_ZN12_GLOBAL__N_1L3MOVI3MnWImE2RnImEEEP6MemoryS6_R5StateT_T0_(%struct.Memory* %2, %struct.State* %0, i64 %13, i64 %14)
  ret %struct.Memory* %17
}


define %struct.Memory* @routine_movsd_0x601260___xmm1(%struct.State*  dereferenceable(3376), i64, %struct.Memory* ) #19 {
block_400488:
  %3 = getelementptr inbounds %struct.State, %struct.State* %0, i32 0, i32 6
  %4 = getelementptr inbounds %struct.GPR, %struct.GPR* %3, i32 0, i32 33
  %5 = getelementptr inbounds %struct.Reg, %struct.Reg* %4, i32 0, i32 0
  %PC = bitcast %union.anon* %5 to i64*
  %6 = getelementptr inbounds %struct.State, %struct.State* %0, i32 0, i32 1
  %7 = getelementptr inbounds [32 x %union.VectorReg], [32 x %union.VectorReg]* %6, i64 0, i64 1
  %YMM1 = bitcast %union.VectorReg* %7 to %"class.std::bitset"*
  %8 = bitcast %"class.std::bitset"* %YMM1 to i8*
  %9 = load i64, i64* %PC
  %10 = add i64 %9, 9
  store i64 %10, i64* %PC
  %11 = call %struct.Memory* @_ZN12_GLOBAL__N_1L9MOVSD_MEMI3VnWI8vec128_tE3MVnI7vec64_tEEEP6MemoryS8_R5StateT_T0_(%struct.Memory* %2, %struct.State* %0, i8* %8, i64 6296160)
  ret %struct.Memory* %11
}


define %struct.Memory* @routine_movsd_0x6012a0___xmm2(%struct.State*  dereferenceable(3376), i64, %struct.Memory* ) #19 {
block_400488:
  %3 = getelementptr inbounds %struct.State, %struct.State* %0, i32 0, i32 6
  %4 = getelementptr inbounds %struct.GPR, %struct.GPR* %3, i32 0, i32 33
  %5 = getelementptr inbounds %struct.Reg, %struct.Reg* %4, i32 0, i32 0
  %PC = bitcast %union.anon* %5 to i64*
  %6 = getelementptr inbounds %struct.State, %struct.State* %0, i32 0, i32 1
  %7 = getelementptr inbounds [32 x %union.VectorReg], [32 x %union.VectorReg]* %6, i64 0, i64 2
  %YMM2 = bitcast %union.VectorReg* %7 to %"class.std::bitset"*
  %8 = bitcast %"class.std::bitset"* %YMM2 to i8*
  %9 = load i64, i64* %PC
  %10 = add i64 %9, 9
  store i64 %10, i64* %PC
  %11 = call %struct.Memory* @_ZN12_GLOBAL__N_1L9MOVSD_MEMI3VnWI8vec128_tE3MVnI7vec64_tEEEP6MemoryS8_R5StateT_T0_(%struct.Memory* %2, %struct.State* %0, i8* %8, i64 6296224)
  ret %struct.Memory* %11
}

define internal %struct.Memory* @_ZN12_GLOBAL__N_1L8CVTSI2SDI2MnImEEEP6MemoryS4_R5State3VnWI8vec128_tET_(%struct.Memory*, %struct.State* nocapture readnone dereferenceable(3376), i8* nocapture, i64) #0 {
  %5 = inttoptr i64 %3 to i64*
  %6 = load i64, i64* %5
  %7 = sitofp i64 %6 to double
  %8 = bitcast i8* %2 to double*
  store double %7, double* %8, align 1
  ret %struct.Memory* %0
}

define %struct.Memory* @routine_cvtsi2sdq_MINUS0x50__rbp____xmm3(%struct.State*  dereferenceable(3376), i64, %struct.Memory* ) #19 {
block_400488:
  %3 = getelementptr inbounds %struct.State, %struct.State* %0, i32 0, i32 6
  %4 = getelementptr inbounds %struct.GPR, %struct.GPR* %3, i32 0, i32 33
  %5 = getelementptr inbounds %struct.Reg, %struct.Reg* %4, i32 0, i32 0
  %PC = bitcast %union.anon* %5 to i64*
  %6 = getelementptr inbounds %struct.State, %struct.State* %0, i32 0, i32 6
  %7 = getelementptr inbounds %struct.GPR, %struct.GPR* %6, i32 0, i32 15
  %8 = getelementptr inbounds %struct.Reg, %struct.Reg* %7, i32 0, i32 0
  %RBP = bitcast %union.anon* %8 to i64*
  %9 = getelementptr inbounds %struct.State, %struct.State* %0, i32 0, i32 1
  %10 = getelementptr inbounds [32 x %union.VectorReg], [32 x %union.VectorReg]* %9, i64 0, i64 3
  %YMM3 = bitcast %union.VectorReg* %10 to %"class.std::bitset"*
  %11 = bitcast %"class.std::bitset"* %YMM3 to i8*
  %12 = load i64, i64* %RBP
  %13 = sub i64 %12, 80
  %14 = load i64, i64* %PC
  %15 = add i64 %14, 6
  store i64 %15, i64* %PC
  %16 = call %struct.Memory* @_ZN12_GLOBAL__N_1L8CVTSI2SDI2MnImEEEP6MemoryS4_R5State3VnWI8vec128_tET_(%struct.Memory* %2, %struct.State* %0, i8* %11, i64 %13)
  ret %struct.Memory* %16
}

define internal %struct.Memory* @_ZN12_GLOBAL__N_1L5MULSDI3VnWI8vec128_tE2VnIS2_ES5_EEP6MemoryS7_R5StateT_T0_T1_(%struct.Memory* readnone returned, %struct.State* nocapture readnone dereferenceable(3376), i8* nocapture, i8* nocapture readonly, i8* nocapture readonly) #0 {
  %6 = bitcast i8* %3 to double*
  %7 = load double, double* %6, align 1
  %8 = getelementptr inbounds i8, i8* %3, i64 8
  %9 = bitcast i8* %8 to i64*
  %10 = load i64, i64* %9, align 1
  %11 = bitcast i8* %4 to double*
  %12 = load double, double* %11, align 1
  %13 = fmul double %7, %12
  %14 = bitcast i8* %2 to double*
  store double %13, double* %14, align 1
  %15 = getelementptr inbounds i8, i8* %2, i64 8
  %16 = bitcast i8* %15 to i64*
  store i64 %10, i64* %16, align 1
  ret %struct.Memory* %0
}

define %struct.Memory* @routine_mulsd__xmm3___xmm2(%struct.State*  dereferenceable(3376), i64, %struct.Memory* ) #19 {
block_400488:
  %3 = getelementptr inbounds %struct.State, %struct.State* %0, i32 0, i32 6
  %4 = getelementptr inbounds %struct.GPR, %struct.GPR* %3, i32 0, i32 33
  %5 = getelementptr inbounds %struct.Reg, %struct.Reg* %4, i32 0, i32 0
  %PC = bitcast %union.anon* %5 to i64*
  %6 = getelementptr inbounds %struct.State, %struct.State* %0, i32 0, i32 1
  %7 = getelementptr inbounds [32 x %union.VectorReg], [32 x %union.VectorReg]* %6, i64 0, i64 2
  %YMM2 = bitcast %union.VectorReg* %7 to %"class.std::bitset"*
  %8 = getelementptr inbounds %struct.State, %struct.State* %0, i32 0, i32 1
  %9 = getelementptr inbounds [32 x %union.VectorReg], [32 x %union.VectorReg]* %8, i64 0, i64 3
  %XMM3 = bitcast %union.VectorReg* %9 to %union.vec128_t*
  %10 = bitcast %"class.std::bitset"* %YMM2 to i8*
  %11 = bitcast %"class.std::bitset"* %YMM2 to i8*
  %12 = bitcast %union.vec128_t* %XMM3 to i8*
  %13 = load i64, i64* %PC
  %14 = add i64 %13, 4
  store i64 %14, i64* %PC
  %15 = call %struct.Memory* @_ZN12_GLOBAL__N_1L5MULSDI3VnWI8vec128_tE2VnIS2_ES5_EEP6MemoryS7_R5StateT_T0_T1_(%struct.Memory* %2, %struct.State* %0, i8* %10, i8* %11, i8* %12)
  ret %struct.Memory* %15
}

define internal %struct.Memory* @_ZN12_GLOBAL__N_1L5DIVSDI3VnWI8vec128_tE2VnIS2_ES5_EEP6MemoryS7_R5StateT_T0_T1_(%struct.Memory* readnone returned, %struct.State* nocapture readnone dereferenceable(3376), i8* nocapture, i8* nocapture readonly, i8* nocapture readonly) #0 {
  %6 = bitcast i8* %3 to double*
  %7 = load double, double* %6, align 1
  %8 = getelementptr inbounds i8, i8* %3, i64 8
  %9 = bitcast i8* %8 to i64*
  %10 = load i64, i64* %9, align 1
  %11 = bitcast i8* %4 to double*
  %12 = load double, double* %11, align 1
  %13 = fdiv double %7, %12
  %14 = bitcast i8* %2 to double*
  store double %13, double* %14, align 1
  %15 = getelementptr inbounds i8, i8* %2, i64 8
  %16 = bitcast i8* %15 to i64*
  store i64 %10, i64* %16, align 1
  ret %struct.Memory* %0
}

define %struct.Memory* @routine_divsd__xmm2___xmm1(%struct.State*  dereferenceable(3376), i64, %struct.Memory* ) #19 {
block_400488:
  %3 = getelementptr inbounds %struct.State, %struct.State* %0, i32 0, i32 6
  %4 = getelementptr inbounds %struct.GPR, %struct.GPR* %3, i32 0, i32 33
  %5 = getelementptr inbounds %struct.Reg, %struct.Reg* %4, i32 0, i32 0
  %PC = bitcast %union.anon* %5 to i64*
  %6 = getelementptr inbounds %struct.State, %struct.State* %0, i32 0, i32 1
  %7 = getelementptr inbounds [32 x %union.VectorReg], [32 x %union.VectorReg]* %6, i64 0, i64 1
  %YMM1 = bitcast %union.VectorReg* %7 to %"class.std::bitset"*
  %8 = getelementptr inbounds %struct.State, %struct.State* %0, i32 0, i32 1
  %9 = getelementptr inbounds [32 x %union.VectorReg], [32 x %union.VectorReg]* %8, i64 0, i64 2
  %XMM2 = bitcast %union.VectorReg* %9 to %union.vec128_t*
  %10 = bitcast %"class.std::bitset"* %YMM1 to i8*
  %11 = bitcast %"class.std::bitset"* %YMM1 to i8*
  %12 = bitcast %union.vec128_t* %XMM2 to i8*
  %13 = load i64, i64* %PC
  %14 = add i64 %13, 4
  store i64 %14, i64* %PC
  %15 = call %struct.Memory* @_ZN12_GLOBAL__N_1L5DIVSDI3VnWI8vec128_tE2VnIS2_ES5_EEP6MemoryS7_R5StateT_T0_T1_(%struct.Memory* %2, %struct.State* %0, i8* %10, i8* %11, i8* %12)
  ret %struct.Memory* %15
}


define %struct.Memory* @routine_movsd__xmm1__MINUS0x30__rbp_(%struct.State*  dereferenceable(3376), i64, %struct.Memory* ) #19 {
block_400488:
  %3 = getelementptr inbounds %struct.State, %struct.State* %0, i32 0, i32 6
  %4 = getelementptr inbounds %struct.GPR, %struct.GPR* %3, i32 0, i32 33
  %5 = getelementptr inbounds %struct.Reg, %struct.Reg* %4, i32 0, i32 0
  %PC = bitcast %union.anon* %5 to i64*
  %6 = getelementptr inbounds %struct.State, %struct.State* %0, i32 0, i32 6
  %7 = getelementptr inbounds %struct.GPR, %struct.GPR* %6, i32 0, i32 15
  %8 = getelementptr inbounds %struct.Reg, %struct.Reg* %7, i32 0, i32 0
  %RBP = bitcast %union.anon* %8 to i64*
  %9 = getelementptr inbounds %struct.State, %struct.State* %0, i32 0, i32 1
  %10 = getelementptr inbounds [32 x %union.VectorReg], [32 x %union.VectorReg]* %9, i64 0, i64 1
  %XMM1 = bitcast %union.VectorReg* %10 to %union.vec128_t*
  %11 = load i64, i64* %RBP
  %12 = sub i64 %11, 48
  %13 = bitcast %union.vec128_t* %XMM1 to i8*
  %14 = load i64, i64* %PC
  %15 = add i64 %14, 5
  store i64 %15, i64* %PC
  %16 = call %struct.Memory* @_ZN12_GLOBAL__N_1L9MOVSD_MEMI4MVnWI7vec64_tE2VnI8vec128_tEEEP6MemoryS8_R5StateT_T0_(%struct.Memory* %2, %struct.State* %0, i64 %12, i8* %13)
  ret %struct.Memory* %16
}


define %struct.Memory* @routine_movsd__xmm0__MINUS0x10__rbp_(%struct.State*  dereferenceable(3376), i64, %struct.Memory* ) #19 {
block_400488:
  %3 = getelementptr inbounds %struct.State, %struct.State* %0, i32 0, i32 6
  %4 = getelementptr inbounds %struct.GPR, %struct.GPR* %3, i32 0, i32 33
  %5 = getelementptr inbounds %struct.Reg, %struct.Reg* %4, i32 0, i32 0
  %PC = bitcast %union.anon* %5 to i64*
  %6 = getelementptr inbounds %struct.State, %struct.State* %0, i32 0, i32 6
  %7 = getelementptr inbounds %struct.GPR, %struct.GPR* %6, i32 0, i32 15
  %8 = getelementptr inbounds %struct.Reg, %struct.Reg* %7, i32 0, i32 0
  %RBP = bitcast %union.anon* %8 to i64*
  %9 = getelementptr inbounds %struct.State, %struct.State* %0, i32 0, i32 1
  %10 = getelementptr inbounds [32 x %union.VectorReg], [32 x %union.VectorReg]* %9, i64 0, i64 0
  %XMM0 = bitcast %union.VectorReg* %10 to %union.vec128_t*
  %11 = load i64, i64* %RBP
  %12 = sub i64 %11, 16
  %13 = bitcast %union.vec128_t* %XMM0 to i8*
  %14 = load i64, i64* %PC
  %15 = add i64 %14, 5
  store i64 %15, i64* %PC
  %16 = call %struct.Memory* @_ZN12_GLOBAL__N_1L9MOVSD_MEMI4MVnWI7vec64_tE2VnI8vec128_tEEEP6MemoryS8_R5StateT_T0_(%struct.Memory* %2, %struct.State* %0, i64 %12, i8* %13)
  ret %struct.Memory* %16
}


define %struct.Memory* @routine_movsd__xmm0__MINUS0x20__rbp_(%struct.State*  dereferenceable(3376), i64, %struct.Memory* ) #19 {
block_400488:
  %3 = getelementptr inbounds %struct.State, %struct.State* %0, i32 0, i32 6
  %4 = getelementptr inbounds %struct.GPR, %struct.GPR* %3, i32 0, i32 33
  %5 = getelementptr inbounds %struct.Reg, %struct.Reg* %4, i32 0, i32 0
  %PC = bitcast %union.anon* %5 to i64*
  %6 = getelementptr inbounds %struct.State, %struct.State* %0, i32 0, i32 6
  %7 = getelementptr inbounds %struct.GPR, %struct.GPR* %6, i32 0, i32 15
  %8 = getelementptr inbounds %struct.Reg, %struct.Reg* %7, i32 0, i32 0
  %RBP = bitcast %union.anon* %8 to i64*
  %9 = getelementptr inbounds %struct.State, %struct.State* %0, i32 0, i32 1
  %10 = getelementptr inbounds [32 x %union.VectorReg], [32 x %union.VectorReg]* %9, i64 0, i64 0
  %XMM0 = bitcast %union.VectorReg* %10 to %union.vec128_t*
  %11 = load i64, i64* %RBP
  %12 = sub i64 %11, 32
  %13 = bitcast %union.vec128_t* %XMM0 to i8*
  %14 = load i64, i64* %PC
  %15 = add i64 %14, 5
  store i64 %15, i64* %PC
  %16 = call %struct.Memory* @_ZN12_GLOBAL__N_1L9MOVSD_MEMI4MVnWI7vec64_tE2VnI8vec128_tEEEP6MemoryS8_R5StateT_T0_(%struct.Memory* %2, %struct.State* %0, i64 %12, i8* %13)
  ret %struct.Memory* %16
}


define %struct.Memory* @routine_movq__0x1__MINUS0x48__rbp_(%struct.State*  dereferenceable(3376), i64, %struct.Memory* ) #19 {
block_400488:
  %3 = getelementptr inbounds %struct.State, %struct.State* %0, i32 0, i32 6
  %4 = getelementptr inbounds %struct.GPR, %struct.GPR* %3, i32 0, i32 33
  %5 = getelementptr inbounds %struct.Reg, %struct.Reg* %4, i32 0, i32 0
  %PC = bitcast %union.anon* %5 to i64*
  %6 = getelementptr inbounds %struct.State, %struct.State* %0, i32 0, i32 6
  %7 = getelementptr inbounds %struct.GPR, %struct.GPR* %6, i32 0, i32 15
  %8 = getelementptr inbounds %struct.Reg, %struct.Reg* %7, i32 0, i32 0
  %RBP = bitcast %union.anon* %8 to i64*
  %9 = load i64, i64* %RBP
  %10 = sub i64 %9, 72
  %11 = load i64, i64* %PC
  %12 = add i64 %11, 8
  store i64 %12, i64* %PC
  %13 = call %struct.Memory* @_ZN12_GLOBAL__N_1L3MOVI3MnWImE2InImEEEP6MemoryS6_R5StateT_T0_(%struct.Memory* %2, %struct.State* %0, i64 %10, i64 1)
  ret %struct.Memory* %13
}


define %struct.Memory* @routine_movl__eax__MINUS0x68__rbp_(%struct.State*  dereferenceable(3376), i64, %struct.Memory* ) #19 {
block_400488:
  %3 = getelementptr inbounds %struct.State, %struct.State* %0, i32 0, i32 6
  %4 = getelementptr inbounds %struct.GPR, %struct.GPR* %3, i32 0, i32 33
  %5 = getelementptr inbounds %struct.Reg, %struct.Reg* %4, i32 0, i32 0
  %PC = bitcast %union.anon* %5 to i64*
  %6 = getelementptr inbounds %struct.State, %struct.State* %0, i32 0, i32 6
  %7 = getelementptr inbounds %struct.GPR, %struct.GPR* %6, i32 0, i32 1
  %8 = getelementptr inbounds %struct.Reg, %struct.Reg* %7, i32 0, i32 0
  %EAX = bitcast %union.anon* %8 to i32*
  %9 = getelementptr inbounds %struct.State, %struct.State* %0, i32 0, i32 6
  %10 = getelementptr inbounds %struct.GPR, %struct.GPR* %9, i32 0, i32 15
  %11 = getelementptr inbounds %struct.Reg, %struct.Reg* %10, i32 0, i32 0
  %RBP = bitcast %union.anon* %11 to i64*
  %12 = load i64, i64* %RBP
  %13 = sub i64 %12, 104
  %14 = load i32, i32* %EAX
  %15 = zext i32 %14 to i64
  %16 = load i64, i64* %PC
  %17 = add i64 %16, 3
  store i64 %17, i64* %PC
  %18 = call %struct.Memory* @_ZN12_GLOBAL__N_1L3MOVI3MnWIjE2RnIjEEEP6MemoryS6_R5StateT_T0_(%struct.Memory* %2, %struct.State* %0, i64 %13, i64 %15)
  ret %struct.Memory* %18
}

define internal %struct.Memory* @_ZN12_GLOBAL__N_1L3MOVI3RnWImE2MnImEEEP6MemoryS6_R5StateT_T0_(%struct.Memory* returned, %struct.State* nocapture readnone dereferenceable(3376), i64* nocapture, i64) #0 {
  %5 = inttoptr i64 %3 to i64*
  %6 = load i64, i64* %5
  store i64 %6, i64* %2, align 8
  ret %struct.Memory* %0
}

define %struct.Memory* @routine_movq_MINUS0x48__rbp____rax(%struct.State*  dereferenceable(3376), i64, %struct.Memory* ) #19 {
block_400488:
  %3 = getelementptr inbounds %struct.State, %struct.State* %0, i32 0, i32 6
  %4 = getelementptr inbounds %struct.GPR, %struct.GPR* %3, i32 0, i32 33
  %5 = getelementptr inbounds %struct.Reg, %struct.Reg* %4, i32 0, i32 0
  %PC = bitcast %union.anon* %5 to i64*
  %6 = getelementptr inbounds %struct.State, %struct.State* %0, i32 0, i32 6
  %7 = getelementptr inbounds %struct.GPR, %struct.GPR* %6, i32 0, i32 1
  %8 = getelementptr inbounds %struct.Reg, %struct.Reg* %7, i32 0, i32 0
  %RAX = bitcast %union.anon* %8 to i64*
  %9 = getelementptr inbounds %struct.State, %struct.State* %0, i32 0, i32 6
  %10 = getelementptr inbounds %struct.GPR, %struct.GPR* %9, i32 0, i32 15
  %11 = getelementptr inbounds %struct.Reg, %struct.Reg* %10, i32 0, i32 0
  %RBP = bitcast %union.anon* %11 to i64*
  %12 = load i64, i64* %RBP
  %13 = sub i64 %12, 72
  %14 = load i64, i64* %PC
  %15 = add i64 %14, 4
  store i64 %15, i64* %PC
  %16 = call %struct.Memory* @_ZN12_GLOBAL__N_1L3MOVI3RnWImE2MnImEEEP6MemoryS6_R5StateT_T0_(%struct.Memory* %2, %struct.State* %0, i64* %RAX, i64 %13)
  ret %struct.Memory* %16
}


define %struct.Memory* @routine_movq_MINUS0x50__rbp____rcx(%struct.State*  dereferenceable(3376), i64, %struct.Memory* ) #19 {
block_400488:
  %3 = getelementptr inbounds %struct.State, %struct.State* %0, i32 0, i32 6
  %4 = getelementptr inbounds %struct.GPR, %struct.GPR* %3, i32 0, i32 33
  %5 = getelementptr inbounds %struct.Reg, %struct.Reg* %4, i32 0, i32 0
  %PC = bitcast %union.anon* %5 to i64*
  %6 = getelementptr inbounds %struct.State, %struct.State* %0, i32 0, i32 6
  %7 = getelementptr inbounds %struct.GPR, %struct.GPR* %6, i32 0, i32 5
  %8 = getelementptr inbounds %struct.Reg, %struct.Reg* %7, i32 0, i32 0
  %RCX = bitcast %union.anon* %8 to i64*
  %9 = getelementptr inbounds %struct.State, %struct.State* %0, i32 0, i32 6
  %10 = getelementptr inbounds %struct.GPR, %struct.GPR* %9, i32 0, i32 15
  %11 = getelementptr inbounds %struct.Reg, %struct.Reg* %10, i32 0, i32 0
  %RBP = bitcast %union.anon* %11 to i64*
  %12 = load i64, i64* %RBP
  %13 = sub i64 %12, 80
  %14 = load i64, i64* %PC
  %15 = add i64 %14, 4
  store i64 %15, i64* %PC
  %16 = call %struct.Memory* @_ZN12_GLOBAL__N_1L3MOVI3RnWImE2MnImEEEP6MemoryS6_R5StateT_T0_(%struct.Memory* %2, %struct.State* %0, i64* %RCX, i64 %13)
  ret %struct.Memory* %16
}


define %struct.Memory* @routine_subq__0x1___rcx(%struct.State*  dereferenceable(3376), i64, %struct.Memory* ) #19 {
block_400488:
  %3 = getelementptr inbounds %struct.State, %struct.State* %0, i32 0, i32 6
  %4 = getelementptr inbounds %struct.GPR, %struct.GPR* %3, i32 0, i32 33
  %5 = getelementptr inbounds %struct.Reg, %struct.Reg* %4, i32 0, i32 0
  %PC = bitcast %union.anon* %5 to i64*
  %6 = getelementptr inbounds %struct.State, %struct.State* %0, i32 0, i32 6
  %7 = getelementptr inbounds %struct.GPR, %struct.GPR* %6, i32 0, i32 5
  %8 = getelementptr inbounds %struct.Reg, %struct.Reg* %7, i32 0, i32 0
  %RCX = bitcast %union.anon* %8 to i64*
  %9 = load i64, i64* %RCX
  %10 = load i64, i64* %PC
  %11 = add i64 %10, 4
  store i64 %11, i64* %PC
  %12 = call %struct.Memory* @_ZN12_GLOBAL__N_1L3SUBI3RnWImE2RnImE2InImEEEP6MemoryS8_R5StateT_T0_T1_(%struct.Memory* %2, %struct.State* %0, i64* %RCX, i64 %9, i64 1)
  ret %struct.Memory* %12
}

define internal %struct.Memory* @_ZN12_GLOBAL__N_1L3CMPI2RnImES2_EEP6MemoryS4_R5StateT_T0_(%struct.Memory* readnone returned, %struct.State* nocapture dereferenceable(3376), i64, i64) #0 {
  %5 = sub i64 %2, %3
  %6 = icmp ult i64 %2, %3
  %7 = zext i1 %6 to i8
  %8 = getelementptr inbounds %struct.State, %struct.State* %1, i64 0, i32 2, i32 1
  store i8 %7, i8* %8, align 1
  %9 = trunc i64 %5 to i32
  %10 = and i32 %9, 255
  %11 = tail call i32 @llvm.ctpop.i32(i32 %10) #22
  %12 = trunc i32 %11 to i8
  %13 = and i8 %12, 1
  %14 = xor i8 %13, 1
  %15 = getelementptr inbounds %struct.State, %struct.State* %1, i64 0, i32 2, i32 3
  store i8 %14, i8* %15, align 1
  %16 = xor i64 %3, %2
  %17 = xor i64 %16, %5
  %18 = lshr i64 %17, 4
  %19 = trunc i64 %18 to i8
  %20 = and i8 %19, 1
  %21 = getelementptr inbounds %struct.State, %struct.State* %1, i64 0, i32 2, i32 5
  store i8 %20, i8* %21, align 1
  %22 = icmp eq i64 %5, 0
  %23 = zext i1 %22 to i8
  %24 = getelementptr inbounds %struct.State, %struct.State* %1, i64 0, i32 2, i32 7
  store i8 %23, i8* %24, align 1
  %25 = lshr i64 %5, 63
  %26 = trunc i64 %25 to i8
  %27 = getelementptr inbounds %struct.State, %struct.State* %1, i64 0, i32 2, i32 9
  store i8 %26, i8* %27, align 1
  %28 = lshr i64 %2, 63
  %29 = lshr i64 %3, 63
  %30 = xor i64 %29, %28
  %31 = xor i64 %25, %28
  %32 = add   i64 %31, %30
  %33 = icmp eq i64 %32, 2
  %34 = zext i1 %33 to i8
  %35 = getelementptr inbounds %struct.State, %struct.State* %1, i64 0, i32 2, i32 13
  store i8 %34, i8* %35, align 1
  ret %struct.Memory* %0
}

define %struct.Memory* @routine_cmpq__rcx___rax(%struct.State*  dereferenceable(3376), i64, %struct.Memory* ) #19 {
block_400488:
  %3 = getelementptr inbounds %struct.State, %struct.State* %0, i32 0, i32 6
  %4 = getelementptr inbounds %struct.GPR, %struct.GPR* %3, i32 0, i32 33
  %5 = getelementptr inbounds %struct.Reg, %struct.Reg* %4, i32 0, i32 0
  %PC = bitcast %union.anon* %5 to i64*
  %6 = getelementptr inbounds %struct.State, %struct.State* %0, i32 0, i32 6
  %7 = getelementptr inbounds %struct.GPR, %struct.GPR* %6, i32 0, i32 1
  %8 = getelementptr inbounds %struct.Reg, %struct.Reg* %7, i32 0, i32 0
  %RAX = bitcast %union.anon* %8 to i64*
  %9 = getelementptr inbounds %struct.State, %struct.State* %0, i32 0, i32 6
  %10 = getelementptr inbounds %struct.GPR, %struct.GPR* %9, i32 0, i32 5
  %11 = getelementptr inbounds %struct.Reg, %struct.Reg* %10, i32 0, i32 0
  %RCX = bitcast %union.anon* %11 to i64*
  %12 = load i64, i64* %RAX
  %13 = load i64, i64* %RCX
  %14 = load i64, i64* %PC
  %15 = add i64 %14, 3
  store i64 %15, i64* %PC
  %16 = call %struct.Memory* @_ZN12_GLOBAL__N_1L3CMPI2RnImES2_EEP6MemoryS4_R5StateT_T0_(%struct.Memory* %2, %struct.State* %0, i64 %12, i64 %13)
  ret %struct.Memory* %16
}

define internal %struct.Memory* @_ZN12_GLOBAL__N_1L4JNLEEP6MemoryR5State3RnWIhE2InImES7_(%struct.Memory* readnone returned, %struct.State* nocapture dereferenceable(3376), i8* nocapture, i64, i64) #2 {
  %6 = getelementptr inbounds %struct.State, %struct.State* %1, i64 0, i32 2, i32 7
  %7 = load i8, i8* %6, align 1
  %8 = icmp eq i8 %7, 0
  %9 = getelementptr inbounds %struct.State, %struct.State* %1, i64 0, i32 2, i32 9
  %10 = load i8, i8* %9, align 1
  %11 = icmp ne i8 %10, 0
  %12 = getelementptr inbounds %struct.State, %struct.State* %1, i64 0, i32 2, i32 13
  %13 = load i8, i8* %12, align 1
  %14 = icmp ne i8 %13, 0
  %15 = xor i1 %11, %14
  %16 = xor i1 %15, true
  %17 = and i1 %8, %16
  %18 = zext i1 %17 to i8
  store i8 %18, i8* %2, align 1
  %19 = getelementptr inbounds %struct.State, %struct.State* %1, i64 0, i32 6, i32 33, i32 0, i32 0
  %20 = select i1 %17, i64 %3, i64 %4
  store i64 %20, i64* %19, align 8
  ret %struct.Memory* %0
}

define %struct.Memory* @routine_jg_.L_400781(%struct.State*  dereferenceable(3376), i64, %struct.Memory*, i8* %BRANCH_TAKEN, i64 %rel_off1, i64 %rel_off2, i64 %rel_off3) {
block_400488:
  %3 = getelementptr inbounds %struct.State, %struct.State* %0, i32 0, i32 6
  %4 = getelementptr inbounds %struct.GPR, %struct.GPR* %3, i32 0, i32 33
  %5 = getelementptr inbounds %struct.Reg, %struct.Reg* %4, i32 0, i32 0
  %PC = bitcast %union.anon* %5 to i64*
  %6 = load i64, i64* %PC
  %7 = add i64 %6, %rel_off1
  %8 = load i64, i64* %PC
  %9 = add i64 %8, %rel_off2
  %10 = load i64, i64* %PC
  %11 = add i64 %10, %rel_off3
  store i64 %11, i64* %PC
  %12 = call %struct.Memory* @_ZN12_GLOBAL__N_1L4JNLEEP6MemoryR5State3RnWIhE2InImES7_(%struct.Memory* %2, %struct.State* %0, i8* %BRANCH_TAKEN, i64 %7, i64 %9)
  ret %struct.Memory* %12
}


define %struct.Memory* @routine_cvtsi2sdq_MINUS0x48__rbp____xmm0(%struct.State*  dereferenceable(3376), i64, %struct.Memory* ) #19 {
block_400488:
  %3 = getelementptr inbounds %struct.State, %struct.State* %0, i32 0, i32 6
  %4 = getelementptr inbounds %struct.GPR, %struct.GPR* %3, i32 0, i32 33
  %5 = getelementptr inbounds %struct.Reg, %struct.Reg* %4, i32 0, i32 0
  %PC = bitcast %union.anon* %5 to i64*
  %6 = getelementptr inbounds %struct.State, %struct.State* %0, i32 0, i32 6
  %7 = getelementptr inbounds %struct.GPR, %struct.GPR* %6, i32 0, i32 15
  %8 = getelementptr inbounds %struct.Reg, %struct.Reg* %7, i32 0, i32 0
  %RBP = bitcast %union.anon* %8 to i64*
  %9 = getelementptr inbounds %struct.State, %struct.State* %0, i32 0, i32 1
  %10 = getelementptr inbounds [32 x %union.VectorReg], [32 x %union.VectorReg]* %9, i64 0, i64 0
  %YMM0 = bitcast %union.VectorReg* %10 to %"class.std::bitset"*
  %11 = bitcast %"class.std::bitset"* %YMM0 to i8*
  %12 = load i64, i64* %RBP
  %13 = sub i64 %12, 72
  %14 = load i64, i64* %PC
  %15 = add i64 %14, 6
  store i64 %15, i64* %PC
  %16 = call %struct.Memory* @_ZN12_GLOBAL__N_1L8CVTSI2SDI2MnImEEEP6MemoryS4_R5State3VnWI8vec128_tET_(%struct.Memory* %2, %struct.State* %0, i8* %11, i64 %13)
  ret %struct.Memory* %16
}

define internal %struct.Memory* @_ZN12_GLOBAL__N_1L5MULSDI3VnWI8vec128_tE2VnIS2_E3MVnIS2_EEEP6MemoryS9_R5StateT_T0_T1_(%struct.Memory* returned, %struct.State* nocapture readnone dereferenceable(3376), i8* nocapture, i8* nocapture readonly, i64) #0 {
  %6 = bitcast i8* %3 to double*
  %7 = load double, double* %6, align 1
  %8 = getelementptr inbounds i8, i8* %3, i64 8
  %9 = bitcast i8* %8 to i64*
  %10 = load i64, i64* %9, align 1
  %11 = inttoptr i64 %4 to double*
  %12 = load double, double* %11
  %13 = fmul double %7, %12
  %14 = bitcast i8* %2 to double*
  store double %13, double* %14, align 1
  %15 = getelementptr inbounds i8, i8* %2, i64 8
  %16 = bitcast i8* %15 to i64*
  store i64 %10, i64* %16, align 1
  ret %struct.Memory* %0
}

define %struct.Memory* @routine_mulsd_MINUS0x30__rbp____xmm0(%struct.State*  dereferenceable(3376), i64, %struct.Memory* ) #19 {
block_400488:
  %3 = getelementptr inbounds %struct.State, %struct.State* %0, i32 0, i32 6
  %4 = getelementptr inbounds %struct.GPR, %struct.GPR* %3, i32 0, i32 33
  %5 = getelementptr inbounds %struct.Reg, %struct.Reg* %4, i32 0, i32 0
  %PC = bitcast %union.anon* %5 to i64*
  %6 = getelementptr inbounds %struct.State, %struct.State* %0, i32 0, i32 6
  %7 = getelementptr inbounds %struct.GPR, %struct.GPR* %6, i32 0, i32 15
  %8 = getelementptr inbounds %struct.Reg, %struct.Reg* %7, i32 0, i32 0
  %RBP = bitcast %union.anon* %8 to i64*
  %9 = getelementptr inbounds %struct.State, %struct.State* %0, i32 0, i32 1
  %10 = getelementptr inbounds [32 x %union.VectorReg], [32 x %union.VectorReg]* %9, i64 0, i64 0
  %YMM0 = bitcast %union.VectorReg* %10 to %"class.std::bitset"*
  %11 = bitcast %"class.std::bitset"* %YMM0 to i8*
  %12 = bitcast %"class.std::bitset"* %YMM0 to i8*
  %13 = load i64, i64* %RBP
  %14 = sub i64 %13, 48
  %15 = load i64, i64* %PC
  %16 = add i64 %15, 5
  store i64 %16, i64* %PC
  %17 = call %struct.Memory* @_ZN12_GLOBAL__N_1L5MULSDI3VnWI8vec128_tE2VnIS2_E3MVnIS2_EEEP6MemoryS9_R5StateT_T0_T1_(%struct.Memory* %2, %struct.State* %0, i8* %11, i8* %12, i64 %14)
  ret %struct.Memory* %17
}


define %struct.Memory* @routine_movsd__xmm0__MINUS0x18__rbp_(%struct.State*  dereferenceable(3376), i64, %struct.Memory* ) #19 {
block_400488:
  %3 = getelementptr inbounds %struct.State, %struct.State* %0, i32 0, i32 6
  %4 = getelementptr inbounds %struct.GPR, %struct.GPR* %3, i32 0, i32 33
  %5 = getelementptr inbounds %struct.Reg, %struct.Reg* %4, i32 0, i32 0
  %PC = bitcast %union.anon* %5 to i64*
  %6 = getelementptr inbounds %struct.State, %struct.State* %0, i32 0, i32 6
  %7 = getelementptr inbounds %struct.GPR, %struct.GPR* %6, i32 0, i32 15
  %8 = getelementptr inbounds %struct.Reg, %struct.Reg* %7, i32 0, i32 0
  %RBP = bitcast %union.anon* %8 to i64*
  %9 = getelementptr inbounds %struct.State, %struct.State* %0, i32 0, i32 1
  %10 = getelementptr inbounds [32 x %union.VectorReg], [32 x %union.VectorReg]* %9, i64 0, i64 0
  %XMM0 = bitcast %union.VectorReg* %10 to %union.vec128_t*
  %11 = load i64, i64* %RBP
  %12 = sub i64 %11, 24
  %13 = bitcast %union.vec128_t* %XMM0 to i8*
  %14 = load i64, i64* %PC
  %15 = add i64 %14, 5
  store i64 %15, i64* %PC
  %16 = call %struct.Memory* @_ZN12_GLOBAL__N_1L9MOVSD_MEMI4MVnWI7vec64_tE2VnI8vec128_tEEEP6MemoryS8_R5StateT_T0_(%struct.Memory* %2, %struct.State* %0, i64 %12, i8* %13)
  ret %struct.Memory* %16
}


define %struct.Memory* @routine_movsd_MINUS0x18__rbp____xmm0(%struct.State*  dereferenceable(3376), i64, %struct.Memory* ) #19 {
block_400488:
  %3 = getelementptr inbounds %struct.State, %struct.State* %0, i32 0, i32 6
  %4 = getelementptr inbounds %struct.GPR, %struct.GPR* %3, i32 0, i32 33
  %5 = getelementptr inbounds %struct.Reg, %struct.Reg* %4, i32 0, i32 0
  %PC = bitcast %union.anon* %5 to i64*
  %6 = getelementptr inbounds %struct.State, %struct.State* %0, i32 0, i32 6
  %7 = getelementptr inbounds %struct.GPR, %struct.GPR* %6, i32 0, i32 15
  %8 = getelementptr inbounds %struct.Reg, %struct.Reg* %7, i32 0, i32 0
  %RBP = bitcast %union.anon* %8 to i64*
  %9 = getelementptr inbounds %struct.State, %struct.State* %0, i32 0, i32 1
  %10 = getelementptr inbounds [32 x %union.VectorReg], [32 x %union.VectorReg]* %9, i64 0, i64 0
  %YMM0 = bitcast %union.VectorReg* %10 to %"class.std::bitset"*
  %11 = bitcast %"class.std::bitset"* %YMM0 to i8*
  %12 = load i64, i64* %RBP
  %13 = sub i64 %12, 24
  %14 = load i64, i64* %PC
  %15 = add i64 %14, 5
  store i64 %15, i64* %PC
  %16 = call %struct.Memory* @_ZN12_GLOBAL__N_1L9MOVSD_MEMI3VnWI8vec128_tE3MVnI7vec64_tEEEP6MemoryS8_R5StateT_T0_(%struct.Memory* %2, %struct.State* %0, i8* %11, i64 %13)
  ret %struct.Memory* %16
}


define %struct.Memory* @routine_mulsd_MINUS0x18__rbp____xmm0(%struct.State*  dereferenceable(3376), i64, %struct.Memory* ) #19 {
block_400488:
  %3 = getelementptr inbounds %struct.State, %struct.State* %0, i32 0, i32 6
  %4 = getelementptr inbounds %struct.GPR, %struct.GPR* %3, i32 0, i32 33
  %5 = getelementptr inbounds %struct.Reg, %struct.Reg* %4, i32 0, i32 0
  %PC = bitcast %union.anon* %5 to i64*
  %6 = getelementptr inbounds %struct.State, %struct.State* %0, i32 0, i32 6
  %7 = getelementptr inbounds %struct.GPR, %struct.GPR* %6, i32 0, i32 15
  %8 = getelementptr inbounds %struct.Reg, %struct.Reg* %7, i32 0, i32 0
  %RBP = bitcast %union.anon* %8 to i64*
  %9 = getelementptr inbounds %struct.State, %struct.State* %0, i32 0, i32 1
  %10 = getelementptr inbounds [32 x %union.VectorReg], [32 x %union.VectorReg]* %9, i64 0, i64 0
  %YMM0 = bitcast %union.VectorReg* %10 to %"class.std::bitset"*
  %11 = bitcast %"class.std::bitset"* %YMM0 to i8*
  %12 = bitcast %"class.std::bitset"* %YMM0 to i8*
  %13 = load i64, i64* %RBP
  %14 = sub i64 %13, 24
  %15 = load i64, i64* %PC
  %16 = add i64 %15, 5
  store i64 %16, i64* %PC
  %17 = call %struct.Memory* @_ZN12_GLOBAL__N_1L5MULSDI3VnWI8vec128_tE2VnIS2_E3MVnIS2_EEEP6MemoryS9_R5StateT_T0_T1_(%struct.Memory* %2, %struct.State* %0, i8* %11, i8* %12, i64 %14)
  ret %struct.Memory* %17
}


define %struct.Memory* @routine_movsd__xmm0__MINUS0x28__rbp_(%struct.State*  dereferenceable(3376), i64, %struct.Memory* ) #19 {
block_400488:
  %3 = getelementptr inbounds %struct.State, %struct.State* %0, i32 0, i32 6
  %4 = getelementptr inbounds %struct.GPR, %struct.GPR* %3, i32 0, i32 33
  %5 = getelementptr inbounds %struct.Reg, %struct.Reg* %4, i32 0, i32 0
  %PC = bitcast %union.anon* %5 to i64*
  %6 = getelementptr inbounds %struct.State, %struct.State* %0, i32 0, i32 6
  %7 = getelementptr inbounds %struct.GPR, %struct.GPR* %6, i32 0, i32 15
  %8 = getelementptr inbounds %struct.Reg, %struct.Reg* %7, i32 0, i32 0
  %RBP = bitcast %union.anon* %8 to i64*
  %9 = getelementptr inbounds %struct.State, %struct.State* %0, i32 0, i32 1
  %10 = getelementptr inbounds [32 x %union.VectorReg], [32 x %union.VectorReg]* %9, i64 0, i64 0
  %XMM0 = bitcast %union.VectorReg* %10 to %union.vec128_t*
  %11 = load i64, i64* %RBP
  %12 = sub i64 %11, 40
  %13 = bitcast %union.vec128_t* %XMM0 to i8*
  %14 = load i64, i64* %PC
  %15 = add i64 %14, 5
  store i64 %15, i64* %PC
  %16 = call %struct.Memory* @_ZN12_GLOBAL__N_1L9MOVSD_MEMI4MVnWI7vec64_tE2VnI8vec128_tEEEP6MemoryS8_R5StateT_T0_(%struct.Memory* %2, %struct.State* %0, i64 %12, i8* %13)
  ret %struct.Memory* %16
}




define %struct.Memory* @routine_movsd_0x601060___xmm1(%struct.State*  dereferenceable(3376), i64, %struct.Memory* ) #19 {
block_400488:
  %3 = getelementptr inbounds %struct.State, %struct.State* %0, i32 0, i32 6
  %4 = getelementptr inbounds %struct.GPR, %struct.GPR* %3, i32 0, i32 33
  %5 = getelementptr inbounds %struct.Reg, %struct.Reg* %4, i32 0, i32 0
  %PC = bitcast %union.anon* %5 to i64*
  %6 = getelementptr inbounds %struct.State, %struct.State* %0, i32 0, i32 1
  %7 = getelementptr inbounds [32 x %union.VectorReg], [32 x %union.VectorReg]* %6, i64 0, i64 1
  %YMM1 = bitcast %union.VectorReg* %7 to %"class.std::bitset"*
  %8 = bitcast %"class.std::bitset"* %YMM1 to i8*
  %9 = load i64, i64* %PC
  %10 = add i64 %9, 9
  store i64 %10, i64* %PC
  %11 = call %struct.Memory* @_ZN12_GLOBAL__N_1L9MOVSD_MEMI3VnWI8vec128_tE3MVnI7vec64_tEEEP6MemoryS8_R5StateT_T0_(%struct.Memory* %2, %struct.State* %0, i8* %8, i64 6295648)
  ret %struct.Memory* %11
}


define %struct.Memory* @routine_mulsd_MINUS0x28__rbp____xmm1(%struct.State*  dereferenceable(3376), i64, %struct.Memory* ) #19 {
block_400488:
  %3 = getelementptr inbounds %struct.State, %struct.State* %0, i32 0, i32 6
  %4 = getelementptr inbounds %struct.GPR, %struct.GPR* %3, i32 0, i32 33
  %5 = getelementptr inbounds %struct.Reg, %struct.Reg* %4, i32 0, i32 0
  %PC = bitcast %union.anon* %5 to i64*
  %6 = getelementptr inbounds %struct.State, %struct.State* %0, i32 0, i32 6
  %7 = getelementptr inbounds %struct.GPR, %struct.GPR* %6, i32 0, i32 15
  %8 = getelementptr inbounds %struct.Reg, %struct.Reg* %7, i32 0, i32 0
  %RBP = bitcast %union.anon* %8 to i64*
  %9 = getelementptr inbounds %struct.State, %struct.State* %0, i32 0, i32 1
  %10 = getelementptr inbounds [32 x %union.VectorReg], [32 x %union.VectorReg]* %9, i64 0, i64 1
  %YMM1 = bitcast %union.VectorReg* %10 to %"class.std::bitset"*
  %11 = bitcast %"class.std::bitset"* %YMM1 to i8*
  %12 = bitcast %"class.std::bitset"* %YMM1 to i8*
  %13 = load i64, i64* %RBP
  %14 = sub i64 %13, 40
  %15 = load i64, i64* %PC
  %16 = add i64 %15, 5
  store i64 %16, i64* %PC
  %17 = call %struct.Memory* @_ZN12_GLOBAL__N_1L5MULSDI3VnWI8vec128_tE2VnIS2_E3MVnIS2_EEEP6MemoryS9_R5StateT_T0_T1_(%struct.Memory* %2, %struct.State* %0, i8* %11, i8* %12, i64 %14)
  ret %struct.Memory* %17
}

define internal %struct.Memory* @_ZN12_GLOBAL__N_1L5ADDSDI3VnWI8vec128_tE2VnIS2_E3MVnI7vec64_tEEEP6MemorySA_R5StateT_T0_T1_(%struct.Memory* returned, %struct.State* nocapture readnone dereferenceable(3376), i8* nocapture, i8* nocapture readonly, i64) #0 {
  %6 = bitcast i8* %3 to double*
  %7 = load double, double* %6, align 1
  %8 = getelementptr inbounds i8, i8* %3, i64 8
  %9 = bitcast i8* %8 to i64*
  %10 = load i64, i64* %9, align 1
  %11 = inttoptr i64 %4 to double*
  %12 = load double, double* %11
  %13 = fadd double %7, %12
  %14 = bitcast i8* %2 to double*
  store double %13, double* %14, align 1
  %15 = getelementptr inbounds i8, i8* %2, i64 8
  %16 = bitcast i8* %15 to i64*
  store i64 %10, i64* %16, align 1
  ret %struct.Memory* %0
}

define %struct.Memory* @routine_addsd_0x601058___xmm1(%struct.State*  dereferenceable(3376), i64, %struct.Memory* ) #19 {
block_400488:
  %3 = getelementptr inbounds %struct.State, %struct.State* %0, i32 0, i32 6
  %4 = getelementptr inbounds %struct.GPR, %struct.GPR* %3, i32 0, i32 33
  %5 = getelementptr inbounds %struct.Reg, %struct.Reg* %4, i32 0, i32 0
  %PC = bitcast %union.anon* %5 to i64*
  %6 = getelementptr inbounds %struct.State, %struct.State* %0, i32 0, i32 1
  %7 = getelementptr inbounds [32 x %union.VectorReg], [32 x %union.VectorReg]* %6, i64 0, i64 1
  %YMM1 = bitcast %union.VectorReg* %7 to %"class.std::bitset"*
  %8 = bitcast %"class.std::bitset"* %YMM1 to i8*
  %9 = bitcast %"class.std::bitset"* %YMM1 to i8*
  %10 = load i64, i64* %PC
  %11 = add i64 %10, 9
  store i64 %11, i64* %PC
  %12 = call %struct.Memory* @_ZN12_GLOBAL__N_1L5ADDSDI3VnWI8vec128_tE2VnIS2_E3MVnI7vec64_tEEEP6MemorySA_R5StateT_T0_T1_(%struct.Memory* %2, %struct.State* %0, i8* %8, i8* %9, i64 6295640)
  ret %struct.Memory* %12
}




define %struct.Memory* @routine_addsd_0x601050___xmm1(%struct.State*  dereferenceable(3376), i64, %struct.Memory* ) #19 {
block_400488:
  %3 = getelementptr inbounds %struct.State, %struct.State* %0, i32 0, i32 6
  %4 = getelementptr inbounds %struct.GPR, %struct.GPR* %3, i32 0, i32 33
  %5 = getelementptr inbounds %struct.Reg, %struct.Reg* %4, i32 0, i32 0
  %PC = bitcast %union.anon* %5 to i64*
  %6 = getelementptr inbounds %struct.State, %struct.State* %0, i32 0, i32 1
  %7 = getelementptr inbounds [32 x %union.VectorReg], [32 x %union.VectorReg]* %6, i64 0, i64 1
  %YMM1 = bitcast %union.VectorReg* %7 to %"class.std::bitset"*
  %8 = bitcast %"class.std::bitset"* %YMM1 to i8*
  %9 = bitcast %"class.std::bitset"* %YMM1 to i8*
  %10 = load i64, i64* %PC
  %11 = add i64 %10, 9
  store i64 %11, i64* %PC
  %12 = call %struct.Memory* @_ZN12_GLOBAL__N_1L5ADDSDI3VnWI8vec128_tE2VnIS2_E3MVnI7vec64_tEEEP6MemorySA_R5StateT_T0_T1_(%struct.Memory* %2, %struct.State* %0, i8* %8, i8* %9, i64 6295632)
  ret %struct.Memory* %12
}




define %struct.Memory* @routine_addsd_0x601048___xmm1(%struct.State*  dereferenceable(3376), i64, %struct.Memory* ) #19 {
block_400488:
  %3 = getelementptr inbounds %struct.State, %struct.State* %0, i32 0, i32 6
  %4 = getelementptr inbounds %struct.GPR, %struct.GPR* %3, i32 0, i32 33
  %5 = getelementptr inbounds %struct.Reg, %struct.Reg* %4, i32 0, i32 0
  %PC = bitcast %union.anon* %5 to i64*
  %6 = getelementptr inbounds %struct.State, %struct.State* %0, i32 0, i32 1
  %7 = getelementptr inbounds [32 x %union.VectorReg], [32 x %union.VectorReg]* %6, i64 0, i64 1
  %YMM1 = bitcast %union.VectorReg* %7 to %"class.std::bitset"*
  %8 = bitcast %"class.std::bitset"* %YMM1 to i8*
  %9 = bitcast %"class.std::bitset"* %YMM1 to i8*
  %10 = load i64, i64* %PC
  %11 = add i64 %10, 9
  store i64 %11, i64* %PC
  %12 = call %struct.Memory* @_ZN12_GLOBAL__N_1L5ADDSDI3VnWI8vec128_tE2VnIS2_E3MVnI7vec64_tEEEP6MemorySA_R5StateT_T0_T1_(%struct.Memory* %2, %struct.State* %0, i8* %8, i8* %9, i64 6295624)
  ret %struct.Memory* %12
}




define %struct.Memory* @routine_addsd_0x601040___xmm1(%struct.State*  dereferenceable(3376), i64, %struct.Memory* ) #19 {
block_400488:
  %3 = getelementptr inbounds %struct.State, %struct.State* %0, i32 0, i32 6
  %4 = getelementptr inbounds %struct.GPR, %struct.GPR* %3, i32 0, i32 33
  %5 = getelementptr inbounds %struct.Reg, %struct.Reg* %4, i32 0, i32 0
  %PC = bitcast %union.anon* %5 to i64*
  %6 = getelementptr inbounds %struct.State, %struct.State* %0, i32 0, i32 1
  %7 = getelementptr inbounds [32 x %union.VectorReg], [32 x %union.VectorReg]* %6, i64 0, i64 1
  %YMM1 = bitcast %union.VectorReg* %7 to %"class.std::bitset"*
  %8 = bitcast %"class.std::bitset"* %YMM1 to i8*
  %9 = bitcast %"class.std::bitset"* %YMM1 to i8*
  %10 = load i64, i64* %PC
  %11 = add i64 %10, 9
  store i64 %11, i64* %PC
  %12 = call %struct.Memory* @_ZN12_GLOBAL__N_1L5ADDSDI3VnWI8vec128_tE2VnIS2_E3MVnI7vec64_tEEEP6MemorySA_R5StateT_T0_T1_(%struct.Memory* %2, %struct.State* %0, i8* %8, i8* %9, i64 ptrtoint( %G_0x601040_type* @G_0x601040 to i64))
  ret %struct.Memory* %12
}




define %struct.Memory* @routine_addsd_0x601038___xmm1(%struct.State*  dereferenceable(3376), i64, %struct.Memory* ) #19 {
block_400488:
  %3 = getelementptr inbounds %struct.State, %struct.State* %0, i32 0, i32 6
  %4 = getelementptr inbounds %struct.GPR, %struct.GPR* %3, i32 0, i32 33
  %5 = getelementptr inbounds %struct.Reg, %struct.Reg* %4, i32 0, i32 0
  %PC = bitcast %union.anon* %5 to i64*
  %6 = getelementptr inbounds %struct.State, %struct.State* %0, i32 0, i32 1
  %7 = getelementptr inbounds [32 x %union.VectorReg], [32 x %union.VectorReg]* %6, i64 0, i64 1
  %YMM1 = bitcast %union.VectorReg* %7 to %"class.std::bitset"*
  %8 = bitcast %"class.std::bitset"* %YMM1 to i8*
  %9 = bitcast %"class.std::bitset"* %YMM1 to i8*
  %10 = load i64, i64* %PC
  %11 = add i64 %10, 9
  store i64 %11, i64* %PC
  %12 = call %struct.Memory* @_ZN12_GLOBAL__N_1L5ADDSDI3VnWI8vec128_tE2VnIS2_E3MVnI7vec64_tEEEP6MemorySA_R5StateT_T0_T1_(%struct.Memory* %2, %struct.State* %0, i8* %8, i8* %9, i64 ptrtoint( %G_0x601038_type* @G_0x601038 to i64))
  ret %struct.Memory* %12
}




define %struct.Memory* @routine_addsd_0x601288___xmm1(%struct.State*  dereferenceable(3376), i64, %struct.Memory* ) #19 {
block_400488:
  %3 = getelementptr inbounds %struct.State, %struct.State* %0, i32 0, i32 6
  %4 = getelementptr inbounds %struct.GPR, %struct.GPR* %3, i32 0, i32 33
  %5 = getelementptr inbounds %struct.Reg, %struct.Reg* %4, i32 0, i32 0
  %PC = bitcast %union.anon* %5 to i64*
  %6 = getelementptr inbounds %struct.State, %struct.State* %0, i32 0, i32 1
  %7 = getelementptr inbounds [32 x %union.VectorReg], [32 x %union.VectorReg]* %6, i64 0, i64 1
  %YMM1 = bitcast %union.VectorReg* %7 to %"class.std::bitset"*
  %8 = bitcast %"class.std::bitset"* %YMM1 to i8*
  %9 = bitcast %"class.std::bitset"* %YMM1 to i8*
  %10 = load i64, i64* %PC
  %11 = add i64 %10, 9
  store i64 %11, i64* %PC
  %12 = call %struct.Memory* @_ZN12_GLOBAL__N_1L5ADDSDI3VnWI8vec128_tE2VnIS2_E3MVnI7vec64_tEEEP6MemorySA_R5StateT_T0_T1_(%struct.Memory* %2, %struct.State* %0, i8* %8, i8* %9, i64 6296200)
  ret %struct.Memory* %12
}


define %struct.Memory* @routine_mulsd__xmm1___xmm0(%struct.State*  dereferenceable(3376), i64, %struct.Memory* ) #19 {
block_400488:
  %3 = getelementptr inbounds %struct.State, %struct.State* %0, i32 0, i32 6
  %4 = getelementptr inbounds %struct.GPR, %struct.GPR* %3, i32 0, i32 33
  %5 = getelementptr inbounds %struct.Reg, %struct.Reg* %4, i32 0, i32 0
  %PC = bitcast %union.anon* %5 to i64*
  %6 = getelementptr inbounds %struct.State, %struct.State* %0, i32 0, i32 1
  %7 = getelementptr inbounds [32 x %union.VectorReg], [32 x %union.VectorReg]* %6, i64 0, i64 0
  %YMM0 = bitcast %union.VectorReg* %7 to %"class.std::bitset"*
  %8 = getelementptr inbounds %struct.State, %struct.State* %0, i32 0, i32 1
  %9 = getelementptr inbounds [32 x %union.VectorReg], [32 x %union.VectorReg]* %8, i64 0, i64 1
  %XMM1 = bitcast %union.VectorReg* %9 to %union.vec128_t*
  %10 = bitcast %"class.std::bitset"* %YMM0 to i8*
  %11 = bitcast %"class.std::bitset"* %YMM0 to i8*
  %12 = bitcast %union.vec128_t* %XMM1 to i8*
  %13 = load i64, i64* %PC
  %14 = add i64 %13, 4
  store i64 %14, i64* %PC
  %15 = call %struct.Memory* @_ZN12_GLOBAL__N_1L5MULSDI3VnWI8vec128_tE2VnIS2_ES5_EEP6MemoryS7_R5StateT_T0_T1_(%struct.Memory* %2, %struct.State* %0, i8* %10, i8* %11, i8* %12)
  ret %struct.Memory* %15
}




define %struct.Memory* @routine_movsd_MINUS0x10__rbp____xmm0(%struct.State*  dereferenceable(3376), i64, %struct.Memory* ) #19 {
block_400488:
  %3 = getelementptr inbounds %struct.State, %struct.State* %0, i32 0, i32 6
  %4 = getelementptr inbounds %struct.GPR, %struct.GPR* %3, i32 0, i32 33
  %5 = getelementptr inbounds %struct.Reg, %struct.Reg* %4, i32 0, i32 0
  %PC = bitcast %union.anon* %5 to i64*
  %6 = getelementptr inbounds %struct.State, %struct.State* %0, i32 0, i32 6
  %7 = getelementptr inbounds %struct.GPR, %struct.GPR* %6, i32 0, i32 15
  %8 = getelementptr inbounds %struct.Reg, %struct.Reg* %7, i32 0, i32 0
  %RBP = bitcast %union.anon* %8 to i64*
  %9 = getelementptr inbounds %struct.State, %struct.State* %0, i32 0, i32 1
  %10 = getelementptr inbounds [32 x %union.VectorReg], [32 x %union.VectorReg]* %9, i64 0, i64 0
  %YMM0 = bitcast %union.VectorReg* %10 to %"class.std::bitset"*
  %11 = bitcast %"class.std::bitset"* %YMM0 to i8*
  %12 = load i64, i64* %RBP
  %13 = sub i64 %12, 16
  %14 = load i64, i64* %PC
  %15 = add i64 %14, 5
  store i64 %15, i64* %PC
  %16 = call %struct.Memory* @_ZN12_GLOBAL__N_1L9MOVSD_MEMI3VnWI8vec128_tE3MVnI7vec64_tEEEP6MemoryS8_R5StateT_T0_(%struct.Memory* %2, %struct.State* %0, i8* %11, i64 %13)
  ret %struct.Memory* %16
}


define %struct.Memory* @routine_movsd_MINUS0x20__rbp____xmm1(%struct.State*  dereferenceable(3376), i64, %struct.Memory* ) #19 {
block_400488:
  %3 = getelementptr inbounds %struct.State, %struct.State* %0, i32 0, i32 6
  %4 = getelementptr inbounds %struct.GPR, %struct.GPR* %3, i32 0, i32 33
  %5 = getelementptr inbounds %struct.Reg, %struct.Reg* %4, i32 0, i32 0
  %PC = bitcast %union.anon* %5 to i64*
  %6 = getelementptr inbounds %struct.State, %struct.State* %0, i32 0, i32 6
  %7 = getelementptr inbounds %struct.GPR, %struct.GPR* %6, i32 0, i32 15
  %8 = getelementptr inbounds %struct.Reg, %struct.Reg* %7, i32 0, i32 0
  %RBP = bitcast %union.anon* %8 to i64*
  %9 = getelementptr inbounds %struct.State, %struct.State* %0, i32 0, i32 1
  %10 = getelementptr inbounds [32 x %union.VectorReg], [32 x %union.VectorReg]* %9, i64 0, i64 1
  %YMM1 = bitcast %union.VectorReg* %10 to %"class.std::bitset"*
  %11 = bitcast %"class.std::bitset"* %YMM1 to i8*
  %12 = load i64, i64* %RBP
  %13 = sub i64 %12, 32
  %14 = load i64, i64* %PC
  %15 = add i64 %14, 5
  store i64 %15, i64* %PC
  %16 = call %struct.Memory* @_ZN12_GLOBAL__N_1L9MOVSD_MEMI3VnWI8vec128_tE3MVnI7vec64_tEEEP6MemoryS8_R5StateT_T0_(%struct.Memory* %2, %struct.State* %0, i8* %11, i64 %13)
  ret %struct.Memory* %16
}


define %struct.Memory* @routine_movsd_MINUS0x28__rbp____xmm2(%struct.State*  dereferenceable(3376), i64, %struct.Memory* ) #19 {
block_400488:
  %3 = getelementptr inbounds %struct.State, %struct.State* %0, i32 0, i32 6
  %4 = getelementptr inbounds %struct.GPR, %struct.GPR* %3, i32 0, i32 33
  %5 = getelementptr inbounds %struct.Reg, %struct.Reg* %4, i32 0, i32 0
  %PC = bitcast %union.anon* %5 to i64*
  %6 = getelementptr inbounds %struct.State, %struct.State* %0, i32 0, i32 6
  %7 = getelementptr inbounds %struct.GPR, %struct.GPR* %6, i32 0, i32 15
  %8 = getelementptr inbounds %struct.Reg, %struct.Reg* %7, i32 0, i32 0
  %RBP = bitcast %union.anon* %8 to i64*
  %9 = getelementptr inbounds %struct.State, %struct.State* %0, i32 0, i32 1
  %10 = getelementptr inbounds [32 x %union.VectorReg], [32 x %union.VectorReg]* %9, i64 0, i64 2
  %YMM2 = bitcast %union.VectorReg* %10 to %"class.std::bitset"*
  %11 = bitcast %"class.std::bitset"* %YMM2 to i8*
  %12 = load i64, i64* %RBP
  %13 = sub i64 %12, 40
  %14 = load i64, i64* %PC
  %15 = add i64 %14, 5
  store i64 %15, i64* %PC
  %16 = call %struct.Memory* @_ZN12_GLOBAL__N_1L9MOVSD_MEMI3VnWI8vec128_tE3MVnI7vec64_tEEEP6MemoryS8_R5StateT_T0_(%struct.Memory* %2, %struct.State* %0, i8* %11, i64 %13)
  ret %struct.Memory* %16
}


define %struct.Memory* @routine_movsd_MINUS0x28__rbp____xmm3(%struct.State*  dereferenceable(3376), i64, %struct.Memory* ) #19 {
block_400488:
  %3 = getelementptr inbounds %struct.State, %struct.State* %0, i32 0, i32 6
  %4 = getelementptr inbounds %struct.GPR, %struct.GPR* %3, i32 0, i32 33
  %5 = getelementptr inbounds %struct.Reg, %struct.Reg* %4, i32 0, i32 0
  %PC = bitcast %union.anon* %5 to i64*
  %6 = getelementptr inbounds %struct.State, %struct.State* %0, i32 0, i32 6
  %7 = getelementptr inbounds %struct.GPR, %struct.GPR* %6, i32 0, i32 15
  %8 = getelementptr inbounds %struct.Reg, %struct.Reg* %7, i32 0, i32 0
  %RBP = bitcast %union.anon* %8 to i64*
  %9 = getelementptr inbounds %struct.State, %struct.State* %0, i32 0, i32 1
  %10 = getelementptr inbounds [32 x %union.VectorReg], [32 x %union.VectorReg]* %9, i64 0, i64 3
  %YMM3 = bitcast %union.VectorReg* %10 to %"class.std::bitset"*
  %11 = bitcast %"class.std::bitset"* %YMM3 to i8*
  %12 = load i64, i64* %RBP
  %13 = sub i64 %12, 40
  %14 = load i64, i64* %PC
  %15 = add i64 %14, 5
  store i64 %15, i64* %PC
  %16 = call %struct.Memory* @_ZN12_GLOBAL__N_1L9MOVSD_MEMI3VnWI8vec128_tE3MVnI7vec64_tEEEP6MemoryS8_R5StateT_T0_(%struct.Memory* %2, %struct.State* %0, i8* %11, i64 %13)
  ret %struct.Memory* %16
}


define %struct.Memory* @routine_movsd_MINUS0x28__rbp____xmm4(%struct.State*  dereferenceable(3376), i64, %struct.Memory* ) #19 {
block_400488:
  %3 = getelementptr inbounds %struct.State, %struct.State* %0, i32 0, i32 6
  %4 = getelementptr inbounds %struct.GPR, %struct.GPR* %3, i32 0, i32 33
  %5 = getelementptr inbounds %struct.Reg, %struct.Reg* %4, i32 0, i32 0
  %PC = bitcast %union.anon* %5 to i64*
  %6 = getelementptr inbounds %struct.State, %struct.State* %0, i32 0, i32 6
  %7 = getelementptr inbounds %struct.GPR, %struct.GPR* %6, i32 0, i32 15
  %8 = getelementptr inbounds %struct.Reg, %struct.Reg* %7, i32 0, i32 0
  %RBP = bitcast %union.anon* %8 to i64*
  %9 = getelementptr inbounds %struct.State, %struct.State* %0, i32 0, i32 1
  %10 = getelementptr inbounds [32 x %union.VectorReg], [32 x %union.VectorReg]* %9, i64 0, i64 4
  %YMM4 = bitcast %union.VectorReg* %10 to %"class.std::bitset"*
  %11 = bitcast %"class.std::bitset"* %YMM4 to i8*
  %12 = load i64, i64* %RBP
  %13 = sub i64 %12, 40
  %14 = load i64, i64* %PC
  %15 = add i64 %14, 5
  store i64 %15, i64* %PC
  %16 = call %struct.Memory* @_ZN12_GLOBAL__N_1L9MOVSD_MEMI3VnWI8vec128_tE3MVnI7vec64_tEEEP6MemoryS8_R5StateT_T0_(%struct.Memory* %2, %struct.State* %0, i8* %11, i64 %13)
  ret %struct.Memory* %16
}


define %struct.Memory* @routine_movsd_MINUS0x28__rbp____xmm5(%struct.State*  dereferenceable(3376), i64, %struct.Memory* ) #19 {
block_400488:
  %3 = getelementptr inbounds %struct.State, %struct.State* %0, i32 0, i32 6
  %4 = getelementptr inbounds %struct.GPR, %struct.GPR* %3, i32 0, i32 33
  %5 = getelementptr inbounds %struct.Reg, %struct.Reg* %4, i32 0, i32 0
  %PC = bitcast %union.anon* %5 to i64*
  %6 = getelementptr inbounds %struct.State, %struct.State* %0, i32 0, i32 6
  %7 = getelementptr inbounds %struct.GPR, %struct.GPR* %6, i32 0, i32 15
  %8 = getelementptr inbounds %struct.Reg, %struct.Reg* %7, i32 0, i32 0
  %RBP = bitcast %union.anon* %8 to i64*
  %9 = getelementptr inbounds %struct.State, %struct.State* %0, i32 0, i32 1
  %10 = getelementptr inbounds [32 x %union.VectorReg], [32 x %union.VectorReg]* %9, i64 0, i64 5
  %YMM5 = bitcast %union.VectorReg* %10 to %"class.std::bitset"*
  %11 = bitcast %"class.std::bitset"* %YMM5 to i8*
  %12 = load i64, i64* %RBP
  %13 = sub i64 %12, 40
  %14 = load i64, i64* %PC
  %15 = add i64 %14, 5
  store i64 %15, i64* %PC
  %16 = call %struct.Memory* @_ZN12_GLOBAL__N_1L9MOVSD_MEMI3VnWI8vec128_tE3MVnI7vec64_tEEEP6MemoryS8_R5StateT_T0_(%struct.Memory* %2, %struct.State* %0, i8* %11, i64 %13)
  ret %struct.Memory* %16
}


define %struct.Memory* @routine_movsd_MINUS0x28__rbp____xmm6(%struct.State*  dereferenceable(3376), i64, %struct.Memory* ) #19 {
block_400488:
  %3 = getelementptr inbounds %struct.State, %struct.State* %0, i32 0, i32 6
  %4 = getelementptr inbounds %struct.GPR, %struct.GPR* %3, i32 0, i32 33
  %5 = getelementptr inbounds %struct.Reg, %struct.Reg* %4, i32 0, i32 0
  %PC = bitcast %union.anon* %5 to i64*
  %6 = getelementptr inbounds %struct.State, %struct.State* %0, i32 0, i32 6
  %7 = getelementptr inbounds %struct.GPR, %struct.GPR* %6, i32 0, i32 15
  %8 = getelementptr inbounds %struct.Reg, %struct.Reg* %7, i32 0, i32 0
  %RBP = bitcast %union.anon* %8 to i64*
  %9 = getelementptr inbounds %struct.State, %struct.State* %0, i32 0, i32 1
  %10 = getelementptr inbounds [32 x %union.VectorReg], [32 x %union.VectorReg]* %9, i64 0, i64 6
  %YMM6 = bitcast %union.VectorReg* %10 to %"class.std::bitset"*
  %11 = bitcast %"class.std::bitset"* %YMM6 to i8*
  %12 = load i64, i64* %RBP
  %13 = sub i64 %12, 40
  %14 = load i64, i64* %PC
  %15 = add i64 %14, 5
  store i64 %15, i64* %PC
  %16 = call %struct.Memory* @_ZN12_GLOBAL__N_1L9MOVSD_MEMI3VnWI8vec128_tE3MVnI7vec64_tEEEP6MemoryS8_R5StateT_T0_(%struct.Memory* %2, %struct.State* %0, i8* %11, i64 %13)
  ret %struct.Memory* %16
}


define %struct.Memory* @routine_movsd_0x601098___xmm7(%struct.State*  dereferenceable(3376), i64, %struct.Memory* ) #19 {
block_400488:
  %3 = getelementptr inbounds %struct.State, %struct.State* %0, i32 0, i32 6
  %4 = getelementptr inbounds %struct.GPR, %struct.GPR* %3, i32 0, i32 33
  %5 = getelementptr inbounds %struct.Reg, %struct.Reg* %4, i32 0, i32 0
  %PC = bitcast %union.anon* %5 to i64*
  %6 = getelementptr inbounds %struct.State, %struct.State* %0, i32 0, i32 1
  %7 = getelementptr inbounds [32 x %union.VectorReg], [32 x %union.VectorReg]* %6, i64 0, i64 7
  %YMM7 = bitcast %union.VectorReg* %7 to %"class.std::bitset"*
  %8 = bitcast %"class.std::bitset"* %YMM7 to i8*
  %9 = load i64, i64* %PC
  %10 = add i64 %9, 9
  store i64 %10, i64* %PC
  %11 = call %struct.Memory* @_ZN12_GLOBAL__N_1L9MOVSD_MEMI3VnWI8vec128_tE3MVnI7vec64_tEEEP6MemoryS8_R5StateT_T0_(%struct.Memory* %2, %struct.State* %0, i8* %8, i64 6295704)
  ret %struct.Memory* %11
}


define %struct.Memory* @routine_mulsd_MINUS0x28__rbp____xmm7(%struct.State*  dereferenceable(3376), i64, %struct.Memory* ) #19 {
block_400488:
  %3 = getelementptr inbounds %struct.State, %struct.State* %0, i32 0, i32 6
  %4 = getelementptr inbounds %struct.GPR, %struct.GPR* %3, i32 0, i32 33
  %5 = getelementptr inbounds %struct.Reg, %struct.Reg* %4, i32 0, i32 0
  %PC = bitcast %union.anon* %5 to i64*
  %6 = getelementptr inbounds %struct.State, %struct.State* %0, i32 0, i32 6
  %7 = getelementptr inbounds %struct.GPR, %struct.GPR* %6, i32 0, i32 15
  %8 = getelementptr inbounds %struct.Reg, %struct.Reg* %7, i32 0, i32 0
  %RBP = bitcast %union.anon* %8 to i64*
  %9 = getelementptr inbounds %struct.State, %struct.State* %0, i32 0, i32 1
  %10 = getelementptr inbounds [32 x %union.VectorReg], [32 x %union.VectorReg]* %9, i64 0, i64 7
  %YMM7 = bitcast %union.VectorReg* %10 to %"class.std::bitset"*
  %11 = bitcast %"class.std::bitset"* %YMM7 to i8*
  %12 = bitcast %"class.std::bitset"* %YMM7 to i8*
  %13 = load i64, i64* %RBP
  %14 = sub i64 %13, 40
  %15 = load i64, i64* %PC
  %16 = add i64 %15, 5
  store i64 %16, i64* %PC
  %17 = call %struct.Memory* @_ZN12_GLOBAL__N_1L5MULSDI3VnWI8vec128_tE2VnIS2_E3MVnIS2_EEEP6MemoryS9_R5StateT_T0_T1_(%struct.Memory* %2, %struct.State* %0, i8* %11, i8* %12, i64 %14)
  ret %struct.Memory* %17
}


define %struct.Memory* @routine_addsd_0x601090___xmm7(%struct.State*  dereferenceable(3376), i64, %struct.Memory* ) #19 {
block_400488:
  %3 = getelementptr inbounds %struct.State, %struct.State* %0, i32 0, i32 6
  %4 = getelementptr inbounds %struct.GPR, %struct.GPR* %3, i32 0, i32 33
  %5 = getelementptr inbounds %struct.Reg, %struct.Reg* %4, i32 0, i32 0
  %PC = bitcast %union.anon* %5 to i64*
  %6 = getelementptr inbounds %struct.State, %struct.State* %0, i32 0, i32 1
  %7 = getelementptr inbounds [32 x %union.VectorReg], [32 x %union.VectorReg]* %6, i64 0, i64 7
  %YMM7 = bitcast %union.VectorReg* %7 to %"class.std::bitset"*
  %8 = bitcast %"class.std::bitset"* %YMM7 to i8*
  %9 = bitcast %"class.std::bitset"* %YMM7 to i8*
  %10 = load i64, i64* %PC
  %11 = add i64 %10, 9
  store i64 %11, i64* %PC
  %12 = call %struct.Memory* @_ZN12_GLOBAL__N_1L5ADDSDI3VnWI8vec128_tE2VnIS2_E3MVnI7vec64_tEEEP6MemorySA_R5StateT_T0_T1_(%struct.Memory* %2, %struct.State* %0, i8* %8, i8* %9, i64 6295696)
  ret %struct.Memory* %12
}


define %struct.Memory* @routine_mulsd__xmm7___xmm6(%struct.State*  dereferenceable(3376), i64, %struct.Memory* ) #19 {
block_400488:
  %3 = getelementptr inbounds %struct.State, %struct.State* %0, i32 0, i32 6
  %4 = getelementptr inbounds %struct.GPR, %struct.GPR* %3, i32 0, i32 33
  %5 = getelementptr inbounds %struct.Reg, %struct.Reg* %4, i32 0, i32 0
  %PC = bitcast %union.anon* %5 to i64*
  %6 = getelementptr inbounds %struct.State, %struct.State* %0, i32 0, i32 1
  %7 = getelementptr inbounds [32 x %union.VectorReg], [32 x %union.VectorReg]* %6, i64 0, i64 6
  %YMM6 = bitcast %union.VectorReg* %7 to %"class.std::bitset"*
  %8 = getelementptr inbounds %struct.State, %struct.State* %0, i32 0, i32 1
  %9 = getelementptr inbounds [32 x %union.VectorReg], [32 x %union.VectorReg]* %8, i64 0, i64 7
  %XMM7 = bitcast %union.VectorReg* %9 to %union.vec128_t*
  %10 = bitcast %"class.std::bitset"* %YMM6 to i8*
  %11 = bitcast %"class.std::bitset"* %YMM6 to i8*
  %12 = bitcast %union.vec128_t* %XMM7 to i8*
  %13 = load i64, i64* %PC
  %14 = add i64 %13, 4
  store i64 %14, i64* %PC
  %15 = call %struct.Memory* @_ZN12_GLOBAL__N_1L5MULSDI3VnWI8vec128_tE2VnIS2_ES5_EEP6MemoryS7_R5StateT_T0_T1_(%struct.Memory* %2, %struct.State* %0, i8* %10, i8* %11, i8* %12)
  ret %struct.Memory* %15
}


define %struct.Memory* @routine_addsd_0x601088___xmm6(%struct.State*  dereferenceable(3376), i64, %struct.Memory* ) #19 {
block_400488:
  %3 = getelementptr inbounds %struct.State, %struct.State* %0, i32 0, i32 6
  %4 = getelementptr inbounds %struct.GPR, %struct.GPR* %3, i32 0, i32 33
  %5 = getelementptr inbounds %struct.Reg, %struct.Reg* %4, i32 0, i32 0
  %PC = bitcast %union.anon* %5 to i64*
  %6 = getelementptr inbounds %struct.State, %struct.State* %0, i32 0, i32 1
  %7 = getelementptr inbounds [32 x %union.VectorReg], [32 x %union.VectorReg]* %6, i64 0, i64 6
  %YMM6 = bitcast %union.VectorReg* %7 to %"class.std::bitset"*
  %8 = bitcast %"class.std::bitset"* %YMM6 to i8*
  %9 = bitcast %"class.std::bitset"* %YMM6 to i8*
  %10 = load i64, i64* %PC
  %11 = add i64 %10, 9
  store i64 %11, i64* %PC
  %12 = call %struct.Memory* @_ZN12_GLOBAL__N_1L5ADDSDI3VnWI8vec128_tE2VnIS2_E3MVnI7vec64_tEEEP6MemorySA_R5StateT_T0_T1_(%struct.Memory* %2, %struct.State* %0, i8* %8, i8* %9, i64 6295688)
  ret %struct.Memory* %12
}


define %struct.Memory* @routine_mulsd__xmm6___xmm5(%struct.State*  dereferenceable(3376), i64, %struct.Memory* ) #19 {
block_400488:
  %3 = getelementptr inbounds %struct.State, %struct.State* %0, i32 0, i32 6
  %4 = getelementptr inbounds %struct.GPR, %struct.GPR* %3, i32 0, i32 33
  %5 = getelementptr inbounds %struct.Reg, %struct.Reg* %4, i32 0, i32 0
  %PC = bitcast %union.anon* %5 to i64*
  %6 = getelementptr inbounds %struct.State, %struct.State* %0, i32 0, i32 1
  %7 = getelementptr inbounds [32 x %union.VectorReg], [32 x %union.VectorReg]* %6, i64 0, i64 5
  %YMM5 = bitcast %union.VectorReg* %7 to %"class.std::bitset"*
  %8 = getelementptr inbounds %struct.State, %struct.State* %0, i32 0, i32 1
  %9 = getelementptr inbounds [32 x %union.VectorReg], [32 x %union.VectorReg]* %8, i64 0, i64 6
  %XMM6 = bitcast %union.VectorReg* %9 to %union.vec128_t*
  %10 = bitcast %"class.std::bitset"* %YMM5 to i8*
  %11 = bitcast %"class.std::bitset"* %YMM5 to i8*
  %12 = bitcast %union.vec128_t* %XMM6 to i8*
  %13 = load i64, i64* %PC
  %14 = add i64 %13, 4
  store i64 %14, i64* %PC
  %15 = call %struct.Memory* @_ZN12_GLOBAL__N_1L5MULSDI3VnWI8vec128_tE2VnIS2_ES5_EEP6MemoryS7_R5StateT_T0_T1_(%struct.Memory* %2, %struct.State* %0, i8* %10, i8* %11, i8* %12)
  ret %struct.Memory* %15
}


define %struct.Memory* @routine_addsd_0x601080___xmm5(%struct.State*  dereferenceable(3376), i64, %struct.Memory* ) #19 {
block_400488:
  %3 = getelementptr inbounds %struct.State, %struct.State* %0, i32 0, i32 6
  %4 = getelementptr inbounds %struct.GPR, %struct.GPR* %3, i32 0, i32 33
  %5 = getelementptr inbounds %struct.Reg, %struct.Reg* %4, i32 0, i32 0
  %PC = bitcast %union.anon* %5 to i64*
  %6 = getelementptr inbounds %struct.State, %struct.State* %0, i32 0, i32 1
  %7 = getelementptr inbounds [32 x %union.VectorReg], [32 x %union.VectorReg]* %6, i64 0, i64 5
  %YMM5 = bitcast %union.VectorReg* %7 to %"class.std::bitset"*
  %8 = bitcast %"class.std::bitset"* %YMM5 to i8*
  %9 = bitcast %"class.std::bitset"* %YMM5 to i8*
  %10 = load i64, i64* %PC
  %11 = add i64 %10, 9
  store i64 %11, i64* %PC
  %12 = call %struct.Memory* @_ZN12_GLOBAL__N_1L5ADDSDI3VnWI8vec128_tE2VnIS2_E3MVnI7vec64_tEEEP6MemorySA_R5StateT_T0_T1_(%struct.Memory* %2, %struct.State* %0, i8* %8, i8* %9, i64 6295680)
  ret %struct.Memory* %12
}


define %struct.Memory* @routine_mulsd__xmm5___xmm4(%struct.State*  dereferenceable(3376), i64, %struct.Memory* ) #19 {
block_400488:
  %3 = getelementptr inbounds %struct.State, %struct.State* %0, i32 0, i32 6
  %4 = getelementptr inbounds %struct.GPR, %struct.GPR* %3, i32 0, i32 33
  %5 = getelementptr inbounds %struct.Reg, %struct.Reg* %4, i32 0, i32 0
  %PC = bitcast %union.anon* %5 to i64*
  %6 = getelementptr inbounds %struct.State, %struct.State* %0, i32 0, i32 1
  %7 = getelementptr inbounds [32 x %union.VectorReg], [32 x %union.VectorReg]* %6, i64 0, i64 4
  %YMM4 = bitcast %union.VectorReg* %7 to %"class.std::bitset"*
  %8 = getelementptr inbounds %struct.State, %struct.State* %0, i32 0, i32 1
  %9 = getelementptr inbounds [32 x %union.VectorReg], [32 x %union.VectorReg]* %8, i64 0, i64 5
  %XMM5 = bitcast %union.VectorReg* %9 to %union.vec128_t*
  %10 = bitcast %"class.std::bitset"* %YMM4 to i8*
  %11 = bitcast %"class.std::bitset"* %YMM4 to i8*
  %12 = bitcast %union.vec128_t* %XMM5 to i8*
  %13 = load i64, i64* %PC
  %14 = add i64 %13, 4
  store i64 %14, i64* %PC
  %15 = call %struct.Memory* @_ZN12_GLOBAL__N_1L5MULSDI3VnWI8vec128_tE2VnIS2_ES5_EEP6MemoryS7_R5StateT_T0_T1_(%struct.Memory* %2, %struct.State* %0, i8* %10, i8* %11, i8* %12)
  ret %struct.Memory* %15
}


define %struct.Memory* @routine_addsd_0x601078___xmm4(%struct.State*  dereferenceable(3376), i64, %struct.Memory* ) #19 {
block_400488:
  %3 = getelementptr inbounds %struct.State, %struct.State* %0, i32 0, i32 6
  %4 = getelementptr inbounds %struct.GPR, %struct.GPR* %3, i32 0, i32 33
  %5 = getelementptr inbounds %struct.Reg, %struct.Reg* %4, i32 0, i32 0
  %PC = bitcast %union.anon* %5 to i64*
  %6 = getelementptr inbounds %struct.State, %struct.State* %0, i32 0, i32 1
  %7 = getelementptr inbounds [32 x %union.VectorReg], [32 x %union.VectorReg]* %6, i64 0, i64 4
  %YMM4 = bitcast %union.VectorReg* %7 to %"class.std::bitset"*
  %8 = bitcast %"class.std::bitset"* %YMM4 to i8*
  %9 = bitcast %"class.std::bitset"* %YMM4 to i8*
  %10 = load i64, i64* %PC
  %11 = add i64 %10, 9
  store i64 %11, i64* %PC
  %12 = call %struct.Memory* @_ZN12_GLOBAL__N_1L5ADDSDI3VnWI8vec128_tE2VnIS2_E3MVnI7vec64_tEEEP6MemorySA_R5StateT_T0_T1_(%struct.Memory* %2, %struct.State* %0, i8* %8, i8* %9, i64 6295672)
  ret %struct.Memory* %12
}


define %struct.Memory* @routine_mulsd__xmm4___xmm3(%struct.State*  dereferenceable(3376), i64, %struct.Memory* ) #19 {
block_400488:
  %3 = getelementptr inbounds %struct.State, %struct.State* %0, i32 0, i32 6
  %4 = getelementptr inbounds %struct.GPR, %struct.GPR* %3, i32 0, i32 33
  %5 = getelementptr inbounds %struct.Reg, %struct.Reg* %4, i32 0, i32 0
  %PC = bitcast %union.anon* %5 to i64*
  %6 = getelementptr inbounds %struct.State, %struct.State* %0, i32 0, i32 1
  %7 = getelementptr inbounds [32 x %union.VectorReg], [32 x %union.VectorReg]* %6, i64 0, i64 3
  %YMM3 = bitcast %union.VectorReg* %7 to %"class.std::bitset"*
  %8 = getelementptr inbounds %struct.State, %struct.State* %0, i32 0, i32 1
  %9 = getelementptr inbounds [32 x %union.VectorReg], [32 x %union.VectorReg]* %8, i64 0, i64 4
  %XMM4 = bitcast %union.VectorReg* %9 to %union.vec128_t*
  %10 = bitcast %"class.std::bitset"* %YMM3 to i8*
  %11 = bitcast %"class.std::bitset"* %YMM3 to i8*
  %12 = bitcast %union.vec128_t* %XMM4 to i8*
  %13 = load i64, i64* %PC
  %14 = add i64 %13, 4
  store i64 %14, i64* %PC
  %15 = call %struct.Memory* @_ZN12_GLOBAL__N_1L5MULSDI3VnWI8vec128_tE2VnIS2_ES5_EEP6MemoryS7_R5StateT_T0_T1_(%struct.Memory* %2, %struct.State* %0, i8* %10, i8* %11, i8* %12)
  ret %struct.Memory* %15
}


define %struct.Memory* @routine_addsd_0x601070___xmm3(%struct.State*  dereferenceable(3376), i64, %struct.Memory* ) #19 {
block_400488:
  %3 = getelementptr inbounds %struct.State, %struct.State* %0, i32 0, i32 6
  %4 = getelementptr inbounds %struct.GPR, %struct.GPR* %3, i32 0, i32 33
  %5 = getelementptr inbounds %struct.Reg, %struct.Reg* %4, i32 0, i32 0
  %PC = bitcast %union.anon* %5 to i64*
  %6 = getelementptr inbounds %struct.State, %struct.State* %0, i32 0, i32 1
  %7 = getelementptr inbounds [32 x %union.VectorReg], [32 x %union.VectorReg]* %6, i64 0, i64 3
  %YMM3 = bitcast %union.VectorReg* %7 to %"class.std::bitset"*
  %8 = bitcast %"class.std::bitset"* %YMM3 to i8*
  %9 = bitcast %"class.std::bitset"* %YMM3 to i8*
  %10 = load i64, i64* %PC
  %11 = add i64 %10, 9
  store i64 %11, i64* %PC
  %12 = call %struct.Memory* @_ZN12_GLOBAL__N_1L5ADDSDI3VnWI8vec128_tE2VnIS2_E3MVnI7vec64_tEEEP6MemorySA_R5StateT_T0_T1_(%struct.Memory* %2, %struct.State* %0, i8* %8, i8* %9, i64 6295664)
  ret %struct.Memory* %12
}




define %struct.Memory* @routine_addsd_0x601288___xmm2(%struct.State*  dereferenceable(3376), i64, %struct.Memory* ) #19 {
block_400488:
  %3 = getelementptr inbounds %struct.State, %struct.State* %0, i32 0, i32 6
  %4 = getelementptr inbounds %struct.GPR, %struct.GPR* %3, i32 0, i32 33
  %5 = getelementptr inbounds %struct.Reg, %struct.Reg* %4, i32 0, i32 0
  %PC = bitcast %union.anon* %5 to i64*
  %6 = getelementptr inbounds %struct.State, %struct.State* %0, i32 0, i32 1
  %7 = getelementptr inbounds [32 x %union.VectorReg], [32 x %union.VectorReg]* %6, i64 0, i64 2
  %YMM2 = bitcast %union.VectorReg* %7 to %"class.std::bitset"*
  %8 = bitcast %"class.std::bitset"* %YMM2 to i8*
  %9 = bitcast %"class.std::bitset"* %YMM2 to i8*
  %10 = load i64, i64* %PC
  %11 = add i64 %10, 9
  store i64 %11, i64* %PC
  %12 = call %struct.Memory* @_ZN12_GLOBAL__N_1L5ADDSDI3VnWI8vec128_tE2VnIS2_E3MVnI7vec64_tEEEP6MemorySA_R5StateT_T0_T1_(%struct.Memory* %2, %struct.State* %0, i8* %8, i8* %9, i64 6296200)
  ret %struct.Memory* %12
}



define internal %struct.Memory* @_ZN12_GLOBAL__N_1L5ADDSDI3VnWI8vec128_tE2VnIS2_ES5_EEP6MemoryS7_R5StateT_T0_T1_(%struct.Memory* readnone returned, %struct.State* nocapture readnone dereferenceable(3376), i8* nocapture, i8* nocapture readonly, i8* nocapture readonly) #0 {
  %6 = bitcast i8* %3 to double*
  %7 = load double, double* %6, align 1
  %8 = getelementptr inbounds i8, i8* %3, i64 8
  %9 = bitcast i8* %8 to i64*
  %10 = load i64, i64* %9, align 1
  %11 = bitcast i8* %4 to double*
  %12 = load double, double* %11, align 1
  %13 = fadd double %7, %12
  %14 = bitcast i8* %2 to double*
  store double %13, double* %14, align 1
  %15 = getelementptr inbounds i8, i8* %2, i64 8
  %16 = bitcast i8* %15 to i64*
  store i64 %10, i64* %16, align 1
  ret %struct.Memory* %0
}

define %struct.Memory* @routine_addsd__xmm1___xmm0(%struct.State*  dereferenceable(3376), i64, %struct.Memory* ) #19 {
block_400488:
  %3 = getelementptr inbounds %struct.State, %struct.State* %0, i32 0, i32 6
  %4 = getelementptr inbounds %struct.GPR, %struct.GPR* %3, i32 0, i32 33
  %5 = getelementptr inbounds %struct.Reg, %struct.Reg* %4, i32 0, i32 0
  %PC = bitcast %union.anon* %5 to i64*
  %6 = getelementptr inbounds %struct.State, %struct.State* %0, i32 0, i32 1
  %7 = getelementptr inbounds [32 x %union.VectorReg], [32 x %union.VectorReg]* %6, i64 0, i64 0
  %YMM0 = bitcast %union.VectorReg* %7 to %"class.std::bitset"*
  %8 = getelementptr inbounds %struct.State, %struct.State* %0, i32 0, i32 1
  %9 = getelementptr inbounds [32 x %union.VectorReg], [32 x %union.VectorReg]* %8, i64 0, i64 1
  %XMM1 = bitcast %union.VectorReg* %9 to %union.vec128_t*
  %10 = bitcast %"class.std::bitset"* %YMM0 to i8*
  %11 = bitcast %"class.std::bitset"* %YMM0 to i8*
  %12 = bitcast %union.vec128_t* %XMM1 to i8*
  %13 = load i64, i64* %PC
  %14 = add i64 %13, 4
  store i64 %14, i64* %PC
  %15 = call %struct.Memory* @_ZN12_GLOBAL__N_1L5ADDSDI3VnWI8vec128_tE2VnIS2_ES5_EEP6MemoryS7_R5StateT_T0_T1_(%struct.Memory* %2, %struct.State* %0, i8* %10, i8* %11, i8* %12)
  ret %struct.Memory* %15
}





define internal %struct.Memory* @_ZN12_GLOBAL__N_1L3ADDI3RnWImE2RnImE2InImEEEP6MemoryS8_R5StateT_T0_T1_(%struct.Memory* readnone returned, %struct.State* nocapture dereferenceable(3376), i64* nocapture, i64, i64) #0 {
  %6 = add i64 %4, %3
  store i64 %6, i64* %2, align 8
  %7 = icmp ult i64 %6, %3
  %8 = icmp ult i64 %6, %4
  %9 = or i1 %7, %8
  %10 = zext i1 %9 to i8
  %11 = getelementptr inbounds %struct.State, %struct.State* %1, i64 0, i32 2, i32 1
  store i8 %10, i8* %11, align 1
  %12 = trunc i64 %6 to i32
  %13 = and i32 %12, 255
  %14 = tail call i32 @llvm.ctpop.i32(i32 %13) #22
  %15 = trunc i32 %14 to i8
  %16 = and i8 %15, 1
  %17 = xor i8 %16, 1
  %18 = getelementptr inbounds %struct.State, %struct.State* %1, i64 0, i32 2, i32 3
  store i8 %17, i8* %18, align 1
  %19 = xor i64 %4, %3
  %20 = xor i64 %19, %6
  %21 = lshr i64 %20, 4
  %22 = trunc i64 %21 to i8
  %23 = and i8 %22, 1
  %24 = getelementptr inbounds %struct.State, %struct.State* %1, i64 0, i32 2, i32 5
  store i8 %23, i8* %24, align 1
  %25 = icmp eq i64 %6, 0
  %26 = zext i1 %25 to i8
  %27 = getelementptr inbounds %struct.State, %struct.State* %1, i64 0, i32 2, i32 7
  store i8 %26, i8* %27, align 1
  %28 = lshr i64 %6, 63
  %29 = trunc i64 %28 to i8
  %30 = getelementptr inbounds %struct.State, %struct.State* %1, i64 0, i32 2, i32 9
  store i8 %29, i8* %30, align 1
  %31 = lshr i64 %3, 63
  %32 = lshr i64 %4, 63
  %33 = xor i64 %28, %31
  %34 = xor i64 %28, %32
  %35 = add   i64 %33, %34
  %36 = icmp eq i64 %35, 2
  %37 = zext i1 %36 to i8
  %38 = getelementptr inbounds %struct.State, %struct.State* %1, i64 0, i32 2, i32 13
  store i8 %37, i8* %38, align 1
  ret %struct.Memory* %0
}

define %struct.Memory* @routine_addq__0x1___rax(%struct.State*  dereferenceable(3376), i64, %struct.Memory* ) #19 {
block_400488:
  %3 = getelementptr inbounds %struct.State, %struct.State* %0, i32 0, i32 6
  %4 = getelementptr inbounds %struct.GPR, %struct.GPR* %3, i32 0, i32 33
  %5 = getelementptr inbounds %struct.Reg, %struct.Reg* %4, i32 0, i32 0
  %PC = bitcast %union.anon* %5 to i64*
  %6 = getelementptr inbounds %struct.State, %struct.State* %0, i32 0, i32 6
  %7 = getelementptr inbounds %struct.GPR, %struct.GPR* %6, i32 0, i32 1
  %8 = getelementptr inbounds %struct.Reg, %struct.Reg* %7, i32 0, i32 0
  %RAX = bitcast %union.anon* %8 to i64*
  %9 = load i64, i64* %RAX
  %10 = load i64, i64* %PC
  %11 = add i64 %10, 4
  store i64 %11, i64* %PC
  %12 = call %struct.Memory* @_ZN12_GLOBAL__N_1L3ADDI3RnWImE2RnImE2InImEEEP6MemoryS8_R5StateT_T0_T1_(%struct.Memory* %2, %struct.State* %0, i64* %RAX, i64 %9, i64 1)
  ret %struct.Memory* %12
}


define %struct.Memory* @routine_movq__rax__MINUS0x48__rbp_(%struct.State*  dereferenceable(3376), i64, %struct.Memory* ) #19 {
block_400488:
  %3 = getelementptr inbounds %struct.State, %struct.State* %0, i32 0, i32 6
  %4 = getelementptr inbounds %struct.GPR, %struct.GPR* %3, i32 0, i32 33
  %5 = getelementptr inbounds %struct.Reg, %struct.Reg* %4, i32 0, i32 0
  %PC = bitcast %union.anon* %5 to i64*
  %6 = getelementptr inbounds %struct.State, %struct.State* %0, i32 0, i32 6
  %7 = getelementptr inbounds %struct.GPR, %struct.GPR* %6, i32 0, i32 1
  %8 = getelementptr inbounds %struct.Reg, %struct.Reg* %7, i32 0, i32 0
  %RAX = bitcast %union.anon* %8 to i64*
  %9 = getelementptr inbounds %struct.State, %struct.State* %0, i32 0, i32 6
  %10 = getelementptr inbounds %struct.GPR, %struct.GPR* %9, i32 0, i32 15
  %11 = getelementptr inbounds %struct.Reg, %struct.Reg* %10, i32 0, i32 0
  %RBP = bitcast %union.anon* %11 to i64*
  %12 = load i64, i64* %RBP
  %13 = sub i64 %12, 72
  %14 = load i64, i64* %RAX
  %15 = load i64, i64* %PC
  %16 = add i64 %15, 4
  store i64 %16, i64* %PC
  %17 = call %struct.Memory* @_ZN12_GLOBAL__N_1L3MOVI3MnWImE2RnImEEEP6MemoryS6_R5StateT_T0_(%struct.Memory* %2, %struct.State* %0, i64 %13, i64 %14)
  ret %struct.Memory* %17
}

define internal %struct.Memory* @_ZN12_GLOBAL__N_1L3JMPI2InImEEEP6MemoryS4_R5StateT_(%struct.Memory* readnone returned, %struct.State* nocapture dereferenceable(3376), i64) #2 {
  %4 = getelementptr inbounds %struct.State, %struct.State* %1, i64 0, i32 6, i32 33, i32 0, i32 0
  store i64 %2, i64* %4, align 8
  ret %struct.Memory* %0
}

define %struct.Memory* @routine_jmpq_.L_400649(%struct.State*  dereferenceable(3376), i64, %struct.Memory*, i64 %rel_off1, i64 %rel_off2) {
block_400488:
  %3 = getelementptr inbounds %struct.State, %struct.State* %0, i32 0, i32 6
  %4 = getelementptr inbounds %struct.GPR, %struct.GPR* %3, i32 0, i32 33
  %5 = getelementptr inbounds %struct.Reg, %struct.Reg* %4, i32 0, i32 0
  %PC = bitcast %union.anon* %5 to i64*
  %6 = load i64, i64* %PC
  %7 = add i64 %6, %rel_off1
  %8 = load i64, i64* %PC
  %9 = add i64 %8, %rel_off2
  store i64 %9, i64* %PC
  %10 = call %struct.Memory* @_ZN12_GLOBAL__N_1L3JMPI2InImEEEP6MemoryS4_R5StateT_(%struct.Memory* %2, %struct.State* %0, i64 %7)
  ret %struct.Memory* %10
}


define %struct.Memory* @routine_movq__0x400ab6___rdi(%struct.State*  dereferenceable(3376), i64, %struct.Memory* ) #19 {
block_400488:
  %3 = getelementptr inbounds %struct.State, %struct.State* %0, i32 0, i32 6
  %4 = getelementptr inbounds %struct.GPR, %struct.GPR* %3, i32 0, i32 33
  %5 = getelementptr inbounds %struct.Reg, %struct.Reg* %4, i32 0, i32 0
  %PC = bitcast %union.anon* %5 to i64*
  %6 = getelementptr inbounds %struct.State, %struct.State* %0, i32 0, i32 6
  %7 = getelementptr inbounds %struct.GPR, %struct.GPR* %6, i32 0, i32 11
  %8 = getelementptr inbounds %struct.Reg, %struct.Reg* %7, i32 0, i32 0
  %RDI = bitcast %union.anon* %8 to i64*
  %9 = load i64, i64* %PC
  %10 = add i64 %9, 10
  store i64 %10, i64* %PC
  %11 = call %struct.Memory* @_ZN12_GLOBAL__N_1L3MOVI3RnWImE2InImEEEP6MemoryS6_R5StateT_T0_(%struct.Memory* %2, %struct.State* %0, i64* %RDI, i64 4197046)
  ret %struct.Memory* %11
}




define %struct.Memory* @routine_movsd_0x282__rip____xmm1(%struct.State*  dereferenceable(3376), i64, %struct.Memory* ) #19 {
block_400488:
  %3 = getelementptr inbounds %struct.State, %struct.State* %0, i32 0, i32 6
  %4 = getelementptr inbounds %struct.GPR, %struct.GPR* %3, i32 0, i32 33
  %5 = getelementptr inbounds %struct.Reg, %struct.Reg* %4, i32 0, i32 0
  %PC = bitcast %union.anon* %5 to i64*
  %6 = getelementptr inbounds %struct.State, %struct.State* %0, i32 0, i32 1
  %7 = getelementptr inbounds [32 x %union.VectorReg], [32 x %union.VectorReg]* %6, i64 0, i64 1
  %YMM1 = bitcast %union.VectorReg* %7 to %"class.std::bitset"*
  %8 = bitcast %"class.std::bitset"* %YMM1 to i8*
  %9 = load i64, i64* %PC
  %10 = add i64 %9, 650
  %11 = load i64, i64* %PC
  %12 = add i64 %11, 8
  store i64 %12, i64* %PC
  %13 = call %struct.Memory* @_ZN12_GLOBAL__N_1L9MOVSD_MEMI3VnWI8vec128_tE3MVnI7vec64_tEEEP6MemoryS8_R5StateT_T0_(%struct.Memory* %2, %struct.State* %0, i8* %8, i64 %10)
  ret %struct.Memory* %13
}


define %struct.Memory* @routine_movsd_0x282__rip____xmm2(%struct.State*  dereferenceable(3376), i64, %struct.Memory* ) #19 {
block_400488:
  %3 = getelementptr inbounds %struct.State, %struct.State* %0, i32 0, i32 6
  %4 = getelementptr inbounds %struct.GPR, %struct.GPR* %3, i32 0, i32 33
  %5 = getelementptr inbounds %struct.Reg, %struct.Reg* %4, i32 0, i32 0
  %PC = bitcast %union.anon* %5 to i64*
  %6 = getelementptr inbounds %struct.State, %struct.State* %0, i32 0, i32 1
  %7 = getelementptr inbounds [32 x %union.VectorReg], [32 x %union.VectorReg]* %6, i64 0, i64 2
  %YMM2 = bitcast %union.VectorReg* %7 to %"class.std::bitset"*
  %8 = bitcast %"class.std::bitset"* %YMM2 to i8*
  %9 = load i64, i64* %PC
  %10 = add i64 %9, 650
  %11 = load i64, i64* %PC
  %12 = add i64 %11, 8
  store i64 %12, i64* %PC
  %13 = call %struct.Memory* @_ZN12_GLOBAL__N_1L9MOVSD_MEMI3VnWI8vec128_tE3MVnI7vec64_tEEEP6MemoryS8_R5StateT_T0_(%struct.Memory* %2, %struct.State* %0, i8* %8, i64 %10)
  ret %struct.Memory* %13
}


define %struct.Memory* @routine_movsd_0x601260___xmm3(%struct.State*  dereferenceable(3376), i64, %struct.Memory* ) #19 {
block_400488:
  %3 = getelementptr inbounds %struct.State, %struct.State* %0, i32 0, i32 6
  %4 = getelementptr inbounds %struct.GPR, %struct.GPR* %3, i32 0, i32 33
  %5 = getelementptr inbounds %struct.Reg, %struct.Reg* %4, i32 0, i32 0
  %PC = bitcast %union.anon* %5 to i64*
  %6 = getelementptr inbounds %struct.State, %struct.State* %0, i32 0, i32 1
  %7 = getelementptr inbounds [32 x %union.VectorReg], [32 x %union.VectorReg]* %6, i64 0, i64 3
  %YMM3 = bitcast %union.VectorReg* %7 to %"class.std::bitset"*
  %8 = bitcast %"class.std::bitset"* %YMM3 to i8*
  %9 = load i64, i64* %PC
  %10 = add i64 %9, 9
  store i64 %10, i64* %PC
  %11 = call %struct.Memory* @_ZN12_GLOBAL__N_1L9MOVSD_MEMI3VnWI8vec128_tE3MVnI7vec64_tEEEP6MemoryS8_R5StateT_T0_(%struct.Memory* %2, %struct.State* %0, i8* %8, i64 6296160)
  ret %struct.Memory* %11
}

define internal %struct.Memory* @_ZN12_GLOBAL__N_1L5DIVSDI3VnWI8vec128_tE2VnIS2_E3MVnIS2_EEEP6MemoryS9_R5StateT_T0_T1_(%struct.Memory* returned, %struct.State* nocapture readnone dereferenceable(3376), i8* nocapture, i8* nocapture readonly, i64) #0 {
  %6 = bitcast i8* %3 to double*
  %7 = load double, double* %6, align 1
  %8 = getelementptr inbounds i8, i8* %3, i64 8
  %9 = bitcast i8* %8 to i64*
  %10 = load i64, i64* %9, align 1
  %11 = inttoptr i64 %4 to double*
  %12 = load double, double* %11
  %13 = fdiv double %7, %12
  %14 = bitcast i8* %2 to double*
  store double %13, double* %14, align 1
  %15 = getelementptr inbounds i8, i8* %2, i64 8
  %16 = bitcast i8* %15 to i64*
  store i64 %10, i64* %16, align 1
  ret %struct.Memory* %0
}

define %struct.Memory* @routine_divsd_0x6012a0___xmm3(%struct.State*  dereferenceable(3376), i64, %struct.Memory* ) #19 {
block_400488:
  %3 = getelementptr inbounds %struct.State, %struct.State* %0, i32 0, i32 6
  %4 = getelementptr inbounds %struct.GPR, %struct.GPR* %3, i32 0, i32 33
  %5 = getelementptr inbounds %struct.Reg, %struct.Reg* %4, i32 0, i32 0
  %PC = bitcast %union.anon* %5 to i64*
  %6 = getelementptr inbounds %struct.State, %struct.State* %0, i32 0, i32 1
  %7 = getelementptr inbounds [32 x %union.VectorReg], [32 x %union.VectorReg]* %6, i64 0, i64 3
  %YMM3 = bitcast %union.VectorReg* %7 to %"class.std::bitset"*
  %8 = bitcast %"class.std::bitset"* %YMM3 to i8*
  %9 = bitcast %"class.std::bitset"* %YMM3 to i8*
  %10 = load i64, i64* %PC
  %11 = add i64 %10, 9
  store i64 %11, i64* %PC
  %12 = call %struct.Memory* @_ZN12_GLOBAL__N_1L5DIVSDI3VnWI8vec128_tE2VnIS2_E3MVnIS2_EEEP6MemoryS9_R5StateT_T0_T1_(%struct.Memory* %2, %struct.State* %0, i8* %8, i8* %9, i64 6296224)
  ret %struct.Memory* %12
}


define %struct.Memory* @routine_movsd__xmm3__MINUS0x18__rbp_(%struct.State*  dereferenceable(3376), i64, %struct.Memory* ) #19 {
block_400488:
  %3 = getelementptr inbounds %struct.State, %struct.State* %0, i32 0, i32 6
  %4 = getelementptr inbounds %struct.GPR, %struct.GPR* %3, i32 0, i32 33
  %5 = getelementptr inbounds %struct.Reg, %struct.Reg* %4, i32 0, i32 0
  %PC = bitcast %union.anon* %5 to i64*
  %6 = getelementptr inbounds %struct.State, %struct.State* %0, i32 0, i32 6
  %7 = getelementptr inbounds %struct.GPR, %struct.GPR* %6, i32 0, i32 15
  %8 = getelementptr inbounds %struct.Reg, %struct.Reg* %7, i32 0, i32 0
  %RBP = bitcast %union.anon* %8 to i64*
  %9 = getelementptr inbounds %struct.State, %struct.State* %0, i32 0, i32 1
  %10 = getelementptr inbounds [32 x %union.VectorReg], [32 x %union.VectorReg]* %9, i64 0, i64 3
  %XMM3 = bitcast %union.VectorReg* %10 to %union.vec128_t*
  %11 = load i64, i64* %RBP
  %12 = sub i64 %11, 24
  %13 = bitcast %union.vec128_t* %XMM3 to i8*
  %14 = load i64, i64* %PC
  %15 = add i64 %14, 5
  store i64 %15, i64* %PC
  %16 = call %struct.Memory* @_ZN12_GLOBAL__N_1L9MOVSD_MEMI4MVnWI7vec64_tE2VnI8vec128_tEEEP6MemoryS8_R5StateT_T0_(%struct.Memory* %2, %struct.State* %0, i64 %12, i8* %13)
  ret %struct.Memory* %16
}


define %struct.Memory* @routine_movsd_MINUS0x18__rbp____xmm3(%struct.State*  dereferenceable(3376), i64, %struct.Memory* ) #19 {
block_400488:
  %3 = getelementptr inbounds %struct.State, %struct.State* %0, i32 0, i32 6
  %4 = getelementptr inbounds %struct.GPR, %struct.GPR* %3, i32 0, i32 33
  %5 = getelementptr inbounds %struct.Reg, %struct.Reg* %4, i32 0, i32 0
  %PC = bitcast %union.anon* %5 to i64*
  %6 = getelementptr inbounds %struct.State, %struct.State* %0, i32 0, i32 6
  %7 = getelementptr inbounds %struct.GPR, %struct.GPR* %6, i32 0, i32 15
  %8 = getelementptr inbounds %struct.Reg, %struct.Reg* %7, i32 0, i32 0
  %RBP = bitcast %union.anon* %8 to i64*
  %9 = getelementptr inbounds %struct.State, %struct.State* %0, i32 0, i32 1
  %10 = getelementptr inbounds [32 x %union.VectorReg], [32 x %union.VectorReg]* %9, i64 0, i64 3
  %YMM3 = bitcast %union.VectorReg* %10 to %"class.std::bitset"*
  %11 = bitcast %"class.std::bitset"* %YMM3 to i8*
  %12 = load i64, i64* %RBP
  %13 = sub i64 %12, 24
  %14 = load i64, i64* %PC
  %15 = add i64 %14, 5
  store i64 %15, i64* %PC
  %16 = call %struct.Memory* @_ZN12_GLOBAL__N_1L9MOVSD_MEMI3VnWI8vec128_tE3MVnI7vec64_tEEEP6MemoryS8_R5StateT_T0_(%struct.Memory* %2, %struct.State* %0, i8* %11, i64 %13)
  ret %struct.Memory* %16
}


define %struct.Memory* @routine_mulsd_MINUS0x18__rbp____xmm3(%struct.State*  dereferenceable(3376), i64, %struct.Memory* ) #19 {
block_400488:
  %3 = getelementptr inbounds %struct.State, %struct.State* %0, i32 0, i32 6
  %4 = getelementptr inbounds %struct.GPR, %struct.GPR* %3, i32 0, i32 33
  %5 = getelementptr inbounds %struct.Reg, %struct.Reg* %4, i32 0, i32 0
  %PC = bitcast %union.anon* %5 to i64*
  %6 = getelementptr inbounds %struct.State, %struct.State* %0, i32 0, i32 6
  %7 = getelementptr inbounds %struct.GPR, %struct.GPR* %6, i32 0, i32 15
  %8 = getelementptr inbounds %struct.Reg, %struct.Reg* %7, i32 0, i32 0
  %RBP = bitcast %union.anon* %8 to i64*
  %9 = getelementptr inbounds %struct.State, %struct.State* %0, i32 0, i32 1
  %10 = getelementptr inbounds [32 x %union.VectorReg], [32 x %union.VectorReg]* %9, i64 0, i64 3
  %YMM3 = bitcast %union.VectorReg* %10 to %"class.std::bitset"*
  %11 = bitcast %"class.std::bitset"* %YMM3 to i8*
  %12 = bitcast %"class.std::bitset"* %YMM3 to i8*
  %13 = load i64, i64* %RBP
  %14 = sub i64 %13, 24
  %15 = load i64, i64* %PC
  %16 = add i64 %15, 5
  store i64 %16, i64* %PC
  %17 = call %struct.Memory* @_ZN12_GLOBAL__N_1L5MULSDI3VnWI8vec128_tE2VnIS2_E3MVnIS2_EEEP6MemoryS9_R5StateT_T0_T1_(%struct.Memory* %2, %struct.State* %0, i8* %11, i8* %12, i64 %14)
  ret %struct.Memory* %17
}


define %struct.Memory* @routine_movsd__xmm3__MINUS0x28__rbp_(%struct.State*  dereferenceable(3376), i64, %struct.Memory* ) #19 {
block_400488:
  %3 = getelementptr inbounds %struct.State, %struct.State* %0, i32 0, i32 6
  %4 = getelementptr inbounds %struct.GPR, %struct.GPR* %3, i32 0, i32 33
  %5 = getelementptr inbounds %struct.Reg, %struct.Reg* %4, i32 0, i32 0
  %PC = bitcast %union.anon* %5 to i64*
  %6 = getelementptr inbounds %struct.State, %struct.State* %0, i32 0, i32 6
  %7 = getelementptr inbounds %struct.GPR, %struct.GPR* %6, i32 0, i32 15
  %8 = getelementptr inbounds %struct.Reg, %struct.Reg* %7, i32 0, i32 0
  %RBP = bitcast %union.anon* %8 to i64*
  %9 = getelementptr inbounds %struct.State, %struct.State* %0, i32 0, i32 1
  %10 = getelementptr inbounds [32 x %union.VectorReg], [32 x %union.VectorReg]* %9, i64 0, i64 3
  %XMM3 = bitcast %union.VectorReg* %10 to %union.vec128_t*
  %11 = load i64, i64* %RBP
  %12 = sub i64 %11, 40
  %13 = bitcast %union.vec128_t* %XMM3 to i8*
  %14 = load i64, i64* %PC
  %15 = add i64 %14, 5
  store i64 %15, i64* %PC
  %16 = call %struct.Memory* @_ZN12_GLOBAL__N_1L9MOVSD_MEMI4MVnWI7vec64_tE2VnI8vec128_tEEEP6MemoryS8_R5StateT_T0_(%struct.Memory* %2, %struct.State* %0, i64 %12, i8* %13)
  ret %struct.Memory* %16
}




define %struct.Memory* @routine_movsd_0x601060___xmm4(%struct.State*  dereferenceable(3376), i64, %struct.Memory* ) #19 {
block_400488:
  %3 = getelementptr inbounds %struct.State, %struct.State* %0, i32 0, i32 6
  %4 = getelementptr inbounds %struct.GPR, %struct.GPR* %3, i32 0, i32 33
  %5 = getelementptr inbounds %struct.Reg, %struct.Reg* %4, i32 0, i32 0
  %PC = bitcast %union.anon* %5 to i64*
  %6 = getelementptr inbounds %struct.State, %struct.State* %0, i32 0, i32 1
  %7 = getelementptr inbounds [32 x %union.VectorReg], [32 x %union.VectorReg]* %6, i64 0, i64 4
  %YMM4 = bitcast %union.VectorReg* %7 to %"class.std::bitset"*
  %8 = bitcast %"class.std::bitset"* %YMM4 to i8*
  %9 = load i64, i64* %PC
  %10 = add i64 %9, 9
  store i64 %10, i64* %PC
  %11 = call %struct.Memory* @_ZN12_GLOBAL__N_1L9MOVSD_MEMI3VnWI8vec128_tE3MVnI7vec64_tEEEP6MemoryS8_R5StateT_T0_(%struct.Memory* %2, %struct.State* %0, i8* %8, i64 6295648)
  ret %struct.Memory* %11
}


define %struct.Memory* @routine_mulsd_MINUS0x28__rbp____xmm4(%struct.State*  dereferenceable(3376), i64, %struct.Memory* ) #19 {
block_400488:
  %3 = getelementptr inbounds %struct.State, %struct.State* %0, i32 0, i32 6
  %4 = getelementptr inbounds %struct.GPR, %struct.GPR* %3, i32 0, i32 33
  %5 = getelementptr inbounds %struct.Reg, %struct.Reg* %4, i32 0, i32 0
  %PC = bitcast %union.anon* %5 to i64*
  %6 = getelementptr inbounds %struct.State, %struct.State* %0, i32 0, i32 6
  %7 = getelementptr inbounds %struct.GPR, %struct.GPR* %6, i32 0, i32 15
  %8 = getelementptr inbounds %struct.Reg, %struct.Reg* %7, i32 0, i32 0
  %RBP = bitcast %union.anon* %8 to i64*
  %9 = getelementptr inbounds %struct.State, %struct.State* %0, i32 0, i32 1
  %10 = getelementptr inbounds [32 x %union.VectorReg], [32 x %union.VectorReg]* %9, i64 0, i64 4
  %YMM4 = bitcast %union.VectorReg* %10 to %"class.std::bitset"*
  %11 = bitcast %"class.std::bitset"* %YMM4 to i8*
  %12 = bitcast %"class.std::bitset"* %YMM4 to i8*
  %13 = load i64, i64* %RBP
  %14 = sub i64 %13, 40
  %15 = load i64, i64* %PC
  %16 = add i64 %15, 5
  store i64 %16, i64* %PC
  %17 = call %struct.Memory* @_ZN12_GLOBAL__N_1L5MULSDI3VnWI8vec128_tE2VnIS2_E3MVnIS2_EEEP6MemoryS9_R5StateT_T0_T1_(%struct.Memory* %2, %struct.State* %0, i8* %11, i8* %12, i64 %14)
  ret %struct.Memory* %17
}


define %struct.Memory* @routine_addsd_0x601058___xmm4(%struct.State*  dereferenceable(3376), i64, %struct.Memory* ) #19 {
block_400488:
  %3 = getelementptr inbounds %struct.State, %struct.State* %0, i32 0, i32 6
  %4 = getelementptr inbounds %struct.GPR, %struct.GPR* %3, i32 0, i32 33
  %5 = getelementptr inbounds %struct.Reg, %struct.Reg* %4, i32 0, i32 0
  %PC = bitcast %union.anon* %5 to i64*
  %6 = getelementptr inbounds %struct.State, %struct.State* %0, i32 0, i32 1
  %7 = getelementptr inbounds [32 x %union.VectorReg], [32 x %union.VectorReg]* %6, i64 0, i64 4
  %YMM4 = bitcast %union.VectorReg* %7 to %"class.std::bitset"*
  %8 = bitcast %"class.std::bitset"* %YMM4 to i8*
  %9 = bitcast %"class.std::bitset"* %YMM4 to i8*
  %10 = load i64, i64* %PC
  %11 = add i64 %10, 9
  store i64 %11, i64* %PC
  %12 = call %struct.Memory* @_ZN12_GLOBAL__N_1L5ADDSDI3VnWI8vec128_tE2VnIS2_E3MVnI7vec64_tEEEP6MemorySA_R5StateT_T0_T1_(%struct.Memory* %2, %struct.State* %0, i8* %8, i8* %9, i64 6295640)
  ret %struct.Memory* %12
}




define %struct.Memory* @routine_addsd_0x601050___xmm4(%struct.State*  dereferenceable(3376), i64, %struct.Memory* ) #19 {
block_400488:
  %3 = getelementptr inbounds %struct.State, %struct.State* %0, i32 0, i32 6
  %4 = getelementptr inbounds %struct.GPR, %struct.GPR* %3, i32 0, i32 33
  %5 = getelementptr inbounds %struct.Reg, %struct.Reg* %4, i32 0, i32 0
  %PC = bitcast %union.anon* %5 to i64*
  %6 = getelementptr inbounds %struct.State, %struct.State* %0, i32 0, i32 1
  %7 = getelementptr inbounds [32 x %union.VectorReg], [32 x %union.VectorReg]* %6, i64 0, i64 4
  %YMM4 = bitcast %union.VectorReg* %7 to %"class.std::bitset"*
  %8 = bitcast %"class.std::bitset"* %YMM4 to i8*
  %9 = bitcast %"class.std::bitset"* %YMM4 to i8*
  %10 = load i64, i64* %PC
  %11 = add i64 %10, 9
  store i64 %11, i64* %PC
  %12 = call %struct.Memory* @_ZN12_GLOBAL__N_1L5ADDSDI3VnWI8vec128_tE2VnIS2_E3MVnI7vec64_tEEEP6MemorySA_R5StateT_T0_T1_(%struct.Memory* %2, %struct.State* %0, i8* %8, i8* %9, i64 6295632)
  ret %struct.Memory* %12
}




define %struct.Memory* @routine_addsd_0x601048___xmm4(%struct.State*  dereferenceable(3376), i64, %struct.Memory* ) #19 {
block_400488:
  %3 = getelementptr inbounds %struct.State, %struct.State* %0, i32 0, i32 6
  %4 = getelementptr inbounds %struct.GPR, %struct.GPR* %3, i32 0, i32 33
  %5 = getelementptr inbounds %struct.Reg, %struct.Reg* %4, i32 0, i32 0
  %PC = bitcast %union.anon* %5 to i64*
  %6 = getelementptr inbounds %struct.State, %struct.State* %0, i32 0, i32 1
  %7 = getelementptr inbounds [32 x %union.VectorReg], [32 x %union.VectorReg]* %6, i64 0, i64 4
  %YMM4 = bitcast %union.VectorReg* %7 to %"class.std::bitset"*
  %8 = bitcast %"class.std::bitset"* %YMM4 to i8*
  %9 = bitcast %"class.std::bitset"* %YMM4 to i8*
  %10 = load i64, i64* %PC
  %11 = add i64 %10, 9
  store i64 %11, i64* %PC
  %12 = call %struct.Memory* @_ZN12_GLOBAL__N_1L5ADDSDI3VnWI8vec128_tE2VnIS2_E3MVnI7vec64_tEEEP6MemorySA_R5StateT_T0_T1_(%struct.Memory* %2, %struct.State* %0, i8* %8, i8* %9, i64 6295624)
  ret %struct.Memory* %12
}




define %struct.Memory* @routine_addsd_0x601040___xmm4(%struct.State*  dereferenceable(3376), i64, %struct.Memory* ) #19 {
block_400488:
  %3 = getelementptr inbounds %struct.State, %struct.State* %0, i32 0, i32 6
  %4 = getelementptr inbounds %struct.GPR, %struct.GPR* %3, i32 0, i32 33
  %5 = getelementptr inbounds %struct.Reg, %struct.Reg* %4, i32 0, i32 0
  %PC = bitcast %union.anon* %5 to i64*
  %6 = getelementptr inbounds %struct.State, %struct.State* %0, i32 0, i32 1
  %7 = getelementptr inbounds [32 x %union.VectorReg], [32 x %union.VectorReg]* %6, i64 0, i64 4
  %YMM4 = bitcast %union.VectorReg* %7 to %"class.std::bitset"*
  %8 = bitcast %"class.std::bitset"* %YMM4 to i8*
  %9 = bitcast %"class.std::bitset"* %YMM4 to i8*
  %10 = load i64, i64* %PC
  %11 = add i64 %10, 9
  store i64 %11, i64* %PC
  %12 = call %struct.Memory* @_ZN12_GLOBAL__N_1L5ADDSDI3VnWI8vec128_tE2VnIS2_E3MVnI7vec64_tEEEP6MemorySA_R5StateT_T0_T1_(%struct.Memory* %2, %struct.State* %0, i8* %8, i8* %9, i64 ptrtoint( %G_0x601040_type* @G_0x601040 to i64))
  ret %struct.Memory* %12
}




define %struct.Memory* @routine_addsd_0x601038___xmm4(%struct.State*  dereferenceable(3376), i64, %struct.Memory* ) #19 {
block_400488:
  %3 = getelementptr inbounds %struct.State, %struct.State* %0, i32 0, i32 6
  %4 = getelementptr inbounds %struct.GPR, %struct.GPR* %3, i32 0, i32 33
  %5 = getelementptr inbounds %struct.Reg, %struct.Reg* %4, i32 0, i32 0
  %PC = bitcast %union.anon* %5 to i64*
  %6 = getelementptr inbounds %struct.State, %struct.State* %0, i32 0, i32 1
  %7 = getelementptr inbounds [32 x %union.VectorReg], [32 x %union.VectorReg]* %6, i64 0, i64 4
  %YMM4 = bitcast %union.VectorReg* %7 to %"class.std::bitset"*
  %8 = bitcast %"class.std::bitset"* %YMM4 to i8*
  %9 = bitcast %"class.std::bitset"* %YMM4 to i8*
  %10 = load i64, i64* %PC
  %11 = add i64 %10, 9
  store i64 %11, i64* %PC
  %12 = call %struct.Memory* @_ZN12_GLOBAL__N_1L5ADDSDI3VnWI8vec128_tE2VnIS2_E3MVnI7vec64_tEEEP6MemorySA_R5StateT_T0_T1_(%struct.Memory* %2, %struct.State* %0, i8* %8, i8* %9, i64 ptrtoint( %G_0x601038_type* @G_0x601038 to i64))
  ret %struct.Memory* %12
}




define %struct.Memory* @routine_addsd_0x601288___xmm4(%struct.State*  dereferenceable(3376), i64, %struct.Memory* ) #19 {
block_400488:
  %3 = getelementptr inbounds %struct.State, %struct.State* %0, i32 0, i32 6
  %4 = getelementptr inbounds %struct.GPR, %struct.GPR* %3, i32 0, i32 33
  %5 = getelementptr inbounds %struct.Reg, %struct.Reg* %4, i32 0, i32 0
  %PC = bitcast %union.anon* %5 to i64*
  %6 = getelementptr inbounds %struct.State, %struct.State* %0, i32 0, i32 1
  %7 = getelementptr inbounds [32 x %union.VectorReg], [32 x %union.VectorReg]* %6, i64 0, i64 4
  %YMM4 = bitcast %union.VectorReg* %7 to %"class.std::bitset"*
  %8 = bitcast %"class.std::bitset"* %YMM4 to i8*
  %9 = bitcast %"class.std::bitset"* %YMM4 to i8*
  %10 = load i64, i64* %PC
  %11 = add i64 %10, 9
  store i64 %11, i64* %PC
  %12 = call %struct.Memory* @_ZN12_GLOBAL__N_1L5ADDSDI3VnWI8vec128_tE2VnIS2_E3MVnI7vec64_tEEEP6MemorySA_R5StateT_T0_T1_(%struct.Memory* %2, %struct.State* %0, i8* %8, i8* %9, i64 6296200)
  ret %struct.Memory* %12
}




define %struct.Memory* @routine_movsd__xmm3__0x601298(%struct.State*  dereferenceable(3376), i64, %struct.Memory* ) #19 {
block_400488:
  %3 = getelementptr inbounds %struct.State, %struct.State* %0, i32 0, i32 6
  %4 = getelementptr inbounds %struct.GPR, %struct.GPR* %3, i32 0, i32 33
  %5 = getelementptr inbounds %struct.Reg, %struct.Reg* %4, i32 0, i32 0
  %PC = bitcast %union.anon* %5 to i64*
  %6 = getelementptr inbounds %struct.State, %struct.State* %0, i32 0, i32 1
  %7 = getelementptr inbounds [32 x %union.VectorReg], [32 x %union.VectorReg]* %6, i64 0, i64 3
  %XMM3 = bitcast %union.VectorReg* %7 to %union.vec128_t*
  %8 = bitcast %union.vec128_t* %XMM3 to i8*
  %9 = load i64, i64* %PC
  %10 = add i64 %9, 9
  store i64 %10, i64* %PC
  %11 = call %struct.Memory* @_ZN12_GLOBAL__N_1L9MOVSD_MEMI4MVnWI7vec64_tE2VnI8vec128_tEEEP6MemoryS8_R5StateT_T0_(%struct.Memory* %2, %struct.State* %0, i64 6296216, i8* %8)
  ret %struct.Memory* %11
}










define %struct.Memory* @routine_movsd_MINUS0x28__rbp____xmm7(%struct.State*  dereferenceable(3376), i64, %struct.Memory* ) #19 {
block_400488:
  %3 = getelementptr inbounds %struct.State, %struct.State* %0, i32 0, i32 6
  %4 = getelementptr inbounds %struct.GPR, %struct.GPR* %3, i32 0, i32 33
  %5 = getelementptr inbounds %struct.Reg, %struct.Reg* %4, i32 0, i32 0
  %PC = bitcast %union.anon* %5 to i64*
  %6 = getelementptr inbounds %struct.State, %struct.State* %0, i32 0, i32 6
  %7 = getelementptr inbounds %struct.GPR, %struct.GPR* %6, i32 0, i32 15
  %8 = getelementptr inbounds %struct.Reg, %struct.Reg* %7, i32 0, i32 0
  %RBP = bitcast %union.anon* %8 to i64*
  %9 = getelementptr inbounds %struct.State, %struct.State* %0, i32 0, i32 1
  %10 = getelementptr inbounds [32 x %union.VectorReg], [32 x %union.VectorReg]* %9, i64 0, i64 7
  %YMM7 = bitcast %union.VectorReg* %10 to %"class.std::bitset"*
  %11 = bitcast %"class.std::bitset"* %YMM7 to i8*
  %12 = load i64, i64* %RBP
  %13 = sub i64 %12, 40
  %14 = load i64, i64* %PC
  %15 = add i64 %14, 5
  store i64 %15, i64* %PC
  %16 = call %struct.Memory* @_ZN12_GLOBAL__N_1L9MOVSD_MEMI3VnWI8vec128_tE3MVnI7vec64_tEEEP6MemoryS8_R5StateT_T0_(%struct.Memory* %2, %struct.State* %0, i8* %11, i64 %13)
  ret %struct.Memory* %16
}


define %struct.Memory* @routine_movsd_0x601098___xmm8(%struct.State*  dereferenceable(3376), i64, %struct.Memory* ) #19 {
block_400488:
  %3 = getelementptr inbounds %struct.State, %struct.State* %0, i32 0, i32 6
  %4 = getelementptr inbounds %struct.GPR, %struct.GPR* %3, i32 0, i32 33
  %5 = getelementptr inbounds %struct.Reg, %struct.Reg* %4, i32 0, i32 0
  %PC = bitcast %union.anon* %5 to i64*
  %6 = getelementptr inbounds %struct.State, %struct.State* %0, i32 0, i32 1
  %7 = getelementptr inbounds [32 x %union.VectorReg], [32 x %union.VectorReg]* %6, i64 0, i64 8
  %YMM8 = bitcast %union.VectorReg* %7 to %"class.std::bitset"*
  %8 = bitcast %"class.std::bitset"* %YMM8 to i8*
  %9 = load i64, i64* %PC
  %10 = add i64 %9, 10
  store i64 %10, i64* %PC
  %11 = call %struct.Memory* @_ZN12_GLOBAL__N_1L9MOVSD_MEMI3VnWI8vec128_tE3MVnI7vec64_tEEEP6MemoryS8_R5StateT_T0_(%struct.Memory* %2, %struct.State* %0, i8* %8, i64 6295704)
  ret %struct.Memory* %11
}


define %struct.Memory* @routine_mulsd_MINUS0x28__rbp____xmm8(%struct.State*  dereferenceable(3376), i64, %struct.Memory* ) #19 {
block_400488:
  %3 = getelementptr inbounds %struct.State, %struct.State* %0, i32 0, i32 6
  %4 = getelementptr inbounds %struct.GPR, %struct.GPR* %3, i32 0, i32 33
  %5 = getelementptr inbounds %struct.Reg, %struct.Reg* %4, i32 0, i32 0
  %PC = bitcast %union.anon* %5 to i64*
  %6 = getelementptr inbounds %struct.State, %struct.State* %0, i32 0, i32 6
  %7 = getelementptr inbounds %struct.GPR, %struct.GPR* %6, i32 0, i32 15
  %8 = getelementptr inbounds %struct.Reg, %struct.Reg* %7, i32 0, i32 0
  %RBP = bitcast %union.anon* %8 to i64*
  %9 = getelementptr inbounds %struct.State, %struct.State* %0, i32 0, i32 1
  %10 = getelementptr inbounds [32 x %union.VectorReg], [32 x %union.VectorReg]* %9, i64 0, i64 8
  %YMM8 = bitcast %union.VectorReg* %10 to %"class.std::bitset"*
  %11 = bitcast %"class.std::bitset"* %YMM8 to i8*
  %12 = bitcast %"class.std::bitset"* %YMM8 to i8*
  %13 = load i64, i64* %RBP
  %14 = sub i64 %13, 40
  %15 = load i64, i64* %PC
  %16 = add i64 %15, 6
  store i64 %16, i64* %PC
  %17 = call %struct.Memory* @_ZN12_GLOBAL__N_1L5MULSDI3VnWI8vec128_tE2VnIS2_E3MVnIS2_EEEP6MemoryS9_R5StateT_T0_T1_(%struct.Memory* %2, %struct.State* %0, i8* %11, i8* %12, i64 %14)
  ret %struct.Memory* %17
}


define %struct.Memory* @routine_addsd_0x601090___xmm8(%struct.State*  dereferenceable(3376), i64, %struct.Memory* ) #19 {
block_400488:
  %3 = getelementptr inbounds %struct.State, %struct.State* %0, i32 0, i32 6
  %4 = getelementptr inbounds %struct.GPR, %struct.GPR* %3, i32 0, i32 33
  %5 = getelementptr inbounds %struct.Reg, %struct.Reg* %4, i32 0, i32 0
  %PC = bitcast %union.anon* %5 to i64*
  %6 = getelementptr inbounds %struct.State, %struct.State* %0, i32 0, i32 1
  %7 = getelementptr inbounds [32 x %union.VectorReg], [32 x %union.VectorReg]* %6, i64 0, i64 8
  %YMM8 = bitcast %union.VectorReg* %7 to %"class.std::bitset"*
  %8 = bitcast %"class.std::bitset"* %YMM8 to i8*
  %9 = bitcast %"class.std::bitset"* %YMM8 to i8*
  %10 = load i64, i64* %PC
  %11 = add i64 %10, 10
  store i64 %11, i64* %PC
  %12 = call %struct.Memory* @_ZN12_GLOBAL__N_1L5ADDSDI3VnWI8vec128_tE2VnIS2_E3MVnI7vec64_tEEEP6MemorySA_R5StateT_T0_T1_(%struct.Memory* %2, %struct.State* %0, i8* %8, i8* %9, i64 6295696)
  ret %struct.Memory* %12
}


define %struct.Memory* @routine_mulsd__xmm8___xmm7(%struct.State*  dereferenceable(3376), i64, %struct.Memory* ) #19 {
block_400488:
  %3 = getelementptr inbounds %struct.State, %struct.State* %0, i32 0, i32 6
  %4 = getelementptr inbounds %struct.GPR, %struct.GPR* %3, i32 0, i32 33
  %5 = getelementptr inbounds %struct.Reg, %struct.Reg* %4, i32 0, i32 0
  %PC = bitcast %union.anon* %5 to i64*
  %6 = getelementptr inbounds %struct.State, %struct.State* %0, i32 0, i32 1
  %7 = getelementptr inbounds [32 x %union.VectorReg], [32 x %union.VectorReg]* %6, i64 0, i64 7
  %YMM7 = bitcast %union.VectorReg* %7 to %"class.std::bitset"*
  %8 = getelementptr inbounds %struct.State, %struct.State* %0, i32 0, i32 1
  %9 = getelementptr inbounds [32 x %union.VectorReg], [32 x %union.VectorReg]* %8, i64 0, i64 8
  %XMM8 = bitcast %union.VectorReg* %9 to %union.vec128_t*
  %10 = bitcast %"class.std::bitset"* %YMM7 to i8*
  %11 = bitcast %"class.std::bitset"* %YMM7 to i8*
  %12 = bitcast %union.vec128_t* %XMM8 to i8*
  %13 = load i64, i64* %PC
  %14 = add i64 %13, 5
  store i64 %14, i64* %PC
  %15 = call %struct.Memory* @_ZN12_GLOBAL__N_1L5MULSDI3VnWI8vec128_tE2VnIS2_ES5_EEP6MemoryS7_R5StateT_T0_T1_(%struct.Memory* %2, %struct.State* %0, i8* %10, i8* %11, i8* %12)
  ret %struct.Memory* %15
}


define %struct.Memory* @routine_addsd_0x601088___xmm7(%struct.State*  dereferenceable(3376), i64, %struct.Memory* ) #19 {
block_400488:
  %3 = getelementptr inbounds %struct.State, %struct.State* %0, i32 0, i32 6
  %4 = getelementptr inbounds %struct.GPR, %struct.GPR* %3, i32 0, i32 33
  %5 = getelementptr inbounds %struct.Reg, %struct.Reg* %4, i32 0, i32 0
  %PC = bitcast %union.anon* %5 to i64*
  %6 = getelementptr inbounds %struct.State, %struct.State* %0, i32 0, i32 1
  %7 = getelementptr inbounds [32 x %union.VectorReg], [32 x %union.VectorReg]* %6, i64 0, i64 7
  %YMM7 = bitcast %union.VectorReg* %7 to %"class.std::bitset"*
  %8 = bitcast %"class.std::bitset"* %YMM7 to i8*
  %9 = bitcast %"class.std::bitset"* %YMM7 to i8*
  %10 = load i64, i64* %PC
  %11 = add i64 %10, 9
  store i64 %11, i64* %PC
  %12 = call %struct.Memory* @_ZN12_GLOBAL__N_1L5ADDSDI3VnWI8vec128_tE2VnIS2_E3MVnI7vec64_tEEEP6MemorySA_R5StateT_T0_T1_(%struct.Memory* %2, %struct.State* %0, i8* %8, i8* %9, i64 6295688)
  ret %struct.Memory* %12
}




define %struct.Memory* @routine_addsd_0x601080___xmm6(%struct.State*  dereferenceable(3376), i64, %struct.Memory* ) #19 {
block_400488:
  %3 = getelementptr inbounds %struct.State, %struct.State* %0, i32 0, i32 6
  %4 = getelementptr inbounds %struct.GPR, %struct.GPR* %3, i32 0, i32 33
  %5 = getelementptr inbounds %struct.Reg, %struct.Reg* %4, i32 0, i32 0
  %PC = bitcast %union.anon* %5 to i64*
  %6 = getelementptr inbounds %struct.State, %struct.State* %0, i32 0, i32 1
  %7 = getelementptr inbounds [32 x %union.VectorReg], [32 x %union.VectorReg]* %6, i64 0, i64 6
  %YMM6 = bitcast %union.VectorReg* %7 to %"class.std::bitset"*
  %8 = bitcast %"class.std::bitset"* %YMM6 to i8*
  %9 = bitcast %"class.std::bitset"* %YMM6 to i8*
  %10 = load i64, i64* %PC
  %11 = add i64 %10, 9
  store i64 %11, i64* %PC
  %12 = call %struct.Memory* @_ZN12_GLOBAL__N_1L5ADDSDI3VnWI8vec128_tE2VnIS2_E3MVnI7vec64_tEEEP6MemorySA_R5StateT_T0_T1_(%struct.Memory* %2, %struct.State* %0, i8* %8, i8* %9, i64 6295680)
  ret %struct.Memory* %12
}




define %struct.Memory* @routine_addsd_0x601078___xmm5(%struct.State*  dereferenceable(3376), i64, %struct.Memory* ) #19 {
block_400488:
  %3 = getelementptr inbounds %struct.State, %struct.State* %0, i32 0, i32 6
  %4 = getelementptr inbounds %struct.GPR, %struct.GPR* %3, i32 0, i32 33
  %5 = getelementptr inbounds %struct.Reg, %struct.Reg* %4, i32 0, i32 0
  %PC = bitcast %union.anon* %5 to i64*
  %6 = getelementptr inbounds %struct.State, %struct.State* %0, i32 0, i32 1
  %7 = getelementptr inbounds [32 x %union.VectorReg], [32 x %union.VectorReg]* %6, i64 0, i64 5
  %YMM5 = bitcast %union.VectorReg* %7 to %"class.std::bitset"*
  %8 = bitcast %"class.std::bitset"* %YMM5 to i8*
  %9 = bitcast %"class.std::bitset"* %YMM5 to i8*
  %10 = load i64, i64* %PC
  %11 = add i64 %10, 9
  store i64 %11, i64* %PC
  %12 = call %struct.Memory* @_ZN12_GLOBAL__N_1L5ADDSDI3VnWI8vec128_tE2VnIS2_E3MVnI7vec64_tEEEP6MemorySA_R5StateT_T0_T1_(%struct.Memory* %2, %struct.State* %0, i8* %8, i8* %9, i64 6295672)
  ret %struct.Memory* %12
}




define %struct.Memory* @routine_addsd_0x601070___xmm4(%struct.State*  dereferenceable(3376), i64, %struct.Memory* ) #19 {
block_400488:
  %3 = getelementptr inbounds %struct.State, %struct.State* %0, i32 0, i32 6
  %4 = getelementptr inbounds %struct.GPR, %struct.GPR* %3, i32 0, i32 33
  %5 = getelementptr inbounds %struct.Reg, %struct.Reg* %4, i32 0, i32 0
  %PC = bitcast %union.anon* %5 to i64*
  %6 = getelementptr inbounds %struct.State, %struct.State* %0, i32 0, i32 1
  %7 = getelementptr inbounds [32 x %union.VectorReg], [32 x %union.VectorReg]* %6, i64 0, i64 4
  %YMM4 = bitcast %union.VectorReg* %7 to %"class.std::bitset"*
  %8 = bitcast %"class.std::bitset"* %YMM4 to i8*
  %9 = bitcast %"class.std::bitset"* %YMM4 to i8*
  %10 = load i64, i64* %PC
  %11 = add i64 %10, 9
  store i64 %11, i64* %PC
  %12 = call %struct.Memory* @_ZN12_GLOBAL__N_1L5ADDSDI3VnWI8vec128_tE2VnIS2_E3MVnI7vec64_tEEEP6MemorySA_R5StateT_T0_T1_(%struct.Memory* %2, %struct.State* %0, i8* %8, i8* %9, i64 6295664)
  ret %struct.Memory* %12
}




define %struct.Memory* @routine_addsd_0x601288___xmm3(%struct.State*  dereferenceable(3376), i64, %struct.Memory* ) #19 {
block_400488:
  %3 = getelementptr inbounds %struct.State, %struct.State* %0, i32 0, i32 6
  %4 = getelementptr inbounds %struct.GPR, %struct.GPR* %3, i32 0, i32 33
  %5 = getelementptr inbounds %struct.Reg, %struct.Reg* %4, i32 0, i32 0
  %PC = bitcast %union.anon* %5 to i64*
  %6 = getelementptr inbounds %struct.State, %struct.State* %0, i32 0, i32 1
  %7 = getelementptr inbounds [32 x %union.VectorReg], [32 x %union.VectorReg]* %6, i64 0, i64 3
  %YMM3 = bitcast %union.VectorReg* %7 to %"class.std::bitset"*
  %8 = bitcast %"class.std::bitset"* %YMM3 to i8*
  %9 = bitcast %"class.std::bitset"* %YMM3 to i8*
  %10 = load i64, i64* %PC
  %11 = add i64 %10, 9
  store i64 %11, i64* %PC
  %12 = call %struct.Memory* @_ZN12_GLOBAL__N_1L5ADDSDI3VnWI8vec128_tE2VnIS2_E3MVnI7vec64_tEEEP6MemorySA_R5StateT_T0_T1_(%struct.Memory* %2, %struct.State* %0, i8* %8, i8* %9, i64 6296200)
  ret %struct.Memory* %12
}


define %struct.Memory* @routine_movsd__xmm3__0x601258(%struct.State*  dereferenceable(3376), i64, %struct.Memory* ) #19 {
block_400488:
  %3 = getelementptr inbounds %struct.State, %struct.State* %0, i32 0, i32 6
  %4 = getelementptr inbounds %struct.GPR, %struct.GPR* %3, i32 0, i32 33
  %5 = getelementptr inbounds %struct.Reg, %struct.Reg* %4, i32 0, i32 0
  %PC = bitcast %union.anon* %5 to i64*
  %6 = getelementptr inbounds %struct.State, %struct.State* %0, i32 0, i32 1
  %7 = getelementptr inbounds [32 x %union.VectorReg], [32 x %union.VectorReg]* %6, i64 0, i64 3
  %XMM3 = bitcast %union.VectorReg* %7 to %union.vec128_t*
  %8 = bitcast %union.vec128_t* %XMM3 to i8*
  %9 = load i64, i64* %PC
  %10 = add i64 %9, 9
  store i64 %10, i64* %PC
  %11 = call %struct.Memory* @_ZN12_GLOBAL__N_1L9MOVSD_MEMI4MVnWI7vec64_tE2VnI8vec128_tEEEP6MemoryS8_R5StateT_T0_(%struct.Memory* %2, %struct.State* %0, i64 6296152, i8* %8)
  ret %struct.Memory* %11
}


define %struct.Memory* @routine_movsd_0x601298___xmm3(%struct.State*  dereferenceable(3376), i64, %struct.Memory* ) #19 {
block_400488:
  %3 = getelementptr inbounds %struct.State, %struct.State* %0, i32 0, i32 6
  %4 = getelementptr inbounds %struct.GPR, %struct.GPR* %3, i32 0, i32 33
  %5 = getelementptr inbounds %struct.Reg, %struct.Reg* %4, i32 0, i32 0
  %PC = bitcast %union.anon* %5 to i64*
  %6 = getelementptr inbounds %struct.State, %struct.State* %0, i32 0, i32 1
  %7 = getelementptr inbounds [32 x %union.VectorReg], [32 x %union.VectorReg]* %6, i64 0, i64 3
  %YMM3 = bitcast %union.VectorReg* %7 to %"class.std::bitset"*
  %8 = bitcast %"class.std::bitset"* %YMM3 to i8*
  %9 = load i64, i64* %PC
  %10 = add i64 %9, 9
  store i64 %10, i64* %PC
  %11 = call %struct.Memory* @_ZN12_GLOBAL__N_1L9MOVSD_MEMI3VnWI8vec128_tE3MVnI7vec64_tEEEP6MemoryS8_R5StateT_T0_(%struct.Memory* %2, %struct.State* %0, i8* %8, i64 6296216)
  ret %struct.Memory* %11
}


define %struct.Memory* @routine_divsd_0x601258___xmm3(%struct.State*  dereferenceable(3376), i64, %struct.Memory* ) #19 {
block_400488:
  %3 = getelementptr inbounds %struct.State, %struct.State* %0, i32 0, i32 6
  %4 = getelementptr inbounds %struct.GPR, %struct.GPR* %3, i32 0, i32 33
  %5 = getelementptr inbounds %struct.Reg, %struct.Reg* %4, i32 0, i32 0
  %PC = bitcast %union.anon* %5 to i64*
  %6 = getelementptr inbounds %struct.State, %struct.State* %0, i32 0, i32 1
  %7 = getelementptr inbounds [32 x %union.VectorReg], [32 x %union.VectorReg]* %6, i64 0, i64 3
  %YMM3 = bitcast %union.VectorReg* %7 to %"class.std::bitset"*
  %8 = bitcast %"class.std::bitset"* %YMM3 to i8*
  %9 = bitcast %"class.std::bitset"* %YMM3 to i8*
  %10 = load i64, i64* %PC
  %11 = add i64 %10, 9
  store i64 %11, i64* %PC
  %12 = call %struct.Memory* @_ZN12_GLOBAL__N_1L5DIVSDI3VnWI8vec128_tE2VnIS2_E3MVnIS2_EEEP6MemoryS9_R5StateT_T0_T1_(%struct.Memory* %2, %struct.State* %0, i8* %8, i8* %9, i64 6296152)
  ret %struct.Memory* %12
}




define %struct.Memory* @routine_movsd_MINUS0x30__rbp____xmm3(%struct.State*  dereferenceable(3376), i64, %struct.Memory* ) #19 {
block_400488:
  %3 = getelementptr inbounds %struct.State, %struct.State* %0, i32 0, i32 6
  %4 = getelementptr inbounds %struct.GPR, %struct.GPR* %3, i32 0, i32 33
  %5 = getelementptr inbounds %struct.Reg, %struct.Reg* %4, i32 0, i32 0
  %PC = bitcast %union.anon* %5 to i64*
  %6 = getelementptr inbounds %struct.State, %struct.State* %0, i32 0, i32 6
  %7 = getelementptr inbounds %struct.GPR, %struct.GPR* %6, i32 0, i32 15
  %8 = getelementptr inbounds %struct.Reg, %struct.Reg* %7, i32 0, i32 0
  %RBP = bitcast %union.anon* %8 to i64*
  %9 = getelementptr inbounds %struct.State, %struct.State* %0, i32 0, i32 1
  %10 = getelementptr inbounds [32 x %union.VectorReg], [32 x %union.VectorReg]* %9, i64 0, i64 3
  %YMM3 = bitcast %union.VectorReg* %10 to %"class.std::bitset"*
  %11 = bitcast %"class.std::bitset"* %YMM3 to i8*
  %12 = load i64, i64* %RBP
  %13 = sub i64 %12, 48
  %14 = load i64, i64* %PC
  %15 = add i64 %14, 5
  store i64 %15, i64* %PC
  %16 = call %struct.Memory* @_ZN12_GLOBAL__N_1L9MOVSD_MEMI3VnWI8vec128_tE3MVnI7vec64_tEEEP6MemoryS8_R5StateT_T0_(%struct.Memory* %2, %struct.State* %0, i8* %11, i64 %13)
  ret %struct.Memory* %16
}


define %struct.Memory* @routine_movsd_0x601298___xmm4(%struct.State*  dereferenceable(3376), i64, %struct.Memory* ) #19 {
block_400488:
  %3 = getelementptr inbounds %struct.State, %struct.State* %0, i32 0, i32 6
  %4 = getelementptr inbounds %struct.GPR, %struct.GPR* %3, i32 0, i32 33
  %5 = getelementptr inbounds %struct.Reg, %struct.Reg* %4, i32 0, i32 0
  %PC = bitcast %union.anon* %5 to i64*
  %6 = getelementptr inbounds %struct.State, %struct.State* %0, i32 0, i32 1
  %7 = getelementptr inbounds [32 x %union.VectorReg], [32 x %union.VectorReg]* %6, i64 0, i64 4
  %YMM4 = bitcast %union.VectorReg* %7 to %"class.std::bitset"*
  %8 = bitcast %"class.std::bitset"* %YMM4 to i8*
  %9 = load i64, i64* %PC
  %10 = add i64 %9, 9
  store i64 %10, i64* %PC
  %11 = call %struct.Memory* @_ZN12_GLOBAL__N_1L9MOVSD_MEMI3VnWI8vec128_tE3MVnI7vec64_tEEEP6MemoryS8_R5StateT_T0_(%struct.Memory* %2, %struct.State* %0, i8* %8, i64 6296216)
  ret %struct.Memory* %11
}


define %struct.Memory* @routine_movsd_0x601120___xmm5(%struct.State*  dereferenceable(3376), i64, %struct.Memory* ) #19 {
block_400488:
  %3 = getelementptr inbounds %struct.State, %struct.State* %0, i32 0, i32 6
  %4 = getelementptr inbounds %struct.GPR, %struct.GPR* %3, i32 0, i32 33
  %5 = getelementptr inbounds %struct.Reg, %struct.Reg* %4, i32 0, i32 0
  %PC = bitcast %union.anon* %5 to i64*
  %6 = getelementptr inbounds %struct.State, %struct.State* %0, i32 0, i32 1
  %7 = getelementptr inbounds [32 x %union.VectorReg], [32 x %union.VectorReg]* %6, i64 0, i64 5
  %YMM5 = bitcast %union.VectorReg* %7 to %"class.std::bitset"*
  %8 = bitcast %"class.std::bitset"* %YMM5 to i8*
  %9 = load i64, i64* %PC
  %10 = add i64 %9, 9
  store i64 %10, i64* %PC
  %11 = call %struct.Memory* @_ZN12_GLOBAL__N_1L9MOVSD_MEMI3VnWI8vec128_tE3MVnI7vec64_tEEEP6MemoryS8_R5StateT_T0_(%struct.Memory* %2, %struct.State* %0, i8* %8, i64 6295840)
  ret %struct.Memory* %11
}


define %struct.Memory* @routine_mulsd_MINUS0x10__rbp____xmm5(%struct.State*  dereferenceable(3376), i64, %struct.Memory* ) #19 {
block_400488:
  %3 = getelementptr inbounds %struct.State, %struct.State* %0, i32 0, i32 6
  %4 = getelementptr inbounds %struct.GPR, %struct.GPR* %3, i32 0, i32 33
  %5 = getelementptr inbounds %struct.Reg, %struct.Reg* %4, i32 0, i32 0
  %PC = bitcast %union.anon* %5 to i64*
  %6 = getelementptr inbounds %struct.State, %struct.State* %0, i32 0, i32 6
  %7 = getelementptr inbounds %struct.GPR, %struct.GPR* %6, i32 0, i32 15
  %8 = getelementptr inbounds %struct.Reg, %struct.Reg* %7, i32 0, i32 0
  %RBP = bitcast %union.anon* %8 to i64*
  %9 = getelementptr inbounds %struct.State, %struct.State* %0, i32 0, i32 1
  %10 = getelementptr inbounds [32 x %union.VectorReg], [32 x %union.VectorReg]* %9, i64 0, i64 5
  %YMM5 = bitcast %union.VectorReg* %10 to %"class.std::bitset"*
  %11 = bitcast %"class.std::bitset"* %YMM5 to i8*
  %12 = bitcast %"class.std::bitset"* %YMM5 to i8*
  %13 = load i64, i64* %RBP
  %14 = sub i64 %13, 16
  %15 = load i64, i64* %PC
  %16 = add i64 %15, 5
  store i64 %16, i64* %PC
  %17 = call %struct.Memory* @_ZN12_GLOBAL__N_1L5MULSDI3VnWI8vec128_tE2VnIS2_E3MVnIS2_EEEP6MemoryS9_R5StateT_T0_T1_(%struct.Memory* %2, %struct.State* %0, i8* %11, i8* %12, i64 %14)
  ret %struct.Memory* %17
}


define %struct.Memory* @routine_addsd__xmm5___xmm4(%struct.State*  dereferenceable(3376), i64, %struct.Memory* ) #19 {
block_400488:
  %3 = getelementptr inbounds %struct.State, %struct.State* %0, i32 0, i32 6
  %4 = getelementptr inbounds %struct.GPR, %struct.GPR* %3, i32 0, i32 33
  %5 = getelementptr inbounds %struct.Reg, %struct.Reg* %4, i32 0, i32 0
  %PC = bitcast %union.anon* %5 to i64*
  %6 = getelementptr inbounds %struct.State, %struct.State* %0, i32 0, i32 1
  %7 = getelementptr inbounds [32 x %union.VectorReg], [32 x %union.VectorReg]* %6, i64 0, i64 4
  %YMM4 = bitcast %union.VectorReg* %7 to %"class.std::bitset"*
  %8 = getelementptr inbounds %struct.State, %struct.State* %0, i32 0, i32 1
  %9 = getelementptr inbounds [32 x %union.VectorReg], [32 x %union.VectorReg]* %8, i64 0, i64 5
  %XMM5 = bitcast %union.VectorReg* %9 to %union.vec128_t*
  %10 = bitcast %"class.std::bitset"* %YMM4 to i8*
  %11 = bitcast %"class.std::bitset"* %YMM4 to i8*
  %12 = bitcast %union.vec128_t* %XMM5 to i8*
  %13 = load i64, i64* %PC
  %14 = add i64 %13, 4
  store i64 %14, i64* %PC
  %15 = call %struct.Memory* @_ZN12_GLOBAL__N_1L5ADDSDI3VnWI8vec128_tE2VnIS2_ES5_EEP6MemoryS7_R5StateT_T0_T1_(%struct.Memory* %2, %struct.State* %0, i8* %10, i8* %11, i8* %12)
  ret %struct.Memory* %15
}




define %struct.Memory* @routine_divsd_0x601120___xmm3(%struct.State*  dereferenceable(3376), i64, %struct.Memory* ) #19 {
block_400488:
  %3 = getelementptr inbounds %struct.State, %struct.State* %0, i32 0, i32 6
  %4 = getelementptr inbounds %struct.GPR, %struct.GPR* %3, i32 0, i32 33
  %5 = getelementptr inbounds %struct.Reg, %struct.Reg* %4, i32 0, i32 0
  %PC = bitcast %union.anon* %5 to i64*
  %6 = getelementptr inbounds %struct.State, %struct.State* %0, i32 0, i32 1
  %7 = getelementptr inbounds [32 x %union.VectorReg], [32 x %union.VectorReg]* %6, i64 0, i64 3
  %YMM3 = bitcast %union.VectorReg* %7 to %"class.std::bitset"*
  %8 = bitcast %"class.std::bitset"* %YMM3 to i8*
  %9 = bitcast %"class.std::bitset"* %YMM3 to i8*
  %10 = load i64, i64* %PC
  %11 = add i64 %10, 9
  store i64 %11, i64* %PC
  %12 = call %struct.Memory* @_ZN12_GLOBAL__N_1L5DIVSDI3VnWI8vec128_tE2VnIS2_E3MVnIS2_EEEP6MemoryS9_R5StateT_T0_T1_(%struct.Memory* %2, %struct.State* %0, i8* %8, i8* %9, i64 6295840)
  ret %struct.Memory* %12
}




define %struct.Memory* @routine_movsd__xmm2__0x601258(%struct.State*  dereferenceable(3376), i64, %struct.Memory* ) #19 {
block_400488:
  %3 = getelementptr inbounds %struct.State, %struct.State* %0, i32 0, i32 6
  %4 = getelementptr inbounds %struct.GPR, %struct.GPR* %3, i32 0, i32 33
  %5 = getelementptr inbounds %struct.Reg, %struct.Reg* %4, i32 0, i32 0
  %PC = bitcast %union.anon* %5 to i64*
  %6 = getelementptr inbounds %struct.State, %struct.State* %0, i32 0, i32 1
  %7 = getelementptr inbounds [32 x %union.VectorReg], [32 x %union.VectorReg]* %6, i64 0, i64 2
  %XMM2 = bitcast %union.VectorReg* %7 to %union.vec128_t*
  %8 = bitcast %union.vec128_t* %XMM2 to i8*
  %9 = load i64, i64* %PC
  %10 = add i64 %9, 9
  store i64 %10, i64* %PC
  %11 = call %struct.Memory* @_ZN12_GLOBAL__N_1L9MOVSD_MEMI4MVnWI7vec64_tE2VnI8vec128_tEEEP6MemoryS8_R5StateT_T0_(%struct.Memory* %2, %struct.State* %0, i64 6296152, i8* %8)
  ret %struct.Memory* %11
}


define %struct.Memory* @routine_movsd_0x601298___xmm2(%struct.State*  dereferenceable(3376), i64, %struct.Memory* ) #19 {
block_400488:
  %3 = getelementptr inbounds %struct.State, %struct.State* %0, i32 0, i32 6
  %4 = getelementptr inbounds %struct.GPR, %struct.GPR* %3, i32 0, i32 33
  %5 = getelementptr inbounds %struct.Reg, %struct.Reg* %4, i32 0, i32 0
  %PC = bitcast %union.anon* %5 to i64*
  %6 = getelementptr inbounds %struct.State, %struct.State* %0, i32 0, i32 1
  %7 = getelementptr inbounds [32 x %union.VectorReg], [32 x %union.VectorReg]* %6, i64 0, i64 2
  %YMM2 = bitcast %union.VectorReg* %7 to %"class.std::bitset"*
  %8 = bitcast %"class.std::bitset"* %YMM2 to i8*
  %9 = load i64, i64* %PC
  %10 = add i64 %9, 9
  store i64 %10, i64* %PC
  %11 = call %struct.Memory* @_ZN12_GLOBAL__N_1L9MOVSD_MEMI3VnWI8vec128_tE3MVnI7vec64_tEEEP6MemoryS8_R5StateT_T0_(%struct.Memory* %2, %struct.State* %0, i8* %8, i64 6296216)
  ret %struct.Memory* %11
}

define internal %struct.Memory* @_ZN12_GLOBAL__N_1L5SUBSDI3VnWI8vec128_tE2VnIS2_E3MVnI7vec64_tEEEP6MemorySA_R5StateT_T0_T1_(%struct.Memory* returned, %struct.State* nocapture readnone dereferenceable(3376), i8* nocapture, i8* nocapture readonly, i64) #0 {
  %6 = bitcast i8* %3 to double*
  %7 = load double, double* %6, align 1
  %8 = getelementptr inbounds i8, i8* %3, i64 8
  %9 = bitcast i8* %8 to i64*
  %10 = load i64, i64* %9, align 1
  %11 = inttoptr i64 %4 to double*
  %12 = load double, double* %11
  %13 = fsub double %7, %12
  %14 = bitcast i8* %2 to double*
  store double %13, double* %14, align 1
  %15 = getelementptr inbounds i8, i8* %2, i64 8
  %16 = bitcast i8* %15 to i64*
  store i64 %10, i64* %16, align 1
  ret %struct.Memory* %0
}

define %struct.Memory* @routine_subsd_0x601258___xmm2(%struct.State*  dereferenceable(3376), i64, %struct.Memory* ) #19 {
block_400488:
  %3 = getelementptr inbounds %struct.State, %struct.State* %0, i32 0, i32 6
  %4 = getelementptr inbounds %struct.GPR, %struct.GPR* %3, i32 0, i32 33
  %5 = getelementptr inbounds %struct.Reg, %struct.Reg* %4, i32 0, i32 0
  %PC = bitcast %union.anon* %5 to i64*
  %6 = getelementptr inbounds %struct.State, %struct.State* %0, i32 0, i32 1
  %7 = getelementptr inbounds [32 x %union.VectorReg], [32 x %union.VectorReg]* %6, i64 0, i64 2
  %YMM2 = bitcast %union.VectorReg* %7 to %"class.std::bitset"*
  %8 = bitcast %"class.std::bitset"* %YMM2 to i8*
  %9 = bitcast %"class.std::bitset"* %YMM2 to i8*
  %10 = load i64, i64* %PC
  %11 = add i64 %10, 9
  store i64 %11, i64* %PC
  %12 = call %struct.Memory* @_ZN12_GLOBAL__N_1L5SUBSDI3VnWI8vec128_tE2VnIS2_E3MVnI7vec64_tEEEP6MemorySA_R5StateT_T0_T1_(%struct.Memory* %2, %struct.State* %0, i8* %8, i8* %9, i64 6296152)
  ret %struct.Memory* %12
}


define %struct.Memory* @routine_movsd__xmm2__0x601290(%struct.State*  dereferenceable(3376), i64, %struct.Memory* ) #19 {
block_400488:
  %3 = getelementptr inbounds %struct.State, %struct.State* %0, i32 0, i32 6
  %4 = getelementptr inbounds %struct.GPR, %struct.GPR* %3, i32 0, i32 33
  %5 = getelementptr inbounds %struct.Reg, %struct.Reg* %4, i32 0, i32 0
  %PC = bitcast %union.anon* %5 to i64*
  %6 = getelementptr inbounds %struct.State, %struct.State* %0, i32 0, i32 1
  %7 = getelementptr inbounds [32 x %union.VectorReg], [32 x %union.VectorReg]* %6, i64 0, i64 2
  %XMM2 = bitcast %union.VectorReg* %7 to %union.vec128_t*
  %8 = bitcast %union.vec128_t* %XMM2 to i8*
  %9 = load i64, i64* %PC
  %10 = add i64 %9, 9
  store i64 %10, i64* %PC
  %11 = call %struct.Memory* @_ZN12_GLOBAL__N_1L9MOVSD_MEMI4MVnWI7vec64_tE2VnI8vec128_tEEEP6MemoryS8_R5StateT_T0_(%struct.Memory* %2, %struct.State* %0, i64 6296208, i8* %8)
  ret %struct.Memory* %11
}


define %struct.Memory* @routine_mulsd_0x601290___xmm1(%struct.State*  dereferenceable(3376), i64, %struct.Memory* ) #19 {
block_400488:
  %3 = getelementptr inbounds %struct.State, %struct.State* %0, i32 0, i32 6
  %4 = getelementptr inbounds %struct.GPR, %struct.GPR* %3, i32 0, i32 33
  %5 = getelementptr inbounds %struct.Reg, %struct.Reg* %4, i32 0, i32 0
  %PC = bitcast %union.anon* %5 to i64*
  %6 = getelementptr inbounds %struct.State, %struct.State* %0, i32 0, i32 1
  %7 = getelementptr inbounds [32 x %union.VectorReg], [32 x %union.VectorReg]* %6, i64 0, i64 1
  %YMM1 = bitcast %union.VectorReg* %7 to %"class.std::bitset"*
  %8 = bitcast %"class.std::bitset"* %YMM1 to i8*
  %9 = bitcast %"class.std::bitset"* %YMM1 to i8*
  %10 = load i64, i64* %PC
  %11 = add i64 %10, 9
  store i64 %11, i64* %PC
  %12 = call %struct.Memory* @_ZN12_GLOBAL__N_1L5MULSDI3VnWI8vec128_tE2VnIS2_E3MVnIS2_EEEP6MemoryS9_R5StateT_T0_T1_(%struct.Memory* %2, %struct.State* %0, i8* %8, i8* %9, i64 6296208)
  ret %struct.Memory* %12
}


define %struct.Memory* @routine_movsd__xmm0__MINUS0x70__rbp_(%struct.State*  dereferenceable(3376), i64, %struct.Memory* ) #19 {
block_400488:
  %3 = getelementptr inbounds %struct.State, %struct.State* %0, i32 0, i32 6
  %4 = getelementptr inbounds %struct.GPR, %struct.GPR* %3, i32 0, i32 33
  %5 = getelementptr inbounds %struct.Reg, %struct.Reg* %4, i32 0, i32 0
  %PC = bitcast %union.anon* %5 to i64*
  %6 = getelementptr inbounds %struct.State, %struct.State* %0, i32 0, i32 6
  %7 = getelementptr inbounds %struct.GPR, %struct.GPR* %6, i32 0, i32 15
  %8 = getelementptr inbounds %struct.Reg, %struct.Reg* %7, i32 0, i32 0
  %RBP = bitcast %union.anon* %8 to i64*
  %9 = getelementptr inbounds %struct.State, %struct.State* %0, i32 0, i32 1
  %10 = getelementptr inbounds [32 x %union.VectorReg], [32 x %union.VectorReg]* %9, i64 0, i64 0
  %XMM0 = bitcast %union.VectorReg* %10 to %union.vec128_t*
  %11 = load i64, i64* %RBP
  %12 = sub i64 %11, 112
  %13 = bitcast %union.vec128_t* %XMM0 to i8*
  %14 = load i64, i64* %PC
  %15 = add i64 %14, 5
  store i64 %15, i64* %PC
  %16 = call %struct.Memory* @_ZN12_GLOBAL__N_1L9MOVSD_MEMI4MVnWI7vec64_tE2VnI8vec128_tEEEP6MemoryS8_R5StateT_T0_(%struct.Memory* %2, %struct.State* %0, i64 %12, i8* %13)
  ret %struct.Memory* %16
}

define internal %struct.Memory* @_ZN12_GLOBAL__N_1L6MOVxPSI3VnWI8vec128_tE2VnIS2_EEEP6MemoryS7_R5StateT_T0_(%struct.Memory* readnone returned, %struct.State* nocapture readnone dereferenceable(3376), i8* nocapture, i8* nocapture readonly) #0 {
  %5 = bitcast i8* %3 to <2 x i32>*
  %6 = load <2 x i32>, <2 x i32>* %5, align 1
  %7 = getelementptr inbounds i8, i8* %3, i64 8
  %8 = bitcast i8* %7 to <2 x i32>*
  %9 = load <2 x i32>, <2 x i32>* %8, align 1
  %10 = extractelement <2 x i32> %6, i32 0
  %11 = bitcast i8* %2 to i32*
  store i32 %10, i32* %11, align 1
  %12 = extractelement <2 x i32> %6, i32 1
  %13 = getelementptr inbounds i8, i8* %2, i64 4
  %14 = bitcast i8* %13 to i32*
  store i32 %12, i32* %14, align 1
  %15 = extractelement <2 x i32> %9, i32 0
  %16 = getelementptr inbounds i8, i8* %2, i64 8
  %17 = bitcast i8* %16 to i32*
  store i32 %15, i32* %17, align 1
  %18 = extractelement <2 x i32> %9, i32 1
  %19 = getelementptr inbounds i8, i8* %2, i64 12
  %20 = bitcast i8* %19 to i32*
  store i32 %18, i32* %20, align 1
  ret %struct.Memory* %0
}

define %struct.Memory* @routine_movaps__xmm1___xmm0(%struct.State*  dereferenceable(3376), i64, %struct.Memory* ) #19 {
block_400488:
  %3 = getelementptr inbounds %struct.State, %struct.State* %0, i32 0, i32 6
  %4 = getelementptr inbounds %struct.GPR, %struct.GPR* %3, i32 0, i32 33
  %5 = getelementptr inbounds %struct.Reg, %struct.Reg* %4, i32 0, i32 0
  %PC = bitcast %union.anon* %5 to i64*
  %6 = getelementptr inbounds %struct.State, %struct.State* %0, i32 0, i32 1
  %7 = getelementptr inbounds [32 x %union.VectorReg], [32 x %union.VectorReg]* %6, i64 0, i64 0
  %YMM0 = bitcast %union.VectorReg* %7 to %"class.std::bitset"*
  %8 = getelementptr inbounds %struct.State, %struct.State* %0, i32 0, i32 1
  %9 = getelementptr inbounds [32 x %union.VectorReg], [32 x %union.VectorReg]* %8, i64 0, i64 1
  %XMM1 = bitcast %union.VectorReg* %9 to %union.vec128_t*
  %10 = bitcast %"class.std::bitset"* %YMM0 to i8*
  %11 = bitcast %union.vec128_t* %XMM1 to i8*
  %12 = load i64, i64* %PC
  %13 = add i64 %12, 3
  store i64 %13, i64* %PC
  %14 = call %struct.Memory* @_ZN12_GLOBAL__N_1L6MOVxPSI3VnWI8vec128_tE2VnIS2_EEEP6MemoryS7_R5StateT_T0_(%struct.Memory* %2, %struct.State* %0, i8* %10, i8* %11)
  ret %struct.Memory* %14
}


define %struct.Memory* @routine_movsd_MINUS0x70__rbp____xmm1(%struct.State*  dereferenceable(3376), i64, %struct.Memory* ) #19 {
block_400488:
  %3 = getelementptr inbounds %struct.State, %struct.State* %0, i32 0, i32 6
  %4 = getelementptr inbounds %struct.GPR, %struct.GPR* %3, i32 0, i32 33
  %5 = getelementptr inbounds %struct.Reg, %struct.Reg* %4, i32 0, i32 0
  %PC = bitcast %union.anon* %5 to i64*
  %6 = getelementptr inbounds %struct.State, %struct.State* %0, i32 0, i32 6
  %7 = getelementptr inbounds %struct.GPR, %struct.GPR* %6, i32 0, i32 15
  %8 = getelementptr inbounds %struct.Reg, %struct.Reg* %7, i32 0, i32 0
  %RBP = bitcast %union.anon* %8 to i64*
  %9 = getelementptr inbounds %struct.State, %struct.State* %0, i32 0, i32 1
  %10 = getelementptr inbounds [32 x %union.VectorReg], [32 x %union.VectorReg]* %9, i64 0, i64 1
  %YMM1 = bitcast %union.VectorReg* %10 to %"class.std::bitset"*
  %11 = bitcast %"class.std::bitset"* %YMM1 to i8*
  %12 = load i64, i64* %RBP
  %13 = sub i64 %12, 112
  %14 = load i64, i64* %PC
  %15 = add i64 %14, 5
  store i64 %15, i64* %PC
  %16 = call %struct.Memory* @_ZN12_GLOBAL__N_1L9MOVSD_MEMI3VnWI8vec128_tE3MVnI7vec64_tEEEP6MemoryS8_R5StateT_T0_(%struct.Memory* %2, %struct.State* %0, i8* %11, i64 %13)
  ret %struct.Memory* %16
}


define %struct.Memory* @routine_movsd_MINUS0x70__rbp____xmm2(%struct.State*  dereferenceable(3376), i64, %struct.Memory* ) #19 {
block_400488:
  %3 = getelementptr inbounds %struct.State, %struct.State* %0, i32 0, i32 6
  %4 = getelementptr inbounds %struct.GPR, %struct.GPR* %3, i32 0, i32 33
  %5 = getelementptr inbounds %struct.Reg, %struct.Reg* %4, i32 0, i32 0
  %PC = bitcast %union.anon* %5 to i64*
  %6 = getelementptr inbounds %struct.State, %struct.State* %0, i32 0, i32 6
  %7 = getelementptr inbounds %struct.GPR, %struct.GPR* %6, i32 0, i32 15
  %8 = getelementptr inbounds %struct.Reg, %struct.Reg* %7, i32 0, i32 0
  %RBP = bitcast %union.anon* %8 to i64*
  %9 = getelementptr inbounds %struct.State, %struct.State* %0, i32 0, i32 1
  %10 = getelementptr inbounds [32 x %union.VectorReg], [32 x %union.VectorReg]* %9, i64 0, i64 2
  %YMM2 = bitcast %union.VectorReg* %10 to %"class.std::bitset"*
  %11 = bitcast %"class.std::bitset"* %YMM2 to i8*
  %12 = load i64, i64* %RBP
  %13 = sub i64 %12, 112
  %14 = load i64, i64* %PC
  %15 = add i64 %14, 5
  store i64 %15, i64* %PC
  %16 = call %struct.Memory* @_ZN12_GLOBAL__N_1L9MOVSD_MEMI3VnWI8vec128_tE3MVnI7vec64_tEEEP6MemoryS8_R5StateT_T0_(%struct.Memory* %2, %struct.State* %0, i8* %11, i64 %13)
  ret %struct.Memory* %16
}


define %struct.Memory* @routine_movb__0x3___al(%struct.State*  dereferenceable(3376), i64, %struct.Memory* ) #19 {
block_400488:
  %3 = getelementptr inbounds %struct.State, %struct.State* %0, i32 0, i32 6
  %4 = getelementptr inbounds %struct.GPR, %struct.GPR* %3, i32 0, i32 33
  %5 = getelementptr inbounds %struct.Reg, %struct.Reg* %4, i32 0, i32 0
  %PC = bitcast %union.anon* %5 to i64*
  %6 = getelementptr inbounds %struct.State, %struct.State* %0, i32 0, i32 6
  %7 = getelementptr inbounds %struct.GPR, %struct.GPR* %6, i32 0, i32 1
  %8 = getelementptr inbounds %struct.Reg, %struct.Reg* %7, i32 0, i32 0
  %9 = bitcast %union.anon* %8 to %struct.anon.2*
  %AL = getelementptr inbounds %struct.anon.2, %struct.anon.2* %9, i32 0, i32 0
  %10 = load i64, i64* %PC
  %11 = add i64 %10, 2
  store i64 %11, i64* %PC
  %12 = call %struct.Memory* @_ZN12_GLOBAL__N_1L3MOVI3RnWIhE2InIhEEEP6MemoryS6_R5StateT_T0_(%struct.Memory* %2, %struct.State* %0, i8* %AL, i64 3)
  ret %struct.Memory* %12
}



define internal %struct.Memory* @_ZN12_GLOBAL__N_1L3XORI3RnWImE2RnIjES4_EEP6MemoryS6_R5StateT_T0_T1_(%struct.Memory* readnone returned, %struct.State* nocapture dereferenceable(3376), i64* nocapture, i64, i64) #0 {
  %6 = xor i64 %4, %3
  %7 = trunc i64 %6 to i32
  %8 = and i64 %6, 4294967295
  store i64 %8, i64* %2, align 8
  %9 = getelementptr inbounds %struct.State, %struct.State* %1, i64 0, i32 2, i32 1
  store i8 0, i8* %9, align 1
  %10 = and i32 %7, 255
  %11 = tail call i32 @llvm.ctpop.i32(i32 %10) #22
  %12 = trunc i32 %11 to i8
  %13 = and i8 %12, 1
  %14 = xor i8 %13, 1
  %15 = getelementptr inbounds %struct.State, %struct.State* %1, i64 0, i32 2, i32 3
  store i8 %14, i8* %15, align 1
  %16 = icmp eq i32 %7, 0
  %17 = zext i1 %16 to i8
  %18 = getelementptr inbounds %struct.State, %struct.State* %1, i64 0, i32 2, i32 7
  store i8 %17, i8* %18, align 1
  %19 = lshr i32 %7, 31
  %20 = trunc i32 %19 to i8
  %21 = getelementptr inbounds %struct.State, %struct.State* %1, i64 0, i32 2, i32 9
  store i8 %20, i8* %21, align 1
  %22 = getelementptr inbounds %struct.State, %struct.State* %1, i64 0, i32 2, i32 13
  store i8 0, i8* %22, align 1
  %23 = getelementptr inbounds %struct.State, %struct.State* %1, i64 0, i32 2, i32 5
  store i8 0, i8* %23, align 1
  ret %struct.Memory* %0
}

define %struct.Memory* @routine_xorl__ecx___ecx(%struct.State*  dereferenceable(3376), i64, %struct.Memory* ) #19 {
block_400488:
  %3 = getelementptr inbounds %struct.State, %struct.State* %0, i32 0, i32 6
  %4 = getelementptr inbounds %struct.GPR, %struct.GPR* %3, i32 0, i32 33
  %5 = getelementptr inbounds %struct.Reg, %struct.Reg* %4, i32 0, i32 0
  %PC = bitcast %union.anon* %5 to i64*
  %6 = getelementptr inbounds %struct.State, %struct.State* %0, i32 0, i32 6
  %7 = getelementptr inbounds %struct.GPR, %struct.GPR* %6, i32 0, i32 5
  %8 = getelementptr inbounds %struct.Reg, %struct.Reg* %7, i32 0, i32 0
  %ECX = bitcast %union.anon* %8 to i32*
  %9 = getelementptr inbounds %struct.State, %struct.State* %0, i32 0, i32 6
  %10 = getelementptr inbounds %struct.GPR, %struct.GPR* %9, i32 0, i32 5
  %11 = getelementptr inbounds %struct.Reg, %struct.Reg* %10, i32 0, i32 0
  %RCX = bitcast %union.anon* %11 to i64*
  %12 = load i64, i64* %RCX
  %13 = load i32, i32* %ECX
  %14 = zext i32 %13 to i64
  %15 = load i64, i64* %PC
  %16 = add i64 %15, 2
  store i64 %16, i64* %PC
  %17 = call %struct.Memory* @_ZN12_GLOBAL__N_1L3XORI3RnWImE2RnIjES4_EEP6MemoryS6_R5StateT_T0_T1_(%struct.Memory* %2, %struct.State* %0, i64* %RCX, i64 %12, i64 %14)
  ret %struct.Memory* %17
}


define %struct.Memory* @routine_movl__eax__MINUS0x74__rbp_(%struct.State*  dereferenceable(3376), i64, %struct.Memory* ) #19 {
block_400488:
  %3 = getelementptr inbounds %struct.State, %struct.State* %0, i32 0, i32 6
  %4 = getelementptr inbounds %struct.GPR, %struct.GPR* %3, i32 0, i32 33
  %5 = getelementptr inbounds %struct.Reg, %struct.Reg* %4, i32 0, i32 0
  %PC = bitcast %union.anon* %5 to i64*
  %6 = getelementptr inbounds %struct.State, %struct.State* %0, i32 0, i32 6
  %7 = getelementptr inbounds %struct.GPR, %struct.GPR* %6, i32 0, i32 1
  %8 = getelementptr inbounds %struct.Reg, %struct.Reg* %7, i32 0, i32 0
  %EAX = bitcast %union.anon* %8 to i32*
  %9 = getelementptr inbounds %struct.State, %struct.State* %0, i32 0, i32 6
  %10 = getelementptr inbounds %struct.GPR, %struct.GPR* %9, i32 0, i32 15
  %11 = getelementptr inbounds %struct.Reg, %struct.Reg* %10, i32 0, i32 0
  %RBP = bitcast %union.anon* %11 to i64*
  %12 = load i64, i64* %RBP
  %13 = sub i64 %12, 116
  %14 = load i32, i32* %EAX
  %15 = zext i32 %14 to i64
  %16 = load i64, i64* %PC
  %17 = add i64 %16, 3
  store i64 %17, i64* %PC
  %18 = call %struct.Memory* @_ZN12_GLOBAL__N_1L3MOVI3MnWIjE2RnIjEEEP6MemoryS6_R5StateT_T0_(%struct.Memory* %2, %struct.State* %0, i64 %13, i64 %15)
  ret %struct.Memory* %18
}

define internal %struct.Memory* @_ZN12_GLOBAL__N_1L3MOVI3RnWImE2RnIjEEEP6MemoryS6_R5StateT_T0_(%struct.Memory* readnone returned, %struct.State* nocapture readnone dereferenceable(3376), i64* nocapture, i64) #2 {
  %5 = and i64 %3, 4294967295
  store i64 %5, i64* %2, align 8
  ret %struct.Memory* %0
}

define %struct.Memory* @routine_movl__ecx___eax(%struct.State*  dereferenceable(3376), i64, %struct.Memory* ) #19 {
block_400488:
  %3 = getelementptr inbounds %struct.State, %struct.State* %0, i32 0, i32 6
  %4 = getelementptr inbounds %struct.GPR, %struct.GPR* %3, i32 0, i32 33
  %5 = getelementptr inbounds %struct.Reg, %struct.Reg* %4, i32 0, i32 0
  %PC = bitcast %union.anon* %5 to i64*
  %6 = getelementptr inbounds %struct.State, %struct.State* %0, i32 0, i32 6
  %7 = getelementptr inbounds %struct.GPR, %struct.GPR* %6, i32 0, i32 5
  %8 = getelementptr inbounds %struct.Reg, %struct.Reg* %7, i32 0, i32 0
  %ECX = bitcast %union.anon* %8 to i32*
  %9 = getelementptr inbounds %struct.State, %struct.State* %0, i32 0, i32 6
  %10 = getelementptr inbounds %struct.GPR, %struct.GPR* %9, i32 0, i32 1
  %11 = getelementptr inbounds %struct.Reg, %struct.Reg* %10, i32 0, i32 0
  %RAX = bitcast %union.anon* %11 to i64*
  %12 = load i32, i32* %ECX
  %13 = zext i32 %12 to i64
  %14 = load i64, i64* %PC
  %15 = add i64 %14, 2
  store i64 %15, i64* %PC
  %16 = call %struct.Memory* @_ZN12_GLOBAL__N_1L3MOVI3RnWImE2RnIjEEEP6MemoryS6_R5StateT_T0_(%struct.Memory* %2, %struct.State* %0, i64* %RAX, i64 %13)
  ret %struct.Memory* %16
}


define %struct.Memory* @routine_addq__0x80___rsp(%struct.State*  dereferenceable(3376), i64, %struct.Memory* ) #19 {
block_400488:
  %3 = getelementptr inbounds %struct.State, %struct.State* %0, i32 0, i32 6
  %4 = getelementptr inbounds %struct.GPR, %struct.GPR* %3, i32 0, i32 33
  %5 = getelementptr inbounds %struct.Reg, %struct.Reg* %4, i32 0, i32 0
  %PC = bitcast %union.anon* %5 to i64*
  %6 = getelementptr inbounds %struct.State, %struct.State* %0, i32 0, i32 6
  %7 = getelementptr inbounds %struct.GPR, %struct.GPR* %6, i32 0, i32 13
  %8 = getelementptr inbounds %struct.Reg, %struct.Reg* %7, i32 0, i32 0
  %RSP = bitcast %union.anon* %8 to i64*
  %9 = load i64, i64* %RSP
  %10 = load i64, i64* %PC
  %11 = add i64 %10, 7
  store i64 %11, i64* %PC
  %12 = call %struct.Memory* @_ZN12_GLOBAL__N_1L3ADDI3RnWImE2RnImE2InImEEEP6MemoryS8_R5StateT_T0_T1_(%struct.Memory* %2, %struct.State* %0, i64* %RSP, i64 %9, i64 128)
  ret %struct.Memory* %12
}

define internal %struct.Memory* @_ZN12_GLOBAL__N_1L3POPI3RnWImEEEP6MemoryS4_R5StateT_(%struct.Memory*, %struct.State* nocapture dereferenceable(3376), i64* nocapture) #0 {
  %4 = getelementptr inbounds %struct.State, %struct.State* %1, i64 0, i32 6, i32 13, i32 0, i32 0
  %5 = load i64, i64* %4, align 8
  %6 = add i64 %5, 8
  %7 = inttoptr i64 %5 to i64*
  %8 = load i64, i64* %7
  store i64 %8, i64* %2, align 8
  store i64 %6, i64* %4, align 8
  ret %struct.Memory* %0
}

define %struct.Memory* @routine_popq__rbp(%struct.State*  dereferenceable(3376), i64, %struct.Memory* ) #19 {
block_400488:
  %3 = getelementptr inbounds %struct.State, %struct.State* %0, i32 0, i32 6
  %4 = getelementptr inbounds %struct.GPR, %struct.GPR* %3, i32 0, i32 33
  %5 = getelementptr inbounds %struct.Reg, %struct.Reg* %4, i32 0, i32 0
  %PC = bitcast %union.anon* %5 to i64*
  %6 = getelementptr inbounds %struct.State, %struct.State* %0, i32 0, i32 6
  %7 = getelementptr inbounds %struct.GPR, %struct.GPR* %6, i32 0, i32 15
  %8 = getelementptr inbounds %struct.Reg, %struct.Reg* %7, i32 0, i32 0
  %RBP = bitcast %union.anon* %8 to i64*
  %9 = load i64, i64* %PC
  %10 = add i64 %9, 1
  store i64 %10, i64* %PC
  %11 = call %struct.Memory* @_ZN12_GLOBAL__N_1L3POPI3RnWImEEEP6MemoryS4_R5StateT_(%struct.Memory* %2, %struct.State* %0, i64* %RBP)
  ret %struct.Memory* %11
}

define internal %struct.Memory* @_ZN12_GLOBAL__N_1L3RETEP6MemoryR5State(%struct.Memory* returned, %struct.State* nocapture dereferenceable(3376)) #0 {
  %3 = getelementptr inbounds %struct.State, %struct.State* %1, i64 0, i32 6, i32 33, i32 0, i32 0
  %4 = getelementptr inbounds %struct.State, %struct.State* %1, i64 0, i32 6, i32 13, i32 0, i32 0
  %5 = load i64, i64* %4, align 8
  %6 = inttoptr i64 %5 to i64*
  %7 = load i64, i64* %6
  store i64 %7, i64* %3, align 8
  %8 = add i64 %5, 8
  store i64 %8, i64* %4, align 8
  ret %struct.Memory* %0
}

define %struct.Memory* @routine_retq(%struct.State*  dereferenceable(3376), i64, %struct.Memory* ) #19 {
block_400488:
  %3 = getelementptr inbounds %struct.State, %struct.State* %0, i32 0, i32 6
  %4 = getelementptr inbounds %struct.GPR, %struct.GPR* %3, i32 0, i32 33
  %5 = getelementptr inbounds %struct.Reg, %struct.Reg* %4, i32 0, i32 0
  %PC = bitcast %union.anon* %5 to i64*
  %6 = load i64, i64* %PC
  %7 = add i64 %6, 1
  store i64 %7, i64* %PC
  %8 = call %struct.Memory* @_ZN12_GLOBAL__N_1L3RETEP6MemoryR5State(%struct.Memory* %2, %struct.State* %0)
  ret %struct.Memory* %8
}

