; ModuleID = 'mcsema/test.proposed.ll'
source_filename = "llvm-link"
target datalayout = "e-m:e-i64:64-f80:128-n8:16:32:64-S128"
target triple = "x86_64-pc-linux-gnu-elf"

%union.anon = type { i64 }
%seg_400370__init_type = type <{ [23 x i8] }>
%seg_400390__text_type = type <{ [354 x i8] }>
%seg_4004f4__fini_type = type <{ [9 x i8] }>
%seg_400500__rodata_type = type <{ [4 x i8] }>
%seg_400504__eh_frame_hdr_type = type <{ [52 x i8] }>
%seg_400538__eh_frame_type = type <{ [208 x i8] }>
%seg_601018__data_type = type <{ [16 x i8] }>
%__bss_start_type = type <{ [8 x i8] }>
%seg_400504__fini_type = type <{ [9 x i8] }>
%seg_400510__rodata_type = type <{ [4 x i8] }>
%seg_400514__eh_frame_hdr_type = type <{ [52 x i8] }>
%seg_400548__eh_frame_type = type <{ [208 x i8] }>
%G_0x1f01__rip__type = type <{ [8 x i8] }>
%G_0x605050_type = type <{ [4 x i8] }>
%G_0x605058_type = type <{ [8 x i8] }>
%G_0x605060_type = type <{ [8 x i8] }>
%G_0x605068_type = type <{ [8 x i8] }>
%G_0x605070_type = type <{ [8 x i8] }>
%G_0x60ce50_type = type <{ [8 x i8] }>
%G_0x60ce58_type = type <{ [8 x i8] }>
%G_0x60ce60_type = type <{ [8 x i8] }>
%G_0x60ce68_type = type <{ [8 x i8] }>
%G_0x60ce70_type = type <{ [8 x i8] }>
%G_0x60ce78_type = type <{ [8 x i8] }>
%G_0x60ce80_type = type <{ [8 x i8] }>
%G_0x60ce88_type = type <{ [8 x i8] }>
%G_0x60ce90_type = type <{ [8 x i8] }>
%G_0x60ce98_type = type <{ [8 x i8] }>
%G_0x60cea0_type = type <{ [8 x i8] }>
%G_0x60cea8_type = type <{ [8 x i8] }>
%G_0x60ceb0_type = type <{ [8 x i8] }>
%G_0x60ceb8_type = type <{ [8 x i8] }>
%G_0x60cec0_type = type <{ [8 x i8] }>
%G_0x60cec8_type = type <{ [8 x i8] }>
%G_0x60ced0_type = type <{ [8 x i8] }>
%G_0x60ced8_type = type <{ [8 x i8] }>
%G_0x60cee0_type = type <{ [8 x i8] }>
%G_0x60cee8_type = type <{ [8 x i8] }>
%G_0x60cef0_type = type <{ [8 x i8] }>
%G_0x60cef8_type = type <{ [8 x i8] }>
%G__0x402e38_type = type <{ [8 x i8] }>
%struct.State = type { %struct.ArchState, [32 x %union.VectorReg], %struct.ArithFlags, %union.anon, %struct.Segments, %struct.AddressSpace, %struct.GPR, %struct.X87Stack, %struct.MMX, %struct.FPUStatusFlags, %union.anon, %union.FPU, %struct.SegmentCaches }
%struct.ArchState = type { i32, i32, %union.anon }
%union.VectorReg = type { %union.vec512_t }
%union.vec512_t = type { %struct.uint64v8_t }
%struct.uint64v8_t = type { [8 x i64] }
%struct.ArithFlags = type { i8, i8, i8, i8, i8, i8, i8, i8, i8, i8, i8, i8, i8, i8, i8, i8 }
%struct.Segments = type { i16, %union.SegmentSelector, i16, %union.SegmentSelector, i16, %union.SegmentSelector, i16, %union.SegmentSelector, i16, %union.SegmentSelector, i16, %union.SegmentSelector }
%union.SegmentSelector = type { i16 }
%struct.AddressSpace = type { i64, %struct.Reg, i64, %struct.Reg, i64, %struct.Reg, i64, %struct.Reg, i64, %struct.Reg, i64, %struct.Reg }
%struct.Reg = type { %union.anon }
%struct.GPR = type { i64, %struct.Reg, i64, %struct.Reg, i64, %struct.Reg, i64, %struct.Reg, i64, %struct.Reg, i64, %struct.Reg, i64, %struct.Reg, i64, %struct.Reg, i64, %struct.Reg, i64, %struct.Reg, i64, %struct.Reg, i64, %struct.Reg, i64, %struct.Reg, i64, %struct.Reg, i64, %struct.Reg, i64, %struct.Reg, i64, %struct.Reg }
%struct.X87Stack = type { [8 x %struct.anon.3] }
%struct.anon.3 = type { i64, double }
%struct.MMX = type { [8 x %struct.anon.4] }
%struct.anon.4 = type { i64, %union.vec64_t }
%union.vec64_t = type { %struct.uint64v1_t }
%struct.uint64v1_t = type { [1 x i64] }
%struct.FPUStatusFlags = type { i8, i8, i8, i8, i8, i8, i8, i8, i8, i8, i8, i8, i8, i8, i8, i8, i8, i8, i8, i8, [4 x i8] }
%union.FPU = type { %struct.anon.13 }
%struct.anon.13 = type { %struct.FpuFXSAVE, [96 x i8] }
%struct.FpuFXSAVE = type { %union.SegmentSelector, %union.SegmentSelector, %union.FPUAbridgedTagWord, i8, i16, i32, %union.SegmentSelector, i16, i32, %union.SegmentSelector, i16, %union.FPUControlStatus, %union.FPUControlStatus, [8 x %struct.FPUStackElem], [16 x %union.vec128_t] }
%union.FPUAbridgedTagWord = type { i8 }
%union.FPUControlStatus = type { i32 }
%struct.FPUStackElem = type { %union.anon.11, [6 x i8] }
%union.anon.11 = type { %struct.float80_t }
%struct.float80_t = type { [10 x i8] }
%union.vec128_t = type { %struct.uint128v1_t }
%struct.uint128v1_t = type { [1 x i128] }
%struct.SegmentCaches = type { %struct.SegmentShadow, %struct.SegmentShadow, %struct.SegmentShadow, %struct.SegmentShadow, %struct.SegmentShadow, %struct.SegmentShadow }
%struct.SegmentShadow = type { %union.anon, i32, i32 }
%struct.Memory = type opaque
%"class.std::bitset" = type { %struct.uint64v4_t }
%struct.uint64v4_t = type { [4 x i64] }

@switch.table = private unnamed_addr constant [4 x i32] [i32 2048, i32 3072, i32 0, i32 1024]
@DR0 = external global i64, align 8
@DR1 = external global i64, align 8
@DR2 = external global i64, align 8
@DR3 = external global i64, align 8
@DR4 = external global i64, align 8
@DR5 = external global i64, align 8
@DR6 = external global i64, align 8
@DR7 = external global i64, align 8
@gCR0 = external global %union.anon, align 1
@gCR1 = external global %union.anon, align 1
@gCR2 = external global %union.anon, align 1
@gCR3 = external global %union.anon, align 1
@gCR4 = external global %union.anon, align 1
@gCR8 = external global %union.anon, align 1
@seg_400370__init = internal constant %seg_400370__init_type <{ [23 x i8] c"H\83\EC\08H\8B\05}\0C \00H\85\C0t\02\FF\D0H\83\C4\08\C3" }>
@seg_400390__text = internal constant %seg_400390__text_type <{ [354 x i8] c"1\EDI\89\D1^H\89\E2H\83\E4\F0PTI\C7\C0\F0\04@\00H\C7\C1\80\04@\00H\C7\C7x\04@\00\FF\156\0C \00\F4\0F\1FD\00\00\F3\C3f.\0F\1F\84\00\00\00\00\00\0F\1F@\00U\B8(\10`\00H=(\10`\00H\89\E5t\17\B8\00\00\00\00H\85\C0t\0D]\BF(\10`\00\FF\E0\0F\1FD\00\00]\C3f\0F\1FD\00\00\BE(\10`\00UH\81\EE(\10`\00H\89\E5H\C1\FE\03H\89\F0H\C1\E8?H\01\C6H\D1\FEt\15\B8\00\00\00\00H\85\C0t\0B]\BF(\10`\00\FF\E0\0F\1F\00]\C3f\0F\1FD\00\00\80=\E1\0B \00\00u\17UH\89\E5\E8~\FF\FF\FF\C6\05\CF\0B \00\01]\C3\0F\1FD\00\00\F3\C3\0F\1F@\00f.\0F\1F\84\00\00\00\00\00UH\89\E5]\EB\89\90U\C3f\0F\1FD\00\00AWAVI\89\D7AUATL\8D%\BE\09 \00UH\8D-\BE\09 \00SA\89\FDI\89\F6L)\E5H\83\EC\08H\C1\FD\03\E8\BF\FE\FF\FFH\85\EDt 1\DB\0F\1F\84\00\00\00\00\00L\89\FAL\89\F6D\89\EFA\FF\14\DCH\83\C3\01H9\DDu\EAH\83\C4\08[]A\5CA]A^A_\C3\90f.\0F\1F\84\00\00\00\00\00\F3\C3" }>
@seg_4004f4__fini = internal constant %seg_4004f4__fini_type <{ [9 x i8] c"H\83\EC\08H\83\C4\08\C3" }>
@seg_400500__rodata = internal constant %seg_400500__rodata_type <{ [4 x i8] c"\01\00\02\00" }>
@seg_400504__eh_frame_hdr = internal constant %seg_400504__eh_frame_hdr_type <{ [52 x i8] c"\01\1B\03;0\00\00\00\05\00\00\00\8C\FE\FF\FFL\00\00\00\BC\FE\FF\FFx\00\00\00t\FF\FF\FF\8C\00\00\00|\FF\FF\FF\A4\00\00\00\EC\FF\FF\FF\EC\00\00\00" }>
@seg_400538__eh_frame = internal constant %seg_400538__eh_frame_type <{ [208 x i8] c"\14\00\00\00\00\00\00\00\01zR\00\01x\10\01\1B\0C\07\08\90\01\07\10\10\00\00\00\1C\00\00\008\FE\FF\FF+\00\00\00\00\00\00\00\14\00\00\00\00\00\00\00\01zR\00\01x\10\01\1B\0C\07\08\90\01\00\00\10\00\00\00\1C\00\00\00<\FE\FF\FF\02\00\00\00\00\00\00\00\14\00\00\000\00\00\00\E0\FE\FF\FF\02\00\00\00\00\00\00\00\00\00\00\00D\00\00\00H\00\00\00\D0\FE\FF\FFe\00\00\00\00B\0E\10\8F\02B\0E\18\8E\03E\0E \8D\04B\0E(\8C\05H\0E0\86\06H\0E8\83\07M\0E@r\0E8A\0E0A\0E(B\0E B\0E\18B\0E\10B\0E\08\00\10\00\00\00\90\00\00\00\F8\FE\FF\FF\02\00\00\00\00\00\00\00\00\00\00\00" }>
@seg_601018__data = internal global %seg_601018__data_type zeroinitializer
@__bss_start = global %__bss_start_type zeroinitializer
@0 = internal global i1 false
@seg_400504__fini = internal constant %seg_400504__fini_type <{ [9 x i8] c"H\83\EC\08H\83\C4\08\C3" }>
@seg_400510__rodata = internal constant %seg_400510__rodata_type <{ [4 x i8] c"\01\00\02\00" }>
@seg_400514__eh_frame_hdr = internal constant %seg_400514__eh_frame_hdr_type <{ [52 x i8] c"\01\1B\03;0\00\00\00\05\00\00\00|\FE\FF\FFL\00\00\00\AC\FE\FF\FFx\00\00\00d\FF\FF\FF\8C\00\00\00|\FF\FF\FF\A4\00\00\00\EC\FF\FF\FF\EC\00\00\00" }>
@seg_400548__eh_frame = internal constant %seg_400548__eh_frame_type <{ [208 x i8] c"\14\00\00\00\00\00\00\00\01zR\00\01x\10\01\1B\0C\07\08\90\01\07\10\10\00\00\00\1C\00\00\00(\FE\FF\FF+\00\00\00\00\00\00\00\14\00\00\00\00\00\00\00\01zR\00\01x\10\01\1B\0C\07\08\90\01\00\00\10\00\00\00\1C\00\00\00,\FE\FF\FF\02\00\00\00\00\00\00\00\14\00\00\000\00\00\00\D0\FE\FF\FF\09\00\00\00\00\00\00\00\00\00\00\00D\00\00\00H\00\00\00\D0\FE\FF\FFe\00\00\00\00B\0E\10\8F\02B\0E\18\8E\03E\0E \8D\04B\0E(\8C\05H\0E0\86\06H\0E8\83\07M\0E@r\0E8A\0E0A\0E(B\0E B\0E\18B\0E\10B\0E\08\00\10\00\00\00\90\00\00\00\F8\FE\FF\FF\02\00\00\00\00\00\00\00\00\00\00\00" }>
@G_0x1f01__rip_ = global %G_0x1f01__rip__type zeroinitializer
@G_0x605050 = global %G_0x605050_type zeroinitializer
@G_0x605058 = global %G_0x605058_type zeroinitializer
@G_0x605060 = global %G_0x605060_type zeroinitializer
@G_0x605068 = global %G_0x605068_type zeroinitializer
@G_0x605070 = global %G_0x605070_type zeroinitializer
@G_0x60ce50 = global %G_0x60ce50_type zeroinitializer
@G_0x60ce58 = global %G_0x60ce58_type zeroinitializer
@G_0x60ce60 = global %G_0x60ce60_type zeroinitializer
@G_0x60ce68 = global %G_0x60ce68_type zeroinitializer
@G_0x60ce70 = global %G_0x60ce70_type zeroinitializer
@G_0x60ce78 = global %G_0x60ce78_type zeroinitializer
@G_0x60ce80 = global %G_0x60ce80_type zeroinitializer
@G_0x60ce88 = global %G_0x60ce88_type zeroinitializer
@G_0x60ce90 = global %G_0x60ce90_type zeroinitializer
@G_0x60ce98 = global %G_0x60ce98_type zeroinitializer
@G_0x60cea0 = global %G_0x60cea0_type zeroinitializer
@G_0x60cea8 = global %G_0x60cea8_type zeroinitializer
@G_0x60ceb0 = global %G_0x60ceb0_type zeroinitializer
@G_0x60ceb8 = global %G_0x60ceb8_type zeroinitializer
@G_0x60cec0 = global %G_0x60cec0_type zeroinitializer
@G_0x60cec8 = global %G_0x60cec8_type zeroinitializer
@G_0x60ced0 = global %G_0x60ced0_type zeroinitializer
@G_0x60ced8 = global %G_0x60ced8_type zeroinitializer
@G_0x60cee0 = global %G_0x60cee0_type zeroinitializer
@G_0x60cee8 = global %G_0x60cee8_type zeroinitializer
@G_0x60cef0 = global %G_0x60cef0_type zeroinitializer
@G_0x60cef8 = global %G_0x60cef8_type zeroinitializer
@G__0x402e38 = global %G__0x402e38_type zeroinitializer

declare %struct.Memory* @__remill_error(%struct.State* dereferenceable(3376), i64, %struct.Memory*)

declare i32 @__remill_fpu_exception_test_and_clear(i32, i32)

; Function Attrs: argmemonly nounwind
declare void @llvm.lifetime.start(i64, i8* nocapture) #0

; Function Attrs: argmemonly nounwind
declare void @llvm.lifetime.end(i64, i8* nocapture) #0

; Function Attrs: nounwind readnone
declare i32 @llvm.ctpop.i32(i32) #1

; Function Attrs: nounwind readnone
declare i32 @llvm.bswap.i32(i32) #1

; Function Attrs: nounwind readnone
declare i64 @llvm.bswap.i64(i64) #1

; Function Attrs: nounwind readnone
declare i32 @llvm.cttz.i32(i32, i1) #1

; Function Attrs: nounwind readnone
declare i64 @llvm.cttz.i64(i64, i1) #1

; Function Attrs: nounwind readnone
declare i32 @llvm.ctlz.i32(i32, i1) #1

; Function Attrs: nounwind readnone
declare i64 @llvm.ctlz.i64(i64, i1) #1

; Function Attrs: argmemonly nounwind
declare void @llvm.memcpy.p0i8.p0i8.i64(i8* nocapture writeonly, i8* nocapture readonly, i64, i32, i1) #0

; Function Attrs: nounwind readnone
declare double @llvm.nearbyint.f64(double) #1

; Function Attrs: nounwind readnone
declare double @llvm.fabs.f64(double) #1

; Function Attrs: nounwind readnone
declare <4 x double> @llvm.nearbyint.v4f64(<4 x double>) #1

; Function Attrs: nounwind readnone
declare <4 x double> @llvm.fabs.v4f64(<4 x double>) #1

; Function Attrs: nounwind readnone
declare double @llvm.trunc.f64(double) #1

; Function Attrs: nounwind readnone
declare <4 x double> @llvm.trunc.v4f64(<4 x double>) #1

; Function Attrs: nounwind readnone
declare float @llvm.nearbyint.f32(float) #1

; Function Attrs: nounwind readnone
declare float @llvm.fabs.f32(float) #1

; Function Attrs: nounwind readnone
declare <4 x float> @llvm.nearbyint.v4f32(<4 x float>) #1

; Function Attrs: nounwind readnone
declare <4 x float> @llvm.fabs.v4f32(<4 x float>) #1

; Function Attrs: nounwind readnone
declare float @llvm.trunc.f32(float) #1

; Function Attrs: nounwind readnone
declare <4 x float> @llvm.trunc.v4f32(<4 x float>) #1

; Function Attrs: argmemonly nounwind
declare void @llvm.memset.p0i8.i64(i8* nocapture writeonly, i8, i64, i32, i1) #0

declare double @atan(double) local_unnamed_addr

declare double @cos(double) local_unnamed_addr

declare double @sin(double) local_unnamed_addr

declare double @sqrt(double) local_unnamed_addr

declare double @tan(double) local_unnamed_addr

declare extern_weak x86_64_sysvcc i64 @abort()

declare extern_weak x86_64_sysvcc i64 @abs(i64)

declare extern_weak x86_64_sysvcc i64 @asin(i64)

declare extern_weak x86_64_sysvcc i64 @atof(i64)

declare extern_weak x86_64_sysvcc i64 @atoi(i64)

declare extern_weak x86_64_sysvcc i64 @atol(i64)

declare extern_weak x86_64_sysvcc i64 @calloc(i64, i64)

declare extern_weak x86_64_sysvcc i64 @clock()

declare extern_weak x86_64_sysvcc i64 @cosf(i64)

declare extern_weak x86_64_sysvcc i64 @exit(i64)

declare extern_weak x86_64_sysvcc i64 @exp(i64)

declare extern_weak x86_64_sysvcc i64 @fflush(i64)

declare extern_weak x86_64_sysvcc i64 @floor(i64)

declare extern_weak x86_64_sysvcc i64 @fprintf(i64, i64, i64, i64, i64, i64, i64, i64, i64, i64, i64, i64, i64, i64, i64, i64)

declare extern_weak x86_64_sysvcc i64 @fputs(i64, i64)

declare extern_weak x86_64_sysvcc i64 @free(i64)

declare extern_weak x86_64_sysvcc i64 @fwrite(i64, i64, i64, i64)

declare extern_weak x86_64_sysvcc i64 @getchar()

declare extern_weak x86_64_sysvcc i64 @gettimeofday(i64, i64)

declare extern_weak x86_64_sysvcc i64 @__isoc99_fscanf(i64, i64, i64, i64, i64, i64, i64, i64, i64, i64, i64, i64, i64, i64, i64, i64)

declare extern_weak x86_64_sysvcc i64 @__isoc99_scanf(i64, i64, i64, i64, i64, i64, i64, i64, i64, i64, i64, i64, i64, i64, i64, i64)

declare extern_weak x86_64_sysvcc i64 @__isoc99_sscanf(i64, i64, i64, i64, i64, i64, i64, i64, i64, i64, i64, i64, i64, i64, i64, i64)

declare extern_weak x86_64_sysvcc i64 @log(i64)

declare extern_weak x86_64_sysvcc i64 @lrand48()

declare extern_weak x86_64_sysvcc i64 @malloc(i64)

declare extern_weak x86_64_sysvcc i64 @memalign(i64, i64)

declare extern_weak x86_64_sysvcc i64 @memcpy(i64, i64, i64)

declare extern_weak x86_64_sysvcc i64 @memset(i64, i64, i64)

declare extern_weak x86_64_sysvcc i64 @perror(i64)

declare extern_weak x86_64_sysvcc i64 @posix_memalign(i64, i64, i64)

declare extern_weak x86_64_sysvcc i64 @pow(i64, i64)

declare extern_weak x86_64_sysvcc i64 @printf(i64, i64, i64, i64, i64, i64, i64, i64, i64, i64, i64, i64, i64, i64, i64, i64)

declare extern_weak x86_64_sysvcc i64 @putchar(i64)

declare extern_weak x86_64_sysvcc i64 @puts(i64)

declare extern_weak x86_64_sysvcc i64 @rand()

declare extern_weak x86_64_sysvcc i64 @random()

declare extern_weak x86_64_sysvcc i64 @realloc(i64, i64)

declare extern_weak x86_64_sysvcc i64 @seed48(i64)

declare extern_weak x86_64_sysvcc i64 @sinf(i64)

declare extern_weak x86_64_sysvcc i64 @sprintf(i64, i64, i64, i64, i64, i64, i64, i64, i64, i64, i64, i64, i64, i64, i64, i64)

declare extern_weak x86_64_sysvcc i64 @srand(i64)

declare extern_weak x86_64_sysvcc i64 @strcat(i64, i64)

declare extern_weak x86_64_sysvcc i64 @strcmp(i64, i64)

declare extern_weak x86_64_sysvcc i64 @strcpy(i64, i64)

declare extern_weak x86_64_sysvcc i64 @strdup(i64)

declare extern_weak x86_64_sysvcc i64 @strlen(i64)

declare extern_weak x86_64_sysvcc i64 @strncmp(i64, i64, i64)

declare extern_weak x86_64_sysvcc i64 @strtoll(i64, i64, i64)

declare extern_weak x86_64_sysvcc i64 @time(i64)

declare extern_weak x86_64_sysvcc i64 @ungetc(i64, i64)

declare extern_weak x86_64_sysvcc i64 @pthread_join(i64, i64)

declare extern_weak x86_64_sysvcc i64 @pthread_create(i64, i64, i64, i64)

declare %struct.Memory* @__remill_function_call(%struct.State* dereferenceable(3376), i64, %struct.Memory*)

declare %struct.Memory* @ext_sqrt(%struct.State* noalias dereferenceable(3376), i64, %struct.Memory* noalias)

declare %struct.Memory* @ext_atan(%struct.State* noalias dereferenceable(3376), i64, %struct.Memory* noalias)

declare %struct.Memory* @ext_cos(%struct.State* noalias dereferenceable(3376), i64, %struct.Memory* noalias)

declare %struct.Memory* @ext_tan(%struct.State* noalias dereferenceable(3376), i64, %struct.Memory* noalias)

declare %struct.Memory* @ext_sin(%struct.State* noalias dereferenceable(3376), i64, %struct.Memory* noalias)

declare %struct.Memory* @sub_4013d0._Z4fillIPddEvT_S1_T0_(%struct.State* noalias dereferenceable(3376), i64, %struct.Memory* noalias readnone returned)

declare %struct.Memory* @sub_4012f0._ZN6DoubleC2ERKd(%struct.State* noalias dereferenceable(3376), i64, %struct.Memory* noalias readnone returned)

declare %struct.Memory* @sub_401410._Z4fillIP6DoubleS0_EvT_S2_T0_(%struct.State* noalias dereferenceable(3376), i64, %struct.Memory* noalias readnone returned)

declare %struct.Memory* @sub_400d30._Z5test0PdS_(%struct.State* noalias dereferenceable(3376), i64, %struct.Memory* noalias readnone returned)

declare %struct.Memory* @sub_401450._Z4testIPddEvT_S1_T0_(%struct.State* noalias dereferenceable(3376), i64, %struct.Memory* noalias readnone returned)

declare %struct.Memory* @sub_4014d0._Z4testIP6DoubleS0_EvT_S2_T0_(%struct.State* noalias dereferenceable(3376), i64, %struct.Memory* noalias readnone returned)

declare %struct.Memory* @sub_401570._Z4testI14double_pointerdEvT_S1_T0_(%struct.State* noalias dereferenceable(3376), i64, %struct.Memory* noalias readnone returned)

declare %struct.Memory* @sub_401600._Z4testI14Double_pointer6DoubleEvT_S2_T0_(%struct.State* noalias dereferenceable(3376), i64, %struct.Memory* noalias readnone returned)

declare %struct.Memory* @sub_4016b0._Z4testI16reverse_iteratorIPddEdEvT_S3_T0_(%struct.State* noalias dereferenceable(3376), i64, %struct.Memory* noalias readnone returned)

declare %struct.Memory* @sub_401740._Z4testI16reverse_iteratorIP6DoubleS1_ES1_EvT_S4_T0_(%struct.State* noalias dereferenceable(3376), i64, %struct.Memory* noalias readnone returned)

declare %struct.Memory* @sub_4017f0._Z4testI16reverse_iteratorI14double_pointerdEdEvT_S3_T0_(%struct.State* noalias dereferenceable(3376), i64, %struct.Memory* noalias readnone returned)

declare %struct.Memory* @sub_401880._Z4testI16reverse_iteratorI14Double_pointer6DoubleES2_EvT_S4_T0_(%struct.State* noalias dereferenceable(3376), i64, %struct.Memory* noalias readnone returned)

declare %struct.Memory* @sub_401930._Z4testI16reverse_iteratorIS0_IPddEdEdEvT_S4_T0_(%struct.State* noalias dereferenceable(3376), i64, %struct.Memory* noalias readnone returned)

declare %struct.Memory* @sub_4019c0._Z4testI16reverse_iteratorIS0_IP6DoubleS1_ES1_ES1_EvT_S5_T0_(%struct.State* noalias dereferenceable(3376), i64, %struct.Memory* noalias readnone returned)

declare %struct.Memory* @sub_401a70._Z4testI16reverse_iteratorIS0_I14double_pointerdEdEdEvT_S4_T0_(%struct.State* noalias dereferenceable(3376), i64, %struct.Memory* noalias readnone returned)

declare %struct.Memory* @sub_401b00._Z4testI16reverse_iteratorIS0_I14Double_pointer6DoubleES2_ES2_EvT_S5_T0_(%struct.State* noalias dereferenceable(3376), i64, %struct.Memory* noalias readnone returned)

declare %struct.Memory* @sub_400a80._Z9summarizev(%struct.State* noalias dereferenceable(3376), i64, %struct.Memory* noalias readnone returned)

; Function Attrs: alwaysinline
define %struct.Memory* @main(%struct.State* noalias, i64, %struct.Memory* noalias) #2 {
entry:
  %3 = getelementptr inbounds %struct.State, %struct.State* %0, i64 0, i32 6, i32 33, i32 0, i32 0
  store i64 %1, i64* %3, align 8
  %BRANCH_TAKEN = alloca i8, align 1
  store i8 0, i8* %BRANCH_TAKEN, align 1
  %MEMORY = alloca %struct.Memory*, align 8
  store %struct.Memory* %2, %struct.Memory** %MEMORY, align 8
  %loadMem_400df0 = load %struct.Memory*, %struct.Memory** %MEMORY
  %4 = getelementptr inbounds %struct.State, %struct.State* %0, i32 0, i32 6
  %5 = getelementptr inbounds %struct.GPR, %struct.GPR* %4, i32 0, i32 33
  %6 = getelementptr inbounds %struct.Reg, %struct.Reg* %5, i32 0, i32 0
  %PC.i = bitcast %union.anon* %6 to i64*
  %7 = getelementptr inbounds %struct.State, %struct.State* %0, i32 0, i32 6
  %8 = getelementptr inbounds %struct.GPR, %struct.GPR* %7, i32 0, i32 15
  %9 = getelementptr inbounds %struct.Reg, %struct.Reg* %8, i32 0, i32 0
  %RBP.i = bitcast %union.anon* %9 to i64*
  %10 = load i64, i64* %RBP.i
  %11 = load i64, i64* %PC.i
  %12 = add i64 %11, 1
  store i64 %12, i64* %PC.i
  %13 = getelementptr inbounds %struct.State, %struct.State* %0, i64 0, i32 6, i32 13, i32 0, i32 0
  %14 = load i64, i64* %13, align 8
  %15 = add i64 %14, -8
  %16 = inttoptr i64 %15 to i64*
  store i64 %10, i64* %16
  store i64 %15, i64* %13, align 8
  store %struct.Memory* %loadMem_400df0, %struct.Memory** %MEMORY
  %loadMem_400df1 = load %struct.Memory*, %struct.Memory** %MEMORY
  %17 = getelementptr inbounds %struct.State, %struct.State* %0, i32 0, i32 6
  %18 = getelementptr inbounds %struct.GPR, %struct.GPR* %17, i32 0, i32 33
  %19 = getelementptr inbounds %struct.Reg, %struct.Reg* %18, i32 0, i32 0
  %PC.i283 = bitcast %union.anon* %19 to i64*
  %20 = getelementptr inbounds %struct.State, %struct.State* %0, i32 0, i32 6
  %21 = getelementptr inbounds %struct.GPR, %struct.GPR* %20, i32 0, i32 13
  %22 = getelementptr inbounds %struct.Reg, %struct.Reg* %21, i32 0, i32 0
  %RSP.i284 = bitcast %union.anon* %22 to i64*
  %23 = getelementptr inbounds %struct.State, %struct.State* %0, i32 0, i32 6
  %24 = getelementptr inbounds %struct.GPR, %struct.GPR* %23, i32 0, i32 15
  %25 = getelementptr inbounds %struct.Reg, %struct.Reg* %24, i32 0, i32 0
  %RBP.i285 = bitcast %union.anon* %25 to i64*
  %26 = load i64, i64* %RSP.i284
  %27 = load i64, i64* %PC.i283
  %28 = add i64 %27, 3
  store i64 %28, i64* %PC.i283
  store i64 %26, i64* %RBP.i285, align 8
  store %struct.Memory* %loadMem_400df1, %struct.Memory** %MEMORY
  %loadMem_400df4 = load %struct.Memory*, %struct.Memory** %MEMORY
  %29 = getelementptr inbounds %struct.State, %struct.State* %0, i32 0, i32 6
  %30 = getelementptr inbounds %struct.GPR, %struct.GPR* %29, i32 0, i32 33
  %31 = getelementptr inbounds %struct.Reg, %struct.Reg* %30, i32 0, i32 0
  %PC.i303 = bitcast %union.anon* %31 to i64*
  %32 = getelementptr inbounds %struct.State, %struct.State* %0, i32 0, i32 6
  %33 = getelementptr inbounds %struct.GPR, %struct.GPR* %32, i32 0, i32 13
  %34 = getelementptr inbounds %struct.Reg, %struct.Reg* %33, i32 0, i32 0
  %RSP.i304 = bitcast %union.anon* %34 to i64*
  %35 = load i64, i64* %RSP.i304
  %36 = load i64, i64* %PC.i303
  %37 = add i64 %36, 7
  store i64 %37, i64* %PC.i303
  %38 = sub i64 %35, 256
  store i64 %38, i64* %RSP.i304, align 8
  %39 = icmp ult i64 %35, 256
  %40 = zext i1 %39 to i8
  %41 = getelementptr inbounds %struct.State, %struct.State* %0, i64 0, i32 2, i32 1
  store i8 %40, i8* %41, align 1
  %42 = trunc i64 %38 to i32
  %43 = and i32 %42, 255
  %44 = call i32 @llvm.ctpop.i32(i32 %43)
  %45 = trunc i32 %44 to i8
  %46 = and i8 %45, 1
  %47 = xor i8 %46, 1
  %48 = getelementptr inbounds %struct.State, %struct.State* %0, i64 0, i32 2, i32 3
  store i8 %47, i8* %48, align 1
  %49 = xor i64 256, %35
  %50 = xor i64 %49, %38
  %51 = lshr i64 %50, 4
  %52 = trunc i64 %51 to i8
  %53 = and i8 %52, 1
  %54 = getelementptr inbounds %struct.State, %struct.State* %0, i64 0, i32 2, i32 5
  store i8 %53, i8* %54, align 1
  %55 = icmp eq i64 %38, 0
  %56 = zext i1 %55 to i8
  %57 = getelementptr inbounds %struct.State, %struct.State* %0, i64 0, i32 2, i32 7
  store i8 %56, i8* %57, align 1
  %58 = lshr i64 %38, 63
  %59 = trunc i64 %58 to i8
  %60 = getelementptr inbounds %struct.State, %struct.State* %0, i64 0, i32 2, i32 9
  store i8 %59, i8* %60, align 1
  %61 = lshr i64 %35, 63
  %62 = xor i64 %58, %61
  %63 = add i64 %62, %61
  %64 = icmp eq i64 %63, 2
  %65 = zext i1 %64 to i8
  %66 = getelementptr inbounds %struct.State, %struct.State* %0, i64 0, i32 2, i32 13
  store i8 %65, i8* %66, align 1
  store %struct.Memory* %loadMem_400df4, %struct.Memory** %MEMORY
  %loadMem_400dfb = load %struct.Memory*, %struct.Memory** %MEMORY
  %67 = getelementptr inbounds %struct.State, %struct.State* %0, i32 0, i32 6
  %68 = getelementptr inbounds %struct.GPR, %struct.GPR* %67, i32 0, i32 33
  %69 = getelementptr inbounds %struct.Reg, %struct.Reg* %68, i32 0, i32 0
  %PC.i301 = bitcast %union.anon* %69 to i64*
  %70 = getelementptr inbounds %struct.State, %struct.State* %0, i32 0, i32 6
  %71 = getelementptr inbounds %struct.GPR, %struct.GPR* %70, i32 0, i32 15
  %72 = getelementptr inbounds %struct.Reg, %struct.Reg* %71, i32 0, i32 0
  %RBP.i302 = bitcast %union.anon* %72 to i64*
  %73 = load i64, i64* %RBP.i302
  %74 = sub i64 %73, 4
  %75 = load i64, i64* %PC.i301
  %76 = add i64 %75, 7
  store i64 %76, i64* %PC.i301
  %77 = inttoptr i64 %74 to i32*
  store i32 0, i32* %77
  store %struct.Memory* %loadMem_400dfb, %struct.Memory** %MEMORY
  %loadMem_400e02 = load %struct.Memory*, %struct.Memory** %MEMORY
  %78 = getelementptr inbounds %struct.State, %struct.State* %0, i32 0, i32 6
  %79 = getelementptr inbounds %struct.GPR, %struct.GPR* %78, i32 0, i32 33
  %80 = getelementptr inbounds %struct.Reg, %struct.Reg* %79, i32 0, i32 0
  %PC.i299 = bitcast %union.anon* %80 to i64*
  %81 = getelementptr inbounds %struct.State, %struct.State* %0, i32 0, i32 6
  %82 = getelementptr inbounds %struct.GPR, %struct.GPR* %81, i32 0, i32 11
  %83 = getelementptr inbounds %struct.Reg, %struct.Reg* %82, i32 0, i32 0
  %EDI.i = bitcast %union.anon* %83 to i32*
  %84 = getelementptr inbounds %struct.State, %struct.State* %0, i32 0, i32 6
  %85 = getelementptr inbounds %struct.GPR, %struct.GPR* %84, i32 0, i32 15
  %86 = getelementptr inbounds %struct.Reg, %struct.Reg* %85, i32 0, i32 0
  %RBP.i300 = bitcast %union.anon* %86 to i64*
  %87 = load i64, i64* %RBP.i300
  %88 = sub i64 %87, 8
  %89 = load i32, i32* %EDI.i
  %90 = zext i32 %89 to i64
  %91 = load i64, i64* %PC.i299
  %92 = add i64 %91, 3
  store i64 %92, i64* %PC.i299
  %93 = inttoptr i64 %88 to i32*
  store i32 %89, i32* %93
  store %struct.Memory* %loadMem_400e02, %struct.Memory** %MEMORY
  %loadMem_400e05 = load %struct.Memory*, %struct.Memory** %MEMORY
  %94 = getelementptr inbounds %struct.State, %struct.State* %0, i32 0, i32 6
  %95 = getelementptr inbounds %struct.GPR, %struct.GPR* %94, i32 0, i32 33
  %96 = getelementptr inbounds %struct.Reg, %struct.Reg* %95, i32 0, i32 0
  %PC.i296 = bitcast %union.anon* %96 to i64*
  %97 = getelementptr inbounds %struct.State, %struct.State* %0, i32 0, i32 6
  %98 = getelementptr inbounds %struct.GPR, %struct.GPR* %97, i32 0, i32 9
  %99 = getelementptr inbounds %struct.Reg, %struct.Reg* %98, i32 0, i32 0
  %RSI.i297 = bitcast %union.anon* %99 to i64*
  %100 = getelementptr inbounds %struct.State, %struct.State* %0, i32 0, i32 6
  %101 = getelementptr inbounds %struct.GPR, %struct.GPR* %100, i32 0, i32 15
  %102 = getelementptr inbounds %struct.Reg, %struct.Reg* %101, i32 0, i32 0
  %RBP.i298 = bitcast %union.anon* %102 to i64*
  %103 = load i64, i64* %RBP.i298
  %104 = sub i64 %103, 16
  %105 = load i64, i64* %RSI.i297
  %106 = load i64, i64* %PC.i296
  %107 = add i64 %106, 4
  store i64 %107, i64* %PC.i296
  %108 = inttoptr i64 %104 to i64*
  store i64 %105, i64* %108
  store %struct.Memory* %loadMem_400e05, %struct.Memory** %MEMORY
  %loadMem_400e09 = load %struct.Memory*, %struct.Memory** %MEMORY
  %109 = getelementptr inbounds %struct.State, %struct.State* %0, i32 0, i32 6
  %110 = getelementptr inbounds %struct.GPR, %struct.GPR* %109, i32 0, i32 33
  %111 = getelementptr inbounds %struct.Reg, %struct.Reg* %110, i32 0, i32 0
  %PC.i294 = bitcast %union.anon* %111 to i64*
  %112 = getelementptr inbounds %struct.State, %struct.State* %0, i32 0, i32 6
  %113 = getelementptr inbounds %struct.GPR, %struct.GPR* %112, i32 0, i32 15
  %114 = getelementptr inbounds %struct.Reg, %struct.Reg* %113, i32 0, i32 0
  %RBP.i295 = bitcast %union.anon* %114 to i64*
  %115 = load i64, i64* %RBP.i295
  %116 = sub i64 %115, 8
  %117 = load i64, i64* %PC.i294
  %118 = add i64 %117, 4
  store i64 %118, i64* %PC.i294
  %119 = inttoptr i64 %116 to i32*
  %120 = load i32, i32* %119
  %121 = sub i32 %120, 1
  %122 = icmp ult i32 %120, 1
  %123 = zext i1 %122 to i8
  %124 = getelementptr inbounds %struct.State, %struct.State* %0, i64 0, i32 2, i32 1
  store i8 %123, i8* %124, align 1
  %125 = and i32 %121, 255
  %126 = call i32 @llvm.ctpop.i32(i32 %125)
  %127 = trunc i32 %126 to i8
  %128 = and i8 %127, 1
  %129 = xor i8 %128, 1
  %130 = getelementptr inbounds %struct.State, %struct.State* %0, i64 0, i32 2, i32 3
  store i8 %129, i8* %130, align 1
  %131 = xor i32 %120, 1
  %132 = xor i32 %131, %121
  %133 = lshr i32 %132, 4
  %134 = trunc i32 %133 to i8
  %135 = and i8 %134, 1
  %136 = getelementptr inbounds %struct.State, %struct.State* %0, i64 0, i32 2, i32 5
  store i8 %135, i8* %136, align 1
  %137 = icmp eq i32 %121, 0
  %138 = zext i1 %137 to i8
  %139 = getelementptr inbounds %struct.State, %struct.State* %0, i64 0, i32 2, i32 7
  store i8 %138, i8* %139, align 1
  %140 = lshr i32 %121, 31
  %141 = trunc i32 %140 to i8
  %142 = getelementptr inbounds %struct.State, %struct.State* %0, i64 0, i32 2, i32 9
  store i8 %141, i8* %142, align 1
  %143 = lshr i32 %120, 31
  %144 = xor i32 %140, %143
  %145 = add i32 %144, %143
  %146 = icmp eq i32 %145, 2
  %147 = zext i1 %146 to i8
  %148 = getelementptr inbounds %struct.State, %struct.State* %0, i64 0, i32 2, i32 13
  store i8 %147, i8* %148, align 1
  store %struct.Memory* %loadMem_400e09, %struct.Memory** %MEMORY
  %loadMem_400e0d = load %struct.Memory*, %struct.Memory** %MEMORY
  %149 = getelementptr inbounds %struct.State, %struct.State* %0, i32 0, i32 6
  %150 = getelementptr inbounds %struct.GPR, %struct.GPR* %149, i32 0, i32 33
  %151 = getelementptr inbounds %struct.Reg, %struct.Reg* %150, i32 0, i32 0
  %PC.i293 = bitcast %union.anon* %151 to i64*
  %152 = load i64, i64* %PC.i293
  %153 = add i64 %152, 26
  %154 = load i64, i64* %PC.i293
  %155 = add i64 %154, 6
  %156 = load i64, i64* %PC.i293
  %157 = add i64 %156, 6
  store i64 %157, i64* %PC.i293
  %158 = getelementptr inbounds %struct.State, %struct.State* %0, i64 0, i32 2, i32 7
  %159 = load i8, i8* %158, align 1
  %160 = icmp ne i8 %159, 0
  %161 = getelementptr inbounds %struct.State, %struct.State* %0, i64 0, i32 2, i32 9
  %162 = load i8, i8* %161, align 1
  %163 = icmp ne i8 %162, 0
  %164 = getelementptr inbounds %struct.State, %struct.State* %0, i64 0, i32 2, i32 13
  %165 = load i8, i8* %164, align 1
  %166 = icmp ne i8 %165, 0
  %167 = xor i1 %163, %166
  %168 = or i1 %160, %167
  %169 = zext i1 %168 to i8
  store i8 %169, i8* %BRANCH_TAKEN, align 1
  %170 = getelementptr inbounds %struct.State, %struct.State* %0, i64 0, i32 6, i32 33, i32 0, i32 0
  %171 = select i1 %168, i64 %153, i64 %155
  store i64 %171, i64* %170, align 8
  store %struct.Memory* %loadMem_400e0d, %struct.Memory** %MEMORY
  %loadBr_400e0d = load i8, i8* %BRANCH_TAKEN
  %cmpBr_400e0d = icmp eq i8 %loadBr_400e0d, 1
  br i1 %cmpBr_400e0d, label %block_.L_400e27, label %block_400e13

block_400e13:                                     ; preds = %entry
  %loadMem_400e13 = load %struct.Memory*, %struct.Memory** %MEMORY
  %172 = getelementptr inbounds %struct.State, %struct.State* %0, i32 0, i32 6
  %173 = getelementptr inbounds %struct.GPR, %struct.GPR* %172, i32 0, i32 33
  %174 = getelementptr inbounds %struct.Reg, %struct.Reg* %173, i32 0, i32 0
  %PC.i290 = bitcast %union.anon* %174 to i64*
  %175 = getelementptr inbounds %struct.State, %struct.State* %0, i32 0, i32 6
  %176 = getelementptr inbounds %struct.GPR, %struct.GPR* %175, i32 0, i32 1
  %177 = getelementptr inbounds %struct.Reg, %struct.Reg* %176, i32 0, i32 0
  %RAX.i291 = bitcast %union.anon* %177 to i64*
  %178 = getelementptr inbounds %struct.State, %struct.State* %0, i32 0, i32 6
  %179 = getelementptr inbounds %struct.GPR, %struct.GPR* %178, i32 0, i32 15
  %180 = getelementptr inbounds %struct.Reg, %struct.Reg* %179, i32 0, i32 0
  %RBP.i292 = bitcast %union.anon* %180 to i64*
  %181 = load i64, i64* %RBP.i292
  %182 = sub i64 %181, 16
  %183 = load i64, i64* %PC.i290
  %184 = add i64 %183, 4
  store i64 %184, i64* %PC.i290
  %185 = inttoptr i64 %182 to i64*
  %186 = load i64, i64* %185
  store i64 %186, i64* %RAX.i291, align 8
  store %struct.Memory* %loadMem_400e13, %struct.Memory** %MEMORY
  %loadMem_400e17 = load %struct.Memory*, %struct.Memory** %MEMORY
  %187 = getelementptr inbounds %struct.State, %struct.State* %0, i32 0, i32 6
  %188 = getelementptr inbounds %struct.GPR, %struct.GPR* %187, i32 0, i32 33
  %189 = getelementptr inbounds %struct.Reg, %struct.Reg* %188, i32 0, i32 0
  %PC.i287 = bitcast %union.anon* %189 to i64*
  %190 = getelementptr inbounds %struct.State, %struct.State* %0, i32 0, i32 6
  %191 = getelementptr inbounds %struct.GPR, %struct.GPR* %190, i32 0, i32 1
  %192 = getelementptr inbounds %struct.Reg, %struct.Reg* %191, i32 0, i32 0
  %RAX.i288 = bitcast %union.anon* %192 to i64*
  %193 = getelementptr inbounds %struct.State, %struct.State* %0, i32 0, i32 6
  %194 = getelementptr inbounds %struct.GPR, %struct.GPR* %193, i32 0, i32 11
  %195 = getelementptr inbounds %struct.Reg, %struct.Reg* %194, i32 0, i32 0
  %RDI.i289 = bitcast %union.anon* %195 to i64*
  %196 = load i64, i64* %RAX.i288
  %197 = add i64 %196, 8
  %198 = load i64, i64* %PC.i287
  %199 = add i64 %198, 4
  store i64 %199, i64* %PC.i287
  %200 = inttoptr i64 %197 to i64*
  %201 = load i64, i64* %200
  store i64 %201, i64* %RDI.i289, align 8
  store %struct.Memory* %loadMem_400e17, %struct.Memory** %MEMORY
  %loadMem1_400e1b = load %struct.Memory*, %struct.Memory** %MEMORY
  %202 = getelementptr inbounds %struct.State, %struct.State* %0, i32 0, i32 6
  %203 = getelementptr inbounds %struct.GPR, %struct.GPR* %202, i32 0, i32 33
  %204 = getelementptr inbounds %struct.Reg, %struct.Reg* %203, i32 0, i32 0
  %PC.i286 = bitcast %union.anon* %204 to i64*
  %205 = load i64, i64* %PC.i286
  %206 = add i64 %205, -2283
  %207 = load i64, i64* %PC.i286
  %208 = add i64 %207, 5
  %209 = load i64, i64* %PC.i286
  %210 = add i64 %209, 5
  store i64 %210, i64* %PC.i286
  %211 = getelementptr inbounds %struct.State, %struct.State* %0, i64 0, i32 6, i32 13, i32 0, i32 0
  %212 = load i64, i64* %211, align 8
  %213 = add i64 %212, -8
  %214 = inttoptr i64 %213 to i64*
  store i64 %208, i64* %214
  store i64 %213, i64* %211, align 8
  %215 = getelementptr inbounds %struct.State, %struct.State* %0, i64 0, i32 6, i32 33, i32 0, i32 0
  store i64 %206, i64* %215, align 8
  store %struct.Memory* %loadMem1_400e1b, %struct.Memory** %MEMORY
  %loadMem2_400e1b = load %struct.Memory*, %struct.Memory** %MEMORY
  %loadPC_400e1b = load i64, i64* %3
  %216 = call %struct.Memory* @__remill_function_call(%struct.State* %0, i64 ptrtoint (i64 (i64)* @atoi to i64), %struct.Memory* %loadMem2_400e1b)
  store %struct.Memory* %216, %struct.Memory** %MEMORY
  %loadMem_400e20 = load %struct.Memory*, %struct.Memory** %MEMORY
  %217 = getelementptr inbounds %struct.State, %struct.State* %0, i32 0, i32 6
  %218 = getelementptr inbounds %struct.GPR, %struct.GPR* %217, i32 0, i32 33
  %219 = getelementptr inbounds %struct.Reg, %struct.Reg* %218, i32 0, i32 0
  %PC.i281 = bitcast %union.anon* %219 to i64*
  %220 = getelementptr inbounds %struct.State, %struct.State* %0, i32 0, i32 6
  %221 = getelementptr inbounds %struct.GPR, %struct.GPR* %220, i32 0, i32 1
  %222 = getelementptr inbounds %struct.Reg, %struct.Reg* %221, i32 0, i32 0
  %EAX.i282 = bitcast %union.anon* %222 to i32*
  %223 = load i32, i32* %EAX.i282
  %224 = zext i32 %223 to i64
  %225 = load i64, i64* %PC.i281
  %226 = add i64 %225, 7
  store i64 %226, i64* %PC.i281
  store i32 %223, i32* bitcast (%G_0x605050_type* @G_0x605050 to i32*)
  store %struct.Memory* %loadMem_400e20, %struct.Memory** %MEMORY
  br label %block_.L_400e27

block_.L_400e27:                                  ; preds = %block_400e13, %entry
  %loadMem_400e27 = load %struct.Memory*, %struct.Memory** %MEMORY
  %227 = getelementptr inbounds %struct.State, %struct.State* %0, i32 0, i32 6
  %228 = getelementptr inbounds %struct.GPR, %struct.GPR* %227, i32 0, i32 33
  %229 = getelementptr inbounds %struct.Reg, %struct.Reg* %228, i32 0, i32 0
  %PC.i279 = bitcast %union.anon* %229 to i64*
  %230 = getelementptr inbounds %struct.State, %struct.State* %0, i32 0, i32 1
  %231 = getelementptr inbounds [32 x %union.VectorReg], [32 x %union.VectorReg]* %230, i64 0, i64 0
  %YMM0.i280 = bitcast %union.VectorReg* %231 to %"class.std::bitset"*
  %232 = bitcast %"class.std::bitset"* %YMM0.i280 to i8*
  %233 = load i64, i64* %PC.i279
  %234 = load i64, i64* %PC.i279
  %235 = add i64 %234, 8
  store i64 %235, i64* %PC.i279
  %236 = load double, double* bitcast (%G_0x1f01__rip__type* @G_0x1f01__rip_ to double*)
  %237 = bitcast i8* %232 to double*
  store double %236, double* %237, align 1
  %238 = getelementptr inbounds i8, i8* %232, i64 8
  %239 = bitcast i8* %238 to double*
  store double 0.000000e+00, double* %239, align 1
  store %struct.Memory* %loadMem_400e27, %struct.Memory** %MEMORY
  %loadMem_400e2f = load %struct.Memory*, %struct.Memory** %MEMORY
  %240 = getelementptr inbounds %struct.State, %struct.State* %0, i32 0, i32 6
  %241 = getelementptr inbounds %struct.GPR, %struct.GPR* %240, i32 0, i32 33
  %242 = getelementptr inbounds %struct.Reg, %struct.Reg* %241, i32 0, i32 0
  %PC.i277 = bitcast %union.anon* %242 to i64*
  %243 = getelementptr inbounds %struct.State, %struct.State* %0, i32 0, i32 6
  %244 = getelementptr inbounds %struct.GPR, %struct.GPR* %243, i32 0, i32 11
  %245 = getelementptr inbounds %struct.Reg, %struct.Reg* %244, i32 0, i32 0
  %RDI.i278 = bitcast %union.anon* %245 to i64*
  %246 = load i64, i64* %PC.i277
  %247 = add i64 %246, 8
  store i64 %247, i64* %PC.i277
  %248 = load i64, i64* bitcast (%G_0x605058_type* @G_0x605058 to i64*)
  store i64 %248, i64* %RDI.i278, align 8
  store %struct.Memory* %loadMem_400e2f, %struct.Memory** %MEMORY
  %loadMem_400e37 = load %struct.Memory*, %struct.Memory** %MEMORY
  %249 = getelementptr inbounds %struct.State, %struct.State* %0, i32 0, i32 6
  %250 = getelementptr inbounds %struct.GPR, %struct.GPR* %249, i32 0, i32 33
  %251 = getelementptr inbounds %struct.Reg, %struct.Reg* %250, i32 0, i32 0
  %PC.i275 = bitcast %union.anon* %251 to i64*
  %252 = getelementptr inbounds %struct.State, %struct.State* %0, i32 0, i32 6
  %253 = getelementptr inbounds %struct.GPR, %struct.GPR* %252, i32 0, i32 9
  %254 = getelementptr inbounds %struct.Reg, %struct.Reg* %253, i32 0, i32 0
  %RSI.i276 = bitcast %union.anon* %254 to i64*
  %255 = load i64, i64* %PC.i275
  %256 = add i64 %255, 8
  store i64 %256, i64* %PC.i275
  %257 = load i64, i64* bitcast (%G_0x605060_type* @G_0x605060 to i64*)
  store i64 %257, i64* %RSI.i276, align 8
  store %struct.Memory* %loadMem_400e37, %struct.Memory** %MEMORY
  %loadMem1_400e3f = load %struct.Memory*, %struct.Memory** %MEMORY
  %258 = getelementptr inbounds %struct.State, %struct.State* %0, i32 0, i32 6
  %259 = getelementptr inbounds %struct.GPR, %struct.GPR* %258, i32 0, i32 33
  %260 = getelementptr inbounds %struct.Reg, %struct.Reg* %259, i32 0, i32 0
  %PC.i274 = bitcast %union.anon* %260 to i64*
  %261 = load i64, i64* %PC.i274
  %262 = add i64 %261, 1425
  %263 = load i64, i64* %PC.i274
  %264 = add i64 %263, 5
  %265 = load i64, i64* %PC.i274
  %266 = add i64 %265, 5
  store i64 %266, i64* %PC.i274
  %267 = getelementptr inbounds %struct.State, %struct.State* %0, i64 0, i32 6, i32 13, i32 0, i32 0
  %268 = load i64, i64* %267, align 8
  %269 = add i64 %268, -8
  %270 = inttoptr i64 %269 to i64*
  store i64 %264, i64* %270
  store i64 %269, i64* %267, align 8
  %271 = getelementptr inbounds %struct.State, %struct.State* %0, i64 0, i32 6, i32 33, i32 0, i32 0
  store i64 %262, i64* %271, align 8
  store %struct.Memory* %loadMem1_400e3f, %struct.Memory** %MEMORY
  %loadMem2_400e3f = load %struct.Memory*, %struct.Memory** %MEMORY
  %loadPC_400e3f = load i64, i64* %3
  %call2_400e3f = call %struct.Memory* @sub_4013d0._Z4fillIPddEvT_S1_T0_(%struct.State* %0, i64 %loadPC_400e3f, %struct.Memory* %loadMem2_400e3f)
  store %struct.Memory* %call2_400e3f, %struct.Memory** %MEMORY
  %loadMem_400e44 = load %struct.Memory*, %struct.Memory** %MEMORY
  %272 = getelementptr inbounds %struct.State, %struct.State* %0, i32 0, i32 6
  %273 = getelementptr inbounds %struct.GPR, %struct.GPR* %272, i32 0, i32 33
  %274 = getelementptr inbounds %struct.Reg, %struct.Reg* %273, i32 0, i32 0
  %PC.i271 = bitcast %union.anon* %274 to i64*
  %275 = getelementptr inbounds %struct.State, %struct.State* %0, i32 0, i32 6
  %276 = getelementptr inbounds %struct.GPR, %struct.GPR* %275, i32 0, i32 11
  %277 = getelementptr inbounds %struct.Reg, %struct.Reg* %276, i32 0, i32 0
  %RDI.i272 = bitcast %union.anon* %277 to i64*
  %278 = getelementptr inbounds %struct.State, %struct.State* %0, i32 0, i32 6
  %279 = getelementptr inbounds %struct.GPR, %struct.GPR* %278, i32 0, i32 15
  %280 = getelementptr inbounds %struct.Reg, %struct.Reg* %279, i32 0, i32 0
  %RBP.i273 = bitcast %union.anon* %280 to i64*
  %281 = load i64, i64* %RBP.i273
  %282 = sub i64 %281, 24
  %283 = load i64, i64* %PC.i271
  %284 = add i64 %283, 4
  store i64 %284, i64* %PC.i271
  store i64 %282, i64* %RDI.i272, align 8
  store %struct.Memory* %loadMem_400e44, %struct.Memory** %MEMORY
  %loadMem_400e48 = load %struct.Memory*, %struct.Memory** %MEMORY
  %285 = getelementptr inbounds %struct.State, %struct.State* %0, i32 0, i32 6
  %286 = getelementptr inbounds %struct.GPR, %struct.GPR* %285, i32 0, i32 33
  %287 = getelementptr inbounds %struct.Reg, %struct.Reg* %286, i32 0, i32 0
  %PC.i269 = bitcast %union.anon* %287 to i64*
  %288 = getelementptr inbounds %struct.State, %struct.State* %0, i32 0, i32 6
  %289 = getelementptr inbounds %struct.GPR, %struct.GPR* %288, i32 0, i32 9
  %290 = getelementptr inbounds %struct.Reg, %struct.Reg* %289, i32 0, i32 0
  %RSI.i270 = bitcast %union.anon* %290 to i64*
  %291 = load i64, i64* %PC.i269
  %292 = add i64 %291, 10
  store i64 %292, i64* %PC.i269
  store i64 ptrtoint (%G__0x402e38_type* @G__0x402e38 to i64), i64* %RSI.i270, align 8
  store %struct.Memory* %loadMem_400e48, %struct.Memory** %MEMORY
  %loadMem_400e52 = load %struct.Memory*, %struct.Memory** %MEMORY
  %293 = getelementptr inbounds %struct.State, %struct.State* %0, i32 0, i32 6
  %294 = getelementptr inbounds %struct.GPR, %struct.GPR* %293, i32 0, i32 33
  %295 = getelementptr inbounds %struct.Reg, %struct.Reg* %294, i32 0, i32 0
  %PC.i267 = bitcast %union.anon* %295 to i64*
  %296 = getelementptr inbounds %struct.State, %struct.State* %0, i32 0, i32 6
  %297 = getelementptr inbounds %struct.GPR, %struct.GPR* %296, i32 0, i32 1
  %298 = getelementptr inbounds %struct.Reg, %struct.Reg* %297, i32 0, i32 0
  %RAX.i268 = bitcast %union.anon* %298 to i64*
  %299 = load i64, i64* %PC.i267
  %300 = add i64 %299, 8
  store i64 %300, i64* %PC.i267
  %301 = load i64, i64* bitcast (%G_0x605068_type* @G_0x605068 to i64*)
  store i64 %301, i64* %RAX.i268, align 8
  store %struct.Memory* %loadMem_400e52, %struct.Memory** %MEMORY
  %loadMem_400e5a = load %struct.Memory*, %struct.Memory** %MEMORY
  %302 = getelementptr inbounds %struct.State, %struct.State* %0, i32 0, i32 6
  %303 = getelementptr inbounds %struct.GPR, %struct.GPR* %302, i32 0, i32 33
  %304 = getelementptr inbounds %struct.Reg, %struct.Reg* %303, i32 0, i32 0
  %PC.i265 = bitcast %union.anon* %304 to i64*
  %305 = getelementptr inbounds %struct.State, %struct.State* %0, i32 0, i32 6
  %306 = getelementptr inbounds %struct.GPR, %struct.GPR* %305, i32 0, i32 5
  %307 = getelementptr inbounds %struct.Reg, %struct.Reg* %306, i32 0, i32 0
  %RCX.i266 = bitcast %union.anon* %307 to i64*
  %308 = load i64, i64* %PC.i265
  %309 = add i64 %308, 8
  store i64 %309, i64* %PC.i265
  %310 = load i64, i64* bitcast (%G_0x605070_type* @G_0x605070 to i64*)
  store i64 %310, i64* %RCX.i266, align 8
  store %struct.Memory* %loadMem_400e5a, %struct.Memory** %MEMORY
  %loadMem_400e62 = load %struct.Memory*, %struct.Memory** %MEMORY
  %311 = getelementptr inbounds %struct.State, %struct.State* %0, i32 0, i32 6
  %312 = getelementptr inbounds %struct.GPR, %struct.GPR* %311, i32 0, i32 33
  %313 = getelementptr inbounds %struct.Reg, %struct.Reg* %312, i32 0, i32 0
  %PC.i263 = bitcast %union.anon* %313 to i64*
  %314 = getelementptr inbounds %struct.State, %struct.State* %0, i32 0, i32 6
  %315 = getelementptr inbounds %struct.GPR, %struct.GPR* %314, i32 0, i32 5
  %316 = getelementptr inbounds %struct.Reg, %struct.Reg* %315, i32 0, i32 0
  %RCX.i = bitcast %union.anon* %316 to i64*
  %317 = getelementptr inbounds %struct.State, %struct.State* %0, i32 0, i32 6
  %318 = getelementptr inbounds %struct.GPR, %struct.GPR* %317, i32 0, i32 15
  %319 = getelementptr inbounds %struct.Reg, %struct.Reg* %318, i32 0, i32 0
  %RBP.i264 = bitcast %union.anon* %319 to i64*
  %320 = load i64, i64* %RBP.i264
  %321 = sub i64 %320, 240
  %322 = load i64, i64* %RCX.i
  %323 = load i64, i64* %PC.i263
  %324 = add i64 %323, 7
  store i64 %324, i64* %PC.i263
  %325 = inttoptr i64 %321 to i64*
  store i64 %322, i64* %325
  store %struct.Memory* %loadMem_400e62, %struct.Memory** %MEMORY
  %loadMem_400e69 = load %struct.Memory*, %struct.Memory** %MEMORY
  %326 = getelementptr inbounds %struct.State, %struct.State* %0, i32 0, i32 6
  %327 = getelementptr inbounds %struct.GPR, %struct.GPR* %326, i32 0, i32 33
  %328 = getelementptr inbounds %struct.Reg, %struct.Reg* %327, i32 0, i32 0
  %PC.i260 = bitcast %union.anon* %328 to i64*
  %329 = getelementptr inbounds %struct.State, %struct.State* %0, i32 0, i32 6
  %330 = getelementptr inbounds %struct.GPR, %struct.GPR* %329, i32 0, i32 1
  %331 = getelementptr inbounds %struct.Reg, %struct.Reg* %330, i32 0, i32 0
  %RAX.i261 = bitcast %union.anon* %331 to i64*
  %332 = getelementptr inbounds %struct.State, %struct.State* %0, i32 0, i32 6
  %333 = getelementptr inbounds %struct.GPR, %struct.GPR* %332, i32 0, i32 15
  %334 = getelementptr inbounds %struct.Reg, %struct.Reg* %333, i32 0, i32 0
  %RBP.i262 = bitcast %union.anon* %334 to i64*
  %335 = load i64, i64* %RBP.i262
  %336 = sub i64 %335, 248
  %337 = load i64, i64* %RAX.i261
  %338 = load i64, i64* %PC.i260
  %339 = add i64 %338, 7
  store i64 %339, i64* %PC.i260
  %340 = inttoptr i64 %336 to i64*
  store i64 %337, i64* %340
  store %struct.Memory* %loadMem_400e69, %struct.Memory** %MEMORY
  %loadMem1_400e70 = load %struct.Memory*, %struct.Memory** %MEMORY
  %341 = getelementptr inbounds %struct.State, %struct.State* %0, i32 0, i32 6
  %342 = getelementptr inbounds %struct.GPR, %struct.GPR* %341, i32 0, i32 33
  %343 = getelementptr inbounds %struct.Reg, %struct.Reg* %342, i32 0, i32 0
  %PC.i259 = bitcast %union.anon* %343 to i64*
  %344 = load i64, i64* %PC.i259
  %345 = add i64 %344, 1152
  %346 = load i64, i64* %PC.i259
  %347 = add i64 %346, 5
  %348 = load i64, i64* %PC.i259
  %349 = add i64 %348, 5
  store i64 %349, i64* %PC.i259
  %350 = getelementptr inbounds %struct.State, %struct.State* %0, i64 0, i32 6, i32 13, i32 0, i32 0
  %351 = load i64, i64* %350, align 8
  %352 = add i64 %351, -8
  %353 = inttoptr i64 %352 to i64*
  store i64 %347, i64* %353
  store i64 %352, i64* %350, align 8
  %354 = getelementptr inbounds %struct.State, %struct.State* %0, i64 0, i32 6, i32 33, i32 0, i32 0
  store i64 %345, i64* %354, align 8
  store %struct.Memory* %loadMem1_400e70, %struct.Memory** %MEMORY
  %loadMem2_400e70 = load %struct.Memory*, %struct.Memory** %MEMORY
  %loadPC_400e70 = load i64, i64* %3
  %call2_400e70 = call %struct.Memory* @sub_4012f0._ZN6DoubleC2ERKd(%struct.State* %0, i64 %loadPC_400e70, %struct.Memory* %loadMem2_400e70)
  store %struct.Memory* %call2_400e70, %struct.Memory** %MEMORY
  %loadMem_400e75 = load %struct.Memory*, %struct.Memory** %MEMORY
  %355 = getelementptr inbounds %struct.State, %struct.State* %0, i32 0, i32 6
  %356 = getelementptr inbounds %struct.GPR, %struct.GPR* %355, i32 0, i32 33
  %357 = getelementptr inbounds %struct.Reg, %struct.Reg* %356, i32 0, i32 0
  %PC.i256 = bitcast %union.anon* %357 to i64*
  %358 = getelementptr inbounds %struct.State, %struct.State* %0, i32 0, i32 6
  %359 = getelementptr inbounds %struct.GPR, %struct.GPR* %358, i32 0, i32 15
  %360 = getelementptr inbounds %struct.Reg, %struct.Reg* %359, i32 0, i32 0
  %RBP.i257 = bitcast %union.anon* %360 to i64*
  %361 = getelementptr inbounds %struct.State, %struct.State* %0, i32 0, i32 1
  %362 = getelementptr inbounds [32 x %union.VectorReg], [32 x %union.VectorReg]* %361, i64 0, i64 0
  %YMM0.i258 = bitcast %union.VectorReg* %362 to %"class.std::bitset"*
  %363 = bitcast %"class.std::bitset"* %YMM0.i258 to i8*
  %364 = load i64, i64* %RBP.i257
  %365 = sub i64 %364, 24
  %366 = load i64, i64* %PC.i256
  %367 = add i64 %366, 5
  store i64 %367, i64* %PC.i256
  %368 = inttoptr i64 %365 to double*
  %369 = load double, double* %368
  %370 = bitcast i8* %363 to double*
  store double %369, double* %370, align 1
  %371 = getelementptr inbounds i8, i8* %363, i64 8
  %372 = bitcast i8* %371 to double*
  store double 0.000000e+00, double* %372, align 1
  store %struct.Memory* %loadMem_400e75, %struct.Memory** %MEMORY
  %loadMem_400e7a = load %struct.Memory*, %struct.Memory** %MEMORY
  %373 = getelementptr inbounds %struct.State, %struct.State* %0, i32 0, i32 6
  %374 = getelementptr inbounds %struct.GPR, %struct.GPR* %373, i32 0, i32 33
  %375 = getelementptr inbounds %struct.Reg, %struct.Reg* %374, i32 0, i32 0
  %PC.i253 = bitcast %union.anon* %375 to i64*
  %376 = getelementptr inbounds %struct.State, %struct.State* %0, i32 0, i32 6
  %377 = getelementptr inbounds %struct.GPR, %struct.GPR* %376, i32 0, i32 11
  %378 = getelementptr inbounds %struct.Reg, %struct.Reg* %377, i32 0, i32 0
  %RDI.i254 = bitcast %union.anon* %378 to i64*
  %379 = getelementptr inbounds %struct.State, %struct.State* %0, i32 0, i32 6
  %380 = getelementptr inbounds %struct.GPR, %struct.GPR* %379, i32 0, i32 15
  %381 = getelementptr inbounds %struct.Reg, %struct.Reg* %380, i32 0, i32 0
  %RBP.i255 = bitcast %union.anon* %381 to i64*
  %382 = load i64, i64* %RBP.i255
  %383 = sub i64 %382, 248
  %384 = load i64, i64* %PC.i253
  %385 = add i64 %384, 7
  store i64 %385, i64* %PC.i253
  %386 = inttoptr i64 %383 to i64*
  %387 = load i64, i64* %386
  store i64 %387, i64* %RDI.i254, align 8
  store %struct.Memory* %loadMem_400e7a, %struct.Memory** %MEMORY
  %loadMem_400e81 = load %struct.Memory*, %struct.Memory** %MEMORY
  %388 = getelementptr inbounds %struct.State, %struct.State* %0, i32 0, i32 6
  %389 = getelementptr inbounds %struct.GPR, %struct.GPR* %388, i32 0, i32 33
  %390 = getelementptr inbounds %struct.Reg, %struct.Reg* %389, i32 0, i32 0
  %PC.i250 = bitcast %union.anon* %390 to i64*
  %391 = getelementptr inbounds %struct.State, %struct.State* %0, i32 0, i32 6
  %392 = getelementptr inbounds %struct.GPR, %struct.GPR* %391, i32 0, i32 9
  %393 = getelementptr inbounds %struct.Reg, %struct.Reg* %392, i32 0, i32 0
  %RSI.i251 = bitcast %union.anon* %393 to i64*
  %394 = getelementptr inbounds %struct.State, %struct.State* %0, i32 0, i32 6
  %395 = getelementptr inbounds %struct.GPR, %struct.GPR* %394, i32 0, i32 15
  %396 = getelementptr inbounds %struct.Reg, %struct.Reg* %395, i32 0, i32 0
  %RBP.i252 = bitcast %union.anon* %396 to i64*
  %397 = load i64, i64* %RBP.i252
  %398 = sub i64 %397, 240
  %399 = load i64, i64* %PC.i250
  %400 = add i64 %399, 7
  store i64 %400, i64* %PC.i250
  %401 = inttoptr i64 %398 to i64*
  %402 = load i64, i64* %401
  store i64 %402, i64* %RSI.i251, align 8
  store %struct.Memory* %loadMem_400e81, %struct.Memory** %MEMORY
  %loadMem1_400e88 = load %struct.Memory*, %struct.Memory** %MEMORY
  %403 = getelementptr inbounds %struct.State, %struct.State* %0, i32 0, i32 6
  %404 = getelementptr inbounds %struct.GPR, %struct.GPR* %403, i32 0, i32 33
  %405 = getelementptr inbounds %struct.Reg, %struct.Reg* %404, i32 0, i32 0
  %PC.i249 = bitcast %union.anon* %405 to i64*
  %406 = load i64, i64* %PC.i249
  %407 = add i64 %406, 1416
  %408 = load i64, i64* %PC.i249
  %409 = add i64 %408, 5
  %410 = load i64, i64* %PC.i249
  %411 = add i64 %410, 5
  store i64 %411, i64* %PC.i249
  %412 = getelementptr inbounds %struct.State, %struct.State* %0, i64 0, i32 6, i32 13, i32 0, i32 0
  %413 = load i64, i64* %412, align 8
  %414 = add i64 %413, -8
  %415 = inttoptr i64 %414 to i64*
  store i64 %409, i64* %415
  store i64 %414, i64* %412, align 8
  %416 = getelementptr inbounds %struct.State, %struct.State* %0, i64 0, i32 6, i32 33, i32 0, i32 0
  store i64 %407, i64* %416, align 8
  store %struct.Memory* %loadMem1_400e88, %struct.Memory** %MEMORY
  %loadMem2_400e88 = load %struct.Memory*, %struct.Memory** %MEMORY
  %loadPC_400e88 = load i64, i64* %3
  %call2_400e88 = call %struct.Memory* @sub_401410._Z4fillIP6DoubleS0_EvT_S2_T0_(%struct.State* %0, i64 %loadPC_400e88, %struct.Memory* %loadMem2_400e88)
  store %struct.Memory* %call2_400e88, %struct.Memory** %MEMORY
  %loadMem_400e8d = load %struct.Memory*, %struct.Memory** %MEMORY
  %417 = getelementptr inbounds %struct.State, %struct.State* %0, i32 0, i32 6
  %418 = getelementptr inbounds %struct.GPR, %struct.GPR* %417, i32 0, i32 33
  %419 = getelementptr inbounds %struct.Reg, %struct.Reg* %418, i32 0, i32 0
  %PC.i247 = bitcast %union.anon* %419 to i64*
  %420 = getelementptr inbounds %struct.State, %struct.State* %0, i32 0, i32 6
  %421 = getelementptr inbounds %struct.GPR, %struct.GPR* %420, i32 0, i32 11
  %422 = getelementptr inbounds %struct.Reg, %struct.Reg* %421, i32 0, i32 0
  %RDI.i248 = bitcast %union.anon* %422 to i64*
  %423 = load i64, i64* %PC.i247
  %424 = add i64 %423, 8
  store i64 %424, i64* %PC.i247
  %425 = load i64, i64* bitcast (%G_0x605058_type* @G_0x605058 to i64*)
  store i64 %425, i64* %RDI.i248, align 8
  store %struct.Memory* %loadMem_400e8d, %struct.Memory** %MEMORY
  %loadMem_400e95 = load %struct.Memory*, %struct.Memory** %MEMORY
  %426 = getelementptr inbounds %struct.State, %struct.State* %0, i32 0, i32 6
  %427 = getelementptr inbounds %struct.GPR, %struct.GPR* %426, i32 0, i32 33
  %428 = getelementptr inbounds %struct.Reg, %struct.Reg* %427, i32 0, i32 0
  %PC.i245 = bitcast %union.anon* %428 to i64*
  %429 = getelementptr inbounds %struct.State, %struct.State* %0, i32 0, i32 6
  %430 = getelementptr inbounds %struct.GPR, %struct.GPR* %429, i32 0, i32 9
  %431 = getelementptr inbounds %struct.Reg, %struct.Reg* %430, i32 0, i32 0
  %RSI.i246 = bitcast %union.anon* %431 to i64*
  %432 = load i64, i64* %PC.i245
  %433 = add i64 %432, 8
  store i64 %433, i64* %PC.i245
  %434 = load i64, i64* bitcast (%G_0x605060_type* @G_0x605060 to i64*)
  store i64 %434, i64* %RSI.i246, align 8
  store %struct.Memory* %loadMem_400e95, %struct.Memory** %MEMORY
  %loadMem1_400e9d = load %struct.Memory*, %struct.Memory** %MEMORY
  %435 = getelementptr inbounds %struct.State, %struct.State* %0, i32 0, i32 6
  %436 = getelementptr inbounds %struct.GPR, %struct.GPR* %435, i32 0, i32 33
  %437 = getelementptr inbounds %struct.Reg, %struct.Reg* %436, i32 0, i32 0
  %PC.i244 = bitcast %union.anon* %437 to i64*
  %438 = load i64, i64* %PC.i244
  %439 = add i64 %438, -365
  %440 = load i64, i64* %PC.i244
  %441 = add i64 %440, 5
  %442 = load i64, i64* %PC.i244
  %443 = add i64 %442, 5
  store i64 %443, i64* %PC.i244
  %444 = getelementptr inbounds %struct.State, %struct.State* %0, i64 0, i32 6, i32 13, i32 0, i32 0
  %445 = load i64, i64* %444, align 8
  %446 = add i64 %445, -8
  %447 = inttoptr i64 %446 to i64*
  store i64 %441, i64* %447
  store i64 %446, i64* %444, align 8
  %448 = getelementptr inbounds %struct.State, %struct.State* %0, i64 0, i32 6, i32 33, i32 0, i32 0
  store i64 %439, i64* %448, align 8
  store %struct.Memory* %loadMem1_400e9d, %struct.Memory** %MEMORY
  %loadMem2_400e9d = load %struct.Memory*, %struct.Memory** %MEMORY
  %loadPC_400e9d = load i64, i64* %3
  %call2_400e9d = call %struct.Memory* @sub_400d30._Z5test0PdS_(%struct.State* %0, i64 %loadPC_400e9d, %struct.Memory* %loadMem2_400e9d)
  store %struct.Memory* %call2_400e9d, %struct.Memory** %MEMORY
  %loadMem_400ea2 = load %struct.Memory*, %struct.Memory** %MEMORY
  %449 = getelementptr inbounds %struct.State, %struct.State* %0, i32 0, i32 6
  %450 = getelementptr inbounds %struct.GPR, %struct.GPR* %449, i32 0, i32 33
  %451 = getelementptr inbounds %struct.Reg, %struct.Reg* %450, i32 0, i32 0
  %PC.i242 = bitcast %union.anon* %451 to i64*
  %452 = getelementptr inbounds %struct.State, %struct.State* %0, i32 0, i32 6
  %453 = getelementptr inbounds %struct.GPR, %struct.GPR* %452, i32 0, i32 11
  %454 = getelementptr inbounds %struct.Reg, %struct.Reg* %453, i32 0, i32 0
  %RDI.i243 = bitcast %union.anon* %454 to i64*
  %455 = load i64, i64* %PC.i242
  %456 = add i64 %455, 8
  store i64 %456, i64* %PC.i242
  %457 = load i64, i64* bitcast (%G_0x605058_type* @G_0x605058 to i64*)
  store i64 %457, i64* %RDI.i243, align 8
  store %struct.Memory* %loadMem_400ea2, %struct.Memory** %MEMORY
  %loadMem_400eaa = load %struct.Memory*, %struct.Memory** %MEMORY
  %458 = getelementptr inbounds %struct.State, %struct.State* %0, i32 0, i32 6
  %459 = getelementptr inbounds %struct.GPR, %struct.GPR* %458, i32 0, i32 33
  %460 = getelementptr inbounds %struct.Reg, %struct.Reg* %459, i32 0, i32 0
  %PC.i240 = bitcast %union.anon* %460 to i64*
  %461 = getelementptr inbounds %struct.State, %struct.State* %0, i32 0, i32 6
  %462 = getelementptr inbounds %struct.GPR, %struct.GPR* %461, i32 0, i32 9
  %463 = getelementptr inbounds %struct.Reg, %struct.Reg* %462, i32 0, i32 0
  %RSI.i241 = bitcast %union.anon* %463 to i64*
  %464 = load i64, i64* %PC.i240
  %465 = add i64 %464, 8
  store i64 %465, i64* %PC.i240
  %466 = load i64, i64* bitcast (%G_0x605060_type* @G_0x605060 to i64*)
  store i64 %466, i64* %RSI.i241, align 8
  store %struct.Memory* %loadMem_400eaa, %struct.Memory** %MEMORY
  %loadMem_400eb2 = load %struct.Memory*, %struct.Memory** %MEMORY
  %467 = getelementptr inbounds %struct.State, %struct.State* %0, i32 0, i32 6
  %468 = getelementptr inbounds %struct.GPR, %struct.GPR* %467, i32 0, i32 33
  %469 = getelementptr inbounds %struct.Reg, %struct.Reg* %468, i32 0, i32 0
  %PC.i238 = bitcast %union.anon* %469 to i64*
  %470 = getelementptr inbounds %struct.State, %struct.State* %0, i32 0, i32 1
  %471 = getelementptr inbounds [32 x %union.VectorReg], [32 x %union.VectorReg]* %470, i64 0, i64 0
  %YMM0.i239 = bitcast %union.VectorReg* %471 to %"class.std::bitset"*
  %472 = bitcast %"class.std::bitset"* %YMM0.i239 to i8*
  %473 = load i64, i64* %PC.i238
  %474 = add i64 %473, 9
  store i64 %474, i64* %PC.i238
  %475 = load double, double* bitcast (%G_0x60ce50_type* @G_0x60ce50 to double*)
  %476 = bitcast i8* %472 to double*
  store double %475, double* %476, align 1
  %477 = getelementptr inbounds i8, i8* %472, i64 8
  %478 = bitcast i8* %477 to double*
  store double 0.000000e+00, double* %478, align 1
  store %struct.Memory* %loadMem_400eb2, %struct.Memory** %MEMORY
  %loadMem1_400ebb = load %struct.Memory*, %struct.Memory** %MEMORY
  %479 = getelementptr inbounds %struct.State, %struct.State* %0, i32 0, i32 6
  %480 = getelementptr inbounds %struct.GPR, %struct.GPR* %479, i32 0, i32 33
  %481 = getelementptr inbounds %struct.Reg, %struct.Reg* %480, i32 0, i32 0
  %PC.i237 = bitcast %union.anon* %481 to i64*
  %482 = load i64, i64* %PC.i237
  %483 = add i64 %482, 1429
  %484 = load i64, i64* %PC.i237
  %485 = add i64 %484, 5
  %486 = load i64, i64* %PC.i237
  %487 = add i64 %486, 5
  store i64 %487, i64* %PC.i237
  %488 = getelementptr inbounds %struct.State, %struct.State* %0, i64 0, i32 6, i32 13, i32 0, i32 0
  %489 = load i64, i64* %488, align 8
  %490 = add i64 %489, -8
  %491 = inttoptr i64 %490 to i64*
  store i64 %485, i64* %491
  store i64 %490, i64* %488, align 8
  %492 = getelementptr inbounds %struct.State, %struct.State* %0, i64 0, i32 6, i32 33, i32 0, i32 0
  store i64 %483, i64* %492, align 8
  store %struct.Memory* %loadMem1_400ebb, %struct.Memory** %MEMORY
  %loadMem2_400ebb = load %struct.Memory*, %struct.Memory** %MEMORY
  %loadPC_400ebb = load i64, i64* %3
  %call2_400ebb = call %struct.Memory* @sub_401450._Z4testIPddEvT_S1_T0_(%struct.State* %0, i64 %loadPC_400ebb, %struct.Memory* %loadMem2_400ebb)
  store %struct.Memory* %call2_400ebb, %struct.Memory** %MEMORY
  %loadMem_400ec0 = load %struct.Memory*, %struct.Memory** %MEMORY
  %493 = getelementptr inbounds %struct.State, %struct.State* %0, i32 0, i32 6
  %494 = getelementptr inbounds %struct.GPR, %struct.GPR* %493, i32 0, i32 33
  %495 = getelementptr inbounds %struct.Reg, %struct.Reg* %494, i32 0, i32 0
  %PC.i235 = bitcast %union.anon* %495 to i64*
  %496 = getelementptr inbounds %struct.State, %struct.State* %0, i32 0, i32 6
  %497 = getelementptr inbounds %struct.GPR, %struct.GPR* %496, i32 0, i32 11
  %498 = getelementptr inbounds %struct.Reg, %struct.Reg* %497, i32 0, i32 0
  %RDI.i236 = bitcast %union.anon* %498 to i64*
  %499 = load i64, i64* %PC.i235
  %500 = add i64 %499, 8
  store i64 %500, i64* %PC.i235
  %501 = load i64, i64* bitcast (%G_0x605068_type* @G_0x605068 to i64*)
  store i64 %501, i64* %RDI.i236, align 8
  store %struct.Memory* %loadMem_400ec0, %struct.Memory** %MEMORY
  %loadMem_400ec8 = load %struct.Memory*, %struct.Memory** %MEMORY
  %502 = getelementptr inbounds %struct.State, %struct.State* %0, i32 0, i32 6
  %503 = getelementptr inbounds %struct.GPR, %struct.GPR* %502, i32 0, i32 33
  %504 = getelementptr inbounds %struct.Reg, %struct.Reg* %503, i32 0, i32 0
  %PC.i233 = bitcast %union.anon* %504 to i64*
  %505 = getelementptr inbounds %struct.State, %struct.State* %0, i32 0, i32 6
  %506 = getelementptr inbounds %struct.GPR, %struct.GPR* %505, i32 0, i32 9
  %507 = getelementptr inbounds %struct.Reg, %struct.Reg* %506, i32 0, i32 0
  %RSI.i234 = bitcast %union.anon* %507 to i64*
  %508 = load i64, i64* %PC.i233
  %509 = add i64 %508, 8
  store i64 %509, i64* %PC.i233
  %510 = load i64, i64* bitcast (%G_0x605070_type* @G_0x605070 to i64*)
  store i64 %510, i64* %RSI.i234, align 8
  store %struct.Memory* %loadMem_400ec8, %struct.Memory** %MEMORY
  %loadMem_400ed0 = load %struct.Memory*, %struct.Memory** %MEMORY
  %511 = getelementptr inbounds %struct.State, %struct.State* %0, i32 0, i32 6
  %512 = getelementptr inbounds %struct.GPR, %struct.GPR* %511, i32 0, i32 33
  %513 = getelementptr inbounds %struct.Reg, %struct.Reg* %512, i32 0, i32 0
  %PC.i231 = bitcast %union.anon* %513 to i64*
  %514 = getelementptr inbounds %struct.State, %struct.State* %0, i32 0, i32 6
  %515 = getelementptr inbounds %struct.GPR, %struct.GPR* %514, i32 0, i32 1
  %516 = getelementptr inbounds %struct.Reg, %struct.Reg* %515, i32 0, i32 0
  %RAX.i232 = bitcast %union.anon* %516 to i64*
  %517 = load i64, i64* %PC.i231
  %518 = add i64 %517, 8
  store i64 %518, i64* %PC.i231
  %519 = load i64, i64* bitcast (%G_0x60ce58_type* @G_0x60ce58 to i64*)
  store i64 %519, i64* %RAX.i232, align 8
  store %struct.Memory* %loadMem_400ed0, %struct.Memory** %MEMORY
  %loadMem_400ed8 = load %struct.Memory*, %struct.Memory** %MEMORY
  %520 = getelementptr inbounds %struct.State, %struct.State* %0, i32 0, i32 6
  %521 = getelementptr inbounds %struct.GPR, %struct.GPR* %520, i32 0, i32 33
  %522 = getelementptr inbounds %struct.Reg, %struct.Reg* %521, i32 0, i32 0
  %PC.i228 = bitcast %union.anon* %522 to i64*
  %523 = getelementptr inbounds %struct.State, %struct.State* %0, i32 0, i32 6
  %524 = getelementptr inbounds %struct.GPR, %struct.GPR* %523, i32 0, i32 1
  %525 = getelementptr inbounds %struct.Reg, %struct.Reg* %524, i32 0, i32 0
  %RAX.i229 = bitcast %union.anon* %525 to i64*
  %526 = getelementptr inbounds %struct.State, %struct.State* %0, i32 0, i32 6
  %527 = getelementptr inbounds %struct.GPR, %struct.GPR* %526, i32 0, i32 15
  %528 = getelementptr inbounds %struct.Reg, %struct.Reg* %527, i32 0, i32 0
  %RBP.i230 = bitcast %union.anon* %528 to i64*
  %529 = load i64, i64* %RBP.i230
  %530 = sub i64 %529, 32
  %531 = load i64, i64* %RAX.i229
  %532 = load i64, i64* %PC.i228
  %533 = add i64 %532, 4
  store i64 %533, i64* %PC.i228
  %534 = inttoptr i64 %530 to i64*
  store i64 %531, i64* %534
  store %struct.Memory* %loadMem_400ed8, %struct.Memory** %MEMORY
  %loadMem_400edc = load %struct.Memory*, %struct.Memory** %MEMORY
  %535 = getelementptr inbounds %struct.State, %struct.State* %0, i32 0, i32 6
  %536 = getelementptr inbounds %struct.GPR, %struct.GPR* %535, i32 0, i32 33
  %537 = getelementptr inbounds %struct.Reg, %struct.Reg* %536, i32 0, i32 0
  %PC.i225 = bitcast %union.anon* %537 to i64*
  %538 = getelementptr inbounds %struct.State, %struct.State* %0, i32 0, i32 6
  %539 = getelementptr inbounds %struct.GPR, %struct.GPR* %538, i32 0, i32 15
  %540 = getelementptr inbounds %struct.Reg, %struct.Reg* %539, i32 0, i32 0
  %RBP.i226 = bitcast %union.anon* %540 to i64*
  %541 = getelementptr inbounds %struct.State, %struct.State* %0, i32 0, i32 1
  %542 = getelementptr inbounds [32 x %union.VectorReg], [32 x %union.VectorReg]* %541, i64 0, i64 0
  %YMM0.i227 = bitcast %union.VectorReg* %542 to %"class.std::bitset"*
  %543 = bitcast %"class.std::bitset"* %YMM0.i227 to i8*
  %544 = load i64, i64* %RBP.i226
  %545 = sub i64 %544, 32
  %546 = load i64, i64* %PC.i225
  %547 = add i64 %546, 5
  store i64 %547, i64* %PC.i225
  %548 = inttoptr i64 %545 to double*
  %549 = load double, double* %548
  %550 = bitcast i8* %543 to double*
  store double %549, double* %550, align 1
  %551 = getelementptr inbounds i8, i8* %543, i64 8
  %552 = bitcast i8* %551 to double*
  store double 0.000000e+00, double* %552, align 1
  store %struct.Memory* %loadMem_400edc, %struct.Memory** %MEMORY
  %loadMem1_400ee1 = load %struct.Memory*, %struct.Memory** %MEMORY
  %553 = getelementptr inbounds %struct.State, %struct.State* %0, i32 0, i32 6
  %554 = getelementptr inbounds %struct.GPR, %struct.GPR* %553, i32 0, i32 33
  %555 = getelementptr inbounds %struct.Reg, %struct.Reg* %554, i32 0, i32 0
  %PC.i224 = bitcast %union.anon* %555 to i64*
  %556 = load i64, i64* %PC.i224
  %557 = add i64 %556, 1519
  %558 = load i64, i64* %PC.i224
  %559 = add i64 %558, 5
  %560 = load i64, i64* %PC.i224
  %561 = add i64 %560, 5
  store i64 %561, i64* %PC.i224
  %562 = getelementptr inbounds %struct.State, %struct.State* %0, i64 0, i32 6, i32 13, i32 0, i32 0
  %563 = load i64, i64* %562, align 8
  %564 = add i64 %563, -8
  %565 = inttoptr i64 %564 to i64*
  store i64 %559, i64* %565
  store i64 %564, i64* %562, align 8
  %566 = getelementptr inbounds %struct.State, %struct.State* %0, i64 0, i32 6, i32 33, i32 0, i32 0
  store i64 %557, i64* %566, align 8
  store %struct.Memory* %loadMem1_400ee1, %struct.Memory** %MEMORY
  %loadMem2_400ee1 = load %struct.Memory*, %struct.Memory** %MEMORY
  %loadPC_400ee1 = load i64, i64* %3
  %call2_400ee1 = call %struct.Memory* @sub_4014d0._Z4testIP6DoubleS0_EvT_S2_T0_(%struct.State* %0, i64 %loadPC_400ee1, %struct.Memory* %loadMem2_400ee1)
  store %struct.Memory* %call2_400ee1, %struct.Memory** %MEMORY
  %loadMem_400ee6 = load %struct.Memory*, %struct.Memory** %MEMORY
  %567 = getelementptr inbounds %struct.State, %struct.State* %0, i32 0, i32 6
  %568 = getelementptr inbounds %struct.GPR, %struct.GPR* %567, i32 0, i32 33
  %569 = getelementptr inbounds %struct.Reg, %struct.Reg* %568, i32 0, i32 0
  %PC.i222 = bitcast %union.anon* %569 to i64*
  %570 = getelementptr inbounds %struct.State, %struct.State* %0, i32 0, i32 6
  %571 = getelementptr inbounds %struct.GPR, %struct.GPR* %570, i32 0, i32 1
  %572 = getelementptr inbounds %struct.Reg, %struct.Reg* %571, i32 0, i32 0
  %RAX.i223 = bitcast %union.anon* %572 to i64*
  %573 = load i64, i64* %PC.i222
  %574 = add i64 %573, 8
  store i64 %574, i64* %PC.i222
  %575 = load i64, i64* bitcast (%G_0x60ce60_type* @G_0x60ce60 to i64*)
  store i64 %575, i64* %RAX.i223, align 8
  store %struct.Memory* %loadMem_400ee6, %struct.Memory** %MEMORY
  %loadMem_400eee = load %struct.Memory*, %struct.Memory** %MEMORY
  %576 = getelementptr inbounds %struct.State, %struct.State* %0, i32 0, i32 6
  %577 = getelementptr inbounds %struct.GPR, %struct.GPR* %576, i32 0, i32 33
  %578 = getelementptr inbounds %struct.Reg, %struct.Reg* %577, i32 0, i32 0
  %PC.i219 = bitcast %union.anon* %578 to i64*
  %579 = getelementptr inbounds %struct.State, %struct.State* %0, i32 0, i32 6
  %580 = getelementptr inbounds %struct.GPR, %struct.GPR* %579, i32 0, i32 1
  %581 = getelementptr inbounds %struct.Reg, %struct.Reg* %580, i32 0, i32 0
  %RAX.i220 = bitcast %union.anon* %581 to i64*
  %582 = getelementptr inbounds %struct.State, %struct.State* %0, i32 0, i32 6
  %583 = getelementptr inbounds %struct.GPR, %struct.GPR* %582, i32 0, i32 15
  %584 = getelementptr inbounds %struct.Reg, %struct.Reg* %583, i32 0, i32 0
  %RBP.i221 = bitcast %union.anon* %584 to i64*
  %585 = load i64, i64* %RBP.i221
  %586 = sub i64 %585, 40
  %587 = load i64, i64* %RAX.i220
  %588 = load i64, i64* %PC.i219
  %589 = add i64 %588, 4
  store i64 %589, i64* %PC.i219
  %590 = inttoptr i64 %586 to i64*
  store i64 %587, i64* %590
  store %struct.Memory* %loadMem_400eee, %struct.Memory** %MEMORY
  %loadMem_400ef2 = load %struct.Memory*, %struct.Memory** %MEMORY
  %591 = getelementptr inbounds %struct.State, %struct.State* %0, i32 0, i32 6
  %592 = getelementptr inbounds %struct.GPR, %struct.GPR* %591, i32 0, i32 33
  %593 = getelementptr inbounds %struct.Reg, %struct.Reg* %592, i32 0, i32 0
  %PC.i217 = bitcast %union.anon* %593 to i64*
  %594 = getelementptr inbounds %struct.State, %struct.State* %0, i32 0, i32 6
  %595 = getelementptr inbounds %struct.GPR, %struct.GPR* %594, i32 0, i32 1
  %596 = getelementptr inbounds %struct.Reg, %struct.Reg* %595, i32 0, i32 0
  %RAX.i218 = bitcast %union.anon* %596 to i64*
  %597 = load i64, i64* %PC.i217
  %598 = add i64 %597, 8
  store i64 %598, i64* %PC.i217
  %599 = load i64, i64* bitcast (%G_0x60ce68_type* @G_0x60ce68 to i64*)
  store i64 %599, i64* %RAX.i218, align 8
  store %struct.Memory* %loadMem_400ef2, %struct.Memory** %MEMORY
  %loadMem_400efa = load %struct.Memory*, %struct.Memory** %MEMORY
  %600 = getelementptr inbounds %struct.State, %struct.State* %0, i32 0, i32 6
  %601 = getelementptr inbounds %struct.GPR, %struct.GPR* %600, i32 0, i32 33
  %602 = getelementptr inbounds %struct.Reg, %struct.Reg* %601, i32 0, i32 0
  %PC.i214 = bitcast %union.anon* %602 to i64*
  %603 = getelementptr inbounds %struct.State, %struct.State* %0, i32 0, i32 6
  %604 = getelementptr inbounds %struct.GPR, %struct.GPR* %603, i32 0, i32 1
  %605 = getelementptr inbounds %struct.Reg, %struct.Reg* %604, i32 0, i32 0
  %RAX.i215 = bitcast %union.anon* %605 to i64*
  %606 = getelementptr inbounds %struct.State, %struct.State* %0, i32 0, i32 6
  %607 = getelementptr inbounds %struct.GPR, %struct.GPR* %606, i32 0, i32 15
  %608 = getelementptr inbounds %struct.Reg, %struct.Reg* %607, i32 0, i32 0
  %RBP.i216 = bitcast %union.anon* %608 to i64*
  %609 = load i64, i64* %RBP.i216
  %610 = sub i64 %609, 48
  %611 = load i64, i64* %RAX.i215
  %612 = load i64, i64* %PC.i214
  %613 = add i64 %612, 4
  store i64 %613, i64* %PC.i214
  %614 = inttoptr i64 %610 to i64*
  store i64 %611, i64* %614
  store %struct.Memory* %loadMem_400efa, %struct.Memory** %MEMORY
  %loadMem_400efe = load %struct.Memory*, %struct.Memory** %MEMORY
  %615 = getelementptr inbounds %struct.State, %struct.State* %0, i32 0, i32 6
  %616 = getelementptr inbounds %struct.GPR, %struct.GPR* %615, i32 0, i32 33
  %617 = getelementptr inbounds %struct.Reg, %struct.Reg* %616, i32 0, i32 0
  %PC.i212 = bitcast %union.anon* %617 to i64*
  %618 = getelementptr inbounds %struct.State, %struct.State* %0, i32 0, i32 1
  %619 = getelementptr inbounds [32 x %union.VectorReg], [32 x %union.VectorReg]* %618, i64 0, i64 0
  %YMM0.i213 = bitcast %union.VectorReg* %619 to %"class.std::bitset"*
  %620 = bitcast %"class.std::bitset"* %YMM0.i213 to i8*
  %621 = load i64, i64* %PC.i212
  %622 = add i64 %621, 9
  store i64 %622, i64* %PC.i212
  %623 = load double, double* bitcast (%G_0x60ce50_type* @G_0x60ce50 to double*)
  %624 = bitcast i8* %620 to double*
  store double %623, double* %624, align 1
  %625 = getelementptr inbounds i8, i8* %620, i64 8
  %626 = bitcast i8* %625 to double*
  store double 0.000000e+00, double* %626, align 1
  store %struct.Memory* %loadMem_400efe, %struct.Memory** %MEMORY
  %loadMem_400f07 = load %struct.Memory*, %struct.Memory** %MEMORY
  %627 = getelementptr inbounds %struct.State, %struct.State* %0, i32 0, i32 6
  %628 = getelementptr inbounds %struct.GPR, %struct.GPR* %627, i32 0, i32 33
  %629 = getelementptr inbounds %struct.Reg, %struct.Reg* %628, i32 0, i32 0
  %PC.i209 = bitcast %union.anon* %629 to i64*
  %630 = getelementptr inbounds %struct.State, %struct.State* %0, i32 0, i32 6
  %631 = getelementptr inbounds %struct.GPR, %struct.GPR* %630, i32 0, i32 11
  %632 = getelementptr inbounds %struct.Reg, %struct.Reg* %631, i32 0, i32 0
  %RDI.i210 = bitcast %union.anon* %632 to i64*
  %633 = getelementptr inbounds %struct.State, %struct.State* %0, i32 0, i32 6
  %634 = getelementptr inbounds %struct.GPR, %struct.GPR* %633, i32 0, i32 15
  %635 = getelementptr inbounds %struct.Reg, %struct.Reg* %634, i32 0, i32 0
  %RBP.i211 = bitcast %union.anon* %635 to i64*
  %636 = load i64, i64* %RBP.i211
  %637 = sub i64 %636, 40
  %638 = load i64, i64* %PC.i209
  %639 = add i64 %638, 4
  store i64 %639, i64* %PC.i209
  %640 = inttoptr i64 %637 to i64*
  %641 = load i64, i64* %640
  store i64 %641, i64* %RDI.i210, align 8
  store %struct.Memory* %loadMem_400f07, %struct.Memory** %MEMORY
  %loadMem_400f0b = load %struct.Memory*, %struct.Memory** %MEMORY
  %642 = getelementptr inbounds %struct.State, %struct.State* %0, i32 0, i32 6
  %643 = getelementptr inbounds %struct.GPR, %struct.GPR* %642, i32 0, i32 33
  %644 = getelementptr inbounds %struct.Reg, %struct.Reg* %643, i32 0, i32 0
  %PC.i206 = bitcast %union.anon* %644 to i64*
  %645 = getelementptr inbounds %struct.State, %struct.State* %0, i32 0, i32 6
  %646 = getelementptr inbounds %struct.GPR, %struct.GPR* %645, i32 0, i32 9
  %647 = getelementptr inbounds %struct.Reg, %struct.Reg* %646, i32 0, i32 0
  %RSI.i207 = bitcast %union.anon* %647 to i64*
  %648 = getelementptr inbounds %struct.State, %struct.State* %0, i32 0, i32 6
  %649 = getelementptr inbounds %struct.GPR, %struct.GPR* %648, i32 0, i32 15
  %650 = getelementptr inbounds %struct.Reg, %struct.Reg* %649, i32 0, i32 0
  %RBP.i208 = bitcast %union.anon* %650 to i64*
  %651 = load i64, i64* %RBP.i208
  %652 = sub i64 %651, 48
  %653 = load i64, i64* %PC.i206
  %654 = add i64 %653, 4
  store i64 %654, i64* %PC.i206
  %655 = inttoptr i64 %652 to i64*
  %656 = load i64, i64* %655
  store i64 %656, i64* %RSI.i207, align 8
  store %struct.Memory* %loadMem_400f0b, %struct.Memory** %MEMORY
  %loadMem1_400f0f = load %struct.Memory*, %struct.Memory** %MEMORY
  %657 = getelementptr inbounds %struct.State, %struct.State* %0, i32 0, i32 6
  %658 = getelementptr inbounds %struct.GPR, %struct.GPR* %657, i32 0, i32 33
  %659 = getelementptr inbounds %struct.Reg, %struct.Reg* %658, i32 0, i32 0
  %PC.i205 = bitcast %union.anon* %659 to i64*
  %660 = load i64, i64* %PC.i205
  %661 = add i64 %660, 1633
  %662 = load i64, i64* %PC.i205
  %663 = add i64 %662, 5
  %664 = load i64, i64* %PC.i205
  %665 = add i64 %664, 5
  store i64 %665, i64* %PC.i205
  %666 = getelementptr inbounds %struct.State, %struct.State* %0, i64 0, i32 6, i32 13, i32 0, i32 0
  %667 = load i64, i64* %666, align 8
  %668 = add i64 %667, -8
  %669 = inttoptr i64 %668 to i64*
  store i64 %663, i64* %669
  store i64 %668, i64* %666, align 8
  %670 = getelementptr inbounds %struct.State, %struct.State* %0, i64 0, i32 6, i32 33, i32 0, i32 0
  store i64 %661, i64* %670, align 8
  store %struct.Memory* %loadMem1_400f0f, %struct.Memory** %MEMORY
  %loadMem2_400f0f = load %struct.Memory*, %struct.Memory** %MEMORY
  %loadPC_400f0f = load i64, i64* %3
  %call2_400f0f = call %struct.Memory* @sub_401570._Z4testI14double_pointerdEvT_S1_T0_(%struct.State* %0, i64 %loadPC_400f0f, %struct.Memory* %loadMem2_400f0f)
  store %struct.Memory* %call2_400f0f, %struct.Memory** %MEMORY
  %loadMem_400f14 = load %struct.Memory*, %struct.Memory** %MEMORY
  %671 = getelementptr inbounds %struct.State, %struct.State* %0, i32 0, i32 6
  %672 = getelementptr inbounds %struct.GPR, %struct.GPR* %671, i32 0, i32 33
  %673 = getelementptr inbounds %struct.Reg, %struct.Reg* %672, i32 0, i32 0
  %PC.i203 = bitcast %union.anon* %673 to i64*
  %674 = getelementptr inbounds %struct.State, %struct.State* %0, i32 0, i32 6
  %675 = getelementptr inbounds %struct.GPR, %struct.GPR* %674, i32 0, i32 1
  %676 = getelementptr inbounds %struct.Reg, %struct.Reg* %675, i32 0, i32 0
  %RAX.i204 = bitcast %union.anon* %676 to i64*
  %677 = load i64, i64* %PC.i203
  %678 = add i64 %677, 8
  store i64 %678, i64* %PC.i203
  %679 = load i64, i64* bitcast (%G_0x60ce70_type* @G_0x60ce70 to i64*)
  store i64 %679, i64* %RAX.i204, align 8
  store %struct.Memory* %loadMem_400f14, %struct.Memory** %MEMORY
  %loadMem_400f1c = load %struct.Memory*, %struct.Memory** %MEMORY
  %680 = getelementptr inbounds %struct.State, %struct.State* %0, i32 0, i32 6
  %681 = getelementptr inbounds %struct.GPR, %struct.GPR* %680, i32 0, i32 33
  %682 = getelementptr inbounds %struct.Reg, %struct.Reg* %681, i32 0, i32 0
  %PC.i200 = bitcast %union.anon* %682 to i64*
  %683 = getelementptr inbounds %struct.State, %struct.State* %0, i32 0, i32 6
  %684 = getelementptr inbounds %struct.GPR, %struct.GPR* %683, i32 0, i32 1
  %685 = getelementptr inbounds %struct.Reg, %struct.Reg* %684, i32 0, i32 0
  %RAX.i201 = bitcast %union.anon* %685 to i64*
  %686 = getelementptr inbounds %struct.State, %struct.State* %0, i32 0, i32 6
  %687 = getelementptr inbounds %struct.GPR, %struct.GPR* %686, i32 0, i32 15
  %688 = getelementptr inbounds %struct.Reg, %struct.Reg* %687, i32 0, i32 0
  %RBP.i202 = bitcast %union.anon* %688 to i64*
  %689 = load i64, i64* %RBP.i202
  %690 = sub i64 %689, 56
  %691 = load i64, i64* %RAX.i201
  %692 = load i64, i64* %PC.i200
  %693 = add i64 %692, 4
  store i64 %693, i64* %PC.i200
  %694 = inttoptr i64 %690 to i64*
  store i64 %691, i64* %694
  store %struct.Memory* %loadMem_400f1c, %struct.Memory** %MEMORY
  %loadMem_400f20 = load %struct.Memory*, %struct.Memory** %MEMORY
  %695 = getelementptr inbounds %struct.State, %struct.State* %0, i32 0, i32 6
  %696 = getelementptr inbounds %struct.GPR, %struct.GPR* %695, i32 0, i32 33
  %697 = getelementptr inbounds %struct.Reg, %struct.Reg* %696, i32 0, i32 0
  %PC.i198 = bitcast %union.anon* %697 to i64*
  %698 = getelementptr inbounds %struct.State, %struct.State* %0, i32 0, i32 6
  %699 = getelementptr inbounds %struct.GPR, %struct.GPR* %698, i32 0, i32 1
  %700 = getelementptr inbounds %struct.Reg, %struct.Reg* %699, i32 0, i32 0
  %RAX.i199 = bitcast %union.anon* %700 to i64*
  %701 = load i64, i64* %PC.i198
  %702 = add i64 %701, 8
  store i64 %702, i64* %PC.i198
  %703 = load i64, i64* bitcast (%G_0x60ce78_type* @G_0x60ce78 to i64*)
  store i64 %703, i64* %RAX.i199, align 8
  store %struct.Memory* %loadMem_400f20, %struct.Memory** %MEMORY
  %loadMem_400f28 = load %struct.Memory*, %struct.Memory** %MEMORY
  %704 = getelementptr inbounds %struct.State, %struct.State* %0, i32 0, i32 6
  %705 = getelementptr inbounds %struct.GPR, %struct.GPR* %704, i32 0, i32 33
  %706 = getelementptr inbounds %struct.Reg, %struct.Reg* %705, i32 0, i32 0
  %PC.i195 = bitcast %union.anon* %706 to i64*
  %707 = getelementptr inbounds %struct.State, %struct.State* %0, i32 0, i32 6
  %708 = getelementptr inbounds %struct.GPR, %struct.GPR* %707, i32 0, i32 1
  %709 = getelementptr inbounds %struct.Reg, %struct.Reg* %708, i32 0, i32 0
  %RAX.i196 = bitcast %union.anon* %709 to i64*
  %710 = getelementptr inbounds %struct.State, %struct.State* %0, i32 0, i32 6
  %711 = getelementptr inbounds %struct.GPR, %struct.GPR* %710, i32 0, i32 15
  %712 = getelementptr inbounds %struct.Reg, %struct.Reg* %711, i32 0, i32 0
  %RBP.i197 = bitcast %union.anon* %712 to i64*
  %713 = load i64, i64* %RBP.i197
  %714 = sub i64 %713, 64
  %715 = load i64, i64* %RAX.i196
  %716 = load i64, i64* %PC.i195
  %717 = add i64 %716, 4
  store i64 %717, i64* %PC.i195
  %718 = inttoptr i64 %714 to i64*
  store i64 %715, i64* %718
  store %struct.Memory* %loadMem_400f28, %struct.Memory** %MEMORY
  %loadMem_400f2c = load %struct.Memory*, %struct.Memory** %MEMORY
  %719 = getelementptr inbounds %struct.State, %struct.State* %0, i32 0, i32 6
  %720 = getelementptr inbounds %struct.GPR, %struct.GPR* %719, i32 0, i32 33
  %721 = getelementptr inbounds %struct.Reg, %struct.Reg* %720, i32 0, i32 0
  %PC.i193 = bitcast %union.anon* %721 to i64*
  %722 = getelementptr inbounds %struct.State, %struct.State* %0, i32 0, i32 6
  %723 = getelementptr inbounds %struct.GPR, %struct.GPR* %722, i32 0, i32 1
  %724 = getelementptr inbounds %struct.Reg, %struct.Reg* %723, i32 0, i32 0
  %RAX.i194 = bitcast %union.anon* %724 to i64*
  %725 = load i64, i64* %PC.i193
  %726 = add i64 %725, 8
  store i64 %726, i64* %PC.i193
  %727 = load i64, i64* bitcast (%G_0x60ce58_type* @G_0x60ce58 to i64*)
  store i64 %727, i64* %RAX.i194, align 8
  store %struct.Memory* %loadMem_400f2c, %struct.Memory** %MEMORY
  %loadMem_400f34 = load %struct.Memory*, %struct.Memory** %MEMORY
  %728 = getelementptr inbounds %struct.State, %struct.State* %0, i32 0, i32 6
  %729 = getelementptr inbounds %struct.GPR, %struct.GPR* %728, i32 0, i32 33
  %730 = getelementptr inbounds %struct.Reg, %struct.Reg* %729, i32 0, i32 0
  %PC.i190 = bitcast %union.anon* %730 to i64*
  %731 = getelementptr inbounds %struct.State, %struct.State* %0, i32 0, i32 6
  %732 = getelementptr inbounds %struct.GPR, %struct.GPR* %731, i32 0, i32 1
  %733 = getelementptr inbounds %struct.Reg, %struct.Reg* %732, i32 0, i32 0
  %RAX.i191 = bitcast %union.anon* %733 to i64*
  %734 = getelementptr inbounds %struct.State, %struct.State* %0, i32 0, i32 6
  %735 = getelementptr inbounds %struct.GPR, %struct.GPR* %734, i32 0, i32 15
  %736 = getelementptr inbounds %struct.Reg, %struct.Reg* %735, i32 0, i32 0
  %RBP.i192 = bitcast %union.anon* %736 to i64*
  %737 = load i64, i64* %RBP.i192
  %738 = sub i64 %737, 72
  %739 = load i64, i64* %RAX.i191
  %740 = load i64, i64* %PC.i190
  %741 = add i64 %740, 4
  store i64 %741, i64* %PC.i190
  %742 = inttoptr i64 %738 to i64*
  store i64 %739, i64* %742
  store %struct.Memory* %loadMem_400f34, %struct.Memory** %MEMORY
  %loadMem_400f38 = load %struct.Memory*, %struct.Memory** %MEMORY
  %743 = getelementptr inbounds %struct.State, %struct.State* %0, i32 0, i32 6
  %744 = getelementptr inbounds %struct.GPR, %struct.GPR* %743, i32 0, i32 33
  %745 = getelementptr inbounds %struct.Reg, %struct.Reg* %744, i32 0, i32 0
  %PC.i187 = bitcast %union.anon* %745 to i64*
  %746 = getelementptr inbounds %struct.State, %struct.State* %0, i32 0, i32 6
  %747 = getelementptr inbounds %struct.GPR, %struct.GPR* %746, i32 0, i32 11
  %748 = getelementptr inbounds %struct.Reg, %struct.Reg* %747, i32 0, i32 0
  %RDI.i188 = bitcast %union.anon* %748 to i64*
  %749 = getelementptr inbounds %struct.State, %struct.State* %0, i32 0, i32 6
  %750 = getelementptr inbounds %struct.GPR, %struct.GPR* %749, i32 0, i32 15
  %751 = getelementptr inbounds %struct.Reg, %struct.Reg* %750, i32 0, i32 0
  %RBP.i189 = bitcast %union.anon* %751 to i64*
  %752 = load i64, i64* %RBP.i189
  %753 = sub i64 %752, 56
  %754 = load i64, i64* %PC.i187
  %755 = add i64 %754, 4
  store i64 %755, i64* %PC.i187
  %756 = inttoptr i64 %753 to i64*
  %757 = load i64, i64* %756
  store i64 %757, i64* %RDI.i188, align 8
  store %struct.Memory* %loadMem_400f38, %struct.Memory** %MEMORY
  %loadMem_400f3c = load %struct.Memory*, %struct.Memory** %MEMORY
  %758 = getelementptr inbounds %struct.State, %struct.State* %0, i32 0, i32 6
  %759 = getelementptr inbounds %struct.GPR, %struct.GPR* %758, i32 0, i32 33
  %760 = getelementptr inbounds %struct.Reg, %struct.Reg* %759, i32 0, i32 0
  %PC.i184 = bitcast %union.anon* %760 to i64*
  %761 = getelementptr inbounds %struct.State, %struct.State* %0, i32 0, i32 6
  %762 = getelementptr inbounds %struct.GPR, %struct.GPR* %761, i32 0, i32 9
  %763 = getelementptr inbounds %struct.Reg, %struct.Reg* %762, i32 0, i32 0
  %RSI.i185 = bitcast %union.anon* %763 to i64*
  %764 = getelementptr inbounds %struct.State, %struct.State* %0, i32 0, i32 6
  %765 = getelementptr inbounds %struct.GPR, %struct.GPR* %764, i32 0, i32 15
  %766 = getelementptr inbounds %struct.Reg, %struct.Reg* %765, i32 0, i32 0
  %RBP.i186 = bitcast %union.anon* %766 to i64*
  %767 = load i64, i64* %RBP.i186
  %768 = sub i64 %767, 64
  %769 = load i64, i64* %PC.i184
  %770 = add i64 %769, 4
  store i64 %770, i64* %PC.i184
  %771 = inttoptr i64 %768 to i64*
  %772 = load i64, i64* %771
  store i64 %772, i64* %RSI.i185, align 8
  store %struct.Memory* %loadMem_400f3c, %struct.Memory** %MEMORY
  %loadMem_400f40 = load %struct.Memory*, %struct.Memory** %MEMORY
  %773 = getelementptr inbounds %struct.State, %struct.State* %0, i32 0, i32 6
  %774 = getelementptr inbounds %struct.GPR, %struct.GPR* %773, i32 0, i32 33
  %775 = getelementptr inbounds %struct.Reg, %struct.Reg* %774, i32 0, i32 0
  %PC.i181 = bitcast %union.anon* %775 to i64*
  %776 = getelementptr inbounds %struct.State, %struct.State* %0, i32 0, i32 6
  %777 = getelementptr inbounds %struct.GPR, %struct.GPR* %776, i32 0, i32 15
  %778 = getelementptr inbounds %struct.Reg, %struct.Reg* %777, i32 0, i32 0
  %RBP.i182 = bitcast %union.anon* %778 to i64*
  %779 = getelementptr inbounds %struct.State, %struct.State* %0, i32 0, i32 1
  %780 = getelementptr inbounds [32 x %union.VectorReg], [32 x %union.VectorReg]* %779, i64 0, i64 0
  %YMM0.i183 = bitcast %union.VectorReg* %780 to %"class.std::bitset"*
  %781 = bitcast %"class.std::bitset"* %YMM0.i183 to i8*
  %782 = load i64, i64* %RBP.i182
  %783 = sub i64 %782, 72
  %784 = load i64, i64* %PC.i181
  %785 = add i64 %784, 5
  store i64 %785, i64* %PC.i181
  %786 = inttoptr i64 %783 to double*
  %787 = load double, double* %786
  %788 = bitcast i8* %781 to double*
  store double %787, double* %788, align 1
  %789 = getelementptr inbounds i8, i8* %781, i64 8
  %790 = bitcast i8* %789 to double*
  store double 0.000000e+00, double* %790, align 1
  store %struct.Memory* %loadMem_400f40, %struct.Memory** %MEMORY
  %loadMem1_400f45 = load %struct.Memory*, %struct.Memory** %MEMORY
  %791 = getelementptr inbounds %struct.State, %struct.State* %0, i32 0, i32 6
  %792 = getelementptr inbounds %struct.GPR, %struct.GPR* %791, i32 0, i32 33
  %793 = getelementptr inbounds %struct.Reg, %struct.Reg* %792, i32 0, i32 0
  %PC.i180 = bitcast %union.anon* %793 to i64*
  %794 = load i64, i64* %PC.i180
  %795 = add i64 %794, 1723
  %796 = load i64, i64* %PC.i180
  %797 = add i64 %796, 5
  %798 = load i64, i64* %PC.i180
  %799 = add i64 %798, 5
  store i64 %799, i64* %PC.i180
  %800 = getelementptr inbounds %struct.State, %struct.State* %0, i64 0, i32 6, i32 13, i32 0, i32 0
  %801 = load i64, i64* %800, align 8
  %802 = add i64 %801, -8
  %803 = inttoptr i64 %802 to i64*
  store i64 %797, i64* %803
  store i64 %802, i64* %800, align 8
  %804 = getelementptr inbounds %struct.State, %struct.State* %0, i64 0, i32 6, i32 33, i32 0, i32 0
  store i64 %795, i64* %804, align 8
  store %struct.Memory* %loadMem1_400f45, %struct.Memory** %MEMORY
  %loadMem2_400f45 = load %struct.Memory*, %struct.Memory** %MEMORY
  %loadPC_400f45 = load i64, i64* %3
  %call2_400f45 = call %struct.Memory* @sub_401600._Z4testI14Double_pointer6DoubleEvT_S2_T0_(%struct.State* %0, i64 %loadPC_400f45, %struct.Memory* %loadMem2_400f45)
  store %struct.Memory* %call2_400f45, %struct.Memory** %MEMORY
  %loadMem_400f4a = load %struct.Memory*, %struct.Memory** %MEMORY
  %805 = getelementptr inbounds %struct.State, %struct.State* %0, i32 0, i32 6
  %806 = getelementptr inbounds %struct.GPR, %struct.GPR* %805, i32 0, i32 33
  %807 = getelementptr inbounds %struct.Reg, %struct.Reg* %806, i32 0, i32 0
  %PC.i178 = bitcast %union.anon* %807 to i64*
  %808 = getelementptr inbounds %struct.State, %struct.State* %0, i32 0, i32 6
  %809 = getelementptr inbounds %struct.GPR, %struct.GPR* %808, i32 0, i32 1
  %810 = getelementptr inbounds %struct.Reg, %struct.Reg* %809, i32 0, i32 0
  %RAX.i179 = bitcast %union.anon* %810 to i64*
  %811 = load i64, i64* %PC.i178
  %812 = add i64 %811, 8
  store i64 %812, i64* %PC.i178
  %813 = load i64, i64* bitcast (%G_0x60ce80_type* @G_0x60ce80 to i64*)
  store i64 %813, i64* %RAX.i179, align 8
  store %struct.Memory* %loadMem_400f4a, %struct.Memory** %MEMORY
  %loadMem_400f52 = load %struct.Memory*, %struct.Memory** %MEMORY
  %814 = getelementptr inbounds %struct.State, %struct.State* %0, i32 0, i32 6
  %815 = getelementptr inbounds %struct.GPR, %struct.GPR* %814, i32 0, i32 33
  %816 = getelementptr inbounds %struct.Reg, %struct.Reg* %815, i32 0, i32 0
  %PC.i175 = bitcast %union.anon* %816 to i64*
  %817 = getelementptr inbounds %struct.State, %struct.State* %0, i32 0, i32 6
  %818 = getelementptr inbounds %struct.GPR, %struct.GPR* %817, i32 0, i32 1
  %819 = getelementptr inbounds %struct.Reg, %struct.Reg* %818, i32 0, i32 0
  %RAX.i176 = bitcast %union.anon* %819 to i64*
  %820 = getelementptr inbounds %struct.State, %struct.State* %0, i32 0, i32 6
  %821 = getelementptr inbounds %struct.GPR, %struct.GPR* %820, i32 0, i32 15
  %822 = getelementptr inbounds %struct.Reg, %struct.Reg* %821, i32 0, i32 0
  %RBP.i177 = bitcast %union.anon* %822 to i64*
  %823 = load i64, i64* %RBP.i177
  %824 = sub i64 %823, 80
  %825 = load i64, i64* %RAX.i176
  %826 = load i64, i64* %PC.i175
  %827 = add i64 %826, 4
  store i64 %827, i64* %PC.i175
  %828 = inttoptr i64 %824 to i64*
  store i64 %825, i64* %828
  store %struct.Memory* %loadMem_400f52, %struct.Memory** %MEMORY
  %loadMem_400f56 = load %struct.Memory*, %struct.Memory** %MEMORY
  %829 = getelementptr inbounds %struct.State, %struct.State* %0, i32 0, i32 6
  %830 = getelementptr inbounds %struct.GPR, %struct.GPR* %829, i32 0, i32 33
  %831 = getelementptr inbounds %struct.Reg, %struct.Reg* %830, i32 0, i32 0
  %PC.i173 = bitcast %union.anon* %831 to i64*
  %832 = getelementptr inbounds %struct.State, %struct.State* %0, i32 0, i32 6
  %833 = getelementptr inbounds %struct.GPR, %struct.GPR* %832, i32 0, i32 1
  %834 = getelementptr inbounds %struct.Reg, %struct.Reg* %833, i32 0, i32 0
  %RAX.i174 = bitcast %union.anon* %834 to i64*
  %835 = load i64, i64* %PC.i173
  %836 = add i64 %835, 8
  store i64 %836, i64* %PC.i173
  %837 = load i64, i64* bitcast (%G_0x60ce88_type* @G_0x60ce88 to i64*)
  store i64 %837, i64* %RAX.i174, align 8
  store %struct.Memory* %loadMem_400f56, %struct.Memory** %MEMORY
  %loadMem_400f5e = load %struct.Memory*, %struct.Memory** %MEMORY
  %838 = getelementptr inbounds %struct.State, %struct.State* %0, i32 0, i32 6
  %839 = getelementptr inbounds %struct.GPR, %struct.GPR* %838, i32 0, i32 33
  %840 = getelementptr inbounds %struct.Reg, %struct.Reg* %839, i32 0, i32 0
  %PC.i170 = bitcast %union.anon* %840 to i64*
  %841 = getelementptr inbounds %struct.State, %struct.State* %0, i32 0, i32 6
  %842 = getelementptr inbounds %struct.GPR, %struct.GPR* %841, i32 0, i32 1
  %843 = getelementptr inbounds %struct.Reg, %struct.Reg* %842, i32 0, i32 0
  %RAX.i171 = bitcast %union.anon* %843 to i64*
  %844 = getelementptr inbounds %struct.State, %struct.State* %0, i32 0, i32 6
  %845 = getelementptr inbounds %struct.GPR, %struct.GPR* %844, i32 0, i32 15
  %846 = getelementptr inbounds %struct.Reg, %struct.Reg* %845, i32 0, i32 0
  %RBP.i172 = bitcast %union.anon* %846 to i64*
  %847 = load i64, i64* %RBP.i172
  %848 = sub i64 %847, 88
  %849 = load i64, i64* %RAX.i171
  %850 = load i64, i64* %PC.i170
  %851 = add i64 %850, 4
  store i64 %851, i64* %PC.i170
  %852 = inttoptr i64 %848 to i64*
  store i64 %849, i64* %852
  store %struct.Memory* %loadMem_400f5e, %struct.Memory** %MEMORY
  %loadMem_400f62 = load %struct.Memory*, %struct.Memory** %MEMORY
  %853 = getelementptr inbounds %struct.State, %struct.State* %0, i32 0, i32 6
  %854 = getelementptr inbounds %struct.GPR, %struct.GPR* %853, i32 0, i32 33
  %855 = getelementptr inbounds %struct.Reg, %struct.Reg* %854, i32 0, i32 0
  %PC.i168 = bitcast %union.anon* %855 to i64*
  %856 = getelementptr inbounds %struct.State, %struct.State* %0, i32 0, i32 1
  %857 = getelementptr inbounds [32 x %union.VectorReg], [32 x %union.VectorReg]* %856, i64 0, i64 0
  %YMM0.i169 = bitcast %union.VectorReg* %857 to %"class.std::bitset"*
  %858 = bitcast %"class.std::bitset"* %YMM0.i169 to i8*
  %859 = load i64, i64* %PC.i168
  %860 = add i64 %859, 9
  store i64 %860, i64* %PC.i168
  %861 = load double, double* bitcast (%G_0x60ce50_type* @G_0x60ce50 to double*)
  %862 = bitcast i8* %858 to double*
  store double %861, double* %862, align 1
  %863 = getelementptr inbounds i8, i8* %858, i64 8
  %864 = bitcast i8* %863 to double*
  store double 0.000000e+00, double* %864, align 1
  store %struct.Memory* %loadMem_400f62, %struct.Memory** %MEMORY
  %loadMem_400f6b = load %struct.Memory*, %struct.Memory** %MEMORY
  %865 = getelementptr inbounds %struct.State, %struct.State* %0, i32 0, i32 6
  %866 = getelementptr inbounds %struct.GPR, %struct.GPR* %865, i32 0, i32 33
  %867 = getelementptr inbounds %struct.Reg, %struct.Reg* %866, i32 0, i32 0
  %PC.i165 = bitcast %union.anon* %867 to i64*
  %868 = getelementptr inbounds %struct.State, %struct.State* %0, i32 0, i32 6
  %869 = getelementptr inbounds %struct.GPR, %struct.GPR* %868, i32 0, i32 11
  %870 = getelementptr inbounds %struct.Reg, %struct.Reg* %869, i32 0, i32 0
  %RDI.i166 = bitcast %union.anon* %870 to i64*
  %871 = getelementptr inbounds %struct.State, %struct.State* %0, i32 0, i32 6
  %872 = getelementptr inbounds %struct.GPR, %struct.GPR* %871, i32 0, i32 15
  %873 = getelementptr inbounds %struct.Reg, %struct.Reg* %872, i32 0, i32 0
  %RBP.i167 = bitcast %union.anon* %873 to i64*
  %874 = load i64, i64* %RBP.i167
  %875 = sub i64 %874, 80
  %876 = load i64, i64* %PC.i165
  %877 = add i64 %876, 4
  store i64 %877, i64* %PC.i165
  %878 = inttoptr i64 %875 to i64*
  %879 = load i64, i64* %878
  store i64 %879, i64* %RDI.i166, align 8
  store %struct.Memory* %loadMem_400f6b, %struct.Memory** %MEMORY
  %loadMem_400f6f = load %struct.Memory*, %struct.Memory** %MEMORY
  %880 = getelementptr inbounds %struct.State, %struct.State* %0, i32 0, i32 6
  %881 = getelementptr inbounds %struct.GPR, %struct.GPR* %880, i32 0, i32 33
  %882 = getelementptr inbounds %struct.Reg, %struct.Reg* %881, i32 0, i32 0
  %PC.i162 = bitcast %union.anon* %882 to i64*
  %883 = getelementptr inbounds %struct.State, %struct.State* %0, i32 0, i32 6
  %884 = getelementptr inbounds %struct.GPR, %struct.GPR* %883, i32 0, i32 9
  %885 = getelementptr inbounds %struct.Reg, %struct.Reg* %884, i32 0, i32 0
  %RSI.i163 = bitcast %union.anon* %885 to i64*
  %886 = getelementptr inbounds %struct.State, %struct.State* %0, i32 0, i32 6
  %887 = getelementptr inbounds %struct.GPR, %struct.GPR* %886, i32 0, i32 15
  %888 = getelementptr inbounds %struct.Reg, %struct.Reg* %887, i32 0, i32 0
  %RBP.i164 = bitcast %union.anon* %888 to i64*
  %889 = load i64, i64* %RBP.i164
  %890 = sub i64 %889, 88
  %891 = load i64, i64* %PC.i162
  %892 = add i64 %891, 4
  store i64 %892, i64* %PC.i162
  %893 = inttoptr i64 %890 to i64*
  %894 = load i64, i64* %893
  store i64 %894, i64* %RSI.i163, align 8
  store %struct.Memory* %loadMem_400f6f, %struct.Memory** %MEMORY
  %loadMem1_400f73 = load %struct.Memory*, %struct.Memory** %MEMORY
  %895 = getelementptr inbounds %struct.State, %struct.State* %0, i32 0, i32 6
  %896 = getelementptr inbounds %struct.GPR, %struct.GPR* %895, i32 0, i32 33
  %897 = getelementptr inbounds %struct.Reg, %struct.Reg* %896, i32 0, i32 0
  %PC.i161 = bitcast %union.anon* %897 to i64*
  %898 = load i64, i64* %PC.i161
  %899 = add i64 %898, 1853
  %900 = load i64, i64* %PC.i161
  %901 = add i64 %900, 5
  %902 = load i64, i64* %PC.i161
  %903 = add i64 %902, 5
  store i64 %903, i64* %PC.i161
  %904 = getelementptr inbounds %struct.State, %struct.State* %0, i64 0, i32 6, i32 13, i32 0, i32 0
  %905 = load i64, i64* %904, align 8
  %906 = add i64 %905, -8
  %907 = inttoptr i64 %906 to i64*
  store i64 %901, i64* %907
  store i64 %906, i64* %904, align 8
  %908 = getelementptr inbounds %struct.State, %struct.State* %0, i64 0, i32 6, i32 33, i32 0, i32 0
  store i64 %899, i64* %908, align 8
  store %struct.Memory* %loadMem1_400f73, %struct.Memory** %MEMORY
  %loadMem2_400f73 = load %struct.Memory*, %struct.Memory** %MEMORY
  %loadPC_400f73 = load i64, i64* %3
  %call2_400f73 = call %struct.Memory* @sub_4016b0._Z4testI16reverse_iteratorIPddEdEvT_S3_T0_(%struct.State* %0, i64 %loadPC_400f73, %struct.Memory* %loadMem2_400f73)
  store %struct.Memory* %call2_400f73, %struct.Memory** %MEMORY
  %loadMem_400f78 = load %struct.Memory*, %struct.Memory** %MEMORY
  %909 = getelementptr inbounds %struct.State, %struct.State* %0, i32 0, i32 6
  %910 = getelementptr inbounds %struct.GPR, %struct.GPR* %909, i32 0, i32 33
  %911 = getelementptr inbounds %struct.Reg, %struct.Reg* %910, i32 0, i32 0
  %PC.i159 = bitcast %union.anon* %911 to i64*
  %912 = getelementptr inbounds %struct.State, %struct.State* %0, i32 0, i32 6
  %913 = getelementptr inbounds %struct.GPR, %struct.GPR* %912, i32 0, i32 1
  %914 = getelementptr inbounds %struct.Reg, %struct.Reg* %913, i32 0, i32 0
  %RAX.i160 = bitcast %union.anon* %914 to i64*
  %915 = load i64, i64* %PC.i159
  %916 = add i64 %915, 8
  store i64 %916, i64* %PC.i159
  %917 = load i64, i64* bitcast (%G_0x60ce90_type* @G_0x60ce90 to i64*)
  store i64 %917, i64* %RAX.i160, align 8
  store %struct.Memory* %loadMem_400f78, %struct.Memory** %MEMORY
  %loadMem_400f80 = load %struct.Memory*, %struct.Memory** %MEMORY
  %918 = getelementptr inbounds %struct.State, %struct.State* %0, i32 0, i32 6
  %919 = getelementptr inbounds %struct.GPR, %struct.GPR* %918, i32 0, i32 33
  %920 = getelementptr inbounds %struct.Reg, %struct.Reg* %919, i32 0, i32 0
  %PC.i156 = bitcast %union.anon* %920 to i64*
  %921 = getelementptr inbounds %struct.State, %struct.State* %0, i32 0, i32 6
  %922 = getelementptr inbounds %struct.GPR, %struct.GPR* %921, i32 0, i32 1
  %923 = getelementptr inbounds %struct.Reg, %struct.Reg* %922, i32 0, i32 0
  %RAX.i157 = bitcast %union.anon* %923 to i64*
  %924 = getelementptr inbounds %struct.State, %struct.State* %0, i32 0, i32 6
  %925 = getelementptr inbounds %struct.GPR, %struct.GPR* %924, i32 0, i32 15
  %926 = getelementptr inbounds %struct.Reg, %struct.Reg* %925, i32 0, i32 0
  %RBP.i158 = bitcast %union.anon* %926 to i64*
  %927 = load i64, i64* %RBP.i158
  %928 = sub i64 %927, 96
  %929 = load i64, i64* %RAX.i157
  %930 = load i64, i64* %PC.i156
  %931 = add i64 %930, 4
  store i64 %931, i64* %PC.i156
  %932 = inttoptr i64 %928 to i64*
  store i64 %929, i64* %932
  store %struct.Memory* %loadMem_400f80, %struct.Memory** %MEMORY
  %loadMem_400f84 = load %struct.Memory*, %struct.Memory** %MEMORY
  %933 = getelementptr inbounds %struct.State, %struct.State* %0, i32 0, i32 6
  %934 = getelementptr inbounds %struct.GPR, %struct.GPR* %933, i32 0, i32 33
  %935 = getelementptr inbounds %struct.Reg, %struct.Reg* %934, i32 0, i32 0
  %PC.i154 = bitcast %union.anon* %935 to i64*
  %936 = getelementptr inbounds %struct.State, %struct.State* %0, i32 0, i32 6
  %937 = getelementptr inbounds %struct.GPR, %struct.GPR* %936, i32 0, i32 1
  %938 = getelementptr inbounds %struct.Reg, %struct.Reg* %937, i32 0, i32 0
  %RAX.i155 = bitcast %union.anon* %938 to i64*
  %939 = load i64, i64* %PC.i154
  %940 = add i64 %939, 8
  store i64 %940, i64* %PC.i154
  %941 = load i64, i64* bitcast (%G_0x60ce98_type* @G_0x60ce98 to i64*)
  store i64 %941, i64* %RAX.i155, align 8
  store %struct.Memory* %loadMem_400f84, %struct.Memory** %MEMORY
  %loadMem_400f8c = load %struct.Memory*, %struct.Memory** %MEMORY
  %942 = getelementptr inbounds %struct.State, %struct.State* %0, i32 0, i32 6
  %943 = getelementptr inbounds %struct.GPR, %struct.GPR* %942, i32 0, i32 33
  %944 = getelementptr inbounds %struct.Reg, %struct.Reg* %943, i32 0, i32 0
  %PC.i151 = bitcast %union.anon* %944 to i64*
  %945 = getelementptr inbounds %struct.State, %struct.State* %0, i32 0, i32 6
  %946 = getelementptr inbounds %struct.GPR, %struct.GPR* %945, i32 0, i32 1
  %947 = getelementptr inbounds %struct.Reg, %struct.Reg* %946, i32 0, i32 0
  %RAX.i152 = bitcast %union.anon* %947 to i64*
  %948 = getelementptr inbounds %struct.State, %struct.State* %0, i32 0, i32 6
  %949 = getelementptr inbounds %struct.GPR, %struct.GPR* %948, i32 0, i32 15
  %950 = getelementptr inbounds %struct.Reg, %struct.Reg* %949, i32 0, i32 0
  %RBP.i153 = bitcast %union.anon* %950 to i64*
  %951 = load i64, i64* %RBP.i153
  %952 = sub i64 %951, 104
  %953 = load i64, i64* %RAX.i152
  %954 = load i64, i64* %PC.i151
  %955 = add i64 %954, 4
  store i64 %955, i64* %PC.i151
  %956 = inttoptr i64 %952 to i64*
  store i64 %953, i64* %956
  store %struct.Memory* %loadMem_400f8c, %struct.Memory** %MEMORY
  %loadMem_400f90 = load %struct.Memory*, %struct.Memory** %MEMORY
  %957 = getelementptr inbounds %struct.State, %struct.State* %0, i32 0, i32 6
  %958 = getelementptr inbounds %struct.GPR, %struct.GPR* %957, i32 0, i32 33
  %959 = getelementptr inbounds %struct.Reg, %struct.Reg* %958, i32 0, i32 0
  %PC.i149 = bitcast %union.anon* %959 to i64*
  %960 = getelementptr inbounds %struct.State, %struct.State* %0, i32 0, i32 6
  %961 = getelementptr inbounds %struct.GPR, %struct.GPR* %960, i32 0, i32 1
  %962 = getelementptr inbounds %struct.Reg, %struct.Reg* %961, i32 0, i32 0
  %RAX.i150 = bitcast %union.anon* %962 to i64*
  %963 = load i64, i64* %PC.i149
  %964 = add i64 %963, 8
  store i64 %964, i64* %PC.i149
  %965 = load i64, i64* bitcast (%G_0x60ce58_type* @G_0x60ce58 to i64*)
  store i64 %965, i64* %RAX.i150, align 8
  store %struct.Memory* %loadMem_400f90, %struct.Memory** %MEMORY
  %loadMem_400f98 = load %struct.Memory*, %struct.Memory** %MEMORY
  %966 = getelementptr inbounds %struct.State, %struct.State* %0, i32 0, i32 6
  %967 = getelementptr inbounds %struct.GPR, %struct.GPR* %966, i32 0, i32 33
  %968 = getelementptr inbounds %struct.Reg, %struct.Reg* %967, i32 0, i32 0
  %PC.i146 = bitcast %union.anon* %968 to i64*
  %969 = getelementptr inbounds %struct.State, %struct.State* %0, i32 0, i32 6
  %970 = getelementptr inbounds %struct.GPR, %struct.GPR* %969, i32 0, i32 1
  %971 = getelementptr inbounds %struct.Reg, %struct.Reg* %970, i32 0, i32 0
  %RAX.i147 = bitcast %union.anon* %971 to i64*
  %972 = getelementptr inbounds %struct.State, %struct.State* %0, i32 0, i32 6
  %973 = getelementptr inbounds %struct.GPR, %struct.GPR* %972, i32 0, i32 15
  %974 = getelementptr inbounds %struct.Reg, %struct.Reg* %973, i32 0, i32 0
  %RBP.i148 = bitcast %union.anon* %974 to i64*
  %975 = load i64, i64* %RBP.i148
  %976 = sub i64 %975, 112
  %977 = load i64, i64* %RAX.i147
  %978 = load i64, i64* %PC.i146
  %979 = add i64 %978, 4
  store i64 %979, i64* %PC.i146
  %980 = inttoptr i64 %976 to i64*
  store i64 %977, i64* %980
  store %struct.Memory* %loadMem_400f98, %struct.Memory** %MEMORY
  %loadMem_400f9c = load %struct.Memory*, %struct.Memory** %MEMORY
  %981 = getelementptr inbounds %struct.State, %struct.State* %0, i32 0, i32 6
  %982 = getelementptr inbounds %struct.GPR, %struct.GPR* %981, i32 0, i32 33
  %983 = getelementptr inbounds %struct.Reg, %struct.Reg* %982, i32 0, i32 0
  %PC.i143 = bitcast %union.anon* %983 to i64*
  %984 = getelementptr inbounds %struct.State, %struct.State* %0, i32 0, i32 6
  %985 = getelementptr inbounds %struct.GPR, %struct.GPR* %984, i32 0, i32 11
  %986 = getelementptr inbounds %struct.Reg, %struct.Reg* %985, i32 0, i32 0
  %RDI.i144 = bitcast %union.anon* %986 to i64*
  %987 = getelementptr inbounds %struct.State, %struct.State* %0, i32 0, i32 6
  %988 = getelementptr inbounds %struct.GPR, %struct.GPR* %987, i32 0, i32 15
  %989 = getelementptr inbounds %struct.Reg, %struct.Reg* %988, i32 0, i32 0
  %RBP.i145 = bitcast %union.anon* %989 to i64*
  %990 = load i64, i64* %RBP.i145
  %991 = sub i64 %990, 96
  %992 = load i64, i64* %PC.i143
  %993 = add i64 %992, 4
  store i64 %993, i64* %PC.i143
  %994 = inttoptr i64 %991 to i64*
  %995 = load i64, i64* %994
  store i64 %995, i64* %RDI.i144, align 8
  store %struct.Memory* %loadMem_400f9c, %struct.Memory** %MEMORY
  %loadMem_400fa0 = load %struct.Memory*, %struct.Memory** %MEMORY
  %996 = getelementptr inbounds %struct.State, %struct.State* %0, i32 0, i32 6
  %997 = getelementptr inbounds %struct.GPR, %struct.GPR* %996, i32 0, i32 33
  %998 = getelementptr inbounds %struct.Reg, %struct.Reg* %997, i32 0, i32 0
  %PC.i140 = bitcast %union.anon* %998 to i64*
  %999 = getelementptr inbounds %struct.State, %struct.State* %0, i32 0, i32 6
  %1000 = getelementptr inbounds %struct.GPR, %struct.GPR* %999, i32 0, i32 9
  %1001 = getelementptr inbounds %struct.Reg, %struct.Reg* %1000, i32 0, i32 0
  %RSI.i141 = bitcast %union.anon* %1001 to i64*
  %1002 = getelementptr inbounds %struct.State, %struct.State* %0, i32 0, i32 6
  %1003 = getelementptr inbounds %struct.GPR, %struct.GPR* %1002, i32 0, i32 15
  %1004 = getelementptr inbounds %struct.Reg, %struct.Reg* %1003, i32 0, i32 0
  %RBP.i142 = bitcast %union.anon* %1004 to i64*
  %1005 = load i64, i64* %RBP.i142
  %1006 = sub i64 %1005, 104
  %1007 = load i64, i64* %PC.i140
  %1008 = add i64 %1007, 4
  store i64 %1008, i64* %PC.i140
  %1009 = inttoptr i64 %1006 to i64*
  %1010 = load i64, i64* %1009
  store i64 %1010, i64* %RSI.i141, align 8
  store %struct.Memory* %loadMem_400fa0, %struct.Memory** %MEMORY
  %loadMem_400fa4 = load %struct.Memory*, %struct.Memory** %MEMORY
  %1011 = getelementptr inbounds %struct.State, %struct.State* %0, i32 0, i32 6
  %1012 = getelementptr inbounds %struct.GPR, %struct.GPR* %1011, i32 0, i32 33
  %1013 = getelementptr inbounds %struct.Reg, %struct.Reg* %1012, i32 0, i32 0
  %PC.i137 = bitcast %union.anon* %1013 to i64*
  %1014 = getelementptr inbounds %struct.State, %struct.State* %0, i32 0, i32 6
  %1015 = getelementptr inbounds %struct.GPR, %struct.GPR* %1014, i32 0, i32 15
  %1016 = getelementptr inbounds %struct.Reg, %struct.Reg* %1015, i32 0, i32 0
  %RBP.i138 = bitcast %union.anon* %1016 to i64*
  %1017 = getelementptr inbounds %struct.State, %struct.State* %0, i32 0, i32 1
  %1018 = getelementptr inbounds [32 x %union.VectorReg], [32 x %union.VectorReg]* %1017, i64 0, i64 0
  %YMM0.i139 = bitcast %union.VectorReg* %1018 to %"class.std::bitset"*
  %1019 = bitcast %"class.std::bitset"* %YMM0.i139 to i8*
  %1020 = load i64, i64* %RBP.i138
  %1021 = sub i64 %1020, 112
  %1022 = load i64, i64* %PC.i137
  %1023 = add i64 %1022, 5
  store i64 %1023, i64* %PC.i137
  %1024 = inttoptr i64 %1021 to double*
  %1025 = load double, double* %1024
  %1026 = bitcast i8* %1019 to double*
  store double %1025, double* %1026, align 1
  %1027 = getelementptr inbounds i8, i8* %1019, i64 8
  %1028 = bitcast i8* %1027 to double*
  store double 0.000000e+00, double* %1028, align 1
  store %struct.Memory* %loadMem_400fa4, %struct.Memory** %MEMORY
  %loadMem1_400fa9 = load %struct.Memory*, %struct.Memory** %MEMORY
  %1029 = getelementptr inbounds %struct.State, %struct.State* %0, i32 0, i32 6
  %1030 = getelementptr inbounds %struct.GPR, %struct.GPR* %1029, i32 0, i32 33
  %1031 = getelementptr inbounds %struct.Reg, %struct.Reg* %1030, i32 0, i32 0
  %PC.i136 = bitcast %union.anon* %1031 to i64*
  %1032 = load i64, i64* %PC.i136
  %1033 = add i64 %1032, 1943
  %1034 = load i64, i64* %PC.i136
  %1035 = add i64 %1034, 5
  %1036 = load i64, i64* %PC.i136
  %1037 = add i64 %1036, 5
  store i64 %1037, i64* %PC.i136
  %1038 = getelementptr inbounds %struct.State, %struct.State* %0, i64 0, i32 6, i32 13, i32 0, i32 0
  %1039 = load i64, i64* %1038, align 8
  %1040 = add i64 %1039, -8
  %1041 = inttoptr i64 %1040 to i64*
  store i64 %1035, i64* %1041
  store i64 %1040, i64* %1038, align 8
  %1042 = getelementptr inbounds %struct.State, %struct.State* %0, i64 0, i32 6, i32 33, i32 0, i32 0
  store i64 %1033, i64* %1042, align 8
  store %struct.Memory* %loadMem1_400fa9, %struct.Memory** %MEMORY
  %loadMem2_400fa9 = load %struct.Memory*, %struct.Memory** %MEMORY
  %loadPC_400fa9 = load i64, i64* %3
  %call2_400fa9 = call %struct.Memory* @sub_401740._Z4testI16reverse_iteratorIP6DoubleS1_ES1_EvT_S4_T0_(%struct.State* %0, i64 %loadPC_400fa9, %struct.Memory* %loadMem2_400fa9)
  store %struct.Memory* %call2_400fa9, %struct.Memory** %MEMORY
  %loadMem_400fae = load %struct.Memory*, %struct.Memory** %MEMORY
  %1043 = getelementptr inbounds %struct.State, %struct.State* %0, i32 0, i32 6
  %1044 = getelementptr inbounds %struct.GPR, %struct.GPR* %1043, i32 0, i32 33
  %1045 = getelementptr inbounds %struct.Reg, %struct.Reg* %1044, i32 0, i32 0
  %PC.i134 = bitcast %union.anon* %1045 to i64*
  %1046 = getelementptr inbounds %struct.State, %struct.State* %0, i32 0, i32 6
  %1047 = getelementptr inbounds %struct.GPR, %struct.GPR* %1046, i32 0, i32 1
  %1048 = getelementptr inbounds %struct.Reg, %struct.Reg* %1047, i32 0, i32 0
  %RAX.i135 = bitcast %union.anon* %1048 to i64*
  %1049 = load i64, i64* %PC.i134
  %1050 = add i64 %1049, 8
  store i64 %1050, i64* %PC.i134
  %1051 = load i64, i64* bitcast (%G_0x60cea0_type* @G_0x60cea0 to i64*)
  store i64 %1051, i64* %RAX.i135, align 8
  store %struct.Memory* %loadMem_400fae, %struct.Memory** %MEMORY
  %loadMem_400fb6 = load %struct.Memory*, %struct.Memory** %MEMORY
  %1052 = getelementptr inbounds %struct.State, %struct.State* %0, i32 0, i32 6
  %1053 = getelementptr inbounds %struct.GPR, %struct.GPR* %1052, i32 0, i32 33
  %1054 = getelementptr inbounds %struct.Reg, %struct.Reg* %1053, i32 0, i32 0
  %PC.i131 = bitcast %union.anon* %1054 to i64*
  %1055 = getelementptr inbounds %struct.State, %struct.State* %0, i32 0, i32 6
  %1056 = getelementptr inbounds %struct.GPR, %struct.GPR* %1055, i32 0, i32 1
  %1057 = getelementptr inbounds %struct.Reg, %struct.Reg* %1056, i32 0, i32 0
  %RAX.i132 = bitcast %union.anon* %1057 to i64*
  %1058 = getelementptr inbounds %struct.State, %struct.State* %0, i32 0, i32 6
  %1059 = getelementptr inbounds %struct.GPR, %struct.GPR* %1058, i32 0, i32 15
  %1060 = getelementptr inbounds %struct.Reg, %struct.Reg* %1059, i32 0, i32 0
  %RBP.i133 = bitcast %union.anon* %1060 to i64*
  %1061 = load i64, i64* %RBP.i133
  %1062 = sub i64 %1061, 120
  %1063 = load i64, i64* %RAX.i132
  %1064 = load i64, i64* %PC.i131
  %1065 = add i64 %1064, 4
  store i64 %1065, i64* %PC.i131
  %1066 = inttoptr i64 %1062 to i64*
  store i64 %1063, i64* %1066
  store %struct.Memory* %loadMem_400fb6, %struct.Memory** %MEMORY
  %loadMem_400fba = load %struct.Memory*, %struct.Memory** %MEMORY
  %1067 = getelementptr inbounds %struct.State, %struct.State* %0, i32 0, i32 6
  %1068 = getelementptr inbounds %struct.GPR, %struct.GPR* %1067, i32 0, i32 33
  %1069 = getelementptr inbounds %struct.Reg, %struct.Reg* %1068, i32 0, i32 0
  %PC.i129 = bitcast %union.anon* %1069 to i64*
  %1070 = getelementptr inbounds %struct.State, %struct.State* %0, i32 0, i32 6
  %1071 = getelementptr inbounds %struct.GPR, %struct.GPR* %1070, i32 0, i32 1
  %1072 = getelementptr inbounds %struct.Reg, %struct.Reg* %1071, i32 0, i32 0
  %RAX.i130 = bitcast %union.anon* %1072 to i64*
  %1073 = load i64, i64* %PC.i129
  %1074 = add i64 %1073, 8
  store i64 %1074, i64* %PC.i129
  %1075 = load i64, i64* bitcast (%G_0x60cea8_type* @G_0x60cea8 to i64*)
  store i64 %1075, i64* %RAX.i130, align 8
  store %struct.Memory* %loadMem_400fba, %struct.Memory** %MEMORY
  %loadMem_400fc2 = load %struct.Memory*, %struct.Memory** %MEMORY
  %1076 = getelementptr inbounds %struct.State, %struct.State* %0, i32 0, i32 6
  %1077 = getelementptr inbounds %struct.GPR, %struct.GPR* %1076, i32 0, i32 33
  %1078 = getelementptr inbounds %struct.Reg, %struct.Reg* %1077, i32 0, i32 0
  %PC.i126 = bitcast %union.anon* %1078 to i64*
  %1079 = getelementptr inbounds %struct.State, %struct.State* %0, i32 0, i32 6
  %1080 = getelementptr inbounds %struct.GPR, %struct.GPR* %1079, i32 0, i32 1
  %1081 = getelementptr inbounds %struct.Reg, %struct.Reg* %1080, i32 0, i32 0
  %RAX.i127 = bitcast %union.anon* %1081 to i64*
  %1082 = getelementptr inbounds %struct.State, %struct.State* %0, i32 0, i32 6
  %1083 = getelementptr inbounds %struct.GPR, %struct.GPR* %1082, i32 0, i32 15
  %1084 = getelementptr inbounds %struct.Reg, %struct.Reg* %1083, i32 0, i32 0
  %RBP.i128 = bitcast %union.anon* %1084 to i64*
  %1085 = load i64, i64* %RBP.i128
  %1086 = sub i64 %1085, 128
  %1087 = load i64, i64* %RAX.i127
  %1088 = load i64, i64* %PC.i126
  %1089 = add i64 %1088, 4
  store i64 %1089, i64* %PC.i126
  %1090 = inttoptr i64 %1086 to i64*
  store i64 %1087, i64* %1090
  store %struct.Memory* %loadMem_400fc2, %struct.Memory** %MEMORY
  %loadMem_400fc6 = load %struct.Memory*, %struct.Memory** %MEMORY
  %1091 = getelementptr inbounds %struct.State, %struct.State* %0, i32 0, i32 6
  %1092 = getelementptr inbounds %struct.GPR, %struct.GPR* %1091, i32 0, i32 33
  %1093 = getelementptr inbounds %struct.Reg, %struct.Reg* %1092, i32 0, i32 0
  %PC.i124 = bitcast %union.anon* %1093 to i64*
  %1094 = getelementptr inbounds %struct.State, %struct.State* %0, i32 0, i32 1
  %1095 = getelementptr inbounds [32 x %union.VectorReg], [32 x %union.VectorReg]* %1094, i64 0, i64 0
  %YMM0.i125 = bitcast %union.VectorReg* %1095 to %"class.std::bitset"*
  %1096 = bitcast %"class.std::bitset"* %YMM0.i125 to i8*
  %1097 = load i64, i64* %PC.i124
  %1098 = add i64 %1097, 9
  store i64 %1098, i64* %PC.i124
  %1099 = load double, double* bitcast (%G_0x60ce50_type* @G_0x60ce50 to double*)
  %1100 = bitcast i8* %1096 to double*
  store double %1099, double* %1100, align 1
  %1101 = getelementptr inbounds i8, i8* %1096, i64 8
  %1102 = bitcast i8* %1101 to double*
  store double 0.000000e+00, double* %1102, align 1
  store %struct.Memory* %loadMem_400fc6, %struct.Memory** %MEMORY
  %loadMem_400fcf = load %struct.Memory*, %struct.Memory** %MEMORY
  %1103 = getelementptr inbounds %struct.State, %struct.State* %0, i32 0, i32 6
  %1104 = getelementptr inbounds %struct.GPR, %struct.GPR* %1103, i32 0, i32 33
  %1105 = getelementptr inbounds %struct.Reg, %struct.Reg* %1104, i32 0, i32 0
  %PC.i121 = bitcast %union.anon* %1105 to i64*
  %1106 = getelementptr inbounds %struct.State, %struct.State* %0, i32 0, i32 6
  %1107 = getelementptr inbounds %struct.GPR, %struct.GPR* %1106, i32 0, i32 11
  %1108 = getelementptr inbounds %struct.Reg, %struct.Reg* %1107, i32 0, i32 0
  %RDI.i122 = bitcast %union.anon* %1108 to i64*
  %1109 = getelementptr inbounds %struct.State, %struct.State* %0, i32 0, i32 6
  %1110 = getelementptr inbounds %struct.GPR, %struct.GPR* %1109, i32 0, i32 15
  %1111 = getelementptr inbounds %struct.Reg, %struct.Reg* %1110, i32 0, i32 0
  %RBP.i123 = bitcast %union.anon* %1111 to i64*
  %1112 = load i64, i64* %RBP.i123
  %1113 = sub i64 %1112, 120
  %1114 = load i64, i64* %PC.i121
  %1115 = add i64 %1114, 4
  store i64 %1115, i64* %PC.i121
  %1116 = inttoptr i64 %1113 to i64*
  %1117 = load i64, i64* %1116
  store i64 %1117, i64* %RDI.i122, align 8
  store %struct.Memory* %loadMem_400fcf, %struct.Memory** %MEMORY
  %loadMem_400fd3 = load %struct.Memory*, %struct.Memory** %MEMORY
  %1118 = getelementptr inbounds %struct.State, %struct.State* %0, i32 0, i32 6
  %1119 = getelementptr inbounds %struct.GPR, %struct.GPR* %1118, i32 0, i32 33
  %1120 = getelementptr inbounds %struct.Reg, %struct.Reg* %1119, i32 0, i32 0
  %PC.i118 = bitcast %union.anon* %1120 to i64*
  %1121 = getelementptr inbounds %struct.State, %struct.State* %0, i32 0, i32 6
  %1122 = getelementptr inbounds %struct.GPR, %struct.GPR* %1121, i32 0, i32 9
  %1123 = getelementptr inbounds %struct.Reg, %struct.Reg* %1122, i32 0, i32 0
  %RSI.i119 = bitcast %union.anon* %1123 to i64*
  %1124 = getelementptr inbounds %struct.State, %struct.State* %0, i32 0, i32 6
  %1125 = getelementptr inbounds %struct.GPR, %struct.GPR* %1124, i32 0, i32 15
  %1126 = getelementptr inbounds %struct.Reg, %struct.Reg* %1125, i32 0, i32 0
  %RBP.i120 = bitcast %union.anon* %1126 to i64*
  %1127 = load i64, i64* %RBP.i120
  %1128 = sub i64 %1127, 128
  %1129 = load i64, i64* %PC.i118
  %1130 = add i64 %1129, 4
  store i64 %1130, i64* %PC.i118
  %1131 = inttoptr i64 %1128 to i64*
  %1132 = load i64, i64* %1131
  store i64 %1132, i64* %RSI.i119, align 8
  store %struct.Memory* %loadMem_400fd3, %struct.Memory** %MEMORY
  %loadMem1_400fd7 = load %struct.Memory*, %struct.Memory** %MEMORY
  %1133 = getelementptr inbounds %struct.State, %struct.State* %0, i32 0, i32 6
  %1134 = getelementptr inbounds %struct.GPR, %struct.GPR* %1133, i32 0, i32 33
  %1135 = getelementptr inbounds %struct.Reg, %struct.Reg* %1134, i32 0, i32 0
  %PC.i117 = bitcast %union.anon* %1135 to i64*
  %1136 = load i64, i64* %PC.i117
  %1137 = add i64 %1136, 2073
  %1138 = load i64, i64* %PC.i117
  %1139 = add i64 %1138, 5
  %1140 = load i64, i64* %PC.i117
  %1141 = add i64 %1140, 5
  store i64 %1141, i64* %PC.i117
  %1142 = getelementptr inbounds %struct.State, %struct.State* %0, i64 0, i32 6, i32 13, i32 0, i32 0
  %1143 = load i64, i64* %1142, align 8
  %1144 = add i64 %1143, -8
  %1145 = inttoptr i64 %1144 to i64*
  store i64 %1139, i64* %1145
  store i64 %1144, i64* %1142, align 8
  %1146 = getelementptr inbounds %struct.State, %struct.State* %0, i64 0, i32 6, i32 33, i32 0, i32 0
  store i64 %1137, i64* %1146, align 8
  store %struct.Memory* %loadMem1_400fd7, %struct.Memory** %MEMORY
  %loadMem2_400fd7 = load %struct.Memory*, %struct.Memory** %MEMORY
  %loadPC_400fd7 = load i64, i64* %3
  %call2_400fd7 = call %struct.Memory* @sub_4017f0._Z4testI16reverse_iteratorI14double_pointerdEdEvT_S3_T0_(%struct.State* %0, i64 %loadPC_400fd7, %struct.Memory* %loadMem2_400fd7)
  store %struct.Memory* %call2_400fd7, %struct.Memory** %MEMORY
  %loadMem_400fdc = load %struct.Memory*, %struct.Memory** %MEMORY
  %1147 = getelementptr inbounds %struct.State, %struct.State* %0, i32 0, i32 6
  %1148 = getelementptr inbounds %struct.GPR, %struct.GPR* %1147, i32 0, i32 33
  %1149 = getelementptr inbounds %struct.Reg, %struct.Reg* %1148, i32 0, i32 0
  %PC.i115 = bitcast %union.anon* %1149 to i64*
  %1150 = getelementptr inbounds %struct.State, %struct.State* %0, i32 0, i32 6
  %1151 = getelementptr inbounds %struct.GPR, %struct.GPR* %1150, i32 0, i32 1
  %1152 = getelementptr inbounds %struct.Reg, %struct.Reg* %1151, i32 0, i32 0
  %RAX.i116 = bitcast %union.anon* %1152 to i64*
  %1153 = load i64, i64* %PC.i115
  %1154 = add i64 %1153, 8
  store i64 %1154, i64* %PC.i115
  %1155 = load i64, i64* bitcast (%G_0x60ceb0_type* @G_0x60ceb0 to i64*)
  store i64 %1155, i64* %RAX.i116, align 8
  store %struct.Memory* %loadMem_400fdc, %struct.Memory** %MEMORY
  %loadMem_400fe4 = load %struct.Memory*, %struct.Memory** %MEMORY
  %1156 = getelementptr inbounds %struct.State, %struct.State* %0, i32 0, i32 6
  %1157 = getelementptr inbounds %struct.GPR, %struct.GPR* %1156, i32 0, i32 33
  %1158 = getelementptr inbounds %struct.Reg, %struct.Reg* %1157, i32 0, i32 0
  %PC.i112 = bitcast %union.anon* %1158 to i64*
  %1159 = getelementptr inbounds %struct.State, %struct.State* %0, i32 0, i32 6
  %1160 = getelementptr inbounds %struct.GPR, %struct.GPR* %1159, i32 0, i32 1
  %1161 = getelementptr inbounds %struct.Reg, %struct.Reg* %1160, i32 0, i32 0
  %RAX.i113 = bitcast %union.anon* %1161 to i64*
  %1162 = getelementptr inbounds %struct.State, %struct.State* %0, i32 0, i32 6
  %1163 = getelementptr inbounds %struct.GPR, %struct.GPR* %1162, i32 0, i32 15
  %1164 = getelementptr inbounds %struct.Reg, %struct.Reg* %1163, i32 0, i32 0
  %RBP.i114 = bitcast %union.anon* %1164 to i64*
  %1165 = load i64, i64* %RBP.i114
  %1166 = sub i64 %1165, 136
  %1167 = load i64, i64* %RAX.i113
  %1168 = load i64, i64* %PC.i112
  %1169 = add i64 %1168, 7
  store i64 %1169, i64* %PC.i112
  %1170 = inttoptr i64 %1166 to i64*
  store i64 %1167, i64* %1170
  store %struct.Memory* %loadMem_400fe4, %struct.Memory** %MEMORY
  %loadMem_400feb = load %struct.Memory*, %struct.Memory** %MEMORY
  %1171 = getelementptr inbounds %struct.State, %struct.State* %0, i32 0, i32 6
  %1172 = getelementptr inbounds %struct.GPR, %struct.GPR* %1171, i32 0, i32 33
  %1173 = getelementptr inbounds %struct.Reg, %struct.Reg* %1172, i32 0, i32 0
  %PC.i110 = bitcast %union.anon* %1173 to i64*
  %1174 = getelementptr inbounds %struct.State, %struct.State* %0, i32 0, i32 6
  %1175 = getelementptr inbounds %struct.GPR, %struct.GPR* %1174, i32 0, i32 1
  %1176 = getelementptr inbounds %struct.Reg, %struct.Reg* %1175, i32 0, i32 0
  %RAX.i111 = bitcast %union.anon* %1176 to i64*
  %1177 = load i64, i64* %PC.i110
  %1178 = add i64 %1177, 8
  store i64 %1178, i64* %PC.i110
  %1179 = load i64, i64* bitcast (%G_0x60ceb8_type* @G_0x60ceb8 to i64*)
  store i64 %1179, i64* %RAX.i111, align 8
  store %struct.Memory* %loadMem_400feb, %struct.Memory** %MEMORY
  %loadMem_400ff3 = load %struct.Memory*, %struct.Memory** %MEMORY
  %1180 = getelementptr inbounds %struct.State, %struct.State* %0, i32 0, i32 6
  %1181 = getelementptr inbounds %struct.GPR, %struct.GPR* %1180, i32 0, i32 33
  %1182 = getelementptr inbounds %struct.Reg, %struct.Reg* %1181, i32 0, i32 0
  %PC.i107 = bitcast %union.anon* %1182 to i64*
  %1183 = getelementptr inbounds %struct.State, %struct.State* %0, i32 0, i32 6
  %1184 = getelementptr inbounds %struct.GPR, %struct.GPR* %1183, i32 0, i32 1
  %1185 = getelementptr inbounds %struct.Reg, %struct.Reg* %1184, i32 0, i32 0
  %RAX.i108 = bitcast %union.anon* %1185 to i64*
  %1186 = getelementptr inbounds %struct.State, %struct.State* %0, i32 0, i32 6
  %1187 = getelementptr inbounds %struct.GPR, %struct.GPR* %1186, i32 0, i32 15
  %1188 = getelementptr inbounds %struct.Reg, %struct.Reg* %1187, i32 0, i32 0
  %RBP.i109 = bitcast %union.anon* %1188 to i64*
  %1189 = load i64, i64* %RBP.i109
  %1190 = sub i64 %1189, 144
  %1191 = load i64, i64* %RAX.i108
  %1192 = load i64, i64* %PC.i107
  %1193 = add i64 %1192, 7
  store i64 %1193, i64* %PC.i107
  %1194 = inttoptr i64 %1190 to i64*
  store i64 %1191, i64* %1194
  store %struct.Memory* %loadMem_400ff3, %struct.Memory** %MEMORY
  %loadMem_400ffa = load %struct.Memory*, %struct.Memory** %MEMORY
  %1195 = getelementptr inbounds %struct.State, %struct.State* %0, i32 0, i32 6
  %1196 = getelementptr inbounds %struct.GPR, %struct.GPR* %1195, i32 0, i32 33
  %1197 = getelementptr inbounds %struct.Reg, %struct.Reg* %1196, i32 0, i32 0
  %PC.i105 = bitcast %union.anon* %1197 to i64*
  %1198 = getelementptr inbounds %struct.State, %struct.State* %0, i32 0, i32 6
  %1199 = getelementptr inbounds %struct.GPR, %struct.GPR* %1198, i32 0, i32 1
  %1200 = getelementptr inbounds %struct.Reg, %struct.Reg* %1199, i32 0, i32 0
  %RAX.i106 = bitcast %union.anon* %1200 to i64*
  %1201 = load i64, i64* %PC.i105
  %1202 = add i64 %1201, 8
  store i64 %1202, i64* %PC.i105
  %1203 = load i64, i64* bitcast (%G_0x60ce58_type* @G_0x60ce58 to i64*)
  store i64 %1203, i64* %RAX.i106, align 8
  store %struct.Memory* %loadMem_400ffa, %struct.Memory** %MEMORY
  %loadMem_401002 = load %struct.Memory*, %struct.Memory** %MEMORY
  %1204 = getelementptr inbounds %struct.State, %struct.State* %0, i32 0, i32 6
  %1205 = getelementptr inbounds %struct.GPR, %struct.GPR* %1204, i32 0, i32 33
  %1206 = getelementptr inbounds %struct.Reg, %struct.Reg* %1205, i32 0, i32 0
  %PC.i102 = bitcast %union.anon* %1206 to i64*
  %1207 = getelementptr inbounds %struct.State, %struct.State* %0, i32 0, i32 6
  %1208 = getelementptr inbounds %struct.GPR, %struct.GPR* %1207, i32 0, i32 1
  %1209 = getelementptr inbounds %struct.Reg, %struct.Reg* %1208, i32 0, i32 0
  %RAX.i103 = bitcast %union.anon* %1209 to i64*
  %1210 = getelementptr inbounds %struct.State, %struct.State* %0, i32 0, i32 6
  %1211 = getelementptr inbounds %struct.GPR, %struct.GPR* %1210, i32 0, i32 15
  %1212 = getelementptr inbounds %struct.Reg, %struct.Reg* %1211, i32 0, i32 0
  %RBP.i104 = bitcast %union.anon* %1212 to i64*
  %1213 = load i64, i64* %RBP.i104
  %1214 = sub i64 %1213, 152
  %1215 = load i64, i64* %RAX.i103
  %1216 = load i64, i64* %PC.i102
  %1217 = add i64 %1216, 7
  store i64 %1217, i64* %PC.i102
  %1218 = inttoptr i64 %1214 to i64*
  store i64 %1215, i64* %1218
  store %struct.Memory* %loadMem_401002, %struct.Memory** %MEMORY
  %loadMem_401009 = load %struct.Memory*, %struct.Memory** %MEMORY
  %1219 = getelementptr inbounds %struct.State, %struct.State* %0, i32 0, i32 6
  %1220 = getelementptr inbounds %struct.GPR, %struct.GPR* %1219, i32 0, i32 33
  %1221 = getelementptr inbounds %struct.Reg, %struct.Reg* %1220, i32 0, i32 0
  %PC.i99 = bitcast %union.anon* %1221 to i64*
  %1222 = getelementptr inbounds %struct.State, %struct.State* %0, i32 0, i32 6
  %1223 = getelementptr inbounds %struct.GPR, %struct.GPR* %1222, i32 0, i32 11
  %1224 = getelementptr inbounds %struct.Reg, %struct.Reg* %1223, i32 0, i32 0
  %RDI.i100 = bitcast %union.anon* %1224 to i64*
  %1225 = getelementptr inbounds %struct.State, %struct.State* %0, i32 0, i32 6
  %1226 = getelementptr inbounds %struct.GPR, %struct.GPR* %1225, i32 0, i32 15
  %1227 = getelementptr inbounds %struct.Reg, %struct.Reg* %1226, i32 0, i32 0
  %RBP.i101 = bitcast %union.anon* %1227 to i64*
  %1228 = load i64, i64* %RBP.i101
  %1229 = sub i64 %1228, 136
  %1230 = load i64, i64* %PC.i99
  %1231 = add i64 %1230, 7
  store i64 %1231, i64* %PC.i99
  %1232 = inttoptr i64 %1229 to i64*
  %1233 = load i64, i64* %1232
  store i64 %1233, i64* %RDI.i100, align 8
  store %struct.Memory* %loadMem_401009, %struct.Memory** %MEMORY
  %loadMem_401010 = load %struct.Memory*, %struct.Memory** %MEMORY
  %1234 = getelementptr inbounds %struct.State, %struct.State* %0, i32 0, i32 6
  %1235 = getelementptr inbounds %struct.GPR, %struct.GPR* %1234, i32 0, i32 33
  %1236 = getelementptr inbounds %struct.Reg, %struct.Reg* %1235, i32 0, i32 0
  %PC.i96 = bitcast %union.anon* %1236 to i64*
  %1237 = getelementptr inbounds %struct.State, %struct.State* %0, i32 0, i32 6
  %1238 = getelementptr inbounds %struct.GPR, %struct.GPR* %1237, i32 0, i32 9
  %1239 = getelementptr inbounds %struct.Reg, %struct.Reg* %1238, i32 0, i32 0
  %RSI.i97 = bitcast %union.anon* %1239 to i64*
  %1240 = getelementptr inbounds %struct.State, %struct.State* %0, i32 0, i32 6
  %1241 = getelementptr inbounds %struct.GPR, %struct.GPR* %1240, i32 0, i32 15
  %1242 = getelementptr inbounds %struct.Reg, %struct.Reg* %1241, i32 0, i32 0
  %RBP.i98 = bitcast %union.anon* %1242 to i64*
  %1243 = load i64, i64* %RBP.i98
  %1244 = sub i64 %1243, 144
  %1245 = load i64, i64* %PC.i96
  %1246 = add i64 %1245, 7
  store i64 %1246, i64* %PC.i96
  %1247 = inttoptr i64 %1244 to i64*
  %1248 = load i64, i64* %1247
  store i64 %1248, i64* %RSI.i97, align 8
  store %struct.Memory* %loadMem_401010, %struct.Memory** %MEMORY
  %loadMem_401017 = load %struct.Memory*, %struct.Memory** %MEMORY
  %1249 = getelementptr inbounds %struct.State, %struct.State* %0, i32 0, i32 6
  %1250 = getelementptr inbounds %struct.GPR, %struct.GPR* %1249, i32 0, i32 33
  %1251 = getelementptr inbounds %struct.Reg, %struct.Reg* %1250, i32 0, i32 0
  %PC.i93 = bitcast %union.anon* %1251 to i64*
  %1252 = getelementptr inbounds %struct.State, %struct.State* %0, i32 0, i32 6
  %1253 = getelementptr inbounds %struct.GPR, %struct.GPR* %1252, i32 0, i32 15
  %1254 = getelementptr inbounds %struct.Reg, %struct.Reg* %1253, i32 0, i32 0
  %RBP.i94 = bitcast %union.anon* %1254 to i64*
  %1255 = getelementptr inbounds %struct.State, %struct.State* %0, i32 0, i32 1
  %1256 = getelementptr inbounds [32 x %union.VectorReg], [32 x %union.VectorReg]* %1255, i64 0, i64 0
  %YMM0.i95 = bitcast %union.VectorReg* %1256 to %"class.std::bitset"*
  %1257 = bitcast %"class.std::bitset"* %YMM0.i95 to i8*
  %1258 = load i64, i64* %RBP.i94
  %1259 = sub i64 %1258, 152
  %1260 = load i64, i64* %PC.i93
  %1261 = add i64 %1260, 8
  store i64 %1261, i64* %PC.i93
  %1262 = inttoptr i64 %1259 to double*
  %1263 = load double, double* %1262
  %1264 = bitcast i8* %1257 to double*
  store double %1263, double* %1264, align 1
  %1265 = getelementptr inbounds i8, i8* %1257, i64 8
  %1266 = bitcast i8* %1265 to double*
  store double 0.000000e+00, double* %1266, align 1
  store %struct.Memory* %loadMem_401017, %struct.Memory** %MEMORY
  %loadMem1_40101f = load %struct.Memory*, %struct.Memory** %MEMORY
  %1267 = getelementptr inbounds %struct.State, %struct.State* %0, i32 0, i32 6
  %1268 = getelementptr inbounds %struct.GPR, %struct.GPR* %1267, i32 0, i32 33
  %1269 = getelementptr inbounds %struct.Reg, %struct.Reg* %1268, i32 0, i32 0
  %PC.i92 = bitcast %union.anon* %1269 to i64*
  %1270 = load i64, i64* %PC.i92
  %1271 = add i64 %1270, 2145
  %1272 = load i64, i64* %PC.i92
  %1273 = add i64 %1272, 5
  %1274 = load i64, i64* %PC.i92
  %1275 = add i64 %1274, 5
  store i64 %1275, i64* %PC.i92
  %1276 = getelementptr inbounds %struct.State, %struct.State* %0, i64 0, i32 6, i32 13, i32 0, i32 0
  %1277 = load i64, i64* %1276, align 8
  %1278 = add i64 %1277, -8
  %1279 = inttoptr i64 %1278 to i64*
  store i64 %1273, i64* %1279
  store i64 %1278, i64* %1276, align 8
  %1280 = getelementptr inbounds %struct.State, %struct.State* %0, i64 0, i32 6, i32 33, i32 0, i32 0
  store i64 %1271, i64* %1280, align 8
  store %struct.Memory* %loadMem1_40101f, %struct.Memory** %MEMORY
  %loadMem2_40101f = load %struct.Memory*, %struct.Memory** %MEMORY
  %loadPC_40101f = load i64, i64* %3
  %call2_40101f = call %struct.Memory* @sub_401880._Z4testI16reverse_iteratorI14Double_pointer6DoubleES2_EvT_S4_T0_(%struct.State* %0, i64 %loadPC_40101f, %struct.Memory* %loadMem2_40101f)
  store %struct.Memory* %call2_40101f, %struct.Memory** %MEMORY
  %loadMem_401024 = load %struct.Memory*, %struct.Memory** %MEMORY
  %1281 = getelementptr inbounds %struct.State, %struct.State* %0, i32 0, i32 6
  %1282 = getelementptr inbounds %struct.GPR, %struct.GPR* %1281, i32 0, i32 33
  %1283 = getelementptr inbounds %struct.Reg, %struct.Reg* %1282, i32 0, i32 0
  %PC.i90 = bitcast %union.anon* %1283 to i64*
  %1284 = getelementptr inbounds %struct.State, %struct.State* %0, i32 0, i32 6
  %1285 = getelementptr inbounds %struct.GPR, %struct.GPR* %1284, i32 0, i32 1
  %1286 = getelementptr inbounds %struct.Reg, %struct.Reg* %1285, i32 0, i32 0
  %RAX.i91 = bitcast %union.anon* %1286 to i64*
  %1287 = load i64, i64* %PC.i90
  %1288 = add i64 %1287, 8
  store i64 %1288, i64* %PC.i90
  %1289 = load i64, i64* bitcast (%G_0x60cec0_type* @G_0x60cec0 to i64*)
  store i64 %1289, i64* %RAX.i91, align 8
  store %struct.Memory* %loadMem_401024, %struct.Memory** %MEMORY
  %loadMem_40102c = load %struct.Memory*, %struct.Memory** %MEMORY
  %1290 = getelementptr inbounds %struct.State, %struct.State* %0, i32 0, i32 6
  %1291 = getelementptr inbounds %struct.GPR, %struct.GPR* %1290, i32 0, i32 33
  %1292 = getelementptr inbounds %struct.Reg, %struct.Reg* %1291, i32 0, i32 0
  %PC.i87 = bitcast %union.anon* %1292 to i64*
  %1293 = getelementptr inbounds %struct.State, %struct.State* %0, i32 0, i32 6
  %1294 = getelementptr inbounds %struct.GPR, %struct.GPR* %1293, i32 0, i32 1
  %1295 = getelementptr inbounds %struct.Reg, %struct.Reg* %1294, i32 0, i32 0
  %RAX.i88 = bitcast %union.anon* %1295 to i64*
  %1296 = getelementptr inbounds %struct.State, %struct.State* %0, i32 0, i32 6
  %1297 = getelementptr inbounds %struct.GPR, %struct.GPR* %1296, i32 0, i32 15
  %1298 = getelementptr inbounds %struct.Reg, %struct.Reg* %1297, i32 0, i32 0
  %RBP.i89 = bitcast %union.anon* %1298 to i64*
  %1299 = load i64, i64* %RBP.i89
  %1300 = sub i64 %1299, 160
  %1301 = load i64, i64* %RAX.i88
  %1302 = load i64, i64* %PC.i87
  %1303 = add i64 %1302, 7
  store i64 %1303, i64* %PC.i87
  %1304 = inttoptr i64 %1300 to i64*
  store i64 %1301, i64* %1304
  store %struct.Memory* %loadMem_40102c, %struct.Memory** %MEMORY
  %loadMem_401033 = load %struct.Memory*, %struct.Memory** %MEMORY
  %1305 = getelementptr inbounds %struct.State, %struct.State* %0, i32 0, i32 6
  %1306 = getelementptr inbounds %struct.GPR, %struct.GPR* %1305, i32 0, i32 33
  %1307 = getelementptr inbounds %struct.Reg, %struct.Reg* %1306, i32 0, i32 0
  %PC.i85 = bitcast %union.anon* %1307 to i64*
  %1308 = getelementptr inbounds %struct.State, %struct.State* %0, i32 0, i32 6
  %1309 = getelementptr inbounds %struct.GPR, %struct.GPR* %1308, i32 0, i32 1
  %1310 = getelementptr inbounds %struct.Reg, %struct.Reg* %1309, i32 0, i32 0
  %RAX.i86 = bitcast %union.anon* %1310 to i64*
  %1311 = load i64, i64* %PC.i85
  %1312 = add i64 %1311, 8
  store i64 %1312, i64* %PC.i85
  %1313 = load i64, i64* bitcast (%G_0x60cec8_type* @G_0x60cec8 to i64*)
  store i64 %1313, i64* %RAX.i86, align 8
  store %struct.Memory* %loadMem_401033, %struct.Memory** %MEMORY
  %loadMem_40103b = load %struct.Memory*, %struct.Memory** %MEMORY
  %1314 = getelementptr inbounds %struct.State, %struct.State* %0, i32 0, i32 6
  %1315 = getelementptr inbounds %struct.GPR, %struct.GPR* %1314, i32 0, i32 33
  %1316 = getelementptr inbounds %struct.Reg, %struct.Reg* %1315, i32 0, i32 0
  %PC.i82 = bitcast %union.anon* %1316 to i64*
  %1317 = getelementptr inbounds %struct.State, %struct.State* %0, i32 0, i32 6
  %1318 = getelementptr inbounds %struct.GPR, %struct.GPR* %1317, i32 0, i32 1
  %1319 = getelementptr inbounds %struct.Reg, %struct.Reg* %1318, i32 0, i32 0
  %RAX.i83 = bitcast %union.anon* %1319 to i64*
  %1320 = getelementptr inbounds %struct.State, %struct.State* %0, i32 0, i32 6
  %1321 = getelementptr inbounds %struct.GPR, %struct.GPR* %1320, i32 0, i32 15
  %1322 = getelementptr inbounds %struct.Reg, %struct.Reg* %1321, i32 0, i32 0
  %RBP.i84 = bitcast %union.anon* %1322 to i64*
  %1323 = load i64, i64* %RBP.i84
  %1324 = sub i64 %1323, 168
  %1325 = load i64, i64* %RAX.i83
  %1326 = load i64, i64* %PC.i82
  %1327 = add i64 %1326, 7
  store i64 %1327, i64* %PC.i82
  %1328 = inttoptr i64 %1324 to i64*
  store i64 %1325, i64* %1328
  store %struct.Memory* %loadMem_40103b, %struct.Memory** %MEMORY
  %loadMem_401042 = load %struct.Memory*, %struct.Memory** %MEMORY
  %1329 = getelementptr inbounds %struct.State, %struct.State* %0, i32 0, i32 6
  %1330 = getelementptr inbounds %struct.GPR, %struct.GPR* %1329, i32 0, i32 33
  %1331 = getelementptr inbounds %struct.Reg, %struct.Reg* %1330, i32 0, i32 0
  %PC.i80 = bitcast %union.anon* %1331 to i64*
  %1332 = getelementptr inbounds %struct.State, %struct.State* %0, i32 0, i32 1
  %1333 = getelementptr inbounds [32 x %union.VectorReg], [32 x %union.VectorReg]* %1332, i64 0, i64 0
  %YMM0.i81 = bitcast %union.VectorReg* %1333 to %"class.std::bitset"*
  %1334 = bitcast %"class.std::bitset"* %YMM0.i81 to i8*
  %1335 = load i64, i64* %PC.i80
  %1336 = add i64 %1335, 9
  store i64 %1336, i64* %PC.i80
  %1337 = load double, double* bitcast (%G_0x60ce50_type* @G_0x60ce50 to double*)
  %1338 = bitcast i8* %1334 to double*
  store double %1337, double* %1338, align 1
  %1339 = getelementptr inbounds i8, i8* %1334, i64 8
  %1340 = bitcast i8* %1339 to double*
  store double 0.000000e+00, double* %1340, align 1
  store %struct.Memory* %loadMem_401042, %struct.Memory** %MEMORY
  %loadMem_40104b = load %struct.Memory*, %struct.Memory** %MEMORY
  %1341 = getelementptr inbounds %struct.State, %struct.State* %0, i32 0, i32 6
  %1342 = getelementptr inbounds %struct.GPR, %struct.GPR* %1341, i32 0, i32 33
  %1343 = getelementptr inbounds %struct.Reg, %struct.Reg* %1342, i32 0, i32 0
  %PC.i77 = bitcast %union.anon* %1343 to i64*
  %1344 = getelementptr inbounds %struct.State, %struct.State* %0, i32 0, i32 6
  %1345 = getelementptr inbounds %struct.GPR, %struct.GPR* %1344, i32 0, i32 11
  %1346 = getelementptr inbounds %struct.Reg, %struct.Reg* %1345, i32 0, i32 0
  %RDI.i78 = bitcast %union.anon* %1346 to i64*
  %1347 = getelementptr inbounds %struct.State, %struct.State* %0, i32 0, i32 6
  %1348 = getelementptr inbounds %struct.GPR, %struct.GPR* %1347, i32 0, i32 15
  %1349 = getelementptr inbounds %struct.Reg, %struct.Reg* %1348, i32 0, i32 0
  %RBP.i79 = bitcast %union.anon* %1349 to i64*
  %1350 = load i64, i64* %RBP.i79
  %1351 = sub i64 %1350, 160
  %1352 = load i64, i64* %PC.i77
  %1353 = add i64 %1352, 7
  store i64 %1353, i64* %PC.i77
  %1354 = inttoptr i64 %1351 to i64*
  %1355 = load i64, i64* %1354
  store i64 %1355, i64* %RDI.i78, align 8
  store %struct.Memory* %loadMem_40104b, %struct.Memory** %MEMORY
  %loadMem_401052 = load %struct.Memory*, %struct.Memory** %MEMORY
  %1356 = getelementptr inbounds %struct.State, %struct.State* %0, i32 0, i32 6
  %1357 = getelementptr inbounds %struct.GPR, %struct.GPR* %1356, i32 0, i32 33
  %1358 = getelementptr inbounds %struct.Reg, %struct.Reg* %1357, i32 0, i32 0
  %PC.i74 = bitcast %union.anon* %1358 to i64*
  %1359 = getelementptr inbounds %struct.State, %struct.State* %0, i32 0, i32 6
  %1360 = getelementptr inbounds %struct.GPR, %struct.GPR* %1359, i32 0, i32 9
  %1361 = getelementptr inbounds %struct.Reg, %struct.Reg* %1360, i32 0, i32 0
  %RSI.i75 = bitcast %union.anon* %1361 to i64*
  %1362 = getelementptr inbounds %struct.State, %struct.State* %0, i32 0, i32 6
  %1363 = getelementptr inbounds %struct.GPR, %struct.GPR* %1362, i32 0, i32 15
  %1364 = getelementptr inbounds %struct.Reg, %struct.Reg* %1363, i32 0, i32 0
  %RBP.i76 = bitcast %union.anon* %1364 to i64*
  %1365 = load i64, i64* %RBP.i76
  %1366 = sub i64 %1365, 168
  %1367 = load i64, i64* %PC.i74
  %1368 = add i64 %1367, 7
  store i64 %1368, i64* %PC.i74
  %1369 = inttoptr i64 %1366 to i64*
  %1370 = load i64, i64* %1369
  store i64 %1370, i64* %RSI.i75, align 8
  store %struct.Memory* %loadMem_401052, %struct.Memory** %MEMORY
  %loadMem1_401059 = load %struct.Memory*, %struct.Memory** %MEMORY
  %1371 = getelementptr inbounds %struct.State, %struct.State* %0, i32 0, i32 6
  %1372 = getelementptr inbounds %struct.GPR, %struct.GPR* %1371, i32 0, i32 33
  %1373 = getelementptr inbounds %struct.Reg, %struct.Reg* %1372, i32 0, i32 0
  %PC.i73 = bitcast %union.anon* %1373 to i64*
  %1374 = load i64, i64* %PC.i73
  %1375 = add i64 %1374, 2263
  %1376 = load i64, i64* %PC.i73
  %1377 = add i64 %1376, 5
  %1378 = load i64, i64* %PC.i73
  %1379 = add i64 %1378, 5
  store i64 %1379, i64* %PC.i73
  %1380 = getelementptr inbounds %struct.State, %struct.State* %0, i64 0, i32 6, i32 13, i32 0, i32 0
  %1381 = load i64, i64* %1380, align 8
  %1382 = add i64 %1381, -8
  %1383 = inttoptr i64 %1382 to i64*
  store i64 %1377, i64* %1383
  store i64 %1382, i64* %1380, align 8
  %1384 = getelementptr inbounds %struct.State, %struct.State* %0, i64 0, i32 6, i32 33, i32 0, i32 0
  store i64 %1375, i64* %1384, align 8
  store %struct.Memory* %loadMem1_401059, %struct.Memory** %MEMORY
  %loadMem2_401059 = load %struct.Memory*, %struct.Memory** %MEMORY
  %loadPC_401059 = load i64, i64* %3
  %call2_401059 = call %struct.Memory* @sub_401930._Z4testI16reverse_iteratorIS0_IPddEdEdEvT_S4_T0_(%struct.State* %0, i64 %loadPC_401059, %struct.Memory* %loadMem2_401059)
  store %struct.Memory* %call2_401059, %struct.Memory** %MEMORY
  %loadMem_40105e = load %struct.Memory*, %struct.Memory** %MEMORY
  %1385 = getelementptr inbounds %struct.State, %struct.State* %0, i32 0, i32 6
  %1386 = getelementptr inbounds %struct.GPR, %struct.GPR* %1385, i32 0, i32 33
  %1387 = getelementptr inbounds %struct.Reg, %struct.Reg* %1386, i32 0, i32 0
  %PC.i71 = bitcast %union.anon* %1387 to i64*
  %1388 = getelementptr inbounds %struct.State, %struct.State* %0, i32 0, i32 6
  %1389 = getelementptr inbounds %struct.GPR, %struct.GPR* %1388, i32 0, i32 1
  %1390 = getelementptr inbounds %struct.Reg, %struct.Reg* %1389, i32 0, i32 0
  %RAX.i72 = bitcast %union.anon* %1390 to i64*
  %1391 = load i64, i64* %PC.i71
  %1392 = add i64 %1391, 8
  store i64 %1392, i64* %PC.i71
  %1393 = load i64, i64* bitcast (%G_0x60ced0_type* @G_0x60ced0 to i64*)
  store i64 %1393, i64* %RAX.i72, align 8
  store %struct.Memory* %loadMem_40105e, %struct.Memory** %MEMORY
  %loadMem_401066 = load %struct.Memory*, %struct.Memory** %MEMORY
  %1394 = getelementptr inbounds %struct.State, %struct.State* %0, i32 0, i32 6
  %1395 = getelementptr inbounds %struct.GPR, %struct.GPR* %1394, i32 0, i32 33
  %1396 = getelementptr inbounds %struct.Reg, %struct.Reg* %1395, i32 0, i32 0
  %PC.i68 = bitcast %union.anon* %1396 to i64*
  %1397 = getelementptr inbounds %struct.State, %struct.State* %0, i32 0, i32 6
  %1398 = getelementptr inbounds %struct.GPR, %struct.GPR* %1397, i32 0, i32 1
  %1399 = getelementptr inbounds %struct.Reg, %struct.Reg* %1398, i32 0, i32 0
  %RAX.i69 = bitcast %union.anon* %1399 to i64*
  %1400 = getelementptr inbounds %struct.State, %struct.State* %0, i32 0, i32 6
  %1401 = getelementptr inbounds %struct.GPR, %struct.GPR* %1400, i32 0, i32 15
  %1402 = getelementptr inbounds %struct.Reg, %struct.Reg* %1401, i32 0, i32 0
  %RBP.i70 = bitcast %union.anon* %1402 to i64*
  %1403 = load i64, i64* %RBP.i70
  %1404 = sub i64 %1403, 176
  %1405 = load i64, i64* %RAX.i69
  %1406 = load i64, i64* %PC.i68
  %1407 = add i64 %1406, 7
  store i64 %1407, i64* %PC.i68
  %1408 = inttoptr i64 %1404 to i64*
  store i64 %1405, i64* %1408
  store %struct.Memory* %loadMem_401066, %struct.Memory** %MEMORY
  %loadMem_40106d = load %struct.Memory*, %struct.Memory** %MEMORY
  %1409 = getelementptr inbounds %struct.State, %struct.State* %0, i32 0, i32 6
  %1410 = getelementptr inbounds %struct.GPR, %struct.GPR* %1409, i32 0, i32 33
  %1411 = getelementptr inbounds %struct.Reg, %struct.Reg* %1410, i32 0, i32 0
  %PC.i66 = bitcast %union.anon* %1411 to i64*
  %1412 = getelementptr inbounds %struct.State, %struct.State* %0, i32 0, i32 6
  %1413 = getelementptr inbounds %struct.GPR, %struct.GPR* %1412, i32 0, i32 1
  %1414 = getelementptr inbounds %struct.Reg, %struct.Reg* %1413, i32 0, i32 0
  %RAX.i67 = bitcast %union.anon* %1414 to i64*
  %1415 = load i64, i64* %PC.i66
  %1416 = add i64 %1415, 8
  store i64 %1416, i64* %PC.i66
  %1417 = load i64, i64* bitcast (%G_0x60ced8_type* @G_0x60ced8 to i64*)
  store i64 %1417, i64* %RAX.i67, align 8
  store %struct.Memory* %loadMem_40106d, %struct.Memory** %MEMORY
  %loadMem_401075 = load %struct.Memory*, %struct.Memory** %MEMORY
  %1418 = getelementptr inbounds %struct.State, %struct.State* %0, i32 0, i32 6
  %1419 = getelementptr inbounds %struct.GPR, %struct.GPR* %1418, i32 0, i32 33
  %1420 = getelementptr inbounds %struct.Reg, %struct.Reg* %1419, i32 0, i32 0
  %PC.i63 = bitcast %union.anon* %1420 to i64*
  %1421 = getelementptr inbounds %struct.State, %struct.State* %0, i32 0, i32 6
  %1422 = getelementptr inbounds %struct.GPR, %struct.GPR* %1421, i32 0, i32 1
  %1423 = getelementptr inbounds %struct.Reg, %struct.Reg* %1422, i32 0, i32 0
  %RAX.i64 = bitcast %union.anon* %1423 to i64*
  %1424 = getelementptr inbounds %struct.State, %struct.State* %0, i32 0, i32 6
  %1425 = getelementptr inbounds %struct.GPR, %struct.GPR* %1424, i32 0, i32 15
  %1426 = getelementptr inbounds %struct.Reg, %struct.Reg* %1425, i32 0, i32 0
  %RBP.i65 = bitcast %union.anon* %1426 to i64*
  %1427 = load i64, i64* %RBP.i65
  %1428 = sub i64 %1427, 184
  %1429 = load i64, i64* %RAX.i64
  %1430 = load i64, i64* %PC.i63
  %1431 = add i64 %1430, 7
  store i64 %1431, i64* %PC.i63
  %1432 = inttoptr i64 %1428 to i64*
  store i64 %1429, i64* %1432
  store %struct.Memory* %loadMem_401075, %struct.Memory** %MEMORY
  %loadMem_40107c = load %struct.Memory*, %struct.Memory** %MEMORY
  %1433 = getelementptr inbounds %struct.State, %struct.State* %0, i32 0, i32 6
  %1434 = getelementptr inbounds %struct.GPR, %struct.GPR* %1433, i32 0, i32 33
  %1435 = getelementptr inbounds %struct.Reg, %struct.Reg* %1434, i32 0, i32 0
  %PC.i61 = bitcast %union.anon* %1435 to i64*
  %1436 = getelementptr inbounds %struct.State, %struct.State* %0, i32 0, i32 6
  %1437 = getelementptr inbounds %struct.GPR, %struct.GPR* %1436, i32 0, i32 1
  %1438 = getelementptr inbounds %struct.Reg, %struct.Reg* %1437, i32 0, i32 0
  %RAX.i62 = bitcast %union.anon* %1438 to i64*
  %1439 = load i64, i64* %PC.i61
  %1440 = add i64 %1439, 8
  store i64 %1440, i64* %PC.i61
  %1441 = load i64, i64* bitcast (%G_0x60ce58_type* @G_0x60ce58 to i64*)
  store i64 %1441, i64* %RAX.i62, align 8
  store %struct.Memory* %loadMem_40107c, %struct.Memory** %MEMORY
  %loadMem_401084 = load %struct.Memory*, %struct.Memory** %MEMORY
  %1442 = getelementptr inbounds %struct.State, %struct.State* %0, i32 0, i32 6
  %1443 = getelementptr inbounds %struct.GPR, %struct.GPR* %1442, i32 0, i32 33
  %1444 = getelementptr inbounds %struct.Reg, %struct.Reg* %1443, i32 0, i32 0
  %PC.i58 = bitcast %union.anon* %1444 to i64*
  %1445 = getelementptr inbounds %struct.State, %struct.State* %0, i32 0, i32 6
  %1446 = getelementptr inbounds %struct.GPR, %struct.GPR* %1445, i32 0, i32 1
  %1447 = getelementptr inbounds %struct.Reg, %struct.Reg* %1446, i32 0, i32 0
  %RAX.i59 = bitcast %union.anon* %1447 to i64*
  %1448 = getelementptr inbounds %struct.State, %struct.State* %0, i32 0, i32 6
  %1449 = getelementptr inbounds %struct.GPR, %struct.GPR* %1448, i32 0, i32 15
  %1450 = getelementptr inbounds %struct.Reg, %struct.Reg* %1449, i32 0, i32 0
  %RBP.i60 = bitcast %union.anon* %1450 to i64*
  %1451 = load i64, i64* %RBP.i60
  %1452 = sub i64 %1451, 192
  %1453 = load i64, i64* %RAX.i59
  %1454 = load i64, i64* %PC.i58
  %1455 = add i64 %1454, 7
  store i64 %1455, i64* %PC.i58
  %1456 = inttoptr i64 %1452 to i64*
  store i64 %1453, i64* %1456
  store %struct.Memory* %loadMem_401084, %struct.Memory** %MEMORY
  %loadMem_40108b = load %struct.Memory*, %struct.Memory** %MEMORY
  %1457 = getelementptr inbounds %struct.State, %struct.State* %0, i32 0, i32 6
  %1458 = getelementptr inbounds %struct.GPR, %struct.GPR* %1457, i32 0, i32 33
  %1459 = getelementptr inbounds %struct.Reg, %struct.Reg* %1458, i32 0, i32 0
  %PC.i55 = bitcast %union.anon* %1459 to i64*
  %1460 = getelementptr inbounds %struct.State, %struct.State* %0, i32 0, i32 6
  %1461 = getelementptr inbounds %struct.GPR, %struct.GPR* %1460, i32 0, i32 11
  %1462 = getelementptr inbounds %struct.Reg, %struct.Reg* %1461, i32 0, i32 0
  %RDI.i56 = bitcast %union.anon* %1462 to i64*
  %1463 = getelementptr inbounds %struct.State, %struct.State* %0, i32 0, i32 6
  %1464 = getelementptr inbounds %struct.GPR, %struct.GPR* %1463, i32 0, i32 15
  %1465 = getelementptr inbounds %struct.Reg, %struct.Reg* %1464, i32 0, i32 0
  %RBP.i57 = bitcast %union.anon* %1465 to i64*
  %1466 = load i64, i64* %RBP.i57
  %1467 = sub i64 %1466, 176
  %1468 = load i64, i64* %PC.i55
  %1469 = add i64 %1468, 7
  store i64 %1469, i64* %PC.i55
  %1470 = inttoptr i64 %1467 to i64*
  %1471 = load i64, i64* %1470
  store i64 %1471, i64* %RDI.i56, align 8
  store %struct.Memory* %loadMem_40108b, %struct.Memory** %MEMORY
  %loadMem_401092 = load %struct.Memory*, %struct.Memory** %MEMORY
  %1472 = getelementptr inbounds %struct.State, %struct.State* %0, i32 0, i32 6
  %1473 = getelementptr inbounds %struct.GPR, %struct.GPR* %1472, i32 0, i32 33
  %1474 = getelementptr inbounds %struct.Reg, %struct.Reg* %1473, i32 0, i32 0
  %PC.i52 = bitcast %union.anon* %1474 to i64*
  %1475 = getelementptr inbounds %struct.State, %struct.State* %0, i32 0, i32 6
  %1476 = getelementptr inbounds %struct.GPR, %struct.GPR* %1475, i32 0, i32 9
  %1477 = getelementptr inbounds %struct.Reg, %struct.Reg* %1476, i32 0, i32 0
  %RSI.i53 = bitcast %union.anon* %1477 to i64*
  %1478 = getelementptr inbounds %struct.State, %struct.State* %0, i32 0, i32 6
  %1479 = getelementptr inbounds %struct.GPR, %struct.GPR* %1478, i32 0, i32 15
  %1480 = getelementptr inbounds %struct.Reg, %struct.Reg* %1479, i32 0, i32 0
  %RBP.i54 = bitcast %union.anon* %1480 to i64*
  %1481 = load i64, i64* %RBP.i54
  %1482 = sub i64 %1481, 184
  %1483 = load i64, i64* %PC.i52
  %1484 = add i64 %1483, 7
  store i64 %1484, i64* %PC.i52
  %1485 = inttoptr i64 %1482 to i64*
  %1486 = load i64, i64* %1485
  store i64 %1486, i64* %RSI.i53, align 8
  store %struct.Memory* %loadMem_401092, %struct.Memory** %MEMORY
  %loadMem_401099 = load %struct.Memory*, %struct.Memory** %MEMORY
  %1487 = getelementptr inbounds %struct.State, %struct.State* %0, i32 0, i32 6
  %1488 = getelementptr inbounds %struct.GPR, %struct.GPR* %1487, i32 0, i32 33
  %1489 = getelementptr inbounds %struct.Reg, %struct.Reg* %1488, i32 0, i32 0
  %PC.i49 = bitcast %union.anon* %1489 to i64*
  %1490 = getelementptr inbounds %struct.State, %struct.State* %0, i32 0, i32 6
  %1491 = getelementptr inbounds %struct.GPR, %struct.GPR* %1490, i32 0, i32 15
  %1492 = getelementptr inbounds %struct.Reg, %struct.Reg* %1491, i32 0, i32 0
  %RBP.i50 = bitcast %union.anon* %1492 to i64*
  %1493 = getelementptr inbounds %struct.State, %struct.State* %0, i32 0, i32 1
  %1494 = getelementptr inbounds [32 x %union.VectorReg], [32 x %union.VectorReg]* %1493, i64 0, i64 0
  %YMM0.i51 = bitcast %union.VectorReg* %1494 to %"class.std::bitset"*
  %1495 = bitcast %"class.std::bitset"* %YMM0.i51 to i8*
  %1496 = load i64, i64* %RBP.i50
  %1497 = sub i64 %1496, 192
  %1498 = load i64, i64* %PC.i49
  %1499 = add i64 %1498, 8
  store i64 %1499, i64* %PC.i49
  %1500 = inttoptr i64 %1497 to double*
  %1501 = load double, double* %1500
  %1502 = bitcast i8* %1495 to double*
  store double %1501, double* %1502, align 1
  %1503 = getelementptr inbounds i8, i8* %1495, i64 8
  %1504 = bitcast i8* %1503 to double*
  store double 0.000000e+00, double* %1504, align 1
  store %struct.Memory* %loadMem_401099, %struct.Memory** %MEMORY
  %loadMem1_4010a1 = load %struct.Memory*, %struct.Memory** %MEMORY
  %1505 = getelementptr inbounds %struct.State, %struct.State* %0, i32 0, i32 6
  %1506 = getelementptr inbounds %struct.GPR, %struct.GPR* %1505, i32 0, i32 33
  %1507 = getelementptr inbounds %struct.Reg, %struct.Reg* %1506, i32 0, i32 0
  %PC.i48 = bitcast %union.anon* %1507 to i64*
  %1508 = load i64, i64* %PC.i48
  %1509 = add i64 %1508, 2335
  %1510 = load i64, i64* %PC.i48
  %1511 = add i64 %1510, 5
  %1512 = load i64, i64* %PC.i48
  %1513 = add i64 %1512, 5
  store i64 %1513, i64* %PC.i48
  %1514 = getelementptr inbounds %struct.State, %struct.State* %0, i64 0, i32 6, i32 13, i32 0, i32 0
  %1515 = load i64, i64* %1514, align 8
  %1516 = add i64 %1515, -8
  %1517 = inttoptr i64 %1516 to i64*
  store i64 %1511, i64* %1517
  store i64 %1516, i64* %1514, align 8
  %1518 = getelementptr inbounds %struct.State, %struct.State* %0, i64 0, i32 6, i32 33, i32 0, i32 0
  store i64 %1509, i64* %1518, align 8
  store %struct.Memory* %loadMem1_4010a1, %struct.Memory** %MEMORY
  %loadMem2_4010a1 = load %struct.Memory*, %struct.Memory** %MEMORY
  %loadPC_4010a1 = load i64, i64* %3
  %call2_4010a1 = call %struct.Memory* @sub_4019c0._Z4testI16reverse_iteratorIS0_IP6DoubleS1_ES1_ES1_EvT_S5_T0_(%struct.State* %0, i64 %loadPC_4010a1, %struct.Memory* %loadMem2_4010a1)
  store %struct.Memory* %call2_4010a1, %struct.Memory** %MEMORY
  %loadMem_4010a6 = load %struct.Memory*, %struct.Memory** %MEMORY
  %1519 = getelementptr inbounds %struct.State, %struct.State* %0, i32 0, i32 6
  %1520 = getelementptr inbounds %struct.GPR, %struct.GPR* %1519, i32 0, i32 33
  %1521 = getelementptr inbounds %struct.Reg, %struct.Reg* %1520, i32 0, i32 0
  %PC.i46 = bitcast %union.anon* %1521 to i64*
  %1522 = getelementptr inbounds %struct.State, %struct.State* %0, i32 0, i32 6
  %1523 = getelementptr inbounds %struct.GPR, %struct.GPR* %1522, i32 0, i32 1
  %1524 = getelementptr inbounds %struct.Reg, %struct.Reg* %1523, i32 0, i32 0
  %RAX.i47 = bitcast %union.anon* %1524 to i64*
  %1525 = load i64, i64* %PC.i46
  %1526 = add i64 %1525, 8
  store i64 %1526, i64* %PC.i46
  %1527 = load i64, i64* bitcast (%G_0x60cee0_type* @G_0x60cee0 to i64*)
  store i64 %1527, i64* %RAX.i47, align 8
  store %struct.Memory* %loadMem_4010a6, %struct.Memory** %MEMORY
  %loadMem_4010ae = load %struct.Memory*, %struct.Memory** %MEMORY
  %1528 = getelementptr inbounds %struct.State, %struct.State* %0, i32 0, i32 6
  %1529 = getelementptr inbounds %struct.GPR, %struct.GPR* %1528, i32 0, i32 33
  %1530 = getelementptr inbounds %struct.Reg, %struct.Reg* %1529, i32 0, i32 0
  %PC.i43 = bitcast %union.anon* %1530 to i64*
  %1531 = getelementptr inbounds %struct.State, %struct.State* %0, i32 0, i32 6
  %1532 = getelementptr inbounds %struct.GPR, %struct.GPR* %1531, i32 0, i32 1
  %1533 = getelementptr inbounds %struct.Reg, %struct.Reg* %1532, i32 0, i32 0
  %RAX.i44 = bitcast %union.anon* %1533 to i64*
  %1534 = getelementptr inbounds %struct.State, %struct.State* %0, i32 0, i32 6
  %1535 = getelementptr inbounds %struct.GPR, %struct.GPR* %1534, i32 0, i32 15
  %1536 = getelementptr inbounds %struct.Reg, %struct.Reg* %1535, i32 0, i32 0
  %RBP.i45 = bitcast %union.anon* %1536 to i64*
  %1537 = load i64, i64* %RBP.i45
  %1538 = sub i64 %1537, 200
  %1539 = load i64, i64* %RAX.i44
  %1540 = load i64, i64* %PC.i43
  %1541 = add i64 %1540, 7
  store i64 %1541, i64* %PC.i43
  %1542 = inttoptr i64 %1538 to i64*
  store i64 %1539, i64* %1542
  store %struct.Memory* %loadMem_4010ae, %struct.Memory** %MEMORY
  %loadMem_4010b5 = load %struct.Memory*, %struct.Memory** %MEMORY
  %1543 = getelementptr inbounds %struct.State, %struct.State* %0, i32 0, i32 6
  %1544 = getelementptr inbounds %struct.GPR, %struct.GPR* %1543, i32 0, i32 33
  %1545 = getelementptr inbounds %struct.Reg, %struct.Reg* %1544, i32 0, i32 0
  %PC.i41 = bitcast %union.anon* %1545 to i64*
  %1546 = getelementptr inbounds %struct.State, %struct.State* %0, i32 0, i32 6
  %1547 = getelementptr inbounds %struct.GPR, %struct.GPR* %1546, i32 0, i32 1
  %1548 = getelementptr inbounds %struct.Reg, %struct.Reg* %1547, i32 0, i32 0
  %RAX.i42 = bitcast %union.anon* %1548 to i64*
  %1549 = load i64, i64* %PC.i41
  %1550 = add i64 %1549, 8
  store i64 %1550, i64* %PC.i41
  %1551 = load i64, i64* bitcast (%G_0x60cee8_type* @G_0x60cee8 to i64*)
  store i64 %1551, i64* %RAX.i42, align 8
  store %struct.Memory* %loadMem_4010b5, %struct.Memory** %MEMORY
  %loadMem_4010bd = load %struct.Memory*, %struct.Memory** %MEMORY
  %1552 = getelementptr inbounds %struct.State, %struct.State* %0, i32 0, i32 6
  %1553 = getelementptr inbounds %struct.GPR, %struct.GPR* %1552, i32 0, i32 33
  %1554 = getelementptr inbounds %struct.Reg, %struct.Reg* %1553, i32 0, i32 0
  %PC.i38 = bitcast %union.anon* %1554 to i64*
  %1555 = getelementptr inbounds %struct.State, %struct.State* %0, i32 0, i32 6
  %1556 = getelementptr inbounds %struct.GPR, %struct.GPR* %1555, i32 0, i32 1
  %1557 = getelementptr inbounds %struct.Reg, %struct.Reg* %1556, i32 0, i32 0
  %RAX.i39 = bitcast %union.anon* %1557 to i64*
  %1558 = getelementptr inbounds %struct.State, %struct.State* %0, i32 0, i32 6
  %1559 = getelementptr inbounds %struct.GPR, %struct.GPR* %1558, i32 0, i32 15
  %1560 = getelementptr inbounds %struct.Reg, %struct.Reg* %1559, i32 0, i32 0
  %RBP.i40 = bitcast %union.anon* %1560 to i64*
  %1561 = load i64, i64* %RBP.i40
  %1562 = sub i64 %1561, 208
  %1563 = load i64, i64* %RAX.i39
  %1564 = load i64, i64* %PC.i38
  %1565 = add i64 %1564, 7
  store i64 %1565, i64* %PC.i38
  %1566 = inttoptr i64 %1562 to i64*
  store i64 %1563, i64* %1566
  store %struct.Memory* %loadMem_4010bd, %struct.Memory** %MEMORY
  %loadMem_4010c4 = load %struct.Memory*, %struct.Memory** %MEMORY
  %1567 = getelementptr inbounds %struct.State, %struct.State* %0, i32 0, i32 6
  %1568 = getelementptr inbounds %struct.GPR, %struct.GPR* %1567, i32 0, i32 33
  %1569 = getelementptr inbounds %struct.Reg, %struct.Reg* %1568, i32 0, i32 0
  %PC.i36 = bitcast %union.anon* %1569 to i64*
  %1570 = getelementptr inbounds %struct.State, %struct.State* %0, i32 0, i32 1
  %1571 = getelementptr inbounds [32 x %union.VectorReg], [32 x %union.VectorReg]* %1570, i64 0, i64 0
  %YMM0.i37 = bitcast %union.VectorReg* %1571 to %"class.std::bitset"*
  %1572 = bitcast %"class.std::bitset"* %YMM0.i37 to i8*
  %1573 = load i64, i64* %PC.i36
  %1574 = add i64 %1573, 9
  store i64 %1574, i64* %PC.i36
  %1575 = load double, double* bitcast (%G_0x60ce50_type* @G_0x60ce50 to double*)
  %1576 = bitcast i8* %1572 to double*
  store double %1575, double* %1576, align 1
  %1577 = getelementptr inbounds i8, i8* %1572, i64 8
  %1578 = bitcast i8* %1577 to double*
  store double 0.000000e+00, double* %1578, align 1
  store %struct.Memory* %loadMem_4010c4, %struct.Memory** %MEMORY
  %loadMem_4010cd = load %struct.Memory*, %struct.Memory** %MEMORY
  %1579 = getelementptr inbounds %struct.State, %struct.State* %0, i32 0, i32 6
  %1580 = getelementptr inbounds %struct.GPR, %struct.GPR* %1579, i32 0, i32 33
  %1581 = getelementptr inbounds %struct.Reg, %struct.Reg* %1580, i32 0, i32 0
  %PC.i33 = bitcast %union.anon* %1581 to i64*
  %1582 = getelementptr inbounds %struct.State, %struct.State* %0, i32 0, i32 6
  %1583 = getelementptr inbounds %struct.GPR, %struct.GPR* %1582, i32 0, i32 11
  %1584 = getelementptr inbounds %struct.Reg, %struct.Reg* %1583, i32 0, i32 0
  %RDI.i34 = bitcast %union.anon* %1584 to i64*
  %1585 = getelementptr inbounds %struct.State, %struct.State* %0, i32 0, i32 6
  %1586 = getelementptr inbounds %struct.GPR, %struct.GPR* %1585, i32 0, i32 15
  %1587 = getelementptr inbounds %struct.Reg, %struct.Reg* %1586, i32 0, i32 0
  %RBP.i35 = bitcast %union.anon* %1587 to i64*
  %1588 = load i64, i64* %RBP.i35
  %1589 = sub i64 %1588, 200
  %1590 = load i64, i64* %PC.i33
  %1591 = add i64 %1590, 7
  store i64 %1591, i64* %PC.i33
  %1592 = inttoptr i64 %1589 to i64*
  %1593 = load i64, i64* %1592
  store i64 %1593, i64* %RDI.i34, align 8
  store %struct.Memory* %loadMem_4010cd, %struct.Memory** %MEMORY
  %loadMem_4010d4 = load %struct.Memory*, %struct.Memory** %MEMORY
  %1594 = getelementptr inbounds %struct.State, %struct.State* %0, i32 0, i32 6
  %1595 = getelementptr inbounds %struct.GPR, %struct.GPR* %1594, i32 0, i32 33
  %1596 = getelementptr inbounds %struct.Reg, %struct.Reg* %1595, i32 0, i32 0
  %PC.i30 = bitcast %union.anon* %1596 to i64*
  %1597 = getelementptr inbounds %struct.State, %struct.State* %0, i32 0, i32 6
  %1598 = getelementptr inbounds %struct.GPR, %struct.GPR* %1597, i32 0, i32 9
  %1599 = getelementptr inbounds %struct.Reg, %struct.Reg* %1598, i32 0, i32 0
  %RSI.i31 = bitcast %union.anon* %1599 to i64*
  %1600 = getelementptr inbounds %struct.State, %struct.State* %0, i32 0, i32 6
  %1601 = getelementptr inbounds %struct.GPR, %struct.GPR* %1600, i32 0, i32 15
  %1602 = getelementptr inbounds %struct.Reg, %struct.Reg* %1601, i32 0, i32 0
  %RBP.i32 = bitcast %union.anon* %1602 to i64*
  %1603 = load i64, i64* %RBP.i32
  %1604 = sub i64 %1603, 208
  %1605 = load i64, i64* %PC.i30
  %1606 = add i64 %1605, 7
  store i64 %1606, i64* %PC.i30
  %1607 = inttoptr i64 %1604 to i64*
  %1608 = load i64, i64* %1607
  store i64 %1608, i64* %RSI.i31, align 8
  store %struct.Memory* %loadMem_4010d4, %struct.Memory** %MEMORY
  %loadMem1_4010db = load %struct.Memory*, %struct.Memory** %MEMORY
  %1609 = getelementptr inbounds %struct.State, %struct.State* %0, i32 0, i32 6
  %1610 = getelementptr inbounds %struct.GPR, %struct.GPR* %1609, i32 0, i32 33
  %1611 = getelementptr inbounds %struct.Reg, %struct.Reg* %1610, i32 0, i32 0
  %PC.i29 = bitcast %union.anon* %1611 to i64*
  %1612 = load i64, i64* %PC.i29
  %1613 = add i64 %1612, 2453
  %1614 = load i64, i64* %PC.i29
  %1615 = add i64 %1614, 5
  %1616 = load i64, i64* %PC.i29
  %1617 = add i64 %1616, 5
  store i64 %1617, i64* %PC.i29
  %1618 = getelementptr inbounds %struct.State, %struct.State* %0, i64 0, i32 6, i32 13, i32 0, i32 0
  %1619 = load i64, i64* %1618, align 8
  %1620 = add i64 %1619, -8
  %1621 = inttoptr i64 %1620 to i64*
  store i64 %1615, i64* %1621
  store i64 %1620, i64* %1618, align 8
  %1622 = getelementptr inbounds %struct.State, %struct.State* %0, i64 0, i32 6, i32 33, i32 0, i32 0
  store i64 %1613, i64* %1622, align 8
  store %struct.Memory* %loadMem1_4010db, %struct.Memory** %MEMORY
  %loadMem2_4010db = load %struct.Memory*, %struct.Memory** %MEMORY
  %loadPC_4010db = load i64, i64* %3
  %call2_4010db = call %struct.Memory* @sub_401a70._Z4testI16reverse_iteratorIS0_I14double_pointerdEdEdEvT_S4_T0_(%struct.State* %0, i64 %loadPC_4010db, %struct.Memory* %loadMem2_4010db)
  store %struct.Memory* %call2_4010db, %struct.Memory** %MEMORY
  %loadMem_4010e0 = load %struct.Memory*, %struct.Memory** %MEMORY
  %1623 = getelementptr inbounds %struct.State, %struct.State* %0, i32 0, i32 6
  %1624 = getelementptr inbounds %struct.GPR, %struct.GPR* %1623, i32 0, i32 33
  %1625 = getelementptr inbounds %struct.Reg, %struct.Reg* %1624, i32 0, i32 0
  %PC.i27 = bitcast %union.anon* %1625 to i64*
  %1626 = getelementptr inbounds %struct.State, %struct.State* %0, i32 0, i32 6
  %1627 = getelementptr inbounds %struct.GPR, %struct.GPR* %1626, i32 0, i32 1
  %1628 = getelementptr inbounds %struct.Reg, %struct.Reg* %1627, i32 0, i32 0
  %RAX.i28 = bitcast %union.anon* %1628 to i64*
  %1629 = load i64, i64* %PC.i27
  %1630 = add i64 %1629, 8
  store i64 %1630, i64* %PC.i27
  %1631 = load i64, i64* bitcast (%G_0x60cef0_type* @G_0x60cef0 to i64*)
  store i64 %1631, i64* %RAX.i28, align 8
  store %struct.Memory* %loadMem_4010e0, %struct.Memory** %MEMORY
  %loadMem_4010e8 = load %struct.Memory*, %struct.Memory** %MEMORY
  %1632 = getelementptr inbounds %struct.State, %struct.State* %0, i32 0, i32 6
  %1633 = getelementptr inbounds %struct.GPR, %struct.GPR* %1632, i32 0, i32 33
  %1634 = getelementptr inbounds %struct.Reg, %struct.Reg* %1633, i32 0, i32 0
  %PC.i24 = bitcast %union.anon* %1634 to i64*
  %1635 = getelementptr inbounds %struct.State, %struct.State* %0, i32 0, i32 6
  %1636 = getelementptr inbounds %struct.GPR, %struct.GPR* %1635, i32 0, i32 1
  %1637 = getelementptr inbounds %struct.Reg, %struct.Reg* %1636, i32 0, i32 0
  %RAX.i25 = bitcast %union.anon* %1637 to i64*
  %1638 = getelementptr inbounds %struct.State, %struct.State* %0, i32 0, i32 6
  %1639 = getelementptr inbounds %struct.GPR, %struct.GPR* %1638, i32 0, i32 15
  %1640 = getelementptr inbounds %struct.Reg, %struct.Reg* %1639, i32 0, i32 0
  %RBP.i26 = bitcast %union.anon* %1640 to i64*
  %1641 = load i64, i64* %RBP.i26
  %1642 = sub i64 %1641, 216
  %1643 = load i64, i64* %RAX.i25
  %1644 = load i64, i64* %PC.i24
  %1645 = add i64 %1644, 7
  store i64 %1645, i64* %PC.i24
  %1646 = inttoptr i64 %1642 to i64*
  store i64 %1643, i64* %1646
  store %struct.Memory* %loadMem_4010e8, %struct.Memory** %MEMORY
  %loadMem_4010ef = load %struct.Memory*, %struct.Memory** %MEMORY
  %1647 = getelementptr inbounds %struct.State, %struct.State* %0, i32 0, i32 6
  %1648 = getelementptr inbounds %struct.GPR, %struct.GPR* %1647, i32 0, i32 33
  %1649 = getelementptr inbounds %struct.Reg, %struct.Reg* %1648, i32 0, i32 0
  %PC.i22 = bitcast %union.anon* %1649 to i64*
  %1650 = getelementptr inbounds %struct.State, %struct.State* %0, i32 0, i32 6
  %1651 = getelementptr inbounds %struct.GPR, %struct.GPR* %1650, i32 0, i32 1
  %1652 = getelementptr inbounds %struct.Reg, %struct.Reg* %1651, i32 0, i32 0
  %RAX.i23 = bitcast %union.anon* %1652 to i64*
  %1653 = load i64, i64* %PC.i22
  %1654 = add i64 %1653, 8
  store i64 %1654, i64* %PC.i22
  %1655 = load i64, i64* bitcast (%G_0x60cef8_type* @G_0x60cef8 to i64*)
  store i64 %1655, i64* %RAX.i23, align 8
  store %struct.Memory* %loadMem_4010ef, %struct.Memory** %MEMORY
  %loadMem_4010f7 = load %struct.Memory*, %struct.Memory** %MEMORY
  %1656 = getelementptr inbounds %struct.State, %struct.State* %0, i32 0, i32 6
  %1657 = getelementptr inbounds %struct.GPR, %struct.GPR* %1656, i32 0, i32 33
  %1658 = getelementptr inbounds %struct.Reg, %struct.Reg* %1657, i32 0, i32 0
  %PC.i19 = bitcast %union.anon* %1658 to i64*
  %1659 = getelementptr inbounds %struct.State, %struct.State* %0, i32 0, i32 6
  %1660 = getelementptr inbounds %struct.GPR, %struct.GPR* %1659, i32 0, i32 1
  %1661 = getelementptr inbounds %struct.Reg, %struct.Reg* %1660, i32 0, i32 0
  %RAX.i20 = bitcast %union.anon* %1661 to i64*
  %1662 = getelementptr inbounds %struct.State, %struct.State* %0, i32 0, i32 6
  %1663 = getelementptr inbounds %struct.GPR, %struct.GPR* %1662, i32 0, i32 15
  %1664 = getelementptr inbounds %struct.Reg, %struct.Reg* %1663, i32 0, i32 0
  %RBP.i21 = bitcast %union.anon* %1664 to i64*
  %1665 = load i64, i64* %RBP.i21
  %1666 = sub i64 %1665, 224
  %1667 = load i64, i64* %RAX.i20
  %1668 = load i64, i64* %PC.i19
  %1669 = add i64 %1668, 7
  store i64 %1669, i64* %PC.i19
  %1670 = inttoptr i64 %1666 to i64*
  store i64 %1667, i64* %1670
  store %struct.Memory* %loadMem_4010f7, %struct.Memory** %MEMORY
  %loadMem_4010fe = load %struct.Memory*, %struct.Memory** %MEMORY
  %1671 = getelementptr inbounds %struct.State, %struct.State* %0, i32 0, i32 6
  %1672 = getelementptr inbounds %struct.GPR, %struct.GPR* %1671, i32 0, i32 33
  %1673 = getelementptr inbounds %struct.Reg, %struct.Reg* %1672, i32 0, i32 0
  %PC.i17 = bitcast %union.anon* %1673 to i64*
  %1674 = getelementptr inbounds %struct.State, %struct.State* %0, i32 0, i32 6
  %1675 = getelementptr inbounds %struct.GPR, %struct.GPR* %1674, i32 0, i32 1
  %1676 = getelementptr inbounds %struct.Reg, %struct.Reg* %1675, i32 0, i32 0
  %RAX.i18 = bitcast %union.anon* %1676 to i64*
  %1677 = load i64, i64* %PC.i17
  %1678 = add i64 %1677, 8
  store i64 %1678, i64* %PC.i17
  %1679 = load i64, i64* bitcast (%G_0x60ce58_type* @G_0x60ce58 to i64*)
  store i64 %1679, i64* %RAX.i18, align 8
  store %struct.Memory* %loadMem_4010fe, %struct.Memory** %MEMORY
  %loadMem_401106 = load %struct.Memory*, %struct.Memory** %MEMORY
  %1680 = getelementptr inbounds %struct.State, %struct.State* %0, i32 0, i32 6
  %1681 = getelementptr inbounds %struct.GPR, %struct.GPR* %1680, i32 0, i32 33
  %1682 = getelementptr inbounds %struct.Reg, %struct.Reg* %1681, i32 0, i32 0
  %PC.i14 = bitcast %union.anon* %1682 to i64*
  %1683 = getelementptr inbounds %struct.State, %struct.State* %0, i32 0, i32 6
  %1684 = getelementptr inbounds %struct.GPR, %struct.GPR* %1683, i32 0, i32 1
  %1685 = getelementptr inbounds %struct.Reg, %struct.Reg* %1684, i32 0, i32 0
  %RAX.i15 = bitcast %union.anon* %1685 to i64*
  %1686 = getelementptr inbounds %struct.State, %struct.State* %0, i32 0, i32 6
  %1687 = getelementptr inbounds %struct.GPR, %struct.GPR* %1686, i32 0, i32 15
  %1688 = getelementptr inbounds %struct.Reg, %struct.Reg* %1687, i32 0, i32 0
  %RBP.i16 = bitcast %union.anon* %1688 to i64*
  %1689 = load i64, i64* %RBP.i16
  %1690 = sub i64 %1689, 232
  %1691 = load i64, i64* %RAX.i15
  %1692 = load i64, i64* %PC.i14
  %1693 = add i64 %1692, 7
  store i64 %1693, i64* %PC.i14
  %1694 = inttoptr i64 %1690 to i64*
  store i64 %1691, i64* %1694
  store %struct.Memory* %loadMem_401106, %struct.Memory** %MEMORY
  %loadMem_40110d = load %struct.Memory*, %struct.Memory** %MEMORY
  %1695 = getelementptr inbounds %struct.State, %struct.State* %0, i32 0, i32 6
  %1696 = getelementptr inbounds %struct.GPR, %struct.GPR* %1695, i32 0, i32 33
  %1697 = getelementptr inbounds %struct.Reg, %struct.Reg* %1696, i32 0, i32 0
  %PC.i12 = bitcast %union.anon* %1697 to i64*
  %1698 = getelementptr inbounds %struct.State, %struct.State* %0, i32 0, i32 6
  %1699 = getelementptr inbounds %struct.GPR, %struct.GPR* %1698, i32 0, i32 11
  %1700 = getelementptr inbounds %struct.Reg, %struct.Reg* %1699, i32 0, i32 0
  %RDI.i = bitcast %union.anon* %1700 to i64*
  %1701 = getelementptr inbounds %struct.State, %struct.State* %0, i32 0, i32 6
  %1702 = getelementptr inbounds %struct.GPR, %struct.GPR* %1701, i32 0, i32 15
  %1703 = getelementptr inbounds %struct.Reg, %struct.Reg* %1702, i32 0, i32 0
  %RBP.i13 = bitcast %union.anon* %1703 to i64*
  %1704 = load i64, i64* %RBP.i13
  %1705 = sub i64 %1704, 216
  %1706 = load i64, i64* %PC.i12
  %1707 = add i64 %1706, 7
  store i64 %1707, i64* %PC.i12
  %1708 = inttoptr i64 %1705 to i64*
  %1709 = load i64, i64* %1708
  store i64 %1709, i64* %RDI.i, align 8
  store %struct.Memory* %loadMem_40110d, %struct.Memory** %MEMORY
  %loadMem_401114 = load %struct.Memory*, %struct.Memory** %MEMORY
  %1710 = getelementptr inbounds %struct.State, %struct.State* %0, i32 0, i32 6
  %1711 = getelementptr inbounds %struct.GPR, %struct.GPR* %1710, i32 0, i32 33
  %1712 = getelementptr inbounds %struct.Reg, %struct.Reg* %1711, i32 0, i32 0
  %PC.i10 = bitcast %union.anon* %1712 to i64*
  %1713 = getelementptr inbounds %struct.State, %struct.State* %0, i32 0, i32 6
  %1714 = getelementptr inbounds %struct.GPR, %struct.GPR* %1713, i32 0, i32 9
  %1715 = getelementptr inbounds %struct.Reg, %struct.Reg* %1714, i32 0, i32 0
  %RSI.i = bitcast %union.anon* %1715 to i64*
  %1716 = getelementptr inbounds %struct.State, %struct.State* %0, i32 0, i32 6
  %1717 = getelementptr inbounds %struct.GPR, %struct.GPR* %1716, i32 0, i32 15
  %1718 = getelementptr inbounds %struct.Reg, %struct.Reg* %1717, i32 0, i32 0
  %RBP.i11 = bitcast %union.anon* %1718 to i64*
  %1719 = load i64, i64* %RBP.i11
  %1720 = sub i64 %1719, 224
  %1721 = load i64, i64* %PC.i10
  %1722 = add i64 %1721, 7
  store i64 %1722, i64* %PC.i10
  %1723 = inttoptr i64 %1720 to i64*
  %1724 = load i64, i64* %1723
  store i64 %1724, i64* %RSI.i, align 8
  store %struct.Memory* %loadMem_401114, %struct.Memory** %MEMORY
  %loadMem_40111b = load %struct.Memory*, %struct.Memory** %MEMORY
  %1725 = getelementptr inbounds %struct.State, %struct.State* %0, i32 0, i32 6
  %1726 = getelementptr inbounds %struct.GPR, %struct.GPR* %1725, i32 0, i32 33
  %1727 = getelementptr inbounds %struct.Reg, %struct.Reg* %1726, i32 0, i32 0
  %PC.i8 = bitcast %union.anon* %1727 to i64*
  %1728 = getelementptr inbounds %struct.State, %struct.State* %0, i32 0, i32 6
  %1729 = getelementptr inbounds %struct.GPR, %struct.GPR* %1728, i32 0, i32 15
  %1730 = getelementptr inbounds %struct.Reg, %struct.Reg* %1729, i32 0, i32 0
  %RBP.i9 = bitcast %union.anon* %1730 to i64*
  %1731 = getelementptr inbounds %struct.State, %struct.State* %0, i32 0, i32 1
  %1732 = getelementptr inbounds [32 x %union.VectorReg], [32 x %union.VectorReg]* %1731, i64 0, i64 0
  %YMM0.i = bitcast %union.VectorReg* %1732 to %"class.std::bitset"*
  %1733 = bitcast %"class.std::bitset"* %YMM0.i to i8*
  %1734 = load i64, i64* %RBP.i9
  %1735 = sub i64 %1734, 232
  %1736 = load i64, i64* %PC.i8
  %1737 = add i64 %1736, 8
  store i64 %1737, i64* %PC.i8
  %1738 = inttoptr i64 %1735 to double*
  %1739 = load double, double* %1738
  %1740 = bitcast i8* %1733 to double*
  store double %1739, double* %1740, align 1
  %1741 = getelementptr inbounds i8, i8* %1733, i64 8
  %1742 = bitcast i8* %1741 to double*
  store double 0.000000e+00, double* %1742, align 1
  store %struct.Memory* %loadMem_40111b, %struct.Memory** %MEMORY
  %loadMem1_401123 = load %struct.Memory*, %struct.Memory** %MEMORY
  %1743 = getelementptr inbounds %struct.State, %struct.State* %0, i32 0, i32 6
  %1744 = getelementptr inbounds %struct.GPR, %struct.GPR* %1743, i32 0, i32 33
  %1745 = getelementptr inbounds %struct.Reg, %struct.Reg* %1744, i32 0, i32 0
  %PC.i7 = bitcast %union.anon* %1745 to i64*
  %1746 = load i64, i64* %PC.i7
  %1747 = add i64 %1746, 2525
  %1748 = load i64, i64* %PC.i7
  %1749 = add i64 %1748, 5
  %1750 = load i64, i64* %PC.i7
  %1751 = add i64 %1750, 5
  store i64 %1751, i64* %PC.i7
  %1752 = getelementptr inbounds %struct.State, %struct.State* %0, i64 0, i32 6, i32 13, i32 0, i32 0
  %1753 = load i64, i64* %1752, align 8
  %1754 = add i64 %1753, -8
  %1755 = inttoptr i64 %1754 to i64*
  store i64 %1749, i64* %1755
  store i64 %1754, i64* %1752, align 8
  %1756 = getelementptr inbounds %struct.State, %struct.State* %0, i64 0, i32 6, i32 33, i32 0, i32 0
  store i64 %1747, i64* %1756, align 8
  store %struct.Memory* %loadMem1_401123, %struct.Memory** %MEMORY
  %loadMem2_401123 = load %struct.Memory*, %struct.Memory** %MEMORY
  %loadPC_401123 = load i64, i64* %3
  %call2_401123 = call %struct.Memory* @sub_401b00._Z4testI16reverse_iteratorIS0_I14Double_pointer6DoubleES2_ES2_EvT_S5_T0_(%struct.State* %0, i64 %loadPC_401123, %struct.Memory* %loadMem2_401123)
  store %struct.Memory* %call2_401123, %struct.Memory** %MEMORY
  %loadMem1_401128 = load %struct.Memory*, %struct.Memory** %MEMORY
  %1757 = getelementptr inbounds %struct.State, %struct.State* %0, i32 0, i32 6
  %1758 = getelementptr inbounds %struct.GPR, %struct.GPR* %1757, i32 0, i32 33
  %1759 = getelementptr inbounds %struct.Reg, %struct.Reg* %1758, i32 0, i32 0
  %PC.i6 = bitcast %union.anon* %1759 to i64*
  %1760 = load i64, i64* %PC.i6
  %1761 = add i64 %1760, -1704
  %1762 = load i64, i64* %PC.i6
  %1763 = add i64 %1762, 5
  %1764 = load i64, i64* %PC.i6
  %1765 = add i64 %1764, 5
  store i64 %1765, i64* %PC.i6
  %1766 = getelementptr inbounds %struct.State, %struct.State* %0, i64 0, i32 6, i32 13, i32 0, i32 0
  %1767 = load i64, i64* %1766, align 8
  %1768 = add i64 %1767, -8
  %1769 = inttoptr i64 %1768 to i64*
  store i64 %1763, i64* %1769
  store i64 %1768, i64* %1766, align 8
  %1770 = getelementptr inbounds %struct.State, %struct.State* %0, i64 0, i32 6, i32 33, i32 0, i32 0
  store i64 %1761, i64* %1770, align 8
  store %struct.Memory* %loadMem1_401128, %struct.Memory** %MEMORY
  %loadMem2_401128 = load %struct.Memory*, %struct.Memory** %MEMORY
  %loadPC_401128 = load i64, i64* %3
  %call2_401128 = call %struct.Memory* @sub_400a80._Z9summarizev(%struct.State* %0, i64 %loadPC_401128, %struct.Memory* %loadMem2_401128)
  store %struct.Memory* %call2_401128, %struct.Memory** %MEMORY
  %loadMem_40112d = load %struct.Memory*, %struct.Memory** %MEMORY
  %1771 = getelementptr inbounds %struct.State, %struct.State* %0, i32 0, i32 6
  %1772 = getelementptr inbounds %struct.GPR, %struct.GPR* %1771, i32 0, i32 33
  %1773 = getelementptr inbounds %struct.Reg, %struct.Reg* %1772, i32 0, i32 0
  %PC.i5 = bitcast %union.anon* %1773 to i64*
  %1774 = getelementptr inbounds %struct.State, %struct.State* %0, i32 0, i32 6
  %1775 = getelementptr inbounds %struct.GPR, %struct.GPR* %1774, i32 0, i32 1
  %1776 = getelementptr inbounds %struct.Reg, %struct.Reg* %1775, i32 0, i32 0
  %EAX.i = bitcast %union.anon* %1776 to i32*
  %1777 = getelementptr inbounds %struct.State, %struct.State* %0, i32 0, i32 6
  %1778 = getelementptr inbounds %struct.GPR, %struct.GPR* %1777, i32 0, i32 1
  %1779 = getelementptr inbounds %struct.Reg, %struct.Reg* %1778, i32 0, i32 0
  %RAX.i = bitcast %union.anon* %1779 to i64*
  %1780 = load i64, i64* %RAX.i
  %1781 = load i32, i32* %EAX.i
  %1782 = zext i32 %1781 to i64
  %1783 = load i64, i64* %PC.i5
  %1784 = add i64 %1783, 2
  store i64 %1784, i64* %PC.i5
  %1785 = xor i64 %1782, %1780
  %1786 = trunc i64 %1785 to i32
  %1787 = and i64 %1785, 4294967295
  store i64 %1787, i64* %RAX.i, align 8
  %1788 = getelementptr inbounds %struct.State, %struct.State* %0, i64 0, i32 2, i32 1
  store i8 0, i8* %1788, align 1
  %1789 = and i32 %1786, 255
  %1790 = call i32 @llvm.ctpop.i32(i32 %1789)
  %1791 = trunc i32 %1790 to i8
  %1792 = and i8 %1791, 1
  %1793 = xor i8 %1792, 1
  %1794 = getelementptr inbounds %struct.State, %struct.State* %0, i64 0, i32 2, i32 3
  store i8 %1793, i8* %1794, align 1
  %1795 = icmp eq i32 %1786, 0
  %1796 = zext i1 %1795 to i8
  %1797 = getelementptr inbounds %struct.State, %struct.State* %0, i64 0, i32 2, i32 7
  store i8 %1796, i8* %1797, align 1
  %1798 = lshr i32 %1786, 31
  %1799 = trunc i32 %1798 to i8
  %1800 = getelementptr inbounds %struct.State, %struct.State* %0, i64 0, i32 2, i32 9
  store i8 %1799, i8* %1800, align 1
  %1801 = getelementptr inbounds %struct.State, %struct.State* %0, i64 0, i32 2, i32 13
  store i8 0, i8* %1801, align 1
  %1802 = getelementptr inbounds %struct.State, %struct.State* %0, i64 0, i32 2, i32 5
  store i8 0, i8* %1802, align 1
  store %struct.Memory* %loadMem_40112d, %struct.Memory** %MEMORY
  %loadMem_40112f = load %struct.Memory*, %struct.Memory** %MEMORY
  %1803 = getelementptr inbounds %struct.State, %struct.State* %0, i32 0, i32 6
  %1804 = getelementptr inbounds %struct.GPR, %struct.GPR* %1803, i32 0, i32 33
  %1805 = getelementptr inbounds %struct.Reg, %struct.Reg* %1804, i32 0, i32 0
  %PC.i4 = bitcast %union.anon* %1805 to i64*
  %1806 = getelementptr inbounds %struct.State, %struct.State* %0, i32 0, i32 6
  %1807 = getelementptr inbounds %struct.GPR, %struct.GPR* %1806, i32 0, i32 13
  %1808 = getelementptr inbounds %struct.Reg, %struct.Reg* %1807, i32 0, i32 0
  %RSP.i = bitcast %union.anon* %1808 to i64*
  %1809 = load i64, i64* %RSP.i
  %1810 = load i64, i64* %PC.i4
  %1811 = add i64 %1810, 7
  store i64 %1811, i64* %PC.i4
  %1812 = add i64 256, %1809
  store i64 %1812, i64* %RSP.i, align 8
  %1813 = icmp ult i64 %1812, %1809
  %1814 = icmp ult i64 %1812, 256
  %1815 = or i1 %1813, %1814
  %1816 = zext i1 %1815 to i8
  %1817 = getelementptr inbounds %struct.State, %struct.State* %0, i64 0, i32 2, i32 1
  store i8 %1816, i8* %1817, align 1
  %1818 = trunc i64 %1812 to i32
  %1819 = and i32 %1818, 255
  %1820 = call i32 @llvm.ctpop.i32(i32 %1819)
  %1821 = trunc i32 %1820 to i8
  %1822 = and i8 %1821, 1
  %1823 = xor i8 %1822, 1
  %1824 = getelementptr inbounds %struct.State, %struct.State* %0, i64 0, i32 2, i32 3
  store i8 %1823, i8* %1824, align 1
  %1825 = xor i64 256, %1809
  %1826 = xor i64 %1825, %1812
  %1827 = lshr i64 %1826, 4
  %1828 = trunc i64 %1827 to i8
  %1829 = and i8 %1828, 1
  %1830 = getelementptr inbounds %struct.State, %struct.State* %0, i64 0, i32 2, i32 5
  store i8 %1829, i8* %1830, align 1
  %1831 = icmp eq i64 %1812, 0
  %1832 = zext i1 %1831 to i8
  %1833 = getelementptr inbounds %struct.State, %struct.State* %0, i64 0, i32 2, i32 7
  store i8 %1832, i8* %1833, align 1
  %1834 = lshr i64 %1812, 63
  %1835 = trunc i64 %1834 to i8
  %1836 = getelementptr inbounds %struct.State, %struct.State* %0, i64 0, i32 2, i32 9
  store i8 %1835, i8* %1836, align 1
  %1837 = lshr i64 %1809, 63
  %1838 = xor i64 %1834, %1837
  %1839 = add i64 %1838, %1834
  %1840 = icmp eq i64 %1839, 2
  %1841 = zext i1 %1840 to i8
  %1842 = getelementptr inbounds %struct.State, %struct.State* %0, i64 0, i32 2, i32 13
  store i8 %1841, i8* %1842, align 1
  store %struct.Memory* %loadMem_40112f, %struct.Memory** %MEMORY
  %loadMem_401136 = load %struct.Memory*, %struct.Memory** %MEMORY
  %1843 = getelementptr inbounds %struct.State, %struct.State* %0, i32 0, i32 6
  %1844 = getelementptr inbounds %struct.GPR, %struct.GPR* %1843, i32 0, i32 33
  %1845 = getelementptr inbounds %struct.Reg, %struct.Reg* %1844, i32 0, i32 0
  %PC.i2 = bitcast %union.anon* %1845 to i64*
  %1846 = getelementptr inbounds %struct.State, %struct.State* %0, i32 0, i32 6
  %1847 = getelementptr inbounds %struct.GPR, %struct.GPR* %1846, i32 0, i32 15
  %1848 = getelementptr inbounds %struct.Reg, %struct.Reg* %1847, i32 0, i32 0
  %RBP.i3 = bitcast %union.anon* %1848 to i64*
  %1849 = load i64, i64* %PC.i2
  %1850 = add i64 %1849, 1
  store i64 %1850, i64* %PC.i2
  %1851 = getelementptr inbounds %struct.State, %struct.State* %0, i64 0, i32 6, i32 13, i32 0, i32 0
  %1852 = load i64, i64* %1851, align 8
  %1853 = add i64 %1852, 8
  %1854 = inttoptr i64 %1852 to i64*
  %1855 = load i64, i64* %1854
  store i64 %1855, i64* %RBP.i3, align 8
  store i64 %1853, i64* %1851, align 8
  store %struct.Memory* %loadMem_401136, %struct.Memory** %MEMORY
  %loadMem_401137 = load %struct.Memory*, %struct.Memory** %MEMORY
  %1856 = getelementptr inbounds %struct.State, %struct.State* %0, i32 0, i32 6
  %1857 = getelementptr inbounds %struct.GPR, %struct.GPR* %1856, i32 0, i32 33
  %1858 = getelementptr inbounds %struct.Reg, %struct.Reg* %1857, i32 0, i32 0
  %PC.i1 = bitcast %union.anon* %1858 to i64*
  %1859 = load i64, i64* %PC.i1
  %1860 = add i64 %1859, 1
  store i64 %1860, i64* %PC.i1
  %1861 = getelementptr inbounds %struct.State, %struct.State* %0, i64 0, i32 6, i32 33, i32 0, i32 0
  %1862 = getelementptr inbounds %struct.State, %struct.State* %0, i64 0, i32 6, i32 13, i32 0, i32 0
  %1863 = load i64, i64* %1862, align 8
  %1864 = inttoptr i64 %1863 to i64*
  %1865 = load i64, i64* %1864
  store i64 %1865, i64* %1861, align 8
  %1866 = add i64 %1863, 8
  store i64 %1866, i64* %1862, align 8
  store %struct.Memory* %loadMem_401137, %struct.Memory** %MEMORY
  ret %struct.Memory* %loadMem_401137
}

define %struct.Memory* @routine_pushq__rbp(%struct.State* dereferenceable(3376), i64, %struct.Memory*) {
block_400478:
  %3 = getelementptr inbounds %struct.State, %struct.State* %0, i32 0, i32 6
  %4 = getelementptr inbounds %struct.GPR, %struct.GPR* %3, i32 0, i32 33
  %5 = getelementptr inbounds %struct.Reg, %struct.Reg* %4, i32 0, i32 0
  %PC = bitcast %union.anon* %5 to i64*
  %6 = getelementptr inbounds %struct.State, %struct.State* %0, i32 0, i32 6
  %7 = getelementptr inbounds %struct.GPR, %struct.GPR* %6, i32 0, i32 15
  %8 = getelementptr inbounds %struct.Reg, %struct.Reg* %7, i32 0, i32 0
  %RBP = bitcast %union.anon* %8 to i64*
  %9 = load i64, i64* %RBP
  %10 = load i64, i64* %PC
  %11 = add i64 %10, 1
  store i64 %11, i64* %PC
  %12 = getelementptr inbounds %struct.State, %struct.State* %0, i64 0, i32 6, i32 13, i32 0, i32 0
  %13 = load i64, i64* %12, align 8
  %14 = add i64 %13, -8
  %15 = inttoptr i64 %14 to i64*
  store i64 %9, i64* %15
  store i64 %14, i64* %12, align 8
  ret %struct.Memory* %2
}

define %struct.Memory* @routine_movq__rsp___rbp(%struct.State* dereferenceable(3376), i64, %struct.Memory*) {
block_400478:
  %3 = getelementptr inbounds %struct.State, %struct.State* %0, i32 0, i32 6
  %4 = getelementptr inbounds %struct.GPR, %struct.GPR* %3, i32 0, i32 33
  %5 = getelementptr inbounds %struct.Reg, %struct.Reg* %4, i32 0, i32 0
  %PC = bitcast %union.anon* %5 to i64*
  %6 = getelementptr inbounds %struct.State, %struct.State* %0, i32 0, i32 6
  %7 = getelementptr inbounds %struct.GPR, %struct.GPR* %6, i32 0, i32 13
  %8 = getelementptr inbounds %struct.Reg, %struct.Reg* %7, i32 0, i32 0
  %RSP = bitcast %union.anon* %8 to i64*
  %9 = getelementptr inbounds %struct.State, %struct.State* %0, i32 0, i32 6
  %10 = getelementptr inbounds %struct.GPR, %struct.GPR* %9, i32 0, i32 15
  %11 = getelementptr inbounds %struct.Reg, %struct.Reg* %10, i32 0, i32 0
  %RBP = bitcast %union.anon* %11 to i64*
  %12 = load i64, i64* %RSP
  %13 = load i64, i64* %PC
  %14 = add i64 %13, 3
  store i64 %14, i64* %PC
  store i64 %12, i64* %RBP, align 8
  ret %struct.Memory* %2
}

define %struct.Memory* @routine_subq__0x100___rsp(%struct.State* dereferenceable(3376), i64, %struct.Memory*) {
block_400478:
  %3 = getelementptr inbounds %struct.State, %struct.State* %0, i32 0, i32 6
  %4 = getelementptr inbounds %struct.GPR, %struct.GPR* %3, i32 0, i32 33
  %5 = getelementptr inbounds %struct.Reg, %struct.Reg* %4, i32 0, i32 0
  %PC = bitcast %union.anon* %5 to i64*
  %6 = getelementptr inbounds %struct.State, %struct.State* %0, i32 0, i32 6
  %7 = getelementptr inbounds %struct.GPR, %struct.GPR* %6, i32 0, i32 13
  %8 = getelementptr inbounds %struct.Reg, %struct.Reg* %7, i32 0, i32 0
  %RSP = bitcast %union.anon* %8 to i64*
  %9 = load i64, i64* %RSP
  %10 = load i64, i64* %PC
  %11 = add i64 %10, 7
  store i64 %11, i64* %PC
  %12 = sub i64 %9, 256
  store i64 %12, i64* %RSP, align 8
  %13 = icmp ult i64 %9, 256
  %14 = zext i1 %13 to i8
  %15 = getelementptr inbounds %struct.State, %struct.State* %0, i64 0, i32 2, i32 1
  store i8 %14, i8* %15, align 1
  %16 = trunc i64 %12 to i32
  %17 = and i32 %16, 255
  %18 = call i32 @llvm.ctpop.i32(i32 %17)
  %19 = trunc i32 %18 to i8
  %20 = and i8 %19, 1
  %21 = xor i8 %20, 1
  %22 = getelementptr inbounds %struct.State, %struct.State* %0, i64 0, i32 2, i32 3
  store i8 %21, i8* %22, align 1
  %23 = xor i64 256, %9
  %24 = xor i64 %23, %12
  %25 = lshr i64 %24, 4
  %26 = trunc i64 %25 to i8
  %27 = and i8 %26, 1
  %28 = getelementptr inbounds %struct.State, %struct.State* %0, i64 0, i32 2, i32 5
  store i8 %27, i8* %28, align 1
  %29 = icmp eq i64 %12, 0
  %30 = zext i1 %29 to i8
  %31 = getelementptr inbounds %struct.State, %struct.State* %0, i64 0, i32 2, i32 7
  store i8 %30, i8* %31, align 1
  %32 = lshr i64 %12, 63
  %33 = trunc i64 %32 to i8
  %34 = getelementptr inbounds %struct.State, %struct.State* %0, i64 0, i32 2, i32 9
  store i8 %33, i8* %34, align 1
  %35 = lshr i64 %9, 63
  %36 = xor i64 %32, %35
  %37 = add i64 %36, %35
  %38 = icmp eq i64 %37, 2
  %39 = zext i1 %38 to i8
  %40 = getelementptr inbounds %struct.State, %struct.State* %0, i64 0, i32 2, i32 13
  store i8 %39, i8* %40, align 1
  ret %struct.Memory* %2
}

define %struct.Memory* @routine_movl__0x0__MINUS0x4__rbp_(%struct.State* dereferenceable(3376), i64, %struct.Memory*) {
block_400478:
  %3 = getelementptr inbounds %struct.State, %struct.State* %0, i32 0, i32 6
  %4 = getelementptr inbounds %struct.GPR, %struct.GPR* %3, i32 0, i32 33
  %5 = getelementptr inbounds %struct.Reg, %struct.Reg* %4, i32 0, i32 0
  %PC = bitcast %union.anon* %5 to i64*
  %6 = getelementptr inbounds %struct.State, %struct.State* %0, i32 0, i32 6
  %7 = getelementptr inbounds %struct.GPR, %struct.GPR* %6, i32 0, i32 15
  %8 = getelementptr inbounds %struct.Reg, %struct.Reg* %7, i32 0, i32 0
  %RBP = bitcast %union.anon* %8 to i64*
  %9 = load i64, i64* %RBP
  %10 = sub i64 %9, 4
  %11 = load i64, i64* %PC
  %12 = add i64 %11, 7
  store i64 %12, i64* %PC
  %13 = inttoptr i64 %10 to i32*
  store i32 0, i32* %13
  ret %struct.Memory* %2
}

define %struct.Memory* @routine_movl__edi__MINUS0x8__rbp_(%struct.State* dereferenceable(3376), i64, %struct.Memory*) {
block_400478:
  %3 = getelementptr inbounds %struct.State, %struct.State* %0, i32 0, i32 6
  %4 = getelementptr inbounds %struct.GPR, %struct.GPR* %3, i32 0, i32 33
  %5 = getelementptr inbounds %struct.Reg, %struct.Reg* %4, i32 0, i32 0
  %PC = bitcast %union.anon* %5 to i64*
  %6 = getelementptr inbounds %struct.State, %struct.State* %0, i32 0, i32 6
  %7 = getelementptr inbounds %struct.GPR, %struct.GPR* %6, i32 0, i32 11
  %8 = getelementptr inbounds %struct.Reg, %struct.Reg* %7, i32 0, i32 0
  %EDI = bitcast %union.anon* %8 to i32*
  %9 = getelementptr inbounds %struct.State, %struct.State* %0, i32 0, i32 6
  %10 = getelementptr inbounds %struct.GPR, %struct.GPR* %9, i32 0, i32 15
  %11 = getelementptr inbounds %struct.Reg, %struct.Reg* %10, i32 0, i32 0
  %RBP = bitcast %union.anon* %11 to i64*
  %12 = load i64, i64* %RBP
  %13 = sub i64 %12, 8
  %14 = load i32, i32* %EDI
  %15 = zext i32 %14 to i64
  %16 = load i64, i64* %PC
  %17 = add i64 %16, 3
  store i64 %17, i64* %PC
  %18 = inttoptr i64 %13 to i32*
  store i32 %14, i32* %18
  ret %struct.Memory* %2
}

define %struct.Memory* @routine_movq__rsi__MINUS0x10__rbp_(%struct.State* dereferenceable(3376), i64, %struct.Memory*) {
block_400478:
  %3 = getelementptr inbounds %struct.State, %struct.State* %0, i32 0, i32 6
  %4 = getelementptr inbounds %struct.GPR, %struct.GPR* %3, i32 0, i32 33
  %5 = getelementptr inbounds %struct.Reg, %struct.Reg* %4, i32 0, i32 0
  %PC = bitcast %union.anon* %5 to i64*
  %6 = getelementptr inbounds %struct.State, %struct.State* %0, i32 0, i32 6
  %7 = getelementptr inbounds %struct.GPR, %struct.GPR* %6, i32 0, i32 9
  %8 = getelementptr inbounds %struct.Reg, %struct.Reg* %7, i32 0, i32 0
  %RSI = bitcast %union.anon* %8 to i64*
  %9 = getelementptr inbounds %struct.State, %struct.State* %0, i32 0, i32 6
  %10 = getelementptr inbounds %struct.GPR, %struct.GPR* %9, i32 0, i32 15
  %11 = getelementptr inbounds %struct.Reg, %struct.Reg* %10, i32 0, i32 0
  %RBP = bitcast %union.anon* %11 to i64*
  %12 = load i64, i64* %RBP
  %13 = sub i64 %12, 16
  %14 = load i64, i64* %RSI
  %15 = load i64, i64* %PC
  %16 = add i64 %15, 4
  store i64 %16, i64* %PC
  %17 = inttoptr i64 %13 to i64*
  store i64 %14, i64* %17
  ret %struct.Memory* %2
}

define %struct.Memory* @routine_cmpl__0x1__MINUS0x8__rbp_(%struct.State* dereferenceable(3376), i64, %struct.Memory*) {
block_400478:
  %3 = getelementptr inbounds %struct.State, %struct.State* %0, i32 0, i32 6
  %4 = getelementptr inbounds %struct.GPR, %struct.GPR* %3, i32 0, i32 33
  %5 = getelementptr inbounds %struct.Reg, %struct.Reg* %4, i32 0, i32 0
  %PC = bitcast %union.anon* %5 to i64*
  %6 = getelementptr inbounds %struct.State, %struct.State* %0, i32 0, i32 6
  %7 = getelementptr inbounds %struct.GPR, %struct.GPR* %6, i32 0, i32 15
  %8 = getelementptr inbounds %struct.Reg, %struct.Reg* %7, i32 0, i32 0
  %RBP = bitcast %union.anon* %8 to i64*
  %9 = load i64, i64* %RBP
  %10 = sub i64 %9, 8
  %11 = load i64, i64* %PC
  %12 = add i64 %11, 4
  store i64 %12, i64* %PC
  %13 = inttoptr i64 %10 to i32*
  %14 = load i32, i32* %13
  %15 = sub i32 %14, 1
  %16 = icmp ult i32 %14, 1
  %17 = zext i1 %16 to i8
  %18 = getelementptr inbounds %struct.State, %struct.State* %0, i64 0, i32 2, i32 1
  store i8 %17, i8* %18, align 1
  %19 = and i32 %15, 255
  %20 = call i32 @llvm.ctpop.i32(i32 %19)
  %21 = trunc i32 %20 to i8
  %22 = and i8 %21, 1
  %23 = xor i8 %22, 1
  %24 = getelementptr inbounds %struct.State, %struct.State* %0, i64 0, i32 2, i32 3
  store i8 %23, i8* %24, align 1
  %25 = xor i32 %14, 1
  %26 = xor i32 %25, %15
  %27 = lshr i32 %26, 4
  %28 = trunc i32 %27 to i8
  %29 = and i8 %28, 1
  %30 = getelementptr inbounds %struct.State, %struct.State* %0, i64 0, i32 2, i32 5
  store i8 %29, i8* %30, align 1
  %31 = icmp eq i32 %15, 0
  %32 = zext i1 %31 to i8
  %33 = getelementptr inbounds %struct.State, %struct.State* %0, i64 0, i32 2, i32 7
  store i8 %32, i8* %33, align 1
  %34 = lshr i32 %15, 31
  %35 = trunc i32 %34 to i8
  %36 = getelementptr inbounds %struct.State, %struct.State* %0, i64 0, i32 2, i32 9
  store i8 %35, i8* %36, align 1
  %37 = lshr i32 %14, 31
  %38 = xor i32 %34, %37
  %39 = add i32 %38, %37
  %40 = icmp eq i32 %39, 2
  %41 = zext i1 %40 to i8
  %42 = getelementptr inbounds %struct.State, %struct.State* %0, i64 0, i32 2, i32 13
  store i8 %41, i8* %42, align 1
  ret %struct.Memory* %2
}

define %struct.Memory* @routine_jle_.L_400e27(%struct.State* dereferenceable(3376), i64, %struct.Memory*, i8* %BRANCH_TAKEN, i64 %rel_off1, i64 %rel_off2, i64 %rel_off3) {
block_400478:
  %3 = getelementptr inbounds %struct.State, %struct.State* %0, i32 0, i32 6
  %4 = getelementptr inbounds %struct.GPR, %struct.GPR* %3, i32 0, i32 33
  %5 = getelementptr inbounds %struct.Reg, %struct.Reg* %4, i32 0, i32 0
  %PC = bitcast %union.anon* %5 to i64*
  %6 = load i64, i64* %PC
  %7 = add i64 %6, %rel_off1
  %8 = load i64, i64* %PC
  %9 = add i64 %8, %rel_off2
  %10 = load i64, i64* %PC
  %11 = add i64 %10, %rel_off3
  store i64 %11, i64* %PC
  %12 = getelementptr inbounds %struct.State, %struct.State* %0, i64 0, i32 2, i32 7
  %13 = load i8, i8* %12, align 1
  %14 = icmp ne i8 %13, 0
  %15 = getelementptr inbounds %struct.State, %struct.State* %0, i64 0, i32 2, i32 9
  %16 = load i8, i8* %15, align 1
  %17 = icmp ne i8 %16, 0
  %18 = getelementptr inbounds %struct.State, %struct.State* %0, i64 0, i32 2, i32 13
  %19 = load i8, i8* %18, align 1
  %20 = icmp ne i8 %19, 0
  %21 = xor i1 %17, %20
  %22 = or i1 %14, %21
  %23 = zext i1 %22 to i8
  store i8 %23, i8* %BRANCH_TAKEN, align 1
  %24 = getelementptr inbounds %struct.State, %struct.State* %0, i64 0, i32 6, i32 33, i32 0, i32 0
  %25 = select i1 %22, i64 %7, i64 %9
  store i64 %25, i64* %24, align 8
  ret %struct.Memory* %2
}

define %struct.Memory* @routine_movq_MINUS0x10__rbp____rax(%struct.State* dereferenceable(3376), i64, %struct.Memory*) {
block_400478:
  %3 = getelementptr inbounds %struct.State, %struct.State* %0, i32 0, i32 6
  %4 = getelementptr inbounds %struct.GPR, %struct.GPR* %3, i32 0, i32 33
  %5 = getelementptr inbounds %struct.Reg, %struct.Reg* %4, i32 0, i32 0
  %PC = bitcast %union.anon* %5 to i64*
  %6 = getelementptr inbounds %struct.State, %struct.State* %0, i32 0, i32 6
  %7 = getelementptr inbounds %struct.GPR, %struct.GPR* %6, i32 0, i32 1
  %8 = getelementptr inbounds %struct.Reg, %struct.Reg* %7, i32 0, i32 0
  %RAX = bitcast %union.anon* %8 to i64*
  %9 = getelementptr inbounds %struct.State, %struct.State* %0, i32 0, i32 6
  %10 = getelementptr inbounds %struct.GPR, %struct.GPR* %9, i32 0, i32 15
  %11 = getelementptr inbounds %struct.Reg, %struct.Reg* %10, i32 0, i32 0
  %RBP = bitcast %union.anon* %11 to i64*
  %12 = load i64, i64* %RBP
  %13 = sub i64 %12, 16
  %14 = load i64, i64* %PC
  %15 = add i64 %14, 4
  store i64 %15, i64* %PC
  %16 = inttoptr i64 %13 to i64*
  %17 = load i64, i64* %16
  store i64 %17, i64* %RAX, align 8
  ret %struct.Memory* %2
}

define %struct.Memory* @routine_movq_0x8__rax____rdi(%struct.State* dereferenceable(3376), i64, %struct.Memory*) {
block_400478:
  %3 = getelementptr inbounds %struct.State, %struct.State* %0, i32 0, i32 6
  %4 = getelementptr inbounds %struct.GPR, %struct.GPR* %3, i32 0, i32 33
  %5 = getelementptr inbounds %struct.Reg, %struct.Reg* %4, i32 0, i32 0
  %PC = bitcast %union.anon* %5 to i64*
  %6 = getelementptr inbounds %struct.State, %struct.State* %0, i32 0, i32 6
  %7 = getelementptr inbounds %struct.GPR, %struct.GPR* %6, i32 0, i32 1
  %8 = getelementptr inbounds %struct.Reg, %struct.Reg* %7, i32 0, i32 0
  %RAX = bitcast %union.anon* %8 to i64*
  %9 = getelementptr inbounds %struct.State, %struct.State* %0, i32 0, i32 6
  %10 = getelementptr inbounds %struct.GPR, %struct.GPR* %9, i32 0, i32 11
  %11 = getelementptr inbounds %struct.Reg, %struct.Reg* %10, i32 0, i32 0
  %RDI = bitcast %union.anon* %11 to i64*
  %12 = load i64, i64* %RAX
  %13 = add i64 %12, 8
  %14 = load i64, i64* %PC
  %15 = add i64 %14, 4
  store i64 %15, i64* %PC
  %16 = inttoptr i64 %13 to i64*
  %17 = load i64, i64* %16
  store i64 %17, i64* %RDI, align 8
  ret %struct.Memory* %2
}

define %struct.Memory* @routine_callq_.atoi_plt(%struct.State* dereferenceable(3376), i64, %struct.Memory*, i64 %rel_off1, i64 %rel_off2, i64 %rel_off3) {
block_400478:
  %3 = getelementptr inbounds %struct.State, %struct.State* %0, i32 0, i32 6
  %4 = getelementptr inbounds %struct.GPR, %struct.GPR* %3, i32 0, i32 33
  %5 = getelementptr inbounds %struct.Reg, %struct.Reg* %4, i32 0, i32 0
  %PC = bitcast %union.anon* %5 to i64*
  %6 = load i64, i64* %PC
  %7 = add i64 %6, %rel_off1
  %8 = load i64, i64* %PC
  %9 = add i64 %8, %rel_off2
  %10 = load i64, i64* %PC
  %11 = add i64 %10, %rel_off3
  store i64 %11, i64* %PC
  %12 = getelementptr inbounds %struct.State, %struct.State* %0, i64 0, i32 6, i32 13, i32 0, i32 0
  %13 = load i64, i64* %12, align 8
  %14 = add i64 %13, -8
  %15 = inttoptr i64 %14 to i64*
  store i64 %9, i64* %15
  store i64 %14, i64* %12, align 8
  %16 = getelementptr inbounds %struct.State, %struct.State* %0, i64 0, i32 6, i32 33, i32 0, i32 0
  store i64 %7, i64* %16, align 8
  ret %struct.Memory* %2
}

define %struct.Memory* @routine_movl__eax__0x605050(%struct.State* dereferenceable(3376), i64, %struct.Memory*) {
block_400478:
  %3 = getelementptr inbounds %struct.State, %struct.State* %0, i32 0, i32 6
  %4 = getelementptr inbounds %struct.GPR, %struct.GPR* %3, i32 0, i32 33
  %5 = getelementptr inbounds %struct.Reg, %struct.Reg* %4, i32 0, i32 0
  %PC = bitcast %union.anon* %5 to i64*
  %6 = getelementptr inbounds %struct.State, %struct.State* %0, i32 0, i32 6
  %7 = getelementptr inbounds %struct.GPR, %struct.GPR* %6, i32 0, i32 1
  %8 = getelementptr inbounds %struct.Reg, %struct.Reg* %7, i32 0, i32 0
  %EAX = bitcast %union.anon* %8 to i32*
  %9 = load i32, i32* %EAX
  %10 = zext i32 %9 to i64
  %11 = load i64, i64* %PC
  %12 = add i64 %11, 7
  store i64 %12, i64* %PC
  store i32 %9, i32* bitcast (%G_0x605050_type* @G_0x605050 to i32*)
  ret %struct.Memory* %2
}

define %struct.Memory* @routine_movsd_0x1f01__rip____xmm0(%struct.State* dereferenceable(3376), i64, %struct.Memory*) {
block_400478:
  %3 = getelementptr inbounds %struct.State, %struct.State* %0, i32 0, i32 6
  %4 = getelementptr inbounds %struct.GPR, %struct.GPR* %3, i32 0, i32 33
  %5 = getelementptr inbounds %struct.Reg, %struct.Reg* %4, i32 0, i32 0
  %PC = bitcast %union.anon* %5 to i64*
  %6 = getelementptr inbounds %struct.State, %struct.State* %0, i32 0, i32 1
  %7 = getelementptr inbounds [32 x %union.VectorReg], [32 x %union.VectorReg]* %6, i64 0, i64 0
  %YMM0 = bitcast %union.VectorReg* %7 to %"class.std::bitset"*
  %8 = bitcast %"class.std::bitset"* %YMM0 to i8*
  %9 = load i64, i64* %PC
  %10 = ptrtoint %G_0x1f01__rip__type* @G_0x1f01__rip_ to i64
  %11 = load i64, i64* %PC
  %12 = add i64 %11, 8
  store i64 %12, i64* %PC
  %13 = inttoptr i64 %10 to double*
  %14 = load double, double* %13
  %15 = bitcast i8* %8 to double*
  store double %14, double* %15, align 1
  %16 = getelementptr inbounds i8, i8* %8, i64 8
  %17 = bitcast i8* %16 to double*
  store double 0.000000e+00, double* %17, align 1
  ret %struct.Memory* %2
}

define %struct.Memory* @routine_movq_0x605058___rdi(%struct.State* dereferenceable(3376), i64, %struct.Memory*) {
block_400478:
  %3 = getelementptr inbounds %struct.State, %struct.State* %0, i32 0, i32 6
  %4 = getelementptr inbounds %struct.GPR, %struct.GPR* %3, i32 0, i32 33
  %5 = getelementptr inbounds %struct.Reg, %struct.Reg* %4, i32 0, i32 0
  %PC = bitcast %union.anon* %5 to i64*
  %6 = getelementptr inbounds %struct.State, %struct.State* %0, i32 0, i32 6
  %7 = getelementptr inbounds %struct.GPR, %struct.GPR* %6, i32 0, i32 11
  %8 = getelementptr inbounds %struct.Reg, %struct.Reg* %7, i32 0, i32 0
  %RDI = bitcast %union.anon* %8 to i64*
  %9 = load i64, i64* %PC
  %10 = add i64 %9, 8
  store i64 %10, i64* %PC
  %11 = load i64, i64* bitcast (%G_0x605058_type* @G_0x605058 to i64*)
  store i64 %11, i64* %RDI, align 8
  ret %struct.Memory* %2
}

define %struct.Memory* @routine_movq_0x605060___rsi(%struct.State* dereferenceable(3376), i64, %struct.Memory*) {
block_400478:
  %3 = getelementptr inbounds %struct.State, %struct.State* %0, i32 0, i32 6
  %4 = getelementptr inbounds %struct.GPR, %struct.GPR* %3, i32 0, i32 33
  %5 = getelementptr inbounds %struct.Reg, %struct.Reg* %4, i32 0, i32 0
  %PC = bitcast %union.anon* %5 to i64*
  %6 = getelementptr inbounds %struct.State, %struct.State* %0, i32 0, i32 6
  %7 = getelementptr inbounds %struct.GPR, %struct.GPR* %6, i32 0, i32 9
  %8 = getelementptr inbounds %struct.Reg, %struct.Reg* %7, i32 0, i32 0
  %RSI = bitcast %union.anon* %8 to i64*
  %9 = load i64, i64* %PC
  %10 = add i64 %9, 8
  store i64 %10, i64* %PC
  %11 = load i64, i64* bitcast (%G_0x605060_type* @G_0x605060 to i64*)
  store i64 %11, i64* %RSI, align 8
  ret %struct.Memory* %2
}

define %struct.Memory* @routine_callq_._Z4fillIPddEvT_S1_T0_(%struct.State* dereferenceable(3376), i64, %struct.Memory*, i64 %rel_off1, i64 %rel_off2, i64 %rel_off3) {
block_400478:
  %3 = getelementptr inbounds %struct.State, %struct.State* %0, i32 0, i32 6
  %4 = getelementptr inbounds %struct.GPR, %struct.GPR* %3, i32 0, i32 33
  %5 = getelementptr inbounds %struct.Reg, %struct.Reg* %4, i32 0, i32 0
  %PC = bitcast %union.anon* %5 to i64*
  %6 = load i64, i64* %PC
  %7 = add i64 %6, %rel_off1
  %8 = load i64, i64* %PC
  %9 = add i64 %8, %rel_off2
  %10 = load i64, i64* %PC
  %11 = add i64 %10, %rel_off3
  store i64 %11, i64* %PC
  %12 = getelementptr inbounds %struct.State, %struct.State* %0, i64 0, i32 6, i32 13, i32 0, i32 0
  %13 = load i64, i64* %12, align 8
  %14 = add i64 %13, -8
  %15 = inttoptr i64 %14 to i64*
  store i64 %9, i64* %15
  store i64 %14, i64* %12, align 8
  %16 = getelementptr inbounds %struct.State, %struct.State* %0, i64 0, i32 6, i32 33, i32 0, i32 0
  store i64 %7, i64* %16, align 8
  ret %struct.Memory* %2
}

define %struct.Memory* @routine_leaq_MINUS0x18__rbp____rdi(%struct.State* dereferenceable(3376), i64, %struct.Memory*) {
block_400478:
  %3 = getelementptr inbounds %struct.State, %struct.State* %0, i32 0, i32 6
  %4 = getelementptr inbounds %struct.GPR, %struct.GPR* %3, i32 0, i32 33
  %5 = getelementptr inbounds %struct.Reg, %struct.Reg* %4, i32 0, i32 0
  %PC = bitcast %union.anon* %5 to i64*
  %6 = getelementptr inbounds %struct.State, %struct.State* %0, i32 0, i32 6
  %7 = getelementptr inbounds %struct.GPR, %struct.GPR* %6, i32 0, i32 11
  %8 = getelementptr inbounds %struct.Reg, %struct.Reg* %7, i32 0, i32 0
  %RDI = bitcast %union.anon* %8 to i64*
  %9 = getelementptr inbounds %struct.State, %struct.State* %0, i32 0, i32 6
  %10 = getelementptr inbounds %struct.GPR, %struct.GPR* %9, i32 0, i32 15
  %11 = getelementptr inbounds %struct.Reg, %struct.Reg* %10, i32 0, i32 0
  %RBP = bitcast %union.anon* %11 to i64*
  %12 = load i64, i64* %RBP
  %13 = sub i64 %12, 24
  %14 = load i64, i64* %PC
  %15 = add i64 %14, 4
  store i64 %15, i64* %PC
  store i64 %13, i64* %RDI, align 8
  ret %struct.Memory* %2
}

define %struct.Memory* @routine_movq__0x402e38___rsi(%struct.State* dereferenceable(3376), i64, %struct.Memory*) {
block_400478:
  %3 = getelementptr inbounds %struct.State, %struct.State* %0, i32 0, i32 6
  %4 = getelementptr inbounds %struct.GPR, %struct.GPR* %3, i32 0, i32 33
  %5 = getelementptr inbounds %struct.Reg, %struct.Reg* %4, i32 0, i32 0
  %PC = bitcast %union.anon* %5 to i64*
  %6 = getelementptr inbounds %struct.State, %struct.State* %0, i32 0, i32 6
  %7 = getelementptr inbounds %struct.GPR, %struct.GPR* %6, i32 0, i32 9
  %8 = getelementptr inbounds %struct.Reg, %struct.Reg* %7, i32 0, i32 0
  %RSI = bitcast %union.anon* %8 to i64*
  %9 = load i64, i64* %PC
  %10 = add i64 %9, 10
  store i64 %10, i64* %PC
  store i64 ptrtoint (%G__0x402e38_type* @G__0x402e38 to i64), i64* %RSI, align 8
  ret %struct.Memory* %2
}

define %struct.Memory* @routine_movq_0x605068___rax(%struct.State* dereferenceable(3376), i64, %struct.Memory*) {
block_400478:
  %3 = getelementptr inbounds %struct.State, %struct.State* %0, i32 0, i32 6
  %4 = getelementptr inbounds %struct.GPR, %struct.GPR* %3, i32 0, i32 33
  %5 = getelementptr inbounds %struct.Reg, %struct.Reg* %4, i32 0, i32 0
  %PC = bitcast %union.anon* %5 to i64*
  %6 = getelementptr inbounds %struct.State, %struct.State* %0, i32 0, i32 6
  %7 = getelementptr inbounds %struct.GPR, %struct.GPR* %6, i32 0, i32 1
  %8 = getelementptr inbounds %struct.Reg, %struct.Reg* %7, i32 0, i32 0
  %RAX = bitcast %union.anon* %8 to i64*
  %9 = load i64, i64* %PC
  %10 = add i64 %9, 8
  store i64 %10, i64* %PC
  %11 = load i64, i64* bitcast (%G_0x605068_type* @G_0x605068 to i64*)
  store i64 %11, i64* %RAX, align 8
  ret %struct.Memory* %2
}

define %struct.Memory* @routine_movq_0x605070___rcx(%struct.State* dereferenceable(3376), i64, %struct.Memory*) {
block_400478:
  %3 = getelementptr inbounds %struct.State, %struct.State* %0, i32 0, i32 6
  %4 = getelementptr inbounds %struct.GPR, %struct.GPR* %3, i32 0, i32 33
  %5 = getelementptr inbounds %struct.Reg, %struct.Reg* %4, i32 0, i32 0
  %PC = bitcast %union.anon* %5 to i64*
  %6 = getelementptr inbounds %struct.State, %struct.State* %0, i32 0, i32 6
  %7 = getelementptr inbounds %struct.GPR, %struct.GPR* %6, i32 0, i32 5
  %8 = getelementptr inbounds %struct.Reg, %struct.Reg* %7, i32 0, i32 0
  %RCX = bitcast %union.anon* %8 to i64*
  %9 = load i64, i64* %PC
  %10 = add i64 %9, 8
  store i64 %10, i64* %PC
  %11 = load i64, i64* bitcast (%G_0x605070_type* @G_0x605070 to i64*)
  store i64 %11, i64* %RCX, align 8
  ret %struct.Memory* %2
}

define %struct.Memory* @routine_movq__rcx__MINUS0xf0__rbp_(%struct.State* dereferenceable(3376), i64, %struct.Memory*) {
block_400478:
  %3 = getelementptr inbounds %struct.State, %struct.State* %0, i32 0, i32 6
  %4 = getelementptr inbounds %struct.GPR, %struct.GPR* %3, i32 0, i32 33
  %5 = getelementptr inbounds %struct.Reg, %struct.Reg* %4, i32 0, i32 0
  %PC = bitcast %union.anon* %5 to i64*
  %6 = getelementptr inbounds %struct.State, %struct.State* %0, i32 0, i32 6
  %7 = getelementptr inbounds %struct.GPR, %struct.GPR* %6, i32 0, i32 5
  %8 = getelementptr inbounds %struct.Reg, %struct.Reg* %7, i32 0, i32 0
  %RCX = bitcast %union.anon* %8 to i64*
  %9 = getelementptr inbounds %struct.State, %struct.State* %0, i32 0, i32 6
  %10 = getelementptr inbounds %struct.GPR, %struct.GPR* %9, i32 0, i32 15
  %11 = getelementptr inbounds %struct.Reg, %struct.Reg* %10, i32 0, i32 0
  %RBP = bitcast %union.anon* %11 to i64*
  %12 = load i64, i64* %RBP
  %13 = sub i64 %12, 240
  %14 = load i64, i64* %RCX
  %15 = load i64, i64* %PC
  %16 = add i64 %15, 7
  store i64 %16, i64* %PC
  %17 = inttoptr i64 %13 to i64*
  store i64 %14, i64* %17
  ret %struct.Memory* %2
}

define %struct.Memory* @routine_movq__rax__MINUS0xf8__rbp_(%struct.State* dereferenceable(3376), i64, %struct.Memory*) {
block_400478:
  %3 = getelementptr inbounds %struct.State, %struct.State* %0, i32 0, i32 6
  %4 = getelementptr inbounds %struct.GPR, %struct.GPR* %3, i32 0, i32 33
  %5 = getelementptr inbounds %struct.Reg, %struct.Reg* %4, i32 0, i32 0
  %PC = bitcast %union.anon* %5 to i64*
  %6 = getelementptr inbounds %struct.State, %struct.State* %0, i32 0, i32 6
  %7 = getelementptr inbounds %struct.GPR, %struct.GPR* %6, i32 0, i32 1
  %8 = getelementptr inbounds %struct.Reg, %struct.Reg* %7, i32 0, i32 0
  %RAX = bitcast %union.anon* %8 to i64*
  %9 = getelementptr inbounds %struct.State, %struct.State* %0, i32 0, i32 6
  %10 = getelementptr inbounds %struct.GPR, %struct.GPR* %9, i32 0, i32 15
  %11 = getelementptr inbounds %struct.Reg, %struct.Reg* %10, i32 0, i32 0
  %RBP = bitcast %union.anon* %11 to i64*
  %12 = load i64, i64* %RBP
  %13 = sub i64 %12, 248
  %14 = load i64, i64* %RAX
  %15 = load i64, i64* %PC
  %16 = add i64 %15, 7
  store i64 %16, i64* %PC
  %17 = inttoptr i64 %13 to i64*
  store i64 %14, i64* %17
  ret %struct.Memory* %2
}

define %struct.Memory* @routine_callq_._ZN6DoubleC2ERKd(%struct.State* dereferenceable(3376), i64, %struct.Memory*, i64 %rel_off1, i64 %rel_off2, i64 %rel_off3) {
block_400478:
  %3 = getelementptr inbounds %struct.State, %struct.State* %0, i32 0, i32 6
  %4 = getelementptr inbounds %struct.GPR, %struct.GPR* %3, i32 0, i32 33
  %5 = getelementptr inbounds %struct.Reg, %struct.Reg* %4, i32 0, i32 0
  %PC = bitcast %union.anon* %5 to i64*
  %6 = load i64, i64* %PC
  %7 = add i64 %6, %rel_off1
  %8 = load i64, i64* %PC
  %9 = add i64 %8, %rel_off2
  %10 = load i64, i64* %PC
  %11 = add i64 %10, %rel_off3
  store i64 %11, i64* %PC
  %12 = getelementptr inbounds %struct.State, %struct.State* %0, i64 0, i32 6, i32 13, i32 0, i32 0
  %13 = load i64, i64* %12, align 8
  %14 = add i64 %13, -8
  %15 = inttoptr i64 %14 to i64*
  store i64 %9, i64* %15
  store i64 %14, i64* %12, align 8
  %16 = getelementptr inbounds %struct.State, %struct.State* %0, i64 0, i32 6, i32 33, i32 0, i32 0
  store i64 %7, i64* %16, align 8
  ret %struct.Memory* %2
}

define %struct.Memory* @routine_movsd_MINUS0x18__rbp____xmm0(%struct.State* dereferenceable(3376), i64, %struct.Memory*) {
block_400478:
  %3 = getelementptr inbounds %struct.State, %struct.State* %0, i32 0, i32 6
  %4 = getelementptr inbounds %struct.GPR, %struct.GPR* %3, i32 0, i32 33
  %5 = getelementptr inbounds %struct.Reg, %struct.Reg* %4, i32 0, i32 0
  %PC = bitcast %union.anon* %5 to i64*
  %6 = getelementptr inbounds %struct.State, %struct.State* %0, i32 0, i32 6
  %7 = getelementptr inbounds %struct.GPR, %struct.GPR* %6, i32 0, i32 15
  %8 = getelementptr inbounds %struct.Reg, %struct.Reg* %7, i32 0, i32 0
  %RBP = bitcast %union.anon* %8 to i64*
  %9 = getelementptr inbounds %struct.State, %struct.State* %0, i32 0, i32 1
  %10 = getelementptr inbounds [32 x %union.VectorReg], [32 x %union.VectorReg]* %9, i64 0, i64 0
  %YMM0 = bitcast %union.VectorReg* %10 to %"class.std::bitset"*
  %11 = bitcast %"class.std::bitset"* %YMM0 to i8*
  %12 = load i64, i64* %RBP
  %13 = sub i64 %12, 24
  %14 = load i64, i64* %PC
  %15 = add i64 %14, 5
  store i64 %15, i64* %PC
  %16 = inttoptr i64 %13 to double*
  %17 = load double, double* %16
  %18 = bitcast i8* %11 to double*
  store double %17, double* %18, align 1
  %19 = getelementptr inbounds i8, i8* %11, i64 8
  %20 = bitcast i8* %19 to double*
  store double 0.000000e+00, double* %20, align 1
  ret %struct.Memory* %2
}

define %struct.Memory* @routine_movq_MINUS0xf8__rbp____rdi(%struct.State* dereferenceable(3376), i64, %struct.Memory*) {
block_400478:
  %3 = getelementptr inbounds %struct.State, %struct.State* %0, i32 0, i32 6
  %4 = getelementptr inbounds %struct.GPR, %struct.GPR* %3, i32 0, i32 33
  %5 = getelementptr inbounds %struct.Reg, %struct.Reg* %4, i32 0, i32 0
  %PC = bitcast %union.anon* %5 to i64*
  %6 = getelementptr inbounds %struct.State, %struct.State* %0, i32 0, i32 6
  %7 = getelementptr inbounds %struct.GPR, %struct.GPR* %6, i32 0, i32 11
  %8 = getelementptr inbounds %struct.Reg, %struct.Reg* %7, i32 0, i32 0
  %RDI = bitcast %union.anon* %8 to i64*
  %9 = getelementptr inbounds %struct.State, %struct.State* %0, i32 0, i32 6
  %10 = getelementptr inbounds %struct.GPR, %struct.GPR* %9, i32 0, i32 15
  %11 = getelementptr inbounds %struct.Reg, %struct.Reg* %10, i32 0, i32 0
  %RBP = bitcast %union.anon* %11 to i64*
  %12 = load i64, i64* %RBP
  %13 = sub i64 %12, 248
  %14 = load i64, i64* %PC
  %15 = add i64 %14, 7
  store i64 %15, i64* %PC
  %16 = inttoptr i64 %13 to i64*
  %17 = load i64, i64* %16
  store i64 %17, i64* %RDI, align 8
  ret %struct.Memory* %2
}

define %struct.Memory* @routine_movq_MINUS0xf0__rbp____rsi(%struct.State* dereferenceable(3376), i64, %struct.Memory*) {
block_400478:
  %3 = getelementptr inbounds %struct.State, %struct.State* %0, i32 0, i32 6
  %4 = getelementptr inbounds %struct.GPR, %struct.GPR* %3, i32 0, i32 33
  %5 = getelementptr inbounds %struct.Reg, %struct.Reg* %4, i32 0, i32 0
  %PC = bitcast %union.anon* %5 to i64*
  %6 = getelementptr inbounds %struct.State, %struct.State* %0, i32 0, i32 6
  %7 = getelementptr inbounds %struct.GPR, %struct.GPR* %6, i32 0, i32 9
  %8 = getelementptr inbounds %struct.Reg, %struct.Reg* %7, i32 0, i32 0
  %RSI = bitcast %union.anon* %8 to i64*
  %9 = getelementptr inbounds %struct.State, %struct.State* %0, i32 0, i32 6
  %10 = getelementptr inbounds %struct.GPR, %struct.GPR* %9, i32 0, i32 15
  %11 = getelementptr inbounds %struct.Reg, %struct.Reg* %10, i32 0, i32 0
  %RBP = bitcast %union.anon* %11 to i64*
  %12 = load i64, i64* %RBP
  %13 = sub i64 %12, 240
  %14 = load i64, i64* %PC
  %15 = add i64 %14, 7
  store i64 %15, i64* %PC
  %16 = inttoptr i64 %13 to i64*
  %17 = load i64, i64* %16
  store i64 %17, i64* %RSI, align 8
  ret %struct.Memory* %2
}

define %struct.Memory* @routine_callq_._Z4fillIP6DoubleS0_EvT_S2_T0_(%struct.State* dereferenceable(3376), i64, %struct.Memory*, i64 %rel_off1, i64 %rel_off2, i64 %rel_off3) {
block_400478:
  %3 = getelementptr inbounds %struct.State, %struct.State* %0, i32 0, i32 6
  %4 = getelementptr inbounds %struct.GPR, %struct.GPR* %3, i32 0, i32 33
  %5 = getelementptr inbounds %struct.Reg, %struct.Reg* %4, i32 0, i32 0
  %PC = bitcast %union.anon* %5 to i64*
  %6 = load i64, i64* %PC
  %7 = add i64 %6, %rel_off1
  %8 = load i64, i64* %PC
  %9 = add i64 %8, %rel_off2
  %10 = load i64, i64* %PC
  %11 = add i64 %10, %rel_off3
  store i64 %11, i64* %PC
  %12 = getelementptr inbounds %struct.State, %struct.State* %0, i64 0, i32 6, i32 13, i32 0, i32 0
  %13 = load i64, i64* %12, align 8
  %14 = add i64 %13, -8
  %15 = inttoptr i64 %14 to i64*
  store i64 %9, i64* %15
  store i64 %14, i64* %12, align 8
  %16 = getelementptr inbounds %struct.State, %struct.State* %0, i64 0, i32 6, i32 33, i32 0, i32 0
  store i64 %7, i64* %16, align 8
  ret %struct.Memory* %2
}

define %struct.Memory* @routine_callq_._Z5test0PdS_(%struct.State* dereferenceable(3376), i64, %struct.Memory*, i64 %rel_off1, i64 %rel_off2, i64 %rel_off3) {
block_400478:
  %3 = getelementptr inbounds %struct.State, %struct.State* %0, i32 0, i32 6
  %4 = getelementptr inbounds %struct.GPR, %struct.GPR* %3, i32 0, i32 33
  %5 = getelementptr inbounds %struct.Reg, %struct.Reg* %4, i32 0, i32 0
  %PC = bitcast %union.anon* %5 to i64*
  %6 = load i64, i64* %PC
  %7 = add i64 %6, %rel_off1
  %8 = load i64, i64* %PC
  %9 = add i64 %8, %rel_off2
  %10 = load i64, i64* %PC
  %11 = add i64 %10, %rel_off3
  store i64 %11, i64* %PC
  %12 = getelementptr inbounds %struct.State, %struct.State* %0, i64 0, i32 6, i32 13, i32 0, i32 0
  %13 = load i64, i64* %12, align 8
  %14 = add i64 %13, -8
  %15 = inttoptr i64 %14 to i64*
  store i64 %9, i64* %15
  store i64 %14, i64* %12, align 8
  %16 = getelementptr inbounds %struct.State, %struct.State* %0, i64 0, i32 6, i32 33, i32 0, i32 0
  store i64 %7, i64* %16, align 8
  ret %struct.Memory* %2
}

define %struct.Memory* @routine_movsd_0x60ce50___xmm0(%struct.State* dereferenceable(3376), i64, %struct.Memory*) {
block_400478:
  %3 = getelementptr inbounds %struct.State, %struct.State* %0, i32 0, i32 6
  %4 = getelementptr inbounds %struct.GPR, %struct.GPR* %3, i32 0, i32 33
  %5 = getelementptr inbounds %struct.Reg, %struct.Reg* %4, i32 0, i32 0
  %PC = bitcast %union.anon* %5 to i64*
  %6 = getelementptr inbounds %struct.State, %struct.State* %0, i32 0, i32 1
  %7 = getelementptr inbounds [32 x %union.VectorReg], [32 x %union.VectorReg]* %6, i64 0, i64 0
  %YMM0 = bitcast %union.VectorReg* %7 to %"class.std::bitset"*
  %8 = bitcast %"class.std::bitset"* %YMM0 to i8*
  %9 = load i64, i64* %PC
  %10 = add i64 %9, 9
  store i64 %10, i64* %PC
  %11 = load double, double* bitcast (%G_0x60ce50_type* @G_0x60ce50 to double*)
  %12 = bitcast i8* %8 to double*
  store double %11, double* %12, align 1
  %13 = getelementptr inbounds i8, i8* %8, i64 8
  %14 = bitcast i8* %13 to double*
  store double 0.000000e+00, double* %14, align 1
  ret %struct.Memory* %2
}

define %struct.Memory* @routine_callq_._Z4testIPddEvT_S1_T0_(%struct.State* dereferenceable(3376), i64, %struct.Memory*, i64 %rel_off1, i64 %rel_off2, i64 %rel_off3) {
block_400478:
  %3 = getelementptr inbounds %struct.State, %struct.State* %0, i32 0, i32 6
  %4 = getelementptr inbounds %struct.GPR, %struct.GPR* %3, i32 0, i32 33
  %5 = getelementptr inbounds %struct.Reg, %struct.Reg* %4, i32 0, i32 0
  %PC = bitcast %union.anon* %5 to i64*
  %6 = load i64, i64* %PC
  %7 = add i64 %6, %rel_off1
  %8 = load i64, i64* %PC
  %9 = add i64 %8, %rel_off2
  %10 = load i64, i64* %PC
  %11 = add i64 %10, %rel_off3
  store i64 %11, i64* %PC
  %12 = getelementptr inbounds %struct.State, %struct.State* %0, i64 0, i32 6, i32 13, i32 0, i32 0
  %13 = load i64, i64* %12, align 8
  %14 = add i64 %13, -8
  %15 = inttoptr i64 %14 to i64*
  store i64 %9, i64* %15
  store i64 %14, i64* %12, align 8
  %16 = getelementptr inbounds %struct.State, %struct.State* %0, i64 0, i32 6, i32 33, i32 0, i32 0
  store i64 %7, i64* %16, align 8
  ret %struct.Memory* %2
}

define %struct.Memory* @routine_movq_0x605068___rdi(%struct.State* dereferenceable(3376), i64, %struct.Memory*) {
block_400478:
  %3 = getelementptr inbounds %struct.State, %struct.State* %0, i32 0, i32 6
  %4 = getelementptr inbounds %struct.GPR, %struct.GPR* %3, i32 0, i32 33
  %5 = getelementptr inbounds %struct.Reg, %struct.Reg* %4, i32 0, i32 0
  %PC = bitcast %union.anon* %5 to i64*
  %6 = getelementptr inbounds %struct.State, %struct.State* %0, i32 0, i32 6
  %7 = getelementptr inbounds %struct.GPR, %struct.GPR* %6, i32 0, i32 11
  %8 = getelementptr inbounds %struct.Reg, %struct.Reg* %7, i32 0, i32 0
  %RDI = bitcast %union.anon* %8 to i64*
  %9 = load i64, i64* %PC
  %10 = add i64 %9, 8
  store i64 %10, i64* %PC
  %11 = load i64, i64* bitcast (%G_0x605068_type* @G_0x605068 to i64*)
  store i64 %11, i64* %RDI, align 8
  ret %struct.Memory* %2
}

define %struct.Memory* @routine_movq_0x605070___rsi(%struct.State* dereferenceable(3376), i64, %struct.Memory*) {
block_400478:
  %3 = getelementptr inbounds %struct.State, %struct.State* %0, i32 0, i32 6
  %4 = getelementptr inbounds %struct.GPR, %struct.GPR* %3, i32 0, i32 33
  %5 = getelementptr inbounds %struct.Reg, %struct.Reg* %4, i32 0, i32 0
  %PC = bitcast %union.anon* %5 to i64*
  %6 = getelementptr inbounds %struct.State, %struct.State* %0, i32 0, i32 6
  %7 = getelementptr inbounds %struct.GPR, %struct.GPR* %6, i32 0, i32 9
  %8 = getelementptr inbounds %struct.Reg, %struct.Reg* %7, i32 0, i32 0
  %RSI = bitcast %union.anon* %8 to i64*
  %9 = load i64, i64* %PC
  %10 = add i64 %9, 8
  store i64 %10, i64* %PC
  %11 = load i64, i64* bitcast (%G_0x605070_type* @G_0x605070 to i64*)
  store i64 %11, i64* %RSI, align 8
  ret %struct.Memory* %2
}

define %struct.Memory* @routine_movq_0x60ce58___rax(%struct.State* dereferenceable(3376), i64, %struct.Memory*) {
block_400478:
  %3 = getelementptr inbounds %struct.State, %struct.State* %0, i32 0, i32 6
  %4 = getelementptr inbounds %struct.GPR, %struct.GPR* %3, i32 0, i32 33
  %5 = getelementptr inbounds %struct.Reg, %struct.Reg* %4, i32 0, i32 0
  %PC = bitcast %union.anon* %5 to i64*
  %6 = getelementptr inbounds %struct.State, %struct.State* %0, i32 0, i32 6
  %7 = getelementptr inbounds %struct.GPR, %struct.GPR* %6, i32 0, i32 1
  %8 = getelementptr inbounds %struct.Reg, %struct.Reg* %7, i32 0, i32 0
  %RAX = bitcast %union.anon* %8 to i64*
  %9 = load i64, i64* %PC
  %10 = add i64 %9, 8
  store i64 %10, i64* %PC
  %11 = load i64, i64* bitcast (%G_0x60ce58_type* @G_0x60ce58 to i64*)
  store i64 %11, i64* %RAX, align 8
  ret %struct.Memory* %2
}

define %struct.Memory* @routine_movq__rax__MINUS0x20__rbp_(%struct.State* dereferenceable(3376), i64, %struct.Memory*) {
block_400478:
  %3 = getelementptr inbounds %struct.State, %struct.State* %0, i32 0, i32 6
  %4 = getelementptr inbounds %struct.GPR, %struct.GPR* %3, i32 0, i32 33
  %5 = getelementptr inbounds %struct.Reg, %struct.Reg* %4, i32 0, i32 0
  %PC = bitcast %union.anon* %5 to i64*
  %6 = getelementptr inbounds %struct.State, %struct.State* %0, i32 0, i32 6
  %7 = getelementptr inbounds %struct.GPR, %struct.GPR* %6, i32 0, i32 1
  %8 = getelementptr inbounds %struct.Reg, %struct.Reg* %7, i32 0, i32 0
  %RAX = bitcast %union.anon* %8 to i64*
  %9 = getelementptr inbounds %struct.State, %struct.State* %0, i32 0, i32 6
  %10 = getelementptr inbounds %struct.GPR, %struct.GPR* %9, i32 0, i32 15
  %11 = getelementptr inbounds %struct.Reg, %struct.Reg* %10, i32 0, i32 0
  %RBP = bitcast %union.anon* %11 to i64*
  %12 = load i64, i64* %RBP
  %13 = sub i64 %12, 32
  %14 = load i64, i64* %RAX
  %15 = load i64, i64* %PC
  %16 = add i64 %15, 4
  store i64 %16, i64* %PC
  %17 = inttoptr i64 %13 to i64*
  store i64 %14, i64* %17
  ret %struct.Memory* %2
}

define %struct.Memory* @routine_movsd_MINUS0x20__rbp____xmm0(%struct.State* dereferenceable(3376), i64, %struct.Memory*) {
block_400478:
  %3 = getelementptr inbounds %struct.State, %struct.State* %0, i32 0, i32 6
  %4 = getelementptr inbounds %struct.GPR, %struct.GPR* %3, i32 0, i32 33
  %5 = getelementptr inbounds %struct.Reg, %struct.Reg* %4, i32 0, i32 0
  %PC = bitcast %union.anon* %5 to i64*
  %6 = getelementptr inbounds %struct.State, %struct.State* %0, i32 0, i32 6
  %7 = getelementptr inbounds %struct.GPR, %struct.GPR* %6, i32 0, i32 15
  %8 = getelementptr inbounds %struct.Reg, %struct.Reg* %7, i32 0, i32 0
  %RBP = bitcast %union.anon* %8 to i64*
  %9 = getelementptr inbounds %struct.State, %struct.State* %0, i32 0, i32 1
  %10 = getelementptr inbounds [32 x %union.VectorReg], [32 x %union.VectorReg]* %9, i64 0, i64 0
  %YMM0 = bitcast %union.VectorReg* %10 to %"class.std::bitset"*
  %11 = bitcast %"class.std::bitset"* %YMM0 to i8*
  %12 = load i64, i64* %RBP
  %13 = sub i64 %12, 32
  %14 = load i64, i64* %PC
  %15 = add i64 %14, 5
  store i64 %15, i64* %PC
  %16 = inttoptr i64 %13 to double*
  %17 = load double, double* %16
  %18 = bitcast i8* %11 to double*
  store double %17, double* %18, align 1
  %19 = getelementptr inbounds i8, i8* %11, i64 8
  %20 = bitcast i8* %19 to double*
  store double 0.000000e+00, double* %20, align 1
  ret %struct.Memory* %2
}

define %struct.Memory* @routine_callq_._Z4testIP6DoubleS0_EvT_S2_T0_(%struct.State* dereferenceable(3376), i64, %struct.Memory*, i64 %rel_off1, i64 %rel_off2, i64 %rel_off3) {
block_400478:
  %3 = getelementptr inbounds %struct.State, %struct.State* %0, i32 0, i32 6
  %4 = getelementptr inbounds %struct.GPR, %struct.GPR* %3, i32 0, i32 33
  %5 = getelementptr inbounds %struct.Reg, %struct.Reg* %4, i32 0, i32 0
  %PC = bitcast %union.anon* %5 to i64*
  %6 = load i64, i64* %PC
  %7 = add i64 %6, %rel_off1
  %8 = load i64, i64* %PC
  %9 = add i64 %8, %rel_off2
  %10 = load i64, i64* %PC
  %11 = add i64 %10, %rel_off3
  store i64 %11, i64* %PC
  %12 = getelementptr inbounds %struct.State, %struct.State* %0, i64 0, i32 6, i32 13, i32 0, i32 0
  %13 = load i64, i64* %12, align 8
  %14 = add i64 %13, -8
  %15 = inttoptr i64 %14 to i64*
  store i64 %9, i64* %15
  store i64 %14, i64* %12, align 8
  %16 = getelementptr inbounds %struct.State, %struct.State* %0, i64 0, i32 6, i32 33, i32 0, i32 0
  store i64 %7, i64* %16, align 8
  ret %struct.Memory* %2
}

define %struct.Memory* @routine_movq_0x60ce60___rax(%struct.State* dereferenceable(3376), i64, %struct.Memory*) {
block_400478:
  %3 = getelementptr inbounds %struct.State, %struct.State* %0, i32 0, i32 6
  %4 = getelementptr inbounds %struct.GPR, %struct.GPR* %3, i32 0, i32 33
  %5 = getelementptr inbounds %struct.Reg, %struct.Reg* %4, i32 0, i32 0
  %PC = bitcast %union.anon* %5 to i64*
  %6 = getelementptr inbounds %struct.State, %struct.State* %0, i32 0, i32 6
  %7 = getelementptr inbounds %struct.GPR, %struct.GPR* %6, i32 0, i32 1
  %8 = getelementptr inbounds %struct.Reg, %struct.Reg* %7, i32 0, i32 0
  %RAX = bitcast %union.anon* %8 to i64*
  %9 = load i64, i64* %PC
  %10 = add i64 %9, 8
  store i64 %10, i64* %PC
  %11 = load i64, i64* bitcast (%G_0x60ce60_type* @G_0x60ce60 to i64*)
  store i64 %11, i64* %RAX, align 8
  ret %struct.Memory* %2
}

define %struct.Memory* @routine_movq__rax__MINUS0x28__rbp_(%struct.State* dereferenceable(3376), i64, %struct.Memory*) {
block_400478:
  %3 = getelementptr inbounds %struct.State, %struct.State* %0, i32 0, i32 6
  %4 = getelementptr inbounds %struct.GPR, %struct.GPR* %3, i32 0, i32 33
  %5 = getelementptr inbounds %struct.Reg, %struct.Reg* %4, i32 0, i32 0
  %PC = bitcast %union.anon* %5 to i64*
  %6 = getelementptr inbounds %struct.State, %struct.State* %0, i32 0, i32 6
  %7 = getelementptr inbounds %struct.GPR, %struct.GPR* %6, i32 0, i32 1
  %8 = getelementptr inbounds %struct.Reg, %struct.Reg* %7, i32 0, i32 0
  %RAX = bitcast %union.anon* %8 to i64*
  %9 = getelementptr inbounds %struct.State, %struct.State* %0, i32 0, i32 6
  %10 = getelementptr inbounds %struct.GPR, %struct.GPR* %9, i32 0, i32 15
  %11 = getelementptr inbounds %struct.Reg, %struct.Reg* %10, i32 0, i32 0
  %RBP = bitcast %union.anon* %11 to i64*
  %12 = load i64, i64* %RBP
  %13 = sub i64 %12, 40
  %14 = load i64, i64* %RAX
  %15 = load i64, i64* %PC
  %16 = add i64 %15, 4
  store i64 %16, i64* %PC
  %17 = inttoptr i64 %13 to i64*
  store i64 %14, i64* %17
  ret %struct.Memory* %2
}

define %struct.Memory* @routine_movq_0x60ce68___rax(%struct.State* dereferenceable(3376), i64, %struct.Memory*) {
block_400478:
  %3 = getelementptr inbounds %struct.State, %struct.State* %0, i32 0, i32 6
  %4 = getelementptr inbounds %struct.GPR, %struct.GPR* %3, i32 0, i32 33
  %5 = getelementptr inbounds %struct.Reg, %struct.Reg* %4, i32 0, i32 0
  %PC = bitcast %union.anon* %5 to i64*
  %6 = getelementptr inbounds %struct.State, %struct.State* %0, i32 0, i32 6
  %7 = getelementptr inbounds %struct.GPR, %struct.GPR* %6, i32 0, i32 1
  %8 = getelementptr inbounds %struct.Reg, %struct.Reg* %7, i32 0, i32 0
  %RAX = bitcast %union.anon* %8 to i64*
  %9 = load i64, i64* %PC
  %10 = add i64 %9, 8
  store i64 %10, i64* %PC
  %11 = load i64, i64* bitcast (%G_0x60ce68_type* @G_0x60ce68 to i64*)
  store i64 %11, i64* %RAX, align 8
  ret %struct.Memory* %2
}

define %struct.Memory* @routine_movq__rax__MINUS0x30__rbp_(%struct.State* dereferenceable(3376), i64, %struct.Memory*) {
block_400478:
  %3 = getelementptr inbounds %struct.State, %struct.State* %0, i32 0, i32 6
  %4 = getelementptr inbounds %struct.GPR, %struct.GPR* %3, i32 0, i32 33
  %5 = getelementptr inbounds %struct.Reg, %struct.Reg* %4, i32 0, i32 0
  %PC = bitcast %union.anon* %5 to i64*
  %6 = getelementptr inbounds %struct.State, %struct.State* %0, i32 0, i32 6
  %7 = getelementptr inbounds %struct.GPR, %struct.GPR* %6, i32 0, i32 1
  %8 = getelementptr inbounds %struct.Reg, %struct.Reg* %7, i32 0, i32 0
  %RAX = bitcast %union.anon* %8 to i64*
  %9 = getelementptr inbounds %struct.State, %struct.State* %0, i32 0, i32 6
  %10 = getelementptr inbounds %struct.GPR, %struct.GPR* %9, i32 0, i32 15
  %11 = getelementptr inbounds %struct.Reg, %struct.Reg* %10, i32 0, i32 0
  %RBP = bitcast %union.anon* %11 to i64*
  %12 = load i64, i64* %RBP
  %13 = sub i64 %12, 48
  %14 = load i64, i64* %RAX
  %15 = load i64, i64* %PC
  %16 = add i64 %15, 4
  store i64 %16, i64* %PC
  %17 = inttoptr i64 %13 to i64*
  store i64 %14, i64* %17
  ret %struct.Memory* %2
}

define %struct.Memory* @routine_movq_MINUS0x28__rbp____rdi(%struct.State* dereferenceable(3376), i64, %struct.Memory*) {
block_400478:
  %3 = getelementptr inbounds %struct.State, %struct.State* %0, i32 0, i32 6
  %4 = getelementptr inbounds %struct.GPR, %struct.GPR* %3, i32 0, i32 33
  %5 = getelementptr inbounds %struct.Reg, %struct.Reg* %4, i32 0, i32 0
  %PC = bitcast %union.anon* %5 to i64*
  %6 = getelementptr inbounds %struct.State, %struct.State* %0, i32 0, i32 6
  %7 = getelementptr inbounds %struct.GPR, %struct.GPR* %6, i32 0, i32 11
  %8 = getelementptr inbounds %struct.Reg, %struct.Reg* %7, i32 0, i32 0
  %RDI = bitcast %union.anon* %8 to i64*
  %9 = getelementptr inbounds %struct.State, %struct.State* %0, i32 0, i32 6
  %10 = getelementptr inbounds %struct.GPR, %struct.GPR* %9, i32 0, i32 15
  %11 = getelementptr inbounds %struct.Reg, %struct.Reg* %10, i32 0, i32 0
  %RBP = bitcast %union.anon* %11 to i64*
  %12 = load i64, i64* %RBP
  %13 = sub i64 %12, 40
  %14 = load i64, i64* %PC
  %15 = add i64 %14, 4
  store i64 %15, i64* %PC
  %16 = inttoptr i64 %13 to i64*
  %17 = load i64, i64* %16
  store i64 %17, i64* %RDI, align 8
  ret %struct.Memory* %2
}

define %struct.Memory* @routine_movq_MINUS0x30__rbp____rsi(%struct.State* dereferenceable(3376), i64, %struct.Memory*) {
block_400478:
  %3 = getelementptr inbounds %struct.State, %struct.State* %0, i32 0, i32 6
  %4 = getelementptr inbounds %struct.GPR, %struct.GPR* %3, i32 0, i32 33
  %5 = getelementptr inbounds %struct.Reg, %struct.Reg* %4, i32 0, i32 0
  %PC = bitcast %union.anon* %5 to i64*
  %6 = getelementptr inbounds %struct.State, %struct.State* %0, i32 0, i32 6
  %7 = getelementptr inbounds %struct.GPR, %struct.GPR* %6, i32 0, i32 9
  %8 = getelementptr inbounds %struct.Reg, %struct.Reg* %7, i32 0, i32 0
  %RSI = bitcast %union.anon* %8 to i64*
  %9 = getelementptr inbounds %struct.State, %struct.State* %0, i32 0, i32 6
  %10 = getelementptr inbounds %struct.GPR, %struct.GPR* %9, i32 0, i32 15
  %11 = getelementptr inbounds %struct.Reg, %struct.Reg* %10, i32 0, i32 0
  %RBP = bitcast %union.anon* %11 to i64*
  %12 = load i64, i64* %RBP
  %13 = sub i64 %12, 48
  %14 = load i64, i64* %PC
  %15 = add i64 %14, 4
  store i64 %15, i64* %PC
  %16 = inttoptr i64 %13 to i64*
  %17 = load i64, i64* %16
  store i64 %17, i64* %RSI, align 8
  ret %struct.Memory* %2
}

define %struct.Memory* @routine_callq_._Z4testI14double_pointerdEvT_S1_T0_(%struct.State* dereferenceable(3376), i64, %struct.Memory*, i64 %rel_off1, i64 %rel_off2, i64 %rel_off3) {
block_400478:
  %3 = getelementptr inbounds %struct.State, %struct.State* %0, i32 0, i32 6
  %4 = getelementptr inbounds %struct.GPR, %struct.GPR* %3, i32 0, i32 33
  %5 = getelementptr inbounds %struct.Reg, %struct.Reg* %4, i32 0, i32 0
  %PC = bitcast %union.anon* %5 to i64*
  %6 = load i64, i64* %PC
  %7 = add i64 %6, %rel_off1
  %8 = load i64, i64* %PC
  %9 = add i64 %8, %rel_off2
  %10 = load i64, i64* %PC
  %11 = add i64 %10, %rel_off3
  store i64 %11, i64* %PC
  %12 = getelementptr inbounds %struct.State, %struct.State* %0, i64 0, i32 6, i32 13, i32 0, i32 0
  %13 = load i64, i64* %12, align 8
  %14 = add i64 %13, -8
  %15 = inttoptr i64 %14 to i64*
  store i64 %9, i64* %15
  store i64 %14, i64* %12, align 8
  %16 = getelementptr inbounds %struct.State, %struct.State* %0, i64 0, i32 6, i32 33, i32 0, i32 0
  store i64 %7, i64* %16, align 8
  ret %struct.Memory* %2
}

define %struct.Memory* @routine_movq_0x60ce70___rax(%struct.State* dereferenceable(3376), i64, %struct.Memory*) {
block_400478:
  %3 = getelementptr inbounds %struct.State, %struct.State* %0, i32 0, i32 6
  %4 = getelementptr inbounds %struct.GPR, %struct.GPR* %3, i32 0, i32 33
  %5 = getelementptr inbounds %struct.Reg, %struct.Reg* %4, i32 0, i32 0
  %PC = bitcast %union.anon* %5 to i64*
  %6 = getelementptr inbounds %struct.State, %struct.State* %0, i32 0, i32 6
  %7 = getelementptr inbounds %struct.GPR, %struct.GPR* %6, i32 0, i32 1
  %8 = getelementptr inbounds %struct.Reg, %struct.Reg* %7, i32 0, i32 0
  %RAX = bitcast %union.anon* %8 to i64*
  %9 = load i64, i64* %PC
  %10 = add i64 %9, 8
  store i64 %10, i64* %PC
  %11 = load i64, i64* bitcast (%G_0x60ce70_type* @G_0x60ce70 to i64*)
  store i64 %11, i64* %RAX, align 8
  ret %struct.Memory* %2
}

define %struct.Memory* @routine_movq__rax__MINUS0x38__rbp_(%struct.State* dereferenceable(3376), i64, %struct.Memory*) {
block_400478:
  %3 = getelementptr inbounds %struct.State, %struct.State* %0, i32 0, i32 6
  %4 = getelementptr inbounds %struct.GPR, %struct.GPR* %3, i32 0, i32 33
  %5 = getelementptr inbounds %struct.Reg, %struct.Reg* %4, i32 0, i32 0
  %PC = bitcast %union.anon* %5 to i64*
  %6 = getelementptr inbounds %struct.State, %struct.State* %0, i32 0, i32 6
  %7 = getelementptr inbounds %struct.GPR, %struct.GPR* %6, i32 0, i32 1
  %8 = getelementptr inbounds %struct.Reg, %struct.Reg* %7, i32 0, i32 0
  %RAX = bitcast %union.anon* %8 to i64*
  %9 = getelementptr inbounds %struct.State, %struct.State* %0, i32 0, i32 6
  %10 = getelementptr inbounds %struct.GPR, %struct.GPR* %9, i32 0, i32 15
  %11 = getelementptr inbounds %struct.Reg, %struct.Reg* %10, i32 0, i32 0
  %RBP = bitcast %union.anon* %11 to i64*
  %12 = load i64, i64* %RBP
  %13 = sub i64 %12, 56
  %14 = load i64, i64* %RAX
  %15 = load i64, i64* %PC
  %16 = add i64 %15, 4
  store i64 %16, i64* %PC
  %17 = inttoptr i64 %13 to i64*
  store i64 %14, i64* %17
  ret %struct.Memory* %2
}

define %struct.Memory* @routine_movq_0x60ce78___rax(%struct.State* dereferenceable(3376), i64, %struct.Memory*) {
block_400478:
  %3 = getelementptr inbounds %struct.State, %struct.State* %0, i32 0, i32 6
  %4 = getelementptr inbounds %struct.GPR, %struct.GPR* %3, i32 0, i32 33
  %5 = getelementptr inbounds %struct.Reg, %struct.Reg* %4, i32 0, i32 0
  %PC = bitcast %union.anon* %5 to i64*
  %6 = getelementptr inbounds %struct.State, %struct.State* %0, i32 0, i32 6
  %7 = getelementptr inbounds %struct.GPR, %struct.GPR* %6, i32 0, i32 1
  %8 = getelementptr inbounds %struct.Reg, %struct.Reg* %7, i32 0, i32 0
  %RAX = bitcast %union.anon* %8 to i64*
  %9 = load i64, i64* %PC
  %10 = add i64 %9, 8
  store i64 %10, i64* %PC
  %11 = load i64, i64* bitcast (%G_0x60ce78_type* @G_0x60ce78 to i64*)
  store i64 %11, i64* %RAX, align 8
  ret %struct.Memory* %2
}

define %struct.Memory* @routine_movq__rax__MINUS0x40__rbp_(%struct.State* dereferenceable(3376), i64, %struct.Memory*) {
block_400478:
  %3 = getelementptr inbounds %struct.State, %struct.State* %0, i32 0, i32 6
  %4 = getelementptr inbounds %struct.GPR, %struct.GPR* %3, i32 0, i32 33
  %5 = getelementptr inbounds %struct.Reg, %struct.Reg* %4, i32 0, i32 0
  %PC = bitcast %union.anon* %5 to i64*
  %6 = getelementptr inbounds %struct.State, %struct.State* %0, i32 0, i32 6
  %7 = getelementptr inbounds %struct.GPR, %struct.GPR* %6, i32 0, i32 1
  %8 = getelementptr inbounds %struct.Reg, %struct.Reg* %7, i32 0, i32 0
  %RAX = bitcast %union.anon* %8 to i64*
  %9 = getelementptr inbounds %struct.State, %struct.State* %0, i32 0, i32 6
  %10 = getelementptr inbounds %struct.GPR, %struct.GPR* %9, i32 0, i32 15
  %11 = getelementptr inbounds %struct.Reg, %struct.Reg* %10, i32 0, i32 0
  %RBP = bitcast %union.anon* %11 to i64*
  %12 = load i64, i64* %RBP
  %13 = sub i64 %12, 64
  %14 = load i64, i64* %RAX
  %15 = load i64, i64* %PC
  %16 = add i64 %15, 4
  store i64 %16, i64* %PC
  %17 = inttoptr i64 %13 to i64*
  store i64 %14, i64* %17
  ret %struct.Memory* %2
}

define %struct.Memory* @routine_movq__rax__MINUS0x48__rbp_(%struct.State* dereferenceable(3376), i64, %struct.Memory*) {
block_400478:
  %3 = getelementptr inbounds %struct.State, %struct.State* %0, i32 0, i32 6
  %4 = getelementptr inbounds %struct.GPR, %struct.GPR* %3, i32 0, i32 33
  %5 = getelementptr inbounds %struct.Reg, %struct.Reg* %4, i32 0, i32 0
  %PC = bitcast %union.anon* %5 to i64*
  %6 = getelementptr inbounds %struct.State, %struct.State* %0, i32 0, i32 6
  %7 = getelementptr inbounds %struct.GPR, %struct.GPR* %6, i32 0, i32 1
  %8 = getelementptr inbounds %struct.Reg, %struct.Reg* %7, i32 0, i32 0
  %RAX = bitcast %union.anon* %8 to i64*
  %9 = getelementptr inbounds %struct.State, %struct.State* %0, i32 0, i32 6
  %10 = getelementptr inbounds %struct.GPR, %struct.GPR* %9, i32 0, i32 15
  %11 = getelementptr inbounds %struct.Reg, %struct.Reg* %10, i32 0, i32 0
  %RBP = bitcast %union.anon* %11 to i64*
  %12 = load i64, i64* %RBP
  %13 = sub i64 %12, 72
  %14 = load i64, i64* %RAX
  %15 = load i64, i64* %PC
  %16 = add i64 %15, 4
  store i64 %16, i64* %PC
  %17 = inttoptr i64 %13 to i64*
  store i64 %14, i64* %17
  ret %struct.Memory* %2
}

define %struct.Memory* @routine_movq_MINUS0x38__rbp____rdi(%struct.State* dereferenceable(3376), i64, %struct.Memory*) {
block_400478:
  %3 = getelementptr inbounds %struct.State, %struct.State* %0, i32 0, i32 6
  %4 = getelementptr inbounds %struct.GPR, %struct.GPR* %3, i32 0, i32 33
  %5 = getelementptr inbounds %struct.Reg, %struct.Reg* %4, i32 0, i32 0
  %PC = bitcast %union.anon* %5 to i64*
  %6 = getelementptr inbounds %struct.State, %struct.State* %0, i32 0, i32 6
  %7 = getelementptr inbounds %struct.GPR, %struct.GPR* %6, i32 0, i32 11
  %8 = getelementptr inbounds %struct.Reg, %struct.Reg* %7, i32 0, i32 0
  %RDI = bitcast %union.anon* %8 to i64*
  %9 = getelementptr inbounds %struct.State, %struct.State* %0, i32 0, i32 6
  %10 = getelementptr inbounds %struct.GPR, %struct.GPR* %9, i32 0, i32 15
  %11 = getelementptr inbounds %struct.Reg, %struct.Reg* %10, i32 0, i32 0
  %RBP = bitcast %union.anon* %11 to i64*
  %12 = load i64, i64* %RBP
  %13 = sub i64 %12, 56
  %14 = load i64, i64* %PC
  %15 = add i64 %14, 4
  store i64 %15, i64* %PC
  %16 = inttoptr i64 %13 to i64*
  %17 = load i64, i64* %16
  store i64 %17, i64* %RDI, align 8
  ret %struct.Memory* %2
}

define %struct.Memory* @routine_movq_MINUS0x40__rbp____rsi(%struct.State* dereferenceable(3376), i64, %struct.Memory*) {
block_400478:
  %3 = getelementptr inbounds %struct.State, %struct.State* %0, i32 0, i32 6
  %4 = getelementptr inbounds %struct.GPR, %struct.GPR* %3, i32 0, i32 33
  %5 = getelementptr inbounds %struct.Reg, %struct.Reg* %4, i32 0, i32 0
  %PC = bitcast %union.anon* %5 to i64*
  %6 = getelementptr inbounds %struct.State, %struct.State* %0, i32 0, i32 6
  %7 = getelementptr inbounds %struct.GPR, %struct.GPR* %6, i32 0, i32 9
  %8 = getelementptr inbounds %struct.Reg, %struct.Reg* %7, i32 0, i32 0
  %RSI = bitcast %union.anon* %8 to i64*
  %9 = getelementptr inbounds %struct.State, %struct.State* %0, i32 0, i32 6
  %10 = getelementptr inbounds %struct.GPR, %struct.GPR* %9, i32 0, i32 15
  %11 = getelementptr inbounds %struct.Reg, %struct.Reg* %10, i32 0, i32 0
  %RBP = bitcast %union.anon* %11 to i64*
  %12 = load i64, i64* %RBP
  %13 = sub i64 %12, 64
  %14 = load i64, i64* %PC
  %15 = add i64 %14, 4
  store i64 %15, i64* %PC
  %16 = inttoptr i64 %13 to i64*
  %17 = load i64, i64* %16
  store i64 %17, i64* %RSI, align 8
  ret %struct.Memory* %2
}

define %struct.Memory* @routine_movsd_MINUS0x48__rbp____xmm0(%struct.State* dereferenceable(3376), i64, %struct.Memory*) {
block_400478:
  %3 = getelementptr inbounds %struct.State, %struct.State* %0, i32 0, i32 6
  %4 = getelementptr inbounds %struct.GPR, %struct.GPR* %3, i32 0, i32 33
  %5 = getelementptr inbounds %struct.Reg, %struct.Reg* %4, i32 0, i32 0
  %PC = bitcast %union.anon* %5 to i64*
  %6 = getelementptr inbounds %struct.State, %struct.State* %0, i32 0, i32 6
  %7 = getelementptr inbounds %struct.GPR, %struct.GPR* %6, i32 0, i32 15
  %8 = getelementptr inbounds %struct.Reg, %struct.Reg* %7, i32 0, i32 0
  %RBP = bitcast %union.anon* %8 to i64*
  %9 = getelementptr inbounds %struct.State, %struct.State* %0, i32 0, i32 1
  %10 = getelementptr inbounds [32 x %union.VectorReg], [32 x %union.VectorReg]* %9, i64 0, i64 0
  %YMM0 = bitcast %union.VectorReg* %10 to %"class.std::bitset"*
  %11 = bitcast %"class.std::bitset"* %YMM0 to i8*
  %12 = load i64, i64* %RBP
  %13 = sub i64 %12, 72
  %14 = load i64, i64* %PC
  %15 = add i64 %14, 5
  store i64 %15, i64* %PC
  %16 = inttoptr i64 %13 to double*
  %17 = load double, double* %16
  %18 = bitcast i8* %11 to double*
  store double %17, double* %18, align 1
  %19 = getelementptr inbounds i8, i8* %11, i64 8
  %20 = bitcast i8* %19 to double*
  store double 0.000000e+00, double* %20, align 1
  ret %struct.Memory* %2
}

define %struct.Memory* @routine_callq_._Z4testI14Double_pointer6DoubleEvT_S2_T0_(%struct.State* dereferenceable(3376), i64, %struct.Memory*, i64 %rel_off1, i64 %rel_off2, i64 %rel_off3) {
block_400478:
  %3 = getelementptr inbounds %struct.State, %struct.State* %0, i32 0, i32 6
  %4 = getelementptr inbounds %struct.GPR, %struct.GPR* %3, i32 0, i32 33
  %5 = getelementptr inbounds %struct.Reg, %struct.Reg* %4, i32 0, i32 0
  %PC = bitcast %union.anon* %5 to i64*
  %6 = load i64, i64* %PC
  %7 = add i64 %6, %rel_off1
  %8 = load i64, i64* %PC
  %9 = add i64 %8, %rel_off2
  %10 = load i64, i64* %PC
  %11 = add i64 %10, %rel_off3
  store i64 %11, i64* %PC
  %12 = getelementptr inbounds %struct.State, %struct.State* %0, i64 0, i32 6, i32 13, i32 0, i32 0
  %13 = load i64, i64* %12, align 8
  %14 = add i64 %13, -8
  %15 = inttoptr i64 %14 to i64*
  store i64 %9, i64* %15
  store i64 %14, i64* %12, align 8
  %16 = getelementptr inbounds %struct.State, %struct.State* %0, i64 0, i32 6, i32 33, i32 0, i32 0
  store i64 %7, i64* %16, align 8
  ret %struct.Memory* %2
}

define %struct.Memory* @routine_movq_0x60ce80___rax(%struct.State* dereferenceable(3376), i64, %struct.Memory*) {
block_400478:
  %3 = getelementptr inbounds %struct.State, %struct.State* %0, i32 0, i32 6
  %4 = getelementptr inbounds %struct.GPR, %struct.GPR* %3, i32 0, i32 33
  %5 = getelementptr inbounds %struct.Reg, %struct.Reg* %4, i32 0, i32 0
  %PC = bitcast %union.anon* %5 to i64*
  %6 = getelementptr inbounds %struct.State, %struct.State* %0, i32 0, i32 6
  %7 = getelementptr inbounds %struct.GPR, %struct.GPR* %6, i32 0, i32 1
  %8 = getelementptr inbounds %struct.Reg, %struct.Reg* %7, i32 0, i32 0
  %RAX = bitcast %union.anon* %8 to i64*
  %9 = load i64, i64* %PC
  %10 = add i64 %9, 8
  store i64 %10, i64* %PC
  %11 = load i64, i64* bitcast (%G_0x60ce80_type* @G_0x60ce80 to i64*)
  store i64 %11, i64* %RAX, align 8
  ret %struct.Memory* %2
}

define %struct.Memory* @routine_movq__rax__MINUS0x50__rbp_(%struct.State* dereferenceable(3376), i64, %struct.Memory*) {
block_400478:
  %3 = getelementptr inbounds %struct.State, %struct.State* %0, i32 0, i32 6
  %4 = getelementptr inbounds %struct.GPR, %struct.GPR* %3, i32 0, i32 33
  %5 = getelementptr inbounds %struct.Reg, %struct.Reg* %4, i32 0, i32 0
  %PC = bitcast %union.anon* %5 to i64*
  %6 = getelementptr inbounds %struct.State, %struct.State* %0, i32 0, i32 6
  %7 = getelementptr inbounds %struct.GPR, %struct.GPR* %6, i32 0, i32 1
  %8 = getelementptr inbounds %struct.Reg, %struct.Reg* %7, i32 0, i32 0
  %RAX = bitcast %union.anon* %8 to i64*
  %9 = getelementptr inbounds %struct.State, %struct.State* %0, i32 0, i32 6
  %10 = getelementptr inbounds %struct.GPR, %struct.GPR* %9, i32 0, i32 15
  %11 = getelementptr inbounds %struct.Reg, %struct.Reg* %10, i32 0, i32 0
  %RBP = bitcast %union.anon* %11 to i64*
  %12 = load i64, i64* %RBP
  %13 = sub i64 %12, 80
  %14 = load i64, i64* %RAX
  %15 = load i64, i64* %PC
  %16 = add i64 %15, 4
  store i64 %16, i64* %PC
  %17 = inttoptr i64 %13 to i64*
  store i64 %14, i64* %17
  ret %struct.Memory* %2
}

define %struct.Memory* @routine_movq_0x60ce88___rax(%struct.State* dereferenceable(3376), i64, %struct.Memory*) {
block_400478:
  %3 = getelementptr inbounds %struct.State, %struct.State* %0, i32 0, i32 6
  %4 = getelementptr inbounds %struct.GPR, %struct.GPR* %3, i32 0, i32 33
  %5 = getelementptr inbounds %struct.Reg, %struct.Reg* %4, i32 0, i32 0
  %PC = bitcast %union.anon* %5 to i64*
  %6 = getelementptr inbounds %struct.State, %struct.State* %0, i32 0, i32 6
  %7 = getelementptr inbounds %struct.GPR, %struct.GPR* %6, i32 0, i32 1
  %8 = getelementptr inbounds %struct.Reg, %struct.Reg* %7, i32 0, i32 0
  %RAX = bitcast %union.anon* %8 to i64*
  %9 = load i64, i64* %PC
  %10 = add i64 %9, 8
  store i64 %10, i64* %PC
  %11 = load i64, i64* bitcast (%G_0x60ce88_type* @G_0x60ce88 to i64*)
  store i64 %11, i64* %RAX, align 8
  ret %struct.Memory* %2
}

define %struct.Memory* @routine_movq__rax__MINUS0x58__rbp_(%struct.State* dereferenceable(3376), i64, %struct.Memory*) {
block_400478:
  %3 = getelementptr inbounds %struct.State, %struct.State* %0, i32 0, i32 6
  %4 = getelementptr inbounds %struct.GPR, %struct.GPR* %3, i32 0, i32 33
  %5 = getelementptr inbounds %struct.Reg, %struct.Reg* %4, i32 0, i32 0
  %PC = bitcast %union.anon* %5 to i64*
  %6 = getelementptr inbounds %struct.State, %struct.State* %0, i32 0, i32 6
  %7 = getelementptr inbounds %struct.GPR, %struct.GPR* %6, i32 0, i32 1
  %8 = getelementptr inbounds %struct.Reg, %struct.Reg* %7, i32 0, i32 0
  %RAX = bitcast %union.anon* %8 to i64*
  %9 = getelementptr inbounds %struct.State, %struct.State* %0, i32 0, i32 6
  %10 = getelementptr inbounds %struct.GPR, %struct.GPR* %9, i32 0, i32 15
  %11 = getelementptr inbounds %struct.Reg, %struct.Reg* %10, i32 0, i32 0
  %RBP = bitcast %union.anon* %11 to i64*
  %12 = load i64, i64* %RBP
  %13 = sub i64 %12, 88
  %14 = load i64, i64* %RAX
  %15 = load i64, i64* %PC
  %16 = add i64 %15, 4
  store i64 %16, i64* %PC
  %17 = inttoptr i64 %13 to i64*
  store i64 %14, i64* %17
  ret %struct.Memory* %2
}

define %struct.Memory* @routine_movq_MINUS0x50__rbp____rdi(%struct.State* dereferenceable(3376), i64, %struct.Memory*) {
block_400478:
  %3 = getelementptr inbounds %struct.State, %struct.State* %0, i32 0, i32 6
  %4 = getelementptr inbounds %struct.GPR, %struct.GPR* %3, i32 0, i32 33
  %5 = getelementptr inbounds %struct.Reg, %struct.Reg* %4, i32 0, i32 0
  %PC = bitcast %union.anon* %5 to i64*
  %6 = getelementptr inbounds %struct.State, %struct.State* %0, i32 0, i32 6
  %7 = getelementptr inbounds %struct.GPR, %struct.GPR* %6, i32 0, i32 11
  %8 = getelementptr inbounds %struct.Reg, %struct.Reg* %7, i32 0, i32 0
  %RDI = bitcast %union.anon* %8 to i64*
  %9 = getelementptr inbounds %struct.State, %struct.State* %0, i32 0, i32 6
  %10 = getelementptr inbounds %struct.GPR, %struct.GPR* %9, i32 0, i32 15
  %11 = getelementptr inbounds %struct.Reg, %struct.Reg* %10, i32 0, i32 0
  %RBP = bitcast %union.anon* %11 to i64*
  %12 = load i64, i64* %RBP
  %13 = sub i64 %12, 80
  %14 = load i64, i64* %PC
  %15 = add i64 %14, 4
  store i64 %15, i64* %PC
  %16 = inttoptr i64 %13 to i64*
  %17 = load i64, i64* %16
  store i64 %17, i64* %RDI, align 8
  ret %struct.Memory* %2
}

define %struct.Memory* @routine_movq_MINUS0x58__rbp____rsi(%struct.State* dereferenceable(3376), i64, %struct.Memory*) {
block_400478:
  %3 = getelementptr inbounds %struct.State, %struct.State* %0, i32 0, i32 6
  %4 = getelementptr inbounds %struct.GPR, %struct.GPR* %3, i32 0, i32 33
  %5 = getelementptr inbounds %struct.Reg, %struct.Reg* %4, i32 0, i32 0
  %PC = bitcast %union.anon* %5 to i64*
  %6 = getelementptr inbounds %struct.State, %struct.State* %0, i32 0, i32 6
  %7 = getelementptr inbounds %struct.GPR, %struct.GPR* %6, i32 0, i32 9
  %8 = getelementptr inbounds %struct.Reg, %struct.Reg* %7, i32 0, i32 0
  %RSI = bitcast %union.anon* %8 to i64*
  %9 = getelementptr inbounds %struct.State, %struct.State* %0, i32 0, i32 6
  %10 = getelementptr inbounds %struct.GPR, %struct.GPR* %9, i32 0, i32 15
  %11 = getelementptr inbounds %struct.Reg, %struct.Reg* %10, i32 0, i32 0
  %RBP = bitcast %union.anon* %11 to i64*
  %12 = load i64, i64* %RBP
  %13 = sub i64 %12, 88
  %14 = load i64, i64* %PC
  %15 = add i64 %14, 4
  store i64 %15, i64* %PC
  %16 = inttoptr i64 %13 to i64*
  %17 = load i64, i64* %16
  store i64 %17, i64* %RSI, align 8
  ret %struct.Memory* %2
}

define %struct.Memory* @routine_callq_._Z4testI16reverse_iteratorIPddEdEvT_S3_T0_(%struct.State* dereferenceable(3376), i64, %struct.Memory*, i64 %rel_off1, i64 %rel_off2, i64 %rel_off3) {
block_400478:
  %3 = getelementptr inbounds %struct.State, %struct.State* %0, i32 0, i32 6
  %4 = getelementptr inbounds %struct.GPR, %struct.GPR* %3, i32 0, i32 33
  %5 = getelementptr inbounds %struct.Reg, %struct.Reg* %4, i32 0, i32 0
  %PC = bitcast %union.anon* %5 to i64*
  %6 = load i64, i64* %PC
  %7 = add i64 %6, %rel_off1
  %8 = load i64, i64* %PC
  %9 = add i64 %8, %rel_off2
  %10 = load i64, i64* %PC
  %11 = add i64 %10, %rel_off3
  store i64 %11, i64* %PC
  %12 = getelementptr inbounds %struct.State, %struct.State* %0, i64 0, i32 6, i32 13, i32 0, i32 0
  %13 = load i64, i64* %12, align 8
  %14 = add i64 %13, -8
  %15 = inttoptr i64 %14 to i64*
  store i64 %9, i64* %15
  store i64 %14, i64* %12, align 8
  %16 = getelementptr inbounds %struct.State, %struct.State* %0, i64 0, i32 6, i32 33, i32 0, i32 0
  store i64 %7, i64* %16, align 8
  ret %struct.Memory* %2
}

define %struct.Memory* @routine_movq_0x60ce90___rax(%struct.State* dereferenceable(3376), i64, %struct.Memory*) {
block_400478:
  %3 = getelementptr inbounds %struct.State, %struct.State* %0, i32 0, i32 6
  %4 = getelementptr inbounds %struct.GPR, %struct.GPR* %3, i32 0, i32 33
  %5 = getelementptr inbounds %struct.Reg, %struct.Reg* %4, i32 0, i32 0
  %PC = bitcast %union.anon* %5 to i64*
  %6 = getelementptr inbounds %struct.State, %struct.State* %0, i32 0, i32 6
  %7 = getelementptr inbounds %struct.GPR, %struct.GPR* %6, i32 0, i32 1
  %8 = getelementptr inbounds %struct.Reg, %struct.Reg* %7, i32 0, i32 0
  %RAX = bitcast %union.anon* %8 to i64*
  %9 = load i64, i64* %PC
  %10 = add i64 %9, 8
  store i64 %10, i64* %PC
  %11 = load i64, i64* bitcast (%G_0x60ce90_type* @G_0x60ce90 to i64*)
  store i64 %11, i64* %RAX, align 8
  ret %struct.Memory* %2
}

define %struct.Memory* @routine_movq__rax__MINUS0x60__rbp_(%struct.State* dereferenceable(3376), i64, %struct.Memory*) {
block_400478:
  %3 = getelementptr inbounds %struct.State, %struct.State* %0, i32 0, i32 6
  %4 = getelementptr inbounds %struct.GPR, %struct.GPR* %3, i32 0, i32 33
  %5 = getelementptr inbounds %struct.Reg, %struct.Reg* %4, i32 0, i32 0
  %PC = bitcast %union.anon* %5 to i64*
  %6 = getelementptr inbounds %struct.State, %struct.State* %0, i32 0, i32 6
  %7 = getelementptr inbounds %struct.GPR, %struct.GPR* %6, i32 0, i32 1
  %8 = getelementptr inbounds %struct.Reg, %struct.Reg* %7, i32 0, i32 0
  %RAX = bitcast %union.anon* %8 to i64*
  %9 = getelementptr inbounds %struct.State, %struct.State* %0, i32 0, i32 6
  %10 = getelementptr inbounds %struct.GPR, %struct.GPR* %9, i32 0, i32 15
  %11 = getelementptr inbounds %struct.Reg, %struct.Reg* %10, i32 0, i32 0
  %RBP = bitcast %union.anon* %11 to i64*
  %12 = load i64, i64* %RBP
  %13 = sub i64 %12, 96
  %14 = load i64, i64* %RAX
  %15 = load i64, i64* %PC
  %16 = add i64 %15, 4
  store i64 %16, i64* %PC
  %17 = inttoptr i64 %13 to i64*
  store i64 %14, i64* %17
  ret %struct.Memory* %2
}

define %struct.Memory* @routine_movq_0x60ce98___rax(%struct.State* dereferenceable(3376), i64, %struct.Memory*) {
block_400478:
  %3 = getelementptr inbounds %struct.State, %struct.State* %0, i32 0, i32 6
  %4 = getelementptr inbounds %struct.GPR, %struct.GPR* %3, i32 0, i32 33
  %5 = getelementptr inbounds %struct.Reg, %struct.Reg* %4, i32 0, i32 0
  %PC = bitcast %union.anon* %5 to i64*
  %6 = getelementptr inbounds %struct.State, %struct.State* %0, i32 0, i32 6
  %7 = getelementptr inbounds %struct.GPR, %struct.GPR* %6, i32 0, i32 1
  %8 = getelementptr inbounds %struct.Reg, %struct.Reg* %7, i32 0, i32 0
  %RAX = bitcast %union.anon* %8 to i64*
  %9 = load i64, i64* %PC
  %10 = add i64 %9, 8
  store i64 %10, i64* %PC
  %11 = load i64, i64* bitcast (%G_0x60ce98_type* @G_0x60ce98 to i64*)
  store i64 %11, i64* %RAX, align 8
  ret %struct.Memory* %2
}

