; ModuleID = 'test.bc'
source_filename = "llvm-link"
target datalayout = "e-m:e-i64:64-f80:128-n8:16:32:64-S128"
target triple = "x86_64-pc-linux-gnu-elf"
%union.anon = type { i64 }
%seg_400388__init_type = type <{ [23 x i8] }>
%seg_4003a0__text_type = type <{ [354 x i8] }>
%seg_400504__fini_type = type <{ [9 x i8] }>
%seg_400510__rodata_type = type <{ [4 x i8] }>
%seg_400514__eh_frame_hdr_type = type <{ [52 x i8] }>
%seg_400548__eh_frame_type = type <{ [208 x i8] }>
%seg_600e40__init_array_type = type <{ i64, i64 }>
%seg_601018__data_type = type <{ [16 x i8] }>
%__bss_start_type = type <{ [8 x i8] }>
%struct.State = type { %struct.ArchState, [32 x %union.VectorReg], %struct.ArithFlags, %union.anon, %struct.Segments, %struct.AddressSpace, %struct.GPR, %struct.X87Stack, %struct.MMX, %struct.FPUStatusFlags, %union.anon, %union.FPU, %struct.SegmentCaches }
%struct.ArchState = type { i32, i32, %union.anon }
%union.VectorReg = type { %union.vec512_t }
%union.vec512_t = type { %struct.uint64v8_t }
%struct.uint64v8_t = type { [8 x i64] }
%struct.ArithFlags = type { i8, i8, i8, i8, i8, i8, i8, i8, i8, i8, i8, i8, i8, i8, i8, i8 }
%struct.Segments = type { i16, %union.SegmentSelector, i16, %union.SegmentSelector, i16, %union.SegmentSelector, i16, %union.SegmentSelector, i16, %union.SegmentSelector, i16, %union.SegmentSelector }
%union.SegmentSelector = type { i16 }
%struct.AddressSpace = type { i64, %struct.Reg, i64, %struct.Reg, i64, %struct.Reg, i64, %struct.Reg, i64, %struct.Reg, i64, %struct.Reg }
%struct.Reg = type { %union.anon }
%struct.GPR = type { i64, %struct.Reg, i64, %struct.Reg, i64, %struct.Reg, i64, %struct.Reg, i64, %struct.Reg, i64, %struct.Reg, i64, %struct.Reg, i64, %struct.Reg, i64, %struct.Reg, i64, %struct.Reg, i64, %struct.Reg, i64, %struct.Reg, i64, %struct.Reg, i64, %struct.Reg, i64, %struct.Reg, i64, %struct.Reg, i64, %struct.Reg }
%struct.X87Stack = type { [8 x %struct.anon.3] }
%struct.anon.3 = type { i64, double }
%struct.MMX = type { [8 x %struct.anon.4] }
%struct.anon.4 = type { i64, %union.vec64_t }
%union.vec64_t = type { %struct.uint64v1_t }
%struct.uint64v1_t = type { [1 x i64] }
%struct.FPUStatusFlags = type { i8, i8, i8, i8, i8, i8, i8, i8, i8, i8, i8, i8, i8, i8, i8, i8, i8, i8, i8, i8, [4 x i8] }
%union.FPU = type { %struct.anon.13 }
%struct.anon.13 = type { %struct.FpuFXSAVE, [96 x i8] }
%struct.FpuFXSAVE = type { %union.SegmentSelector, %union.SegmentSelector, %union.FPUAbridgedTagWord, i8, i16, i32, %union.SegmentSelector, i16, i32, %union.SegmentSelector, i16, %union.FPUControlStatus, %union.FPUControlStatus, [8 x %struct.FPUStackElem], [16 x %union.vec128_t] }
%union.FPUAbridgedTagWord = type { i8 }
%union.FPUControlStatus = type { i32 }
%struct.FPUStackElem = type { %union.anon.11, [6 x i8] }
%union.anon.11 = type { %struct.float80_t }
%struct.float80_t = type { [10 x i8] }
%union.vec128_t = type { %struct.uint128v1_t }
%struct.uint128v1_t = type { [1 x i128] }
%struct.SegmentCaches = type { %struct.SegmentShadow, %struct.SegmentShadow, %struct.SegmentShadow, %struct.SegmentShadow, %struct.SegmentShadow, %struct.SegmentShadow }
%struct.SegmentShadow = type { %union.anon, i32, i32 }
%struct.Memory = type opaque
%struct.uint8v32_t = type { [32 x i8] }
%struct.anon.2 = type { i8, i8 }
%struct.int32v8_t = type { [8 x i32] }
%struct.float32v8_t = type { [8 x float] }
%struct.uint8v8_t = type { [8 x i8] }
%struct.uint8v16_t = type { [16 x i8] }
%struct.uint16v8_t = type { [8 x i16] }
%struct.uint8v4_t = type { [4 x i8] }
%struct.int16v4_t = type { [4 x i16] }
%struct.int32v4_t = type { [4 x i32] }
%struct.uint64v2_t = type { [2 x i64] }
%struct.uint64v4_t = type { [4 x i64] }
%struct.uint128v2_t = type { [2 x i128] }
%struct.uint16v16_t = type { [16 x i16] }
%struct.float64v4_t = type { [4 x double] }
%"class.(anonymous namespace)::BitMatrix" = type { %"class.std::bitset", [16 x [16 x i8]] }
%"class.std::bitset" = type { %struct.uint64v4_t }
%struct.bcd80_t = type { [9 x %union.FPUAbridgedTagWord], %union.FPUAbridgedTagWord }
%struct.FpuFSAVE = type { %union.SegmentSelector, i16, %union.SegmentSelector, i16, %union.SegmentSelector, i16, i32, %union.SegmentSelector, i16, i32, %union.SegmentSelector, i16, [8 x %struct.FPUStackElem] }
%struct.anon.5 = type { i32, i32 }
@switch.table = private unnamed_addr constant [4 x i32] [i32 2048, i32 3072, i32 0, i32 1024]
@DR0 = external global i64, align 8
@DR1 = external global i64, align 8
@DR2 = external global i64, align 8
@DR3 = external global i64, align 8
@DR4 = external global i64, align 8
@DR5 = external global i64, align 8
@DR6 = external global i64, align 8
@DR7 = external global i64, align 8
@gCR0 = external global %union.anon, align 1
@gCR1 = external global %union.anon, align 1
@gCR2 = external global %union.anon, align 1
@gCR3 = external global %union.anon, align 1
@gCR4 = external global %union.anon, align 1
@gCR8 = external global %union.anon, align 1
@seg_400388__init = internal constant %seg_400388__init_type <{ [23 x i8] c"H\83\EC\08H\8B\05e\0C \00H\85\C0t\02\FF\D0H\83\C4\08\C3" }>
@seg_4003a0__text = internal constant %seg_4003a0__text_type <{ [354 x i8] c"1\EDI\89\D1^H\89\E2H\83\E4\F0PTI\C7\C0\00\05@\00H\C7\C1\90\04@\00H\C7\C7\88\04@\00\FF\15&\0C \00\F4\0F\1FD\00\00\F3\C3f.\0F\1F\84\00\00\00\00\00\0F\1F@\00U\B8(\10`\00H=(\10`\00H\89\E5t\17\B8\00\00\00\00H\85\C0t\0D]\BF(\10`\00\FF\E0\0F\1FD\00\00]\C3f\0F\1FD\00\00\BE(\10`\00UH\81\EE(\10`\00H\89\E5H\C1\FE\03H\89\F0H\C1\E8?H\01\C6H\D1\FEt\15\B8\00\00\00\00H\85\C0t\0B]\BF(\10`\00\FF\E0\0F\1F\00]\C3f\0F\1FD\00\00\80=\D1\0B \00\00u\17UH\89\E5\E8~\FF\FF\FF\C6\05\BF\0B \00\01]\C3\0F\1FD\00\00\F3\C3\0F\1F@\00f.\0F\1F\84\00\00\00\00\00UH\89\E5]\EB\89\90U\C3f\0F\1FD\00\00AWAVI\89\D7AUATL\8D%\9E\09 \00UH\8D-\9E\09 \00SA\89\FDI\89\F6L)\E5H\83\EC\08H\C1\FD\03\E8\C7\FE\FF\FFH\85\EDt 1\DB\0F\1F\84\00\00\00\00\00L\89\FAL\89\F6D\89\EFA\FF\14\DCH\83\C3\01H9\DDu\EAH\83\C4\08[]A\5CA]A^A_\C3\90f.\0F\1F\84\00\00\00\00\00\F3\C3" }>
@seg_400504__fini = internal constant %seg_400504__fini_type <{ [9 x i8] c"H\83\EC\08H\83\C4\08\C3" }>
@seg_400510__rodata = internal constant %seg_400510__rodata_type <{ [4 x i8] c"\01\00\02\00" }>
@seg_400514__eh_frame_hdr = internal constant %seg_400514__eh_frame_hdr_type <{ [52 x i8] c"\01\1B\03;0\00\00\00\05\00\00\00\8C\FE\FF\FFL\00\00\00\BC\FE\FF\FFx\00\00\00t\FF\FF\FF\8C\00\00\00|\FF\FF\FF\A4\00\00\00\EC\FF\FF\FF\EC\00\00\00" }>
@seg_400548__eh_frame = internal constant %seg_400548__eh_frame_type <{ [208 x i8] c"\14\00\00\00\00\00\00\00\01zR\00\01x\10\01\1B\0C\07\08\90\01\07\10\10\00\00\00\1C\00\00\008\FE\FF\FF+\00\00\00\00\00\00\00\14\00\00\00\00\00\00\00\01zR\00\01x\10\01\1B\0C\07\08\90\01\00\00\10\00\00\00\1C\00\00\00<\FE\FF\FF\02\00\00\00\00\00\00\00\14\00\00\000\00\00\00\E0\FE\FF\FF\02\00\00\00\00\00\00\00\00\00\00\00D\00\00\00H\00\00\00\D0\FE\FF\FFe\00\00\00\00B\0E\10\8F\02B\0E\18\8E\03E\0E \8D\04B\0E(\8C\05H\0E0\86\06H\0E8\83\07M\0E@r\0E8A\0E0A\0E(B\0E B\0E\18B\0E\10B\0E\08\00\10\00\00\00\90\00\00\00\F8\FE\FF\FF\02\00\00\00\00\00\00\00\00\00\00\00" }>
@seg_601018__data = internal global %seg_601018__data_type zeroinitializer
@__bss_start = global %__bss_start_type zeroinitializer
@0 = internal global i1 false
%seg_400514__fini_type = type <{ [9 x i8] }>
%seg_400520__rodata_type = type <{ [4 x i8] }>
%seg_400524__eh_frame_hdr_type = type <{ [52 x i8] }>
%seg_400558__eh_frame_type = type <{ [208 x i8] }>
@seg_400514__fini = internal constant %seg_400514__fini_type <{ [9 x i8] c"H\83\EC\08H\83\C4\08\C3" }>
@seg_400520__rodata = internal constant %seg_400520__rodata_type <{ [4 x i8] c"\01\00\02\00" }>
@seg_400524__eh_frame_hdr = internal constant %seg_400524__eh_frame_hdr_type <{ [52 x i8] c"\01\1B\03;0\00\00\00\05\00\00\00|\FE\FF\FFL\00\00\00\AC\FE\FF\FFx\00\00\00d\FF\FF\FF\8C\00\00\00|\FF\FF\FF\A4\00\00\00\EC\FF\FF\FF\EC\00\00\00" }>
@seg_400558__eh_frame = internal constant %seg_400558__eh_frame_type <{ [208 x i8] c"\14\00\00\00\00\00\00\00\01zR\00\01x\10\01\1B\0C\07\08\90\01\07\10\10\00\00\00\1C\00\00\00(\FE\FF\FF+\00\00\00\00\00\00\00\14\00\00\00\00\00\00\00\01zR\00\01x\10\01\1B\0C\07\08\90\01\00\00\10\00\00\00\1C\00\00\00,\FE\FF\FF\02\00\00\00\00\00\00\00\14\00\00\000\00\00\00\D0\FE\FF\FF\0C\00\00\00\00\00\00\00\00\00\00\00D\00\00\00H\00\00\00\D0\FE\FF\FFe\00\00\00\00B\0E\10\8F\02B\0E\18\8E\03E\0E \8D\04B\0E(\8C\05H\0E0\86\06H\0E8\83\07M\0E@r\0E8A\0E0A\0E(B\0E B\0E\18B\0E\10B\0E\08\00\10\00\00\00\90\00\00\00\F8\FE\FF\FF\02\00\00\00\00\00\00\00\00\00\00\00" }>

; Function Declaraions
declare %struct.Memory* @__remill_error(%struct.State* dereferenceable(3376), i64, %struct.Memory*)
declare i32 @__remill_fpu_exception_test_and_clear(i32, i32)
declare void @llvm.lifetime.start(i64, i8* nocapture)
declare void @llvm.lifetime.end(i64, i8* nocapture)
declare i32 @llvm.ctpop.i32(i32)
declare i32 @llvm.bswap.i32(i32)
declare i64 @llvm.bswap.i64(i64)
declare i32 @llvm.cttz.i32(i32, i1)
declare i64 @llvm.cttz.i64(i64, i1)
declare i32 @llvm.ctlz.i32(i32, i1)
declare i64 @llvm.ctlz.i64(i64, i1)
declare void @llvm.memcpy.p0i8.p0i8.i64(i8* nocapture writeonly, i8* nocapture readonly, i64, i32, i1)
declare double @llvm.nearbyint.f64(double)
declare double @llvm.fabs.f64(double)
declare <4 x double> @llvm.nearbyint.v4f64(<4 x double>)
declare <4 x double> @llvm.fabs.v4f64(<4 x double>)
declare double @llvm.trunc.f64(double)
declare <4 x double> @llvm.trunc.v4f64(<4 x double>)
declare float @llvm.nearbyint.f32(float)
declare float @llvm.fabs.f32(float)
declare <4 x float> @llvm.nearbyint.v4f32(<4 x float>)
declare <4 x float> @llvm.fabs.v4f32(<4 x float>)
declare float @llvm.trunc.f32(float)
declare <4 x float> @llvm.trunc.v4f32(<4 x float>)
declare void @llvm.memset.p0i8.i64(i8* nocapture writeonly, i8, i64, i32, i1)

; Buiitins  
declare double @atan(double) local_unnamed_addr #9
declare double @cos(double) local_unnamed_addr #9
declare double @sin(double) local_unnamed_addr #9
declare double @sqrt(double) local_unnamed_addr #9
declare double @tan(double) local_unnamed_addr #9
declare extern_weak x86_64_sysvcc i64 @abort() #18
declare extern_weak x86_64_sysvcc i64 @abs(i64) #18
declare extern_weak x86_64_sysvcc i64 @asin(i64) #18
declare extern_weak x86_64_sysvcc i64 @atof(i64) #18
declare extern_weak x86_64_sysvcc i64 @atoi(i64) #18
declare extern_weak x86_64_sysvcc i64 @atol(i64) #18
declare extern_weak x86_64_sysvcc i64 @calloc(i64, i64) #18
declare extern_weak x86_64_sysvcc i64 @clock() #18
declare extern_weak x86_64_sysvcc i64 @cosf(i64) #18
declare extern_weak x86_64_sysvcc i64 @exit(i64) #18
declare extern_weak x86_64_sysvcc i64 @exp(i64) #18
declare extern_weak x86_64_sysvcc i64 @fflush(i64) #18
declare extern_weak x86_64_sysvcc i64 @floor(i64) #18
declare extern_weak x86_64_sysvcc i64 @fprintf(i64, i64, i64, i64, i64, i64, i64, i64, i64, i64, i64, i64, i64, i64, i64, i64) #18
declare extern_weak x86_64_sysvcc i64 @fputs(i64, i64) #18
declare extern_weak x86_64_sysvcc i64 @free(i64) #18
declare extern_weak x86_64_sysvcc i64 @fwrite(i64, i64, i64, i64) #18
declare extern_weak x86_64_sysvcc i64 @getchar() #18
declare extern_weak x86_64_sysvcc i64 @gettimeofday(i64, i64) #18
declare extern_weak x86_64_sysvcc i64 @__isoc99_fscanf(i64, i64, i64, i64, i64, i64, i64, i64, i64, i64, i64, i64, i64, i64, i64, i64) #18
declare extern_weak x86_64_sysvcc i64 @__isoc99_scanf(i64, i64, i64, i64, i64, i64, i64, i64, i64, i64, i64, i64, i64, i64, i64, i64) #18
declare extern_weak x86_64_sysvcc i64 @__isoc99_sscanf(i64, i64, i64, i64, i64, i64, i64, i64, i64, i64, i64, i64, i64, i64, i64, i64) #18
declare extern_weak x86_64_sysvcc i64 @log(i64) #18
declare extern_weak x86_64_sysvcc i64 @lrand48() #18
declare extern_weak x86_64_sysvcc i64 @malloc(i64) #18
declare extern_weak x86_64_sysvcc i64 @memalign(i64, i64) #18
declare extern_weak x86_64_sysvcc i64 @memcpy(i64, i64, i64) #18
declare extern_weak x86_64_sysvcc i64 @memset(i64, i64, i64) #18
declare extern_weak x86_64_sysvcc i64 @perror(i64) #18
declare extern_weak x86_64_sysvcc i64 @posix_memalign(i64, i64, i64) #18
declare extern_weak x86_64_sysvcc i64 @pow(i64, i64) #18
declare extern_weak x86_64_sysvcc i64 @printf(i64, i64, i64, i64, i64, i64, i64, i64, i64, i64, i64, i64, i64, i64, i64, i64) #18
declare extern_weak x86_64_sysvcc i64 @putchar(i64) #18
declare extern_weak x86_64_sysvcc i64 @puts(i64) #18
declare extern_weak x86_64_sysvcc i64 @rand() #18
declare extern_weak x86_64_sysvcc i64 @random() #18
declare extern_weak x86_64_sysvcc i64 @realloc(i64, i64) #18
declare extern_weak x86_64_sysvcc i64 @seed48(i64) #18
declare extern_weak x86_64_sysvcc i64 @sinf(i64) #18
declare extern_weak x86_64_sysvcc i64 @sprintf(i64, i64, i64, i64, i64, i64, i64, i64, i64, i64, i64, i64, i64, i64, i64, i64) #18
declare extern_weak x86_64_sysvcc i64 @srand(i64) #18
declare extern_weak x86_64_sysvcc i64 @strcat(i64, i64) #18
declare extern_weak x86_64_sysvcc i64 @strcmp(i64, i64) #18
declare extern_weak x86_64_sysvcc i64 @strcpy(i64, i64) #18
declare extern_weak x86_64_sysvcc i64 @strdup(i64) #18
declare extern_weak x86_64_sysvcc i64 @strlen(i64) #18
declare extern_weak x86_64_sysvcc i64 @strncmp(i64, i64, i64) #18
declare extern_weak x86_64_sysvcc i64 @strtoll(i64, i64, i64) #18
declare extern_weak x86_64_sysvcc i64 @time(i64) #18
declare extern_weak x86_64_sysvcc i64 @ungetc(i64, i64) #18

declare %struct.Memory* @__remill_function_call(%struct.State* dereferenceable(3376), i64, %struct.Memory*)

define internal %struct.Memory* @ext_gettimeofday(%struct.State*, i64, %struct.Memory*) #18 {
  %4 = call %struct.Memory* @__remill_function_call(%struct.State* %0, i64 ptrtoint (i64 (i64, i64)* @gettimeofday to i64), %struct.Memory* %2)
  ret %struct.Memory* %4
}

define internal %struct.Memory* @ext___isoc99_scanf(%struct.State*, i64, %struct.Memory*) #18 {
  %4 = call %struct.Memory* @__remill_function_call(%struct.State* %0, i64 ptrtoint (i64 (i64, i64, i64, i64, i64, i64, i64, i64, i64, i64, i64, i64, i64, i64, i64, i64)* @__isoc99_scanf to i64), %struct.Memory* %2)
  ret %struct.Memory* %4
}


define internal %struct.Memory* @ext_fflush(%struct.State*, i64, %struct.Memory*) #18 {
  %4 = call %struct.Memory* @__remill_function_call(%struct.State* %0, i64 ptrtoint (i64 (i64)* @fflush to i64), %struct.Memory* %2)
  ret %struct.Memory* %4
}

define internal %struct.Memory* @ext___isoc99_fscanf(%struct.State*, i64, %struct.Memory*) #18 {
  %4 = call %struct.Memory* @__remill_function_call(%struct.State* %0, i64 ptrtoint (i64 (i64, i64, i64, i64, i64, i64, i64, i64, i64, i64, i64, i64, i64, i64, i64, i64)* @__isoc99_fscanf to i64), %struct.Memory* %2)
  ret %struct.Memory* %4
}

define internal %struct.Memory* @ext___isoc99_sscanf(%struct.State*, i64, %struct.Memory*) #18 {
  %4 = call %struct.Memory* @__remill_function_call(%struct.State* %0, i64 ptrtoint (i64 (i64, i64, i64, i64, i64, i64, i64, i64, i64, i64, i64, i64, i64, i64, i64, i64)* @__isoc99_sscanf to i64), %struct.Memory* %2)
  ret %struct.Memory* %4
}

define internal %struct.Memory* @ext_memcpy(%struct.State*, i64, %struct.Memory*) #18 {
  %4 = call %struct.Memory* @__remill_function_call(%struct.State* %0, i64 ptrtoint (i64 (i64, i64, i64)* @memcpy to i64), %struct.Memory* %2)
  ret %struct.Memory* %4
}

define internal %struct.Memory* @ext_posix_memalign(%struct.State*, i64, %struct.Memory*) #18 {
  %4 = call %struct.Memory* @__remill_function_call(%struct.State* %0, i64 ptrtoint (i64 (i64, i64, i64)* @posix_memalign to i64), %struct.Memory* %2)
  ret %struct.Memory* %4
}

define internal %struct.Memory* @ext_fprintf(%struct.State*, i64, %struct.Memory*) #18 {
  %4 = call %struct.Memory* @__remill_function_call(%struct.State* %0, i64 ptrtoint (i64 (i64, i64, i64, i64, i64, i64, i64, i64, i64, i64, i64, i64, i64, i64, i64, i64)* @fprintf to i64), %struct.Memory* %2)
  ret %struct.Memory* %4
}

define internal %struct.Memory* @ext_memset(%struct.State*, i64, %struct.Memory*) #18 {
  %4 = call %struct.Memory* @__remill_function_call(%struct.State* %0, i64 ptrtoint (i64 (i64, i64, i64)* @memset to i64), %struct.Memory* %2)
  ret %struct.Memory* %4
}

define internal %struct.Memory* @ext_perror(%struct.State*, i64, %struct.Memory*) #18 {
  %4 = call %struct.Memory* @__remill_function_call(%struct.State* %0, i64 ptrtoint (i64 (i64)* @perror to i64), %struct.Memory* %2)
  ret %struct.Memory* %4
}

define internal %struct.Memory* @ext_floor(%struct.State*, i64, %struct.Memory*) #18 {
  %4 = call %struct.Memory* @__remill_function_call(%struct.State* %0, i64 ptrtoint (i64 (i64)* @floor to i64), %struct.Memory* %2)
  ret %struct.Memory* %4
}

define internal %struct.Memory* @ext_malloc(%struct.State*, i64, %struct.Memory*) #18 {
  %4 = call %struct.Memory* @__remill_function_call(%struct.State* %0, i64 ptrtoint (i64 (i64)* @malloc to i64), %struct.Memory* %2)
  ret %struct.Memory* %4
}

define internal %struct.Memory* @ext_atoi(%struct.State*, i64, %struct.Memory*) #18 {
  %4 = call %struct.Memory* @__remill_function_call(%struct.State* %0, i64 ptrtoint (i64 (i64)* @atoi to i64), %struct.Memory* %2)
  ret %struct.Memory* %4
}

define internal %struct.Memory* @ext_strcpy(%struct.State*, i64, %struct.Memory*) #18 {
  %4 = call %struct.Memory* @__remill_function_call(%struct.State* %0, i64 ptrtoint (i64 (i64, i64)* @strcpy to i64), %struct.Memory* %2)
  ret %struct.Memory* %4
}

define internal %struct.Memory* @ext_ungetc(%struct.State*, i64, %struct.Memory*) #18 {
  %4 = call %struct.Memory* @__remill_function_call(%struct.State* %0, i64 ptrtoint (i64 (i64, i64)* @ungetc to i64), %struct.Memory* %2)
  ret %struct.Memory* %4
}

define internal %struct.Memory* @ext_pow(%struct.State*, i64, %struct.Memory*) #18 {
  %4 = call %struct.Memory* @__remill_function_call(%struct.State* %0, i64 ptrtoint (i64 (i64, i64)* @pow to i64), %struct.Memory* %2)
  ret %struct.Memory* %4
}

define internal %struct.Memory* @ext_seed48(%struct.State*, i64, %struct.Memory*) #18 {
  %4 = call %struct.Memory* @__remill_function_call(%struct.State* %0, i64 ptrtoint (i64 (i64)* @seed48 to i64), %struct.Memory* %2)
  ret %struct.Memory* %4
}

define internal %struct.Memory* @ext_asin(%struct.State*, i64, %struct.Memory*) #18 {
  %4 = call %struct.Memory* @__remill_function_call(%struct.State* %0, i64 ptrtoint (i64 (i64)* @asin to i64), %struct.Memory* %2)
  ret %struct.Memory* %4
}

define internal %struct.Memory* @ext_strdup(%struct.State*, i64, %struct.Memory*) #18 {
  %4 = call %struct.Memory* @__remill_function_call(%struct.State* %0, i64 ptrtoint (i64 (i64)* @strdup to i64), %struct.Memory* %2)
  ret %struct.Memory* %4
}

define internal %struct.Memory* @ext_cosf(%struct.State*, i64, %struct.Memory*) #18 {
  %4 = call %struct.Memory* @__remill_function_call(%struct.State* %0, i64 ptrtoint (i64 (i64)* @cosf to i64), %struct.Memory* %2)
  ret %struct.Memory* %4
}

define internal %struct.Memory* @ext_abs(%struct.State*, i64, %struct.Memory*) #18 {
  %4 = call %struct.Memory* @__remill_function_call(%struct.State* %0, i64 ptrtoint (i64 (i64)* @abs to i64), %struct.Memory* %2)
  ret %struct.Memory* %4
}

define internal %struct.Memory* @ext_abort(%struct.State*, i64, %struct.Memory*) #18 {
  %4 = call %struct.Memory* @__remill_function_call(%struct.State* %0, i64 ptrtoint (i64 ()* @abort to i64), %struct.Memory* %2)
  ret %struct.Memory* %4
}

define internal %struct.Memory* @ext_exit(%struct.State*, i64, %struct.Memory*) #18 {
  %4 = call %struct.Memory* @__remill_function_call(%struct.State* %0, i64 ptrtoint (i64 (i64)* @exit to i64), %struct.Memory* %2)
  ret %struct.Memory* %4
}

define internal %struct.Memory* @ext_putchar(%struct.State*, i64, %struct.Memory*) #18 {
  %4 = call %struct.Memory* @__remill_function_call(%struct.State* %0, i64 ptrtoint (i64 (i64)* @putchar to i64), %struct.Memory* %2)
  ret %struct.Memory* %4
}

define internal %struct.Memory* @ext_strncmp(%struct.State*, i64, %struct.Memory*) #18 {
  %4 = call %struct.Memory* @__remill_function_call(%struct.State* %0, i64 ptrtoint (i64 (i64, i64, i64)* @strncmp to i64), %struct.Memory* %2)
  ret %struct.Memory* %4
}

define internal %struct.Memory* @ext_strcmp(%struct.State*, i64, %struct.Memory*) #18 {
  %4 = call %struct.Memory* @__remill_function_call(%struct.State* %0, i64 ptrtoint (i64 (i64, i64)* @strcmp to i64), %struct.Memory* %2)
  ret %struct.Memory* %4
}

define internal %struct.Memory* @ext_rand(%struct.State*, i64, %struct.Memory*) #18 {
  %4 = call %struct.Memory* @__remill_function_call(%struct.State* %0, i64 ptrtoint (i64 ()* @rand to i64), %struct.Memory* %2)
  ret %struct.Memory* %4
}

define internal %struct.Memory* @ext_calloc(%struct.State*, i64, %struct.Memory*) #18 {
  %4 = call %struct.Memory* @__remill_function_call(%struct.State* %0, i64 ptrtoint (i64 (i64, i64)* @calloc to i64), %struct.Memory* %2)
  ret %struct.Memory* %4
}

define internal %struct.Memory* @ext_fwrite(%struct.State*, i64, %struct.Memory*) #18 {
  %4 = call %struct.Memory* @__remill_function_call(%struct.State* %0, i64 ptrtoint (i64 (i64, i64, i64, i64)* @fwrite to i64), %struct.Memory* %2)
  ret %struct.Memory* %4
}

define internal %struct.Memory* @ext_realloc(%struct.State*, i64, %struct.Memory*) #18 {
  %4 = call %struct.Memory* @__remill_function_call(%struct.State* %0, i64 ptrtoint (i64 (i64, i64)* @realloc to i64), %struct.Memory* %2)
  ret %struct.Memory* %4
}


define internal %struct.Memory* @ext_log(%struct.State*, i64, %struct.Memory*) #18 {
  %4 = call %struct.Memory* @__remill_function_call(%struct.State* %0, i64 ptrtoint (i64 (i64)* @log to i64), %struct.Memory* %2)
  ret %struct.Memory* %4
}


define internal %struct.Memory* @ext_exp(%struct.State*, i64, %struct.Memory*) #18 {
  %4 = call %struct.Memory* @__remill_function_call(%struct.State* %0, i64 ptrtoint (i64 (i64)* @exp to i64), %struct.Memory* %2)
  ret %struct.Memory* %4
}

define internal %struct.Memory* @ext_sprintf(%struct.State*, i64, %struct.Memory*) #18 {
  %4 = call %struct.Memory* @__remill_function_call(%struct.State* %0, i64 ptrtoint (i64 (i64, i64, i64, i64, i64, i64, i64, i64, i64, i64, i64, i64, i64, i64, i64, i64)* @sprintf to i64), %struct.Memory* %2)
  ret %struct.Memory* %4
}

define internal %struct.Memory* @ext_strcat(%struct.State*, i64, %struct.Memory*) #18 {
  %4 = call %struct.Memory* @__remill_function_call(%struct.State* %0, i64 ptrtoint (i64 (i64, i64)* @strcat to i64), %struct.Memory* %2)
  ret %struct.Memory* %4
}

define internal %struct.Memory* @ext_puts(%struct.State*, i64, %struct.Memory*) #18 {
  %4 = call %struct.Memory* @__remill_function_call(%struct.State* %0, i64 ptrtoint (i64 (i64)* @puts to i64), %struct.Memory* %2)
  ret %struct.Memory* %4
}

define internal %struct.Memory* @ext_atol(%struct.State*, i64, %struct.Memory*) #18 {
  %4 = call %struct.Memory* @__remill_function_call(%struct.State* %0, i64 ptrtoint (i64 (i64)* @atol to i64), %struct.Memory* %2)
  ret %struct.Memory* %4
}

define internal %struct.Memory* @ext_atof(%struct.State*, i64, %struct.Memory*) #18 {
  %4 = call %struct.Memory* @__remill_function_call(%struct.State* %0, i64 ptrtoint (i64 (i64)* @atof to i64), %struct.Memory* %2)
  ret %struct.Memory* %4
}

define internal %struct.Memory* @ext_clock(%struct.State*, i64, %struct.Memory*) #18 {
  %4 = call %struct.Memory* @__remill_function_call(%struct.State* %0, i64 ptrtoint (i64 ()* @clock to i64), %struct.Memory* %2)
  ret %struct.Memory* %4
}

define internal %struct.Memory* @ext_strlen(%struct.State*, i64, %struct.Memory*) #18 {
  %4 = call %struct.Memory* @__remill_function_call(%struct.State* %0, i64 ptrtoint (i64 (i64)* @strlen to i64), %struct.Memory* %2)
  ret %struct.Memory* %4
}

define internal %struct.Memory* @ext_free(%struct.State*, i64, %struct.Memory*) #18 {
  %4 = call %struct.Memory* @__remill_function_call(%struct.State* %0, i64 ptrtoint (i64 (i64)* @free to i64), %struct.Memory* %2)
  ret %struct.Memory* %4
}

define internal %struct.Memory* @ext_srand(%struct.State*, i64, %struct.Memory*) #18 {
  %4 = call %struct.Memory* @__remill_function_call(%struct.State* %0, i64 ptrtoint (i64 (i64)* @srand to i64), %struct.Memory* %2)
  ret %struct.Memory* %4
}

define internal %struct.Memory* @ext_fputs(%struct.State*, i64, %struct.Memory*) #18 {
  %4 = call %struct.Memory* @__remill_function_call(%struct.State* %0, i64 ptrtoint (i64 (i64, i64)* @fputs to i64), %struct.Memory* %2)
  ret %struct.Memory* %4
}

define internal %struct.Memory* @ext_strtoll(%struct.State*, i64, %struct.Memory*) #18 {
  %4 = call %struct.Memory* @__remill_function_call(%struct.State* %0, i64 ptrtoint (i64 (i64, i64, i64)* @strtoll to i64), %struct.Memory* %2)
  ret %struct.Memory* %4
}

define internal %struct.Memory* @ext_sinf(%struct.State*, i64, %struct.Memory*) #18 {
  %4 = call %struct.Memory* @__remill_function_call(%struct.State* %0, i64 ptrtoint (i64 (i64)* @sinf to i64), %struct.Memory* %2)
  ret %struct.Memory* %4
}

define internal %struct.Memory* @ext_time(%struct.State*, i64, %struct.Memory*) #18 {
  %4 = call %struct.Memory* @__remill_function_call(%struct.State* %0, i64 ptrtoint (i64 (i64)* @time to i64), %struct.Memory* %2)
  ret %struct.Memory* %4
}

define internal %struct.Memory* @ext_printf(%struct.State*, i64, %struct.Memory*) #18 {
  %4 = call %struct.Memory* @__remill_function_call(%struct.State* %0, i64 ptrtoint (i64 (i64, i64, i64, i64, i64, i64, i64, i64, i64, i64, i64, i64, i64, i64, i64, i64)* @printf to i64), %struct.Memory* %2)
  ret %struct.Memory* %4
}

define internal %struct.Memory* @ext_memalign(%struct.State*, i64, %struct.Memory*) #18 {
  %4 = call %struct.Memory* @__remill_function_call(%struct.State* %0, i64 ptrtoint (i64 (i64, i64)* @memalign to i64), %struct.Memory* %2)
  ret %struct.Memory* %4
}

define internal %struct.Memory* @ext_random(%struct.State*, i64, %struct.Memory*) #18 {
  %4 = call %struct.Memory* @__remill_function_call(%struct.State* %0, i64 ptrtoint (i64 ()* @random to i64), %struct.Memory* %2)
  ret %struct.Memory* %4
}

define internal %struct.Memory* @ext_lrand48(%struct.State*, i64, %struct.Memory*) #18 {
  %4 = call %struct.Memory* @__remill_function_call(%struct.State* %0, i64 ptrtoint (i64 ()* @lrand48 to i64), %struct.Memory* %2)
  ret %struct.Memory* %4
}

define internal %struct.Memory* @ext_getchar(%struct.State*, i64, %struct.Memory*) #18 {
  %4 = call %struct.Memory* @__remill_function_call(%struct.State* %0, i64 ptrtoint (i64 ()* @getchar to i64), %struct.Memory* %2)
  ret %struct.Memory* %4
}

declare %struct.Memory* @ext_sqrt(%struct.State* noalias dereferenceable(3376), i64, %struct.Memory* noalias)
declare %struct.Memory* @ext_atan(%struct.State* noalias dereferenceable(3376), i64, %struct.Memory* noalias)
declare %struct.Memory* @ext_cos(%struct.State* noalias dereferenceable(3376), i64, %struct.Memory* noalias) 
declare %struct.Memory* @ext_tan(%struct.State* noalias dereferenceable(3376), i64, %struct.Memory* noalias) 
declare %struct.Memory* @ext_sin(%struct.State* noalias dereferenceable(3376), i64, %struct.Memory* noalias) 


; Data Access Globals
%G_0x603c80_type = type <{ [4 x i8] }>
@G_0x603c80= global %G_0x603c80_type <{ [4 x i8] c"\00\00\00\00" }>
%G_0x604090_type = type <{ [4 x i8] }>
@G_0x604090= global %G_0x604090_type <{ [4 x i8] c"\00\00\00\00" }>
%G_0x6040cc_type = type <{ [4 x i8] }>
@G_0x6040cc= global %G_0x6040cc_type <{ [4 x i8] c"\00\00\00\00" }>


define %struct.Memory* @encode_rs(%struct.State* noalias , i64, %struct.Memory* noalias) alwaysinline  {
entry:
  %3 = getelementptr inbounds %struct.State, %struct.State* %0, i64 0, i32 6, i32 33, i32 0, i32 0
  store i64 %1, i64* %3, align 8
  %BRANCH_TAKEN = alloca i8, align 1
  store i8 0, i8* %BRANCH_TAKEN, align 1
  %MEMORY = alloca %struct.Memory*, align 8
  store %struct.Memory* %2, %struct.Memory** %MEMORY, align 8

  ; Code: .encode_rs:	 RIP: 4019b0	 Bytes: 0
  ; Code: pushq %rbp	 RIP: 4019b0	 Bytes: 1
  %loadMem_4019b0 = load %struct.Memory*, %struct.Memory** %MEMORY
  %call_4019b0 = call %struct.Memory* @routine_pushq__rbp(%struct.State* %0, i64  0, %struct.Memory* %loadMem_4019b0)
  store %struct.Memory* %call_4019b0, %struct.Memory** %MEMORY

  ; Code: movq %rsp, %rbp	 RIP: 4019b1	 Bytes: 3
  %loadMem_4019b1 = load %struct.Memory*, %struct.Memory** %MEMORY
  %call_4019b1 = call %struct.Memory* @routine_movq__rsp___rbp(%struct.State* %0, i64  0, %struct.Memory* %loadMem_4019b1)
  store %struct.Memory* %call_4019b1, %struct.Memory** %MEMORY

  ; Code: movl $0x0, -0x4(%rbp)	 RIP: 4019b4	 Bytes: 7
  %loadMem_4019b4 = load %struct.Memory*, %struct.Memory** %MEMORY
  %call_4019b4 = call %struct.Memory* @routine_movl__0x0__MINUS0x4__rbp_(%struct.State* %0, i64  0, %struct.Memory* %loadMem_4019b4)
  store %struct.Memory* %call_4019b4, %struct.Memory** %MEMORY

  ; Code: .L_4019bb:	 RIP: 4019bb	 Bytes: 0
  br label %block_.L_4019bb
block_.L_4019bb:

  ; Code: cmpl $0x10, -0x4(%rbp)	 RIP: 4019bb	 Bytes: 4
  %loadMem_4019bb = load %struct.Memory*, %struct.Memory** %MEMORY
  %call_4019bb = call %struct.Memory* @routine_cmpl__0x10__MINUS0x4__rbp_(%struct.State* %0, i64  0, %struct.Memory* %loadMem_4019bb)
  store %struct.Memory* %call_4019bb, %struct.Memory** %MEMORY

  ; Code: jge .L_4019e2	 RIP: 4019bf	 Bytes: 6
  %loadMem_4019bf = load %struct.Memory*, %struct.Memory** %MEMORY
  %call_4019bf = call %struct.Memory* @routine_jge_.L_4019e2(%struct.State* %0, i64  0, %struct.Memory* %loadMem_4019bf, i8* %BRANCH_TAKEN, i64 35, i64 6, i64 6)
  store %struct.Memory* %call_4019bf, %struct.Memory** %MEMORY

  %loadBr_4019bf = load i8, i8* %BRANCH_TAKEN
  %cmpBr_4019bf = icmp eq i8 %loadBr_4019bf, 1
  br i1 %cmpBr_4019bf, label %block_.L_4019e2, label %block_4019c5

block_4019c5:
  ; Code: movslq -0x4(%rbp), %rax	 RIP: 4019c5	 Bytes: 4
  %loadMem_4019c5 = load %struct.Memory*, %struct.Memory** %MEMORY
  %call_4019c5 = call %struct.Memory* @routine_movslq_MINUS0x4__rbp____rax(%struct.State* %0, i64  0, %struct.Memory* %loadMem_4019c5)
  store %struct.Memory* %call_4019c5, %struct.Memory** %MEMORY

  ; Code: movl $0x0, 0x604090(,%rax,4)	 RIP: 4019c9	 Bytes: 11
  %loadMem_4019c9 = load %struct.Memory*, %struct.Memory** %MEMORY
  %call_4019c9 = call %struct.Memory* @routine_movl__0x0__0x604090___rax_4_(%struct.State* %0, i64  0, %struct.Memory* %loadMem_4019c9)
  store %struct.Memory* %call_4019c9, %struct.Memory** %MEMORY

  ; Code: movl -0x4(%rbp), %eax	 RIP: 4019d4	 Bytes: 3
  %loadMem_4019d4 = load %struct.Memory*, %struct.Memory** %MEMORY
  %call_4019d4 = call %struct.Memory* @routine_movl_MINUS0x4__rbp____eax(%struct.State* %0, i64  0, %struct.Memory* %loadMem_4019d4)
  store %struct.Memory* %call_4019d4, %struct.Memory** %MEMORY

  ; Code: addl $0x1, %eax	 RIP: 4019d7	 Bytes: 3
  %loadMem_4019d7 = load %struct.Memory*, %struct.Memory** %MEMORY
  %call_4019d7 = call %struct.Memory* @routine_addl__0x1___eax(%struct.State* %0, i64  0, %struct.Memory* %loadMem_4019d7)
  store %struct.Memory* %call_4019d7, %struct.Memory** %MEMORY

  ; Code: movl %eax, -0x4(%rbp)	 RIP: 4019da	 Bytes: 3
  %loadMem_4019da = load %struct.Memory*, %struct.Memory** %MEMORY
  %call_4019da = call %struct.Memory* @routine_movl__eax__MINUS0x4__rbp_(%struct.State* %0, i64  0, %struct.Memory* %loadMem_4019da)
  store %struct.Memory* %call_4019da, %struct.Memory** %MEMORY

  ; Code: jmpq .L_4019bb	 RIP: 4019dd	 Bytes: 5
  %loadMem_4019dd = load %struct.Memory*, %struct.Memory** %MEMORY
  %call_4019dd = call %struct.Memory* @routine_jmpq_.L_4019bb(%struct.State* %0, i64  0, %struct.Memory* %loadMem_4019dd, i64 -34, i64 5)
  store %struct.Memory* %call_4019dd, %struct.Memory** %MEMORY

  br label %block_.L_4019bb

  ; Code: .L_4019e2:	 RIP: 4019e2	 Bytes: 0
block_.L_4019e2:

  ; Code: movl $0xee, -0x4(%rbp)	 RIP: 4019e2	 Bytes: 7
  %loadMem_4019e2 = load %struct.Memory*, %struct.Memory** %MEMORY
  %call_4019e2 = call %struct.Memory* @routine_movl__0xee__MINUS0x4__rbp_(%struct.State* %0, i64  0, %struct.Memory* %loadMem_4019e2)
  store %struct.Memory* %call_4019e2, %struct.Memory** %MEMORY

  ; Code: .L_4019e9:	 RIP: 4019e9	 Bytes: 0
  br label %block_.L_4019e9
block_.L_4019e9:

  ; Code: cmpl $0x0, -0x4(%rbp)	 RIP: 4019e9	 Bytes: 4
  %loadMem_4019e9 = load %struct.Memory*, %struct.Memory** %MEMORY
  %call_4019e9 = call %struct.Memory* @routine_cmpl__0x0__MINUS0x4__rbp_(%struct.State* %0, i64  0, %struct.Memory* %loadMem_4019e9)
  store %struct.Memory* %call_4019e9, %struct.Memory** %MEMORY

  ; Code: jl .L_401b3d	 RIP: 4019ed	 Bytes: 6
  %loadMem_4019ed = load %struct.Memory*, %struct.Memory** %MEMORY
  %call_4019ed = call %struct.Memory* @routine_jl_.L_401b3d(%struct.State* %0, i64  0, %struct.Memory* %loadMem_4019ed, i8* %BRANCH_TAKEN, i64 336, i64 6, i64 6)
  store %struct.Memory* %call_4019ed, %struct.Memory** %MEMORY

  %loadBr_4019ed = load i8, i8* %BRANCH_TAKEN
  %cmpBr_4019ed = icmp eq i8 %loadBr_4019ed, 1
  br i1 %cmpBr_4019ed, label %block_.L_401b3d, label %block_4019f3

block_4019f3:
  ; Code: movslq -0x4(%rbp), %rax	 RIP: 4019f3	 Bytes: 4
  %loadMem_4019f3 = load %struct.Memory*, %struct.Memory** %MEMORY
  %call_4019f3 = call %struct.Memory* @routine_movslq_MINUS0x4__rbp____rax(%struct.State* %0, i64  0, %struct.Memory* %loadMem_4019f3)
  store %struct.Memory* %call_4019f3, %struct.Memory** %MEMORY

  ; Code: movl 0x603cd0(,%rax,4), %ecx	 RIP: 4019f7	 Bytes: 7
  %loadMem_4019f7 = load %struct.Memory*, %struct.Memory** %MEMORY
  %call_4019f7 = call %struct.Memory* @routine_movl_0x603cd0___rax_4____ecx(%struct.State* %0, i64  0, %struct.Memory* %loadMem_4019f7)
  store %struct.Memory* %call_4019f7, %struct.Memory** %MEMORY

  ; Code: xorl 0x6040cc, %ecx	 RIP: 4019fe	 Bytes: 7
  %loadMem_4019fe = load %struct.Memory*, %struct.Memory** %MEMORY
  %call_4019fe = call %struct.Memory* @routine_xorl_0x6040cc___ecx(%struct.State* %0, i64  0, %struct.Memory* %loadMem_4019fe)
  store %struct.Memory* %call_4019fe, %struct.Memory** %MEMORY

  ; Code: movslq %ecx, %rax	 RIP: 401a05	 Bytes: 3
  %loadMem_401a05 = load %struct.Memory*, %struct.Memory** %MEMORY
  %call_401a05 = call %struct.Memory* @routine_movslq__ecx___rax(%struct.State* %0, i64  0, %struct.Memory* %loadMem_401a05)
  store %struct.Memory* %call_401a05, %struct.Memory** %MEMORY

  ; Code: movl 0x603480(,%rax,4), %ecx	 RIP: 401a08	 Bytes: 7
  %loadMem_401a08 = load %struct.Memory*, %struct.Memory** %MEMORY
  %call_401a08 = call %struct.Memory* @routine_movl_0x603480___rax_4____ecx(%struct.State* %0, i64  0, %struct.Memory* %loadMem_401a08)
  store %struct.Memory* %call_401a08, %struct.Memory** %MEMORY

  ; Code: movl %ecx, -0xc(%rbp)	 RIP: 401a0f	 Bytes: 3
  %loadMem_401a0f = load %struct.Memory*, %struct.Memory** %MEMORY
  %call_401a0f = call %struct.Memory* @routine_movl__ecx__MINUS0xc__rbp_(%struct.State* %0, i64  0, %struct.Memory* %loadMem_401a0f)
  store %struct.Memory* %call_401a0f, %struct.Memory** %MEMORY

  ; Code: cmpl $0xffffffff, -0xc(%rbp)	 RIP: 401a12	 Bytes: 4
  %loadMem_401a12 = load %struct.Memory*, %struct.Memory** %MEMORY
  %call_401a12 = call %struct.Memory* @routine_cmpl__0xffffffff__MINUS0xc__rbp_(%struct.State* %0, i64  0, %struct.Memory* %loadMem_401a12)
  store %struct.Memory* %call_401a12, %struct.Memory** %MEMORY

  ; Code: je .L_401ae5	 RIP: 401a16	 Bytes: 6
  %loadMem_401a16 = load %struct.Memory*, %struct.Memory** %MEMORY
  %call_401a16 = call %struct.Memory* @routine_je_.L_401ae5(%struct.State* %0, i64  0, %struct.Memory* %loadMem_401a16, i8* %BRANCH_TAKEN, i64 207, i64 6, i64 6)
  store %struct.Memory* %call_401a16, %struct.Memory** %MEMORY

  %loadBr_401a16 = load i8, i8* %BRANCH_TAKEN
  %cmpBr_401a16 = icmp eq i8 %loadBr_401a16, 1
  br i1 %cmpBr_401a16, label %block_.L_401ae5, label %block_401a1c

block_401a1c:
  ; Code: movl $0xf, -0x8(%rbp)	 RIP: 401a1c	 Bytes: 7
  %loadMem_401a1c = load %struct.Memory*, %struct.Memory** %MEMORY
  %call_401a1c = call %struct.Memory* @routine_movl__0xf__MINUS0x8__rbp_(%struct.State* %0, i64  0, %struct.Memory* %loadMem_401a1c)
  store %struct.Memory* %call_401a1c, %struct.Memory** %MEMORY

  ; Code: .L_401a23:	 RIP: 401a23	 Bytes: 0
  br label %block_.L_401a23
block_.L_401a23:

  ; Code: cmpl $0x0, -0x8(%rbp)	 RIP: 401a23	 Bytes: 4
  %loadMem_401a23 = load %struct.Memory*, %struct.Memory** %MEMORY
  %call_401a23 = call %struct.Memory* @routine_cmpl__0x0__MINUS0x8__rbp_(%struct.State* %0, i64  0, %struct.Memory* %loadMem_401a23)
  store %struct.Memory* %call_401a23, %struct.Memory** %MEMORY

  ; Code: jle .L_401ab5	 RIP: 401a27	 Bytes: 6
  %loadMem_401a27 = load %struct.Memory*, %struct.Memory** %MEMORY
  %call_401a27 = call %struct.Memory* @routine_jle_.L_401ab5(%struct.State* %0, i64  0, %struct.Memory* %loadMem_401a27, i8* %BRANCH_TAKEN, i64 142, i64 6, i64 6)
  store %struct.Memory* %call_401a27, %struct.Memory** %MEMORY

  %loadBr_401a27 = load i8, i8* %BRANCH_TAKEN
  %cmpBr_401a27 = icmp eq i8 %loadBr_401a27, 1
  br i1 %cmpBr_401a27, label %block_.L_401ab5, label %block_401a2d

block_401a2d:
  ; Code: movslq -0x8(%rbp), %rax	 RIP: 401a2d	 Bytes: 4
  %loadMem_401a2d = load %struct.Memory*, %struct.Memory** %MEMORY
  %call_401a2d = call %struct.Memory* @routine_movslq_MINUS0x8__rbp____rax(%struct.State* %0, i64  0, %struct.Memory* %loadMem_401a2d)
  store %struct.Memory* %call_401a2d, %struct.Memory** %MEMORY

  ; Code: cmpl $0xffffffff, 0x603c80(,%rax,4)	 RIP: 401a31	 Bytes: 8
  %loadMem_401a31 = load %struct.Memory*, %struct.Memory** %MEMORY
  %call_401a31 = call %struct.Memory* @routine_cmpl__0xffffffff__0x603c80___rax_4_(%struct.State* %0, i64  0, %struct.Memory* %loadMem_401a31)
  store %struct.Memory* %call_401a31, %struct.Memory** %MEMORY

  ; Code: je .L_401a87	 RIP: 401a39	 Bytes: 6
  %loadMem_401a39 = load %struct.Memory*, %struct.Memory** %MEMORY
  %call_401a39 = call %struct.Memory* @routine_je_.L_401a87(%struct.State* %0, i64  0, %struct.Memory* %loadMem_401a39, i8* %BRANCH_TAKEN, i64 78, i64 6, i64 6)
  store %struct.Memory* %call_401a39, %struct.Memory** %MEMORY

  %loadBr_401a39 = load i8, i8* %BRANCH_TAKEN
  %cmpBr_401a39 = icmp eq i8 %loadBr_401a39, 1
  br i1 %cmpBr_401a39, label %block_.L_401a87, label %block_401a3f

block_401a3f:
  ; Code: movl $0xff, %eax	 RIP: 401a3f	 Bytes: 5
  %loadMem_401a3f = load %struct.Memory*, %struct.Memory** %MEMORY
  %call_401a3f = call %struct.Memory* @routine_movl__0xff___eax(%struct.State* %0, i64  0, %struct.Memory* %loadMem_401a3f)
  store %struct.Memory* %call_401a3f, %struct.Memory** %MEMORY

  ; Code: movl -0x8(%rbp), %ecx	 RIP: 401a44	 Bytes: 3
  %loadMem_401a44 = load %struct.Memory*, %struct.Memory** %MEMORY
  %call_401a44 = call %struct.Memory* @routine_movl_MINUS0x8__rbp____ecx(%struct.State* %0, i64  0, %struct.Memory* %loadMem_401a44)
  store %struct.Memory* %call_401a44, %struct.Memory** %MEMORY

  ; Code: subl $0x1, %ecx	 RIP: 401a47	 Bytes: 3
  %loadMem_401a47 = load %struct.Memory*, %struct.Memory** %MEMORY
  %call_401a47 = call %struct.Memory* @routine_subl__0x1___ecx(%struct.State* %0, i64  0, %struct.Memory* %loadMem_401a47)
  store %struct.Memory* %call_401a47, %struct.Memory** %MEMORY

  ; Code: movslq %ecx, %rdx	 RIP: 401a4a	 Bytes: 3
  %loadMem_401a4a = load %struct.Memory*, %struct.Memory** %MEMORY
  %call_401a4a = call %struct.Memory* @routine_movslq__ecx___rdx(%struct.State* %0, i64  0, %struct.Memory* %loadMem_401a4a)
  store %struct.Memory* %call_401a4a, %struct.Memory** %MEMORY

  ; Code: movl 0x604090(,%rdx,4), %ecx	 RIP: 401a4d	 Bytes: 7
  %loadMem_401a4d = load %struct.Memory*, %struct.Memory** %MEMORY
  %call_401a4d = call %struct.Memory* @routine_movl_0x604090___rdx_4____ecx(%struct.State* %0, i64  0, %struct.Memory* %loadMem_401a4d)
  store %struct.Memory* %call_401a4d, %struct.Memory** %MEMORY

  ; Code: movslq -0x8(%rbp), %rdx	 RIP: 401a54	 Bytes: 4
  %loadMem_401a54 = load %struct.Memory*, %struct.Memory** %MEMORY
  %call_401a54 = call %struct.Memory* @routine_movslq_MINUS0x8__rbp____rdx(%struct.State* %0, i64  0, %struct.Memory* %loadMem_401a54)
  store %struct.Memory* %call_401a54, %struct.Memory** %MEMORY

  ; Code: movl 0x603c80(,%rdx,4), %esi	 RIP: 401a58	 Bytes: 7
  %loadMem_401a58 = load %struct.Memory*, %struct.Memory** %MEMORY
  %call_401a58 = call %struct.Memory* @routine_movl_0x603c80___rdx_4____esi(%struct.State* %0, i64  0, %struct.Memory* %loadMem_401a58)
  store %struct.Memory* %call_401a58, %struct.Memory** %MEMORY

  ; Code: addl -0xc(%rbp), %esi	 RIP: 401a5f	 Bytes: 3
  %loadMem_401a5f = load %struct.Memory*, %struct.Memory** %MEMORY
  %call_401a5f = call %struct.Memory* @routine_addl_MINUS0xc__rbp____esi(%struct.State* %0, i64  0, %struct.Memory* %loadMem_401a5f)
  store %struct.Memory* %call_401a5f, %struct.Memory** %MEMORY

  ; Code: movl %eax, -0x10(%rbp)	 RIP: 401a62	 Bytes: 3
  %loadMem_401a62 = load %struct.Memory*, %struct.Memory** %MEMORY
  %call_401a62 = call %struct.Memory* @routine_movl__eax__MINUS0x10__rbp_(%struct.State* %0, i64  0, %struct.Memory* %loadMem_401a62)
  store %struct.Memory* %call_401a62, %struct.Memory** %MEMORY

  ; Code: movl %esi, %eax	 RIP: 401a65	 Bytes: 2
  %loadMem_401a65 = load %struct.Memory*, %struct.Memory** %MEMORY
  %call_401a65 = call %struct.Memory* @routine_movl__esi___eax(%struct.State* %0, i64  0, %struct.Memory* %loadMem_401a65)
  store %struct.Memory* %call_401a65, %struct.Memory** %MEMORY

  ; Code: cltd	 RIP: 401a67	 Bytes: 1
  %loadMem_401a67 = load %struct.Memory*, %struct.Memory** %MEMORY
  %call_401a67 = call %struct.Memory* @routine_cltd(%struct.State* %0, i64  0, %struct.Memory* %loadMem_401a67)
  store %struct.Memory* %call_401a67, %struct.Memory** %MEMORY

  ; Code: movl -0x10(%rbp), %esi	 RIP: 401a68	 Bytes: 3
  %loadMem_401a68 = load %struct.Memory*, %struct.Memory** %MEMORY
  %call_401a68 = call %struct.Memory* @routine_movl_MINUS0x10__rbp____esi(%struct.State* %0, i64  0, %struct.Memory* %loadMem_401a68)
  store %struct.Memory* %call_401a68, %struct.Memory** %MEMORY

  ; Code: idivl %esi	 RIP: 401a6b	 Bytes: 2
  %loadMem_401a6b = load %struct.Memory*, %struct.Memory** %MEMORY
  %call_401a6b = call %struct.Memory* @routine_idivl__esi(%struct.State* %0, i64  0, %struct.Memory* %loadMem_401a6b)
  store %struct.Memory* %call_401a6b, %struct.Memory** %MEMORY

  ; Code: movslq %edx, %rdi	 RIP: 401a6d	 Bytes: 3
  %loadMem_401a6d = load %struct.Memory*, %struct.Memory** %MEMORY
  %call_401a6d = call %struct.Memory* @routine_movslq__edx___rdi(%struct.State* %0, i64  0, %struct.Memory* %loadMem_401a6d)
  store %struct.Memory* %call_401a6d, %struct.Memory** %MEMORY

  ; Code: xorl 0x603880(,%rdi,4), %ecx	 RIP: 401a70	 Bytes: 7
  %loadMem_401a70 = load %struct.Memory*, %struct.Memory** %MEMORY
  %call_401a70 = call %struct.Memory* @routine_xorl_0x603880___rdi_4____ecx(%struct.State* %0, i64  0, %struct.Memory* %loadMem_401a70)
  store %struct.Memory* %call_401a70, %struct.Memory** %MEMORY

  ; Code: movslq -0x8(%rbp), %rdi	 RIP: 401a77	 Bytes: 4
  %loadMem_401a77 = load %struct.Memory*, %struct.Memory** %MEMORY
  %call_401a77 = call %struct.Memory* @routine_movslq_MINUS0x8__rbp____rdi(%struct.State* %0, i64  0, %struct.Memory* %loadMem_401a77)
  store %struct.Memory* %call_401a77, %struct.Memory** %MEMORY

  ; Code: movl %ecx, 0x604090(,%rdi,4)	 RIP: 401a7b	 Bytes: 7
  %loadMem_401a7b = load %struct.Memory*, %struct.Memory** %MEMORY
  %call_401a7b = call %struct.Memory* @routine_movl__ecx__0x604090___rdi_4_(%struct.State* %0, i64  0, %struct.Memory* %loadMem_401a7b)
  store %struct.Memory* %call_401a7b, %struct.Memory** %MEMORY

  ; Code: jmpq .L_401aa2	 RIP: 401a82	 Bytes: 5
  %loadMem_401a82 = load %struct.Memory*, %struct.Memory** %MEMORY
  %call_401a82 = call %struct.Memory* @routine_jmpq_.L_401aa2(%struct.State* %0, i64  0, %struct.Memory* %loadMem_401a82, i64 32, i64 5)
  store %struct.Memory* %call_401a82, %struct.Memory** %MEMORY

  br label %block_.L_401aa2

  ; Code: .L_401a87:	 RIP: 401a87	 Bytes: 0
block_.L_401a87:

  ; Code: movl -0x8(%rbp), %eax	 RIP: 401a87	 Bytes: 3
  %loadMem_401a87 = load %struct.Memory*, %struct.Memory** %MEMORY
  %call_401a87 = call %struct.Memory* @routine_movl_MINUS0x8__rbp____eax(%struct.State* %0, i64  0, %struct.Memory* %loadMem_401a87)
  store %struct.Memory* %call_401a87, %struct.Memory** %MEMORY

  ; Code: subl $0x1, %eax	 RIP: 401a8a	 Bytes: 3
  %loadMem_401a8a = load %struct.Memory*, %struct.Memory** %MEMORY
  %call_401a8a = call %struct.Memory* @routine_subl__0x1___eax(%struct.State* %0, i64  0, %struct.Memory* %loadMem_401a8a)
  store %struct.Memory* %call_401a8a, %struct.Memory** %MEMORY

  ; Code: movslq %eax, %rcx	 RIP: 401a8d	 Bytes: 3
  %loadMem_401a8d = load %struct.Memory*, %struct.Memory** %MEMORY
  %call_401a8d = call %struct.Memory* @routine_movslq__eax___rcx(%struct.State* %0, i64  0, %struct.Memory* %loadMem_401a8d)
  store %struct.Memory* %call_401a8d, %struct.Memory** %MEMORY

  ; Code: movl 0x604090(,%rcx,4), %eax	 RIP: 401a90	 Bytes: 7
  %loadMem_401a90 = load %struct.Memory*, %struct.Memory** %MEMORY
  %call_401a90 = call %struct.Memory* @routine_movl_0x604090___rcx_4____eax(%struct.State* %0, i64  0, %struct.Memory* %loadMem_401a90)
  store %struct.Memory* %call_401a90, %struct.Memory** %MEMORY

  ; Code: movslq -0x8(%rbp), %rcx	 RIP: 401a97	 Bytes: 4
  %loadMem_401a97 = load %struct.Memory*, %struct.Memory** %MEMORY
  %call_401a97 = call %struct.Memory* @routine_movslq_MINUS0x8__rbp____rcx(%struct.State* %0, i64  0, %struct.Memory* %loadMem_401a97)
  store %struct.Memory* %call_401a97, %struct.Memory** %MEMORY

  ; Code: movl %eax, 0x604090(,%rcx,4)	 RIP: 401a9b	 Bytes: 7
  %loadMem_401a9b = load %struct.Memory*, %struct.Memory** %MEMORY
  %call_401a9b = call %struct.Memory* @routine_movl__eax__0x604090___rcx_4_(%struct.State* %0, i64  0, %struct.Memory* %loadMem_401a9b)
  store %struct.Memory* %call_401a9b, %struct.Memory** %MEMORY

  ; Code: .L_401aa2:	 RIP: 401aa2	 Bytes: 0
  br label %block_.L_401aa2
block_.L_401aa2:

  ; Code: jmpq .L_401aa7	 RIP: 401aa2	 Bytes: 5
  %loadMem_401aa2 = load %struct.Memory*, %struct.Memory** %MEMORY
  %call_401aa2 = call %struct.Memory* @routine_jmpq_.L_401aa7(%struct.State* %0, i64  0, %struct.Memory* %loadMem_401aa2, i64 5, i64 5)
  store %struct.Memory* %call_401aa2, %struct.Memory** %MEMORY

  br label %block_.L_401aa7

  ; Code: .L_401aa7:	 RIP: 401aa7	 Bytes: 0
block_.L_401aa7:

  ; Code: movl -0x8(%rbp), %eax	 RIP: 401aa7	 Bytes: 3
  %loadMem_401aa7 = load %struct.Memory*, %struct.Memory** %MEMORY
  %call_401aa7 = call %struct.Memory* @routine_movl_MINUS0x8__rbp____eax(%struct.State* %0, i64  0, %struct.Memory* %loadMem_401aa7)
  store %struct.Memory* %call_401aa7, %struct.Memory** %MEMORY

  ; Code: addl $0xffffffff, %eax	 RIP: 401aaa	 Bytes: 3
  %loadMem_401aaa = load %struct.Memory*, %struct.Memory** %MEMORY
  %call_401aaa = call %struct.Memory* @routine_addl__0xffffffff___eax(%struct.State* %0, i64  0, %struct.Memory* %loadMem_401aaa)
  store %struct.Memory* %call_401aaa, %struct.Memory** %MEMORY

  ; Code: movl %eax, -0x8(%rbp)	 RIP: 401aad	 Bytes: 3
  %loadMem_401aad = load %struct.Memory*, %struct.Memory** %MEMORY
  %call_401aad = call %struct.Memory* @routine_movl__eax__MINUS0x8__rbp_(%struct.State* %0, i64  0, %struct.Memory* %loadMem_401aad)
  store %struct.Memory* %call_401aad, %struct.Memory** %MEMORY

  ; Code: jmpq .L_401a23	 RIP: 401ab0	 Bytes: 5
  %loadMem_401ab0 = load %struct.Memory*, %struct.Memory** %MEMORY
  %call_401ab0 = call %struct.Memory* @routine_jmpq_.L_401a23(%struct.State* %0, i64  0, %struct.Memory* %loadMem_401ab0, i64 -141, i64 5)
  store %struct.Memory* %call_401ab0, %struct.Memory** %MEMORY

  br label %block_.L_401a23

  ; Code: .L_401ab5:	 RIP: 401ab5	 Bytes: 0
block_.L_401ab5:

  ; Code: movl $0xff, %eax	 RIP: 401ab5	 Bytes: 5
  %loadMem_401ab5 = load %struct.Memory*, %struct.Memory** %MEMORY
  %call_401ab5 = call %struct.Memory* @routine_movl__0xff___eax(%struct.State* %0, i64  0, %struct.Memory* %loadMem_401ab5)
  store %struct.Memory* %call_401ab5, %struct.Memory** %MEMORY

  ; Code: movl 0x603c80, %ecx	 RIP: 401aba	 Bytes: 7
  %loadMem_401aba = load %struct.Memory*, %struct.Memory** %MEMORY
  %call_401aba = call %struct.Memory* @routine_movl_0x603c80___ecx(%struct.State* %0, i64  0, %struct.Memory* %loadMem_401aba)
  store %struct.Memory* %call_401aba, %struct.Memory** %MEMORY

  ; Code: addl -0xc(%rbp), %ecx	 RIP: 401ac1	 Bytes: 3
  %loadMem_401ac1 = load %struct.Memory*, %struct.Memory** %MEMORY
  %call_401ac1 = call %struct.Memory* @routine_addl_MINUS0xc__rbp____ecx(%struct.State* %0, i64  0, %struct.Memory* %loadMem_401ac1)
  store %struct.Memory* %call_401ac1, %struct.Memory** %MEMORY

  ; Code: movl %eax, -0x14(%rbp)	 RIP: 401ac4	 Bytes: 3
  %loadMem_401ac4 = load %struct.Memory*, %struct.Memory** %MEMORY
  %call_401ac4 = call %struct.Memory* @routine_movl__eax__MINUS0x14__rbp_(%struct.State* %0, i64  0, %struct.Memory* %loadMem_401ac4)
  store %struct.Memory* %call_401ac4, %struct.Memory** %MEMORY

  ; Code: movl %ecx, %eax	 RIP: 401ac7	 Bytes: 2
  %loadMem_401ac7 = load %struct.Memory*, %struct.Memory** %MEMORY
  %call_401ac7 = call %struct.Memory* @routine_movl__ecx___eax(%struct.State* %0, i64  0, %struct.Memory* %loadMem_401ac7)
  store %struct.Memory* %call_401ac7, %struct.Memory** %MEMORY

  ; Code: cltd	 RIP: 401ac9	 Bytes: 1
  %loadMem_401ac9 = load %struct.Memory*, %struct.Memory** %MEMORY
  %call_401ac9 = call %struct.Memory* @routine_cltd(%struct.State* %0, i64  0, %struct.Memory* %loadMem_401ac9)
  store %struct.Memory* %call_401ac9, %struct.Memory** %MEMORY

  ; Code: movl -0x14(%rbp), %ecx	 RIP: 401aca	 Bytes: 3
  %loadMem_401aca = load %struct.Memory*, %struct.Memory** %MEMORY
  %call_401aca = call %struct.Memory* @routine_movl_MINUS0x14__rbp____ecx(%struct.State* %0, i64  0, %struct.Memory* %loadMem_401aca)
  store %struct.Memory* %call_401aca, %struct.Memory** %MEMORY

  ; Code: idivl %ecx	 RIP: 401acd	 Bytes: 2
  %loadMem_401acd = load %struct.Memory*, %struct.Memory** %MEMORY
  %call_401acd = call %struct.Memory* @routine_idivl__ecx(%struct.State* %0, i64  0, %struct.Memory* %loadMem_401acd)
  store %struct.Memory* %call_401acd, %struct.Memory** %MEMORY

  ; Code: movslq %edx, %rsi	 RIP: 401acf	 Bytes: 3
  %loadMem_401acf = load %struct.Memory*, %struct.Memory** %MEMORY
  %call_401acf = call %struct.Memory* @routine_movslq__edx___rsi(%struct.State* %0, i64  0, %struct.Memory* %loadMem_401acf)
  store %struct.Memory* %call_401acf, %struct.Memory** %MEMORY

  ; Code: movl 0x603880(,%rsi,4), %edx	 RIP: 401ad2	 Bytes: 7
  %loadMem_401ad2 = load %struct.Memory*, %struct.Memory** %MEMORY
  %call_401ad2 = call %struct.Memory* @routine_movl_0x603880___rsi_4____edx(%struct.State* %0, i64  0, %struct.Memory* %loadMem_401ad2)
  store %struct.Memory* %call_401ad2, %struct.Memory** %MEMORY

  ; Code: movl %edx, 0x604090	 RIP: 401ad9	 Bytes: 7
  %loadMem_401ad9 = load %struct.Memory*, %struct.Memory** %MEMORY
  %call_401ad9 = call %struct.Memory* @routine_movl__edx__0x604090(%struct.State* %0, i64  0, %struct.Memory* %loadMem_401ad9)
  store %struct.Memory* %call_401ad9, %struct.Memory** %MEMORY

  ; Code: jmpq .L_401b2a	 RIP: 401ae0	 Bytes: 5
  %loadMem_401ae0 = load %struct.Memory*, %struct.Memory** %MEMORY
  %call_401ae0 = call %struct.Memory* @routine_jmpq_.L_401b2a(%struct.State* %0, i64  0, %struct.Memory* %loadMem_401ae0, i64 74, i64 5)
  store %struct.Memory* %call_401ae0, %struct.Memory** %MEMORY

  br label %block_.L_401b2a

  ; Code: .L_401ae5:	 RIP: 401ae5	 Bytes: 0
block_.L_401ae5:

  ; Code: movl $0xf, -0x8(%rbp)	 RIP: 401ae5	 Bytes: 7
  %loadMem_401ae5 = load %struct.Memory*, %struct.Memory** %MEMORY
  %call_401ae5 = call %struct.Memory* @routine_movl__0xf__MINUS0x8__rbp_(%struct.State* %0, i64  0, %struct.Memory* %loadMem_401ae5)
  store %struct.Memory* %call_401ae5, %struct.Memory** %MEMORY

  ; Code: .L_401aec:	 RIP: 401aec	 Bytes: 0
  br label %block_.L_401aec
block_.L_401aec:

  ; Code: cmpl $0x0, -0x8(%rbp)	 RIP: 401aec	 Bytes: 4
  %loadMem_401aec = load %struct.Memory*, %struct.Memory** %MEMORY
  %call_401aec = call %struct.Memory* @routine_cmpl__0x0__MINUS0x8__rbp_(%struct.State* %0, i64  0, %struct.Memory* %loadMem_401aec)
  store %struct.Memory* %call_401aec, %struct.Memory** %MEMORY

  ; Code: jle .L_401b1f	 RIP: 401af0	 Bytes: 6
  %loadMem_401af0 = load %struct.Memory*, %struct.Memory** %MEMORY
  %call_401af0 = call %struct.Memory* @routine_jle_.L_401b1f(%struct.State* %0, i64  0, %struct.Memory* %loadMem_401af0, i8* %BRANCH_TAKEN, i64 47, i64 6, i64 6)
  store %struct.Memory* %call_401af0, %struct.Memory** %MEMORY

  %loadBr_401af0 = load i8, i8* %BRANCH_TAKEN
  %cmpBr_401af0 = icmp eq i8 %loadBr_401af0, 1
  br i1 %cmpBr_401af0, label %block_.L_401b1f, label %block_401af6

block_401af6:
  ; Code: movl -0x8(%rbp), %eax	 RIP: 401af6	 Bytes: 3
  %loadMem_401af6 = load %struct.Memory*, %struct.Memory** %MEMORY
  %call_401af6 = call %struct.Memory* @routine_movl_MINUS0x8__rbp____eax(%struct.State* %0, i64  0, %struct.Memory* %loadMem_401af6)
  store %struct.Memory* %call_401af6, %struct.Memory** %MEMORY

  ; Code: subl $0x1, %eax	 RIP: 401af9	 Bytes: 3
  %loadMem_401af9 = load %struct.Memory*, %struct.Memory** %MEMORY
  %call_401af9 = call %struct.Memory* @routine_subl__0x1___eax(%struct.State* %0, i64  0, %struct.Memory* %loadMem_401af9)
  store %struct.Memory* %call_401af9, %struct.Memory** %MEMORY

  ; Code: movslq %eax, %rcx	 RIP: 401afc	 Bytes: 3
  %loadMem_401afc = load %struct.Memory*, %struct.Memory** %MEMORY
  %call_401afc = call %struct.Memory* @routine_movslq__eax___rcx(%struct.State* %0, i64  0, %struct.Memory* %loadMem_401afc)
  store %struct.Memory* %call_401afc, %struct.Memory** %MEMORY

  ; Code: movl 0x604090(,%rcx,4), %eax	 RIP: 401aff	 Bytes: 7
  %loadMem_401aff = load %struct.Memory*, %struct.Memory** %MEMORY
  %call_401aff = call %struct.Memory* @routine_movl_0x604090___rcx_4____eax(%struct.State* %0, i64  0, %struct.Memory* %loadMem_401aff)
  store %struct.Memory* %call_401aff, %struct.Memory** %MEMORY

  ; Code: movslq -0x8(%rbp), %rcx	 RIP: 401b06	 Bytes: 4
  %loadMem_401b06 = load %struct.Memory*, %struct.Memory** %MEMORY
  %call_401b06 = call %struct.Memory* @routine_movslq_MINUS0x8__rbp____rcx(%struct.State* %0, i64  0, %struct.Memory* %loadMem_401b06)
  store %struct.Memory* %call_401b06, %struct.Memory** %MEMORY

  ; Code: movl %eax, 0x604090(,%rcx,4)	 RIP: 401b0a	 Bytes: 7
  %loadMem_401b0a = load %struct.Memory*, %struct.Memory** %MEMORY
  %call_401b0a = call %struct.Memory* @routine_movl__eax__0x604090___rcx_4_(%struct.State* %0, i64  0, %struct.Memory* %loadMem_401b0a)
  store %struct.Memory* %call_401b0a, %struct.Memory** %MEMORY

  ; Code: movl -0x8(%rbp), %eax	 RIP: 401b11	 Bytes: 3
  %loadMem_401b11 = load %struct.Memory*, %struct.Memory** %MEMORY
  %call_401b11 = call %struct.Memory* @routine_movl_MINUS0x8__rbp____eax(%struct.State* %0, i64  0, %struct.Memory* %loadMem_401b11)
  store %struct.Memory* %call_401b11, %struct.Memory** %MEMORY

  ; Code: addl $0xffffffff, %eax	 RIP: 401b14	 Bytes: 3
  %loadMem_401b14 = load %struct.Memory*, %struct.Memory** %MEMORY
  %call_401b14 = call %struct.Memory* @routine_addl__0xffffffff___eax(%struct.State* %0, i64  0, %struct.Memory* %loadMem_401b14)
  store %struct.Memory* %call_401b14, %struct.Memory** %MEMORY

  ; Code: movl %eax, -0x8(%rbp)	 RIP: 401b17	 Bytes: 3
  %loadMem_401b17 = load %struct.Memory*, %struct.Memory** %MEMORY
  %call_401b17 = call %struct.Memory* @routine_movl__eax__MINUS0x8__rbp_(%struct.State* %0, i64  0, %struct.Memory* %loadMem_401b17)
  store %struct.Memory* %call_401b17, %struct.Memory** %MEMORY

  ; Code: jmpq .L_401aec	 RIP: 401b1a	 Bytes: 5
  %loadMem_401b1a = load %struct.Memory*, %struct.Memory** %MEMORY
  %call_401b1a = call %struct.Memory* @routine_jmpq_.L_401aec(%struct.State* %0, i64  0, %struct.Memory* %loadMem_401b1a, i64 -46, i64 5)
  store %struct.Memory* %call_401b1a, %struct.Memory** %MEMORY

  br label %block_.L_401aec

  ; Code: .L_401b1f:	 RIP: 401b1f	 Bytes: 0
block_.L_401b1f:

  ; Code: movl $0x0, 0x604090	 RIP: 401b1f	 Bytes: 11
  %loadMem_401b1f = load %struct.Memory*, %struct.Memory** %MEMORY
  %call_401b1f = call %struct.Memory* @routine_movl__0x0__0x604090(%struct.State* %0, i64  0, %struct.Memory* %loadMem_401b1f)
  store %struct.Memory* %call_401b1f, %struct.Memory** %MEMORY

  ; Code: .L_401b2a:	 RIP: 401b2a	 Bytes: 0
  br label %block_.L_401b2a
block_.L_401b2a:

  ; Code: jmpq .L_401b2f	 RIP: 401b2a	 Bytes: 5
  %loadMem_401b2a = load %struct.Memory*, %struct.Memory** %MEMORY
  %call_401b2a = call %struct.Memory* @routine_jmpq_.L_401b2f(%struct.State* %0, i64  0, %struct.Memory* %loadMem_401b2a, i64 5, i64 5)
  store %struct.Memory* %call_401b2a, %struct.Memory** %MEMORY

  br label %block_.L_401b2f

  ; Code: .L_401b2f:	 RIP: 401b2f	 Bytes: 0
block_.L_401b2f:

  ; Code: movl -0x4(%rbp), %eax	 RIP: 401b2f	 Bytes: 3
  %loadMem_401b2f = load %struct.Memory*, %struct.Memory** %MEMORY
  %call_401b2f = call %struct.Memory* @routine_movl_MINUS0x4__rbp____eax(%struct.State* %0, i64  0, %struct.Memory* %loadMem_401b2f)
  store %struct.Memory* %call_401b2f, %struct.Memory** %MEMORY

  ; Code: addl $0xffffffff, %eax	 RIP: 401b32	 Bytes: 3
  %loadMem_401b32 = load %struct.Memory*, %struct.Memory** %MEMORY
  %call_401b32 = call %struct.Memory* @routine_addl__0xffffffff___eax(%struct.State* %0, i64  0, %struct.Memory* %loadMem_401b32)
  store %struct.Memory* %call_401b32, %struct.Memory** %MEMORY

  ; Code: movl %eax, -0x4(%rbp)	 RIP: 401b35	 Bytes: 3
  %loadMem_401b35 = load %struct.Memory*, %struct.Memory** %MEMORY
  %call_401b35 = call %struct.Memory* @routine_movl__eax__MINUS0x4__rbp_(%struct.State* %0, i64  0, %struct.Memory* %loadMem_401b35)
  store %struct.Memory* %call_401b35, %struct.Memory** %MEMORY

  ; Code: jmpq .L_4019e9	 RIP: 401b38	 Bytes: 5
  %loadMem_401b38 = load %struct.Memory*, %struct.Memory** %MEMORY
  %call_401b38 = call %struct.Memory* @routine_jmpq_.L_4019e9(%struct.State* %0, i64  0, %struct.Memory* %loadMem_401b38, i64 -335, i64 5)
  store %struct.Memory* %call_401b38, %struct.Memory** %MEMORY

  br label %block_.L_4019e9

  ; Code: .L_401b3d:	 RIP: 401b3d	 Bytes: 0
block_.L_401b3d:

  ; Code: popq %rbp	 RIP: 401b3d	 Bytes: 1
  %loadMem_401b3d = load %struct.Memory*, %struct.Memory** %MEMORY
  %call_401b3d = call %struct.Memory* @routine_popq__rbp(%struct.State* %0, i64  0, %struct.Memory* %loadMem_401b3d)
  store %struct.Memory* %call_401b3d, %struct.Memory** %MEMORY

  ; Code: retq	 RIP: 401b3e	 Bytes: 1
  %loadMem_401b3e = load %struct.Memory*, %struct.Memory** %MEMORY
  %call_401b3e = call %struct.Memory* @routine_retq(%struct.State* %0, i64  0, %struct.Memory* %loadMem_401b3e)
  store %struct.Memory* %call_401b3e, %struct.Memory** %MEMORY

  ret %struct.Memory* %call_401b3e
}

define internal %struct.Memory* @_ZN12_GLOBAL__N_1L4PUSHI2InImEEEP6MemoryS4_R5StateT_(%struct.Memory*, %struct.State* nocapture dereferenceable(3376), i64) #0 {
  %4 = getelementptr inbounds %struct.State, %struct.State* %1, i64 0, i32 6, i32 13, i32 0, i32 0
  %5 = load i64, i64* %4, align 8
  %6 = add i64 %5, -8
  %7 = inttoptr i64 %6 to i64*
  store i64 %2, i64* %7
  store i64 %6, i64* %4, align 8
  ret %struct.Memory* %0
}

define %struct.Memory* @routine_pushq__rbp(%struct.State*  dereferenceable(3376), i64, %struct.Memory* ) #19 {
block_400488:
  %3 = getelementptr inbounds %struct.State, %struct.State* %0, i32 0, i32 6
  %4 = getelementptr inbounds %struct.GPR, %struct.GPR* %3, i32 0, i32 33
  %5 = getelementptr inbounds %struct.Reg, %struct.Reg* %4, i32 0, i32 0
  %PC = bitcast %union.anon* %5 to i64*
  %6 = getelementptr inbounds %struct.State, %struct.State* %0, i32 0, i32 6
  %7 = getelementptr inbounds %struct.GPR, %struct.GPR* %6, i32 0, i32 15
  %8 = getelementptr inbounds %struct.Reg, %struct.Reg* %7, i32 0, i32 0
  %RBP = bitcast %union.anon* %8 to i64*
  %9 = load i64, i64* %RBP
  %10 = load i64, i64* %PC
  %11 = add i64 %10, 1
  store i64 %11, i64* %PC
  %12 = call %struct.Memory* @_ZN12_GLOBAL__N_1L4PUSHI2InImEEEP6MemoryS4_R5StateT_(%struct.Memory* %2, %struct.State* %0, i64 %9)
  ret %struct.Memory* %12
}

define internal %struct.Memory* @_ZN12_GLOBAL__N_1L3MOVI3RnWImE2RnImEEEP6MemoryS6_R5StateT_T0_(%struct.Memory* readnone returned, %struct.State* nocapture readnone dereferenceable(3376), i64* nocapture, i64) #2 {
  store i64 %3, i64* %2, align 8
  ret %struct.Memory* %0
}

define %struct.Memory* @routine_movq__rsp___rbp(%struct.State*  dereferenceable(3376), i64, %struct.Memory* ) #19 {
block_400488:
  %3 = getelementptr inbounds %struct.State, %struct.State* %0, i32 0, i32 6
  %4 = getelementptr inbounds %struct.GPR, %struct.GPR* %3, i32 0, i32 33
  %5 = getelementptr inbounds %struct.Reg, %struct.Reg* %4, i32 0, i32 0
  %PC = bitcast %union.anon* %5 to i64*
  %6 = getelementptr inbounds %struct.State, %struct.State* %0, i32 0, i32 6
  %7 = getelementptr inbounds %struct.GPR, %struct.GPR* %6, i32 0, i32 13
  %8 = getelementptr inbounds %struct.Reg, %struct.Reg* %7, i32 0, i32 0
  %RSP = bitcast %union.anon* %8 to i64*
  %9 = getelementptr inbounds %struct.State, %struct.State* %0, i32 0, i32 6
  %10 = getelementptr inbounds %struct.GPR, %struct.GPR* %9, i32 0, i32 15
  %11 = getelementptr inbounds %struct.Reg, %struct.Reg* %10, i32 0, i32 0
  %RBP = bitcast %union.anon* %11 to i64*
  %12 = load i64, i64* %RSP
  %13 = load i64, i64* %PC
  %14 = add i64 %13, 3
  store i64 %14, i64* %PC
  %15 = call %struct.Memory* @_ZN12_GLOBAL__N_1L3MOVI3RnWImE2RnImEEEP6MemoryS6_R5StateT_T0_(%struct.Memory* %2, %struct.State* %0, i64* %RBP, i64 %12)
  ret %struct.Memory* %15
}

define internal %struct.Memory* @_ZN12_GLOBAL__N_1L3MOVI3MnWIjE2InIjEEEP6MemoryS6_R5StateT_T0_(%struct.Memory* readnone, %struct.State* nocapture readnone dereferenceable(3376), i64, i64) #8 {
  %5 = trunc i64 %3 to i32
  %6 = inttoptr i64 %2 to i32*
  store i32 %5, i32* %6
  ret %struct.Memory* %0
}

define %struct.Memory* @routine_movl__0x0__MINUS0x4__rbp_(%struct.State*  dereferenceable(3376), i64, %struct.Memory* ) #19 {
block_400488:
  %3 = getelementptr inbounds %struct.State, %struct.State* %0, i32 0, i32 6
  %4 = getelementptr inbounds %struct.GPR, %struct.GPR* %3, i32 0, i32 33
  %5 = getelementptr inbounds %struct.Reg, %struct.Reg* %4, i32 0, i32 0
  %PC = bitcast %union.anon* %5 to i64*
  %6 = getelementptr inbounds %struct.State, %struct.State* %0, i32 0, i32 6
  %7 = getelementptr inbounds %struct.GPR, %struct.GPR* %6, i32 0, i32 15
  %8 = getelementptr inbounds %struct.Reg, %struct.Reg* %7, i32 0, i32 0
  %RBP = bitcast %union.anon* %8 to i64*
  %9 = load i64, i64* %RBP
  %10 = sub i64 %9, 4
  %11 = load i64, i64* %PC
  %12 = add i64 %11, 7
  store i64 %12, i64* %PC
  %13 = call %struct.Memory* @_ZN12_GLOBAL__N_1L3MOVI3MnWIjE2InIjEEEP6MemoryS6_R5StateT_T0_(%struct.Memory* %2, %struct.State* %0, i64 %10, i64 0)
  ret %struct.Memory* %13
}

define internal %struct.Memory* @_ZN12_GLOBAL__N_1L3CMPI2MnIjE2InIjEEEP6MemoryS6_R5StateT_T0_(%struct.Memory*, %struct.State* nocapture dereferenceable(3376), i64, i64) #0 {
  %5 = inttoptr i64 %2 to i32*
  %6 = load i32, i32* %5
  %7 = trunc i64 %3 to i32
  %8 = sub i32 %6, %7
  %9 = icmp ult i32 %6, %7
  %10 = zext i1 %9 to i8
  %11 = getelementptr inbounds %struct.State, %struct.State* %1, i64 0, i32 2, i32 1
  store i8 %10, i8* %11, align 1
  %12 = and i32 %8, 255
  %13 = tail call i32 @llvm.ctpop.i32(i32 %12) #22
  %14 = trunc i32 %13 to i8
  %15 = and i8 %14, 1
  %16 = xor i8 %15, 1
  %17 = getelementptr inbounds %struct.State, %struct.State* %1, i64 0, i32 2, i32 3
  store i8 %16, i8* %17, align 1
  %18 = xor i32 %6, %7
  %19 = xor i32 %18, %8
  %20 = lshr i32 %19, 4
  %21 = trunc i32 %20 to i8
  %22 = and i8 %21, 1
  %23 = getelementptr inbounds %struct.State, %struct.State* %1, i64 0, i32 2, i32 5
  store i8 %22, i8* %23, align 1
  %24 = icmp eq i32 %8, 0
  %25 = zext i1 %24 to i8
  %26 = getelementptr inbounds %struct.State, %struct.State* %1, i64 0, i32 2, i32 7
  store i8 %25, i8* %26, align 1
  %27 = lshr i32 %8, 31
  %28 = trunc i32 %27 to i8
  %29 = getelementptr inbounds %struct.State, %struct.State* %1, i64 0, i32 2, i32 9
  store i8 %28, i8* %29, align 1
  %30 = lshr i32 %6, 31
  %31 = lshr i32 %7, 31
  %32 = xor i32 %30, %31
  %33 = xor i32 %27, %30
  %34 = add   i32 %33, %32
  %35 = icmp eq i32 %34, 2
  %36 = zext i1 %35 to i8
  %37 = getelementptr inbounds %struct.State, %struct.State* %1, i64 0, i32 2, i32 13
  store i8 %36, i8* %37, align 1
  ret %struct.Memory* %0
}

define %struct.Memory* @routine_cmpl__0x10__MINUS0x4__rbp_(%struct.State*  dereferenceable(3376), i64, %struct.Memory* ) #19 {
block_400488:
  %3 = getelementptr inbounds %struct.State, %struct.State* %0, i32 0, i32 6
  %4 = getelementptr inbounds %struct.GPR, %struct.GPR* %3, i32 0, i32 33
  %5 = getelementptr inbounds %struct.Reg, %struct.Reg* %4, i32 0, i32 0
  %PC = bitcast %union.anon* %5 to i64*
  %6 = getelementptr inbounds %struct.State, %struct.State* %0, i32 0, i32 6
  %7 = getelementptr inbounds %struct.GPR, %struct.GPR* %6, i32 0, i32 15
  %8 = getelementptr inbounds %struct.Reg, %struct.Reg* %7, i32 0, i32 0
  %RBP = bitcast %union.anon* %8 to i64*
  %9 = load i64, i64* %RBP
  %10 = sub i64 %9, 4
  %11 = load i64, i64* %PC
  %12 = add i64 %11, 4
  store i64 %12, i64* %PC
  %13 = call %struct.Memory* @_ZN12_GLOBAL__N_1L3CMPI2MnIjE2InIjEEEP6MemoryS6_R5StateT_T0_(%struct.Memory* %2, %struct.State* %0, i64 %10, i64 16)
  ret %struct.Memory* %13
}

define internal %struct.Memory* @_ZN12_GLOBAL__N_1L3JNLEP6MemoryR5State3RnWIhE2InImES7_(%struct.Memory* readnone returned, %struct.State* nocapture dereferenceable(3376), i8* nocapture, i64, i64) #2 {
  %6 = getelementptr inbounds %struct.State, %struct.State* %1, i64 0, i32 2, i32 9
  %7 = load i8, i8* %6, align 1
  %8 = icmp ne i8 %7, 0
  %9 = getelementptr inbounds %struct.State, %struct.State* %1, i64 0, i32 2, i32 13
  %10 = load i8, i8* %9, align 1
  %11 = icmp ne i8 %10, 0
  %12 = xor i1 %8, %11
  %13 = xor i1 %12, true
  %14 = zext i1 %13 to i8
  store i8 %14, i8* %2, align 1
  %15 = getelementptr inbounds %struct.State, %struct.State* %1, i64 0, i32 6, i32 33, i32 0, i32 0
  %16 = select i1 %12, i64 %4, i64 %3
  store i64 %16, i64* %15, align 8
  ret %struct.Memory* %0
}

define %struct.Memory* @routine_jge_.L_4019e2(%struct.State*  dereferenceable(3376), i64, %struct.Memory*, i8* %BRANCH_TAKEN, i64 %rel_off1, i64 %rel_off2, i64 %rel_off3) {
block_400488:
  %3 = getelementptr inbounds %struct.State, %struct.State* %0, i32 0, i32 6
  %4 = getelementptr inbounds %struct.GPR, %struct.GPR* %3, i32 0, i32 33
  %5 = getelementptr inbounds %struct.Reg, %struct.Reg* %4, i32 0, i32 0
  %PC = bitcast %union.anon* %5 to i64*
  %6 = load i64, i64* %PC
  %7 = add i64 %6, %rel_off1
  %8 = load i64, i64* %PC
  %9 = add i64 %8, %rel_off2
  %10 = load i64, i64* %PC
  %11 = add i64 %10, %rel_off3
  store i64 %11, i64* %PC
  %12 = call %struct.Memory* @_ZN12_GLOBAL__N_1L3JNLEP6MemoryR5State3RnWIhE2InImES7_(%struct.Memory* %2, %struct.State* %0, i8* %BRANCH_TAKEN, i64 %7, i64 %9)
  ret %struct.Memory* %12
}

define internal %struct.Memory* @_ZN12_GLOBAL__N_1L5MOVSXI3RnWImE2MnIjElEEP6MemoryS6_R5StateT_T0_(%struct.Memory* returned, %struct.State* nocapture readnone dereferenceable(3376), i64* nocapture, i64) #0 {
  %5 = inttoptr i64 %3 to i32*
  %6 = load i32, i32* %5
  %7 = sext i32 %6 to i64
  store i64 %7, i64* %2, align 8
  ret %struct.Memory* %0
}

define %struct.Memory* @routine_movslq_MINUS0x4__rbp____rax(%struct.State*  dereferenceable(3376), i64, %struct.Memory* ) #19 {
block_400488:
  %3 = getelementptr inbounds %struct.State, %struct.State* %0, i32 0, i32 6
  %4 = getelementptr inbounds %struct.GPR, %struct.GPR* %3, i32 0, i32 33
  %5 = getelementptr inbounds %struct.Reg, %struct.Reg* %4, i32 0, i32 0
  %PC = bitcast %union.anon* %5 to i64*
  %6 = getelementptr inbounds %struct.State, %struct.State* %0, i32 0, i32 6
  %7 = getelementptr inbounds %struct.GPR, %struct.GPR* %6, i32 0, i32 1
  %8 = getelementptr inbounds %struct.Reg, %struct.Reg* %7, i32 0, i32 0
  %RAX = bitcast %union.anon* %8 to i64*
  %9 = getelementptr inbounds %struct.State, %struct.State* %0, i32 0, i32 6
  %10 = getelementptr inbounds %struct.GPR, %struct.GPR* %9, i32 0, i32 15
  %11 = getelementptr inbounds %struct.Reg, %struct.Reg* %10, i32 0, i32 0
  %RBP = bitcast %union.anon* %11 to i64*
  %12 = load i64, i64* %RBP
  %13 = sub i64 %12, 4
  %14 = load i64, i64* %PC
  %15 = add i64 %14, 4
  store i64 %15, i64* %PC
  %16 = call %struct.Memory* @_ZN12_GLOBAL__N_1L5MOVSXI3RnWImE2MnIjElEEP6MemoryS6_R5StateT_T0_(%struct.Memory* %2, %struct.State* %0, i64* %RAX, i64 %13)
  ret %struct.Memory* %16
}


define %struct.Memory* @routine_movl__0x0__0x604090___rax_4_(%struct.State*  dereferenceable(3376), i64, %struct.Memory* ) #19 {
block_400488:
  %3 = getelementptr inbounds %struct.State, %struct.State* %0, i32 0, i32 6
  %4 = getelementptr inbounds %struct.GPR, %struct.GPR* %3, i32 0, i32 33
  %5 = getelementptr inbounds %struct.Reg, %struct.Reg* %4, i32 0, i32 0
  %PC = bitcast %union.anon* %5 to i64*
  %6 = getelementptr inbounds %struct.State, %struct.State* %0, i32 0, i32 6
  %7 = getelementptr inbounds %struct.GPR, %struct.GPR* %6, i32 0, i32 1
  %8 = getelementptr inbounds %struct.Reg, %struct.Reg* %7, i32 0, i32 0
  %RAX = bitcast %union.anon* %8 to i64*
  %9 = load i64, i64* %RAX
  %10 = mul i64 %9, 4
  %11 = add i64 %10, 6307984
  %12 = load i64, i64* %PC
  %13 = add i64 %12, 11
  store i64 %13, i64* %PC
  %14 = call %struct.Memory* @_ZN12_GLOBAL__N_1L3MOVI3MnWIjE2InIjEEEP6MemoryS6_R5StateT_T0_(%struct.Memory* %2, %struct.State* %0, i64 %11, i64 0)
  ret %struct.Memory* %14
}

define internal %struct.Memory* @_ZN12_GLOBAL__N_1L3MOVI3RnWImE2MnIjEEEP6MemoryS6_R5StateT_T0_(%struct.Memory* returned, %struct.State* nocapture readnone dereferenceable(3376), i64* nocapture, i64) #0 {
  %5 = inttoptr i64 %3 to i32*
  %6 = load i32, i32* %5
  %7 = zext i32 %6 to i64
  store i64 %7, i64* %2, align 8
  ret %struct.Memory* %0
}

define %struct.Memory* @routine_movl_MINUS0x4__rbp____eax(%struct.State*  dereferenceable(3376), i64, %struct.Memory* ) #19 {
block_400488:
  %3 = getelementptr inbounds %struct.State, %struct.State* %0, i32 0, i32 6
  %4 = getelementptr inbounds %struct.GPR, %struct.GPR* %3, i32 0, i32 33
  %5 = getelementptr inbounds %struct.Reg, %struct.Reg* %4, i32 0, i32 0
  %PC = bitcast %union.anon* %5 to i64*
  %6 = getelementptr inbounds %struct.State, %struct.State* %0, i32 0, i32 6
  %7 = getelementptr inbounds %struct.GPR, %struct.GPR* %6, i32 0, i32 1
  %8 = getelementptr inbounds %struct.Reg, %struct.Reg* %7, i32 0, i32 0
  %RAX = bitcast %union.anon* %8 to i64*
  %9 = getelementptr inbounds %struct.State, %struct.State* %0, i32 0, i32 6
  %10 = getelementptr inbounds %struct.GPR, %struct.GPR* %9, i32 0, i32 15
  %11 = getelementptr inbounds %struct.Reg, %struct.Reg* %10, i32 0, i32 0
  %RBP = bitcast %union.anon* %11 to i64*
  %12 = load i64, i64* %RBP
  %13 = sub i64 %12, 4
  %14 = load i64, i64* %PC
  %15 = add i64 %14, 3
  store i64 %15, i64* %PC
  %16 = call %struct.Memory* @_ZN12_GLOBAL__N_1L3MOVI3RnWImE2MnIjEEEP6MemoryS6_R5StateT_T0_(%struct.Memory* %2, %struct.State* %0, i64* %RAX, i64 %13)
  ret %struct.Memory* %16
}

define internal %struct.Memory* @_ZN12_GLOBAL__N_1L3ADDI3RnWImE2RnIjE2InIjEEEP6MemoryS8_R5StateT_T0_T1_(%struct.Memory* readnone returned, %struct.State* nocapture dereferenceable(3376), i64* nocapture, i64, i64) #0 {
  %6 = trunc i64 %3 to i32
  %7 = trunc i64 %4 to i32
  %8 = add i32 %7, %6
  %9 = zext i32 %8 to i64
  store i64 %9, i64* %2, align 8
  %10 = icmp ult i32 %8, %6
  %11 = icmp ult i32 %8, %7
  %12 = or i1 %10, %11
  %13 = zext i1 %12 to i8
  %14 = getelementptr inbounds %struct.State, %struct.State* %1, i64 0, i32 2, i32 1
  store i8 %13, i8* %14, align 1
  %15 = and i32 %8, 255
  %16 = tail call i32 @llvm.ctpop.i32(i32 %15) #22
  %17 = trunc i32 %16 to i8
  %18 = and i8 %17, 1
  %19 = xor i8 %18, 1
  %20 = getelementptr inbounds %struct.State, %struct.State* %1, i64 0, i32 2, i32 3
  store i8 %19, i8* %20, align 1
  %21 = xor i64 %4, %3
  %22 = trunc i64 %21 to i32
  %23 = xor i32 %22, %8
  %24 = lshr i32 %23, 4
  %25 = trunc i32 %24 to i8
  %26 = and i8 %25, 1
  %27 = getelementptr inbounds %struct.State, %struct.State* %1, i64 0, i32 2, i32 5
  store i8 %26, i8* %27, align 1
  %28 = icmp eq i32 %8, 0
  %29 = zext i1 %28 to i8
  %30 = getelementptr inbounds %struct.State, %struct.State* %1, i64 0, i32 2, i32 7
  store i8 %29, i8* %30, align 1
  %31 = lshr i32 %8, 31
  %32 = trunc i32 %31 to i8
  %33 = getelementptr inbounds %struct.State, %struct.State* %1, i64 0, i32 2, i32 9
  store i8 %32, i8* %33, align 1
  %34 = lshr i32 %6, 31
  %35 = lshr i32 %7, 31
  %36 = xor i32 %31, %34
  %37 = xor i32 %31, %35
  %38 = add   i32 %36, %37
  %39 = icmp eq i32 %38, 2
  %40 = zext i1 %39 to i8
  %41 = getelementptr inbounds %struct.State, %struct.State* %1, i64 0, i32 2, i32 13
  store i8 %40, i8* %41, align 1
  ret %struct.Memory* %0
}

define %struct.Memory* @routine_addl__0x1___eax(%struct.State*  dereferenceable(3376), i64, %struct.Memory* ) #19 {
block_400488:
  %3 = getelementptr inbounds %struct.State, %struct.State* %0, i32 0, i32 6
  %4 = getelementptr inbounds %struct.GPR, %struct.GPR* %3, i32 0, i32 33
  %5 = getelementptr inbounds %struct.Reg, %struct.Reg* %4, i32 0, i32 0
  %PC = bitcast %union.anon* %5 to i64*
  %6 = getelementptr inbounds %struct.State, %struct.State* %0, i32 0, i32 6
  %7 = getelementptr inbounds %struct.GPR, %struct.GPR* %6, i32 0, i32 1
  %8 = getelementptr inbounds %struct.Reg, %struct.Reg* %7, i32 0, i32 0
  %RAX = bitcast %union.anon* %8 to i64*
  %9 = load i64, i64* %RAX
  %10 = load i64, i64* %PC
  %11 = add i64 %10, 3
  store i64 %11, i64* %PC
  %12 = call %struct.Memory* @_ZN12_GLOBAL__N_1L3ADDI3RnWImE2RnIjE2InIjEEEP6MemoryS8_R5StateT_T0_T1_(%struct.Memory* %2, %struct.State* %0, i64* %RAX, i64 %9, i64 1)
  ret %struct.Memory* %12
}

define internal %struct.Memory* @_ZN12_GLOBAL__N_1L3MOVI3MnWIjE2RnIjEEEP6MemoryS6_R5StateT_T0_(%struct.Memory* readnone, %struct.State* nocapture readnone dereferenceable(3376), i64, i64) #8 {
  %5 = trunc i64 %3 to i32
  %6 = inttoptr i64 %2 to i32*
  store i32 %5, i32* %6
  ret %struct.Memory* %0
}

define %struct.Memory* @routine_movl__eax__MINUS0x4__rbp_(%struct.State*  dereferenceable(3376), i64, %struct.Memory* ) #19 {
block_400488:
  %3 = getelementptr inbounds %struct.State, %struct.State* %0, i32 0, i32 6
  %4 = getelementptr inbounds %struct.GPR, %struct.GPR* %3, i32 0, i32 33
  %5 = getelementptr inbounds %struct.Reg, %struct.Reg* %4, i32 0, i32 0
  %PC = bitcast %union.anon* %5 to i64*
  %6 = getelementptr inbounds %struct.State, %struct.State* %0, i32 0, i32 6
  %7 = getelementptr inbounds %struct.GPR, %struct.GPR* %6, i32 0, i32 1
  %8 = getelementptr inbounds %struct.Reg, %struct.Reg* %7, i32 0, i32 0
  %EAX = bitcast %union.anon* %8 to i32*
  %9 = getelementptr inbounds %struct.State, %struct.State* %0, i32 0, i32 6
  %10 = getelementptr inbounds %struct.GPR, %struct.GPR* %9, i32 0, i32 15
  %11 = getelementptr inbounds %struct.Reg, %struct.Reg* %10, i32 0, i32 0
  %RBP = bitcast %union.anon* %11 to i64*
  %12 = load i64, i64* %RBP
  %13 = sub i64 %12, 4
  %14 = load i32, i32* %EAX
  %15 = zext i32 %14 to i64
  %16 = load i64, i64* %PC
  %17 = add i64 %16, 3
  store i64 %17, i64* %PC
  %18 = call %struct.Memory* @_ZN12_GLOBAL__N_1L3MOVI3MnWIjE2RnIjEEEP6MemoryS6_R5StateT_T0_(%struct.Memory* %2, %struct.State* %0, i64 %13, i64 %15)
  ret %struct.Memory* %18
}

define internal %struct.Memory* @_ZN12_GLOBAL__N_1L3JMPI2InImEEEP6MemoryS4_R5StateT_(%struct.Memory* readnone returned, %struct.State* nocapture dereferenceable(3376), i64) #2 {
  %4 = getelementptr inbounds %struct.State, %struct.State* %1, i64 0, i32 6, i32 33, i32 0, i32 0
  store i64 %2, i64* %4, align 8
  ret %struct.Memory* %0
}

define %struct.Memory* @routine_jmpq_.L_4019bb(%struct.State*  dereferenceable(3376), i64, %struct.Memory*, i64 %rel_off1, i64 %rel_off2) {
block_400488:
  %3 = getelementptr inbounds %struct.State, %struct.State* %0, i32 0, i32 6
  %4 = getelementptr inbounds %struct.GPR, %struct.GPR* %3, i32 0, i32 33
  %5 = getelementptr inbounds %struct.Reg, %struct.Reg* %4, i32 0, i32 0
  %PC = bitcast %union.anon* %5 to i64*
  %6 = load i64, i64* %PC
  %7 = add i64 %6, %rel_off1
  %8 = load i64, i64* %PC
  %9 = add i64 %8, %rel_off2
  store i64 %9, i64* %PC
  %10 = call %struct.Memory* @_ZN12_GLOBAL__N_1L3JMPI2InImEEEP6MemoryS4_R5StateT_(%struct.Memory* %2, %struct.State* %0, i64 %7)
  ret %struct.Memory* %10
}


define %struct.Memory* @routine_movl__0xee__MINUS0x4__rbp_(%struct.State*  dereferenceable(3376), i64, %struct.Memory* ) #19 {
block_400488:
  %3 = getelementptr inbounds %struct.State, %struct.State* %0, i32 0, i32 6
  %4 = getelementptr inbounds %struct.GPR, %struct.GPR* %3, i32 0, i32 33
  %5 = getelementptr inbounds %struct.Reg, %struct.Reg* %4, i32 0, i32 0
  %PC = bitcast %union.anon* %5 to i64*
  %6 = getelementptr inbounds %struct.State, %struct.State* %0, i32 0, i32 6
  %7 = getelementptr inbounds %struct.GPR, %struct.GPR* %6, i32 0, i32 15
  %8 = getelementptr inbounds %struct.Reg, %struct.Reg* %7, i32 0, i32 0
  %RBP = bitcast %union.anon* %8 to i64*
  %9 = load i64, i64* %RBP
  %10 = sub i64 %9, 4
  %11 = load i64, i64* %PC
  %12 = add i64 %11, 7
  store i64 %12, i64* %PC
  %13 = call %struct.Memory* @_ZN12_GLOBAL__N_1L3MOVI3MnWIjE2InIjEEEP6MemoryS6_R5StateT_T0_(%struct.Memory* %2, %struct.State* %0, i64 %10, i64 238)
  ret %struct.Memory* %13
}


define %struct.Memory* @routine_cmpl__0x0__MINUS0x4__rbp_(%struct.State*  dereferenceable(3376), i64, %struct.Memory* ) #19 {
block_400488:
  %3 = getelementptr inbounds %struct.State, %struct.State* %0, i32 0, i32 6
  %4 = getelementptr inbounds %struct.GPR, %struct.GPR* %3, i32 0, i32 33
  %5 = getelementptr inbounds %struct.Reg, %struct.Reg* %4, i32 0, i32 0
  %PC = bitcast %union.anon* %5 to i64*
  %6 = getelementptr inbounds %struct.State, %struct.State* %0, i32 0, i32 6
  %7 = getelementptr inbounds %struct.GPR, %struct.GPR* %6, i32 0, i32 15
  %8 = getelementptr inbounds %struct.Reg, %struct.Reg* %7, i32 0, i32 0
  %RBP = bitcast %union.anon* %8 to i64*
  %9 = load i64, i64* %RBP
  %10 = sub i64 %9, 4
  %11 = load i64, i64* %PC
  %12 = add i64 %11, 4
  store i64 %12, i64* %PC
  %13 = call %struct.Memory* @_ZN12_GLOBAL__N_1L3CMPI2MnIjE2InIjEEEP6MemoryS6_R5StateT_T0_(%struct.Memory* %2, %struct.State* %0, i64 %10, i64 0)
  ret %struct.Memory* %13
}

define internal %struct.Memory* @_ZN12_GLOBAL__N_1L2JLEP6MemoryR5State3RnWIhE2InImES7_(%struct.Memory* readnone returned, %struct.State* nocapture dereferenceable(3376), i8* nocapture, i64, i64) #2 {
  %6 = getelementptr inbounds %struct.State, %struct.State* %1, i64 0, i32 2, i32 9
  %7 = load i8, i8* %6, align 1
  %8 = icmp ne i8 %7, 0
  %9 = getelementptr inbounds %struct.State, %struct.State* %1, i64 0, i32 2, i32 13
  %10 = load i8, i8* %9, align 1
  %11 = icmp ne i8 %10, 0
  %12 = xor i1 %8, %11
  %13 = zext i1 %12 to i8
  store i8 %13, i8* %2, align 1
  %14 = getelementptr inbounds %struct.State, %struct.State* %1, i64 0, i32 6, i32 33, i32 0, i32 0
  %15 = select i1 %12, i64 %3, i64 %4
  store i64 %15, i64* %14, align 8
  ret %struct.Memory* %0
}

define %struct.Memory* @routine_jl_.L_401b3d(%struct.State*  dereferenceable(3376), i64, %struct.Memory*, i8* %BRANCH_TAKEN, i64 %rel_off1, i64 %rel_off2, i64 %rel_off3) {
block_400488:
  %3 = getelementptr inbounds %struct.State, %struct.State* %0, i32 0, i32 6
  %4 = getelementptr inbounds %struct.GPR, %struct.GPR* %3, i32 0, i32 33
  %5 = getelementptr inbounds %struct.Reg, %struct.Reg* %4, i32 0, i32 0
  %PC = bitcast %union.anon* %5 to i64*
  %6 = load i64, i64* %PC
  %7 = add i64 %6, %rel_off1
  %8 = load i64, i64* %PC
  %9 = add i64 %8, %rel_off2
  %10 = load i64, i64* %PC
  %11 = add i64 %10, %rel_off3
  store i64 %11, i64* %PC
  %12 = call %struct.Memory* @_ZN12_GLOBAL__N_1L2JLEP6MemoryR5State3RnWIhE2InImES7_(%struct.Memory* %2, %struct.State* %0, i8* %BRANCH_TAKEN, i64 %7, i64 %9)
  ret %struct.Memory* %12
}




define %struct.Memory* @routine_movl_0x603cd0___rax_4____ecx(%struct.State*  dereferenceable(3376), i64, %struct.Memory* ) #19 {
block_400488:
  %3 = getelementptr inbounds %struct.State, %struct.State* %0, i32 0, i32 6
  %4 = getelementptr inbounds %struct.GPR, %struct.GPR* %3, i32 0, i32 33
  %5 = getelementptr inbounds %struct.Reg, %struct.Reg* %4, i32 0, i32 0
  %PC = bitcast %union.anon* %5 to i64*
  %6 = getelementptr inbounds %struct.State, %struct.State* %0, i32 0, i32 6
  %7 = getelementptr inbounds %struct.GPR, %struct.GPR* %6, i32 0, i32 1
  %8 = getelementptr inbounds %struct.Reg, %struct.Reg* %7, i32 0, i32 0
  %RAX = bitcast %union.anon* %8 to i64*
  %9 = getelementptr inbounds %struct.State, %struct.State* %0, i32 0, i32 6
  %10 = getelementptr inbounds %struct.GPR, %struct.GPR* %9, i32 0, i32 5
  %11 = getelementptr inbounds %struct.Reg, %struct.Reg* %10, i32 0, i32 0
  %RCX = bitcast %union.anon* %11 to i64*
  %12 = load i64, i64* %RAX
  %13 = mul i64 %12, 4
  %14 = add i64 %13, 6307024
  %15 = load i64, i64* %PC
  %16 = add i64 %15, 7
  store i64 %16, i64* %PC
  %17 = call %struct.Memory* @_ZN12_GLOBAL__N_1L3MOVI3RnWImE2MnIjEEEP6MemoryS6_R5StateT_T0_(%struct.Memory* %2, %struct.State* %0, i64* %RCX, i64 %14)
  ret %struct.Memory* %17
}

define internal %struct.Memory* @_ZN12_GLOBAL__N_1L3XORI3RnWImE2RnIjE2MnIjEEEP6MemoryS8_R5StateT_T0_T1_(%struct.Memory*, %struct.State* nocapture dereferenceable(3376), i64* nocapture, i64, i64) #0 {
  %6 = trunc i64 %3 to i32
  %7 = inttoptr i64 %4 to i32*
  %8 = load i32, i32* %7
  %9 = xor i32 %8, %6
  %10 = zext i32 %9 to i64
  store i64 %10, i64* %2, align 8
  %11 = getelementptr inbounds %struct.State, %struct.State* %1, i64 0, i32 2, i32 1
  store i8 0, i8* %11, align 1
  %12 = and i32 %9, 255
  %13 = tail call i32 @llvm.ctpop.i32(i32 %12) #22
  %14 = trunc i32 %13 to i8
  %15 = and i8 %14, 1
  %16 = xor i8 %15, 1
  %17 = getelementptr inbounds %struct.State, %struct.State* %1, i64 0, i32 2, i32 3
  store i8 %16, i8* %17, align 1
  %18 = icmp eq i32 %9, 0
  %19 = zext i1 %18 to i8
  %20 = getelementptr inbounds %struct.State, %struct.State* %1, i64 0, i32 2, i32 7
  store i8 %19, i8* %20, align 1
  %21 = lshr i32 %9, 31
  %22 = trunc i32 %21 to i8
  %23 = getelementptr inbounds %struct.State, %struct.State* %1, i64 0, i32 2, i32 9
  store i8 %22, i8* %23, align 1
  %24 = getelementptr inbounds %struct.State, %struct.State* %1, i64 0, i32 2, i32 13
  store i8 0, i8* %24, align 1
  %25 = getelementptr inbounds %struct.State, %struct.State* %1, i64 0, i32 2, i32 5
  store i8 0, i8* %25, align 1
  ret %struct.Memory* %0
}

define %struct.Memory* @routine_xorl_0x6040cc___ecx(%struct.State*  dereferenceable(3376), i64, %struct.Memory* ) #19 {
block_400488:
  %3 = getelementptr inbounds %struct.State, %struct.State* %0, i32 0, i32 6
  %4 = getelementptr inbounds %struct.GPR, %struct.GPR* %3, i32 0, i32 33
  %5 = getelementptr inbounds %struct.Reg, %struct.Reg* %4, i32 0, i32 0
  %PC = bitcast %union.anon* %5 to i64*
  %6 = getelementptr inbounds %struct.State, %struct.State* %0, i32 0, i32 6
  %7 = getelementptr inbounds %struct.GPR, %struct.GPR* %6, i32 0, i32 5
  %8 = getelementptr inbounds %struct.Reg, %struct.Reg* %7, i32 0, i32 0
  %RCX = bitcast %union.anon* %8 to i64*
  %9 = load i64, i64* %RCX
  %10 = load i64, i64* %PC
  %11 = add i64 %10, 7
  store i64 %11, i64* %PC
  %12 = call %struct.Memory* @_ZN12_GLOBAL__N_1L3XORI3RnWImE2RnIjE2MnIjEEEP6MemoryS8_R5StateT_T0_T1_(%struct.Memory* %2, %struct.State* %0, i64* %RCX, i64 %9, i64 ptrtoint( %G_0x6040cc_type* @G_0x6040cc to i64))
  ret %struct.Memory* %12
}

define internal %struct.Memory* @_ZN12_GLOBAL__N_1L5MOVSXI3RnWImE2RnIjElEEP6MemoryS6_R5StateT_T0_(%struct.Memory* readnone returned, %struct.State* nocapture readnone dereferenceable(3376), i64* nocapture, i64) #2 {
  %5 = shl i64 %3, 32
  %6 = ashr exact i64 %5, 32
  store i64 %6, i64* %2, align 8
  ret %struct.Memory* %0
}

define %struct.Memory* @routine_movslq__ecx___rax(%struct.State*  dereferenceable(3376), i64, %struct.Memory* ) #19 {
block_400488:
  %3 = getelementptr inbounds %struct.State, %struct.State* %0, i32 0, i32 6
  %4 = getelementptr inbounds %struct.GPR, %struct.GPR* %3, i32 0, i32 33
  %5 = getelementptr inbounds %struct.Reg, %struct.Reg* %4, i32 0, i32 0
  %PC = bitcast %union.anon* %5 to i64*
  %6 = getelementptr inbounds %struct.State, %struct.State* %0, i32 0, i32 6
  %7 = getelementptr inbounds %struct.GPR, %struct.GPR* %6, i32 0, i32 5
  %8 = getelementptr inbounds %struct.Reg, %struct.Reg* %7, i32 0, i32 0
  %ECX = bitcast %union.anon* %8 to i32*
  %9 = getelementptr inbounds %struct.State, %struct.State* %0, i32 0, i32 6
  %10 = getelementptr inbounds %struct.GPR, %struct.GPR* %9, i32 0, i32 1
  %11 = getelementptr inbounds %struct.Reg, %struct.Reg* %10, i32 0, i32 0
  %RAX = bitcast %union.anon* %11 to i64*
  %12 = load i32, i32* %ECX
  %13 = zext i32 %12 to i64
  %14 = load i64, i64* %PC
  %15 = add i64 %14, 3
  store i64 %15, i64* %PC
  %16 = call %struct.Memory* @_ZN12_GLOBAL__N_1L5MOVSXI3RnWImE2RnIjElEEP6MemoryS6_R5StateT_T0_(%struct.Memory* %2, %struct.State* %0, i64* %RAX, i64 %13)
  ret %struct.Memory* %16
}


define %struct.Memory* @routine_movl_0x603480___rax_4____ecx(%struct.State*  dereferenceable(3376), i64, %struct.Memory* ) #19 {
block_400488:
  %3 = getelementptr inbounds %struct.State, %struct.State* %0, i32 0, i32 6
  %4 = getelementptr inbounds %struct.GPR, %struct.GPR* %3, i32 0, i32 33
  %5 = getelementptr inbounds %struct.Reg, %struct.Reg* %4, i32 0, i32 0
  %PC = bitcast %union.anon* %5 to i64*
  %6 = getelementptr inbounds %struct.State, %struct.State* %0, i32 0, i32 6
  %7 = getelementptr inbounds %struct.GPR, %struct.GPR* %6, i32 0, i32 1
  %8 = getelementptr inbounds %struct.Reg, %struct.Reg* %7, i32 0, i32 0
  %RAX = bitcast %union.anon* %8 to i64*
  %9 = getelementptr inbounds %struct.State, %struct.State* %0, i32 0, i32 6
  %10 = getelementptr inbounds %struct.GPR, %struct.GPR* %9, i32 0, i32 5
  %11 = getelementptr inbounds %struct.Reg, %struct.Reg* %10, i32 0, i32 0
  %RCX = bitcast %union.anon* %11 to i64*
  %12 = load i64, i64* %RAX
  %13 = mul i64 %12, 4
  %14 = add i64 %13, 6304896
  %15 = load i64, i64* %PC
  %16 = add i64 %15, 7
  store i64 %16, i64* %PC
  %17 = call %struct.Memory* @_ZN12_GLOBAL__N_1L3MOVI3RnWImE2MnIjEEEP6MemoryS6_R5StateT_T0_(%struct.Memory* %2, %struct.State* %0, i64* %RCX, i64 %14)
  ret %struct.Memory* %17
}


define %struct.Memory* @routine_movl__ecx__MINUS0xc__rbp_(%struct.State*  dereferenceable(3376), i64, %struct.Memory* ) #19 {
block_400488:
  %3 = getelementptr inbounds %struct.State, %struct.State* %0, i32 0, i32 6
  %4 = getelementptr inbounds %struct.GPR, %struct.GPR* %3, i32 0, i32 33
  %5 = getelementptr inbounds %struct.Reg, %struct.Reg* %4, i32 0, i32 0
  %PC = bitcast %union.anon* %5 to i64*
  %6 = getelementptr inbounds %struct.State, %struct.State* %0, i32 0, i32 6
  %7 = getelementptr inbounds %struct.GPR, %struct.GPR* %6, i32 0, i32 5
  %8 = getelementptr inbounds %struct.Reg, %struct.Reg* %7, i32 0, i32 0
  %ECX = bitcast %union.anon* %8 to i32*
  %9 = getelementptr inbounds %struct.State, %struct.State* %0, i32 0, i32 6
  %10 = getelementptr inbounds %struct.GPR, %struct.GPR* %9, i32 0, i32 15
  %11 = getelementptr inbounds %struct.Reg, %struct.Reg* %10, i32 0, i32 0
  %RBP = bitcast %union.anon* %11 to i64*
  %12 = load i64, i64* %RBP
  %13 = sub i64 %12, 12
  %14 = load i32, i32* %ECX
  %15 = zext i32 %14 to i64
  %16 = load i64, i64* %PC
  %17 = add i64 %16, 3
  store i64 %17, i64* %PC
  %18 = call %struct.Memory* @_ZN12_GLOBAL__N_1L3MOVI3MnWIjE2RnIjEEEP6MemoryS6_R5StateT_T0_(%struct.Memory* %2, %struct.State* %0, i64 %13, i64 %15)
  ret %struct.Memory* %18
}


define %struct.Memory* @routine_cmpl__0xffffffff__MINUS0xc__rbp_(%struct.State*  dereferenceable(3376), i64, %struct.Memory* ) #19 {
block_400488:
  %3 = getelementptr inbounds %struct.State, %struct.State* %0, i32 0, i32 6
  %4 = getelementptr inbounds %struct.GPR, %struct.GPR* %3, i32 0, i32 33
  %5 = getelementptr inbounds %struct.Reg, %struct.Reg* %4, i32 0, i32 0
  %PC = bitcast %union.anon* %5 to i64*
  %6 = getelementptr inbounds %struct.State, %struct.State* %0, i32 0, i32 6
  %7 = getelementptr inbounds %struct.GPR, %struct.GPR* %6, i32 0, i32 15
  %8 = getelementptr inbounds %struct.Reg, %struct.Reg* %7, i32 0, i32 0
  %RBP = bitcast %union.anon* %8 to i64*
  %9 = load i64, i64* %RBP
  %10 = sub i64 %9, 12
  %11 = load i64, i64* %PC
  %12 = add i64 %11, 4
  store i64 %12, i64* %PC
  %13 = call %struct.Memory* @_ZN12_GLOBAL__N_1L3CMPI2MnIjE2InIjEEEP6MemoryS6_R5StateT_T0_(%struct.Memory* %2, %struct.State* %0, i64 %10, i64 -1)
  ret %struct.Memory* %13
}

define internal %struct.Memory* @_ZN12_GLOBAL__N_1L2JZEP6MemoryR5State3RnWIhE2InImES7_(%struct.Memory* readnone returned, %struct.State* nocapture dereferenceable(3376), i8* nocapture, i64, i64) #2 {
  %6 = getelementptr inbounds %struct.State, %struct.State* %1, i64 0, i32 2, i32 7
  %7 = load i8, i8* %6, align 1
  store i8 %7, i8* %2, align 1
  %8 = getelementptr inbounds %struct.State, %struct.State* %1, i64 0, i32 6, i32 33, i32 0, i32 0
  %9 = icmp ne i8 %7, 0
  %10 = select i1 %9, i64 %3, i64 %4
  store i64 %10, i64* %8, align 8
  ret %struct.Memory* %0
}

define %struct.Memory* @routine_je_.L_401ae5(%struct.State*  dereferenceable(3376), i64, %struct.Memory*, i8* %BRANCH_TAKEN, i64 %rel_off1, i64 %rel_off2, i64 %rel_off3) {
block_400488:
  %3 = getelementptr inbounds %struct.State, %struct.State* %0, i32 0, i32 6
  %4 = getelementptr inbounds %struct.GPR, %struct.GPR* %3, i32 0, i32 33
  %5 = getelementptr inbounds %struct.Reg, %struct.Reg* %4, i32 0, i32 0
  %PC = bitcast %union.anon* %5 to i64*
  %6 = load i64, i64* %PC
  %7 = add i64 %6, %rel_off1
  %8 = load i64, i64* %PC
  %9 = add i64 %8, %rel_off2
  %10 = load i64, i64* %PC
  %11 = add i64 %10, %rel_off3
  store i64 %11, i64* %PC
  %12 = call %struct.Memory* @_ZN12_GLOBAL__N_1L2JZEP6MemoryR5State3RnWIhE2InImES7_(%struct.Memory* %2, %struct.State* %0, i8* %BRANCH_TAKEN, i64 %7, i64 %9)
  ret %struct.Memory* %12
}


define %struct.Memory* @routine_movl__0xf__MINUS0x8__rbp_(%struct.State*  dereferenceable(3376), i64, %struct.Memory* ) #19 {
block_400488:
  %3 = getelementptr inbounds %struct.State, %struct.State* %0, i32 0, i32 6
  %4 = getelementptr inbounds %struct.GPR, %struct.GPR* %3, i32 0, i32 33
  %5 = getelementptr inbounds %struct.Reg, %struct.Reg* %4, i32 0, i32 0
  %PC = bitcast %union.anon* %5 to i64*
  %6 = getelementptr inbounds %struct.State, %struct.State* %0, i32 0, i32 6
  %7 = getelementptr inbounds %struct.GPR, %struct.GPR* %6, i32 0, i32 15
  %8 = getelementptr inbounds %struct.Reg, %struct.Reg* %7, i32 0, i32 0
  %RBP = bitcast %union.anon* %8 to i64*
  %9 = load i64, i64* %RBP
  %10 = sub i64 %9, 8
  %11 = load i64, i64* %PC
  %12 = add i64 %11, 7
  store i64 %12, i64* %PC
  %13 = call %struct.Memory* @_ZN12_GLOBAL__N_1L3MOVI3MnWIjE2InIjEEEP6MemoryS6_R5StateT_T0_(%struct.Memory* %2, %struct.State* %0, i64 %10, i64 15)
  ret %struct.Memory* %13
}


define %struct.Memory* @routine_cmpl__0x0__MINUS0x8__rbp_(%struct.State*  dereferenceable(3376), i64, %struct.Memory* ) #19 {
block_400488:
  %3 = getelementptr inbounds %struct.State, %struct.State* %0, i32 0, i32 6
  %4 = getelementptr inbounds %struct.GPR, %struct.GPR* %3, i32 0, i32 33
  %5 = getelementptr inbounds %struct.Reg, %struct.Reg* %4, i32 0, i32 0
  %PC = bitcast %union.anon* %5 to i64*
  %6 = getelementptr inbounds %struct.State, %struct.State* %0, i32 0, i32 6
  %7 = getelementptr inbounds %struct.GPR, %struct.GPR* %6, i32 0, i32 15
  %8 = getelementptr inbounds %struct.Reg, %struct.Reg* %7, i32 0, i32 0
  %RBP = bitcast %union.anon* %8 to i64*
  %9 = load i64, i64* %RBP
  %10 = sub i64 %9, 8
  %11 = load i64, i64* %PC
  %12 = add i64 %11, 4
  store i64 %12, i64* %PC
  %13 = call %struct.Memory* @_ZN12_GLOBAL__N_1L3CMPI2MnIjE2InIjEEEP6MemoryS6_R5StateT_T0_(%struct.Memory* %2, %struct.State* %0, i64 %10, i64 0)
  ret %struct.Memory* %13
}

define internal %struct.Memory* @_ZN12_GLOBAL__N_1L3JLEEP6MemoryR5State3RnWIhE2InImES7_(%struct.Memory* readnone returned, %struct.State* nocapture dereferenceable(3376), i8* nocapture, i64, i64) #2 {
  %6 = getelementptr inbounds %struct.State, %struct.State* %1, i64 0, i32 2, i32 7
  %7 = load i8, i8* %6, align 1
  %8 = icmp ne i8 %7, 0
  %9 = getelementptr inbounds %struct.State, %struct.State* %1, i64 0, i32 2, i32 9
  %10 = load i8, i8* %9, align 1
  %11 = icmp ne i8 %10, 0
  %12 = getelementptr inbounds %struct.State, %struct.State* %1, i64 0, i32 2, i32 13
  %13 = load i8, i8* %12, align 1
  %14 = icmp ne i8 %13, 0
  %15 = xor i1 %11, %14
  %16 = or i1 %8, %15
  %17 = zext i1 %16 to i8
  store i8 %17, i8* %2, align 1
  %18 = getelementptr inbounds %struct.State, %struct.State* %1, i64 0, i32 6, i32 33, i32 0, i32 0
  %19 = select i1 %16, i64 %3, i64 %4
  store i64 %19, i64* %18, align 8
  ret %struct.Memory* %0
}

define %struct.Memory* @routine_jle_.L_401ab5(%struct.State*  dereferenceable(3376), i64, %struct.Memory*, i8* %BRANCH_TAKEN, i64 %rel_off1, i64 %rel_off2, i64 %rel_off3) {
block_400488:
  %3 = getelementptr inbounds %struct.State, %struct.State* %0, i32 0, i32 6
  %4 = getelementptr inbounds %struct.GPR, %struct.GPR* %3, i32 0, i32 33
  %5 = getelementptr inbounds %struct.Reg, %struct.Reg* %4, i32 0, i32 0
  %PC = bitcast %union.anon* %5 to i64*
  %6 = load i64, i64* %PC
  %7 = add i64 %6, %rel_off1
  %8 = load i64, i64* %PC
  %9 = add i64 %8, %rel_off2
  %10 = load i64, i64* %PC
  %11 = add i64 %10, %rel_off3
  store i64 %11, i64* %PC
  %12 = call %struct.Memory* @_ZN12_GLOBAL__N_1L3JLEEP6MemoryR5State3RnWIhE2InImES7_(%struct.Memory* %2, %struct.State* %0, i8* %BRANCH_TAKEN, i64 %7, i64 %9)
  ret %struct.Memory* %12
}


define %struct.Memory* @routine_movslq_MINUS0x8__rbp____rax(%struct.State*  dereferenceable(3376), i64, %struct.Memory* ) #19 {
block_400488:
  %3 = getelementptr inbounds %struct.State, %struct.State* %0, i32 0, i32 6
  %4 = getelementptr inbounds %struct.GPR, %struct.GPR* %3, i32 0, i32 33
  %5 = getelementptr inbounds %struct.Reg, %struct.Reg* %4, i32 0, i32 0
  %PC = bitcast %union.anon* %5 to i64*
  %6 = getelementptr inbounds %struct.State, %struct.State* %0, i32 0, i32 6
  %7 = getelementptr inbounds %struct.GPR, %struct.GPR* %6, i32 0, i32 1
  %8 = getelementptr inbounds %struct.Reg, %struct.Reg* %7, i32 0, i32 0
  %RAX = bitcast %union.anon* %8 to i64*
  %9 = getelementptr inbounds %struct.State, %struct.State* %0, i32 0, i32 6
  %10 = getelementptr inbounds %struct.GPR, %struct.GPR* %9, i32 0, i32 15
  %11 = getelementptr inbounds %struct.Reg, %struct.Reg* %10, i32 0, i32 0
  %RBP = bitcast %union.anon* %11 to i64*
  %12 = load i64, i64* %RBP
  %13 = sub i64 %12, 8
  %14 = load i64, i64* %PC
  %15 = add i64 %14, 4
  store i64 %15, i64* %PC
  %16 = call %struct.Memory* @_ZN12_GLOBAL__N_1L5MOVSXI3RnWImE2MnIjElEEP6MemoryS6_R5StateT_T0_(%struct.Memory* %2, %struct.State* %0, i64* %RAX, i64 %13)
  ret %struct.Memory* %16
}


define %struct.Memory* @routine_cmpl__0xffffffff__0x603c80___rax_4_(%struct.State*  dereferenceable(3376), i64, %struct.Memory* ) #19 {
block_400488:
  %3 = getelementptr inbounds %struct.State, %struct.State* %0, i32 0, i32 6
  %4 = getelementptr inbounds %struct.GPR, %struct.GPR* %3, i32 0, i32 33
  %5 = getelementptr inbounds %struct.Reg, %struct.Reg* %4, i32 0, i32 0
  %PC = bitcast %union.anon* %5 to i64*
  %6 = getelementptr inbounds %struct.State, %struct.State* %0, i32 0, i32 6
  %7 = getelementptr inbounds %struct.GPR, %struct.GPR* %6, i32 0, i32 1
  %8 = getelementptr inbounds %struct.Reg, %struct.Reg* %7, i32 0, i32 0
  %RAX = bitcast %union.anon* %8 to i64*
  %9 = load i64, i64* %RAX
  %10 = mul i64 %9, 4
  %11 = add i64 %10, 6306944
  %12 = load i64, i64* %PC
  %13 = add i64 %12, 8
  store i64 %13, i64* %PC
  %14 = call %struct.Memory* @_ZN12_GLOBAL__N_1L3CMPI2MnIjE2InIjEEEP6MemoryS6_R5StateT_T0_(%struct.Memory* %2, %struct.State* %0, i64 %11, i64 -1)
  ret %struct.Memory* %14
}


define %struct.Memory* @routine_je_.L_401a87(%struct.State*  dereferenceable(3376), i64, %struct.Memory*, i8* %BRANCH_TAKEN, i64 %rel_off1, i64 %rel_off2, i64 %rel_off3) {
block_400488:
  %3 = getelementptr inbounds %struct.State, %struct.State* %0, i32 0, i32 6
  %4 = getelementptr inbounds %struct.GPR, %struct.GPR* %3, i32 0, i32 33
  %5 = getelementptr inbounds %struct.Reg, %struct.Reg* %4, i32 0, i32 0
  %PC = bitcast %union.anon* %5 to i64*
  %6 = load i64, i64* %PC
  %7 = add i64 %6, %rel_off1
  %8 = load i64, i64* %PC
  %9 = add i64 %8, %rel_off2
  %10 = load i64, i64* %PC
  %11 = add i64 %10, %rel_off3
  store i64 %11, i64* %PC
  %12 = call %struct.Memory* @_ZN12_GLOBAL__N_1L2JZEP6MemoryR5State3RnWIhE2InImES7_(%struct.Memory* %2, %struct.State* %0, i8* %BRANCH_TAKEN, i64 %7, i64 %9)
  ret %struct.Memory* %12
}

define internal %struct.Memory* @_ZN12_GLOBAL__N_1L3MOVI3RnWImE2InIjEEEP6MemoryS6_R5StateT_T0_(%struct.Memory* readnone returned, %struct.State* nocapture readnone dereferenceable(3376), i64* nocapture, i64) #2 {
  %5 = and i64 %3, 4294967295
  store i64 %5, i64* %2, align 8
  ret %struct.Memory* %0
}

define %struct.Memory* @routine_movl__0xff___eax(%struct.State*  dereferenceable(3376), i64, %struct.Memory* ) #19 {
block_400488:
  %3 = getelementptr inbounds %struct.State, %struct.State* %0, i32 0, i32 6
  %4 = getelementptr inbounds %struct.GPR, %struct.GPR* %3, i32 0, i32 33
  %5 = getelementptr inbounds %struct.Reg, %struct.Reg* %4, i32 0, i32 0
  %PC = bitcast %union.anon* %5 to i64*
  %6 = getelementptr inbounds %struct.State, %struct.State* %0, i32 0, i32 6
  %7 = getelementptr inbounds %struct.GPR, %struct.GPR* %6, i32 0, i32 1
  %8 = getelementptr inbounds %struct.Reg, %struct.Reg* %7, i32 0, i32 0
  %RAX = bitcast %union.anon* %8 to i64*
  %9 = load i64, i64* %PC
  %10 = add i64 %9, 5
  store i64 %10, i64* %PC
  %11 = call %struct.Memory* @_ZN12_GLOBAL__N_1L3MOVI3RnWImE2InIjEEEP6MemoryS6_R5StateT_T0_(%struct.Memory* %2, %struct.State* %0, i64* %RAX, i64 255)
  ret %struct.Memory* %11
}


define %struct.Memory* @routine_movl_MINUS0x8__rbp____ecx(%struct.State*  dereferenceable(3376), i64, %struct.Memory* ) #19 {
block_400488:
  %3 = getelementptr inbounds %struct.State, %struct.State* %0, i32 0, i32 6
  %4 = getelementptr inbounds %struct.GPR, %struct.GPR* %3, i32 0, i32 33
  %5 = getelementptr inbounds %struct.Reg, %struct.Reg* %4, i32 0, i32 0
  %PC = bitcast %union.anon* %5 to i64*
  %6 = getelementptr inbounds %struct.State, %struct.State* %0, i32 0, i32 6
  %7 = getelementptr inbounds %struct.GPR, %struct.GPR* %6, i32 0, i32 5
  %8 = getelementptr inbounds %struct.Reg, %struct.Reg* %7, i32 0, i32 0
  %RCX = bitcast %union.anon* %8 to i64*
  %9 = getelementptr inbounds %struct.State, %struct.State* %0, i32 0, i32 6
  %10 = getelementptr inbounds %struct.GPR, %struct.GPR* %9, i32 0, i32 15
  %11 = getelementptr inbounds %struct.Reg, %struct.Reg* %10, i32 0, i32 0
  %RBP = bitcast %union.anon* %11 to i64*
  %12 = load i64, i64* %RBP
  %13 = sub i64 %12, 8
  %14 = load i64, i64* %PC
  %15 = add i64 %14, 3
  store i64 %15, i64* %PC
  %16 = call %struct.Memory* @_ZN12_GLOBAL__N_1L3MOVI3RnWImE2MnIjEEEP6MemoryS6_R5StateT_T0_(%struct.Memory* %2, %struct.State* %0, i64* %RCX, i64 %13)
  ret %struct.Memory* %16
}

define internal %struct.Memory* @_ZN12_GLOBAL__N_1L3SUBI3RnWImE2RnIjE2InIjEEEP6MemoryS8_R5StateT_T0_T1_(%struct.Memory* readnone returned, %struct.State* nocapture dereferenceable(3376), i64* nocapture, i64, i64) #0 {
  %6 = trunc i64 %3 to i32
  %7 = trunc i64 %4 to i32
  %8 = sub i32 %6, %7
  %9 = zext i32 %8 to i64
  store i64 %9, i64* %2, align 8
  %10 = icmp ult i32 %6, %7
  %11 = zext i1 %10 to i8
  %12 = getelementptr inbounds %struct.State, %struct.State* %1, i64 0, i32 2, i32 1
  store i8 %11, i8* %12, align 1
  %13 = and i32 %8, 255
  %14 = tail call i32 @llvm.ctpop.i32(i32 %13) #22
  %15 = trunc i32 %14 to i8
  %16 = and i8 %15, 1
  %17 = xor i8 %16, 1
  %18 = getelementptr inbounds %struct.State, %struct.State* %1, i64 0, i32 2, i32 3
  store i8 %17, i8* %18, align 1
  %19 = xor i64 %4, %3
  %20 = trunc i64 %19 to i32
  %21 = xor i32 %20, %8
  %22 = lshr i32 %21, 4
  %23 = trunc i32 %22 to i8
  %24 = and i8 %23, 1
  %25 = getelementptr inbounds %struct.State, %struct.State* %1, i64 0, i32 2, i32 5
  store i8 %24, i8* %25, align 1
  %26 = icmp eq i32 %8, 0
  %27 = zext i1 %26 to i8
  %28 = getelementptr inbounds %struct.State, %struct.State* %1, i64 0, i32 2, i32 7
  store i8 %27, i8* %28, align 1
  %29 = lshr i32 %8, 31
  %30 = trunc i32 %29 to i8
  %31 = getelementptr inbounds %struct.State, %struct.State* %1, i64 0, i32 2, i32 9
  store i8 %30, i8* %31, align 1
  %32 = lshr i32 %6, 31
  %33 = lshr i32 %7, 31
  %34 = xor i32 %33, %32
  %35 = xor i32 %29, %32
  %36 = add   i32 %35, %34
  %37 = icmp eq i32 %36, 2
  %38 = zext i1 %37 to i8
  %39 = getelementptr inbounds %struct.State, %struct.State* %1, i64 0, i32 2, i32 13
  store i8 %38, i8* %39, align 1
  ret %struct.Memory* %0
}

define %struct.Memory* @routine_subl__0x1___ecx(%struct.State*  dereferenceable(3376), i64, %struct.Memory* ) #19 {
block_400488:
  %3 = getelementptr inbounds %struct.State, %struct.State* %0, i32 0, i32 6
  %4 = getelementptr inbounds %struct.GPR, %struct.GPR* %3, i32 0, i32 33
  %5 = getelementptr inbounds %struct.Reg, %struct.Reg* %4, i32 0, i32 0
  %PC = bitcast %union.anon* %5 to i64*
  %6 = getelementptr inbounds %struct.State, %struct.State* %0, i32 0, i32 6
  %7 = getelementptr inbounds %struct.GPR, %struct.GPR* %6, i32 0, i32 5
  %8 = getelementptr inbounds %struct.Reg, %struct.Reg* %7, i32 0, i32 0
  %RCX = bitcast %union.anon* %8 to i64*
  %9 = load i64, i64* %RCX
  %10 = load i64, i64* %PC
  %11 = add i64 %10, 3
  store i64 %11, i64* %PC
  %12 = call %struct.Memory* @_ZN12_GLOBAL__N_1L3SUBI3RnWImE2RnIjE2InIjEEEP6MemoryS8_R5StateT_T0_T1_(%struct.Memory* %2, %struct.State* %0, i64* %RCX, i64 %9, i64 1)
  ret %struct.Memory* %12
}


define %struct.Memory* @routine_movslq__ecx___rdx(%struct.State*  dereferenceable(3376), i64, %struct.Memory* ) #19 {
block_400488:
  %3 = getelementptr inbounds %struct.State, %struct.State* %0, i32 0, i32 6
  %4 = getelementptr inbounds %struct.GPR, %struct.GPR* %3, i32 0, i32 33
  %5 = getelementptr inbounds %struct.Reg, %struct.Reg* %4, i32 0, i32 0
  %PC = bitcast %union.anon* %5 to i64*
  %6 = getelementptr inbounds %struct.State, %struct.State* %0, i32 0, i32 6
  %7 = getelementptr inbounds %struct.GPR, %struct.GPR* %6, i32 0, i32 5
  %8 = getelementptr inbounds %struct.Reg, %struct.Reg* %7, i32 0, i32 0
  %ECX = bitcast %union.anon* %8 to i32*
  %9 = getelementptr inbounds %struct.State, %struct.State* %0, i32 0, i32 6
  %10 = getelementptr inbounds %struct.GPR, %struct.GPR* %9, i32 0, i32 7
  %11 = getelementptr inbounds %struct.Reg, %struct.Reg* %10, i32 0, i32 0
  %RDX = bitcast %union.anon* %11 to i64*
  %12 = load i32, i32* %ECX
  %13 = zext i32 %12 to i64
  %14 = load i64, i64* %PC
  %15 = add i64 %14, 3
  store i64 %15, i64* %PC
  %16 = call %struct.Memory* @_ZN12_GLOBAL__N_1L5MOVSXI3RnWImE2RnIjElEEP6MemoryS6_R5StateT_T0_(%struct.Memory* %2, %struct.State* %0, i64* %RDX, i64 %13)
  ret %struct.Memory* %16
}


define %struct.Memory* @routine_movl_0x604090___rdx_4____ecx(%struct.State*  dereferenceable(3376), i64, %struct.Memory* ) #19 {
block_400488:
  %3 = getelementptr inbounds %struct.State, %struct.State* %0, i32 0, i32 6
  %4 = getelementptr inbounds %struct.GPR, %struct.GPR* %3, i32 0, i32 33
  %5 = getelementptr inbounds %struct.Reg, %struct.Reg* %4, i32 0, i32 0
  %PC = bitcast %union.anon* %5 to i64*
  %6 = getelementptr inbounds %struct.State, %struct.State* %0, i32 0, i32 6
  %7 = getelementptr inbounds %struct.GPR, %struct.GPR* %6, i32 0, i32 5
  %8 = getelementptr inbounds %struct.Reg, %struct.Reg* %7, i32 0, i32 0
  %RCX = bitcast %union.anon* %8 to i64*
  %9 = getelementptr inbounds %struct.State, %struct.State* %0, i32 0, i32 6
  %10 = getelementptr inbounds %struct.GPR, %struct.GPR* %9, i32 0, i32 7
  %11 = getelementptr inbounds %struct.Reg, %struct.Reg* %10, i32 0, i32 0
  %RDX = bitcast %union.anon* %11 to i64*
  %12 = load i64, i64* %RDX
  %13 = mul i64 %12, 4
  %14 = add i64 %13, 6307984
  %15 = load i64, i64* %PC
  %16 = add i64 %15, 7
  store i64 %16, i64* %PC
  %17 = call %struct.Memory* @_ZN12_GLOBAL__N_1L3MOVI3RnWImE2MnIjEEEP6MemoryS6_R5StateT_T0_(%struct.Memory* %2, %struct.State* %0, i64* %RCX, i64 %14)
  ret %struct.Memory* %17
}


define %struct.Memory* @routine_movslq_MINUS0x8__rbp____rdx(%struct.State*  dereferenceable(3376), i64, %struct.Memory* ) #19 {
block_400488:
  %3 = getelementptr inbounds %struct.State, %struct.State* %0, i32 0, i32 6
  %4 = getelementptr inbounds %struct.GPR, %struct.GPR* %3, i32 0, i32 33
  %5 = getelementptr inbounds %struct.Reg, %struct.Reg* %4, i32 0, i32 0
  %PC = bitcast %union.anon* %5 to i64*
  %6 = getelementptr inbounds %struct.State, %struct.State* %0, i32 0, i32 6
  %7 = getelementptr inbounds %struct.GPR, %struct.GPR* %6, i32 0, i32 7
  %8 = getelementptr inbounds %struct.Reg, %struct.Reg* %7, i32 0, i32 0
  %RDX = bitcast %union.anon* %8 to i64*
  %9 = getelementptr inbounds %struct.State, %struct.State* %0, i32 0, i32 6
  %10 = getelementptr inbounds %struct.GPR, %struct.GPR* %9, i32 0, i32 15
  %11 = getelementptr inbounds %struct.Reg, %struct.Reg* %10, i32 0, i32 0
  %RBP = bitcast %union.anon* %11 to i64*
  %12 = load i64, i64* %RBP
  %13 = sub i64 %12, 8
  %14 = load i64, i64* %PC
  %15 = add i64 %14, 4
  store i64 %15, i64* %PC
  %16 = call %struct.Memory* @_ZN12_GLOBAL__N_1L5MOVSXI3RnWImE2MnIjElEEP6MemoryS6_R5StateT_T0_(%struct.Memory* %2, %struct.State* %0, i64* %RDX, i64 %13)
  ret %struct.Memory* %16
}


define %struct.Memory* @routine_movl_0x603c80___rdx_4____esi(%struct.State*  dereferenceable(3376), i64, %struct.Memory* ) #19 {
block_400488:
  %3 = getelementptr inbounds %struct.State, %struct.State* %0, i32 0, i32 6
  %4 = getelementptr inbounds %struct.GPR, %struct.GPR* %3, i32 0, i32 33
  %5 = getelementptr inbounds %struct.Reg, %struct.Reg* %4, i32 0, i32 0
  %PC = bitcast %union.anon* %5 to i64*
  %6 = getelementptr inbounds %struct.State, %struct.State* %0, i32 0, i32 6
  %7 = getelementptr inbounds %struct.GPR, %struct.GPR* %6, i32 0, i32 7
  %8 = getelementptr inbounds %struct.Reg, %struct.Reg* %7, i32 0, i32 0
  %RDX = bitcast %union.anon* %8 to i64*
  %9 = getelementptr inbounds %struct.State, %struct.State* %0, i32 0, i32 6
  %10 = getelementptr inbounds %struct.GPR, %struct.GPR* %9, i32 0, i32 9
  %11 = getelementptr inbounds %struct.Reg, %struct.Reg* %10, i32 0, i32 0
  %RSI = bitcast %union.anon* %11 to i64*
  %12 = load i64, i64* %RDX
  %13 = mul i64 %12, 4
  %14 = add i64 %13, 6306944
  %15 = load i64, i64* %PC
  %16 = add i64 %15, 7
  store i64 %16, i64* %PC
  %17 = call %struct.Memory* @_ZN12_GLOBAL__N_1L3MOVI3RnWImE2MnIjEEEP6MemoryS6_R5StateT_T0_(%struct.Memory* %2, %struct.State* %0, i64* %RSI, i64 %14)
  ret %struct.Memory* %17
}

define internal %struct.Memory* @_ZN12_GLOBAL__N_1L3ADDI3RnWImE2RnIjE2MnIjEEEP6MemoryS8_R5StateT_T0_T1_(%struct.Memory*, %struct.State* nocapture dereferenceable(3376), i64* nocapture, i64, i64) #0 {
  %6 = trunc i64 %3 to i32
  %7 = inttoptr i64 %4 to i32*
  %8 = load i32, i32* %7
  %9 = add i32 %8, %6
  %10 = zext i32 %9 to i64
  store i64 %10, i64* %2, align 8
  %11 = icmp ult i32 %9, %6
  %12 = icmp ult i32 %9, %8
  %13 = or i1 %11, %12
  %14 = zext i1 %13 to i8
  %15 = getelementptr inbounds %struct.State, %struct.State* %1, i64 0, i32 2, i32 1
  store i8 %14, i8* %15, align 1
  %16 = and i32 %9, 255
  %17 = tail call i32 @llvm.ctpop.i32(i32 %16) #22
  %18 = trunc i32 %17 to i8
  %19 = and i8 %18, 1
  %20 = xor i8 %19, 1
  %21 = getelementptr inbounds %struct.State, %struct.State* %1, i64 0, i32 2, i32 3
  store i8 %20, i8* %21, align 1
  %22 = xor i32 %8, %6
  %23 = xor i32 %22, %9
  %24 = lshr i32 %23, 4
  %25 = trunc i32 %24 to i8
  %26 = and i8 %25, 1
  %27 = getelementptr inbounds %struct.State, %struct.State* %1, i64 0, i32 2, i32 5
  store i8 %26, i8* %27, align 1
  %28 = icmp eq i32 %9, 0
  %29 = zext i1 %28 to i8
  %30 = getelementptr inbounds %struct.State, %struct.State* %1, i64 0, i32 2, i32 7
  store i8 %29, i8* %30, align 1
  %31 = lshr i32 %9, 31
  %32 = trunc i32 %31 to i8
  %33 = getelementptr inbounds %struct.State, %struct.State* %1, i64 0, i32 2, i32 9
  store i8 %32, i8* %33, align 1
  %34 = lshr i32 %6, 31
  %35 = lshr i32 %8, 31
  %36 = xor i32 %31, %34
  %37 = xor i32 %31, %35
  %38 = add   i32 %36, %37
  %39 = icmp eq i32 %38, 2
  %40 = zext i1 %39 to i8
  %41 = getelementptr inbounds %struct.State, %struct.State* %1, i64 0, i32 2, i32 13
  store i8 %40, i8* %41, align 1
  ret %struct.Memory* %0
}

define %struct.Memory* @routine_addl_MINUS0xc__rbp____esi(%struct.State*  dereferenceable(3376), i64, %struct.Memory* ) #19 {
block_400488:
  %3 = getelementptr inbounds %struct.State, %struct.State* %0, i32 0, i32 6
  %4 = getelementptr inbounds %struct.GPR, %struct.GPR* %3, i32 0, i32 33
  %5 = getelementptr inbounds %struct.Reg, %struct.Reg* %4, i32 0, i32 0
  %PC = bitcast %union.anon* %5 to i64*
  %6 = getelementptr inbounds %struct.State, %struct.State* %0, i32 0, i32 6
  %7 = getelementptr inbounds %struct.GPR, %struct.GPR* %6, i32 0, i32 9
  %8 = getelementptr inbounds %struct.Reg, %struct.Reg* %7, i32 0, i32 0
  %RSI = bitcast %union.anon* %8 to i64*
  %9 = getelementptr inbounds %struct.State, %struct.State* %0, i32 0, i32 6
  %10 = getelementptr inbounds %struct.GPR, %struct.GPR* %9, i32 0, i32 15
  %11 = getelementptr inbounds %struct.Reg, %struct.Reg* %10, i32 0, i32 0
  %RBP = bitcast %union.anon* %11 to i64*
  %12 = load i64, i64* %RSI
  %13 = load i64, i64* %RBP
  %14 = sub i64 %13, 12
  %15 = load i64, i64* %PC
  %16 = add i64 %15, 3
  store i64 %16, i64* %PC
  %17 = call %struct.Memory* @_ZN12_GLOBAL__N_1L3ADDI3RnWImE2RnIjE2MnIjEEEP6MemoryS8_R5StateT_T0_T1_(%struct.Memory* %2, %struct.State* %0, i64* %RSI, i64 %12, i64 %14)
  ret %struct.Memory* %17
}


define %struct.Memory* @routine_movl__eax__MINUS0x10__rbp_(%struct.State*  dereferenceable(3376), i64, %struct.Memory* ) #19 {
block_400488:
  %3 = getelementptr inbounds %struct.State, %struct.State* %0, i32 0, i32 6
  %4 = getelementptr inbounds %struct.GPR, %struct.GPR* %3, i32 0, i32 33
  %5 = getelementptr inbounds %struct.Reg, %struct.Reg* %4, i32 0, i32 0
  %PC = bitcast %union.anon* %5 to i64*
  %6 = getelementptr inbounds %struct.State, %struct.State* %0, i32 0, i32 6
  %7 = getelementptr inbounds %struct.GPR, %struct.GPR* %6, i32 0, i32 1
  %8 = getelementptr inbounds %struct.Reg, %struct.Reg* %7, i32 0, i32 0
  %EAX = bitcast %union.anon* %8 to i32*
  %9 = getelementptr inbounds %struct.State, %struct.State* %0, i32 0, i32 6
  %10 = getelementptr inbounds %struct.GPR, %struct.GPR* %9, i32 0, i32 15
  %11 = getelementptr inbounds %struct.Reg, %struct.Reg* %10, i32 0, i32 0
  %RBP = bitcast %union.anon* %11 to i64*
  %12 = load i64, i64* %RBP
  %13 = sub i64 %12, 16
  %14 = load i32, i32* %EAX
  %15 = zext i32 %14 to i64
  %16 = load i64, i64* %PC
  %17 = add i64 %16, 3
  store i64 %17, i64* %PC
  %18 = call %struct.Memory* @_ZN12_GLOBAL__N_1L3MOVI3MnWIjE2RnIjEEEP6MemoryS6_R5StateT_T0_(%struct.Memory* %2, %struct.State* %0, i64 %13, i64 %15)
  ret %struct.Memory* %18
}

define internal %struct.Memory* @_ZN12_GLOBAL__N_1L3MOVI3RnWImE2RnIjEEEP6MemoryS6_R5StateT_T0_(%struct.Memory* readnone returned, %struct.State* nocapture readnone dereferenceable(3376), i64* nocapture, i64) #2 {
  %5 = and i64 %3, 4294967295
  store i64 %5, i64* %2, align 8
  ret %struct.Memory* %0
}

define %struct.Memory* @routine_movl__esi___eax(%struct.State*  dereferenceable(3376), i64, %struct.Memory* ) #19 {
block_400488:
  %3 = getelementptr inbounds %struct.State, %struct.State* %0, i32 0, i32 6
  %4 = getelementptr inbounds %struct.GPR, %struct.GPR* %3, i32 0, i32 33
  %5 = getelementptr inbounds %struct.Reg, %struct.Reg* %4, i32 0, i32 0
  %PC = bitcast %union.anon* %5 to i64*
  %6 = getelementptr inbounds %struct.State, %struct.State* %0, i32 0, i32 6
  %7 = getelementptr inbounds %struct.GPR, %struct.GPR* %6, i32 0, i32 9
  %8 = getelementptr inbounds %struct.Reg, %struct.Reg* %7, i32 0, i32 0
  %ESI = bitcast %union.anon* %8 to i32*
  %9 = getelementptr inbounds %struct.State, %struct.State* %0, i32 0, i32 6
  %10 = getelementptr inbounds %struct.GPR, %struct.GPR* %9, i32 0, i32 1
  %11 = getelementptr inbounds %struct.Reg, %struct.Reg* %10, i32 0, i32 0
  %RAX = bitcast %union.anon* %11 to i64*
  %12 = load i32, i32* %ESI
  %13 = zext i32 %12 to i64
  %14 = load i64, i64* %PC
  %15 = add i64 %14, 2
  store i64 %15, i64* %PC
  %16 = call %struct.Memory* @_ZN12_GLOBAL__N_1L3MOVI3RnWImE2RnIjEEEP6MemoryS6_R5StateT_T0_(%struct.Memory* %2, %struct.State* %0, i64* %RAX, i64 %13)
  ret %struct.Memory* %16
}

define internal %struct.Memory* @_ZN12_GLOBAL__N_1L7CDQ_EAXEP6MemoryR5State(%struct.Memory* readnone returned, %struct.State* nocapture dereferenceable(3376)) #2 {
  %3 = getelementptr inbounds %struct.State, %struct.State* %1, i64 0, i32 6, i32 7, i32 0, i32 0
  %4 = getelementptr inbounds %struct.State, %struct.State* %1, i64 0, i32 6, i32 1, i32 0
  %5 = bitcast %union.anon* %4 to i32*
  %6 = load i32, i32* %5, align 8
  %7 = sext i32 %6 to i64
  %8 = lshr i64 %7, 32
  store i64 %8, i64* %3, align 8
  ret %struct.Memory* %0
}

define %struct.Memory* @routine_cltd(%struct.State*  dereferenceable(3376), i64, %struct.Memory* ) #19 {
block_400488:
  %3 = getelementptr inbounds %struct.State, %struct.State* %0, i32 0, i32 6
  %4 = getelementptr inbounds %struct.GPR, %struct.GPR* %3, i32 0, i32 33
  %5 = getelementptr inbounds %struct.Reg, %struct.Reg* %4, i32 0, i32 0
  %PC = bitcast %union.anon* %5 to i64*
  %6 = load i64, i64* %PC
  %7 = add i64 %6, 1
  store i64 %7, i64* %PC
  %8 = call %struct.Memory* @_ZN12_GLOBAL__N_1L7CDQ_EAXEP6MemoryR5State(%struct.Memory* %2, %struct.State* %0)
  ret %struct.Memory* %8
}


define %struct.Memory* @routine_movl_MINUS0x10__rbp____esi(%struct.State*  dereferenceable(3376), i64, %struct.Memory* ) #19 {
block_400488:
  %3 = getelementptr inbounds %struct.State, %struct.State* %0, i32 0, i32 6
  %4 = getelementptr inbounds %struct.GPR, %struct.GPR* %3, i32 0, i32 33
  %5 = getelementptr inbounds %struct.Reg, %struct.Reg* %4, i32 0, i32 0
  %PC = bitcast %union.anon* %5 to i64*
  %6 = getelementptr inbounds %struct.State, %struct.State* %0, i32 0, i32 6
  %7 = getelementptr inbounds %struct.GPR, %struct.GPR* %6, i32 0, i32 9
  %8 = getelementptr inbounds %struct.Reg, %struct.Reg* %7, i32 0, i32 0
  %RSI = bitcast %union.anon* %8 to i64*
  %9 = getelementptr inbounds %struct.State, %struct.State* %0, i32 0, i32 6
  %10 = getelementptr inbounds %struct.GPR, %struct.GPR* %9, i32 0, i32 15
  %11 = getelementptr inbounds %struct.Reg, %struct.Reg* %10, i32 0, i32 0
  %RBP = bitcast %union.anon* %11 to i64*
  %12 = load i64, i64* %RBP
  %13 = sub i64 %12, 16
  %14 = load i64, i64* %PC
  %15 = add i64 %14, 3
  store i64 %15, i64* %PC
  %16 = call %struct.Memory* @_ZN12_GLOBAL__N_1L3MOVI3RnWImE2MnIjEEEP6MemoryS6_R5StateT_T0_(%struct.Memory* %2, %struct.State* %0, i64* %RSI, i64 %13)
  ret %struct.Memory* %16
}

define internal %struct.Memory* @_ZN12_GLOBAL__N_1L10IDIVedxeaxI2RnIjEEEP6MemoryS4_R5StateT_(%struct.Memory*, %struct.State* dereferenceable(3376), i64) #0 {
  %4 = getelementptr inbounds %struct.State, %struct.State* %1, i64 0, i32 6, i32 1, i32 0
  %5 = bitcast %union.anon* %4 to i32*
  %6 = load i32, i32* %5, align 8
  %7 = zext i32 %6 to i64
  %8 = getelementptr inbounds %struct.State, %struct.State* %1, i64 0, i32 6, i32 7, i32 0
  %9 = bitcast %union.anon* %8 to i32*
  %10 = load i32, i32* %9, align 8
  %11 = zext i32 %10 to i64
  %12 = shl i64 %2, 32
  %13 = ashr exact i64 %12, 32
  %14 = shl  i64 %11, 32
  %15 = or i64 %14, %7
  %16 = sdiv i64 %15, %13
  %17 = shl i64 %16, 32
  %18 = ashr exact i64 %17, 32
  %19 = icmp eq i64 %16, %18
  br i1 %19, label %24, label %20

; <label>:20:                                     ; preds = %3
  %21 = getelementptr inbounds %struct.State, %struct.State* %1, i64 0, i32 6, i32 33, i32 0, i32 0
  %22 = load i64, i64* %21, align 8
  %23 = tail call %struct.Memory* @__remill_error(%struct.State* nonnull dereferenceable(3376) %1, i64 %22, %struct.Memory* %0) #21
  br label %36

; <label>:24:                                     ; preds = %3
  %25 = srem i64 %15, %13
  %26 = getelementptr inbounds %union.anon, %union.anon* %4, i64 0, i32 0
  %27 = and i64 %16, 4294967295
  store i64 %27, i64* %26, align 8
  %28 = getelementptr inbounds %union.anon, %union.anon* %8, i64 0, i32 0
  %29 = and i64 %25, 4294967295
  store i64 %29, i64* %28, align 8
  %30 = getelementptr inbounds %struct.State, %struct.State* %1, i64 0, i32 2, i32 1
  store i8 0, i8* %30, align 1
  %31 = getelementptr inbounds %struct.State, %struct.State* %1, i64 0, i32 2, i32 3
  store i8 0, i8* %31, align 1
  %32 = getelementptr inbounds %struct.State, %struct.State* %1, i64 0, i32 2, i32 5
  store i8 0, i8* %32, align 1
  %33 = getelementptr inbounds %struct.State, %struct.State* %1, i64 0, i32 2, i32 7
  store i8 0, i8* %33, align 1
  %34 = getelementptr inbounds %struct.State, %struct.State* %1, i64 0, i32 2, i32 9
  store i8 0, i8* %34, align 1
  %35 = getelementptr inbounds %struct.State, %struct.State* %1, i64 0, i32 2, i32 13
  store i8 0, i8* %35, align 1
  br label %36

; <label>:36:                                     ; preds = %24, %20
  %37 = phi %struct.Memory* [ %23, %20 ], [ %0, %24 ]
  ret %struct.Memory* %37
}

define %struct.Memory* @routine_idivl__esi(%struct.State*  dereferenceable(3376), i64, %struct.Memory* ) #19 {
block_400488:
  %3 = getelementptr inbounds %struct.State, %struct.State* %0, i32 0, i32 6
  %4 = getelementptr inbounds %struct.GPR, %struct.GPR* %3, i32 0, i32 33
  %5 = getelementptr inbounds %struct.Reg, %struct.Reg* %4, i32 0, i32 0
  %PC = bitcast %union.anon* %5 to i64*
  %6 = getelementptr inbounds %struct.State, %struct.State* %0, i32 0, i32 6
  %7 = getelementptr inbounds %struct.GPR, %struct.GPR* %6, i32 0, i32 9
  %8 = getelementptr inbounds %struct.Reg, %struct.Reg* %7, i32 0, i32 0
  %ESI = bitcast %union.anon* %8 to i32*
  %9 = load i32, i32* %ESI
  %10 = zext i32 %9 to i64
  %11 = load i64, i64* %PC
  %12 = add i64 %11, 2
  store i64 %12, i64* %PC
  %13 = call %struct.Memory* @_ZN12_GLOBAL__N_1L10IDIVedxeaxI2RnIjEEEP6MemoryS4_R5StateT_(%struct.Memory* %2, %struct.State* %0, i64 %10)
  ret %struct.Memory* %13
}


define %struct.Memory* @routine_movslq__edx___rdi(%struct.State*  dereferenceable(3376), i64, %struct.Memory* ) #19 {
block_400488:
  %3 = getelementptr inbounds %struct.State, %struct.State* %0, i32 0, i32 6
  %4 = getelementptr inbounds %struct.GPR, %struct.GPR* %3, i32 0, i32 33
  %5 = getelementptr inbounds %struct.Reg, %struct.Reg* %4, i32 0, i32 0
  %PC = bitcast %union.anon* %5 to i64*
  %6 = getelementptr inbounds %struct.State, %struct.State* %0, i32 0, i32 6
  %7 = getelementptr inbounds %struct.GPR, %struct.GPR* %6, i32 0, i32 7
  %8 = getelementptr inbounds %struct.Reg, %struct.Reg* %7, i32 0, i32 0
  %EDX = bitcast %union.anon* %8 to i32*
  %9 = getelementptr inbounds %struct.State, %struct.State* %0, i32 0, i32 6
  %10 = getelementptr inbounds %struct.GPR, %struct.GPR* %9, i32 0, i32 11
  %11 = getelementptr inbounds %struct.Reg, %struct.Reg* %10, i32 0, i32 0
  %RDI = bitcast %union.anon* %11 to i64*
  %12 = load i32, i32* %EDX
  %13 = zext i32 %12 to i64
  %14 = load i64, i64* %PC
  %15 = add i64 %14, 3
  store i64 %15, i64* %PC
  %16 = call %struct.Memory* @_ZN12_GLOBAL__N_1L5MOVSXI3RnWImE2RnIjElEEP6MemoryS6_R5StateT_T0_(%struct.Memory* %2, %struct.State* %0, i64* %RDI, i64 %13)
  ret %struct.Memory* %16
}


define %struct.Memory* @routine_xorl_0x603880___rdi_4____ecx(%struct.State*  dereferenceable(3376), i64, %struct.Memory* ) #19 {
block_400488:
  %3 = getelementptr inbounds %struct.State, %struct.State* %0, i32 0, i32 6
  %4 = getelementptr inbounds %struct.GPR, %struct.GPR* %3, i32 0, i32 33
  %5 = getelementptr inbounds %struct.Reg, %struct.Reg* %4, i32 0, i32 0
  %PC = bitcast %union.anon* %5 to i64*
  %6 = getelementptr inbounds %struct.State, %struct.State* %0, i32 0, i32 6
  %7 = getelementptr inbounds %struct.GPR, %struct.GPR* %6, i32 0, i32 5
  %8 = getelementptr inbounds %struct.Reg, %struct.Reg* %7, i32 0, i32 0
  %RCX = bitcast %union.anon* %8 to i64*
  %9 = getelementptr inbounds %struct.State, %struct.State* %0, i32 0, i32 6
  %10 = getelementptr inbounds %struct.GPR, %struct.GPR* %9, i32 0, i32 11
  %11 = getelementptr inbounds %struct.Reg, %struct.Reg* %10, i32 0, i32 0
  %RDI = bitcast %union.anon* %11 to i64*
  %12 = load i64, i64* %RCX
  %13 = load i64, i64* %RDI
  %14 = mul i64 %13, 4
  %15 = add i64 %14, 6305920
  %16 = load i64, i64* %PC
  %17 = add i64 %16, 7
  store i64 %17, i64* %PC
  %18 = call %struct.Memory* @_ZN12_GLOBAL__N_1L3XORI3RnWImE2RnIjE2MnIjEEEP6MemoryS8_R5StateT_T0_T1_(%struct.Memory* %2, %struct.State* %0, i64* %RCX, i64 %12, i64 %15)
  ret %struct.Memory* %18
}


define %struct.Memory* @routine_movslq_MINUS0x8__rbp____rdi(%struct.State*  dereferenceable(3376), i64, %struct.Memory* ) #19 {
block_400488:
  %3 = getelementptr inbounds %struct.State, %struct.State* %0, i32 0, i32 6
  %4 = getelementptr inbounds %struct.GPR, %struct.GPR* %3, i32 0, i32 33
  %5 = getelementptr inbounds %struct.Reg, %struct.Reg* %4, i32 0, i32 0
  %PC = bitcast %union.anon* %5 to i64*
  %6 = getelementptr inbounds %struct.State, %struct.State* %0, i32 0, i32 6
  %7 = getelementptr inbounds %struct.GPR, %struct.GPR* %6, i32 0, i32 11
  %8 = getelementptr inbounds %struct.Reg, %struct.Reg* %7, i32 0, i32 0
  %RDI = bitcast %union.anon* %8 to i64*
  %9 = getelementptr inbounds %struct.State, %struct.State* %0, i32 0, i32 6
  %10 = getelementptr inbounds %struct.GPR, %struct.GPR* %9, i32 0, i32 15
  %11 = getelementptr inbounds %struct.Reg, %struct.Reg* %10, i32 0, i32 0
  %RBP = bitcast %union.anon* %11 to i64*
  %12 = load i64, i64* %RBP
  %13 = sub i64 %12, 8
  %14 = load i64, i64* %PC
  %15 = add i64 %14, 4
  store i64 %15, i64* %PC
  %16 = call %struct.Memory* @_ZN12_GLOBAL__N_1L5MOVSXI3RnWImE2MnIjElEEP6MemoryS6_R5StateT_T0_(%struct.Memory* %2, %struct.State* %0, i64* %RDI, i64 %13)
  ret %struct.Memory* %16
}


define %struct.Memory* @routine_movl__ecx__0x604090___rdi_4_(%struct.State*  dereferenceable(3376), i64, %struct.Memory* ) #19 {
block_400488:
  %3 = getelementptr inbounds %struct.State, %struct.State* %0, i32 0, i32 6
  %4 = getelementptr inbounds %struct.GPR, %struct.GPR* %3, i32 0, i32 33
  %5 = getelementptr inbounds %struct.Reg, %struct.Reg* %4, i32 0, i32 0
  %PC = bitcast %union.anon* %5 to i64*
  %6 = getelementptr inbounds %struct.State, %struct.State* %0, i32 0, i32 6
  %7 = getelementptr inbounds %struct.GPR, %struct.GPR* %6, i32 0, i32 5
  %8 = getelementptr inbounds %struct.Reg, %struct.Reg* %7, i32 0, i32 0
  %ECX = bitcast %union.anon* %8 to i32*
  %9 = getelementptr inbounds %struct.State, %struct.State* %0, i32 0, i32 6
  %10 = getelementptr inbounds %struct.GPR, %struct.GPR* %9, i32 0, i32 11
  %11 = getelementptr inbounds %struct.Reg, %struct.Reg* %10, i32 0, i32 0
  %RDI = bitcast %union.anon* %11 to i64*
  %12 = load i64, i64* %RDI
  %13 = mul i64 %12, 4
  %14 = add i64 %13, 6307984
  %15 = load i32, i32* %ECX
  %16 = zext i32 %15 to i64
  %17 = load i64, i64* %PC
  %18 = add i64 %17, 7
  store i64 %18, i64* %PC
  %19 = call %struct.Memory* @_ZN12_GLOBAL__N_1L3MOVI3MnWIjE2RnIjEEEP6MemoryS6_R5StateT_T0_(%struct.Memory* %2, %struct.State* %0, i64 %14, i64 %16)
  ret %struct.Memory* %19
}


define %struct.Memory* @routine_jmpq_.L_401aa2(%struct.State*  dereferenceable(3376), i64, %struct.Memory*, i64 %rel_off1, i64 %rel_off2) {
block_400488:
  %3 = getelementptr inbounds %struct.State, %struct.State* %0, i32 0, i32 6
  %4 = getelementptr inbounds %struct.GPR, %struct.GPR* %3, i32 0, i32 33
  %5 = getelementptr inbounds %struct.Reg, %struct.Reg* %4, i32 0, i32 0
  %PC = bitcast %union.anon* %5 to i64*
  %6 = load i64, i64* %PC
  %7 = add i64 %6, %rel_off1
  %8 = load i64, i64* %PC
  %9 = add i64 %8, %rel_off2
  store i64 %9, i64* %PC
  %10 = call %struct.Memory* @_ZN12_GLOBAL__N_1L3JMPI2InImEEEP6MemoryS4_R5StateT_(%struct.Memory* %2, %struct.State* %0, i64 %7)
  ret %struct.Memory* %10
}


define %struct.Memory* @routine_movl_MINUS0x8__rbp____eax(%struct.State*  dereferenceable(3376), i64, %struct.Memory* ) #19 {
block_400488:
  %3 = getelementptr inbounds %struct.State, %struct.State* %0, i32 0, i32 6
  %4 = getelementptr inbounds %struct.GPR, %struct.GPR* %3, i32 0, i32 33
  %5 = getelementptr inbounds %struct.Reg, %struct.Reg* %4, i32 0, i32 0
  %PC = bitcast %union.anon* %5 to i64*
  %6 = getelementptr inbounds %struct.State, %struct.State* %0, i32 0, i32 6
  %7 = getelementptr inbounds %struct.GPR, %struct.GPR* %6, i32 0, i32 1
  %8 = getelementptr inbounds %struct.Reg, %struct.Reg* %7, i32 0, i32 0
  %RAX = bitcast %union.anon* %8 to i64*
  %9 = getelementptr inbounds %struct.State, %struct.State* %0, i32 0, i32 6
  %10 = getelementptr inbounds %struct.GPR, %struct.GPR* %9, i32 0, i32 15
  %11 = getelementptr inbounds %struct.Reg, %struct.Reg* %10, i32 0, i32 0
  %RBP = bitcast %union.anon* %11 to i64*
  %12 = load i64, i64* %RBP
  %13 = sub i64 %12, 8
  %14 = load i64, i64* %PC
  %15 = add i64 %14, 3
  store i64 %15, i64* %PC
  %16 = call %struct.Memory* @_ZN12_GLOBAL__N_1L3MOVI3RnWImE2MnIjEEEP6MemoryS6_R5StateT_T0_(%struct.Memory* %2, %struct.State* %0, i64* %RAX, i64 %13)
  ret %struct.Memory* %16
}


define %struct.Memory* @routine_subl__0x1___eax(%struct.State*  dereferenceable(3376), i64, %struct.Memory* ) #19 {
block_400488:
  %3 = getelementptr inbounds %struct.State, %struct.State* %0, i32 0, i32 6
  %4 = getelementptr inbounds %struct.GPR, %struct.GPR* %3, i32 0, i32 33
  %5 = getelementptr inbounds %struct.Reg, %struct.Reg* %4, i32 0, i32 0
  %PC = bitcast %union.anon* %5 to i64*
  %6 = getelementptr inbounds %struct.State, %struct.State* %0, i32 0, i32 6
  %7 = getelementptr inbounds %struct.GPR, %struct.GPR* %6, i32 0, i32 1
  %8 = getelementptr inbounds %struct.Reg, %struct.Reg* %7, i32 0, i32 0
  %RAX = bitcast %union.anon* %8 to i64*
  %9 = load i64, i64* %RAX
  %10 = load i64, i64* %PC
  %11 = add i64 %10, 3
  store i64 %11, i64* %PC
  %12 = call %struct.Memory* @_ZN12_GLOBAL__N_1L3SUBI3RnWImE2RnIjE2InIjEEEP6MemoryS8_R5StateT_T0_T1_(%struct.Memory* %2, %struct.State* %0, i64* %RAX, i64 %9, i64 1)
  ret %struct.Memory* %12
}


define %struct.Memory* @routine_movslq__eax___rcx(%struct.State*  dereferenceable(3376), i64, %struct.Memory* ) #19 {
block_400488:
  %3 = getelementptr inbounds %struct.State, %struct.State* %0, i32 0, i32 6
  %4 = getelementptr inbounds %struct.GPR, %struct.GPR* %3, i32 0, i32 33
  %5 = getelementptr inbounds %struct.Reg, %struct.Reg* %4, i32 0, i32 0
  %PC = bitcast %union.anon* %5 to i64*
  %6 = getelementptr inbounds %struct.State, %struct.State* %0, i32 0, i32 6
  %7 = getelementptr inbounds %struct.GPR, %struct.GPR* %6, i32 0, i32 1
  %8 = getelementptr inbounds %struct.Reg, %struct.Reg* %7, i32 0, i32 0
  %EAX = bitcast %union.anon* %8 to i32*
  %9 = getelementptr inbounds %struct.State, %struct.State* %0, i32 0, i32 6
  %10 = getelementptr inbounds %struct.GPR, %struct.GPR* %9, i32 0, i32 5
  %11 = getelementptr inbounds %struct.Reg, %struct.Reg* %10, i32 0, i32 0
  %RCX = bitcast %union.anon* %11 to i64*
  %12 = load i32, i32* %EAX
  %13 = zext i32 %12 to i64
  %14 = load i64, i64* %PC
  %15 = add i64 %14, 3
  store i64 %15, i64* %PC
  %16 = call %struct.Memory* @_ZN12_GLOBAL__N_1L5MOVSXI3RnWImE2RnIjElEEP6MemoryS6_R5StateT_T0_(%struct.Memory* %2, %struct.State* %0, i64* %RCX, i64 %13)
  ret %struct.Memory* %16
}


define %struct.Memory* @routine_movl_0x604090___rcx_4____eax(%struct.State*  dereferenceable(3376), i64, %struct.Memory* ) #19 {
block_400488:
  %3 = getelementptr inbounds %struct.State, %struct.State* %0, i32 0, i32 6
  %4 = getelementptr inbounds %struct.GPR, %struct.GPR* %3, i32 0, i32 33
  %5 = getelementptr inbounds %struct.Reg, %struct.Reg* %4, i32 0, i32 0
  %PC = bitcast %union.anon* %5 to i64*
  %6 = getelementptr inbounds %struct.State, %struct.State* %0, i32 0, i32 6
  %7 = getelementptr inbounds %struct.GPR, %struct.GPR* %6, i32 0, i32 1
  %8 = getelementptr inbounds %struct.Reg, %struct.Reg* %7, i32 0, i32 0
  %RAX = bitcast %union.anon* %8 to i64*
  %9 = getelementptr inbounds %struct.State, %struct.State* %0, i32 0, i32 6
  %10 = getelementptr inbounds %struct.GPR, %struct.GPR* %9, i32 0, i32 5
  %11 = getelementptr inbounds %struct.Reg, %struct.Reg* %10, i32 0, i32 0
  %RCX = bitcast %union.anon* %11 to i64*
  %12 = load i64, i64* %RCX
  %13 = mul i64 %12, 4
  %14 = add i64 %13, 6307984
  %15 = load i64, i64* %PC
  %16 = add i64 %15, 7
  store i64 %16, i64* %PC
  %17 = call %struct.Memory* @_ZN12_GLOBAL__N_1L3MOVI3RnWImE2MnIjEEEP6MemoryS6_R5StateT_T0_(%struct.Memory* %2, %struct.State* %0, i64* %RAX, i64 %14)
  ret %struct.Memory* %17
}


define %struct.Memory* @routine_movslq_MINUS0x8__rbp____rcx(%struct.State*  dereferenceable(3376), i64, %struct.Memory* ) #19 {
block_400488:
  %3 = getelementptr inbounds %struct.State, %struct.State* %0, i32 0, i32 6
  %4 = getelementptr inbounds %struct.GPR, %struct.GPR* %3, i32 0, i32 33
  %5 = getelementptr inbounds %struct.Reg, %struct.Reg* %4, i32 0, i32 0
  %PC = bitcast %union.anon* %5 to i64*
  %6 = getelementptr inbounds %struct.State, %struct.State* %0, i32 0, i32 6
  %7 = getelementptr inbounds %struct.GPR, %struct.GPR* %6, i32 0, i32 5
  %8 = getelementptr inbounds %struct.Reg, %struct.Reg* %7, i32 0, i32 0
  %RCX = bitcast %union.anon* %8 to i64*
  %9 = getelementptr inbounds %struct.State, %struct.State* %0, i32 0, i32 6
  %10 = getelementptr inbounds %struct.GPR, %struct.GPR* %9, i32 0, i32 15
  %11 = getelementptr inbounds %struct.Reg, %struct.Reg* %10, i32 0, i32 0
  %RBP = bitcast %union.anon* %11 to i64*
  %12 = load i64, i64* %RBP
  %13 = sub i64 %12, 8
  %14 = load i64, i64* %PC
  %15 = add i64 %14, 4
  store i64 %15, i64* %PC
  %16 = call %struct.Memory* @_ZN12_GLOBAL__N_1L5MOVSXI3RnWImE2MnIjElEEP6MemoryS6_R5StateT_T0_(%struct.Memory* %2, %struct.State* %0, i64* %RCX, i64 %13)
  ret %struct.Memory* %16
}


define %struct.Memory* @routine_movl__eax__0x604090___rcx_4_(%struct.State*  dereferenceable(3376), i64, %struct.Memory* ) #19 {
block_400488:
  %3 = getelementptr inbounds %struct.State, %struct.State* %0, i32 0, i32 6
  %4 = getelementptr inbounds %struct.GPR, %struct.GPR* %3, i32 0, i32 33
  %5 = getelementptr inbounds %struct.Reg, %struct.Reg* %4, i32 0, i32 0
  %PC = bitcast %union.anon* %5 to i64*
  %6 = getelementptr inbounds %struct.State, %struct.State* %0, i32 0, i32 6
  %7 = getelementptr inbounds %struct.GPR, %struct.GPR* %6, i32 0, i32 1
  %8 = getelementptr inbounds %struct.Reg, %struct.Reg* %7, i32 0, i32 0
  %EAX = bitcast %union.anon* %8 to i32*
  %9 = getelementptr inbounds %struct.State, %struct.State* %0, i32 0, i32 6
  %10 = getelementptr inbounds %struct.GPR, %struct.GPR* %9, i32 0, i32 5
  %11 = getelementptr inbounds %struct.Reg, %struct.Reg* %10, i32 0, i32 0
  %RCX = bitcast %union.anon* %11 to i64*
  %12 = load i64, i64* %RCX
  %13 = mul i64 %12, 4
  %14 = add i64 %13, 6307984
  %15 = load i32, i32* %EAX
  %16 = zext i32 %15 to i64
  %17 = load i64, i64* %PC
  %18 = add i64 %17, 7
  store i64 %18, i64* %PC
  %19 = call %struct.Memory* @_ZN12_GLOBAL__N_1L3MOVI3MnWIjE2RnIjEEEP6MemoryS6_R5StateT_T0_(%struct.Memory* %2, %struct.State* %0, i64 %14, i64 %16)
  ret %struct.Memory* %19
}


define %struct.Memory* @routine_jmpq_.L_401aa7(%struct.State*  dereferenceable(3376), i64, %struct.Memory*, i64 %rel_off1, i64 %rel_off2) {
block_400488:
  %3 = getelementptr inbounds %struct.State, %struct.State* %0, i32 0, i32 6
  %4 = getelementptr inbounds %struct.GPR, %struct.GPR* %3, i32 0, i32 33
  %5 = getelementptr inbounds %struct.Reg, %struct.Reg* %4, i32 0, i32 0
  %PC = bitcast %union.anon* %5 to i64*
  %6 = load i64, i64* %PC
  %7 = add i64 %6, %rel_off1
  %8 = load i64, i64* %PC
  %9 = add i64 %8, %rel_off2
  store i64 %9, i64* %PC
  %10 = call %struct.Memory* @_ZN12_GLOBAL__N_1L3JMPI2InImEEEP6MemoryS4_R5StateT_(%struct.Memory* %2, %struct.State* %0, i64 %7)
  ret %struct.Memory* %10
}




define %struct.Memory* @routine_addl__0xffffffff___eax(%struct.State*  dereferenceable(3376), i64, %struct.Memory* ) #19 {
block_400488:
  %3 = getelementptr inbounds %struct.State, %struct.State* %0, i32 0, i32 6
  %4 = getelementptr inbounds %struct.GPR, %struct.GPR* %3, i32 0, i32 33
  %5 = getelementptr inbounds %struct.Reg, %struct.Reg* %4, i32 0, i32 0
  %PC = bitcast %union.anon* %5 to i64*
  %6 = getelementptr inbounds %struct.State, %struct.State* %0, i32 0, i32 6
  %7 = getelementptr inbounds %struct.GPR, %struct.GPR* %6, i32 0, i32 1
  %8 = getelementptr inbounds %struct.Reg, %struct.Reg* %7, i32 0, i32 0
  %RAX = bitcast %union.anon* %8 to i64*
  %9 = load i64, i64* %RAX
  %10 = load i64, i64* %PC
  %11 = add i64 %10, 3
  store i64 %11, i64* %PC
  %12 = call %struct.Memory* @_ZN12_GLOBAL__N_1L3ADDI3RnWImE2RnIjE2InIjEEEP6MemoryS8_R5StateT_T0_T1_(%struct.Memory* %2, %struct.State* %0, i64* %RAX, i64 %9, i64 -1)
  ret %struct.Memory* %12
}


define %struct.Memory* @routine_movl__eax__MINUS0x8__rbp_(%struct.State*  dereferenceable(3376), i64, %struct.Memory* ) #19 {
block_400488:
  %3 = getelementptr inbounds %struct.State, %struct.State* %0, i32 0, i32 6
  %4 = getelementptr inbounds %struct.GPR, %struct.GPR* %3, i32 0, i32 33
  %5 = getelementptr inbounds %struct.Reg, %struct.Reg* %4, i32 0, i32 0
  %PC = bitcast %union.anon* %5 to i64*
  %6 = getelementptr inbounds %struct.State, %struct.State* %0, i32 0, i32 6
  %7 = getelementptr inbounds %struct.GPR, %struct.GPR* %6, i32 0, i32 1
  %8 = getelementptr inbounds %struct.Reg, %struct.Reg* %7, i32 0, i32 0
  %EAX = bitcast %union.anon* %8 to i32*
  %9 = getelementptr inbounds %struct.State, %struct.State* %0, i32 0, i32 6
  %10 = getelementptr inbounds %struct.GPR, %struct.GPR* %9, i32 0, i32 15
  %11 = getelementptr inbounds %struct.Reg, %struct.Reg* %10, i32 0, i32 0
  %RBP = bitcast %union.anon* %11 to i64*
  %12 = load i64, i64* %RBP
  %13 = sub i64 %12, 8
  %14 = load i32, i32* %EAX
  %15 = zext i32 %14 to i64
  %16 = load i64, i64* %PC
  %17 = add i64 %16, 3
  store i64 %17, i64* %PC
  %18 = call %struct.Memory* @_ZN12_GLOBAL__N_1L3MOVI3MnWIjE2RnIjEEEP6MemoryS6_R5StateT_T0_(%struct.Memory* %2, %struct.State* %0, i64 %13, i64 %15)
  ret %struct.Memory* %18
}


define %struct.Memory* @routine_jmpq_.L_401a23(%struct.State*  dereferenceable(3376), i64, %struct.Memory*, i64 %rel_off1, i64 %rel_off2) {
block_400488:
  %3 = getelementptr inbounds %struct.State, %struct.State* %0, i32 0, i32 6
  %4 = getelementptr inbounds %struct.GPR, %struct.GPR* %3, i32 0, i32 33
  %5 = getelementptr inbounds %struct.Reg, %struct.Reg* %4, i32 0, i32 0
  %PC = bitcast %union.anon* %5 to i64*
  %6 = load i64, i64* %PC
  %7 = add i64 %6, %rel_off1
  %8 = load i64, i64* %PC
  %9 = add i64 %8, %rel_off2
  store i64 %9, i64* %PC
  %10 = call %struct.Memory* @_ZN12_GLOBAL__N_1L3JMPI2InImEEEP6MemoryS4_R5StateT_(%struct.Memory* %2, %struct.State* %0, i64 %7)
  ret %struct.Memory* %10
}




define %struct.Memory* @routine_movl_0x603c80___ecx(%struct.State*  dereferenceable(3376), i64, %struct.Memory* ) #19 {
block_400488:
  %3 = getelementptr inbounds %struct.State, %struct.State* %0, i32 0, i32 6
  %4 = getelementptr inbounds %struct.GPR, %struct.GPR* %3, i32 0, i32 33
  %5 = getelementptr inbounds %struct.Reg, %struct.Reg* %4, i32 0, i32 0
  %PC = bitcast %union.anon* %5 to i64*
  %6 = getelementptr inbounds %struct.State, %struct.State* %0, i32 0, i32 6
  %7 = getelementptr inbounds %struct.GPR, %struct.GPR* %6, i32 0, i32 5
  %8 = getelementptr inbounds %struct.Reg, %struct.Reg* %7, i32 0, i32 0
  %RCX = bitcast %union.anon* %8 to i64*
  %9 = load i64, i64* %PC
  %10 = add i64 %9, 7
  store i64 %10, i64* %PC
  %11 = call %struct.Memory* @_ZN12_GLOBAL__N_1L3MOVI3RnWImE2MnIjEEEP6MemoryS6_R5StateT_T0_(%struct.Memory* %2, %struct.State* %0, i64* %RCX, i64 ptrtoint( %G_0x603c80_type* @G_0x603c80 to i64))
  ret %struct.Memory* %11
}


define %struct.Memory* @routine_addl_MINUS0xc__rbp____ecx(%struct.State*  dereferenceable(3376), i64, %struct.Memory* ) #19 {
block_400488:
  %3 = getelementptr inbounds %struct.State, %struct.State* %0, i32 0, i32 6
  %4 = getelementptr inbounds %struct.GPR, %struct.GPR* %3, i32 0, i32 33
  %5 = getelementptr inbounds %struct.Reg, %struct.Reg* %4, i32 0, i32 0
  %PC = bitcast %union.anon* %5 to i64*
  %6 = getelementptr inbounds %struct.State, %struct.State* %0, i32 0, i32 6
  %7 = getelementptr inbounds %struct.GPR, %struct.GPR* %6, i32 0, i32 5
  %8 = getelementptr inbounds %struct.Reg, %struct.Reg* %7, i32 0, i32 0
  %RCX = bitcast %union.anon* %8 to i64*
  %9 = getelementptr inbounds %struct.State, %struct.State* %0, i32 0, i32 6
  %10 = getelementptr inbounds %struct.GPR, %struct.GPR* %9, i32 0, i32 15
  %11 = getelementptr inbounds %struct.Reg, %struct.Reg* %10, i32 0, i32 0
  %RBP = bitcast %union.anon* %11 to i64*
  %12 = load i64, i64* %RCX
  %13 = load i64, i64* %RBP
  %14 = sub i64 %13, 12
  %15 = load i64, i64* %PC
  %16 = add i64 %15, 3
  store i64 %16, i64* %PC
  %17 = call %struct.Memory* @_ZN12_GLOBAL__N_1L3ADDI3RnWImE2RnIjE2MnIjEEEP6MemoryS8_R5StateT_T0_T1_(%struct.Memory* %2, %struct.State* %0, i64* %RCX, i64 %12, i64 %14)
  ret %struct.Memory* %17
}


define %struct.Memory* @routine_movl__eax__MINUS0x14__rbp_(%struct.State*  dereferenceable(3376), i64, %struct.Memory* ) #19 {
block_400488:
  %3 = getelementptr inbounds %struct.State, %struct.State* %0, i32 0, i32 6
  %4 = getelementptr inbounds %struct.GPR, %struct.GPR* %3, i32 0, i32 33
  %5 = getelementptr inbounds %struct.Reg, %struct.Reg* %4, i32 0, i32 0
  %PC = bitcast %union.anon* %5 to i64*
  %6 = getelementptr inbounds %struct.State, %struct.State* %0, i32 0, i32 6
  %7 = getelementptr inbounds %struct.GPR, %struct.GPR* %6, i32 0, i32 1
  %8 = getelementptr inbounds %struct.Reg, %struct.Reg* %7, i32 0, i32 0
  %EAX = bitcast %union.anon* %8 to i32*
  %9 = getelementptr inbounds %struct.State, %struct.State* %0, i32 0, i32 6
  %10 = getelementptr inbounds %struct.GPR, %struct.GPR* %9, i32 0, i32 15
  %11 = getelementptr inbounds %struct.Reg, %struct.Reg* %10, i32 0, i32 0
  %RBP = bitcast %union.anon* %11 to i64*
  %12 = load i64, i64* %RBP
  %13 = sub i64 %12, 20
  %14 = load i32, i32* %EAX
  %15 = zext i32 %14 to i64
  %16 = load i64, i64* %PC
  %17 = add i64 %16, 3
  store i64 %17, i64* %PC
  %18 = call %struct.Memory* @_ZN12_GLOBAL__N_1L3MOVI3MnWIjE2RnIjEEEP6MemoryS6_R5StateT_T0_(%struct.Memory* %2, %struct.State* %0, i64 %13, i64 %15)
  ret %struct.Memory* %18
}


define %struct.Memory* @routine_movl__ecx___eax(%struct.State*  dereferenceable(3376), i64, %struct.Memory* ) #19 {
block_400488:
  %3 = getelementptr inbounds %struct.State, %struct.State* %0, i32 0, i32 6
  %4 = getelementptr inbounds %struct.GPR, %struct.GPR* %3, i32 0, i32 33
  %5 = getelementptr inbounds %struct.Reg, %struct.Reg* %4, i32 0, i32 0
  %PC = bitcast %union.anon* %5 to i64*
  %6 = getelementptr inbounds %struct.State, %struct.State* %0, i32 0, i32 6
  %7 = getelementptr inbounds %struct.GPR, %struct.GPR* %6, i32 0, i32 5
  %8 = getelementptr inbounds %struct.Reg, %struct.Reg* %7, i32 0, i32 0
  %ECX = bitcast %union.anon* %8 to i32*
  %9 = getelementptr inbounds %struct.State, %struct.State* %0, i32 0, i32 6
  %10 = getelementptr inbounds %struct.GPR, %struct.GPR* %9, i32 0, i32 1
  %11 = getelementptr inbounds %struct.Reg, %struct.Reg* %10, i32 0, i32 0
  %RAX = bitcast %union.anon* %11 to i64*
  %12 = load i32, i32* %ECX
  %13 = zext i32 %12 to i64
  %14 = load i64, i64* %PC
  %15 = add i64 %14, 2
  store i64 %15, i64* %PC
  %16 = call %struct.Memory* @_ZN12_GLOBAL__N_1L3MOVI3RnWImE2RnIjEEEP6MemoryS6_R5StateT_T0_(%struct.Memory* %2, %struct.State* %0, i64* %RAX, i64 %13)
  ret %struct.Memory* %16
}




define %struct.Memory* @routine_movl_MINUS0x14__rbp____ecx(%struct.State*  dereferenceable(3376), i64, %struct.Memory* ) #19 {
block_400488:
  %3 = getelementptr inbounds %struct.State, %struct.State* %0, i32 0, i32 6
  %4 = getelementptr inbounds %struct.GPR, %struct.GPR* %3, i32 0, i32 33
  %5 = getelementptr inbounds %struct.Reg, %struct.Reg* %4, i32 0, i32 0
  %PC = bitcast %union.anon* %5 to i64*
  %6 = getelementptr inbounds %struct.State, %struct.State* %0, i32 0, i32 6
  %7 = getelementptr inbounds %struct.GPR, %struct.GPR* %6, i32 0, i32 5
  %8 = getelementptr inbounds %struct.Reg, %struct.Reg* %7, i32 0, i32 0
  %RCX = bitcast %union.anon* %8 to i64*
  %9 = getelementptr inbounds %struct.State, %struct.State* %0, i32 0, i32 6
  %10 = getelementptr inbounds %struct.GPR, %struct.GPR* %9, i32 0, i32 15
  %11 = getelementptr inbounds %struct.Reg, %struct.Reg* %10, i32 0, i32 0
  %RBP = bitcast %union.anon* %11 to i64*
  %12 = load i64, i64* %RBP
  %13 = sub i64 %12, 20
  %14 = load i64, i64* %PC
  %15 = add i64 %14, 3
  store i64 %15, i64* %PC
  %16 = call %struct.Memory* @_ZN12_GLOBAL__N_1L3MOVI3RnWImE2MnIjEEEP6MemoryS6_R5StateT_T0_(%struct.Memory* %2, %struct.State* %0, i64* %RCX, i64 %13)
  ret %struct.Memory* %16
}


define %struct.Memory* @routine_idivl__ecx(%struct.State*  dereferenceable(3376), i64, %struct.Memory* ) #19 {
block_400488:
  %3 = getelementptr inbounds %struct.State, %struct.State* %0, i32 0, i32 6
  %4 = getelementptr inbounds %struct.GPR, %struct.GPR* %3, i32 0, i32 33
  %5 = getelementptr inbounds %struct.Reg, %struct.Reg* %4, i32 0, i32 0
  %PC = bitcast %union.anon* %5 to i64*
  %6 = getelementptr inbounds %struct.State, %struct.State* %0, i32 0, i32 6
  %7 = getelementptr inbounds %struct.GPR, %struct.GPR* %6, i32 0, i32 5
  %8 = getelementptr inbounds %struct.Reg, %struct.Reg* %7, i32 0, i32 0
  %ECX = bitcast %union.anon* %8 to i32*
  %9 = load i32, i32* %ECX
  %10 = zext i32 %9 to i64
  %11 = load i64, i64* %PC
  %12 = add i64 %11, 2
  store i64 %12, i64* %PC
  %13 = call %struct.Memory* @_ZN12_GLOBAL__N_1L10IDIVedxeaxI2RnIjEEEP6MemoryS4_R5StateT_(%struct.Memory* %2, %struct.State* %0, i64 %10)
  ret %struct.Memory* %13
}


define %struct.Memory* @routine_movslq__edx___rsi(%struct.State*  dereferenceable(3376), i64, %struct.Memory* ) #19 {
block_400488:
  %3 = getelementptr inbounds %struct.State, %struct.State* %0, i32 0, i32 6
  %4 = getelementptr inbounds %struct.GPR, %struct.GPR* %3, i32 0, i32 33
  %5 = getelementptr inbounds %struct.Reg, %struct.Reg* %4, i32 0, i32 0
  %PC = bitcast %union.anon* %5 to i64*
  %6 = getelementptr inbounds %struct.State, %struct.State* %0, i32 0, i32 6
  %7 = getelementptr inbounds %struct.GPR, %struct.GPR* %6, i32 0, i32 7
  %8 = getelementptr inbounds %struct.Reg, %struct.Reg* %7, i32 0, i32 0
  %EDX = bitcast %union.anon* %8 to i32*
  %9 = getelementptr inbounds %struct.State, %struct.State* %0, i32 0, i32 6
  %10 = getelementptr inbounds %struct.GPR, %struct.GPR* %9, i32 0, i32 9
  %11 = getelementptr inbounds %struct.Reg, %struct.Reg* %10, i32 0, i32 0
  %RSI = bitcast %union.anon* %11 to i64*
  %12 = load i32, i32* %EDX
  %13 = zext i32 %12 to i64
  %14 = load i64, i64* %PC
  %15 = add i64 %14, 3
  store i64 %15, i64* %PC
  %16 = call %struct.Memory* @_ZN12_GLOBAL__N_1L5MOVSXI3RnWImE2RnIjElEEP6MemoryS6_R5StateT_T0_(%struct.Memory* %2, %struct.State* %0, i64* %RSI, i64 %13)
  ret %struct.Memory* %16
}


define %struct.Memory* @routine_movl_0x603880___rsi_4____edx(%struct.State*  dereferenceable(3376), i64, %struct.Memory* ) #19 {
block_400488:
  %3 = getelementptr inbounds %struct.State, %struct.State* %0, i32 0, i32 6
  %4 = getelementptr inbounds %struct.GPR, %struct.GPR* %3, i32 0, i32 33
  %5 = getelementptr inbounds %struct.Reg, %struct.Reg* %4, i32 0, i32 0
  %PC = bitcast %union.anon* %5 to i64*
  %6 = getelementptr inbounds %struct.State, %struct.State* %0, i32 0, i32 6
  %7 = getelementptr inbounds %struct.GPR, %struct.GPR* %6, i32 0, i32 7
  %8 = getelementptr inbounds %struct.Reg, %struct.Reg* %7, i32 0, i32 0
  %RDX = bitcast %union.anon* %8 to i64*
  %9 = getelementptr inbounds %struct.State, %struct.State* %0, i32 0, i32 6
  %10 = getelementptr inbounds %struct.GPR, %struct.GPR* %9, i32 0, i32 9
  %11 = getelementptr inbounds %struct.Reg, %struct.Reg* %10, i32 0, i32 0
  %RSI = bitcast %union.anon* %11 to i64*
  %12 = load i64, i64* %RSI
  %13 = mul i64 %12, 4
  %14 = add i64 %13, 6305920
  %15 = load i64, i64* %PC
  %16 = add i64 %15, 7
  store i64 %16, i64* %PC
  %17 = call %struct.Memory* @_ZN12_GLOBAL__N_1L3MOVI3RnWImE2MnIjEEEP6MemoryS6_R5StateT_T0_(%struct.Memory* %2, %struct.State* %0, i64* %RDX, i64 %14)
  ret %struct.Memory* %17
}


define %struct.Memory* @routine_movl__edx__0x604090(%struct.State*  dereferenceable(3376), i64, %struct.Memory* ) #19 {
block_400488:
  %3 = getelementptr inbounds %struct.State, %struct.State* %0, i32 0, i32 6
  %4 = getelementptr inbounds %struct.GPR, %struct.GPR* %3, i32 0, i32 33
  %5 = getelementptr inbounds %struct.Reg, %struct.Reg* %4, i32 0, i32 0
  %PC = bitcast %union.anon* %5 to i64*
  %6 = getelementptr inbounds %struct.State, %struct.State* %0, i32 0, i32 6
  %7 = getelementptr inbounds %struct.GPR, %struct.GPR* %6, i32 0, i32 7
  %8 = getelementptr inbounds %struct.Reg, %struct.Reg* %7, i32 0, i32 0
  %EDX = bitcast %union.anon* %8 to i32*
  %9 = load i32, i32* %EDX
  %10 = zext i32 %9 to i64
  %11 = load i64, i64* %PC
  %12 = add i64 %11, 7
  store i64 %12, i64* %PC
  %13 = call %struct.Memory* @_ZN12_GLOBAL__N_1L3MOVI3MnWIjE2RnIjEEEP6MemoryS6_R5StateT_T0_(%struct.Memory* %2, %struct.State* %0, i64 ptrtoint( %G_0x604090_type* @G_0x604090 to i64), i64 %10)
  ret %struct.Memory* %13
}


define %struct.Memory* @routine_jmpq_.L_401b2a(%struct.State*  dereferenceable(3376), i64, %struct.Memory*, i64 %rel_off1, i64 %rel_off2) {
block_400488:
  %3 = getelementptr inbounds %struct.State, %struct.State* %0, i32 0, i32 6
  %4 = getelementptr inbounds %struct.GPR, %struct.GPR* %3, i32 0, i32 33
  %5 = getelementptr inbounds %struct.Reg, %struct.Reg* %4, i32 0, i32 0
  %PC = bitcast %union.anon* %5 to i64*
  %6 = load i64, i64* %PC
  %7 = add i64 %6, %rel_off1
  %8 = load i64, i64* %PC
  %9 = add i64 %8, %rel_off2
  store i64 %9, i64* %PC
  %10 = call %struct.Memory* @_ZN12_GLOBAL__N_1L3JMPI2InImEEEP6MemoryS4_R5StateT_(%struct.Memory* %2, %struct.State* %0, i64 %7)
  ret %struct.Memory* %10
}






define %struct.Memory* @routine_jle_.L_401b1f(%struct.State*  dereferenceable(3376), i64, %struct.Memory*, i8* %BRANCH_TAKEN, i64 %rel_off1, i64 %rel_off2, i64 %rel_off3) {
block_400488:
  %3 = getelementptr inbounds %struct.State, %struct.State* %0, i32 0, i32 6
  %4 = getelementptr inbounds %struct.GPR, %struct.GPR* %3, i32 0, i32 33
  %5 = getelementptr inbounds %struct.Reg, %struct.Reg* %4, i32 0, i32 0
  %PC = bitcast %union.anon* %5 to i64*
  %6 = load i64, i64* %PC
  %7 = add i64 %6, %rel_off1
  %8 = load i64, i64* %PC
  %9 = add i64 %8, %rel_off2
  %10 = load i64, i64* %PC
  %11 = add i64 %10, %rel_off3
  store i64 %11, i64* %PC
  %12 = call %struct.Memory* @_ZN12_GLOBAL__N_1L3JLEEP6MemoryR5State3RnWIhE2InImES7_(%struct.Memory* %2, %struct.State* %0, i8* %BRANCH_TAKEN, i64 %7, i64 %9)
  ret %struct.Memory* %12
}




















define %struct.Memory* @routine_jmpq_.L_401aec(%struct.State*  dereferenceable(3376), i64, %struct.Memory*, i64 %rel_off1, i64 %rel_off2) {
block_400488:
  %3 = getelementptr inbounds %struct.State, %struct.State* %0, i32 0, i32 6
  %4 = getelementptr inbounds %struct.GPR, %struct.GPR* %3, i32 0, i32 33
  %5 = getelementptr inbounds %struct.Reg, %struct.Reg* %4, i32 0, i32 0
  %PC = bitcast %union.anon* %5 to i64*
  %6 = load i64, i64* %PC
  %7 = add i64 %6, %rel_off1
  %8 = load i64, i64* %PC
  %9 = add i64 %8, %rel_off2
  store i64 %9, i64* %PC
  %10 = call %struct.Memory* @_ZN12_GLOBAL__N_1L3JMPI2InImEEEP6MemoryS4_R5StateT_(%struct.Memory* %2, %struct.State* %0, i64 %7)
  ret %struct.Memory* %10
}


define %struct.Memory* @routine_movl__0x0__0x604090(%struct.State*  dereferenceable(3376), i64, %struct.Memory* ) #19 {
block_400488:
  %3 = getelementptr inbounds %struct.State, %struct.State* %0, i32 0, i32 6
  %4 = getelementptr inbounds %struct.GPR, %struct.GPR* %3, i32 0, i32 33
  %5 = getelementptr inbounds %struct.Reg, %struct.Reg* %4, i32 0, i32 0
  %PC = bitcast %union.anon* %5 to i64*
  %6 = load i64, i64* %PC
  %7 = add i64 %6, 11
  store i64 %7, i64* %PC
  %8 = call %struct.Memory* @_ZN12_GLOBAL__N_1L3MOVI3MnWIjE2InIjEEEP6MemoryS6_R5StateT_T0_(%struct.Memory* %2, %struct.State* %0, i64 ptrtoint( %G_0x604090_type* @G_0x604090 to i64), i64 0)
  ret %struct.Memory* %8
}


define %struct.Memory* @routine_jmpq_.L_401b2f(%struct.State*  dereferenceable(3376), i64, %struct.Memory*, i64 %rel_off1, i64 %rel_off2) {
block_400488:
  %3 = getelementptr inbounds %struct.State, %struct.State* %0, i32 0, i32 6
  %4 = getelementptr inbounds %struct.GPR, %struct.GPR* %3, i32 0, i32 33
  %5 = getelementptr inbounds %struct.Reg, %struct.Reg* %4, i32 0, i32 0
  %PC = bitcast %union.anon* %5 to i64*
  %6 = load i64, i64* %PC
  %7 = add i64 %6, %rel_off1
  %8 = load i64, i64* %PC
  %9 = add i64 %8, %rel_off2
  store i64 %9, i64* %PC
  %10 = call %struct.Memory* @_ZN12_GLOBAL__N_1L3JMPI2InImEEEP6MemoryS4_R5StateT_(%struct.Memory* %2, %struct.State* %0, i64 %7)
  ret %struct.Memory* %10
}








define %struct.Memory* @routine_jmpq_.L_4019e9(%struct.State*  dereferenceable(3376), i64, %struct.Memory*, i64 %rel_off1, i64 %rel_off2) {
block_400488:
  %3 = getelementptr inbounds %struct.State, %struct.State* %0, i32 0, i32 6
  %4 = getelementptr inbounds %struct.GPR, %struct.GPR* %3, i32 0, i32 33
  %5 = getelementptr inbounds %struct.Reg, %struct.Reg* %4, i32 0, i32 0
  %PC = bitcast %union.anon* %5 to i64*
  %6 = load i64, i64* %PC
  %7 = add i64 %6, %rel_off1
  %8 = load i64, i64* %PC
  %9 = add i64 %8, %rel_off2
  store i64 %9, i64* %PC
  %10 = call %struct.Memory* @_ZN12_GLOBAL__N_1L3JMPI2InImEEEP6MemoryS4_R5StateT_(%struct.Memory* %2, %struct.State* %0, i64 %7)
  ret %struct.Memory* %10
}

define internal %struct.Memory* @_ZN12_GLOBAL__N_1L3POPI3RnWImEEEP6MemoryS4_R5StateT_(%struct.Memory*, %struct.State* nocapture dereferenceable(3376), i64* nocapture) #0 {
  %4 = getelementptr inbounds %struct.State, %struct.State* %1, i64 0, i32 6, i32 13, i32 0, i32 0
  %5 = load i64, i64* %4, align 8
  %6 = add i64 %5, 8
  %7 = inttoptr i64 %5 to i64*
  %8 = load i64, i64* %7
  store i64 %8, i64* %2, align 8
  store i64 %6, i64* %4, align 8
  ret %struct.Memory* %0
}

define %struct.Memory* @routine_popq__rbp(%struct.State*  dereferenceable(3376), i64, %struct.Memory* ) #19 {
block_400488:
  %3 = getelementptr inbounds %struct.State, %struct.State* %0, i32 0, i32 6
  %4 = getelementptr inbounds %struct.GPR, %struct.GPR* %3, i32 0, i32 33
  %5 = getelementptr inbounds %struct.Reg, %struct.Reg* %4, i32 0, i32 0
  %PC = bitcast %union.anon* %5 to i64*
  %6 = getelementptr inbounds %struct.State, %struct.State* %0, i32 0, i32 6
  %7 = getelementptr inbounds %struct.GPR, %struct.GPR* %6, i32 0, i32 15
  %8 = getelementptr inbounds %struct.Reg, %struct.Reg* %7, i32 0, i32 0
  %RBP = bitcast %union.anon* %8 to i64*
  %9 = load i64, i64* %PC
  %10 = add i64 %9, 1
  store i64 %10, i64* %PC
  %11 = call %struct.Memory* @_ZN12_GLOBAL__N_1L3POPI3RnWImEEEP6MemoryS4_R5StateT_(%struct.Memory* %2, %struct.State* %0, i64* %RBP)
  ret %struct.Memory* %11
}

define internal %struct.Memory* @_ZN12_GLOBAL__N_1L3RETEP6MemoryR5State(%struct.Memory* returned, %struct.State* nocapture dereferenceable(3376)) #0 {
  %3 = getelementptr inbounds %struct.State, %struct.State* %1, i64 0, i32 6, i32 33, i32 0, i32 0
  %4 = getelementptr inbounds %struct.State, %struct.State* %1, i64 0, i32 6, i32 13, i32 0, i32 0
  %5 = load i64, i64* %4, align 8
  %6 = inttoptr i64 %5 to i64*
  %7 = load i64, i64* %6
  store i64 %7, i64* %3, align 8
  %8 = add i64 %5, 8
  store i64 %8, i64* %4, align 8
  ret %struct.Memory* %0
}

define %struct.Memory* @routine_retq(%struct.State*  dereferenceable(3376), i64, %struct.Memory* ) #19 {
block_400488:
  %3 = getelementptr inbounds %struct.State, %struct.State* %0, i32 0, i32 6
  %4 = getelementptr inbounds %struct.GPR, %struct.GPR* %3, i32 0, i32 33
  %5 = getelementptr inbounds %struct.Reg, %struct.Reg* %4, i32 0, i32 0
  %PC = bitcast %union.anon* %5 to i64*
  %6 = load i64, i64* %PC
  %7 = add i64 %6, 1
  store i64 %7, i64* %PC
  %8 = call %struct.Memory* @_ZN12_GLOBAL__N_1L3RETEP6MemoryR5State(%struct.Memory* %2, %struct.State* %0)
  ret %struct.Memory* %8
}

