; ModuleID = 'mcsema/test.proposed.ll'
source_filename = "llvm-link"
target datalayout = "e-m:e-i64:64-f80:128-n8:16:32:64-S128"
target triple = "x86_64-pc-linux-gnu-elf"

%union.anon = type { i64 }
%seg_400388__init_type = type <{ [23 x i8] }>
%seg_4003a0__text_type = type <{ [354 x i8] }>
%seg_400504__fini_type = type <{ [9 x i8] }>
%seg_400510__rodata_type = type <{ [4 x i8] }>
%seg_400514__eh_frame_hdr_type = type <{ [52 x i8] }>
%seg_400548__eh_frame_type = type <{ [208 x i8] }>
%seg_601018__data_type = type <{ [16 x i8] }>
%__bss_start_type = type <{ [8 x i8] }>
%struct.State = type { %struct.ArchState, [32 x %union.VectorReg], %struct.ArithFlags, %union.anon, %struct.Segments, %struct.AddressSpace, %struct.GPR, %struct.X87Stack, %struct.MMX, %struct.FPUStatusFlags, %union.anon, %union.FPU, %struct.SegmentCaches }
%struct.ArchState = type { i32, i32, %union.anon }
%union.VectorReg = type { %union.vec512_t }
%union.vec512_t = type { %struct.uint64v8_t }
%struct.uint64v8_t = type { [8 x i64] }
%struct.ArithFlags = type { i8, i8, i8, i8, i8, i8, i8, i8, i8, i8, i8, i8, i8, i8, i8, i8 }
%struct.Segments = type { i16, %union.SegmentSelector, i16, %union.SegmentSelector, i16, %union.SegmentSelector, i16, %union.SegmentSelector, i16, %union.SegmentSelector, i16, %union.SegmentSelector }
%union.SegmentSelector = type { i16 }
%struct.AddressSpace = type { i64, %struct.Reg, i64, %struct.Reg, i64, %struct.Reg, i64, %struct.Reg, i64, %struct.Reg, i64, %struct.Reg }
%struct.Reg = type { %union.anon }
%struct.GPR = type { i64, %struct.Reg, i64, %struct.Reg, i64, %struct.Reg, i64, %struct.Reg, i64, %struct.Reg, i64, %struct.Reg, i64, %struct.Reg, i64, %struct.Reg, i64, %struct.Reg, i64, %struct.Reg, i64, %struct.Reg, i64, %struct.Reg, i64, %struct.Reg, i64, %struct.Reg, i64, %struct.Reg, i64, %struct.Reg, i64, %struct.Reg }
%struct.X87Stack = type { [8 x %struct.anon.3] }
%struct.anon.3 = type { i64, double }
%struct.MMX = type { [8 x %struct.anon.4] }
%struct.anon.4 = type { i64, %union.vec64_t }
%union.vec64_t = type { %struct.uint64v1_t }
%struct.uint64v1_t = type { [1 x i64] }
%struct.FPUStatusFlags = type { i8, i8, i8, i8, i8, i8, i8, i8, i8, i8, i8, i8, i8, i8, i8, i8, i8, i8, i8, i8, [4 x i8] }
%union.FPU = type { %struct.anon.13 }
%struct.anon.13 = type { %struct.FpuFXSAVE, [96 x i8] }
%struct.FpuFXSAVE = type { %union.SegmentSelector, %union.SegmentSelector, %union.FPUAbridgedTagWord, i8, i16, i32, %union.SegmentSelector, i16, i32, %union.SegmentSelector, i16, %union.FPUControlStatus, %union.FPUControlStatus, [8 x %struct.FPUStackElem], [16 x %union.vec128_t] }
%union.FPUAbridgedTagWord = type { i8 }
%union.FPUControlStatus = type { i32 }
%struct.FPUStackElem = type { %union.anon.11, [6 x i8] }
%union.anon.11 = type { %struct.float80_t }
%struct.float80_t = type { [10 x i8] }
%union.vec128_t = type { %struct.uint128v1_t }
%struct.uint128v1_t = type { [1 x i128] }
%struct.SegmentCaches = type { %struct.SegmentShadow, %struct.SegmentShadow, %struct.SegmentShadow, %struct.SegmentShadow, %struct.SegmentShadow, %struct.SegmentShadow }
%struct.SegmentShadow = type { %union.anon, i32, i32 }
%struct.Memory = type opaque
%"class.std::bitset" = type { %struct.uint64v4_t }
%struct.uint64v4_t = type { [4 x i64] }

@switch.table = private unnamed_addr constant [4 x i32] [i32 2048, i32 3072, i32 0, i32 1024]
@DR0 = external global i64, align 8
@DR1 = external global i64, align 8
@DR2 = external global i64, align 8
@DR3 = external global i64, align 8
@DR4 = external global i64, align 8
@DR5 = external global i64, align 8
@DR6 = external global i64, align 8
@DR7 = external global i64, align 8
@gCR0 = external global %union.anon, align 1
@gCR1 = external global %union.anon, align 1
@gCR2 = external global %union.anon, align 1
@gCR3 = external global %union.anon, align 1
@gCR4 = external global %union.anon, align 1
@gCR8 = external global %union.anon, align 1
@seg_400388__init = internal constant %seg_400388__init_type <{ [23 x i8] c"H\83\EC\08H\8B\05e\0C \00H\85\C0t\02\FF\D0H\83\C4\08\C3" }>
@seg_4003a0__text = internal constant %seg_4003a0__text_type <{ [354 x i8] c"1\EDI\89\D1^H\89\E2H\83\E4\F0PTI\C7\C0\00\05@\00H\C7\C1\90\04@\00H\C7\C7\88\04@\00\FF\15&\0C \00\F4\0F\1FD\00\00\F3\C3f.\0F\1F\84\00\00\00\00\00\0F\1F@\00U\B8(\10`\00H=(\10`\00H\89\E5t\17\B8\00\00\00\00H\85\C0t\0D]\BF(\10`\00\FF\E0\0F\1FD\00\00]\C3f\0F\1FD\00\00\BE(\10`\00UH\81\EE(\10`\00H\89\E5H\C1\FE\03H\89\F0H\C1\E8?H\01\C6H\D1\FEt\15\B8\00\00\00\00H\85\C0t\0B]\BF(\10`\00\FF\E0\0F\1F\00]\C3f\0F\1FD\00\00\80=\D1\0B \00\00u\17UH\89\E5\E8~\FF\FF\FF\C6\05\BF\0B \00\01]\C3\0F\1FD\00\00\F3\C3\0F\1F@\00f.\0F\1F\84\00\00\00\00\00UH\89\E5]\EB\89\90U\C3f\0F\1FD\00\00AWAVI\89\D7AUATL\8D%\9E\09 \00UH\8D-\9E\09 \00SA\89\FDI\89\F6L)\E5H\83\EC\08H\C1\FD\03\E8\C7\FE\FF\FFH\85\EDt 1\DB\0F\1F\84\00\00\00\00\00L\89\FAL\89\F6D\89\EFA\FF\14\DCH\83\C3\01H9\DDu\EAH\83\C4\08[]A\5CA]A^A_\C3\90f.\0F\1F\84\00\00\00\00\00\F3\C3" }>
@seg_400504__fini = internal constant %seg_400504__fini_type <{ [9 x i8] c"H\83\EC\08H\83\C4\08\C3" }>
@seg_400510__rodata = internal constant %seg_400510__rodata_type <{ [4 x i8] c"\01\00\02\00" }>
@seg_400514__eh_frame_hdr = internal constant %seg_400514__eh_frame_hdr_type <{ [52 x i8] c"\01\1B\03;0\00\00\00\05\00\00\00\8C\FE\FF\FFL\00\00\00\BC\FE\FF\FFx\00\00\00t\FF\FF\FF\8C\00\00\00|\FF\FF\FF\A4\00\00\00\EC\FF\FF\FF\EC\00\00\00" }>
@seg_400548__eh_frame = internal constant %seg_400548__eh_frame_type <{ [208 x i8] c"\14\00\00\00\00\00\00\00\01zR\00\01x\10\01\1B\0C\07\08\90\01\07\10\10\00\00\00\1C\00\00\008\FE\FF\FF+\00\00\00\00\00\00\00\14\00\00\00\00\00\00\00\01zR\00\01x\10\01\1B\0C\07\08\90\01\00\00\10\00\00\00\1C\00\00\00<\FE\FF\FF\02\00\00\00\00\00\00\00\14\00\00\000\00\00\00\E0\FE\FF\FF\02\00\00\00\00\00\00\00\00\00\00\00D\00\00\00H\00\00\00\D0\FE\FF\FFe\00\00\00\00B\0E\10\8F\02B\0E\18\8E\03E\0E \8D\04B\0E(\8C\05H\0E0\86\06H\0E8\83\07M\0E@r\0E8A\0E0A\0E(B\0E B\0E\18B\0E\10B\0E\08\00\10\00\00\00\90\00\00\00\F8\FE\FF\FF\02\00\00\00\00\00\00\00\00\00\00\00" }>
@seg_601018__data = internal global %seg_601018__data_type zeroinitializer
@__bss_start = global %__bss_start_type zeroinitializer
@0 = internal global i1 false

; Function Attrs: nounwind readnone
declare i32 @llvm.ctpop.i32(i32) #0

declare %struct.Memory* @__remill_error(%struct.State* dereferenceable(3376), i64, %struct.Memory*)

declare %struct.Memory* @sub_400e50._Z11start_timerv(%struct.State* dereferenceable(3376), i64, %struct.Memory*)

declare %struct.Memory* @sub_40c7a0._ZN19custom_add_variableIdE8do_shiftEdd(%struct.State* dereferenceable(3376), i64, %struct.Memory*)

declare %struct.Memory* @sub_40c730._Z26check_shifted_variable_sumId19custom_add_variableIdEEvT_S2_(%struct.State* dereferenceable(3376), i64, %struct.Memory*)

declare %struct.Memory* @sub_400e70._Z5timerv(%struct.State* dereferenceable(3376), i64, %struct.Memory*)

declare %struct.Memory* @sub_400810._Z13record_resultdPKc(%struct.State* dereferenceable(3376), i64, %struct.Memory*)

; Function Attrs: alwaysinline
define %struct.Memory* @_Z14test_variable1Id19custom_add_variableIdEEvPT_iS2_PKc(%struct.State* noalias, i64, %struct.Memory* noalias) #1 {
entry:
  %3 = getelementptr inbounds %struct.State, %struct.State* %0, i64 0, i32 6, i32 33, i32 0, i32 0
  store i64 %1, i64* %3, align 8
  %BRANCH_TAKEN = alloca i8, align 1
  store i8 0, i8* %BRANCH_TAKEN, align 1
  %MEMORY = alloca %struct.Memory*, align 8
  store %struct.Memory* %2, %struct.Memory** %MEMORY, align 8
  %loadMem_40b5a0 = load %struct.Memory*, %struct.Memory** %MEMORY
  %4 = getelementptr inbounds %struct.State, %struct.State* %0, i32 0, i32 6
  %5 = getelementptr inbounds %struct.GPR, %struct.GPR* %4, i32 0, i32 33
  %6 = getelementptr inbounds %struct.Reg, %struct.Reg* %5, i32 0, i32 0
  %PC.i = bitcast %union.anon* %6 to i64*
  %7 = getelementptr inbounds %struct.State, %struct.State* %0, i32 0, i32 6
  %8 = getelementptr inbounds %struct.GPR, %struct.GPR* %7, i32 0, i32 15
  %9 = getelementptr inbounds %struct.Reg, %struct.Reg* %8, i32 0, i32 0
  %RBP.i = bitcast %union.anon* %9 to i64*
  %10 = load i64, i64* %RBP.i
  %11 = load i64, i64* %PC.i
  %12 = add i64 %11, 1
  store i64 %12, i64* %PC.i
  %13 = getelementptr inbounds %struct.State, %struct.State* %0, i64 0, i32 6, i32 13, i32 0, i32 0
  %14 = load i64, i64* %13, align 8
  %15 = add i64 %14, -8
  %16 = inttoptr i64 %15 to i64*
  store i64 %10, i64* %16
  store i64 %15, i64* %13, align 8
  store %struct.Memory* %loadMem_40b5a0, %struct.Memory** %MEMORY
  %loadMem_40b5a1 = load %struct.Memory*, %struct.Memory** %MEMORY
  %17 = getelementptr inbounds %struct.State, %struct.State* %0, i32 0, i32 6
  %18 = getelementptr inbounds %struct.GPR, %struct.GPR* %17, i32 0, i32 33
  %19 = getelementptr inbounds %struct.Reg, %struct.Reg* %18, i32 0, i32 0
  %PC.i84 = bitcast %union.anon* %19 to i64*
  %20 = getelementptr inbounds %struct.State, %struct.State* %0, i32 0, i32 6
  %21 = getelementptr inbounds %struct.GPR, %struct.GPR* %20, i32 0, i32 13
  %22 = getelementptr inbounds %struct.Reg, %struct.Reg* %21, i32 0, i32 0
  %RSP.i85 = bitcast %union.anon* %22 to i64*
  %23 = getelementptr inbounds %struct.State, %struct.State* %0, i32 0, i32 6
  %24 = getelementptr inbounds %struct.GPR, %struct.GPR* %23, i32 0, i32 15
  %25 = getelementptr inbounds %struct.Reg, %struct.Reg* %24, i32 0, i32 0
  %RBP.i86 = bitcast %union.anon* %25 to i64*
  %26 = load i64, i64* %RSP.i85
  %27 = load i64, i64* %PC.i84
  %28 = add i64 %27, 3
  store i64 %28, i64* %PC.i84
  store i64 %26, i64* %RBP.i86, align 8
  store %struct.Memory* %loadMem_40b5a1, %struct.Memory** %MEMORY
  %loadMem_40b5a4 = load %struct.Memory*, %struct.Memory** %MEMORY
  %29 = getelementptr inbounds %struct.State, %struct.State* %0, i32 0, i32 6
  %30 = getelementptr inbounds %struct.GPR, %struct.GPR* %29, i32 0, i32 33
  %31 = getelementptr inbounds %struct.Reg, %struct.Reg* %30, i32 0, i32 0
  %PC.i82 = bitcast %union.anon* %31 to i64*
  %32 = getelementptr inbounds %struct.State, %struct.State* %0, i32 0, i32 6
  %33 = getelementptr inbounds %struct.GPR, %struct.GPR* %32, i32 0, i32 13
  %34 = getelementptr inbounds %struct.Reg, %struct.Reg* %33, i32 0, i32 0
  %RSP.i83 = bitcast %union.anon* %34 to i64*
  %35 = load i64, i64* %RSP.i83
  %36 = load i64, i64* %PC.i82
  %37 = add i64 %36, 4
  store i64 %37, i64* %PC.i82
  %38 = sub i64 %35, 64
  store i64 %38, i64* %RSP.i83, align 8
  %39 = icmp ult i64 %35, 64
  %40 = zext i1 %39 to i8
  %41 = getelementptr inbounds %struct.State, %struct.State* %0, i64 0, i32 2, i32 1
  store i8 %40, i8* %41, align 1
  %42 = trunc i64 %38 to i32
  %43 = and i32 %42, 255
  %44 = call i32 @llvm.ctpop.i32(i32 %43)
  %45 = trunc i32 %44 to i8
  %46 = and i8 %45, 1
  %47 = xor i8 %46, 1
  %48 = getelementptr inbounds %struct.State, %struct.State* %0, i64 0, i32 2, i32 3
  store i8 %47, i8* %48, align 1
  %49 = xor i64 64, %35
  %50 = xor i64 %49, %38
  %51 = lshr i64 %50, 4
  %52 = trunc i64 %51 to i8
  %53 = and i8 %52, 1
  %54 = getelementptr inbounds %struct.State, %struct.State* %0, i64 0, i32 2, i32 5
  store i8 %53, i8* %54, align 1
  %55 = icmp eq i64 %38, 0
  %56 = zext i1 %55 to i8
  %57 = getelementptr inbounds %struct.State, %struct.State* %0, i64 0, i32 2, i32 7
  store i8 %56, i8* %57, align 1
  %58 = lshr i64 %38, 63
  %59 = trunc i64 %58 to i8
  %60 = getelementptr inbounds %struct.State, %struct.State* %0, i64 0, i32 2, i32 9
  store i8 %59, i8* %60, align 1
  %61 = lshr i64 %35, 63
  %62 = xor i64 %58, %61
  %63 = add i64 %62, %61
  %64 = icmp eq i64 %63, 2
  %65 = zext i1 %64 to i8
  %66 = getelementptr inbounds %struct.State, %struct.State* %0, i64 0, i32 2, i32 13
  store i8 %65, i8* %66, align 1
  store %struct.Memory* %loadMem_40b5a4, %struct.Memory** %MEMORY
  %loadMem_40b5a8 = load %struct.Memory*, %struct.Memory** %MEMORY
  %67 = getelementptr inbounds %struct.State, %struct.State* %0, i32 0, i32 6
  %68 = getelementptr inbounds %struct.GPR, %struct.GPR* %67, i32 0, i32 33
  %69 = getelementptr inbounds %struct.Reg, %struct.Reg* %68, i32 0, i32 0
  %PC.i79 = bitcast %union.anon* %69 to i64*
  %70 = getelementptr inbounds %struct.State, %struct.State* %0, i32 0, i32 6
  %71 = getelementptr inbounds %struct.GPR, %struct.GPR* %70, i32 0, i32 11
  %72 = getelementptr inbounds %struct.Reg, %struct.Reg* %71, i32 0, i32 0
  %RDI.i80 = bitcast %union.anon* %72 to i64*
  %73 = getelementptr inbounds %struct.State, %struct.State* %0, i32 0, i32 6
  %74 = getelementptr inbounds %struct.GPR, %struct.GPR* %73, i32 0, i32 15
  %75 = getelementptr inbounds %struct.Reg, %struct.Reg* %74, i32 0, i32 0
  %RBP.i81 = bitcast %union.anon* %75 to i64*
  %76 = load i64, i64* %RBP.i81
  %77 = sub i64 %76, 8
  %78 = load i64, i64* %RDI.i80
  %79 = load i64, i64* %PC.i79
  %80 = add i64 %79, 4
  store i64 %80, i64* %PC.i79
  %81 = inttoptr i64 %77 to i64*
  store i64 %78, i64* %81
  store %struct.Memory* %loadMem_40b5a8, %struct.Memory** %MEMORY
  %loadMem_40b5ac = load %struct.Memory*, %struct.Memory** %MEMORY
  %82 = getelementptr inbounds %struct.State, %struct.State* %0, i32 0, i32 6
  %83 = getelementptr inbounds %struct.GPR, %struct.GPR* %82, i32 0, i32 33
  %84 = getelementptr inbounds %struct.Reg, %struct.Reg* %83, i32 0, i32 0
  %PC.i77 = bitcast %union.anon* %84 to i64*
  %85 = getelementptr inbounds %struct.State, %struct.State* %0, i32 0, i32 6
  %86 = getelementptr inbounds %struct.GPR, %struct.GPR* %85, i32 0, i32 9
  %87 = getelementptr inbounds %struct.Reg, %struct.Reg* %86, i32 0, i32 0
  %ESI.i = bitcast %union.anon* %87 to i32*
  %88 = getelementptr inbounds %struct.State, %struct.State* %0, i32 0, i32 6
  %89 = getelementptr inbounds %struct.GPR, %struct.GPR* %88, i32 0, i32 15
  %90 = getelementptr inbounds %struct.Reg, %struct.Reg* %89, i32 0, i32 0
  %RBP.i78 = bitcast %union.anon* %90 to i64*
  %91 = load i64, i64* %RBP.i78
  %92 = sub i64 %91, 12
  %93 = load i32, i32* %ESI.i
  %94 = zext i32 %93 to i64
  %95 = load i64, i64* %PC.i77
  %96 = add i64 %95, 3
  store i64 %96, i64* %PC.i77
  %97 = inttoptr i64 %92 to i32*
  store i32 %93, i32* %97
  store %struct.Memory* %loadMem_40b5ac, %struct.Memory** %MEMORY
  %loadMem_40b5af = load %struct.Memory*, %struct.Memory** %MEMORY
  %98 = getelementptr inbounds %struct.State, %struct.State* %0, i32 0, i32 6
  %99 = getelementptr inbounds %struct.GPR, %struct.GPR* %98, i32 0, i32 33
  %100 = getelementptr inbounds %struct.Reg, %struct.Reg* %99, i32 0, i32 0
  %PC.i74 = bitcast %union.anon* %100 to i64*
  %101 = getelementptr inbounds %struct.State, %struct.State* %0, i32 0, i32 6
  %102 = getelementptr inbounds %struct.GPR, %struct.GPR* %101, i32 0, i32 15
  %103 = getelementptr inbounds %struct.Reg, %struct.Reg* %102, i32 0, i32 0
  %RBP.i75 = bitcast %union.anon* %103 to i64*
  %104 = getelementptr inbounds %struct.State, %struct.State* %0, i32 0, i32 1
  %105 = getelementptr inbounds [32 x %union.VectorReg], [32 x %union.VectorReg]* %104, i64 0, i64 0
  %XMM0.i76 = bitcast %union.VectorReg* %105 to %union.vec128_t*
  %106 = load i64, i64* %RBP.i75
  %107 = sub i64 %106, 24
  %108 = bitcast %union.vec128_t* %XMM0.i76 to i8*
  %109 = load i64, i64* %PC.i74
  %110 = add i64 %109, 5
  store i64 %110, i64* %PC.i74
  %111 = bitcast i8* %108 to double*
  %112 = load double, double* %111, align 1
  %113 = inttoptr i64 %107 to double*
  store double %112, double* %113
  store %struct.Memory* %loadMem_40b5af, %struct.Memory** %MEMORY
  %loadMem_40b5b4 = load %struct.Memory*, %struct.Memory** %MEMORY
  %114 = getelementptr inbounds %struct.State, %struct.State* %0, i32 0, i32 6
  %115 = getelementptr inbounds %struct.GPR, %struct.GPR* %114, i32 0, i32 33
  %116 = getelementptr inbounds %struct.Reg, %struct.Reg* %115, i32 0, i32 0
  %PC.i72 = bitcast %union.anon* %116 to i64*
  %117 = getelementptr inbounds %struct.State, %struct.State* %0, i32 0, i32 6
  %118 = getelementptr inbounds %struct.GPR, %struct.GPR* %117, i32 0, i32 7
  %119 = getelementptr inbounds %struct.Reg, %struct.Reg* %118, i32 0, i32 0
  %RDX.i = bitcast %union.anon* %119 to i64*
  %120 = getelementptr inbounds %struct.State, %struct.State* %0, i32 0, i32 6
  %121 = getelementptr inbounds %struct.GPR, %struct.GPR* %120, i32 0, i32 15
  %122 = getelementptr inbounds %struct.Reg, %struct.Reg* %121, i32 0, i32 0
  %RBP.i73 = bitcast %union.anon* %122 to i64*
  %123 = load i64, i64* %RBP.i73
  %124 = sub i64 %123, 32
  %125 = load i64, i64* %RDX.i
  %126 = load i64, i64* %PC.i72
  %127 = add i64 %126, 4
  store i64 %127, i64* %PC.i72
  %128 = inttoptr i64 %124 to i64*
  store i64 %125, i64* %128
  store %struct.Memory* %loadMem_40b5b4, %struct.Memory** %MEMORY
  %loadMem1_40b5b8 = load %struct.Memory*, %struct.Memory** %MEMORY
  %129 = getelementptr inbounds %struct.State, %struct.State* %0, i32 0, i32 6
  %130 = getelementptr inbounds %struct.GPR, %struct.GPR* %129, i32 0, i32 33
  %131 = getelementptr inbounds %struct.Reg, %struct.Reg* %130, i32 0, i32 0
  %PC.i71 = bitcast %union.anon* %131 to i64*
  %132 = load i64, i64* %PC.i71
  %133 = add i64 %132, -42856
  %134 = load i64, i64* %PC.i71
  %135 = add i64 %134, 5
  %136 = load i64, i64* %PC.i71
  %137 = add i64 %136, 5
  store i64 %137, i64* %PC.i71
  %138 = getelementptr inbounds %struct.State, %struct.State* %0, i64 0, i32 6, i32 13, i32 0, i32 0
  %139 = load i64, i64* %138, align 8
  %140 = add i64 %139, -8
  %141 = inttoptr i64 %140 to i64*
  store i64 %135, i64* %141
  store i64 %140, i64* %138, align 8
  %142 = getelementptr inbounds %struct.State, %struct.State* %0, i64 0, i32 6, i32 33, i32 0, i32 0
  store i64 %133, i64* %142, align 8
  store %struct.Memory* %loadMem1_40b5b8, %struct.Memory** %MEMORY
  %loadMem2_40b5b8 = load %struct.Memory*, %struct.Memory** %MEMORY
  %loadPC_40b5b8 = load i64, i64* %3
  %call2_40b5b8 = call %struct.Memory* @sub_400e50._Z11start_timerv(%struct.State* %0, i64 %loadPC_40b5b8, %struct.Memory* %loadMem2_40b5b8)
  store %struct.Memory* %call2_40b5b8, %struct.Memory** %MEMORY
  %loadMem_40b5bd = load %struct.Memory*, %struct.Memory** %MEMORY
  %143 = getelementptr inbounds %struct.State, %struct.State* %0, i32 0, i32 6
  %144 = getelementptr inbounds %struct.GPR, %struct.GPR* %143, i32 0, i32 33
  %145 = getelementptr inbounds %struct.Reg, %struct.Reg* %144, i32 0, i32 0
  %PC.i69 = bitcast %union.anon* %145 to i64*
  %146 = getelementptr inbounds %struct.State, %struct.State* %0, i32 0, i32 6
  %147 = getelementptr inbounds %struct.GPR, %struct.GPR* %146, i32 0, i32 15
  %148 = getelementptr inbounds %struct.Reg, %struct.Reg* %147, i32 0, i32 0
  %RBP.i70 = bitcast %union.anon* %148 to i64*
  %149 = load i64, i64* %RBP.i70
  %150 = sub i64 %149, 36
  %151 = load i64, i64* %PC.i69
  %152 = add i64 %151, 7
  store i64 %152, i64* %PC.i69
  %153 = inttoptr i64 %150 to i32*
  store i32 0, i32* %153
  store %struct.Memory* %loadMem_40b5bd, %struct.Memory** %MEMORY
  br label %block_.L_40b5c4

block_.L_40b5c4:                                  ; preds = %block_.L_40b61e, %entry
  %loadMem_40b5c4 = load %struct.Memory*, %struct.Memory** %MEMORY
  %154 = getelementptr inbounds %struct.State, %struct.State* %0, i32 0, i32 6
  %155 = getelementptr inbounds %struct.GPR, %struct.GPR* %154, i32 0, i32 33
  %156 = getelementptr inbounds %struct.Reg, %struct.Reg* %155, i32 0, i32 0
  %PC.i66 = bitcast %union.anon* %156 to i64*
  %157 = getelementptr inbounds %struct.State, %struct.State* %0, i32 0, i32 6
  %158 = getelementptr inbounds %struct.GPR, %struct.GPR* %157, i32 0, i32 1
  %159 = getelementptr inbounds %struct.Reg, %struct.Reg* %158, i32 0, i32 0
  %RAX.i67 = bitcast %union.anon* %159 to i64*
  %160 = getelementptr inbounds %struct.State, %struct.State* %0, i32 0, i32 6
  %161 = getelementptr inbounds %struct.GPR, %struct.GPR* %160, i32 0, i32 15
  %162 = getelementptr inbounds %struct.Reg, %struct.Reg* %161, i32 0, i32 0
  %RBP.i68 = bitcast %union.anon* %162 to i64*
  %163 = load i64, i64* %RBP.i68
  %164 = sub i64 %163, 36
  %165 = load i64, i64* %PC.i66
  %166 = add i64 %165, 3
  store i64 %166, i64* %PC.i66
  %167 = inttoptr i64 %164 to i32*
  %168 = load i32, i32* %167
  %169 = zext i32 %168 to i64
  store i64 %169, i64* %RAX.i67, align 8
  store %struct.Memory* %loadMem_40b5c4, %struct.Memory** %MEMORY
  %loadMem_40b5c7 = load %struct.Memory*, %struct.Memory** %MEMORY
  %170 = getelementptr inbounds %struct.State, %struct.State* %0, i32 0, i32 6
  %171 = getelementptr inbounds %struct.GPR, %struct.GPR* %170, i32 0, i32 33
  %172 = getelementptr inbounds %struct.Reg, %struct.Reg* %171, i32 0, i32 0
  %PC.i64 = bitcast %union.anon* %172 to i64*
  %173 = getelementptr inbounds %struct.State, %struct.State* %0, i32 0, i32 6
  %174 = getelementptr inbounds %struct.GPR, %struct.GPR* %173, i32 0, i32 1
  %175 = getelementptr inbounds %struct.Reg, %struct.Reg* %174, i32 0, i32 0
  %EAX.i65 = bitcast %union.anon* %175 to i32*
  %176 = load i32, i32* %EAX.i65
  %177 = zext i32 %176 to i64
  %178 = load i64, i64* %PC.i64
  %179 = add i64 %178, 7
  store i64 %179, i64* %PC.i64
  %180 = load i32, i32* inttoptr (i64 6398080 to i32*)
  %181 = sub i32 %176, %180
  %182 = icmp ult i32 %176, %180
  %183 = zext i1 %182 to i8
  %184 = getelementptr inbounds %struct.State, %struct.State* %0, i64 0, i32 2, i32 1
  store i8 %183, i8* %184, align 1
  %185 = and i32 %181, 255
  %186 = call i32 @llvm.ctpop.i32(i32 %185)
  %187 = trunc i32 %186 to i8
  %188 = and i8 %187, 1
  %189 = xor i8 %188, 1
  %190 = getelementptr inbounds %struct.State, %struct.State* %0, i64 0, i32 2, i32 3
  store i8 %189, i8* %190, align 1
  %191 = xor i32 %180, %176
  %192 = xor i32 %191, %181
  %193 = lshr i32 %192, 4
  %194 = trunc i32 %193 to i8
  %195 = and i8 %194, 1
  %196 = getelementptr inbounds %struct.State, %struct.State* %0, i64 0, i32 2, i32 5
  store i8 %195, i8* %196, align 1
  %197 = icmp eq i32 %181, 0
  %198 = zext i1 %197 to i8
  %199 = getelementptr inbounds %struct.State, %struct.State* %0, i64 0, i32 2, i32 7
  store i8 %198, i8* %199, align 1
  %200 = lshr i32 %181, 31
  %201 = trunc i32 %200 to i8
  %202 = getelementptr inbounds %struct.State, %struct.State* %0, i64 0, i32 2, i32 9
  store i8 %201, i8* %202, align 1
  %203 = lshr i32 %176, 31
  %204 = lshr i32 %180, 31
  %205 = xor i32 %204, %203
  %206 = xor i32 %200, %203
  %207 = add i32 %206, %205
  %208 = icmp eq i32 %207, 2
  %209 = zext i1 %208 to i8
  %210 = getelementptr inbounds %struct.State, %struct.State* %0, i64 0, i32 2, i32 13
  store i8 %209, i8* %210, align 1
  store %struct.Memory* %loadMem_40b5c7, %struct.Memory** %MEMORY
  %loadMem_40b5ce = load %struct.Memory*, %struct.Memory** %MEMORY
  %211 = getelementptr inbounds %struct.State, %struct.State* %0, i32 0, i32 6
  %212 = getelementptr inbounds %struct.GPR, %struct.GPR* %211, i32 0, i32 33
  %213 = getelementptr inbounds %struct.Reg, %struct.Reg* %212, i32 0, i32 0
  %PC.i63 = bitcast %union.anon* %213 to i64*
  %214 = load i64, i64* %PC.i63
  %215 = add i64 %214, 109
  %216 = load i64, i64* %PC.i63
  %217 = add i64 %216, 6
  %218 = load i64, i64* %PC.i63
  %219 = add i64 %218, 6
  store i64 %219, i64* %PC.i63
  %220 = getelementptr inbounds %struct.State, %struct.State* %0, i64 0, i32 2, i32 9
  %221 = load i8, i8* %220, align 1
  %222 = icmp ne i8 %221, 0
  %223 = getelementptr inbounds %struct.State, %struct.State* %0, i64 0, i32 2, i32 13
  %224 = load i8, i8* %223, align 1
  %225 = icmp ne i8 %224, 0
  %226 = xor i1 %222, %225
  %227 = xor i1 %226, true
  %228 = zext i1 %227 to i8
  store i8 %228, i8* %BRANCH_TAKEN, align 1
  %229 = getelementptr inbounds %struct.State, %struct.State* %0, i64 0, i32 6, i32 33, i32 0, i32 0
  %230 = select i1 %226, i64 %217, i64 %215
  store i64 %230, i64* %229, align 8
  store %struct.Memory* %loadMem_40b5ce, %struct.Memory** %MEMORY
  %loadBr_40b5ce = load i8, i8* %BRANCH_TAKEN
  %cmpBr_40b5ce = icmp eq i8 %loadBr_40b5ce, 1
  br i1 %cmpBr_40b5ce, label %block_.L_40b63b, label %block_40b5d4

block_40b5d4:                                     ; preds = %block_.L_40b5c4
  %loadMem_40b5d4 = load %struct.Memory*, %struct.Memory** %MEMORY
  %231 = getelementptr inbounds %struct.State, %struct.State* %0, i32 0, i32 6
  %232 = getelementptr inbounds %struct.GPR, %struct.GPR* %231, i32 0, i32 33
  %233 = getelementptr inbounds %struct.Reg, %struct.Reg* %232, i32 0, i32 0
  %PC.i60 = bitcast %union.anon* %233 to i64*
  %234 = getelementptr inbounds %struct.State, %struct.State* %0, i32 0, i32 1
  %235 = getelementptr inbounds [32 x %union.VectorReg], [32 x %union.VectorReg]* %234, i64 0, i64 0
  %YMM0.i61 = bitcast %union.VectorReg* %235 to %"class.std::bitset"*
  %236 = getelementptr inbounds %struct.State, %struct.State* %0, i32 0, i32 1
  %237 = getelementptr inbounds [32 x %union.VectorReg], [32 x %union.VectorReg]* %236, i64 0, i64 0
  %XMM0.i62 = bitcast %union.VectorReg* %237 to %union.vec128_t*
  %238 = bitcast %"class.std::bitset"* %YMM0.i61 to i8*
  %239 = bitcast %"class.std::bitset"* %YMM0.i61 to i8*
  %240 = bitcast %union.vec128_t* %XMM0.i62 to i8*
  %241 = load i64, i64* %PC.i60
  %242 = add i64 %241, 3
  store i64 %242, i64* %PC.i60
  %243 = bitcast i8* %239 to i64*
  %244 = load i64, i64* %243, align 1
  %245 = getelementptr inbounds i8, i8* %239, i64 8
  %246 = bitcast i8* %245 to i64*
  %247 = load i64, i64* %246, align 1
  %248 = bitcast i8* %240 to i64*
  %249 = load i64, i64* %248, align 1
  %250 = getelementptr inbounds i8, i8* %240, i64 8
  %251 = bitcast i8* %250 to i64*
  %252 = load i64, i64* %251, align 1
  %253 = xor i64 %249, %244
  %254 = xor i64 %252, %247
  %255 = trunc i64 %253 to i32
  %256 = lshr i64 %253, 32
  %257 = trunc i64 %256 to i32
  %258 = bitcast i8* %238 to i32*
  store i32 %255, i32* %258, align 1
  %259 = getelementptr inbounds i8, i8* %238, i64 4
  %260 = bitcast i8* %259 to i32*
  store i32 %257, i32* %260, align 1
  %261 = trunc i64 %254 to i32
  %262 = getelementptr inbounds i8, i8* %238, i64 8
  %263 = bitcast i8* %262 to i32*
  store i32 %261, i32* %263, align 1
  %264 = lshr i64 %254, 32
  %265 = trunc i64 %264 to i32
  %266 = getelementptr inbounds i8, i8* %238, i64 12
  %267 = bitcast i8* %266 to i32*
  store i32 %265, i32* %267, align 1
  store %struct.Memory* %loadMem_40b5d4, %struct.Memory** %MEMORY
  %loadMem_40b5d7 = load %struct.Memory*, %struct.Memory** %MEMORY
  %268 = getelementptr inbounds %struct.State, %struct.State* %0, i32 0, i32 6
  %269 = getelementptr inbounds %struct.GPR, %struct.GPR* %268, i32 0, i32 33
  %270 = getelementptr inbounds %struct.Reg, %struct.Reg* %269, i32 0, i32 0
  %PC.i57 = bitcast %union.anon* %270 to i64*
  %271 = getelementptr inbounds %struct.State, %struct.State* %0, i32 0, i32 6
  %272 = getelementptr inbounds %struct.GPR, %struct.GPR* %271, i32 0, i32 15
  %273 = getelementptr inbounds %struct.Reg, %struct.Reg* %272, i32 0, i32 0
  %RBP.i58 = bitcast %union.anon* %273 to i64*
  %274 = getelementptr inbounds %struct.State, %struct.State* %0, i32 0, i32 1
  %275 = getelementptr inbounds [32 x %union.VectorReg], [32 x %union.VectorReg]* %274, i64 0, i64 0
  %XMM0.i59 = bitcast %union.VectorReg* %275 to %union.vec128_t*
  %276 = load i64, i64* %RBP.i58
  %277 = sub i64 %276, 48
  %278 = bitcast %union.vec128_t* %XMM0.i59 to i8*
  %279 = load i64, i64* %PC.i57
  %280 = add i64 %279, 5
  store i64 %280, i64* %PC.i57
  %281 = bitcast i8* %278 to double*
  %282 = load double, double* %281, align 1
  %283 = inttoptr i64 %277 to double*
  store double %282, double* %283
  store %struct.Memory* %loadMem_40b5d7, %struct.Memory** %MEMORY
  %loadMem_40b5dc = load %struct.Memory*, %struct.Memory** %MEMORY
  %284 = getelementptr inbounds %struct.State, %struct.State* %0, i32 0, i32 6
  %285 = getelementptr inbounds %struct.GPR, %struct.GPR* %284, i32 0, i32 33
  %286 = getelementptr inbounds %struct.Reg, %struct.Reg* %285, i32 0, i32 0
  %PC.i55 = bitcast %union.anon* %286 to i64*
  %287 = getelementptr inbounds %struct.State, %struct.State* %0, i32 0, i32 6
  %288 = getelementptr inbounds %struct.GPR, %struct.GPR* %287, i32 0, i32 15
  %289 = getelementptr inbounds %struct.Reg, %struct.Reg* %288, i32 0, i32 0
  %RBP.i56 = bitcast %union.anon* %289 to i64*
  %290 = load i64, i64* %RBP.i56
  %291 = sub i64 %290, 52
  %292 = load i64, i64* %PC.i55
  %293 = add i64 %292, 7
  store i64 %293, i64* %PC.i55
  %294 = inttoptr i64 %291 to i32*
  store i32 0, i32* %294
  store %struct.Memory* %loadMem_40b5dc, %struct.Memory** %MEMORY
  br label %block_.L_40b5e3

block_.L_40b5e3:                                  ; preds = %block_40b5ef, %block_40b5d4
  %loadMem_40b5e3 = load %struct.Memory*, %struct.Memory** %MEMORY
  %295 = getelementptr inbounds %struct.State, %struct.State* %0, i32 0, i32 6
  %296 = getelementptr inbounds %struct.GPR, %struct.GPR* %295, i32 0, i32 33
  %297 = getelementptr inbounds %struct.Reg, %struct.Reg* %296, i32 0, i32 0
  %PC.i52 = bitcast %union.anon* %297 to i64*
  %298 = getelementptr inbounds %struct.State, %struct.State* %0, i32 0, i32 6
  %299 = getelementptr inbounds %struct.GPR, %struct.GPR* %298, i32 0, i32 1
  %300 = getelementptr inbounds %struct.Reg, %struct.Reg* %299, i32 0, i32 0
  %RAX.i53 = bitcast %union.anon* %300 to i64*
  %301 = getelementptr inbounds %struct.State, %struct.State* %0, i32 0, i32 6
  %302 = getelementptr inbounds %struct.GPR, %struct.GPR* %301, i32 0, i32 15
  %303 = getelementptr inbounds %struct.Reg, %struct.Reg* %302, i32 0, i32 0
  %RBP.i54 = bitcast %union.anon* %303 to i64*
  %304 = load i64, i64* %RBP.i54
  %305 = sub i64 %304, 52
  %306 = load i64, i64* %PC.i52
  %307 = add i64 %306, 3
  store i64 %307, i64* %PC.i52
  %308 = inttoptr i64 %305 to i32*
  %309 = load i32, i32* %308
  %310 = zext i32 %309 to i64
  store i64 %310, i64* %RAX.i53, align 8
  store %struct.Memory* %loadMem_40b5e3, %struct.Memory** %MEMORY
  %loadMem_40b5e6 = load %struct.Memory*, %struct.Memory** %MEMORY
  %311 = getelementptr inbounds %struct.State, %struct.State* %0, i32 0, i32 6
  %312 = getelementptr inbounds %struct.GPR, %struct.GPR* %311, i32 0, i32 33
  %313 = getelementptr inbounds %struct.Reg, %struct.Reg* %312, i32 0, i32 0
  %PC.i49 = bitcast %union.anon* %313 to i64*
  %314 = getelementptr inbounds %struct.State, %struct.State* %0, i32 0, i32 6
  %315 = getelementptr inbounds %struct.GPR, %struct.GPR* %314, i32 0, i32 1
  %316 = getelementptr inbounds %struct.Reg, %struct.Reg* %315, i32 0, i32 0
  %EAX.i50 = bitcast %union.anon* %316 to i32*
  %317 = getelementptr inbounds %struct.State, %struct.State* %0, i32 0, i32 6
  %318 = getelementptr inbounds %struct.GPR, %struct.GPR* %317, i32 0, i32 15
  %319 = getelementptr inbounds %struct.Reg, %struct.Reg* %318, i32 0, i32 0
  %RBP.i51 = bitcast %union.anon* %319 to i64*
  %320 = load i32, i32* %EAX.i50
  %321 = zext i32 %320 to i64
  %322 = load i64, i64* %RBP.i51
  %323 = sub i64 %322, 12
  %324 = load i64, i64* %PC.i49
  %325 = add i64 %324, 3
  store i64 %325, i64* %PC.i49
  %326 = inttoptr i64 %323 to i32*
  %327 = load i32, i32* %326
  %328 = sub i32 %320, %327
  %329 = icmp ult i32 %320, %327
  %330 = zext i1 %329 to i8
  %331 = getelementptr inbounds %struct.State, %struct.State* %0, i64 0, i32 2, i32 1
  store i8 %330, i8* %331, align 1
  %332 = and i32 %328, 255
  %333 = call i32 @llvm.ctpop.i32(i32 %332)
  %334 = trunc i32 %333 to i8
  %335 = and i8 %334, 1
  %336 = xor i8 %335, 1
  %337 = getelementptr inbounds %struct.State, %struct.State* %0, i64 0, i32 2, i32 3
  store i8 %336, i8* %337, align 1
  %338 = xor i32 %327, %320
  %339 = xor i32 %338, %328
  %340 = lshr i32 %339, 4
  %341 = trunc i32 %340 to i8
  %342 = and i8 %341, 1
  %343 = getelementptr inbounds %struct.State, %struct.State* %0, i64 0, i32 2, i32 5
  store i8 %342, i8* %343, align 1
  %344 = icmp eq i32 %328, 0
  %345 = zext i1 %344 to i8
  %346 = getelementptr inbounds %struct.State, %struct.State* %0, i64 0, i32 2, i32 7
  store i8 %345, i8* %346, align 1
  %347 = lshr i32 %328, 31
  %348 = trunc i32 %347 to i8
  %349 = getelementptr inbounds %struct.State, %struct.State* %0, i64 0, i32 2, i32 9
  store i8 %348, i8* %349, align 1
  %350 = lshr i32 %320, 31
  %351 = lshr i32 %327, 31
  %352 = xor i32 %351, %350
  %353 = xor i32 %347, %350
  %354 = add i32 %353, %352
  %355 = icmp eq i32 %354, 2
  %356 = zext i1 %355 to i8
  %357 = getelementptr inbounds %struct.State, %struct.State* %0, i64 0, i32 2, i32 13
  store i8 %356, i8* %357, align 1
  store %struct.Memory* %loadMem_40b5e6, %struct.Memory** %MEMORY
  %loadMem_40b5e9 = load %struct.Memory*, %struct.Memory** %MEMORY
  %358 = getelementptr inbounds %struct.State, %struct.State* %0, i32 0, i32 6
  %359 = getelementptr inbounds %struct.GPR, %struct.GPR* %358, i32 0, i32 33
  %360 = getelementptr inbounds %struct.Reg, %struct.Reg* %359, i32 0, i32 0
  %PC.i48 = bitcast %union.anon* %360 to i64*
  %361 = load i64, i64* %PC.i48
  %362 = add i64 %361, 53
  %363 = load i64, i64* %PC.i48
  %364 = add i64 %363, 6
  %365 = load i64, i64* %PC.i48
  %366 = add i64 %365, 6
  store i64 %366, i64* %PC.i48
  %367 = getelementptr inbounds %struct.State, %struct.State* %0, i64 0, i32 2, i32 9
  %368 = load i8, i8* %367, align 1
  %369 = icmp ne i8 %368, 0
  %370 = getelementptr inbounds %struct.State, %struct.State* %0, i64 0, i32 2, i32 13
  %371 = load i8, i8* %370, align 1
  %372 = icmp ne i8 %371, 0
  %373 = xor i1 %369, %372
  %374 = xor i1 %373, true
  %375 = zext i1 %374 to i8
  store i8 %375, i8* %BRANCH_TAKEN, align 1
  %376 = getelementptr inbounds %struct.State, %struct.State* %0, i64 0, i32 6, i32 33, i32 0, i32 0
  %377 = select i1 %373, i64 %364, i64 %362
  store i64 %377, i64* %376, align 8
  store %struct.Memory* %loadMem_40b5e9, %struct.Memory** %MEMORY
  %loadBr_40b5e9 = load i8, i8* %BRANCH_TAKEN
  %cmpBr_40b5e9 = icmp eq i8 %loadBr_40b5e9, 1
  br i1 %cmpBr_40b5e9, label %block_.L_40b61e, label %block_40b5ef

block_40b5ef:                                     ; preds = %block_.L_40b5e3
  %loadMem_40b5ef = load %struct.Memory*, %struct.Memory** %MEMORY
  %378 = getelementptr inbounds %struct.State, %struct.State* %0, i32 0, i32 6
  %379 = getelementptr inbounds %struct.GPR, %struct.GPR* %378, i32 0, i32 33
  %380 = getelementptr inbounds %struct.Reg, %struct.Reg* %379, i32 0, i32 0
  %PC.i45 = bitcast %union.anon* %380 to i64*
  %381 = getelementptr inbounds %struct.State, %struct.State* %0, i32 0, i32 6
  %382 = getelementptr inbounds %struct.GPR, %struct.GPR* %381, i32 0, i32 1
  %383 = getelementptr inbounds %struct.Reg, %struct.Reg* %382, i32 0, i32 0
  %RAX.i46 = bitcast %union.anon* %383 to i64*
  %384 = getelementptr inbounds %struct.State, %struct.State* %0, i32 0, i32 6
  %385 = getelementptr inbounds %struct.GPR, %struct.GPR* %384, i32 0, i32 15
  %386 = getelementptr inbounds %struct.Reg, %struct.Reg* %385, i32 0, i32 0
  %RBP.i47 = bitcast %union.anon* %386 to i64*
  %387 = load i64, i64* %RBP.i47
  %388 = sub i64 %387, 8
  %389 = load i64, i64* %PC.i45
  %390 = add i64 %389, 4
  store i64 %390, i64* %PC.i45
  %391 = inttoptr i64 %388 to i64*
  %392 = load i64, i64* %391
  store i64 %392, i64* %RAX.i46, align 8
  store %struct.Memory* %loadMem_40b5ef, %struct.Memory** %MEMORY
  %loadMem_40b5f3 = load %struct.Memory*, %struct.Memory** %MEMORY
  %393 = getelementptr inbounds %struct.State, %struct.State* %0, i32 0, i32 6
  %394 = getelementptr inbounds %struct.GPR, %struct.GPR* %393, i32 0, i32 33
  %395 = getelementptr inbounds %struct.Reg, %struct.Reg* %394, i32 0, i32 0
  %PC.i42 = bitcast %union.anon* %395 to i64*
  %396 = getelementptr inbounds %struct.State, %struct.State* %0, i32 0, i32 6
  %397 = getelementptr inbounds %struct.GPR, %struct.GPR* %396, i32 0, i32 5
  %398 = getelementptr inbounds %struct.Reg, %struct.Reg* %397, i32 0, i32 0
  %RCX.i43 = bitcast %union.anon* %398 to i64*
  %399 = getelementptr inbounds %struct.State, %struct.State* %0, i32 0, i32 6
  %400 = getelementptr inbounds %struct.GPR, %struct.GPR* %399, i32 0, i32 15
  %401 = getelementptr inbounds %struct.Reg, %struct.Reg* %400, i32 0, i32 0
  %RBP.i44 = bitcast %union.anon* %401 to i64*
  %402 = load i64, i64* %RBP.i44
  %403 = sub i64 %402, 52
  %404 = load i64, i64* %PC.i42
  %405 = add i64 %404, 4
  store i64 %405, i64* %PC.i42
  %406 = inttoptr i64 %403 to i32*
  %407 = load i32, i32* %406
  %408 = sext i32 %407 to i64
  store i64 %408, i64* %RCX.i43, align 8
  store %struct.Memory* %loadMem_40b5f3, %struct.Memory** %MEMORY
  %loadMem_40b5f7 = load %struct.Memory*, %struct.Memory** %MEMORY
  %409 = getelementptr inbounds %struct.State, %struct.State* %0, i32 0, i32 6
  %410 = getelementptr inbounds %struct.GPR, %struct.GPR* %409, i32 0, i32 33
  %411 = getelementptr inbounds %struct.Reg, %struct.Reg* %410, i32 0, i32 0
  %PC.i39 = bitcast %union.anon* %411 to i64*
  %412 = getelementptr inbounds %struct.State, %struct.State* %0, i32 0, i32 6
  %413 = getelementptr inbounds %struct.GPR, %struct.GPR* %412, i32 0, i32 1
  %414 = getelementptr inbounds %struct.Reg, %struct.Reg* %413, i32 0, i32 0
  %RAX.i40 = bitcast %union.anon* %414 to i64*
  %415 = getelementptr inbounds %struct.State, %struct.State* %0, i32 0, i32 6
  %416 = getelementptr inbounds %struct.GPR, %struct.GPR* %415, i32 0, i32 5
  %417 = getelementptr inbounds %struct.Reg, %struct.Reg* %416, i32 0, i32 0
  %RCX.i = bitcast %union.anon* %417 to i64*
  %418 = getelementptr inbounds %struct.State, %struct.State* %0, i32 0, i32 1
  %419 = getelementptr inbounds [32 x %union.VectorReg], [32 x %union.VectorReg]* %418, i64 0, i64 0
  %YMM0.i41 = bitcast %union.VectorReg* %419 to %"class.std::bitset"*
  %420 = bitcast %"class.std::bitset"* %YMM0.i41 to i8*
  %421 = load i64, i64* %RAX.i40
  %422 = load i64, i64* %RCX.i
  %423 = mul i64 %422, 8
  %424 = add i64 %423, %421
  %425 = load i64, i64* %PC.i39
  %426 = add i64 %425, 5
  store i64 %426, i64* %PC.i39
  %427 = inttoptr i64 %424 to double*
  %428 = load double, double* %427
  %429 = bitcast i8* %420 to double*
  store double %428, double* %429, align 1
  %430 = getelementptr inbounds i8, i8* %420, i64 8
  %431 = bitcast i8* %430 to double*
  store double 0.000000e+00, double* %431, align 1
  store %struct.Memory* %loadMem_40b5f7, %struct.Memory** %MEMORY
  %loadMem_40b5fc = load %struct.Memory*, %struct.Memory** %MEMORY
  %432 = getelementptr inbounds %struct.State, %struct.State* %0, i32 0, i32 6
  %433 = getelementptr inbounds %struct.GPR, %struct.GPR* %432, i32 0, i32 33
  %434 = getelementptr inbounds %struct.Reg, %struct.Reg* %433, i32 0, i32 0
  %PC.i36 = bitcast %union.anon* %434 to i64*
  %435 = getelementptr inbounds %struct.State, %struct.State* %0, i32 0, i32 6
  %436 = getelementptr inbounds %struct.GPR, %struct.GPR* %435, i32 0, i32 15
  %437 = getelementptr inbounds %struct.Reg, %struct.Reg* %436, i32 0, i32 0
  %RBP.i37 = bitcast %union.anon* %437 to i64*
  %438 = getelementptr inbounds %struct.State, %struct.State* %0, i32 0, i32 1
  %439 = getelementptr inbounds [32 x %union.VectorReg], [32 x %union.VectorReg]* %438, i64 0, i64 1
  %YMM1.i38 = bitcast %union.VectorReg* %439 to %"class.std::bitset"*
  %440 = bitcast %"class.std::bitset"* %YMM1.i38 to i8*
  %441 = load i64, i64* %RBP.i37
  %442 = sub i64 %441, 24
  %443 = load i64, i64* %PC.i36
  %444 = add i64 %443, 5
  store i64 %444, i64* %PC.i36
  %445 = inttoptr i64 %442 to double*
  %446 = load double, double* %445
  %447 = bitcast i8* %440 to double*
  store double %446, double* %447, align 1
  %448 = getelementptr inbounds i8, i8* %440, i64 8
  %449 = bitcast i8* %448 to double*
  store double 0.000000e+00, double* %449, align 1
  store %struct.Memory* %loadMem_40b5fc, %struct.Memory** %MEMORY
  %loadMem1_40b601 = load %struct.Memory*, %struct.Memory** %MEMORY
  %450 = getelementptr inbounds %struct.State, %struct.State* %0, i32 0, i32 6
  %451 = getelementptr inbounds %struct.GPR, %struct.GPR* %450, i32 0, i32 33
  %452 = getelementptr inbounds %struct.Reg, %struct.Reg* %451, i32 0, i32 0
  %PC.i35 = bitcast %union.anon* %452 to i64*
  %453 = load i64, i64* %PC.i35
  %454 = add i64 %453, 4511
  %455 = load i64, i64* %PC.i35
  %456 = add i64 %455, 5
  %457 = load i64, i64* %PC.i35
  %458 = add i64 %457, 5
  store i64 %458, i64* %PC.i35
  %459 = getelementptr inbounds %struct.State, %struct.State* %0, i64 0, i32 6, i32 13, i32 0, i32 0
  %460 = load i64, i64* %459, align 8
  %461 = add i64 %460, -8
  %462 = inttoptr i64 %461 to i64*
  store i64 %456, i64* %462
  store i64 %461, i64* %459, align 8
  %463 = getelementptr inbounds %struct.State, %struct.State* %0, i64 0, i32 6, i32 33, i32 0, i32 0
  store i64 %454, i64* %463, align 8
  store %struct.Memory* %loadMem1_40b601, %struct.Memory** %MEMORY
  %loadMem2_40b601 = load %struct.Memory*, %struct.Memory** %MEMORY
  %loadPC_40b601 = load i64, i64* %3
  %call2_40b601 = call %struct.Memory* @sub_40c7a0._ZN19custom_add_variableIdE8do_shiftEdd(%struct.State* %0, i64 %loadPC_40b601, %struct.Memory* %loadMem2_40b601)
  store %struct.Memory* %call2_40b601, %struct.Memory** %MEMORY
  %loadMem_40b606 = load %struct.Memory*, %struct.Memory** %MEMORY
  %464 = getelementptr inbounds %struct.State, %struct.State* %0, i32 0, i32 6
  %465 = getelementptr inbounds %struct.GPR, %struct.GPR* %464, i32 0, i32 33
  %466 = getelementptr inbounds %struct.Reg, %struct.Reg* %465, i32 0, i32 0
  %PC.i32 = bitcast %union.anon* %466 to i64*
  %467 = getelementptr inbounds %struct.State, %struct.State* %0, i32 0, i32 6
  %468 = getelementptr inbounds %struct.GPR, %struct.GPR* %467, i32 0, i32 15
  %469 = getelementptr inbounds %struct.Reg, %struct.Reg* %468, i32 0, i32 0
  %RBP.i33 = bitcast %union.anon* %469 to i64*
  %470 = getelementptr inbounds %struct.State, %struct.State* %0, i32 0, i32 1
  %471 = getelementptr inbounds [32 x %union.VectorReg], [32 x %union.VectorReg]* %470, i64 0, i64 0
  %YMM0.i34 = bitcast %union.VectorReg* %471 to %"class.std::bitset"*
  %472 = bitcast %"class.std::bitset"* %YMM0.i34 to i8*
  %473 = bitcast %"class.std::bitset"* %YMM0.i34 to i8*
  %474 = load i64, i64* %RBP.i33
  %475 = sub i64 %474, 48
  %476 = load i64, i64* %PC.i32
  %477 = add i64 %476, 5
  store i64 %477, i64* %PC.i32
  %478 = bitcast i8* %473 to double*
  %479 = load double, double* %478, align 1
  %480 = getelementptr inbounds i8, i8* %473, i64 8
  %481 = bitcast i8* %480 to i64*
  %482 = load i64, i64* %481, align 1
  %483 = inttoptr i64 %475 to double*
  %484 = load double, double* %483
  %485 = fadd double %479, %484
  %486 = bitcast i8* %472 to double*
  store double %485, double* %486, align 1
  %487 = getelementptr inbounds i8, i8* %472, i64 8
  %488 = bitcast i8* %487 to i64*
  store i64 %482, i64* %488, align 1
  store %struct.Memory* %loadMem_40b606, %struct.Memory** %MEMORY
  %loadMem_40b60b = load %struct.Memory*, %struct.Memory** %MEMORY
  %489 = getelementptr inbounds %struct.State, %struct.State* %0, i32 0, i32 6
  %490 = getelementptr inbounds %struct.GPR, %struct.GPR* %489, i32 0, i32 33
  %491 = getelementptr inbounds %struct.Reg, %struct.Reg* %490, i32 0, i32 0
  %PC.i30 = bitcast %union.anon* %491 to i64*
  %492 = getelementptr inbounds %struct.State, %struct.State* %0, i32 0, i32 6
  %493 = getelementptr inbounds %struct.GPR, %struct.GPR* %492, i32 0, i32 15
  %494 = getelementptr inbounds %struct.Reg, %struct.Reg* %493, i32 0, i32 0
  %RBP.i31 = bitcast %union.anon* %494 to i64*
  %495 = getelementptr inbounds %struct.State, %struct.State* %0, i32 0, i32 1
  %496 = getelementptr inbounds [32 x %union.VectorReg], [32 x %union.VectorReg]* %495, i64 0, i64 0
  %XMM0.i = bitcast %union.VectorReg* %496 to %union.vec128_t*
  %497 = load i64, i64* %RBP.i31
  %498 = sub i64 %497, 48
  %499 = bitcast %union.vec128_t* %XMM0.i to i8*
  %500 = load i64, i64* %PC.i30
  %501 = add i64 %500, 5
  store i64 %501, i64* %PC.i30
  %502 = bitcast i8* %499 to double*
  %503 = load double, double* %502, align 1
  %504 = inttoptr i64 %498 to double*
  store double %503, double* %504
  store %struct.Memory* %loadMem_40b60b, %struct.Memory** %MEMORY
  %loadMem_40b610 = load %struct.Memory*, %struct.Memory** %MEMORY
  %505 = getelementptr inbounds %struct.State, %struct.State* %0, i32 0, i32 6
  %506 = getelementptr inbounds %struct.GPR, %struct.GPR* %505, i32 0, i32 33
  %507 = getelementptr inbounds %struct.Reg, %struct.Reg* %506, i32 0, i32 0
  %PC.i27 = bitcast %union.anon* %507 to i64*
  %508 = getelementptr inbounds %struct.State, %struct.State* %0, i32 0, i32 6
  %509 = getelementptr inbounds %struct.GPR, %struct.GPR* %508, i32 0, i32 1
  %510 = getelementptr inbounds %struct.Reg, %struct.Reg* %509, i32 0, i32 0
  %RAX.i28 = bitcast %union.anon* %510 to i64*
  %511 = getelementptr inbounds %struct.State, %struct.State* %0, i32 0, i32 6
  %512 = getelementptr inbounds %struct.GPR, %struct.GPR* %511, i32 0, i32 15
  %513 = getelementptr inbounds %struct.Reg, %struct.Reg* %512, i32 0, i32 0
  %RBP.i29 = bitcast %union.anon* %513 to i64*
  %514 = load i64, i64* %RBP.i29
  %515 = sub i64 %514, 52
  %516 = load i64, i64* %PC.i27
  %517 = add i64 %516, 3
  store i64 %517, i64* %PC.i27
  %518 = inttoptr i64 %515 to i32*
  %519 = load i32, i32* %518
  %520 = zext i32 %519 to i64
  store i64 %520, i64* %RAX.i28, align 8
  store %struct.Memory* %loadMem_40b610, %struct.Memory** %MEMORY
  %loadMem_40b613 = load %struct.Memory*, %struct.Memory** %MEMORY
  %521 = getelementptr inbounds %struct.State, %struct.State* %0, i32 0, i32 6
  %522 = getelementptr inbounds %struct.GPR, %struct.GPR* %521, i32 0, i32 33
  %523 = getelementptr inbounds %struct.Reg, %struct.Reg* %522, i32 0, i32 0
  %PC.i25 = bitcast %union.anon* %523 to i64*
  %524 = getelementptr inbounds %struct.State, %struct.State* %0, i32 0, i32 6
  %525 = getelementptr inbounds %struct.GPR, %struct.GPR* %524, i32 0, i32 1
  %526 = getelementptr inbounds %struct.Reg, %struct.Reg* %525, i32 0, i32 0
  %RAX.i26 = bitcast %union.anon* %526 to i64*
  %527 = load i64, i64* %RAX.i26
  %528 = load i64, i64* %PC.i25
  %529 = add i64 %528, 3
  store i64 %529, i64* %PC.i25
  %530 = trunc i64 %527 to i32
  %531 = add i32 1, %530
  %532 = zext i32 %531 to i64
  store i64 %532, i64* %RAX.i26, align 8
  %533 = icmp ult i32 %531, %530
  %534 = icmp ult i32 %531, 1
  %535 = or i1 %533, %534
  %536 = zext i1 %535 to i8
  %537 = getelementptr inbounds %struct.State, %struct.State* %0, i64 0, i32 2, i32 1
  store i8 %536, i8* %537, align 1
  %538 = and i32 %531, 255
  %539 = call i32 @llvm.ctpop.i32(i32 %538)
  %540 = trunc i32 %539 to i8
  %541 = and i8 %540, 1
  %542 = xor i8 %541, 1
  %543 = getelementptr inbounds %struct.State, %struct.State* %0, i64 0, i32 2, i32 3
  store i8 %542, i8* %543, align 1
  %544 = xor i64 1, %527
  %545 = trunc i64 %544 to i32
  %546 = xor i32 %545, %531
  %547 = lshr i32 %546, 4
  %548 = trunc i32 %547 to i8
  %549 = and i8 %548, 1
  %550 = getelementptr inbounds %struct.State, %struct.State* %0, i64 0, i32 2, i32 5
  store i8 %549, i8* %550, align 1
  %551 = icmp eq i32 %531, 0
  %552 = zext i1 %551 to i8
  %553 = getelementptr inbounds %struct.State, %struct.State* %0, i64 0, i32 2, i32 7
  store i8 %552, i8* %553, align 1
  %554 = lshr i32 %531, 31
  %555 = trunc i32 %554 to i8
  %556 = getelementptr inbounds %struct.State, %struct.State* %0, i64 0, i32 2, i32 9
  store i8 %555, i8* %556, align 1
  %557 = lshr i32 %530, 31
  %558 = xor i32 %554, %557
  %559 = add i32 %558, %554
  %560 = icmp eq i32 %559, 2
  %561 = zext i1 %560 to i8
  %562 = getelementptr inbounds %struct.State, %struct.State* %0, i64 0, i32 2, i32 13
  store i8 %561, i8* %562, align 1
  store %struct.Memory* %loadMem_40b613, %struct.Memory** %MEMORY
  %loadMem_40b616 = load %struct.Memory*, %struct.Memory** %MEMORY
  %563 = getelementptr inbounds %struct.State, %struct.State* %0, i32 0, i32 6
  %564 = getelementptr inbounds %struct.GPR, %struct.GPR* %563, i32 0, i32 33
  %565 = getelementptr inbounds %struct.Reg, %struct.Reg* %564, i32 0, i32 0
  %PC.i22 = bitcast %union.anon* %565 to i64*
  %566 = getelementptr inbounds %struct.State, %struct.State* %0, i32 0, i32 6
  %567 = getelementptr inbounds %struct.GPR, %struct.GPR* %566, i32 0, i32 1
  %568 = getelementptr inbounds %struct.Reg, %struct.Reg* %567, i32 0, i32 0
  %EAX.i23 = bitcast %union.anon* %568 to i32*
  %569 = getelementptr inbounds %struct.State, %struct.State* %0, i32 0, i32 6
  %570 = getelementptr inbounds %struct.GPR, %struct.GPR* %569, i32 0, i32 15
  %571 = getelementptr inbounds %struct.Reg, %struct.Reg* %570, i32 0, i32 0
  %RBP.i24 = bitcast %union.anon* %571 to i64*
  %572 = load i64, i64* %RBP.i24
  %573 = sub i64 %572, 52
  %574 = load i32, i32* %EAX.i23
  %575 = zext i32 %574 to i64
  %576 = load i64, i64* %PC.i22
  %577 = add i64 %576, 3
  store i64 %577, i64* %PC.i22
  %578 = inttoptr i64 %573 to i32*
  store i32 %574, i32* %578
  store %struct.Memory* %loadMem_40b616, %struct.Memory** %MEMORY
  %loadMem_40b619 = load %struct.Memory*, %struct.Memory** %MEMORY
  %579 = getelementptr inbounds %struct.State, %struct.State* %0, i32 0, i32 6
  %580 = getelementptr inbounds %struct.GPR, %struct.GPR* %579, i32 0, i32 33
  %581 = getelementptr inbounds %struct.Reg, %struct.Reg* %580, i32 0, i32 0
  %PC.i21 = bitcast %union.anon* %581 to i64*
  %582 = load i64, i64* %PC.i21
  %583 = add i64 %582, -54
  %584 = load i64, i64* %PC.i21
  %585 = add i64 %584, 5
  store i64 %585, i64* %PC.i21
  %586 = getelementptr inbounds %struct.State, %struct.State* %0, i64 0, i32 6, i32 33, i32 0, i32 0
  store i64 %583, i64* %586, align 8
  store %struct.Memory* %loadMem_40b619, %struct.Memory** %MEMORY
  br label %block_.L_40b5e3

block_.L_40b61e:                                  ; preds = %block_.L_40b5e3
  %loadMem_40b61e = load %struct.Memory*, %struct.Memory** %MEMORY
  %587 = getelementptr inbounds %struct.State, %struct.State* %0, i32 0, i32 6
  %588 = getelementptr inbounds %struct.GPR, %struct.GPR* %587, i32 0, i32 33
  %589 = getelementptr inbounds %struct.Reg, %struct.Reg* %588, i32 0, i32 0
  %PC.i19 = bitcast %union.anon* %589 to i64*
  %590 = getelementptr inbounds %struct.State, %struct.State* %0, i32 0, i32 6
  %591 = getelementptr inbounds %struct.GPR, %struct.GPR* %590, i32 0, i32 15
  %592 = getelementptr inbounds %struct.Reg, %struct.Reg* %591, i32 0, i32 0
  %RBP.i20 = bitcast %union.anon* %592 to i64*
  %593 = getelementptr inbounds %struct.State, %struct.State* %0, i32 0, i32 1
  %594 = getelementptr inbounds [32 x %union.VectorReg], [32 x %union.VectorReg]* %593, i64 0, i64 0
  %YMM0.i = bitcast %union.VectorReg* %594 to %"class.std::bitset"*
  %595 = bitcast %"class.std::bitset"* %YMM0.i to i8*
  %596 = load i64, i64* %RBP.i20
  %597 = sub i64 %596, 48
  %598 = load i64, i64* %PC.i19
  %599 = add i64 %598, 5
  store i64 %599, i64* %PC.i19
  %600 = inttoptr i64 %597 to double*
  %601 = load double, double* %600
  %602 = bitcast i8* %595 to double*
  store double %601, double* %602, align 1
  %603 = getelementptr inbounds i8, i8* %595, i64 8
  %604 = bitcast i8* %603 to double*
  store double 0.000000e+00, double* %604, align 1
  store %struct.Memory* %loadMem_40b61e, %struct.Memory** %MEMORY
  %loadMem_40b623 = load %struct.Memory*, %struct.Memory** %MEMORY
  %605 = getelementptr inbounds %struct.State, %struct.State* %0, i32 0, i32 6
  %606 = getelementptr inbounds %struct.GPR, %struct.GPR* %605, i32 0, i32 33
  %607 = getelementptr inbounds %struct.Reg, %struct.Reg* %606, i32 0, i32 0
  %PC.i17 = bitcast %union.anon* %607 to i64*
  %608 = getelementptr inbounds %struct.State, %struct.State* %0, i32 0, i32 6
  %609 = getelementptr inbounds %struct.GPR, %struct.GPR* %608, i32 0, i32 15
  %610 = getelementptr inbounds %struct.Reg, %struct.Reg* %609, i32 0, i32 0
  %RBP.i18 = bitcast %union.anon* %610 to i64*
  %611 = getelementptr inbounds %struct.State, %struct.State* %0, i32 0, i32 1
  %612 = getelementptr inbounds [32 x %union.VectorReg], [32 x %union.VectorReg]* %611, i64 0, i64 1
  %YMM1.i = bitcast %union.VectorReg* %612 to %"class.std::bitset"*
  %613 = bitcast %"class.std::bitset"* %YMM1.i to i8*
  %614 = load i64, i64* %RBP.i18
  %615 = sub i64 %614, 24
  %616 = load i64, i64* %PC.i17
  %617 = add i64 %616, 5
  store i64 %617, i64* %PC.i17
  %618 = inttoptr i64 %615 to double*
  %619 = load double, double* %618
  %620 = bitcast i8* %613 to double*
  store double %619, double* %620, align 1
  %621 = getelementptr inbounds i8, i8* %613, i64 8
  %622 = bitcast i8* %621 to double*
  store double 0.000000e+00, double* %622, align 1
  store %struct.Memory* %loadMem_40b623, %struct.Memory** %MEMORY
  %loadMem1_40b628 = load %struct.Memory*, %struct.Memory** %MEMORY
  %623 = getelementptr inbounds %struct.State, %struct.State* %0, i32 0, i32 6
  %624 = getelementptr inbounds %struct.GPR, %struct.GPR* %623, i32 0, i32 33
  %625 = getelementptr inbounds %struct.Reg, %struct.Reg* %624, i32 0, i32 0
  %PC.i16 = bitcast %union.anon* %625 to i64*
  %626 = load i64, i64* %PC.i16
  %627 = add i64 %626, 4360
  %628 = load i64, i64* %PC.i16
  %629 = add i64 %628, 5
  %630 = load i64, i64* %PC.i16
  %631 = add i64 %630, 5
  store i64 %631, i64* %PC.i16
  %632 = getelementptr inbounds %struct.State, %struct.State* %0, i64 0, i32 6, i32 13, i32 0, i32 0
  %633 = load i64, i64* %632, align 8
  %634 = add i64 %633, -8
  %635 = inttoptr i64 %634 to i64*
  store i64 %629, i64* %635
  store i64 %634, i64* %632, align 8
  %636 = getelementptr inbounds %struct.State, %struct.State* %0, i64 0, i32 6, i32 33, i32 0, i32 0
  store i64 %627, i64* %636, align 8
  store %struct.Memory* %loadMem1_40b628, %struct.Memory** %MEMORY
  %loadMem2_40b628 = load %struct.Memory*, %struct.Memory** %MEMORY
  %loadPC_40b628 = load i64, i64* %3
  %call2_40b628 = call %struct.Memory* @sub_40c730._Z26check_shifted_variable_sumId19custom_add_variableIdEEvT_S2_(%struct.State* %0, i64 %loadPC_40b628, %struct.Memory* %loadMem2_40b628)
  store %struct.Memory* %call2_40b628, %struct.Memory** %MEMORY
  %loadMem_40b62d = load %struct.Memory*, %struct.Memory** %MEMORY
  %637 = getelementptr inbounds %struct.State, %struct.State* %0, i32 0, i32 6
  %638 = getelementptr inbounds %struct.GPR, %struct.GPR* %637, i32 0, i32 33
  %639 = getelementptr inbounds %struct.Reg, %struct.Reg* %638, i32 0, i32 0
  %PC.i13 = bitcast %union.anon* %639 to i64*
  %640 = getelementptr inbounds %struct.State, %struct.State* %0, i32 0, i32 6
  %641 = getelementptr inbounds %struct.GPR, %struct.GPR* %640, i32 0, i32 1
  %642 = getelementptr inbounds %struct.Reg, %struct.Reg* %641, i32 0, i32 0
  %RAX.i14 = bitcast %union.anon* %642 to i64*
  %643 = getelementptr inbounds %struct.State, %struct.State* %0, i32 0, i32 6
  %644 = getelementptr inbounds %struct.GPR, %struct.GPR* %643, i32 0, i32 15
  %645 = getelementptr inbounds %struct.Reg, %struct.Reg* %644, i32 0, i32 0
  %RBP.i15 = bitcast %union.anon* %645 to i64*
  %646 = load i64, i64* %RBP.i15
  %647 = sub i64 %646, 36
  %648 = load i64, i64* %PC.i13
  %649 = add i64 %648, 3
  store i64 %649, i64* %PC.i13
  %650 = inttoptr i64 %647 to i32*
  %651 = load i32, i32* %650
  %652 = zext i32 %651 to i64
  store i64 %652, i64* %RAX.i14, align 8
  store %struct.Memory* %loadMem_40b62d, %struct.Memory** %MEMORY
  %loadMem_40b630 = load %struct.Memory*, %struct.Memory** %MEMORY
  %653 = getelementptr inbounds %struct.State, %struct.State* %0, i32 0, i32 6
  %654 = getelementptr inbounds %struct.GPR, %struct.GPR* %653, i32 0, i32 33
  %655 = getelementptr inbounds %struct.Reg, %struct.Reg* %654, i32 0, i32 0
  %PC.i12 = bitcast %union.anon* %655 to i64*
  %656 = getelementptr inbounds %struct.State, %struct.State* %0, i32 0, i32 6
  %657 = getelementptr inbounds %struct.GPR, %struct.GPR* %656, i32 0, i32 1
  %658 = getelementptr inbounds %struct.Reg, %struct.Reg* %657, i32 0, i32 0
  %RAX.i = bitcast %union.anon* %658 to i64*
  %659 = load i64, i64* %RAX.i
  %660 = load i64, i64* %PC.i12
  %661 = add i64 %660, 3
  store i64 %661, i64* %PC.i12
  %662 = trunc i64 %659 to i32
  %663 = add i32 1, %662
  %664 = zext i32 %663 to i64
  store i64 %664, i64* %RAX.i, align 8
  %665 = icmp ult i32 %663, %662
  %666 = icmp ult i32 %663, 1
  %667 = or i1 %665, %666
  %668 = zext i1 %667 to i8
  %669 = getelementptr inbounds %struct.State, %struct.State* %0, i64 0, i32 2, i32 1
  store i8 %668, i8* %669, align 1
  %670 = and i32 %663, 255
  %671 = call i32 @llvm.ctpop.i32(i32 %670)
  %672 = trunc i32 %671 to i8
  %673 = and i8 %672, 1
  %674 = xor i8 %673, 1
  %675 = getelementptr inbounds %struct.State, %struct.State* %0, i64 0, i32 2, i32 3
  store i8 %674, i8* %675, align 1
  %676 = xor i64 1, %659
  %677 = trunc i64 %676 to i32
  %678 = xor i32 %677, %663
  %679 = lshr i32 %678, 4
  %680 = trunc i32 %679 to i8
  %681 = and i8 %680, 1
  %682 = getelementptr inbounds %struct.State, %struct.State* %0, i64 0, i32 2, i32 5
  store i8 %681, i8* %682, align 1
  %683 = icmp eq i32 %663, 0
  %684 = zext i1 %683 to i8
  %685 = getelementptr inbounds %struct.State, %struct.State* %0, i64 0, i32 2, i32 7
  store i8 %684, i8* %685, align 1
  %686 = lshr i32 %663, 31
  %687 = trunc i32 %686 to i8
  %688 = getelementptr inbounds %struct.State, %struct.State* %0, i64 0, i32 2, i32 9
  store i8 %687, i8* %688, align 1
  %689 = lshr i32 %662, 31
  %690 = xor i32 %686, %689
  %691 = add i32 %690, %686
  %692 = icmp eq i32 %691, 2
  %693 = zext i1 %692 to i8
  %694 = getelementptr inbounds %struct.State, %struct.State* %0, i64 0, i32 2, i32 13
  store i8 %693, i8* %694, align 1
  store %struct.Memory* %loadMem_40b630, %struct.Memory** %MEMORY
  %loadMem_40b633 = load %struct.Memory*, %struct.Memory** %MEMORY
  %695 = getelementptr inbounds %struct.State, %struct.State* %0, i32 0, i32 6
  %696 = getelementptr inbounds %struct.GPR, %struct.GPR* %695, i32 0, i32 33
  %697 = getelementptr inbounds %struct.Reg, %struct.Reg* %696, i32 0, i32 0
  %PC.i10 = bitcast %union.anon* %697 to i64*
  %698 = getelementptr inbounds %struct.State, %struct.State* %0, i32 0, i32 6
  %699 = getelementptr inbounds %struct.GPR, %struct.GPR* %698, i32 0, i32 1
  %700 = getelementptr inbounds %struct.Reg, %struct.Reg* %699, i32 0, i32 0
  %EAX.i = bitcast %union.anon* %700 to i32*
  %701 = getelementptr inbounds %struct.State, %struct.State* %0, i32 0, i32 6
  %702 = getelementptr inbounds %struct.GPR, %struct.GPR* %701, i32 0, i32 15
  %703 = getelementptr inbounds %struct.Reg, %struct.Reg* %702, i32 0, i32 0
  %RBP.i11 = bitcast %union.anon* %703 to i64*
  %704 = load i64, i64* %RBP.i11
  %705 = sub i64 %704, 36
  %706 = load i32, i32* %EAX.i
  %707 = zext i32 %706 to i64
  %708 = load i64, i64* %PC.i10
  %709 = add i64 %708, 3
  store i64 %709, i64* %PC.i10
  %710 = inttoptr i64 %705 to i32*
  store i32 %706, i32* %710
  store %struct.Memory* %loadMem_40b633, %struct.Memory** %MEMORY
  %loadMem_40b636 = load %struct.Memory*, %struct.Memory** %MEMORY
  %711 = getelementptr inbounds %struct.State, %struct.State* %0, i32 0, i32 6
  %712 = getelementptr inbounds %struct.GPR, %struct.GPR* %711, i32 0, i32 33
  %713 = getelementptr inbounds %struct.Reg, %struct.Reg* %712, i32 0, i32 0
  %PC.i9 = bitcast %union.anon* %713 to i64*
  %714 = load i64, i64* %PC.i9
  %715 = add i64 %714, -114
  %716 = load i64, i64* %PC.i9
  %717 = add i64 %716, 5
  store i64 %717, i64* %PC.i9
  %718 = getelementptr inbounds %struct.State, %struct.State* %0, i64 0, i32 6, i32 33, i32 0, i32 0
  store i64 %715, i64* %718, align 8
  store %struct.Memory* %loadMem_40b636, %struct.Memory** %MEMORY
  br label %block_.L_40b5c4

block_.L_40b63b:                                  ; preds = %block_.L_40b5c4
  %loadMem1_40b63b = load %struct.Memory*, %struct.Memory** %MEMORY
  %719 = getelementptr inbounds %struct.State, %struct.State* %0, i32 0, i32 6
  %720 = getelementptr inbounds %struct.GPR, %struct.GPR* %719, i32 0, i32 33
  %721 = getelementptr inbounds %struct.Reg, %struct.Reg* %720, i32 0, i32 0
  %PC.i8 = bitcast %union.anon* %721 to i64*
  %722 = load i64, i64* %PC.i8
  %723 = add i64 %722, -42955
  %724 = load i64, i64* %PC.i8
  %725 = add i64 %724, 5
  %726 = load i64, i64* %PC.i8
  %727 = add i64 %726, 5
  store i64 %727, i64* %PC.i8
  %728 = getelementptr inbounds %struct.State, %struct.State* %0, i64 0, i32 6, i32 13, i32 0, i32 0
  %729 = load i64, i64* %728, align 8
  %730 = add i64 %729, -8
  %731 = inttoptr i64 %730 to i64*
  store i64 %725, i64* %731
  store i64 %730, i64* %728, align 8
  %732 = getelementptr inbounds %struct.State, %struct.State* %0, i64 0, i32 6, i32 33, i32 0, i32 0
  store i64 %723, i64* %732, align 8
  store %struct.Memory* %loadMem1_40b63b, %struct.Memory** %MEMORY
  %loadMem2_40b63b = load %struct.Memory*, %struct.Memory** %MEMORY
  %loadPC_40b63b = load i64, i64* %3
  %call2_40b63b = call %struct.Memory* @sub_400e70._Z5timerv(%struct.State* %0, i64 %loadPC_40b63b, %struct.Memory* %loadMem2_40b63b)
  store %struct.Memory* %call2_40b63b, %struct.Memory** %MEMORY
  %loadMem_40b640 = load %struct.Memory*, %struct.Memory** %MEMORY
  %733 = getelementptr inbounds %struct.State, %struct.State* %0, i32 0, i32 6
  %734 = getelementptr inbounds %struct.GPR, %struct.GPR* %733, i32 0, i32 33
  %735 = getelementptr inbounds %struct.Reg, %struct.Reg* %734, i32 0, i32 0
  %PC.i6 = bitcast %union.anon* %735 to i64*
  %736 = getelementptr inbounds %struct.State, %struct.State* %0, i32 0, i32 6
  %737 = getelementptr inbounds %struct.GPR, %struct.GPR* %736, i32 0, i32 11
  %738 = getelementptr inbounds %struct.Reg, %struct.Reg* %737, i32 0, i32 0
  %RDI.i = bitcast %union.anon* %738 to i64*
  %739 = getelementptr inbounds %struct.State, %struct.State* %0, i32 0, i32 6
  %740 = getelementptr inbounds %struct.GPR, %struct.GPR* %739, i32 0, i32 15
  %741 = getelementptr inbounds %struct.Reg, %struct.Reg* %740, i32 0, i32 0
  %RBP.i7 = bitcast %union.anon* %741 to i64*
  %742 = load i64, i64* %RBP.i7
  %743 = sub i64 %742, 32
  %744 = load i64, i64* %PC.i6
  %745 = add i64 %744, 4
  store i64 %745, i64* %PC.i6
  %746 = inttoptr i64 %743 to i64*
  %747 = load i64, i64* %746
  store i64 %747, i64* %RDI.i, align 8
  store %struct.Memory* %loadMem_40b640, %struct.Memory** %MEMORY
  %loadMem1_40b644 = load %struct.Memory*, %struct.Memory** %MEMORY
  %748 = getelementptr inbounds %struct.State, %struct.State* %0, i32 0, i32 6
  %749 = getelementptr inbounds %struct.GPR, %struct.GPR* %748, i32 0, i32 33
  %750 = getelementptr inbounds %struct.Reg, %struct.Reg* %749, i32 0, i32 0
  %PC.i5 = bitcast %union.anon* %750 to i64*
  %751 = load i64, i64* %PC.i5
  %752 = add i64 %751, -44596
  %753 = load i64, i64* %PC.i5
  %754 = add i64 %753, 5
  %755 = load i64, i64* %PC.i5
  %756 = add i64 %755, 5
  store i64 %756, i64* %PC.i5
  %757 = getelementptr inbounds %struct.State, %struct.State* %0, i64 0, i32 6, i32 13, i32 0, i32 0
  %758 = load i64, i64* %757, align 8
  %759 = add i64 %758, -8
  %760 = inttoptr i64 %759 to i64*
  store i64 %754, i64* %760
  store i64 %759, i64* %757, align 8
  %761 = getelementptr inbounds %struct.State, %struct.State* %0, i64 0, i32 6, i32 33, i32 0, i32 0
  store i64 %752, i64* %761, align 8
  store %struct.Memory* %loadMem1_40b644, %struct.Memory** %MEMORY
  %loadMem2_40b644 = load %struct.Memory*, %struct.Memory** %MEMORY
  %loadPC_40b644 = load i64, i64* %3
  %call2_40b644 = call %struct.Memory* @sub_400810._Z13record_resultdPKc(%struct.State* %0, i64 %loadPC_40b644, %struct.Memory* %loadMem2_40b644)
  store %struct.Memory* %call2_40b644, %struct.Memory** %MEMORY
  %loadMem_40b649 = load %struct.Memory*, %struct.Memory** %MEMORY
  %762 = getelementptr inbounds %struct.State, %struct.State* %0, i32 0, i32 6
  %763 = getelementptr inbounds %struct.GPR, %struct.GPR* %762, i32 0, i32 33
  %764 = getelementptr inbounds %struct.Reg, %struct.Reg* %763, i32 0, i32 0
  %PC.i4 = bitcast %union.anon* %764 to i64*
  %765 = getelementptr inbounds %struct.State, %struct.State* %0, i32 0, i32 6
  %766 = getelementptr inbounds %struct.GPR, %struct.GPR* %765, i32 0, i32 13
  %767 = getelementptr inbounds %struct.Reg, %struct.Reg* %766, i32 0, i32 0
  %RSP.i = bitcast %union.anon* %767 to i64*
  %768 = load i64, i64* %RSP.i
  %769 = load i64, i64* %PC.i4
  %770 = add i64 %769, 4
  store i64 %770, i64* %PC.i4
  %771 = add i64 64, %768
  store i64 %771, i64* %RSP.i, align 8
  %772 = icmp ult i64 %771, %768
  %773 = icmp ult i64 %771, 64
  %774 = or i1 %772, %773
  %775 = zext i1 %774 to i8
  %776 = getelementptr inbounds %struct.State, %struct.State* %0, i64 0, i32 2, i32 1
  store i8 %775, i8* %776, align 1
  %777 = trunc i64 %771 to i32
  %778 = and i32 %777, 255
  %779 = call i32 @llvm.ctpop.i32(i32 %778)
  %780 = trunc i32 %779 to i8
  %781 = and i8 %780, 1
  %782 = xor i8 %781, 1
  %783 = getelementptr inbounds %struct.State, %struct.State* %0, i64 0, i32 2, i32 3
  store i8 %782, i8* %783, align 1
  %784 = xor i64 64, %768
  %785 = xor i64 %784, %771
  %786 = lshr i64 %785, 4
  %787 = trunc i64 %786 to i8
  %788 = and i8 %787, 1
  %789 = getelementptr inbounds %struct.State, %struct.State* %0, i64 0, i32 2, i32 5
  store i8 %788, i8* %789, align 1
  %790 = icmp eq i64 %771, 0
  %791 = zext i1 %790 to i8
  %792 = getelementptr inbounds %struct.State, %struct.State* %0, i64 0, i32 2, i32 7
  store i8 %791, i8* %792, align 1
  %793 = lshr i64 %771, 63
  %794 = trunc i64 %793 to i8
  %795 = getelementptr inbounds %struct.State, %struct.State* %0, i64 0, i32 2, i32 9
  store i8 %794, i8* %795, align 1
  %796 = lshr i64 %768, 63
  %797 = xor i64 %793, %796
  %798 = add i64 %797, %793
  %799 = icmp eq i64 %798, 2
  %800 = zext i1 %799 to i8
  %801 = getelementptr inbounds %struct.State, %struct.State* %0, i64 0, i32 2, i32 13
  store i8 %800, i8* %801, align 1
  store %struct.Memory* %loadMem_40b649, %struct.Memory** %MEMORY
  %loadMem_40b64d = load %struct.Memory*, %struct.Memory** %MEMORY
  %802 = getelementptr inbounds %struct.State, %struct.State* %0, i32 0, i32 6
  %803 = getelementptr inbounds %struct.GPR, %struct.GPR* %802, i32 0, i32 33
  %804 = getelementptr inbounds %struct.Reg, %struct.Reg* %803, i32 0, i32 0
  %PC.i2 = bitcast %union.anon* %804 to i64*
  %805 = getelementptr inbounds %struct.State, %struct.State* %0, i32 0, i32 6
  %806 = getelementptr inbounds %struct.GPR, %struct.GPR* %805, i32 0, i32 15
  %807 = getelementptr inbounds %struct.Reg, %struct.Reg* %806, i32 0, i32 0
  %RBP.i3 = bitcast %union.anon* %807 to i64*
  %808 = load i64, i64* %PC.i2
  %809 = add i64 %808, 1
  store i64 %809, i64* %PC.i2
  %810 = getelementptr inbounds %struct.State, %struct.State* %0, i64 0, i32 6, i32 13, i32 0, i32 0
  %811 = load i64, i64* %810, align 8
  %812 = add i64 %811, 8
  %813 = inttoptr i64 %811 to i64*
  %814 = load i64, i64* %813
  store i64 %814, i64* %RBP.i3, align 8
  store i64 %812, i64* %810, align 8
  store %struct.Memory* %loadMem_40b64d, %struct.Memory** %MEMORY
  %loadMem_40b64e = load %struct.Memory*, %struct.Memory** %MEMORY
  %815 = getelementptr inbounds %struct.State, %struct.State* %0, i32 0, i32 6
  %816 = getelementptr inbounds %struct.GPR, %struct.GPR* %815, i32 0, i32 33
  %817 = getelementptr inbounds %struct.Reg, %struct.Reg* %816, i32 0, i32 0
  %PC.i1 = bitcast %union.anon* %817 to i64*
  %818 = load i64, i64* %PC.i1
  %819 = add i64 %818, 1
  store i64 %819, i64* %PC.i1
  %820 = getelementptr inbounds %struct.State, %struct.State* %0, i64 0, i32 6, i32 33, i32 0, i32 0
  %821 = getelementptr inbounds %struct.State, %struct.State* %0, i64 0, i32 6, i32 13, i32 0, i32 0
  %822 = load i64, i64* %821, align 8
  %823 = inttoptr i64 %822 to i64*
  %824 = load i64, i64* %823
  store i64 %824, i64* %820, align 8
  %825 = add i64 %822, 8
  store i64 %825, i64* %821, align 8
  store %struct.Memory* %loadMem_40b64e, %struct.Memory** %MEMORY
  ret %struct.Memory* %loadMem_40b64e
}

define %struct.Memory* @routine_pushq__rbp(%struct.State* dereferenceable(3376), i64, %struct.Memory*) {
block_400488:
  %3 = getelementptr inbounds %struct.State, %struct.State* %0, i32 0, i32 6
  %4 = getelementptr inbounds %struct.GPR, %struct.GPR* %3, i32 0, i32 33
  %5 = getelementptr inbounds %struct.Reg, %struct.Reg* %4, i32 0, i32 0
  %PC = bitcast %union.anon* %5 to i64*
  %6 = getelementptr inbounds %struct.State, %struct.State* %0, i32 0, i32 6
  %7 = getelementptr inbounds %struct.GPR, %struct.GPR* %6, i32 0, i32 15
  %8 = getelementptr inbounds %struct.Reg, %struct.Reg* %7, i32 0, i32 0
  %RBP = bitcast %union.anon* %8 to i64*
  %9 = load i64, i64* %RBP
  %10 = load i64, i64* %PC
  %11 = add i64 %10, 1
  store i64 %11, i64* %PC
  %12 = getelementptr inbounds %struct.State, %struct.State* %0, i64 0, i32 6, i32 13, i32 0, i32 0
  %13 = load i64, i64* %12, align 8
  %14 = add i64 %13, -8
  %15 = inttoptr i64 %14 to i64*
  store i64 %9, i64* %15
  store i64 %14, i64* %12, align 8
  ret %struct.Memory* %2
}

define %struct.Memory* @routine_movq__rsp___rbp(%struct.State* dereferenceable(3376), i64, %struct.Memory*) {
block_400488:
  %3 = getelementptr inbounds %struct.State, %struct.State* %0, i32 0, i32 6
  %4 = getelementptr inbounds %struct.GPR, %struct.GPR* %3, i32 0, i32 33
  %5 = getelementptr inbounds %struct.Reg, %struct.Reg* %4, i32 0, i32 0
  %PC = bitcast %union.anon* %5 to i64*
  %6 = getelementptr inbounds %struct.State, %struct.State* %0, i32 0, i32 6
  %7 = getelementptr inbounds %struct.GPR, %struct.GPR* %6, i32 0, i32 13
  %8 = getelementptr inbounds %struct.Reg, %struct.Reg* %7, i32 0, i32 0
  %RSP = bitcast %union.anon* %8 to i64*
  %9 = getelementptr inbounds %struct.State, %struct.State* %0, i32 0, i32 6
  %10 = getelementptr inbounds %struct.GPR, %struct.GPR* %9, i32 0, i32 15
  %11 = getelementptr inbounds %struct.Reg, %struct.Reg* %10, i32 0, i32 0
  %RBP = bitcast %union.anon* %11 to i64*
  %12 = load i64, i64* %RSP
  %13 = load i64, i64* %PC
  %14 = add i64 %13, 3
  store i64 %14, i64* %PC
  store i64 %12, i64* %RBP, align 8
  ret %struct.Memory* %2
}

define %struct.Memory* @routine_subq__0x40___rsp(%struct.State* dereferenceable(3376), i64, %struct.Memory*) {
block_400488:
  %3 = getelementptr inbounds %struct.State, %struct.State* %0, i32 0, i32 6
  %4 = getelementptr inbounds %struct.GPR, %struct.GPR* %3, i32 0, i32 33
  %5 = getelementptr inbounds %struct.Reg, %struct.Reg* %4, i32 0, i32 0
  %PC = bitcast %union.anon* %5 to i64*
  %6 = getelementptr inbounds %struct.State, %struct.State* %0, i32 0, i32 6
  %7 = getelementptr inbounds %struct.GPR, %struct.GPR* %6, i32 0, i32 13
  %8 = getelementptr inbounds %struct.Reg, %struct.Reg* %7, i32 0, i32 0
  %RSP = bitcast %union.anon* %8 to i64*
  %9 = load i64, i64* %RSP
  %10 = load i64, i64* %PC
  %11 = add i64 %10, 4
  store i64 %11, i64* %PC
  %12 = sub i64 %9, 64
  store i64 %12, i64* %RSP, align 8
  %13 = icmp ult i64 %9, 64
  %14 = zext i1 %13 to i8
  %15 = getelementptr inbounds %struct.State, %struct.State* %0, i64 0, i32 2, i32 1
  store i8 %14, i8* %15, align 1
  %16 = trunc i64 %12 to i32
  %17 = and i32 %16, 255
  %18 = call i32 @llvm.ctpop.i32(i32 %17)
  %19 = trunc i32 %18 to i8
  %20 = and i8 %19, 1
  %21 = xor i8 %20, 1
  %22 = getelementptr inbounds %struct.State, %struct.State* %0, i64 0, i32 2, i32 3
  store i8 %21, i8* %22, align 1
  %23 = xor i64 64, %9
  %24 = xor i64 %23, %12
  %25 = lshr i64 %24, 4
  %26 = trunc i64 %25 to i8
  %27 = and i8 %26, 1
  %28 = getelementptr inbounds %struct.State, %struct.State* %0, i64 0, i32 2, i32 5
  store i8 %27, i8* %28, align 1
  %29 = icmp eq i64 %12, 0
  %30 = zext i1 %29 to i8
  %31 = getelementptr inbounds %struct.State, %struct.State* %0, i64 0, i32 2, i32 7
  store i8 %30, i8* %31, align 1
  %32 = lshr i64 %12, 63
  %33 = trunc i64 %32 to i8
  %34 = getelementptr inbounds %struct.State, %struct.State* %0, i64 0, i32 2, i32 9
  store i8 %33, i8* %34, align 1
  %35 = lshr i64 %9, 63
  %36 = xor i64 %32, %35
  %37 = add i64 %36, %35
  %38 = icmp eq i64 %37, 2
  %39 = zext i1 %38 to i8
  %40 = getelementptr inbounds %struct.State, %struct.State* %0, i64 0, i32 2, i32 13
  store i8 %39, i8* %40, align 1
  ret %struct.Memory* %2
}

define %struct.Memory* @routine_movq__rdi__MINUS0x8__rbp_(%struct.State* dereferenceable(3376), i64, %struct.Memory*) {
block_400488:
  %3 = getelementptr inbounds %struct.State, %struct.State* %0, i32 0, i32 6
  %4 = getelementptr inbounds %struct.GPR, %struct.GPR* %3, i32 0, i32 33
  %5 = getelementptr inbounds %struct.Reg, %struct.Reg* %4, i32 0, i32 0
  %PC = bitcast %union.anon* %5 to i64*
  %6 = getelementptr inbounds %struct.State, %struct.State* %0, i32 0, i32 6
  %7 = getelementptr inbounds %struct.GPR, %struct.GPR* %6, i32 0, i32 11
  %8 = getelementptr inbounds %struct.Reg, %struct.Reg* %7, i32 0, i32 0
  %RDI = bitcast %union.anon* %8 to i64*
  %9 = getelementptr inbounds %struct.State, %struct.State* %0, i32 0, i32 6
  %10 = getelementptr inbounds %struct.GPR, %struct.GPR* %9, i32 0, i32 15
  %11 = getelementptr inbounds %struct.Reg, %struct.Reg* %10, i32 0, i32 0
  %RBP = bitcast %union.anon* %11 to i64*
  %12 = load i64, i64* %RBP
  %13 = sub i64 %12, 8
  %14 = load i64, i64* %RDI
  %15 = load i64, i64* %PC
  %16 = add i64 %15, 4
  store i64 %16, i64* %PC
  %17 = inttoptr i64 %13 to i64*
  store i64 %14, i64* %17
  ret %struct.Memory* %2
}

define %struct.Memory* @routine_movl__esi__MINUS0xc__rbp_(%struct.State* dereferenceable(3376), i64, %struct.Memory*) {
block_400488:
  %3 = getelementptr inbounds %struct.State, %struct.State* %0, i32 0, i32 6
  %4 = getelementptr inbounds %struct.GPR, %struct.GPR* %3, i32 0, i32 33
  %5 = getelementptr inbounds %struct.Reg, %struct.Reg* %4, i32 0, i32 0
  %PC = bitcast %union.anon* %5 to i64*
  %6 = getelementptr inbounds %struct.State, %struct.State* %0, i32 0, i32 6
  %7 = getelementptr inbounds %struct.GPR, %struct.GPR* %6, i32 0, i32 9
  %8 = getelementptr inbounds %struct.Reg, %struct.Reg* %7, i32 0, i32 0
  %ESI = bitcast %union.anon* %8 to i32*
  %9 = getelementptr inbounds %struct.State, %struct.State* %0, i32 0, i32 6
  %10 = getelementptr inbounds %struct.GPR, %struct.GPR* %9, i32 0, i32 15
  %11 = getelementptr inbounds %struct.Reg, %struct.Reg* %10, i32 0, i32 0
  %RBP = bitcast %union.anon* %11 to i64*
  %12 = load i64, i64* %RBP
  %13 = sub i64 %12, 12
  %14 = load i32, i32* %ESI
  %15 = zext i32 %14 to i64
  %16 = load i64, i64* %PC
  %17 = add i64 %16, 3
  store i64 %17, i64* %PC
  %18 = inttoptr i64 %13 to i32*
  store i32 %14, i32* %18
  ret %struct.Memory* %2
}

define %struct.Memory* @routine_movsd__xmm0__MINUS0x18__rbp_(%struct.State* dereferenceable(3376), i64, %struct.Memory*) {
block_400488:
  %3 = getelementptr inbounds %struct.State, %struct.State* %0, i32 0, i32 6
  %4 = getelementptr inbounds %struct.GPR, %struct.GPR* %3, i32 0, i32 33
  %5 = getelementptr inbounds %struct.Reg, %struct.Reg* %4, i32 0, i32 0
  %PC = bitcast %union.anon* %5 to i64*
  %6 = getelementptr inbounds %struct.State, %struct.State* %0, i32 0, i32 6
  %7 = getelementptr inbounds %struct.GPR, %struct.GPR* %6, i32 0, i32 15
  %8 = getelementptr inbounds %struct.Reg, %struct.Reg* %7, i32 0, i32 0
  %RBP = bitcast %union.anon* %8 to i64*
  %9 = getelementptr inbounds %struct.State, %struct.State* %0, i32 0, i32 1
  %10 = getelementptr inbounds [32 x %union.VectorReg], [32 x %union.VectorReg]* %9, i64 0, i64 0
  %XMM0 = bitcast %union.VectorReg* %10 to %union.vec128_t*
  %11 = load i64, i64* %RBP
  %12 = sub i64 %11, 24
  %13 = bitcast %union.vec128_t* %XMM0 to i8*
  %14 = load i64, i64* %PC
  %15 = add i64 %14, 5
  store i64 %15, i64* %PC
  %16 = bitcast i8* %13 to double*
  %17 = load double, double* %16, align 1
  %18 = inttoptr i64 %12 to double*
  store double %17, double* %18
  ret %struct.Memory* %2
}

define %struct.Memory* @routine_movq__rdx__MINUS0x20__rbp_(%struct.State* dereferenceable(3376), i64, %struct.Memory*) {
block_400488:
  %3 = getelementptr inbounds %struct.State, %struct.State* %0, i32 0, i32 6
  %4 = getelementptr inbounds %struct.GPR, %struct.GPR* %3, i32 0, i32 33
  %5 = getelementptr inbounds %struct.Reg, %struct.Reg* %4, i32 0, i32 0
  %PC = bitcast %union.anon* %5 to i64*
  %6 = getelementptr inbounds %struct.State, %struct.State* %0, i32 0, i32 6
  %7 = getelementptr inbounds %struct.GPR, %struct.GPR* %6, i32 0, i32 7
  %8 = getelementptr inbounds %struct.Reg, %struct.Reg* %7, i32 0, i32 0
  %RDX = bitcast %union.anon* %8 to i64*
  %9 = getelementptr inbounds %struct.State, %struct.State* %0, i32 0, i32 6
  %10 = getelementptr inbounds %struct.GPR, %struct.GPR* %9, i32 0, i32 15
  %11 = getelementptr inbounds %struct.Reg, %struct.Reg* %10, i32 0, i32 0
  %RBP = bitcast %union.anon* %11 to i64*
  %12 = load i64, i64* %RBP
  %13 = sub i64 %12, 32
  %14 = load i64, i64* %RDX
  %15 = load i64, i64* %PC
  %16 = add i64 %15, 4
  store i64 %16, i64* %PC
  %17 = inttoptr i64 %13 to i64*
  store i64 %14, i64* %17
  ret %struct.Memory* %2
}

define %struct.Memory* @routine_callq_._Z11start_timerv(%struct.State* dereferenceable(3376), i64, %struct.Memory*, i64 %rel_off1, i64 %rel_off2, i64 %rel_off3) {
block_400488:
  %3 = getelementptr inbounds %struct.State, %struct.State* %0, i32 0, i32 6
  %4 = getelementptr inbounds %struct.GPR, %struct.GPR* %3, i32 0, i32 33
  %5 = getelementptr inbounds %struct.Reg, %struct.Reg* %4, i32 0, i32 0
  %PC = bitcast %union.anon* %5 to i64*
  %6 = load i64, i64* %PC
  %7 = add i64 %6, %rel_off1
  %8 = load i64, i64* %PC
  %9 = add i64 %8, %rel_off2
  %10 = load i64, i64* %PC
  %11 = add i64 %10, %rel_off3
  store i64 %11, i64* %PC
  %12 = getelementptr inbounds %struct.State, %struct.State* %0, i64 0, i32 6, i32 13, i32 0, i32 0
  %13 = load i64, i64* %12, align 8
  %14 = add i64 %13, -8
  %15 = inttoptr i64 %14 to i64*
  store i64 %9, i64* %15
  store i64 %14, i64* %12, align 8
  %16 = getelementptr inbounds %struct.State, %struct.State* %0, i64 0, i32 6, i32 33, i32 0, i32 0
  store i64 %7, i64* %16, align 8
  ret %struct.Memory* %2
}

define %struct.Memory* @routine_movl__0x0__MINUS0x24__rbp_(%struct.State* dereferenceable(3376), i64, %struct.Memory*) {
block_400488:
  %3 = getelementptr inbounds %struct.State, %struct.State* %0, i32 0, i32 6
  %4 = getelementptr inbounds %struct.GPR, %struct.GPR* %3, i32 0, i32 33
  %5 = getelementptr inbounds %struct.Reg, %struct.Reg* %4, i32 0, i32 0
  %PC = bitcast %union.anon* %5 to i64*
  %6 = getelementptr inbounds %struct.State, %struct.State* %0, i32 0, i32 6
  %7 = getelementptr inbounds %struct.GPR, %struct.GPR* %6, i32 0, i32 15
  %8 = getelementptr inbounds %struct.Reg, %struct.Reg* %7, i32 0, i32 0
  %RBP = bitcast %union.anon* %8 to i64*
  %9 = load i64, i64* %RBP
  %10 = sub i64 %9, 36
  %11 = load i64, i64* %PC
  %12 = add i64 %11, 7
  store i64 %12, i64* %PC
  %13 = inttoptr i64 %10 to i32*
  store i32 0, i32* %13
  ret %struct.Memory* %2
}

define %struct.Memory* @routine_movl_MINUS0x24__rbp____eax(%struct.State* dereferenceable(3376), i64, %struct.Memory*) {
block_400488:
  %3 = getelementptr inbounds %struct.State, %struct.State* %0, i32 0, i32 6
  %4 = getelementptr inbounds %struct.GPR, %struct.GPR* %3, i32 0, i32 33
  %5 = getelementptr inbounds %struct.Reg, %struct.Reg* %4, i32 0, i32 0
  %PC = bitcast %union.anon* %5 to i64*
  %6 = getelementptr inbounds %struct.State, %struct.State* %0, i32 0, i32 6
  %7 = getelementptr inbounds %struct.GPR, %struct.GPR* %6, i32 0, i32 1
  %8 = getelementptr inbounds %struct.Reg, %struct.Reg* %7, i32 0, i32 0
  %RAX = bitcast %union.anon* %8 to i64*
  %9 = getelementptr inbounds %struct.State, %struct.State* %0, i32 0, i32 6
  %10 = getelementptr inbounds %struct.GPR, %struct.GPR* %9, i32 0, i32 15
  %11 = getelementptr inbounds %struct.Reg, %struct.Reg* %10, i32 0, i32 0
  %RBP = bitcast %union.anon* %11 to i64*
  %12 = load i64, i64* %RBP
  %13 = sub i64 %12, 36
  %14 = load i64, i64* %PC
  %15 = add i64 %14, 3
  store i64 %15, i64* %PC
  %16 = inttoptr i64 %13 to i32*
  %17 = load i32, i32* %16
  %18 = zext i32 %17 to i64
  store i64 %18, i64* %RAX, align 8
  ret %struct.Memory* %2
}

define %struct.Memory* @routine_cmpl_0x61a080___eax(%struct.State* dereferenceable(3376), i64, %struct.Memory*) {
block_400488:
  %3 = getelementptr inbounds %struct.State, %struct.State* %0, i32 0, i32 6
  %4 = getelementptr inbounds %struct.GPR, %struct.GPR* %3, i32 0, i32 33
  %5 = getelementptr inbounds %struct.Reg, %struct.Reg* %4, i32 0, i32 0
  %PC = bitcast %union.anon* %5 to i64*
  %6 = getelementptr inbounds %struct.State, %struct.State* %0, i32 0, i32 6
  %7 = getelementptr inbounds %struct.GPR, %struct.GPR* %6, i32 0, i32 1
  %8 = getelementptr inbounds %struct.Reg, %struct.Reg* %7, i32 0, i32 0
  %EAX = bitcast %union.anon* %8 to i32*
  %9 = load i32, i32* %EAX
  %10 = zext i32 %9 to i64
  %11 = load i64, i64* %PC
  %12 = add i64 %11, 7
  store i64 %12, i64* %PC
  %13 = load i32, i32* inttoptr (i64 6398080 to i32*)
  %14 = sub i32 %9, %13
  %15 = icmp ult i32 %9, %13
  %16 = zext i1 %15 to i8
  %17 = getelementptr inbounds %struct.State, %struct.State* %0, i64 0, i32 2, i32 1
  store i8 %16, i8* %17, align 1
  %18 = and i32 %14, 255
  %19 = call i32 @llvm.ctpop.i32(i32 %18)
  %20 = trunc i32 %19 to i8
  %21 = and i8 %20, 1
  %22 = xor i8 %21, 1
  %23 = getelementptr inbounds %struct.State, %struct.State* %0, i64 0, i32 2, i32 3
  store i8 %22, i8* %23, align 1
  %24 = xor i32 %13, %9
  %25 = xor i32 %24, %14
  %26 = lshr i32 %25, 4
  %27 = trunc i32 %26 to i8
  %28 = and i8 %27, 1
  %29 = getelementptr inbounds %struct.State, %struct.State* %0, i64 0, i32 2, i32 5
  store i8 %28, i8* %29, align 1
  %30 = icmp eq i32 %14, 0
  %31 = zext i1 %30 to i8
  %32 = getelementptr inbounds %struct.State, %struct.State* %0, i64 0, i32 2, i32 7
  store i8 %31, i8* %32, align 1
  %33 = lshr i32 %14, 31
  %34 = trunc i32 %33 to i8
  %35 = getelementptr inbounds %struct.State, %struct.State* %0, i64 0, i32 2, i32 9
  store i8 %34, i8* %35, align 1
  %36 = lshr i32 %9, 31
  %37 = lshr i32 %13, 31
  %38 = xor i32 %37, %36
  %39 = xor i32 %33, %36
  %40 = add i32 %39, %38
  %41 = icmp eq i32 %40, 2
  %42 = zext i1 %41 to i8
  %43 = getelementptr inbounds %struct.State, %struct.State* %0, i64 0, i32 2, i32 13
  store i8 %42, i8* %43, align 1
  ret %struct.Memory* %2
}

define %struct.Memory* @routine_jge_.L_40b63b(%struct.State* dereferenceable(3376), i64, %struct.Memory*, i8* %BRANCH_TAKEN, i64 %rel_off1, i64 %rel_off2, i64 %rel_off3) {
block_400488:
  %3 = getelementptr inbounds %struct.State, %struct.State* %0, i32 0, i32 6
  %4 = getelementptr inbounds %struct.GPR, %struct.GPR* %3, i32 0, i32 33
  %5 = getelementptr inbounds %struct.Reg, %struct.Reg* %4, i32 0, i32 0
  %PC = bitcast %union.anon* %5 to i64*
  %6 = load i64, i64* %PC
  %7 = add i64 %6, %rel_off1
  %8 = load i64, i64* %PC
  %9 = add i64 %8, %rel_off2
  %10 = load i64, i64* %PC
  %11 = add i64 %10, %rel_off3
  store i64 %11, i64* %PC
  %12 = getelementptr inbounds %struct.State, %struct.State* %0, i64 0, i32 2, i32 9
  %13 = load i8, i8* %12, align 1
  %14 = icmp ne i8 %13, 0
  %15 = getelementptr inbounds %struct.State, %struct.State* %0, i64 0, i32 2, i32 13
  %16 = load i8, i8* %15, align 1
  %17 = icmp ne i8 %16, 0
  %18 = xor i1 %14, %17
  %19 = xor i1 %18, true
  %20 = zext i1 %19 to i8
  store i8 %20, i8* %BRANCH_TAKEN, align 1
  %21 = getelementptr inbounds %struct.State, %struct.State* %0, i64 0, i32 6, i32 33, i32 0, i32 0
  %22 = select i1 %18, i64 %9, i64 %7
  store i64 %22, i64* %21, align 8
  ret %struct.Memory* %2
}

define %struct.Memory* @routine_xorps__xmm0___xmm0(%struct.State* dereferenceable(3376), i64, %struct.Memory*) {
block_400488:
  %3 = getelementptr inbounds %struct.State, %struct.State* %0, i32 0, i32 6
  %4 = getelementptr inbounds %struct.GPR, %struct.GPR* %3, i32 0, i32 33
  %5 = getelementptr inbounds %struct.Reg, %struct.Reg* %4, i32 0, i32 0
  %PC = bitcast %union.anon* %5 to i64*
  %6 = getelementptr inbounds %struct.State, %struct.State* %0, i32 0, i32 1
  %7 = getelementptr inbounds [32 x %union.VectorReg], [32 x %union.VectorReg]* %6, i64 0, i64 0
  %YMM0 = bitcast %union.VectorReg* %7 to %"class.std::bitset"*
  %8 = getelementptr inbounds %struct.State, %struct.State* %0, i32 0, i32 1
  %9 = getelementptr inbounds [32 x %union.VectorReg], [32 x %union.VectorReg]* %8, i64 0, i64 0
  %XMM0 = bitcast %union.VectorReg* %9 to %union.vec128_t*
  %10 = bitcast %"class.std::bitset"* %YMM0 to i8*
  %11 = bitcast %"class.std::bitset"* %YMM0 to i8*
  %12 = bitcast %union.vec128_t* %XMM0 to i8*
  %13 = load i64, i64* %PC
  %14 = add i64 %13, 3
  store i64 %14, i64* %PC
  %15 = bitcast i8* %11 to i64*
  %16 = load i64, i64* %15, align 1
  %17 = getelementptr inbounds i8, i8* %11, i64 8
  %18 = bitcast i8* %17 to i64*
  %19 = load i64, i64* %18, align 1
  %20 = bitcast i8* %12 to i64*
  %21 = load i64, i64* %20, align 1
  %22 = getelementptr inbounds i8, i8* %12, i64 8
  %23 = bitcast i8* %22 to i64*
  %24 = load i64, i64* %23, align 1
  %25 = xor i64 %21, %16
  %26 = xor i64 %24, %19
  %27 = trunc i64 %25 to i32
  %28 = lshr i64 %25, 32
  %29 = trunc i64 %28 to i32
  %30 = bitcast i8* %10 to i32*
  store i32 %27, i32* %30, align 1
  %31 = getelementptr inbounds i8, i8* %10, i64 4
  %32 = bitcast i8* %31 to i32*
  store i32 %29, i32* %32, align 1
  %33 = trunc i64 %26 to i32
  %34 = getelementptr inbounds i8, i8* %10, i64 8
  %35 = bitcast i8* %34 to i32*
  store i32 %33, i32* %35, align 1
  %36 = lshr i64 %26, 32
  %37 = trunc i64 %36 to i32
  %38 = getelementptr inbounds i8, i8* %10, i64 12
  %39 = bitcast i8* %38 to i32*
  store i32 %37, i32* %39, align 1
  ret %struct.Memory* %2
}

define %struct.Memory* @routine_movsd__xmm0__MINUS0x30__rbp_(%struct.State* dereferenceable(3376), i64, %struct.Memory*) {
block_400488:
  %3 = getelementptr inbounds %struct.State, %struct.State* %0, i32 0, i32 6
  %4 = getelementptr inbounds %struct.GPR, %struct.GPR* %3, i32 0, i32 33
  %5 = getelementptr inbounds %struct.Reg, %struct.Reg* %4, i32 0, i32 0
  %PC = bitcast %union.anon* %5 to i64*
  %6 = getelementptr inbounds %struct.State, %struct.State* %0, i32 0, i32 6
  %7 = getelementptr inbounds %struct.GPR, %struct.GPR* %6, i32 0, i32 15
  %8 = getelementptr inbounds %struct.Reg, %struct.Reg* %7, i32 0, i32 0
  %RBP = bitcast %union.anon* %8 to i64*
  %9 = getelementptr inbounds %struct.State, %struct.State* %0, i32 0, i32 1
  %10 = getelementptr inbounds [32 x %union.VectorReg], [32 x %union.VectorReg]* %9, i64 0, i64 0
  %XMM0 = bitcast %union.VectorReg* %10 to %union.vec128_t*
  %11 = load i64, i64* %RBP
  %12 = sub i64 %11, 48
  %13 = bitcast %union.vec128_t* %XMM0 to i8*
  %14 = load i64, i64* %PC
  %15 = add i64 %14, 5
  store i64 %15, i64* %PC
  %16 = bitcast i8* %13 to double*
  %17 = load double, double* %16, align 1
  %18 = inttoptr i64 %12 to double*
  store double %17, double* %18
  ret %struct.Memory* %2
}

define %struct.Memory* @routine_movl__0x0__MINUS0x34__rbp_(%struct.State* dereferenceable(3376), i64, %struct.Memory*) {
block_400488:
  %3 = getelementptr inbounds %struct.State, %struct.State* %0, i32 0, i32 6
  %4 = getelementptr inbounds %struct.GPR, %struct.GPR* %3, i32 0, i32 33
  %5 = getelementptr inbounds %struct.Reg, %struct.Reg* %4, i32 0, i32 0
  %PC = bitcast %union.anon* %5 to i64*
  %6 = getelementptr inbounds %struct.State, %struct.State* %0, i32 0, i32 6
  %7 = getelementptr inbounds %struct.GPR, %struct.GPR* %6, i32 0, i32 15
  %8 = getelementptr inbounds %struct.Reg, %struct.Reg* %7, i32 0, i32 0
  %RBP = bitcast %union.anon* %8 to i64*
  %9 = load i64, i64* %RBP
  %10 = sub i64 %9, 52
  %11 = load i64, i64* %PC
  %12 = add i64 %11, 7
  store i64 %12, i64* %PC
  %13 = inttoptr i64 %10 to i32*
  store i32 0, i32* %13
  ret %struct.Memory* %2
}

define %struct.Memory* @routine_movl_MINUS0x34__rbp____eax(%struct.State* dereferenceable(3376), i64, %struct.Memory*) {
block_400488:
  %3 = getelementptr inbounds %struct.State, %struct.State* %0, i32 0, i32 6
  %4 = getelementptr inbounds %struct.GPR, %struct.GPR* %3, i32 0, i32 33
  %5 = getelementptr inbounds %struct.Reg, %struct.Reg* %4, i32 0, i32 0
  %PC = bitcast %union.anon* %5 to i64*
  %6 = getelementptr inbounds %struct.State, %struct.State* %0, i32 0, i32 6
  %7 = getelementptr inbounds %struct.GPR, %struct.GPR* %6, i32 0, i32 1
  %8 = getelementptr inbounds %struct.Reg, %struct.Reg* %7, i32 0, i32 0
  %RAX = bitcast %union.anon* %8 to i64*
  %9 = getelementptr inbounds %struct.State, %struct.State* %0, i32 0, i32 6
  %10 = getelementptr inbounds %struct.GPR, %struct.GPR* %9, i32 0, i32 15
  %11 = getelementptr inbounds %struct.Reg, %struct.Reg* %10, i32 0, i32 0
  %RBP = bitcast %union.anon* %11 to i64*
  %12 = load i64, i64* %RBP
  %13 = sub i64 %12, 52
  %14 = load i64, i64* %PC
  %15 = add i64 %14, 3
  store i64 %15, i64* %PC
  %16 = inttoptr i64 %13 to i32*
  %17 = load i32, i32* %16
  %18 = zext i32 %17 to i64
  store i64 %18, i64* %RAX, align 8
  ret %struct.Memory* %2
}

define %struct.Memory* @routine_cmpl_MINUS0xc__rbp____eax(%struct.State* dereferenceable(3376), i64, %struct.Memory*) {
block_400488:
  %3 = getelementptr inbounds %struct.State, %struct.State* %0, i32 0, i32 6
  %4 = getelementptr inbounds %struct.GPR, %struct.GPR* %3, i32 0, i32 33
  %5 = getelementptr inbounds %struct.Reg, %struct.Reg* %4, i32 0, i32 0
  %PC = bitcast %union.anon* %5 to i64*
  %6 = getelementptr inbounds %struct.State, %struct.State* %0, i32 0, i32 6
  %7 = getelementptr inbounds %struct.GPR, %struct.GPR* %6, i32 0, i32 1
  %8 = getelementptr inbounds %struct.Reg, %struct.Reg* %7, i32 0, i32 0
  %EAX = bitcast %union.anon* %8 to i32*
  %9 = getelementptr inbounds %struct.State, %struct.State* %0, i32 0, i32 6
  %10 = getelementptr inbounds %struct.GPR, %struct.GPR* %9, i32 0, i32 15
  %11 = getelementptr inbounds %struct.Reg, %struct.Reg* %10, i32 0, i32 0
  %RBP = bitcast %union.anon* %11 to i64*
  %12 = load i32, i32* %EAX
  %13 = zext i32 %12 to i64
  %14 = load i64, i64* %RBP
  %15 = sub i64 %14, 12
  %16 = load i64, i64* %PC
  %17 = add i64 %16, 3
  store i64 %17, i64* %PC
  %18 = inttoptr i64 %15 to i32*
  %19 = load i32, i32* %18
  %20 = sub i32 %12, %19
  %21 = icmp ult i32 %12, %19
  %22 = zext i1 %21 to i8
  %23 = getelementptr inbounds %struct.State, %struct.State* %0, i64 0, i32 2, i32 1
  store i8 %22, i8* %23, align 1
  %24 = and i32 %20, 255
  %25 = call i32 @llvm.ctpop.i32(i32 %24)
  %26 = trunc i32 %25 to i8
  %27 = and i8 %26, 1
  %28 = xor i8 %27, 1
  %29 = getelementptr inbounds %struct.State, %struct.State* %0, i64 0, i32 2, i32 3
  store i8 %28, i8* %29, align 1
  %30 = xor i32 %19, %12
  %31 = xor i32 %30, %20
  %32 = lshr i32 %31, 4
  %33 = trunc i32 %32 to i8
  %34 = and i8 %33, 1
  %35 = getelementptr inbounds %struct.State, %struct.State* %0, i64 0, i32 2, i32 5
  store i8 %34, i8* %35, align 1
  %36 = icmp eq i32 %20, 0
  %37 = zext i1 %36 to i8
  %38 = getelementptr inbounds %struct.State, %struct.State* %0, i64 0, i32 2, i32 7
  store i8 %37, i8* %38, align 1
  %39 = lshr i32 %20, 31
  %40 = trunc i32 %39 to i8
  %41 = getelementptr inbounds %struct.State, %struct.State* %0, i64 0, i32 2, i32 9
  store i8 %40, i8* %41, align 1
  %42 = lshr i32 %12, 31
  %43 = lshr i32 %19, 31
  %44 = xor i32 %43, %42
  %45 = xor i32 %39, %42
  %46 = add i32 %45, %44
  %47 = icmp eq i32 %46, 2
  %48 = zext i1 %47 to i8
  %49 = getelementptr inbounds %struct.State, %struct.State* %0, i64 0, i32 2, i32 13
  store i8 %48, i8* %49, align 1
  ret %struct.Memory* %2
}

define %struct.Memory* @routine_jge_.L_40b61e(%struct.State* dereferenceable(3376), i64, %struct.Memory*, i8* %BRANCH_TAKEN, i64 %rel_off1, i64 %rel_off2, i64 %rel_off3) {
block_400488:
  %3 = getelementptr inbounds %struct.State, %struct.State* %0, i32 0, i32 6
  %4 = getelementptr inbounds %struct.GPR, %struct.GPR* %3, i32 0, i32 33
  %5 = getelementptr inbounds %struct.Reg, %struct.Reg* %4, i32 0, i32 0
  %PC = bitcast %union.anon* %5 to i64*
  %6 = load i64, i64* %PC
  %7 = add i64 %6, %rel_off1
  %8 = load i64, i64* %PC
  %9 = add i64 %8, %rel_off2
  %10 = load i64, i64* %PC
  %11 = add i64 %10, %rel_off3
  store i64 %11, i64* %PC
  %12 = getelementptr inbounds %struct.State, %struct.State* %0, i64 0, i32 2, i32 9
  %13 = load i8, i8* %12, align 1
  %14 = icmp ne i8 %13, 0
  %15 = getelementptr inbounds %struct.State, %struct.State* %0, i64 0, i32 2, i32 13
  %16 = load i8, i8* %15, align 1
  %17 = icmp ne i8 %16, 0
  %18 = xor i1 %14, %17
  %19 = xor i1 %18, true
  %20 = zext i1 %19 to i8
  store i8 %20, i8* %BRANCH_TAKEN, align 1
  %21 = getelementptr inbounds %struct.State, %struct.State* %0, i64 0, i32 6, i32 33, i32 0, i32 0
  %22 = select i1 %18, i64 %9, i64 %7
  store i64 %22, i64* %21, align 8
  ret %struct.Memory* %2
}

define %struct.Memory* @routine_movq_MINUS0x8__rbp____rax(%struct.State* dereferenceable(3376), i64, %struct.Memory*) {
block_400488:
  %3 = getelementptr inbounds %struct.State, %struct.State* %0, i32 0, i32 6
  %4 = getelementptr inbounds %struct.GPR, %struct.GPR* %3, i32 0, i32 33
  %5 = getelementptr inbounds %struct.Reg, %struct.Reg* %4, i32 0, i32 0
  %PC = bitcast %union.anon* %5 to i64*
  %6 = getelementptr inbounds %struct.State, %struct.State* %0, i32 0, i32 6
  %7 = getelementptr inbounds %struct.GPR, %struct.GPR* %6, i32 0, i32 1
  %8 = getelementptr inbounds %struct.Reg, %struct.Reg* %7, i32 0, i32 0
  %RAX = bitcast %union.anon* %8 to i64*
  %9 = getelementptr inbounds %struct.State, %struct.State* %0, i32 0, i32 6
  %10 = getelementptr inbounds %struct.GPR, %struct.GPR* %9, i32 0, i32 15
  %11 = getelementptr inbounds %struct.Reg, %struct.Reg* %10, i32 0, i32 0
  %RBP = bitcast %union.anon* %11 to i64*
  %12 = load i64, i64* %RBP
  %13 = sub i64 %12, 8
  %14 = load i64, i64* %PC
  %15 = add i64 %14, 4
  store i64 %15, i64* %PC
  %16 = inttoptr i64 %13 to i64*
  %17 = load i64, i64* %16
  store i64 %17, i64* %RAX, align 8
  ret %struct.Memory* %2
}

define %struct.Memory* @routine_movslq_MINUS0x34__rbp____rcx(%struct.State* dereferenceable(3376), i64, %struct.Memory*) {
block_400488:
  %3 = getelementptr inbounds %struct.State, %struct.State* %0, i32 0, i32 6
  %4 = getelementptr inbounds %struct.GPR, %struct.GPR* %3, i32 0, i32 33
  %5 = getelementptr inbounds %struct.Reg, %struct.Reg* %4, i32 0, i32 0
  %PC = bitcast %union.anon* %5 to i64*
  %6 = getelementptr inbounds %struct.State, %struct.State* %0, i32 0, i32 6
  %7 = getelementptr inbounds %struct.GPR, %struct.GPR* %6, i32 0, i32 5
  %8 = getelementptr inbounds %struct.Reg, %struct.Reg* %7, i32 0, i32 0
  %RCX = bitcast %union.anon* %8 to i64*
  %9 = getelementptr inbounds %struct.State, %struct.State* %0, i32 0, i32 6
  %10 = getelementptr inbounds %struct.GPR, %struct.GPR* %9, i32 0, i32 15
  %11 = getelementptr inbounds %struct.Reg, %struct.Reg* %10, i32 0, i32 0
  %RBP = bitcast %union.anon* %11 to i64*
  %12 = load i64, i64* %RBP
  %13 = sub i64 %12, 52
  %14 = load i64, i64* %PC
  %15 = add i64 %14, 4
  store i64 %15, i64* %PC
  %16 = inttoptr i64 %13 to i32*
  %17 = load i32, i32* %16
  %18 = sext i32 %17 to i64
  store i64 %18, i64* %RCX, align 8
  ret %struct.Memory* %2
}

define %struct.Memory* @routine_movsd___rax__rcx_8____xmm0(%struct.State* dereferenceable(3376), i64, %struct.Memory*) {
block_400488:
  %3 = getelementptr inbounds %struct.State, %struct.State* %0, i32 0, i32 6
  %4 = getelementptr inbounds %struct.GPR, %struct.GPR* %3, i32 0, i32 33
  %5 = getelementptr inbounds %struct.Reg, %struct.Reg* %4, i32 0, i32 0
  %PC = bitcast %union.anon* %5 to i64*
  %6 = getelementptr inbounds %struct.State, %struct.State* %0, i32 0, i32 6
  %7 = getelementptr inbounds %struct.GPR, %struct.GPR* %6, i32 0, i32 1
  %8 = getelementptr inbounds %struct.Reg, %struct.Reg* %7, i32 0, i32 0
  %RAX = bitcast %union.anon* %8 to i64*
  %9 = getelementptr inbounds %struct.State, %struct.State* %0, i32 0, i32 6
  %10 = getelementptr inbounds %struct.GPR, %struct.GPR* %9, i32 0, i32 5
  %11 = getelementptr inbounds %struct.Reg, %struct.Reg* %10, i32 0, i32 0
  %RCX = bitcast %union.anon* %11 to i64*
  %12 = getelementptr inbounds %struct.State, %struct.State* %0, i32 0, i32 1
  %13 = getelementptr inbounds [32 x %union.VectorReg], [32 x %union.VectorReg]* %12, i64 0, i64 0
  %YMM0 = bitcast %union.VectorReg* %13 to %"class.std::bitset"*
  %14 = bitcast %"class.std::bitset"* %YMM0 to i8*
  %15 = load i64, i64* %RAX
  %16 = load i64, i64* %RCX
  %17 = mul i64 %16, 8
  %18 = add i64 %17, %15
  %19 = load i64, i64* %PC
  %20 = add i64 %19, 5
  store i64 %20, i64* %PC
  %21 = inttoptr i64 %18 to double*
  %22 = load double, double* %21
  %23 = bitcast i8* %14 to double*
  store double %22, double* %23, align 1
  %24 = getelementptr inbounds i8, i8* %14, i64 8
  %25 = bitcast i8* %24 to double*
  store double 0.000000e+00, double* %25, align 1
  ret %struct.Memory* %2
}

define %struct.Memory* @routine_movsd_MINUS0x18__rbp____xmm1(%struct.State* dereferenceable(3376), i64, %struct.Memory*) {
block_400488:
  %3 = getelementptr inbounds %struct.State, %struct.State* %0, i32 0, i32 6
  %4 = getelementptr inbounds %struct.GPR, %struct.GPR* %3, i32 0, i32 33
  %5 = getelementptr inbounds %struct.Reg, %struct.Reg* %4, i32 0, i32 0
  %PC = bitcast %union.anon* %5 to i64*
  %6 = getelementptr inbounds %struct.State, %struct.State* %0, i32 0, i32 6
  %7 = getelementptr inbounds %struct.GPR, %struct.GPR* %6, i32 0, i32 15
  %8 = getelementptr inbounds %struct.Reg, %struct.Reg* %7, i32 0, i32 0
  %RBP = bitcast %union.anon* %8 to i64*
  %9 = getelementptr inbounds %struct.State, %struct.State* %0, i32 0, i32 1
  %10 = getelementptr inbounds [32 x %union.VectorReg], [32 x %union.VectorReg]* %9, i64 0, i64 1
  %YMM1 = bitcast %union.VectorReg* %10 to %"class.std::bitset"*
  %11 = bitcast %"class.std::bitset"* %YMM1 to i8*
  %12 = load i64, i64* %RBP
  %13 = sub i64 %12, 24
  %14 = load i64, i64* %PC
  %15 = add i64 %14, 5
  store i64 %15, i64* %PC
  %16 = inttoptr i64 %13 to double*
  %17 = load double, double* %16
  %18 = bitcast i8* %11 to double*
  store double %17, double* %18, align 1
  %19 = getelementptr inbounds i8, i8* %11, i64 8
  %20 = bitcast i8* %19 to double*
  store double 0.000000e+00, double* %20, align 1
  ret %struct.Memory* %2
}

define %struct.Memory* @routine_callq_._ZN19custom_add_variableIdE8do_shiftEdd(%struct.State* dereferenceable(3376), i64, %struct.Memory*, i64 %rel_off1, i64 %rel_off2, i64 %rel_off3) {
block_400488:
  %3 = getelementptr inbounds %struct.State, %struct.State* %0, i32 0, i32 6
  %4 = getelementptr inbounds %struct.GPR, %struct.GPR* %3, i32 0, i32 33
  %5 = getelementptr inbounds %struct.Reg, %struct.Reg* %4, i32 0, i32 0
  %PC = bitcast %union.anon* %5 to i64*
  %6 = load i64, i64* %PC
  %7 = add i64 %6, %rel_off1
  %8 = load i64, i64* %PC
  %9 = add i64 %8, %rel_off2
  %10 = load i64, i64* %PC
  %11 = add i64 %10, %rel_off3
  store i64 %11, i64* %PC
  %12 = getelementptr inbounds %struct.State, %struct.State* %0, i64 0, i32 6, i32 13, i32 0, i32 0
  %13 = load i64, i64* %12, align 8
  %14 = add i64 %13, -8
  %15 = inttoptr i64 %14 to i64*
  store i64 %9, i64* %15
  store i64 %14, i64* %12, align 8
  %16 = getelementptr inbounds %struct.State, %struct.State* %0, i64 0, i32 6, i32 33, i32 0, i32 0
  store i64 %7, i64* %16, align 8
  ret %struct.Memory* %2
}

define %struct.Memory* @routine_addsd_MINUS0x30__rbp____xmm0(%struct.State* dereferenceable(3376), i64, %struct.Memory*) {
block_400488:
  %3 = getelementptr inbounds %struct.State, %struct.State* %0, i32 0, i32 6
  %4 = getelementptr inbounds %struct.GPR, %struct.GPR* %3, i32 0, i32 33
  %5 = getelementptr inbounds %struct.Reg, %struct.Reg* %4, i32 0, i32 0
  %PC = bitcast %union.anon* %5 to i64*
  %6 = getelementptr inbounds %struct.State, %struct.State* %0, i32 0, i32 6
  %7 = getelementptr inbounds %struct.GPR, %struct.GPR* %6, i32 0, i32 15
  %8 = getelementptr inbounds %struct.Reg, %struct.Reg* %7, i32 0, i32 0
  %RBP = bitcast %union.anon* %8 to i64*
  %9 = getelementptr inbounds %struct.State, %struct.State* %0, i32 0, i32 1
  %10 = getelementptr inbounds [32 x %union.VectorReg], [32 x %union.VectorReg]* %9, i64 0, i64 0
  %YMM0 = bitcast %union.VectorReg* %10 to %"class.std::bitset"*
  %11 = bitcast %"class.std::bitset"* %YMM0 to i8*
  %12 = bitcast %"class.std::bitset"* %YMM0 to i8*
  %13 = load i64, i64* %RBP
  %14 = sub i64 %13, 48
  %15 = load i64, i64* %PC
  %16 = add i64 %15, 5
  store i64 %16, i64* %PC
  %17 = bitcast i8* %12 to double*
  %18 = load double, double* %17, align 1
  %19 = getelementptr inbounds i8, i8* %12, i64 8
  %20 = bitcast i8* %19 to i64*
  %21 = load i64, i64* %20, align 1
  %22 = inttoptr i64 %14 to double*
  %23 = load double, double* %22
  %24 = fadd double %18, %23
  %25 = bitcast i8* %11 to double*
  store double %24, double* %25, align 1
  %26 = getelementptr inbounds i8, i8* %11, i64 8
  %27 = bitcast i8* %26 to i64*
  store i64 %21, i64* %27, align 1
  ret %struct.Memory* %2
}

define %struct.Memory* @routine_addl__0x1___eax(%struct.State* dereferenceable(3376), i64, %struct.Memory*) {
block_400488:
  %3 = getelementptr inbounds %struct.State, %struct.State* %0, i32 0, i32 6
  %4 = getelementptr inbounds %struct.GPR, %struct.GPR* %3, i32 0, i32 33
  %5 = getelementptr inbounds %struct.Reg, %struct.Reg* %4, i32 0, i32 0
  %PC = bitcast %union.anon* %5 to i64*
  %6 = getelementptr inbounds %struct.State, %struct.State* %0, i32 0, i32 6
  %7 = getelementptr inbounds %struct.GPR, %struct.GPR* %6, i32 0, i32 1
  %8 = getelementptr inbounds %struct.Reg, %struct.Reg* %7, i32 0, i32 0
  %RAX = bitcast %union.anon* %8 to i64*
  %9 = load i64, i64* %RAX
  %10 = load i64, i64* %PC
  %11 = add i64 %10, 3
  store i64 %11, i64* %PC
  %12 = trunc i64 %9 to i32
  %13 = add i32 1, %12
  %14 = zext i32 %13 to i64
  store i64 %14, i64* %RAX, align 8
  %15 = icmp ult i32 %13, %12
  %16 = icmp ult i32 %13, 1
  %17 = or i1 %15, %16
  %18 = zext i1 %17 to i8
  %19 = getelementptr inbounds %struct.State, %struct.State* %0, i64 0, i32 2, i32 1
  store i8 %18, i8* %19, align 1
  %20 = and i32 %13, 255
  %21 = call i32 @llvm.ctpop.i32(i32 %20)
  %22 = trunc i32 %21 to i8
  %23 = and i8 %22, 1
  %24 = xor i8 %23, 1
  %25 = getelementptr inbounds %struct.State, %struct.State* %0, i64 0, i32 2, i32 3
  store i8 %24, i8* %25, align 1
  %26 = xor i64 1, %9
  %27 = trunc i64 %26 to i32
  %28 = xor i32 %27, %13
  %29 = lshr i32 %28, 4
  %30 = trunc i32 %29 to i8
  %31 = and i8 %30, 1
  %32 = getelementptr inbounds %struct.State, %struct.State* %0, i64 0, i32 2, i32 5
  store i8 %31, i8* %32, align 1
  %33 = icmp eq i32 %13, 0
  %34 = zext i1 %33 to i8
  %35 = getelementptr inbounds %struct.State, %struct.State* %0, i64 0, i32 2, i32 7
  store i8 %34, i8* %35, align 1
  %36 = lshr i32 %13, 31
  %37 = trunc i32 %36 to i8
  %38 = getelementptr inbounds %struct.State, %struct.State* %0, i64 0, i32 2, i32 9
  store i8 %37, i8* %38, align 1
  %39 = lshr i32 %12, 31
  %40 = xor i32 %36, %39
  %41 = add i32 %40, %36
  %42 = icmp eq i32 %41, 2
  %43 = zext i1 %42 to i8
  %44 = getelementptr inbounds %struct.State, %struct.State* %0, i64 0, i32 2, i32 13
  store i8 %43, i8* %44, align 1
  ret %struct.Memory* %2
}

define %struct.Memory* @routine_movl__eax__MINUS0x34__rbp_(%struct.State* dereferenceable(3376), i64, %struct.Memory*) {
block_400488:
  %3 = getelementptr inbounds %struct.State, %struct.State* %0, i32 0, i32 6
  %4 = getelementptr inbounds %struct.GPR, %struct.GPR* %3, i32 0, i32 33
  %5 = getelementptr inbounds %struct.Reg, %struct.Reg* %4, i32 0, i32 0
  %PC = bitcast %union.anon* %5 to i64*
  %6 = getelementptr inbounds %struct.State, %struct.State* %0, i32 0, i32 6
  %7 = getelementptr inbounds %struct.GPR, %struct.GPR* %6, i32 0, i32 1
  %8 = getelementptr inbounds %struct.Reg, %struct.Reg* %7, i32 0, i32 0
  %EAX = bitcast %union.anon* %8 to i32*
  %9 = getelementptr inbounds %struct.State, %struct.State* %0, i32 0, i32 6
  %10 = getelementptr inbounds %struct.GPR, %struct.GPR* %9, i32 0, i32 15
  %11 = getelementptr inbounds %struct.Reg, %struct.Reg* %10, i32 0, i32 0
  %RBP = bitcast %union.anon* %11 to i64*
  %12 = load i64, i64* %RBP
  %13 = sub i64 %12, 52
  %14 = load i32, i32* %EAX
  %15 = zext i32 %14 to i64
  %16 = load i64, i64* %PC
  %17 = add i64 %16, 3
  store i64 %17, i64* %PC
  %18 = inttoptr i64 %13 to i32*
  store i32 %14, i32* %18
  ret %struct.Memory* %2
}

define %struct.Memory* @routine_jmpq_.L_40b5e3(%struct.State* dereferenceable(3376), i64, %struct.Memory*, i64 %rel_off1, i64 %rel_off2) {
block_400488:
  %3 = getelementptr inbounds %struct.State, %struct.State* %0, i32 0, i32 6
  %4 = getelementptr inbounds %struct.GPR, %struct.GPR* %3, i32 0, i32 33
  %5 = getelementptr inbounds %struct.Reg, %struct.Reg* %4, i32 0, i32 0
  %PC = bitcast %union.anon* %5 to i64*
  %6 = load i64, i64* %PC
  %7 = add i64 %6, %rel_off1
  %8 = load i64, i64* %PC
  %9 = add i64 %8, %rel_off2
  store i64 %9, i64* %PC
  %10 = getelementptr inbounds %struct.State, %struct.State* %0, i64 0, i32 6, i32 33, i32 0, i32 0
  store i64 %7, i64* %10, align 8
  ret %struct.Memory* %2
}

define %struct.Memory* @routine_movsd_MINUS0x30__rbp____xmm0(%struct.State* dereferenceable(3376), i64, %struct.Memory*) {
block_400488:
  %3 = getelementptr inbounds %struct.State, %struct.State* %0, i32 0, i32 6
  %4 = getelementptr inbounds %struct.GPR, %struct.GPR* %3, i32 0, i32 33
  %5 = getelementptr inbounds %struct.Reg, %struct.Reg* %4, i32 0, i32 0
  %PC = bitcast %union.anon* %5 to i64*
  %6 = getelementptr inbounds %struct.State, %struct.State* %0, i32 0, i32 6
  %7 = getelementptr inbounds %struct.GPR, %struct.GPR* %6, i32 0, i32 15
  %8 = getelementptr inbounds %struct.Reg, %struct.Reg* %7, i32 0, i32 0
  %RBP = bitcast %union.anon* %8 to i64*
  %9 = getelementptr inbounds %struct.State, %struct.State* %0, i32 0, i32 1
  %10 = getelementptr inbounds [32 x %union.VectorReg], [32 x %union.VectorReg]* %9, i64 0, i64 0
  %YMM0 = bitcast %union.VectorReg* %10 to %"class.std::bitset"*
  %11 = bitcast %"class.std::bitset"* %YMM0 to i8*
  %12 = load i64, i64* %RBP
  %13 = sub i64 %12, 48
  %14 = load i64, i64* %PC
  %15 = add i64 %14, 5
  store i64 %15, i64* %PC
  %16 = inttoptr i64 %13 to double*
  %17 = load double, double* %16
  %18 = bitcast i8* %11 to double*
  store double %17, double* %18, align 1
  %19 = getelementptr inbounds i8, i8* %11, i64 8
  %20 = bitcast i8* %19 to double*
  store double 0.000000e+00, double* %20, align 1
  ret %struct.Memory* %2
}

define %struct.Memory* @routine_callq_._Z26check_shifted_variable_sumId19custom_add_variableIdEEvT_S2_(%struct.State* dereferenceable(3376), i64, %struct.Memory*, i64 %rel_off1, i64 %rel_off2, i64 %rel_off3) {
block_400488:
  %3 = getelementptr inbounds %struct.State, %struct.State* %0, i32 0, i32 6
  %4 = getelementptr inbounds %struct.GPR, %struct.GPR* %3, i32 0, i32 33
  %5 = getelementptr inbounds %struct.Reg, %struct.Reg* %4, i32 0, i32 0
  %PC = bitcast %union.anon* %5 to i64*
  %6 = load i64, i64* %PC
  %7 = add i64 %6, %rel_off1
  %8 = load i64, i64* %PC
  %9 = add i64 %8, %rel_off2
  %10 = load i64, i64* %PC
  %11 = add i64 %10, %rel_off3
  store i64 %11, i64* %PC
  %12 = getelementptr inbounds %struct.State, %struct.State* %0, i64 0, i32 6, i32 13, i32 0, i32 0
  %13 = load i64, i64* %12, align 8
  %14 = add i64 %13, -8
  %15 = inttoptr i64 %14 to i64*
  store i64 %9, i64* %15
  store i64 %14, i64* %12, align 8
  %16 = getelementptr inbounds %struct.State, %struct.State* %0, i64 0, i32 6, i32 33, i32 0, i32 0
  store i64 %7, i64* %16, align 8
  ret %struct.Memory* %2
}

define %struct.Memory* @routine_movl__eax__MINUS0x24__rbp_(%struct.State* dereferenceable(3376), i64, %struct.Memory*) {
block_400488:
  %3 = getelementptr inbounds %struct.State, %struct.State* %0, i32 0, i32 6
  %4 = getelementptr inbounds %struct.GPR, %struct.GPR* %3, i32 0, i32 33
  %5 = getelementptr inbounds %struct.Reg, %struct.Reg* %4, i32 0, i32 0
  %PC = bitcast %union.anon* %5 to i64*
  %6 = getelementptr inbounds %struct.State, %struct.State* %0, i32 0, i32 6
  %7 = getelementptr inbounds %struct.GPR, %struct.GPR* %6, i32 0, i32 1
  %8 = getelementptr inbounds %struct.Reg, %struct.Reg* %7, i32 0, i32 0
  %EAX = bitcast %union.anon* %8 to i32*
  %9 = getelementptr inbounds %struct.State, %struct.State* %0, i32 0, i32 6
  %10 = getelementptr inbounds %struct.GPR, %struct.GPR* %9, i32 0, i32 15
  %11 = getelementptr inbounds %struct.Reg, %struct.Reg* %10, i32 0, i32 0
  %RBP = bitcast %union.anon* %11 to i64*
  %12 = load i64, i64* %RBP
  %13 = sub i64 %12, 36
  %14 = load i32, i32* %EAX
  %15 = zext i32 %14 to i64
  %16 = load i64, i64* %PC
  %17 = add i64 %16, 3
  store i64 %17, i64* %PC
  %18 = inttoptr i64 %13 to i32*
  store i32 %14, i32* %18
  ret %struct.Memory* %2
}

define %struct.Memory* @routine_jmpq_.L_40b5c4(%struct.State* dereferenceable(3376), i64, %struct.Memory*, i64 %rel_off1, i64 %rel_off2) {
block_400488:
  %3 = getelementptr inbounds %struct.State, %struct.State* %0, i32 0, i32 6
  %4 = getelementptr inbounds %struct.GPR, %struct.GPR* %3, i32 0, i32 33
  %5 = getelementptr inbounds %struct.Reg, %struct.Reg* %4, i32 0, i32 0
  %PC = bitcast %union.anon* %5 to i64*
  %6 = load i64, i64* %PC
  %7 = add i64 %6, %rel_off1
  %8 = load i64, i64* %PC
  %9 = add i64 %8, %rel_off2
  store i64 %9, i64* %PC
  %10 = getelementptr inbounds %struct.State, %struct.State* %0, i64 0, i32 6, i32 33, i32 0, i32 0
  store i64 %7, i64* %10, align 8
  ret %struct.Memory* %2
}

define %struct.Memory* @routine_callq_._Z5timerv(%struct.State* dereferenceable(3376), i64, %struct.Memory*, i64 %rel_off1, i64 %rel_off2, i64 %rel_off3) {
block_400488:
  %3 = getelementptr inbounds %struct.State, %struct.State* %0, i32 0, i32 6
  %4 = getelementptr inbounds %struct.GPR, %struct.GPR* %3, i32 0, i32 33
  %5 = getelementptr inbounds %struct.Reg, %struct.Reg* %4, i32 0, i32 0
  %PC = bitcast %union.anon* %5 to i64*
  %6 = load i64, i64* %PC
  %7 = add i64 %6, %rel_off1
  %8 = load i64, i64* %PC
  %9 = add i64 %8, %rel_off2
  %10 = load i64, i64* %PC
  %11 = add i64 %10, %rel_off3
  store i64 %11, i64* %PC
  %12 = getelementptr inbounds %struct.State, %struct.State* %0, i64 0, i32 6, i32 13, i32 0, i32 0
  %13 = load i64, i64* %12, align 8
  %14 = add i64 %13, -8
  %15 = inttoptr i64 %14 to i64*
  store i64 %9, i64* %15
  store i64 %14, i64* %12, align 8
  %16 = getelementptr inbounds %struct.State, %struct.State* %0, i64 0, i32 6, i32 33, i32 0, i32 0
  store i64 %7, i64* %16, align 8
  ret %struct.Memory* %2
}

define %struct.Memory* @routine_movq_MINUS0x20__rbp____rdi(%struct.State* dereferenceable(3376), i64, %struct.Memory*) {
block_400488:
  %3 = getelementptr inbounds %struct.State, %struct.State* %0, i32 0, i32 6
  %4 = getelementptr inbounds %struct.GPR, %struct.GPR* %3, i32 0, i32 33
  %5 = getelementptr inbounds %struct.Reg, %struct.Reg* %4, i32 0, i32 0
  %PC = bitcast %union.anon* %5 to i64*
  %6 = getelementptr inbounds %struct.State, %struct.State* %0, i32 0, i32 6
  %7 = getelementptr inbounds %struct.GPR, %struct.GPR* %6, i32 0, i32 11
  %8 = getelementptr inbounds %struct.Reg, %struct.Reg* %7, i32 0, i32 0
  %RDI = bitcast %union.anon* %8 to i64*
  %9 = getelementptr inbounds %struct.State, %struct.State* %0, i32 0, i32 6
  %10 = getelementptr inbounds %struct.GPR, %struct.GPR* %9, i32 0, i32 15
  %11 = getelementptr inbounds %struct.Reg, %struct.Reg* %10, i32 0, i32 0
  %RBP = bitcast %union.anon* %11 to i64*
  %12 = load i64, i64* %RBP
  %13 = sub i64 %12, 32
  %14 = load i64, i64* %PC
  %15 = add i64 %14, 4
  store i64 %15, i64* %PC
  %16 = inttoptr i64 %13 to i64*
  %17 = load i64, i64* %16
  store i64 %17, i64* %RDI, align 8
  ret %struct.Memory* %2
}

define %struct.Memory* @routine_callq_._Z13record_resultdPKc(%struct.State* dereferenceable(3376), i64, %struct.Memory*, i64 %rel_off1, i64 %rel_off2, i64 %rel_off3) {
block_400488:
  %3 = getelementptr inbounds %struct.State, %struct.State* %0, i32 0, i32 6
  %4 = getelementptr inbounds %struct.GPR, %struct.GPR* %3, i32 0, i32 33
  %5 = getelementptr inbounds %struct.Reg, %struct.Reg* %4, i32 0, i32 0
  %PC = bitcast %union.anon* %5 to i64*
  %6 = load i64, i64* %PC
  %7 = add i64 %6, %rel_off1
  %8 = load i64, i64* %PC
  %9 = add i64 %8, %rel_off2
  %10 = load i64, i64* %PC
  %11 = add i64 %10, %rel_off3
  store i64 %11, i64* %PC
  %12 = getelementptr inbounds %struct.State, %struct.State* %0, i64 0, i32 6, i32 13, i32 0, i32 0
  %13 = load i64, i64* %12, align 8
  %14 = add i64 %13, -8
  %15 = inttoptr i64 %14 to i64*
  store i64 %9, i64* %15
  store i64 %14, i64* %12, align 8
  %16 = getelementptr inbounds %struct.State, %struct.State* %0, i64 0, i32 6, i32 33, i32 0, i32 0
  store i64 %7, i64* %16, align 8
  ret %struct.Memory* %2
}

define %struct.Memory* @routine_addq__0x40___rsp(%struct.State* dereferenceable(3376), i64, %struct.Memory*) {
block_400488:
  %3 = getelementptr inbounds %struct.State, %struct.State* %0, i32 0, i32 6
  %4 = getelementptr inbounds %struct.GPR, %struct.GPR* %3, i32 0, i32 33
  %5 = getelementptr inbounds %struct.Reg, %struct.Reg* %4, i32 0, i32 0
  %PC = bitcast %union.anon* %5 to i64*
  %6 = getelementptr inbounds %struct.State, %struct.State* %0, i32 0, i32 6
  %7 = getelementptr inbounds %struct.GPR, %struct.GPR* %6, i32 0, i32 13
  %8 = getelementptr inbounds %struct.Reg, %struct.Reg* %7, i32 0, i32 0
  %RSP = bitcast %union.anon* %8 to i64*
  %9 = load i64, i64* %RSP
  %10 = load i64, i64* %PC
  %11 = add i64 %10, 4
  store i64 %11, i64* %PC
  %12 = add i64 64, %9
  store i64 %12, i64* %RSP, align 8
  %13 = icmp ult i64 %12, %9
  %14 = icmp ult i64 %12, 64
  %15 = or i1 %13, %14
  %16 = zext i1 %15 to i8
  %17 = getelementptr inbounds %struct.State, %struct.State* %0, i64 0, i32 2, i32 1
  store i8 %16, i8* %17, align 1
  %18 = trunc i64 %12 to i32
  %19 = and i32 %18, 255
  %20 = call i32 @llvm.ctpop.i32(i32 %19)
  %21 = trunc i32 %20 to i8
  %22 = and i8 %21, 1
  %23 = xor i8 %22, 1
  %24 = getelementptr inbounds %struct.State, %struct.State* %0, i64 0, i32 2, i32 3
  store i8 %23, i8* %24, align 1
  %25 = xor i64 64, %9
  %26 = xor i64 %25, %12
  %27 = lshr i64 %26, 4
  %28 = trunc i64 %27 to i8
  %29 = and i8 %28, 1
  %30 = getelementptr inbounds %struct.State, %struct.State* %0, i64 0, i32 2, i32 5
  store i8 %29, i8* %30, align 1
  %31 = icmp eq i64 %12, 0
  %32 = zext i1 %31 to i8
  %33 = getelementptr inbounds %struct.State, %struct.State* %0, i64 0, i32 2, i32 7
  store i8 %32, i8* %33, align 1
  %34 = lshr i64 %12, 63
  %35 = trunc i64 %34 to i8
  %36 = getelementptr inbounds %struct.State, %struct.State* %0, i64 0, i32 2, i32 9
  store i8 %35, i8* %36, align 1
  %37 = lshr i64 %9, 63
  %38 = xor i64 %34, %37
  %39 = add i64 %38, %34
  %40 = icmp eq i64 %39, 2
  %41 = zext i1 %40 to i8
  %42 = getelementptr inbounds %struct.State, %struct.State* %0, i64 0, i32 2, i32 13
  store i8 %41, i8* %42, align 1
  ret %struct.Memory* %2
}

define %struct.Memory* @routine_popq__rbp(%struct.State* dereferenceable(3376), i64, %struct.Memory*) {
block_400488:
  %3 = getelementptr inbounds %struct.State, %struct.State* %0, i32 0, i32 6
  %4 = getelementptr inbounds %struct.GPR, %struct.GPR* %3, i32 0, i32 33
  %5 = getelementptr inbounds %struct.Reg, %struct.Reg* %4, i32 0, i32 0
  %PC = bitcast %union.anon* %5 to i64*
  %6 = getelementptr inbounds %struct.State, %struct.State* %0, i32 0, i32 6
  %7 = getelementptr inbounds %struct.GPR, %struct.GPR* %6, i32 0, i32 15
  %8 = getelementptr inbounds %struct.Reg, %struct.Reg* %7, i32 0, i32 0
  %RBP = bitcast %union.anon* %8 to i64*
  %9 = load i64, i64* %PC
  %10 = add i64 %9, 1
  store i64 %10, i64* %PC
  %11 = getelementptr inbounds %struct.State, %struct.State* %0, i64 0, i32 6, i32 13, i32 0, i32 0
  %12 = load i64, i64* %11, align 8
  %13 = add i64 %12, 8
  %14 = inttoptr i64 %12 to i64*
  %15 = load i64, i64* %14
  store i64 %15, i64* %RBP, align 8
  store i64 %13, i64* %11, align 8
  ret %struct.Memory* %2
}

define %struct.Memory* @routine_retq(%struct.State* dereferenceable(3376), i64, %struct.Memory*) {
block_400488:
  %3 = getelementptr inbounds %struct.State, %struct.State* %0, i32 0, i32 6
  %4 = getelementptr inbounds %struct.GPR, %struct.GPR* %3, i32 0, i32 33
  %5 = getelementptr inbounds %struct.Reg, %struct.Reg* %4, i32 0, i32 0
  %PC = bitcast %union.anon* %5 to i64*
  %6 = load i64, i64* %PC
  %7 = add i64 %6, 1
  store i64 %7, i64* %PC
  %8 = getelementptr inbounds %struct.State, %struct.State* %0, i64 0, i32 6, i32 33, i32 0, i32 0
  %9 = getelementptr inbounds %struct.State, %struct.State* %0, i64 0, i32 6, i32 13, i32 0, i32 0
  %10 = load i64, i64* %9, align 8
  %11 = inttoptr i64 %10 to i64*
  %12 = load i64, i64* %11
  store i64 %12, i64* %8, align 8
  %13 = add i64 %10, 8
  store i64 %13, i64* %9, align 8
  ret %struct.Memory* %2
}

attributes #0 = { nounwind readnone }
attributes #1 = { alwaysinline }
