; ModuleID = '473.astar/473.astar.bc'
source_filename = "llvm-link"
target datalayout = "e-m:e-i64:64-f80:128-n8:16:32:64-S128"
target triple = "x86_64-unknown-linux-gnu"

%class.wayobj = type <{ i32, i32, i32, i32, i32, i32, i32, i32, i32, float, float, float, float, float, %struct.createwaymnginfot, %struct.createwayinfot, [4 x i8], i16*, %struct.waymapcellt*, i32*, i32*, i32, i32, i8, [3 x i8], i32, i16, i16, [4 x i8] }>
%struct.createwaymnginfot = type { float, float, float, float, i32, i32, float, float }
%struct.createwayinfot = type <{ %class.rvectort, %class.rvectort, i8, [3 x i8] }>
%class.rvectort = type { float, float, float }
%struct.waymapcellt = type { i16, i16 }
%class.way2obj = type { i8*, %struct.waymapcellt*, i16, [256 x i8], [256 x %class.flexarray], i32, i32, i32, i32, i32, i32, i32, i8, i32, i32, %union.anon, %union.anon, i32, i32 }
%class.flexarray = type { %struct.pointt*, i32, i32 }
%struct.pointt = type { i32, i32 }
%union.anon = type { i32 }
%class.regmngobj = type { i16*, i16, i32, i32, i8, i32, %class.regobj**, i8*, [256 x i8], i32, i32, float, i32, i32, %union.anon, %union.anon, i32, i32, %class.largesolidarray }
%class.regobj = type { i32, i8, i8, %class.regmngobj*, i32, %struct.pointt, i32, i32, i32, %class.flexarray.2 }
%class.flexarray.2 = type { %class.regobj**, i32, i32 }
%class.largesolidarray = type { %class.regobj**, %class.flexstack, %class.flexstack, %class.flexstack, i32, i32 }
%class.flexstack = type { i32*, i32, i32 }
%class.regwayobj = type { i32 (...)**, %class.flexarray.2, %class.flexarray.2, i32, i32, %class.regmngobj*, i8, %class.regobj*, %class.regobj* }
%struct.wayinfot = type { i8, %class.rvectort*, i32, i8 }
%struct.statinfot = type { double, double, double, double, double, i64, i64, i64, i64, i64, i64, i64, i64 }
%struct.workinfot = type { [4096 x i8], i32, i32, i32, i32, i32, i32, i32, float, i32, i32, i32 }
%struct._IO_FILE = type { i32, i8*, i8*, i8*, i8*, i8*, i8*, i8*, i8*, i8*, i8*, i8*, %struct._IO_marker*, %struct._IO_FILE*, i32, i32, i64, i16, i8, [1 x i8], i8*, i64, i8*, i8*, i8*, i8*, i64, i32, [20 x i8] }
%struct._IO_marker = type { %struct._IO_marker*, %struct._IO_FILE*, i32 }
%struct.levelplacet = type { i16, i16, float, float, float }
%class.flexarray.10 = type { %struct.levelplacet*, i32, i32 }
%class.regboundobj = type <{ %class.flexarray, %class.flexarray, i8, [3 x i8], i32, %class.regobj*, i32, i32, i32, i32, %class.regobj**, i8*, i32, i32, i32, i32, %class.regmngobj*, i8, [7 x i8] }>
%struct.anon = type { i8, i8, i8, i8 }
%class.flexarray.3 = type { %class.regboundobj*, i32, i32 }

$_ZN8point16tC2Ess = comdat any

$_ZN8rvectortC2Ev = comdat any

$_ZN6wayobj6indexxEi = comdat any

$_ZN6wayobj6indexyEi = comdat any

$_ZN6wayobj5indexEii = comdat any

$_ZN6wayobj3mapEii = comdat any

$_ZN6wayobj4getxEf = comdat any

$_ZN6wayobj4getyEf = comdat any

$_ZN9regwayobjC2Ev = comdat any

$_ZN6wayobjC2Ev = comdat any

$_ZN14createwayinfotC2Ev = comdat any

$_ZN9statinfot4initEv = comdat any

$_ZN15largesolidarrayIP6regobjEixEi = comdat any

$_Z7irandomii = comdat any

$_ZN7way2obj10getterrainEii = comdat any

$_ZN9flexarrayI11levelplacetE6createEi = comdat any

$_ZN9flexarrayI11levelplacetE5clearEv = comdat any

$_ZN9flexarrayI11levelplacetE3addERKS0_ = comdat any

$_ZN9flexarrayI11levelplacetE7destroyEv = comdat any

$_Z13_aligned_freePv = comdat any

$_ZN9flexarrayI11levelplacetE8doublingEb = comdat any

$_Z15_aligned_mallocii = comdat any

$_ZN9regmngobj4mappEii = comdat any

$_ZN6pointtC2Eii = comdat any

$_ZN9flexarrayI6pointtE3addERKS0_ = comdat any

$_ZN9flexarrayI6pointtE8doublingEb = comdat any

$_ZN9flexarrayI6pointtE5clearEv = comdat any

$_ZN9flexarrayI6pointtEixEi = comdat any

$_ZN9flexarrayI6pointtE6createEi = comdat any

$_ZN9flexarrayI6pointtE7destroyEv = comdat any

$_ZN11regboundobj4mappEii = comdat any

$_Z3sqri = comdat any

$_Z7myroundf = comdat any

$_ZN11regboundobj7regmappEii = comdat any

$_ZN15largesolidarrayIP6regobjE6createEi = comdat any

$_ZN9flexarrayIiE6createEi = comdat any

$_ZN9flexstackIiE6createEi = comdat any

$_ZN9flexstackIiE3putEi = comdat any

$_ZN9flexstackIiE8doublingEv = comdat any

$_ZN15largesolidarrayIP6regobjE7destroyEv = comdat any

$_ZN9flexarrayIiE7destroyEv = comdat any

$_ZN9flexstackIiE7destroyEv = comdat any

$_ZN6regobjC2EP9regmngobj = comdat any

$_ZN15largesolidarrayIP6regobjE3addERKS1_ = comdat any

$_ZN15largesolidarrayIP6regobjE8doublingEv = comdat any

$_ZN9flexstackIiE3getEv = comdat any

$_ZN9flexarrayIiE8doublingEb = comdat any

$_ZN6pointtC2Ev = comdat any

$_ZN9flexarrayIP6regobjE6createEi = comdat any

$_ZN9flexarrayIP6regobjE3addERKS1_ = comdat any

$_ZN9flexarrayIP6regobjEixEi = comdat any

$_ZN15largesolidarrayIP6regobjE6removeEi = comdat any

$_ZN9flexarrayIP6regobjE7destroyEv = comdat any

$_ZN9flexarrayIP6regobjE8doublingEb = comdat any

$_ZN9flexarrayI11regboundobjE6createEi = comdat any

$_ZSt4sqrtf = comdat any

$_ZN9regmngobj7regmappEii = comdat any

$_ZN9flexarrayI11regboundobjE3addEv = comdat any

$_ZN9flexarrayI11regboundobjEixEi = comdat any

$_ZN9flexarrayI11regboundobjE7destroyEv = comdat any

$_ZN9flexarrayI11regboundobjE8doublingEb = comdat any

$_ZN9flexarrayIP6regobjE5clearEv = comdat any

$_Z8regdist2P6regobjS0_ = comdat any

$_Z3sqrf = comdat any

$_ZN7way2obj8movetimeEii = comdat any

$_ZN6wayobj9getxcoordEi = comdat any

$_ZN6wayobj9getycoordEi = comdat any

@llvm.global_ctors = appending global [2 x { i32, void ()*, i8* }] [{ i32, void ()*, i8* } { i32 65535, void ()* @_GLOBAL__sub_I_CreateWay_.cpp, i8* null }, { i32, void ()*, i8* } { i32 65535, void ()* @_GLOBAL__sub_I_Library.cpp, i8* null }]
@_ZL5alfa4 = internal global i32 0, align 4
@_ZL5alfa3 = internal global i32 0, align 4
@_ZL5alfa2 = internal global i32 0, align 4
@_ZL5alfa1 = internal global i32 0, align 4
@way = global %class.wayobj zeroinitializer, align 8
@way2 = global %class.way2obj zeroinitializer, align 8
@regmng = global %class.regmngobj zeroinitializer, align 8
@regway = global %class.regwayobj zeroinitializer, align 8
@.str = private unnamed_addr constant [33 x i8] c"Create regional map time : %.0f\0A\00", align 1
@.str.2 = private unnamed_addr constant [2 x i8] c"\0A\00", align 1
@.str.3 = private unnamed_addr constant [25 x i8] c"Create ways time : %.0f\0A\00", align 1
@.str.4 = private unnamed_addr constant [21 x i8] c"Ways quantity : %ld\0A\00", align 1
@.str.5 = private unnamed_addr constant [24 x i8] c"Total way length : %ld\0A\00", align 1
@.str.6 = private unnamed_addr constant [29 x i8] c"Create reg ways time : %.0f\0A\00", align 1
@.str.7 = private unnamed_addr constant [25 x i8] c"Reg ways quantity : %ld\0A\00", align 1
@.str.8 = private unnamed_addr constant [28 x i8] c"Total reg way length : %ld\0A\00", align 1
@.str.9 = private unnamed_addr constant [31 x i8] c"Create river ways time : %.0f\0A\00", align 1
@.str.10 = private unnamed_addr constant [27 x i8] c"River ways quantity : %ld\0A\00", align 1
@.str.11 = private unnamed_addr constant [30 x i8] c"Total river way length : %ld\0A\00", align 1
@.str.12 = private unnamed_addr constant [30 x i8] c"Create land ways time : %.0f\0A\00", align 1
@.str.13 = private unnamed_addr constant [26 x i8] c"Land ways quantity : %ld\0A\00", align 1
@.str.14 = private unnamed_addr constant [29 x i8] c"Total land way length : %ld\0A\00", align 1
@.str.15 = private unnamed_addr constant [28 x i8] c"Small Path Finding Library\0A\00", align 1
@.str.16 = private unnamed_addr constant [25 x i8] c"Read configuration file\0A\00", align 1
@.str.17 = private unnamed_addr constant [37 x i8] c"Cannot read configuration file name\0A\00", align 1
@.str.18 = private unnamed_addr constant [2 x i8] c"r\00", align 1
@.str.19 = private unnamed_addr constant [32 x i8] c"Cannot read configuration file\0A\00", align 1
@.str.20 = private unnamed_addr constant [3 x i8] c"%s\00", align 1
@.str.21 = private unnamed_addr constant [3 x i8] c"%d\00", align 1
@.str.22 = private unnamed_addr constant [3 x i8] c"%f\00", align 1
@.str.23 = private unnamed_addr constant [13 x i8] c"Create ways\0A\00", align 1
@.str.24 = private unnamed_addr constant [4 x i8] c"%s\0A\00", align 1
@.str.25 = private unnamed_addr constant [12 x i8] c"Random map\0A\00", align 1
@_ZL5y1rnd = internal global i32 1023, align 4
@_ZL5y2rnd = internal global i32 11, align 4
@_ZL5y3rnd = internal global i32 3007, align 4
@.str.26 = private unnamed_addr constant [23 x i8] c"Error in createregions\00", align 1
@_ZTV9regwayobj = unnamed_addr constant { [5 x i8*] } { [5 x i8*] [i8* null, i8* bitcast ({ i8*, i8* }* @_ZTI9regwayobj to i8*), i8* bitcast (i1 (%class.regwayobj*, %class.regobj*, %class.regobj*)* @_ZN9regwayobj12isaddtoboundEP6regobjS1_ to i8*), i8* bitcast (void (%class.regwayobj*, %class.regmngobj*)* @_ZN9regwayobj6createEP9regmngobj to i8*), i8* bitcast (void (%class.regwayobj*)* @_ZN9regwayobj7destroyEv to i8*)] }, align 8
@_ZTI9regwayobj = constant { i8*, i8* } { i8* bitcast (i8** getelementptr inbounds (i8*, i8** @_ZTVN10__cxxabiv117__class_type_infoE, i64 2) to i8*), i8* getelementptr inbounds ([11 x i8], [11 x i8]* @_ZTS9regwayobj, i32 0, i32 0) }
@_ZTVN10__cxxabiv117__class_type_infoE = external global i8*
@_ZTS9regwayobj = constant [11 x i8] c"9regwayobj\00"
@_ZN6regobj9bound1arpE = global %class.flexarray zeroinitializer, align 8
@_ZN6regobj9bound2arpE = global %class.flexarray zeroinitializer, align 8
@_ZN6regobj6boundlE = global i32 0, align 4
@_ZN6regobj5floddE = global i8 0, align 1

; Function Attrs: noinline uwtable
define internal void @_GLOBAL__sub_I_CreateWay_.cpp() #0 section ".text.startup" {
entry:
  call void @__cxx_global_var_init()
  call void @__cxx_global_var_init.1()
  call void @__cxx_global_var_init.2()
  call void @__cxx_global_var_init.3()
  ret void
}

; Function Attrs: noinline uwtable
define internal void @__cxx_global_var_init() #0 section ".text.startup" {
entry:
  %call = call double @sin(double 0x3FF2D97C7F3321D2) #10
  %mul = fmul double 1.000000e+02, %call
  %call1 = call double @cos(double 0x3FF2D97C7F3321D2) #10
  %div = fdiv double %mul, %call1
  %add = fadd double %div, 5.000000e-01
  %conv = fptosi double %add to i32
  store i32 %conv, i32* @_ZL5alfa1, align 4
  ret void
}

; Function Attrs: noinline uwtable
define internal void @__cxx_global_var_init.1() #0 section ".text.startup" {
entry:
  %call = call double @sin(double 0x3FD921FB54442D18) #10
  %mul = fmul double 1.000000e+02, %call
  %call1 = call double @cos(double 0x3FD921FB54442D18) #10
  %div = fdiv double %mul, %call1
  %add = fadd double %div, 5.000000e-01
  %conv = fptosi double %add to i32
  store i32 %conv, i32* @_ZL5alfa2, align 4
  ret void
}

; Function Attrs: noinline uwtable
define internal void @__cxx_global_var_init.2() #0 section ".text.startup" {
entry:
  %call = call double @sin(double 0xBFD921FB54442D18) #10
  %mul = fmul double 1.000000e+02, %call
  %call1 = call double @cos(double 0xBFD921FB54442D18) #10
  %div = fdiv double %mul, %call1
  %add = fadd double %div, 5.000000e-01
  %conv = fptosi double %add to i32
  store i32 %conv, i32* @_ZL5alfa3, align 4
  ret void
}

; Function Attrs: noinline uwtable
define internal void @__cxx_global_var_init.3() #0 section ".text.startup" {
entry:
  %call = call double @sin(double 0xBFF2D97C7F3321D2) #10
  %mul = fmul double 1.000000e+02, %call
  %call1 = call double @cos(double 0xBFF2D97C7F3321D2) #10
  %div = fdiv double %mul, %call1
  %add = fadd double %div, 5.000000e-01
  %conv = fptosi double %add to i32
  store i32 %conv, i32* @_ZL5alfa4, align 4
  ret void
}

; Function Attrs: nounwind
declare double @sin(double) #1

; Function Attrs: nounwind
declare double @cos(double) #1

; Function Attrs: noinline uwtable
define zeroext i1 @_ZN6wayobj11createwayarEiiR8wayinfot(%class.wayobj* %this, i32 %startindex, i32 %endindex, %struct.wayinfot* dereferenceable(24) %wayinfo) #0 align 2 personality i8* bitcast (i32 (...)* @__gxx_personality_v0 to i8*) {
entry:
  %retval = alloca i1, align 1
  %this.addr = alloca %class.wayobj*, align 8
  %startindex.addr = alloca i32, align 4
  %endindex.addr = alloca i32, align 4
  %wayinfo.addr = alloca %struct.wayinfot*, align 8
  %deltaar = alloca [8 x %struct.waymapcellt], align 16
  %wayarp = alloca %class.rvectort*, align 8
  %length = alloca i32, align 4
  %yoffset = alloca i32, align 4
  %waymap = alloca %struct.waymapcellt*, align 8
  %index = alloca i32, align 4
  %index1 = alloca i32, align 4
  %startx = alloca i32, align 4
  %starty = alloca i32, align 4
  %x = alloca i32, align 4
  %y = alloca i32, align 4
  %x1 = alloca i32, align 4
  %y1 = alloca i32, align 4
  %dx = alloca i32, align 4
  %dy = alloca i32, align 4
  %dpx = alloca i32, align 4
  %dpy = alloca i32, align 4
  %a = alloca i32, align 4
  %b = alloca i32, align 4
  %c = alloca i32, align 4
  %d = alloca i32, align 4
  %deltanum = alloca i32, align 4
  %delta1num = alloca i32, align 4
  %delta2num = alloca i32, align 4
  %i = alloca i32, align 4
  %j = alloca i32, align 4
  %exn.slot = alloca i8*
  %ehselector.slot = alloca i32
  %ref.tmp = alloca %class.rvectort, align 4
  %tmp = alloca { <2 x float>, float }, align 8
  %ref.tmp142 = alloca %class.rvectort, align 4
  %tmp144 = alloca { <2 x float>, float }, align 8
  store %class.wayobj* %this, %class.wayobj** %this.addr, align 8
  store i32 %startindex, i32* %startindex.addr, align 4
  store i32 %endindex, i32* %endindex.addr, align 4
  store %struct.wayinfot* %wayinfo, %struct.wayinfot** %wayinfo.addr, align 8
  %this1 = load %class.wayobj*, %class.wayobj** %this.addr, align 8
  %arrayinit.begin = getelementptr inbounds [8 x %struct.waymapcellt], [8 x %struct.waymapcellt]* %deltaar, i64 0, i64 0
  call void @_ZN8point16tC2Ess(%struct.waymapcellt* %arrayinit.begin, i16 signext -1, i16 signext 1)
  %arrayinit.element = getelementptr inbounds %struct.waymapcellt, %struct.waymapcellt* %arrayinit.begin, i64 1
  call void @_ZN8point16tC2Ess(%struct.waymapcellt* %arrayinit.element, i16 signext 0, i16 signext 1)
  %arrayinit.element2 = getelementptr inbounds %struct.waymapcellt, %struct.waymapcellt* %arrayinit.element, i64 1
  call void @_ZN8point16tC2Ess(%struct.waymapcellt* %arrayinit.element2, i16 signext 1, i16 signext 1)
  %arrayinit.element3 = getelementptr inbounds %struct.waymapcellt, %struct.waymapcellt* %arrayinit.element2, i64 1
  call void @_ZN8point16tC2Ess(%struct.waymapcellt* %arrayinit.element3, i16 signext 1, i16 signext 0)
  %arrayinit.element4 = getelementptr inbounds %struct.waymapcellt, %struct.waymapcellt* %arrayinit.element3, i64 1
  call void @_ZN8point16tC2Ess(%struct.waymapcellt* %arrayinit.element4, i16 signext 1, i16 signext -1)
  %arrayinit.element5 = getelementptr inbounds %struct.waymapcellt, %struct.waymapcellt* %arrayinit.element4, i64 1
  call void @_ZN8point16tC2Ess(%struct.waymapcellt* %arrayinit.element5, i16 signext 0, i16 signext -1)
  %arrayinit.element6 = getelementptr inbounds %struct.waymapcellt, %struct.waymapcellt* %arrayinit.element5, i64 1
  call void @_ZN8point16tC2Ess(%struct.waymapcellt* %arrayinit.element6, i16 signext -1, i16 signext -1)
  %arrayinit.element7 = getelementptr inbounds %struct.waymapcellt, %struct.waymapcellt* %arrayinit.element6, i64 1
  call void @_ZN8point16tC2Ess(%struct.waymapcellt* %arrayinit.element7, i16 signext -1, i16 signext 0)
  %step = getelementptr inbounds %class.wayobj, %class.wayobj* %this1, i32 0, i32 26
  %0 = load i16, i16* %step, align 8
  %conv = sext i16 %0 to i32
  store i32 %conv, i32* %length, align 4
  %1 = load i32, i32* %length, align 4
  %2 = sext i32 %1 to i64
  %3 = call { i64, i1 } @llvm.umul.with.overflow.i64(i64 %2, i64 12)
  %4 = extractvalue { i64, i1 } %3, 1
  %5 = extractvalue { i64, i1 } %3, 0
  %6 = select i1 %4, i64 -1, i64 %5
  %call = call i8* @_Znam(i64 %6) #11
  %7 = bitcast i8* %call to %class.rvectort*
  %isempty = icmp eq i64 %2, 0
  br i1 %isempty, label %arrayctor.cont, label %new.ctorloop

new.ctorloop:                                     ; preds = %entry
  %arrayctor.end = getelementptr inbounds %class.rvectort, %class.rvectort* %7, i64 %2
  br label %arrayctor.loop

arrayctor.loop:                                   ; preds = %invoke.cont, %new.ctorloop
  %arrayctor.cur = phi %class.rvectort* [ %7, %new.ctorloop ], [ %arrayctor.next, %invoke.cont ]
  invoke void @_ZN8rvectortC2Ev(%class.rvectort* %arrayctor.cur)
          to label %invoke.cont unwind label %lpad

invoke.cont:                                      ; preds = %arrayctor.loop
  %arrayctor.next = getelementptr inbounds %class.rvectort, %class.rvectort* %arrayctor.cur, i64 1
  %arrayctor.done = icmp eq %class.rvectort* %arrayctor.next, %arrayctor.end
  br i1 %arrayctor.done, label %arrayctor.cont, label %arrayctor.loop

arrayctor.cont:                                   ; preds = %entry, %invoke.cont
  store %class.rvectort* %7, %class.rvectort** %wayarp, align 8
  %maply = getelementptr inbounds %class.wayobj, %class.wayobj* %this1, i32 0, i32 8
  %8 = load i32, i32* %maply, align 8
  store i32 %8, i32* %yoffset, align 4
  %waymap8 = getelementptr inbounds %class.wayobj, %class.wayobj* %this1, i32 0, i32 18
  %9 = load %struct.waymapcellt*, %struct.waymapcellt** %waymap8, align 8
  store %struct.waymapcellt* %9, %struct.waymapcellt** %waymap, align 8
  %10 = load i32, i32* %endindex.addr, align 4
  store i32 %10, i32* %index, align 4
  %11 = load i32, i32* %startindex.addr, align 4
  %call9 = call i32 @_ZN6wayobj6indexxEi(%class.wayobj* %this1, i32 %11)
  store i32 %call9, i32* %startx, align 4
  %12 = load i32, i32* %startindex.addr, align 4
  %call10 = call i32 @_ZN6wayobj6indexyEi(%class.wayobj* %this1, i32 %12)
  store i32 %call10, i32* %starty, align 4
  %13 = load i32, i32* %length, align 4
  %sub = sub nsw i32 %13, 2
  store i32 %sub, i32* %i, align 4
  br label %for.cond

for.cond:                                         ; preds = %for.inc154, %arrayctor.cont
  %14 = load i32, i32* %i, align 4
  %cmp = icmp sgt i32 %14, 0
  br i1 %cmp, label %for.body, label %for.end156

for.body:                                         ; preds = %for.cond
  %15 = load i32, i32* %index, align 4
  %call11 = call i32 @_ZN6wayobj6indexxEi(%class.wayobj* %this1, i32 %15)
  store i32 %call11, i32* %x, align 4
  %16 = load i32, i32* %index, align 4
  %call12 = call i32 @_ZN6wayobj6indexyEi(%class.wayobj* %this1, i32 %16)
  store i32 %call12, i32* %y, align 4
  %17 = load i32, i32* %startx, align 4
  %18 = load i32, i32* %x, align 4
  %sub13 = sub nsw i32 %17, %18
  store i32 %sub13, i32* %dpx, align 4
  %19 = load i32, i32* %starty, align 4
  %20 = load i32, i32* %y, align 4
  %sub14 = sub nsw i32 %19, %20
  store i32 %sub14, i32* %dpy, align 4
  %21 = load i32, i32* %dpx, align 4
  %cmp15 = icmp sgt i32 %21, 0
  br i1 %cmp15, label %if.then, label %if.else

if.then:                                          ; preds = %for.body
  store i32 1, i32* %dpx, align 4
  br label %if.end18

lpad:                                             ; preds = %arrayctor.loop
  %22 = landingpad { i8*, i32 }
          cleanup
  %23 = extractvalue { i8*, i32 } %22, 0
  store i8* %23, i8** %exn.slot, align 8
  %24 = extractvalue { i8*, i32 } %22, 1
  store i32 %24, i32* %ehselector.slot, align 4
  call void @_ZdaPv(i8* %call) #12
  br label %eh.resume

if.else:                                          ; preds = %for.body
  %25 = load i32, i32* %dpx, align 4
  %cmp16 = icmp slt i32 %25, 0
  br i1 %cmp16, label %if.then17, label %if.end

if.then17:                                        ; preds = %if.else
  store i32 -1, i32* %dpx, align 4
  br label %if.end

if.end:                                           ; preds = %if.then17, %if.else
  br label %if.end18

if.end18:                                         ; preds = %if.end, %if.then
  %26 = load i32, i32* %dpy, align 4
  %cmp19 = icmp sgt i32 %26, 0
  br i1 %cmp19, label %if.then20, label %if.else21

if.then20:                                        ; preds = %if.end18
  store i32 1, i32* %dpy, align 4
  br label %if.end25

if.else21:                                        ; preds = %if.end18
  %27 = load i32, i32* %dpy, align 4
  %cmp22 = icmp slt i32 %27, 0
  br i1 %cmp22, label %if.then23, label %if.end24

if.then23:                                        ; preds = %if.else21
  store i32 -1, i32* %dpy, align 4
  br label %if.end24

if.end24:                                         ; preds = %if.then23, %if.else21
  br label %if.end25

if.end25:                                         ; preds = %if.end24, %if.then20
  %28 = load i32, i32* %dpy, align 4
  %mul = mul nsw i32 100, %28
  %29 = load i32, i32* @_ZL5alfa1, align 4
  %30 = load i32, i32* %dpx, align 4
  %mul26 = mul nsw i32 %29, %30
  %cmp27 = icmp sge i32 %mul, %mul26
  br i1 %cmp27, label %if.then28, label %if.else29

if.then28:                                        ; preds = %if.end25
  store i32 1, i32* %a, align 4
  br label %if.end30

if.else29:                                        ; preds = %if.end25
  store i32 -1, i32* %a, align 4
  br label %if.end30

if.end30:                                         ; preds = %if.else29, %if.then28
  %31 = load i32, i32* %dpy, align 4
  %mul31 = mul nsw i32 100, %31
  %32 = load i32, i32* @_ZL5alfa2, align 4
  %33 = load i32, i32* %dpx, align 4
  %mul32 = mul nsw i32 %32, %33
  %cmp33 = icmp sge i32 %mul31, %mul32
  br i1 %cmp33, label %if.then34, label %if.else35

if.then34:                                        ; preds = %if.end30
  store i32 1, i32* %b, align 4
  br label %if.end36

if.else35:                                        ; preds = %if.end30
  store i32 -1, i32* %b, align 4
  br label %if.end36

if.end36:                                         ; preds = %if.else35, %if.then34
  %34 = load i32, i32* %dpy, align 4
  %mul37 = mul nsw i32 100, %34
  %35 = load i32, i32* @_ZL5alfa3, align 4
  %36 = load i32, i32* %dpx, align 4
  %mul38 = mul nsw i32 %35, %36
  %cmp39 = icmp sge i32 %mul37, %mul38
  br i1 %cmp39, label %if.then40, label %if.else41

if.then40:                                        ; preds = %if.end36
  store i32 1, i32* %c, align 4
  br label %if.end42

if.else41:                                        ; preds = %if.end36
  store i32 -1, i32* %c, align 4
  br label %if.end42

if.end42:                                         ; preds = %if.else41, %if.then40
  %37 = load i32, i32* %dpy, align 4
  %mul43 = mul nsw i32 100, %37
  %38 = load i32, i32* @_ZL5alfa4, align 4
  %39 = load i32, i32* %dpx, align 4
  %mul44 = mul nsw i32 %38, %39
  %cmp45 = icmp sge i32 %mul43, %mul44
  br i1 %cmp45, label %if.then46, label %if.else47

if.then46:                                        ; preds = %if.end42
  store i32 1, i32* %d, align 4
  br label %if.end48

if.else47:                                        ; preds = %if.end42
  store i32 -1, i32* %d, align 4
  br label %if.end48

if.end48:                                         ; preds = %if.else47, %if.then46
  %40 = load i32, i32* %a, align 4
  %cmp49 = icmp eq i32 %40, 1
  br i1 %cmp49, label %land.lhs.true, label %if.end52

land.lhs.true:                                    ; preds = %if.end48
  %41 = load i32, i32* %d, align 4
  %cmp50 = icmp eq i32 %41, 1
  br i1 %cmp50, label %if.then51, label %if.end52

if.then51:                                        ; preds = %land.lhs.true
  store i32 0, i32* %dx, align 4
  store i32 1, i32* %dy, align 4
  store i32 1, i32* %deltanum, align 4
  br label %getsector

if.end52:                                         ; preds = %land.lhs.true, %if.end48
  %42 = load i32, i32* %b, align 4
  %cmp53 = icmp eq i32 %42, 1
  br i1 %cmp53, label %land.lhs.true54, label %if.end57

land.lhs.true54:                                  ; preds = %if.end52
  %43 = load i32, i32* %a, align 4
  %cmp55 = icmp eq i32 %43, -1
  br i1 %cmp55, label %if.then56, label %if.end57

if.then56:                                        ; preds = %land.lhs.true54
  store i32 1, i32* %dx, align 4
  store i32 1, i32* %dy, align 4
  store i32 2, i32* %deltanum, align 4
  br label %getsector

if.end57:                                         ; preds = %land.lhs.true54, %if.end52
  %44 = load i32, i32* %c, align 4
  %cmp58 = icmp eq i32 %44, 1
  br i1 %cmp58, label %land.lhs.true59, label %if.end62

land.lhs.true59:                                  ; preds = %if.end57
  %45 = load i32, i32* %b, align 4
  %cmp60 = icmp eq i32 %45, -1
  br i1 %cmp60, label %if.then61, label %if.end62

if.then61:                                        ; preds = %land.lhs.true59
  store i32 1, i32* %dx, align 4
  store i32 0, i32* %dy, align 4
  store i32 3, i32* %deltanum, align 4
  br label %getsector

if.end62:                                         ; preds = %land.lhs.true59, %if.end57
  %46 = load i32, i32* %d, align 4
  %cmp63 = icmp eq i32 %46, 1
  br i1 %cmp63, label %land.lhs.true64, label %if.end67

land.lhs.true64:                                  ; preds = %if.end62
  %47 = load i32, i32* %c, align 4
  %cmp65 = icmp eq i32 %47, -1
  br i1 %cmp65, label %if.then66, label %if.end67

if.then66:                                        ; preds = %land.lhs.true64
  store i32 1, i32* %dx, align 4
  store i32 -1, i32* %dy, align 4
  store i32 4, i32* %deltanum, align 4
  br label %getsector

if.end67:                                         ; preds = %land.lhs.true64, %if.end62
  %48 = load i32, i32* %a, align 4
  %cmp68 = icmp eq i32 %48, -1
  br i1 %cmp68, label %land.lhs.true69, label %if.end72

land.lhs.true69:                                  ; preds = %if.end67
  %49 = load i32, i32* %d, align 4
  %cmp70 = icmp eq i32 %49, -1
  br i1 %cmp70, label %if.then71, label %if.end72

if.then71:                                        ; preds = %land.lhs.true69
  store i32 0, i32* %dx, align 4
  store i32 -1, i32* %dy, align 4
  store i32 5, i32* %deltanum, align 4
  br label %getsector

if.end72:                                         ; preds = %land.lhs.true69, %if.end67
  %50 = load i32, i32* %a, align 4
  %cmp73 = icmp eq i32 %50, 1
  br i1 %cmp73, label %land.lhs.true74, label %if.end77

land.lhs.true74:                                  ; preds = %if.end72
  %51 = load i32, i32* %b, align 4
  %cmp75 = icmp eq i32 %51, -1
  br i1 %cmp75, label %if.then76, label %if.end77

if.then76:                                        ; preds = %land.lhs.true74
  store i32 -1, i32* %dx, align 4
  store i32 -1, i32* %dy, align 4
  store i32 6, i32* %deltanum, align 4
  br label %getsector

if.end77:                                         ; preds = %land.lhs.true74, %if.end72
  %52 = load i32, i32* %b, align 4
  %cmp78 = icmp eq i32 %52, 1
  br i1 %cmp78, label %land.lhs.true79, label %if.end82

land.lhs.true79:                                  ; preds = %if.end77
  %53 = load i32, i32* %c, align 4
  %cmp80 = icmp eq i32 %53, -1
  br i1 %cmp80, label %if.then81, label %if.end82

if.then81:                                        ; preds = %land.lhs.true79
  store i32 -1, i32* %dx, align 4
  store i32 0, i32* %dy, align 4
  store i32 7, i32* %deltanum, align 4
  br label %getsector

if.end82:                                         ; preds = %land.lhs.true79, %if.end77
  %54 = load i32, i32* %c, align 4
  %cmp83 = icmp eq i32 %54, 1
  br i1 %cmp83, label %land.lhs.true84, label %if.end87

land.lhs.true84:                                  ; preds = %if.end82
  %55 = load i32, i32* %d, align 4
  %cmp85 = icmp eq i32 %55, -1
  br i1 %cmp85, label %if.then86, label %if.end87

if.then86:                                        ; preds = %land.lhs.true84
  store i32 -1, i32* %dx, align 4
  store i32 1, i32* %dy, align 4
  store i32 0, i32* %deltanum, align 4
  br label %getsector

if.end87:                                         ; preds = %land.lhs.true84, %if.end82
  store i32 -1, i32* %dx, align 4
  store i32 -1, i32* %dy, align 4
  store i32 6, i32* %deltanum, align 4
  br label %getsector

getsector:                                        ; preds = %if.end87, %if.then86, %if.then81, %if.then76, %if.then71, %if.then66, %if.then61, %if.then56, %if.then51
  %56 = load i32, i32* %deltanum, align 4
  store i32 %56, i32* %delta1num, align 4
  %57 = load i32, i32* %deltanum, align 4
  %add = add nsw i32 %57, 1
  %and = and i32 %add, 7
  store i32 %and, i32* %delta2num, align 4
  store i32 0, i32* %j, align 4
  br label %for.cond88

for.cond88:                                       ; preds = %for.inc, %getsector
  %58 = load i32, i32* %j, align 4
  %cmp89 = icmp slt i32 %58, 4
  br i1 %cmp89, label %for.body90, label %for.end

for.body90:                                       ; preds = %for.cond88
  %59 = load i32, i32* %x, align 4
  %60 = load i32, i32* %delta1num, align 4
  %idxprom = sext i32 %60 to i64
  %arrayidx = getelementptr inbounds [8 x %struct.waymapcellt], [8 x %struct.waymapcellt]* %deltaar, i64 0, i64 %idxprom
  %x91 = getelementptr inbounds %struct.waymapcellt, %struct.waymapcellt* %arrayidx, i32 0, i32 0
  %61 = load i16, i16* %x91, align 4
  %conv92 = sext i16 %61 to i32
  %add93 = add nsw i32 %59, %conv92
  store i32 %add93, i32* %x1, align 4
  %62 = load i32, i32* %y, align 4
  %63 = load i32, i32* %delta1num, align 4
  %idxprom94 = sext i32 %63 to i64
  %arrayidx95 = getelementptr inbounds [8 x %struct.waymapcellt], [8 x %struct.waymapcellt]* %deltaar, i64 0, i64 %idxprom94
  %y96 = getelementptr inbounds %struct.waymapcellt, %struct.waymapcellt* %arrayidx95, i32 0, i32 1
  %64 = load i16, i16* %y96, align 2
  %conv97 = sext i16 %64 to i32
  %add98 = add nsw i32 %62, %conv97
  store i32 %add98, i32* %y1, align 4
  %65 = load i32, i32* %x1, align 4
  %66 = load i32, i32* %y1, align 4
  %call99 = call i32 @_ZN6wayobj5indexEii(%class.wayobj* %this1, i32 %65, i32 %66)
  store i32 %call99, i32* %index1, align 4
  %67 = load %struct.waymapcellt*, %struct.waymapcellt** %waymap, align 8
  %68 = load i32, i32* %index1, align 4
  %idxprom100 = sext i32 %68 to i64
  %arrayidx101 = getelementptr inbounds %struct.waymapcellt, %struct.waymapcellt* %67, i64 %idxprom100
  %fillnum = getelementptr inbounds %struct.waymapcellt, %struct.waymapcellt* %arrayidx101, i32 0, i32 0
  %69 = load i16, i16* %fillnum, align 2
  %conv102 = zext i16 %69 to i32
  %fillnum103 = getelementptr inbounds %class.wayobj, %class.wayobj* %this1, i32 0, i32 27
  %70 = load i16, i16* %fillnum103, align 2
  %conv104 = zext i16 %70 to i32
  %cmp105 = icmp eq i32 %conv102, %conv104
  br i1 %cmp105, label %if.then106, label %if.end116

if.then106:                                       ; preds = %for.body90
  %71 = load %struct.waymapcellt*, %struct.waymapcellt** %waymap, align 8
  %72 = load i32, i32* %index1, align 4
  %idxprom107 = sext i32 %72 to i64
  %arrayidx108 = getelementptr inbounds %struct.waymapcellt, %struct.waymapcellt* %71, i64 %idxprom107
  %num = getelementptr inbounds %struct.waymapcellt, %struct.waymapcellt* %arrayidx108, i32 0, i32 1
  %73 = load i16, i16* %num, align 2
  %conv109 = zext i16 %73 to i32
  %74 = load i32, i32* %i, align 4
  %cmp110 = icmp eq i32 %conv109, %74
  br i1 %cmp110, label %if.then111, label %if.end115

if.then111:                                       ; preds = %if.then106
  %75 = load i32, i32* %index1, align 4
  %call112 = call { <2 x float>, float } @_ZN6wayobj8getpointEi(%class.wayobj* %this1, i32 %75)
  store { <2 x float>, float } %call112, { <2 x float>, float }* %tmp, align 8
  %76 = bitcast { <2 x float>, float }* %tmp to i8*
  %77 = bitcast %class.rvectort* %ref.tmp to i8*
  call void @llvm.memcpy.p0i8.p0i8.i64(i8* %77, i8* %76, i64 12, i32 4, i1 false)
  %78 = load %class.rvectort*, %class.rvectort** %wayarp, align 8
  %79 = load i32, i32* %i, align 4
  %idxprom113 = sext i32 %79 to i64
  %arrayidx114 = getelementptr inbounds %class.rvectort, %class.rvectort* %78, i64 %idxprom113
  %80 = bitcast %class.rvectort* %arrayidx114 to i8*
  %81 = bitcast %class.rvectort* %ref.tmp to i8*
  call void @llvm.memcpy.p0i8.p0i8.i64(i8* %80, i8* %81, i64 12, i32 4, i1 false)
  %82 = load i32, i32* %index1, align 4
  store i32 %82, i32* %index, align 4
  br label %newpoint

if.end115:                                        ; preds = %if.then106
  br label %if.end116

if.end116:                                        ; preds = %if.end115, %for.body90
  %83 = load i32, i32* %x, align 4
  %84 = load i32, i32* %delta2num, align 4
  %idxprom117 = sext i32 %84 to i64
  %arrayidx118 = getelementptr inbounds [8 x %struct.waymapcellt], [8 x %struct.waymapcellt]* %deltaar, i64 0, i64 %idxprom117
  %x119 = getelementptr inbounds %struct.waymapcellt, %struct.waymapcellt* %arrayidx118, i32 0, i32 0
  %85 = load i16, i16* %x119, align 4
  %conv120 = sext i16 %85 to i32
  %add121 = add nsw i32 %83, %conv120
  store i32 %add121, i32* %x1, align 4
  %86 = load i32, i32* %y, align 4
  %87 = load i32, i32* %delta2num, align 4
  %idxprom122 = sext i32 %87 to i64
  %arrayidx123 = getelementptr inbounds [8 x %struct.waymapcellt], [8 x %struct.waymapcellt]* %deltaar, i64 0, i64 %idxprom122
  %y124 = getelementptr inbounds %struct.waymapcellt, %struct.waymapcellt* %arrayidx123, i32 0, i32 1
  %88 = load i16, i16* %y124, align 2
  %conv125 = sext i16 %88 to i32
  %add126 = add nsw i32 %86, %conv125
  store i32 %add126, i32* %y1, align 4
  %89 = load i32, i32* %x1, align 4
  %90 = load i32, i32* %y1, align 4
  %call127 = call i32 @_ZN6wayobj5indexEii(%class.wayobj* %this1, i32 %89, i32 %90)
  store i32 %call127, i32* %index1, align 4
  %91 = load %struct.waymapcellt*, %struct.waymapcellt** %waymap, align 8
  %92 = load i32, i32* %index1, align 4
  %idxprom128 = sext i32 %92 to i64
  %arrayidx129 = getelementptr inbounds %struct.waymapcellt, %struct.waymapcellt* %91, i64 %idxprom128
  %fillnum130 = getelementptr inbounds %struct.waymapcellt, %struct.waymapcellt* %arrayidx129, i32 0, i32 0
  %93 = load i16, i16* %fillnum130, align 2
  %conv131 = zext i16 %93 to i32
  %fillnum132 = getelementptr inbounds %class.wayobj, %class.wayobj* %this1, i32 0, i32 27
  %94 = load i16, i16* %fillnum132, align 2
  %conv133 = zext i16 %94 to i32
  %cmp134 = icmp eq i32 %conv131, %conv133
  br i1 %cmp134, label %if.then135, label %if.end148

if.then135:                                       ; preds = %if.end116
  %95 = load %struct.waymapcellt*, %struct.waymapcellt** %waymap, align 8
  %96 = load i32, i32* %index1, align 4
  %idxprom136 = sext i32 %96 to i64
  %arrayidx137 = getelementptr inbounds %struct.waymapcellt, %struct.waymapcellt* %95, i64 %idxprom136
  %num138 = getelementptr inbounds %struct.waymapcellt, %struct.waymapcellt* %arrayidx137, i32 0, i32 1
  %97 = load i16, i16* %num138, align 2
  %conv139 = zext i16 %97 to i32
  %98 = load i32, i32* %i, align 4
  %cmp140 = icmp eq i32 %conv139, %98
  br i1 %cmp140, label %if.then141, label %if.end147

if.then141:                                       ; preds = %if.then135
  %99 = load i32, i32* %index1, align 4
  %call143 = call { <2 x float>, float } @_ZN6wayobj8getpointEi(%class.wayobj* %this1, i32 %99)
  store { <2 x float>, float } %call143, { <2 x float>, float }* %tmp144, align 8
  %100 = bitcast { <2 x float>, float }* %tmp144 to i8*
  %101 = bitcast %class.rvectort* %ref.tmp142 to i8*
  call void @llvm.memcpy.p0i8.p0i8.i64(i8* %101, i8* %100, i64 12, i32 4, i1 false)
  %102 = load %class.rvectort*, %class.rvectort** %wayarp, align 8
  %103 = load i32, i32* %i, align 4
  %idxprom145 = sext i32 %103 to i64
  %arrayidx146 = getelementptr inbounds %class.rvectort, %class.rvectort* %102, i64 %idxprom145
  %104 = bitcast %class.rvectort* %arrayidx146 to i8*
  %105 = bitcast %class.rvectort* %ref.tmp142 to i8*
  call void @llvm.memcpy.p0i8.p0i8.i64(i8* %104, i8* %105, i64 12, i32 4, i1 false)
  %106 = load i32, i32* %index1, align 4
  store i32 %106, i32* %index, align 4
  br label %newpoint

if.end147:                                        ; preds = %if.then135
  br label %if.end148

if.end148:                                        ; preds = %if.end147, %if.end116
  %107 = load i32, i32* %delta1num, align 4
  %dec = add nsw i32 %107, -1
  store i32 %dec, i32* %delta1num, align 4
  %108 = load i32, i32* %delta1num, align 4
  %cmp149 = icmp slt i32 %108, 0
  br i1 %cmp149, label %if.then150, label %if.end151

if.then150:                                       ; preds = %if.end148
  store i32 7, i32* %delta1num, align 4
  br label %if.end151

if.end151:                                        ; preds = %if.then150, %if.end148
  %109 = load i32, i32* %delta2num, align 4
  %add152 = add nsw i32 %109, 1
  %and153 = and i32 %add152, 7
  store i32 %and153, i32* %delta2num, align 4
  br label %for.inc

for.inc:                                          ; preds = %if.end151
  %110 = load i32, i32* %j, align 4
  %inc = add nsw i32 %110, 1
  store i32 %inc, i32* %j, align 4
  br label %for.cond88

for.end:                                          ; preds = %for.cond88
  %111 = load %class.rvectort*, %class.rvectort** %wayarp, align 8
  %isnull = icmp eq %class.rvectort* %111, null
  br i1 %isnull, label %delete.end, label %delete.notnull

delete.notnull:                                   ; preds = %for.end
  %112 = bitcast %class.rvectort* %111 to i8*
  call void @_ZdaPv(i8* %112) #12
  br label %delete.end

delete.end:                                       ; preds = %delete.notnull, %for.end
  store i1 false, i1* %retval, align 1
  br label %return

newpoint:                                         ; preds = %if.then141, %if.then111
  br label %for.inc154

for.inc154:                                       ; preds = %newpoint
  %113 = load i32, i32* %i, align 4
  %dec155 = add nsw i32 %113, -1
  store i32 %dec155, i32* %i, align 4
  br label %for.cond

for.end156:                                       ; preds = %for.cond
  %createwayinfo = getelementptr inbounds %class.wayobj, %class.wayobj* %this1, i32 0, i32 15
  %startp = getelementptr inbounds %struct.createwayinfot, %struct.createwayinfot* %createwayinfo, i32 0, i32 0
  %114 = load %class.rvectort*, %class.rvectort** %wayarp, align 8
  %arrayidx157 = getelementptr inbounds %class.rvectort, %class.rvectort* %114, i64 0
  %115 = bitcast %class.rvectort* %arrayidx157 to i8*
  %116 = bitcast %class.rvectort* %startp to i8*
  call void @llvm.memcpy.p0i8.p0i8.i64(i8* %115, i8* %116, i64 12, i32 4, i1 false)
  %createwayinfo158 = getelementptr inbounds %class.wayobj, %class.wayobj* %this1, i32 0, i32 15
  %finishp = getelementptr inbounds %struct.createwayinfot, %struct.createwayinfot* %createwayinfo158, i32 0, i32 1
  %117 = load %class.rvectort*, %class.rvectort** %wayarp, align 8
  %118 = load i32, i32* %length, align 4
  %sub159 = sub nsw i32 %118, 1
  %idxprom160 = sext i32 %sub159 to i64
  %arrayidx161 = getelementptr inbounds %class.rvectort, %class.rvectort* %117, i64 %idxprom160
  %119 = bitcast %class.rvectort* %arrayidx161 to i8*
  %120 = bitcast %class.rvectort* %finishp to i8*
  call void @llvm.memcpy.p0i8.p0i8.i64(i8* %119, i8* %120, i64 12, i32 4, i1 false)
  %121 = load %struct.wayinfot*, %struct.wayinfot** %wayinfo.addr, align 8
  %flexist = getelementptr inbounds %struct.wayinfot, %struct.wayinfot* %121, i32 0, i32 0
  store i8 1, i8* %flexist, align 8
  %122 = load %class.rvectort*, %class.rvectort** %wayarp, align 8
  %123 = load %struct.wayinfot*, %struct.wayinfot** %wayinfo.addr, align 8
  %wayarp162 = getelementptr inbounds %struct.wayinfot, %struct.wayinfot* %123, i32 0, i32 1
  store %class.rvectort* %122, %class.rvectort** %wayarp162, align 8
  %124 = load i32, i32* %length, align 4
  %125 = load %struct.wayinfot*, %struct.wayinfot** %wayinfo.addr, align 8
  %wayarsize = getelementptr inbounds %struct.wayinfot, %struct.wayinfot* %125, i32 0, i32 2
  store i32 %124, i32* %wayarsize, align 8
  %126 = load %struct.wayinfot*, %struct.wayinfot** %wayinfo.addr, align 8
  %flcorrect = getelementptr inbounds %struct.wayinfot, %struct.wayinfot* %126, i32 0, i32 3
  store i8 0, i8* %flcorrect, align 4
  store i1 true, i1* %retval, align 1
  br label %return

return:                                           ; preds = %for.end156, %delete.end
  %127 = load i1, i1* %retval, align 1
  ret i1 %127

eh.resume:                                        ; preds = %lpad
  %exn = load i8*, i8** %exn.slot, align 8
  %sel = load i32, i32* %ehselector.slot, align 4
  %lpad.val = insertvalue { i8*, i32 } undef, i8* %exn, 0
  %lpad.val163 = insertvalue { i8*, i32 } %lpad.val, i32 %sel, 1
  resume { i8*, i32 } %lpad.val163
}

declare i32 @__gxx_personality_v0(...)

; Function Attrs: noinline nounwind uwtable
define linkonce_odr void @_ZN8point16tC2Ess(%struct.waymapcellt* %this, i16 signext %xin, i16 signext %yin) unnamed_addr #2 comdat align 2 {
entry:
  %this.addr = alloca %struct.waymapcellt*, align 8
  %xin.addr = alloca i16, align 2
  %yin.addr = alloca i16, align 2
  store %struct.waymapcellt* %this, %struct.waymapcellt** %this.addr, align 8
  store i16 %xin, i16* %xin.addr, align 2
  store i16 %yin, i16* %yin.addr, align 2
  %this1 = load %struct.waymapcellt*, %struct.waymapcellt** %this.addr, align 8
  %0 = load i16, i16* %xin.addr, align 2
  %x = getelementptr inbounds %struct.waymapcellt, %struct.waymapcellt* %this1, i32 0, i32 0
  store i16 %0, i16* %x, align 2
  %1 = load i16, i16* %yin.addr, align 2
  %y = getelementptr inbounds %struct.waymapcellt, %struct.waymapcellt* %this1, i32 0, i32 1
  store i16 %1, i16* %y, align 2
  ret void
}

; Function Attrs: nounwind readnone
declare { i64, i1 } @llvm.umul.with.overflow.i64(i64, i64) #3

; Function Attrs: nobuiltin
declare noalias i8* @_Znam(i64) #4

; Function Attrs: noinline nounwind uwtable
define linkonce_odr void @_ZN8rvectortC2Ev(%class.rvectort* %this) unnamed_addr #2 comdat align 2 {
entry:
  %this.addr = alloca %class.rvectort*, align 8
  store %class.rvectort* %this, %class.rvectort** %this.addr, align 8
  %this1 = load %class.rvectort*, %class.rvectort** %this.addr, align 8
  ret void
}

; Function Attrs: noinline nounwind uwtable
define linkonce_odr i32 @_ZN6wayobj6indexxEi(%class.wayobj* %this, i32 %index) #2 comdat align 2 {
entry:
  %this.addr = alloca %class.wayobj*, align 8
  %index.addr = alloca i32, align 4
  store %class.wayobj* %this, %class.wayobj** %this.addr, align 8
  store i32 %index, i32* %index.addr, align 4
  %this1 = load %class.wayobj*, %class.wayobj** %this.addr, align 8
  %0 = load i32, i32* %index.addr, align 4
  %indexxmask = getelementptr inbounds %class.wayobj, %class.wayobj* %this1, i32 0, i32 22
  %1 = load i32, i32* %indexxmask, align 4
  %and = and i32 %0, %1
  ret i32 %and
}

; Function Attrs: noinline nounwind uwtable
define linkonce_odr i32 @_ZN6wayobj6indexyEi(%class.wayobj* %this, i32 %index) #2 comdat align 2 {
entry:
  %this.addr = alloca %class.wayobj*, align 8
  %index.addr = alloca i32, align 4
  store %class.wayobj* %this, %class.wayobj** %this.addr, align 8
  store i32 %index, i32* %index.addr, align 4
  %this1 = load %class.wayobj*, %class.wayobj** %this.addr, align 8
  %0 = load i32, i32* %index.addr, align 4
  %shift = getelementptr inbounds %class.wayobj, %class.wayobj* %this1, i32 0, i32 2
  %1 = load i32, i32* %shift, align 8
  %shr = ashr i32 %0, %1
  ret i32 %shr
}

; Function Attrs: nobuiltin nounwind
declare void @_ZdaPv(i8*) #5

; Function Attrs: noinline nounwind uwtable
define linkonce_odr i32 @_ZN6wayobj5indexEii(%class.wayobj* %this, i32 %x, i32 %y) #2 comdat align 2 {
entry:
  %this.addr = alloca %class.wayobj*, align 8
  %x.addr = alloca i32, align 4
  %y.addr = alloca i32, align 4
  store %class.wayobj* %this, %class.wayobj** %this.addr, align 8
  store i32 %x, i32* %x.addr, align 4
  store i32 %y, i32* %y.addr, align 4
  %this1 = load %class.wayobj*, %class.wayobj** %this.addr, align 8
  %0 = load i32, i32* %y.addr, align 4
  %shift = getelementptr inbounds %class.wayobj, %class.wayobj* %this1, i32 0, i32 2
  %1 = load i32, i32* %shift, align 8
  %shl = shl i32 %0, %1
  %2 = load i32, i32* %x.addr, align 4
  %or = or i32 %shl, %2
  ret i32 %or
}

; Function Attrs: argmemonly nounwind
declare void @llvm.memcpy.p0i8.p0i8.i64(i8* nocapture writeonly, i8* nocapture readonly, i64, i32, i1) #6

; Function Attrs: noinline uwtable
define zeroext i1 @_ZN6wayobj11createwayarEiiRP8point16tRi(%class.wayobj* %this, i32 %startindex, i32 %endindex, %struct.waymapcellt** dereferenceable(8) %wayar, i32* dereferenceable(4) %waylength) #0 align 2 {
entry:
  %retval = alloca i1, align 1
  %this.addr = alloca %class.wayobj*, align 8
  %startindex.addr = alloca i32, align 4
  %endindex.addr = alloca i32, align 4
  %wayar.addr = alloca %struct.waymapcellt**, align 8
  %waylength.addr = alloca i32*, align 8
  %deltaar = alloca [8 x %struct.waymapcellt], align 16
  %length = alloca i32, align 4
  %yoffset = alloca i32, align 4
  %waymap = alloca %struct.waymapcellt*, align 8
  %index = alloca i32, align 4
  %index1 = alloca i32, align 4
  %startx = alloca i32, align 4
  %starty = alloca i32, align 4
  %x = alloca i32, align 4
  %y = alloca i32, align 4
  %x1 = alloca i32, align 4
  %y1 = alloca i32, align 4
  %dx = alloca i32, align 4
  %dy = alloca i32, align 4
  %dpx = alloca i32, align 4
  %dpy = alloca i32, align 4
  %a = alloca i32, align 4
  %b = alloca i32, align 4
  %c = alloca i32, align 4
  %d = alloca i32, align 4
  %deltanum = alloca i32, align 4
  %delta1num = alloca i32, align 4
  %delta2num = alloca i32, align 4
  %i = alloca i32, align 4
  %j = alloca i32, align 4
  %ref.tmp = alloca %struct.waymapcellt, align 2
  %ref.tmp172 = alloca %struct.waymapcellt, align 2
  store %class.wayobj* %this, %class.wayobj** %this.addr, align 8
  store i32 %startindex, i32* %startindex.addr, align 4
  store i32 %endindex, i32* %endindex.addr, align 4
  store %struct.waymapcellt** %wayar, %struct.waymapcellt*** %wayar.addr, align 8
  store i32* %waylength, i32** %waylength.addr, align 8
  %this1 = load %class.wayobj*, %class.wayobj** %this.addr, align 8
  %arrayinit.begin = getelementptr inbounds [8 x %struct.waymapcellt], [8 x %struct.waymapcellt]* %deltaar, i64 0, i64 0
  call void @_ZN8point16tC2Ess(%struct.waymapcellt* %arrayinit.begin, i16 signext -1, i16 signext 1)
  %arrayinit.element = getelementptr inbounds %struct.waymapcellt, %struct.waymapcellt* %arrayinit.begin, i64 1
  call void @_ZN8point16tC2Ess(%struct.waymapcellt* %arrayinit.element, i16 signext 0, i16 signext 1)
  %arrayinit.element2 = getelementptr inbounds %struct.waymapcellt, %struct.waymapcellt* %arrayinit.element, i64 1
  call void @_ZN8point16tC2Ess(%struct.waymapcellt* %arrayinit.element2, i16 signext 1, i16 signext 1)
  %arrayinit.element3 = getelementptr inbounds %struct.waymapcellt, %struct.waymapcellt* %arrayinit.element2, i64 1
  call void @_ZN8point16tC2Ess(%struct.waymapcellt* %arrayinit.element3, i16 signext 1, i16 signext 0)
  %arrayinit.element4 = getelementptr inbounds %struct.waymapcellt, %struct.waymapcellt* %arrayinit.element3, i64 1
  call void @_ZN8point16tC2Ess(%struct.waymapcellt* %arrayinit.element4, i16 signext 1, i16 signext -1)
  %arrayinit.element5 = getelementptr inbounds %struct.waymapcellt, %struct.waymapcellt* %arrayinit.element4, i64 1
  call void @_ZN8point16tC2Ess(%struct.waymapcellt* %arrayinit.element5, i16 signext 0, i16 signext -1)
  %arrayinit.element6 = getelementptr inbounds %struct.waymapcellt, %struct.waymapcellt* %arrayinit.element5, i64 1
  call void @_ZN8point16tC2Ess(%struct.waymapcellt* %arrayinit.element6, i16 signext -1, i16 signext -1)
  %arrayinit.element7 = getelementptr inbounds %struct.waymapcellt, %struct.waymapcellt* %arrayinit.element6, i64 1
  call void @_ZN8point16tC2Ess(%struct.waymapcellt* %arrayinit.element7, i16 signext -1, i16 signext 0)
  %step = getelementptr inbounds %class.wayobj, %class.wayobj* %this1, i32 0, i32 26
  %0 = load i16, i16* %step, align 8
  %conv = sext i16 %0 to i32
  store i32 %conv, i32* %length, align 4
  %1 = load i32, i32* %length, align 4
  %conv8 = sext i32 %1 to i64
  %mul = mul i64 %conv8, 4
  %call = call noalias i8* @malloc(i64 %mul) #10
  %2 = bitcast i8* %call to %struct.waymapcellt*
  %3 = load %struct.waymapcellt**, %struct.waymapcellt*** %wayar.addr, align 8
  store %struct.waymapcellt* %2, %struct.waymapcellt** %3, align 8
  %maply = getelementptr inbounds %class.wayobj, %class.wayobj* %this1, i32 0, i32 8
  %4 = load i32, i32* %maply, align 8
  store i32 %4, i32* %yoffset, align 4
  %waymap9 = getelementptr inbounds %class.wayobj, %class.wayobj* %this1, i32 0, i32 18
  %5 = load %struct.waymapcellt*, %struct.waymapcellt** %waymap9, align 8
  store %struct.waymapcellt* %5, %struct.waymapcellt** %waymap, align 8
  %6 = load i32, i32* %endindex.addr, align 4
  store i32 %6, i32* %index, align 4
  %7 = load i32, i32* %startindex.addr, align 4
  %call10 = call i32 @_ZN6wayobj6indexxEi(%class.wayobj* %this1, i32 %7)
  store i32 %call10, i32* %startx, align 4
  %8 = load i32, i32* %startindex.addr, align 4
  %call11 = call i32 @_ZN6wayobj6indexyEi(%class.wayobj* %this1, i32 %8)
  store i32 %call11, i32* %starty, align 4
  %9 = load i32, i32* %length, align 4
  %sub = sub nsw i32 %9, 2
  store i32 %sub, i32* %i, align 4
  br label %for.cond

for.cond:                                         ; preds = %for.inc164, %entry
  %10 = load i32, i32* %i, align 4
  %cmp = icmp sgt i32 %10, 0
  br i1 %cmp, label %for.body, label %for.end166

for.body:                                         ; preds = %for.cond
  %11 = load i32, i32* %index, align 4
  %call12 = call i32 @_ZN6wayobj6indexxEi(%class.wayobj* %this1, i32 %11)
  store i32 %call12, i32* %x, align 4
  %12 = load i32, i32* %index, align 4
  %call13 = call i32 @_ZN6wayobj6indexyEi(%class.wayobj* %this1, i32 %12)
  store i32 %call13, i32* %y, align 4
  %13 = load i32, i32* %startx, align 4
  %14 = load i32, i32* %x, align 4
  %sub14 = sub nsw i32 %13, %14
  store i32 %sub14, i32* %dpx, align 4
  %15 = load i32, i32* %starty, align 4
  %16 = load i32, i32* %y, align 4
  %sub15 = sub nsw i32 %15, %16
  store i32 %sub15, i32* %dpy, align 4
  %17 = load i32, i32* %dpx, align 4
  %cmp16 = icmp sgt i32 %17, 0
  br i1 %cmp16, label %if.then, label %if.else

if.then:                                          ; preds = %for.body
  store i32 1, i32* %dpx, align 4
  br label %if.end19

if.else:                                          ; preds = %for.body
  %18 = load i32, i32* %dpx, align 4
  %cmp17 = icmp slt i32 %18, 0
  br i1 %cmp17, label %if.then18, label %if.end

if.then18:                                        ; preds = %if.else
  store i32 -1, i32* %dpx, align 4
  br label %if.end

if.end:                                           ; preds = %if.then18, %if.else
  br label %if.end19

if.end19:                                         ; preds = %if.end, %if.then
  %19 = load i32, i32* %dpy, align 4
  %cmp20 = icmp sgt i32 %19, 0
  br i1 %cmp20, label %if.then21, label %if.else22

if.then21:                                        ; preds = %if.end19
  store i32 1, i32* %dpy, align 4
  br label %if.end26

if.else22:                                        ; preds = %if.end19
  %20 = load i32, i32* %dpy, align 4
  %cmp23 = icmp slt i32 %20, 0
  br i1 %cmp23, label %if.then24, label %if.end25

if.then24:                                        ; preds = %if.else22
  store i32 -1, i32* %dpy, align 4
  br label %if.end25

if.end25:                                         ; preds = %if.then24, %if.else22
  br label %if.end26

if.end26:                                         ; preds = %if.end25, %if.then21
  %21 = load i32, i32* %dpy, align 4
  %mul27 = mul nsw i32 100, %21
  %22 = load i32, i32* @_ZL5alfa1, align 4
  %23 = load i32, i32* %dpx, align 4
  %mul28 = mul nsw i32 %22, %23
  %cmp29 = icmp sge i32 %mul27, %mul28
  br i1 %cmp29, label %if.then30, label %if.else31

if.then30:                                        ; preds = %if.end26
  store i32 1, i32* %a, align 4
  br label %if.end32

if.else31:                                        ; preds = %if.end26
  store i32 -1, i32* %a, align 4
  br label %if.end32

if.end32:                                         ; preds = %if.else31, %if.then30
  %24 = load i32, i32* %dpy, align 4
  %mul33 = mul nsw i32 100, %24
  %25 = load i32, i32* @_ZL5alfa2, align 4
  %26 = load i32, i32* %dpx, align 4
  %mul34 = mul nsw i32 %25, %26
  %cmp35 = icmp sge i32 %mul33, %mul34
  br i1 %cmp35, label %if.then36, label %if.else37

if.then36:                                        ; preds = %if.end32
  store i32 1, i32* %b, align 4
  br label %if.end38

if.else37:                                        ; preds = %if.end32
  store i32 -1, i32* %b, align 4
  br label %if.end38

if.end38:                                         ; preds = %if.else37, %if.then36
  %27 = load i32, i32* %dpy, align 4
  %mul39 = mul nsw i32 100, %27
  %28 = load i32, i32* @_ZL5alfa3, align 4
  %29 = load i32, i32* %dpx, align 4
  %mul40 = mul nsw i32 %28, %29
  %cmp41 = icmp sge i32 %mul39, %mul40
  br i1 %cmp41, label %if.then42, label %if.else43

if.then42:                                        ; preds = %if.end38
  store i32 1, i32* %c, align 4
  br label %if.end44

if.else43:                                        ; preds = %if.end38
  store i32 -1, i32* %c, align 4
  br label %if.end44

if.end44:                                         ; preds = %if.else43, %if.then42
  %30 = load i32, i32* %dpy, align 4
  %mul45 = mul nsw i32 100, %30
  %31 = load i32, i32* @_ZL5alfa4, align 4
  %32 = load i32, i32* %dpx, align 4
  %mul46 = mul nsw i32 %31, %32
  %cmp47 = icmp sge i32 %mul45, %mul46
  br i1 %cmp47, label %if.then48, label %if.else49

if.then48:                                        ; preds = %if.end44
  store i32 1, i32* %d, align 4
  br label %if.end50

if.else49:                                        ; preds = %if.end44
  store i32 -1, i32* %d, align 4
  br label %if.end50

if.end50:                                         ; preds = %if.else49, %if.then48
  %33 = load i32, i32* %a, align 4
  %cmp51 = icmp eq i32 %33, 1
  br i1 %cmp51, label %land.lhs.true, label %if.end54

land.lhs.true:                                    ; preds = %if.end50
  %34 = load i32, i32* %d, align 4
  %cmp52 = icmp eq i32 %34, 1
  br i1 %cmp52, label %if.then53, label %if.end54

if.then53:                                        ; preds = %land.lhs.true
  store i32 0, i32* %dx, align 4
  store i32 1, i32* %dy, align 4
  store i32 1, i32* %deltanum, align 4
  br label %getsector

if.end54:                                         ; preds = %land.lhs.true, %if.end50
  %35 = load i32, i32* %b, align 4
  %cmp55 = icmp eq i32 %35, 1
  br i1 %cmp55, label %land.lhs.true56, label %if.end59

land.lhs.true56:                                  ; preds = %if.end54
  %36 = load i32, i32* %a, align 4
  %cmp57 = icmp eq i32 %36, -1
  br i1 %cmp57, label %if.then58, label %if.end59

if.then58:                                        ; preds = %land.lhs.true56
  store i32 1, i32* %dx, align 4
  store i32 1, i32* %dy, align 4
  store i32 2, i32* %deltanum, align 4
  br label %getsector

if.end59:                                         ; preds = %land.lhs.true56, %if.end54
  %37 = load i32, i32* %c, align 4
  %cmp60 = icmp eq i32 %37, 1
  br i1 %cmp60, label %land.lhs.true61, label %if.end64

land.lhs.true61:                                  ; preds = %if.end59
  %38 = load i32, i32* %b, align 4
  %cmp62 = icmp eq i32 %38, -1
  br i1 %cmp62, label %if.then63, label %if.end64

if.then63:                                        ; preds = %land.lhs.true61
  store i32 1, i32* %dx, align 4
  store i32 0, i32* %dy, align 4
  store i32 3, i32* %deltanum, align 4
  br label %getsector

if.end64:                                         ; preds = %land.lhs.true61, %if.end59
  %39 = load i32, i32* %d, align 4
  %cmp65 = icmp eq i32 %39, 1
  br i1 %cmp65, label %land.lhs.true66, label %if.end69

land.lhs.true66:                                  ; preds = %if.end64
  %40 = load i32, i32* %c, align 4
  %cmp67 = icmp eq i32 %40, -1
  br i1 %cmp67, label %if.then68, label %if.end69

if.then68:                                        ; preds = %land.lhs.true66
  store i32 1, i32* %dx, align 4
  store i32 -1, i32* %dy, align 4
  store i32 4, i32* %deltanum, align 4
  br label %getsector

if.end69:                                         ; preds = %land.lhs.true66, %if.end64
  %41 = load i32, i32* %a, align 4
  %cmp70 = icmp eq i32 %41, -1
  br i1 %cmp70, label %land.lhs.true71, label %if.end74

land.lhs.true71:                                  ; preds = %if.end69
  %42 = load i32, i32* %d, align 4
  %cmp72 = icmp eq i32 %42, -1
  br i1 %cmp72, label %if.then73, label %if.end74

if.then73:                                        ; preds = %land.lhs.true71
  store i32 0, i32* %dx, align 4
  store i32 -1, i32* %dy, align 4
  store i32 5, i32* %deltanum, align 4
  br label %getsector

if.end74:                                         ; preds = %land.lhs.true71, %if.end69
  %43 = load i32, i32* %a, align 4
  %cmp75 = icmp eq i32 %43, 1
  br i1 %cmp75, label %land.lhs.true76, label %if.end79

land.lhs.true76:                                  ; preds = %if.end74
  %44 = load i32, i32* %b, align 4
  %cmp77 = icmp eq i32 %44, -1
  br i1 %cmp77, label %if.then78, label %if.end79

if.then78:                                        ; preds = %land.lhs.true76
  store i32 -1, i32* %dx, align 4
  store i32 -1, i32* %dy, align 4
  store i32 6, i32* %deltanum, align 4
  br label %getsector

if.end79:                                         ; preds = %land.lhs.true76, %if.end74
  %45 = load i32, i32* %b, align 4
  %cmp80 = icmp eq i32 %45, 1
  br i1 %cmp80, label %land.lhs.true81, label %if.end84

land.lhs.true81:                                  ; preds = %if.end79
  %46 = load i32, i32* %c, align 4
  %cmp82 = icmp eq i32 %46, -1
  br i1 %cmp82, label %if.then83, label %if.end84

if.then83:                                        ; preds = %land.lhs.true81
  store i32 -1, i32* %dx, align 4
  store i32 0, i32* %dy, align 4
  store i32 7, i32* %deltanum, align 4
  br label %getsector

if.end84:                                         ; preds = %land.lhs.true81, %if.end79
  %47 = load i32, i32* %c, align 4
  %cmp85 = icmp eq i32 %47, 1
  br i1 %cmp85, label %land.lhs.true86, label %if.end89

land.lhs.true86:                                  ; preds = %if.end84
  %48 = load i32, i32* %d, align 4
  %cmp87 = icmp eq i32 %48, -1
  br i1 %cmp87, label %if.then88, label %if.end89

if.then88:                                        ; preds = %land.lhs.true86
  store i32 -1, i32* %dx, align 4
  store i32 1, i32* %dy, align 4
  store i32 0, i32* %deltanum, align 4
  br label %getsector

if.end89:                                         ; preds = %land.lhs.true86, %if.end84
  store i32 -1, i32* %dx, align 4
  store i32 -1, i32* %dy, align 4
  store i32 6, i32* %deltanum, align 4
  br label %getsector

getsector:                                        ; preds = %if.end89, %if.then88, %if.then83, %if.then78, %if.then73, %if.then68, %if.then63, %if.then58, %if.then53
  %49 = load i32, i32* %deltanum, align 4
  store i32 %49, i32* %delta1num, align 4
  %50 = load i32, i32* %deltanum, align 4
  %add = add nsw i32 %50, 1
  %and = and i32 %add, 7
  store i32 %and, i32* %delta2num, align 4
  store i32 0, i32* %j, align 4
  br label %for.cond90

for.cond90:                                       ; preds = %for.inc, %getsector
  %51 = load i32, i32* %j, align 4
  %cmp91 = icmp slt i32 %51, 4
  br i1 %cmp91, label %for.body92, label %for.end

for.body92:                                       ; preds = %for.cond90
  %52 = load i32, i32* %x, align 4
  %53 = load i32, i32* %delta1num, align 4
  %idxprom = sext i32 %53 to i64
  %arrayidx = getelementptr inbounds [8 x %struct.waymapcellt], [8 x %struct.waymapcellt]* %deltaar, i64 0, i64 %idxprom
  %x93 = getelementptr inbounds %struct.waymapcellt, %struct.waymapcellt* %arrayidx, i32 0, i32 0
  %54 = load i16, i16* %x93, align 4
  %conv94 = sext i16 %54 to i32
  %add95 = add nsw i32 %52, %conv94
  store i32 %add95, i32* %x1, align 4
  %55 = load i32, i32* %y, align 4
  %56 = load i32, i32* %delta1num, align 4
  %idxprom96 = sext i32 %56 to i64
  %arrayidx97 = getelementptr inbounds [8 x %struct.waymapcellt], [8 x %struct.waymapcellt]* %deltaar, i64 0, i64 %idxprom96
  %y98 = getelementptr inbounds %struct.waymapcellt, %struct.waymapcellt* %arrayidx97, i32 0, i32 1
  %57 = load i16, i16* %y98, align 2
  %conv99 = sext i16 %57 to i32
  %add100 = add nsw i32 %55, %conv99
  store i32 %add100, i32* %y1, align 4
  %58 = load i32, i32* %x1, align 4
  %59 = load i32, i32* %y1, align 4
  %call101 = call i32 @_ZN6wayobj5indexEii(%class.wayobj* %this1, i32 %58, i32 %59)
  store i32 %call101, i32* %index1, align 4
  %60 = load %struct.waymapcellt*, %struct.waymapcellt** %waymap, align 8
  %61 = load i32, i32* %index1, align 4
  %idxprom102 = sext i32 %61 to i64
  %arrayidx103 = getelementptr inbounds %struct.waymapcellt, %struct.waymapcellt* %60, i64 %idxprom102
  %fillnum = getelementptr inbounds %struct.waymapcellt, %struct.waymapcellt* %arrayidx103, i32 0, i32 0
  %62 = load i16, i16* %fillnum, align 2
  %conv104 = zext i16 %62 to i32
  %fillnum105 = getelementptr inbounds %class.wayobj, %class.wayobj* %this1, i32 0, i32 27
  %63 = load i16, i16* %fillnum105, align 2
  %conv106 = zext i16 %63 to i32
  %cmp107 = icmp eq i32 %conv104, %conv106
  br i1 %cmp107, label %if.then108, label %if.end123

if.then108:                                       ; preds = %for.body92
  %64 = load %struct.waymapcellt*, %struct.waymapcellt** %waymap, align 8
  %65 = load i32, i32* %index1, align 4
  %idxprom109 = sext i32 %65 to i64
  %arrayidx110 = getelementptr inbounds %struct.waymapcellt, %struct.waymapcellt* %64, i64 %idxprom109
  %num = getelementptr inbounds %struct.waymapcellt, %struct.waymapcellt* %arrayidx110, i32 0, i32 1
  %66 = load i16, i16* %num, align 2
  %conv111 = zext i16 %66 to i32
  %67 = load i32, i32* %i, align 4
  %cmp112 = icmp eq i32 %conv111, %67
  br i1 %cmp112, label %if.then113, label %if.end122

if.then113:                                       ; preds = %if.then108
  %68 = load i32, i32* %x1, align 4
  %conv114 = trunc i32 %68 to i16
  %69 = load %struct.waymapcellt**, %struct.waymapcellt*** %wayar.addr, align 8
  %70 = load %struct.waymapcellt*, %struct.waymapcellt** %69, align 8
  %71 = load i32, i32* %i, align 4
  %idxprom115 = sext i32 %71 to i64
  %arrayidx116 = getelementptr inbounds %struct.waymapcellt, %struct.waymapcellt* %70, i64 %idxprom115
  %x117 = getelementptr inbounds %struct.waymapcellt, %struct.waymapcellt* %arrayidx116, i32 0, i32 0
  store i16 %conv114, i16* %x117, align 2
  %72 = load i32, i32* %y1, align 4
  %conv118 = trunc i32 %72 to i16
  %73 = load %struct.waymapcellt**, %struct.waymapcellt*** %wayar.addr, align 8
  %74 = load %struct.waymapcellt*, %struct.waymapcellt** %73, align 8
  %75 = load i32, i32* %i, align 4
  %idxprom119 = sext i32 %75 to i64
  %arrayidx120 = getelementptr inbounds %struct.waymapcellt, %struct.waymapcellt* %74, i64 %idxprom119
  %y121 = getelementptr inbounds %struct.waymapcellt, %struct.waymapcellt* %arrayidx120, i32 0, i32 1
  store i16 %conv118, i16* %y121, align 2
  %76 = load i32, i32* %index1, align 4
  store i32 %76, i32* %index, align 4
  br label %newpoint

if.end122:                                        ; preds = %if.then108
  br label %if.end123

if.end123:                                        ; preds = %if.end122, %for.body92
  %77 = load i32, i32* %x, align 4
  %78 = load i32, i32* %delta2num, align 4
  %idxprom124 = sext i32 %78 to i64
  %arrayidx125 = getelementptr inbounds [8 x %struct.waymapcellt], [8 x %struct.waymapcellt]* %deltaar, i64 0, i64 %idxprom124
  %x126 = getelementptr inbounds %struct.waymapcellt, %struct.waymapcellt* %arrayidx125, i32 0, i32 0
  %79 = load i16, i16* %x126, align 4
  %conv127 = sext i16 %79 to i32
  %add128 = add nsw i32 %77, %conv127
  store i32 %add128, i32* %x1, align 4
  %80 = load i32, i32* %y, align 4
  %81 = load i32, i32* %delta2num, align 4
  %idxprom129 = sext i32 %81 to i64
  %arrayidx130 = getelementptr inbounds [8 x %struct.waymapcellt], [8 x %struct.waymapcellt]* %deltaar, i64 0, i64 %idxprom129
  %y131 = getelementptr inbounds %struct.waymapcellt, %struct.waymapcellt* %arrayidx130, i32 0, i32 1
  %82 = load i16, i16* %y131, align 2
  %conv132 = sext i16 %82 to i32
  %add133 = add nsw i32 %80, %conv132
  store i32 %add133, i32* %y1, align 4
  %83 = load i32, i32* %x1, align 4
  %84 = load i32, i32* %y1, align 4
  %call134 = call i32 @_ZN6wayobj5indexEii(%class.wayobj* %this1, i32 %83, i32 %84)
  store i32 %call134, i32* %index1, align 4
  %85 = load %struct.waymapcellt*, %struct.waymapcellt** %waymap, align 8
  %86 = load i32, i32* %index1, align 4
  %idxprom135 = sext i32 %86 to i64
  %arrayidx136 = getelementptr inbounds %struct.waymapcellt, %struct.waymapcellt* %85, i64 %idxprom135
  %fillnum137 = getelementptr inbounds %struct.waymapcellt, %struct.waymapcellt* %arrayidx136, i32 0, i32 0
  %87 = load i16, i16* %fillnum137, align 2
  %conv138 = zext i16 %87 to i32
  %fillnum139 = getelementptr inbounds %class.wayobj, %class.wayobj* %this1, i32 0, i32 27
  %88 = load i16, i16* %fillnum139, align 2
  %conv140 = zext i16 %88 to i32
  %cmp141 = icmp eq i32 %conv138, %conv140
  br i1 %cmp141, label %if.then142, label %if.end158

if.then142:                                       ; preds = %if.end123
  %89 = load %struct.waymapcellt*, %struct.waymapcellt** %waymap, align 8
  %90 = load i32, i32* %index1, align 4
  %idxprom143 = sext i32 %90 to i64
  %arrayidx144 = getelementptr inbounds %struct.waymapcellt, %struct.waymapcellt* %89, i64 %idxprom143
  %num145 = getelementptr inbounds %struct.waymapcellt, %struct.waymapcellt* %arrayidx144, i32 0, i32 1
  %91 = load i16, i16* %num145, align 2
  %conv146 = zext i16 %91 to i32
  %92 = load i32, i32* %i, align 4
  %cmp147 = icmp eq i32 %conv146, %92
  br i1 %cmp147, label %if.then148, label %if.end157

if.then148:                                       ; preds = %if.then142
  %93 = load i32, i32* %x1, align 4
  %conv149 = trunc i32 %93 to i16
  %94 = load %struct.waymapcellt**, %struct.waymapcellt*** %wayar.addr, align 8
  %95 = load %struct.waymapcellt*, %struct.waymapcellt** %94, align 8
  %96 = load i32, i32* %i, align 4
  %idxprom150 = sext i32 %96 to i64
  %arrayidx151 = getelementptr inbounds %struct.waymapcellt, %struct.waymapcellt* %95, i64 %idxprom150
  %x152 = getelementptr inbounds %struct.waymapcellt, %struct.waymapcellt* %arrayidx151, i32 0, i32 0
  store i16 %conv149, i16* %x152, align 2
  %97 = load i32, i32* %y1, align 4
  %conv153 = trunc i32 %97 to i16
  %98 = load %struct.waymapcellt**, %struct.waymapcellt*** %wayar.addr, align 8
  %99 = load %struct.waymapcellt*, %struct.waymapcellt** %98, align 8
  %100 = load i32, i32* %i, align 4
  %idxprom154 = sext i32 %100 to i64
  %arrayidx155 = getelementptr inbounds %struct.waymapcellt, %struct.waymapcellt* %99, i64 %idxprom154
  %y156 = getelementptr inbounds %struct.waymapcellt, %struct.waymapcellt* %arrayidx155, i32 0, i32 1
  store i16 %conv153, i16* %y156, align 2
  %101 = load i32, i32* %index1, align 4
  store i32 %101, i32* %index, align 4
  br label %newpoint

if.end157:                                        ; preds = %if.then142
  br label %if.end158

if.end158:                                        ; preds = %if.end157, %if.end123
  %102 = load i32, i32* %delta1num, align 4
  %dec = add nsw i32 %102, -1
  store i32 %dec, i32* %delta1num, align 4
  %103 = load i32, i32* %delta1num, align 4
  %cmp159 = icmp slt i32 %103, 0
  br i1 %cmp159, label %if.then160, label %if.end161

if.then160:                                       ; preds = %if.end158
  store i32 7, i32* %delta1num, align 4
  br label %if.end161

if.end161:                                        ; preds = %if.then160, %if.end158
  %104 = load i32, i32* %delta2num, align 4
  %add162 = add nsw i32 %104, 1
  %and163 = and i32 %add162, 7
  store i32 %and163, i32* %delta2num, align 4
  br label %for.inc

for.inc:                                          ; preds = %if.end161
  %105 = load i32, i32* %j, align 4
  %inc = add nsw i32 %105, 1
  store i32 %inc, i32* %j, align 4
  br label %for.cond90

for.end:                                          ; preds = %for.cond90
  %106 = load %struct.waymapcellt**, %struct.waymapcellt*** %wayar.addr, align 8
  %107 = load %struct.waymapcellt*, %struct.waymapcellt** %106, align 8
  %108 = bitcast %struct.waymapcellt* %107 to i8*
  call void @free(i8* %108) #10
  store i1 false, i1* %retval, align 1
  br label %return

newpoint:                                         ; preds = %if.then148, %if.then113
  br label %for.inc164

for.inc164:                                       ; preds = %newpoint
  %109 = load i32, i32* %i, align 4
  %dec165 = add nsw i32 %109, -1
  store i32 %dec165, i32* %i, align 4
  br label %for.cond

for.end166:                                       ; preds = %for.cond
  %110 = load i32, i32* %startindex.addr, align 4
  %call167 = call i32 @_ZN6wayobj6indexxEi(%class.wayobj* %this1, i32 %110)
  %conv168 = trunc i32 %call167 to i16
  %111 = load i32, i32* %startindex.addr, align 4
  %call169 = call i32 @_ZN6wayobj6indexyEi(%class.wayobj* %this1, i32 %111)
  %conv170 = trunc i32 %call169 to i16
  call void @_ZN8point16tC2Ess(%struct.waymapcellt* %ref.tmp, i16 signext %conv168, i16 signext %conv170)
  %112 = load %struct.waymapcellt**, %struct.waymapcellt*** %wayar.addr, align 8
  %113 = load %struct.waymapcellt*, %struct.waymapcellt** %112, align 8
  %arrayidx171 = getelementptr inbounds %struct.waymapcellt, %struct.waymapcellt* %113, i64 0
  %114 = bitcast %struct.waymapcellt* %arrayidx171 to i8*
  %115 = bitcast %struct.waymapcellt* %ref.tmp to i8*
  call void @llvm.memcpy.p0i8.p0i8.i64(i8* %114, i8* %115, i64 4, i32 2, i1 false)
  %116 = load i32, i32* %endindex.addr, align 4
  %call173 = call i32 @_ZN6wayobj6indexxEi(%class.wayobj* %this1, i32 %116)
  %conv174 = trunc i32 %call173 to i16
  %117 = load i32, i32* %endindex.addr, align 4
  %call175 = call i32 @_ZN6wayobj6indexyEi(%class.wayobj* %this1, i32 %117)
  %conv176 = trunc i32 %call175 to i16
  call void @_ZN8point16tC2Ess(%struct.waymapcellt* %ref.tmp172, i16 signext %conv174, i16 signext %conv176)
  %118 = load %struct.waymapcellt**, %struct.waymapcellt*** %wayar.addr, align 8
  %119 = load %struct.waymapcellt*, %struct.waymapcellt** %118, align 8
  %120 = load i32, i32* %length, align 4
  %sub177 = sub nsw i32 %120, 1
  %idxprom178 = sext i32 %sub177 to i64
  %arrayidx179 = getelementptr inbounds %struct.waymapcellt, %struct.waymapcellt* %119, i64 %idxprom178
  %121 = bitcast %struct.waymapcellt* %arrayidx179 to i8*
  %122 = bitcast %struct.waymapcellt* %ref.tmp172 to i8*
  call void @llvm.memcpy.p0i8.p0i8.i64(i8* %121, i8* %122, i64 4, i32 2, i1 false)
  %123 = load i32, i32* %length, align 4
  %124 = load i32*, i32** %waylength.addr, align 8
  store i32 %123, i32* %124, align 4
  store i1 true, i1* %retval, align 1
  br label %return

return:                                           ; preds = %for.end166, %for.end
  %125 = load i1, i1* %retval, align 1
  ret i1 %125
}

; Function Attrs: nounwind
declare noalias i8* @malloc(i64) #1

; Function Attrs: nounwind
declare void @free(i8*) #1

; Function Attrs: noinline uwtable
define zeroext i1 @_ZN6wayobj12createwayar2EiiR8wayinfot(%class.wayobj* %this, i32 %startindex, i32 %endindex, %struct.wayinfot* dereferenceable(24) %wayinfo) #0 align 2 personality i8* bitcast (i32 (...)* @__gxx_personality_v0 to i8*) {
entry:
  %retval = alloca i1, align 1
  %this.addr = alloca %class.wayobj*, align 8
  %startindex.addr = alloca i32, align 4
  %endindex.addr = alloca i32, align 4
  %wayinfo.addr = alloca %struct.wayinfot*, align 8
  %wayarp = alloca %class.rvectort*, align 8
  %length = alloca i32, align 4
  %yoffset = alloca i32, align 4
  %waymap = alloca %struct.waymapcellt*, align 8
  %index = alloca i32, align 4
  %index1 = alloca i32, align 4
  %startx = alloca i32, align 4
  %starty = alloca i32, align 4
  %x = alloca i32, align 4
  %y = alloca i32, align 4
  %dx = alloca i32, align 4
  %dy = alloca i32, align 4
  %dpx = alloca i32, align 4
  %dpy = alloca i32, align 4
  %a = alloca i32, align 4
  %b = alloca i32, align 4
  %c = alloca i32, align 4
  %d = alloca i32, align 4
  %i = alloca i32, align 4
  %exn.slot = alloca i8*
  %ehselector.slot = alloca i32
  %ref.tmp = alloca %class.rvectort, align 4
  %tmp = alloca { <2 x float>, float }, align 8
  %ref.tmp115 = alloca %class.rvectort, align 4
  %tmp117 = alloca { <2 x float>, float }, align 8
  %ref.tmp136 = alloca %class.rvectort, align 4
  %tmp138 = alloca { <2 x float>, float }, align 8
  %ref.tmp158 = alloca %class.rvectort, align 4
  %tmp160 = alloca { <2 x float>, float }, align 8
  %ref.tmp180 = alloca %class.rvectort, align 4
  %tmp182 = alloca { <2 x float>, float }, align 8
  %ref.tmp202 = alloca %class.rvectort, align 4
  %tmp204 = alloca { <2 x float>, float }, align 8
  %ref.tmp225 = alloca %class.rvectort, align 4
  %tmp227 = alloca { <2 x float>, float }, align 8
  %ref.tmp247 = alloca %class.rvectort, align 4
  %tmp249 = alloca { <2 x float>, float }, align 8
  %ref.tmp269 = alloca %class.rvectort, align 4
  %tmp271 = alloca { <2 x float>, float }, align 8
  store %class.wayobj* %this, %class.wayobj** %this.addr, align 8
  store i32 %startindex, i32* %startindex.addr, align 4
  store i32 %endindex, i32* %endindex.addr, align 4
  store %struct.wayinfot* %wayinfo, %struct.wayinfot** %wayinfo.addr, align 8
  %this1 = load %class.wayobj*, %class.wayobj** %this.addr, align 8
  %step = getelementptr inbounds %class.wayobj, %class.wayobj* %this1, i32 0, i32 26
  %0 = load i16, i16* %step, align 8
  %conv = sext i16 %0 to i32
  store i32 %conv, i32* %length, align 4
  %1 = load i32, i32* %length, align 4
  %2 = sext i32 %1 to i64
  %3 = call { i64, i1 } @llvm.umul.with.overflow.i64(i64 %2, i64 12)
  %4 = extractvalue { i64, i1 } %3, 1
  %5 = extractvalue { i64, i1 } %3, 0
  %6 = select i1 %4, i64 -1, i64 %5
  %call = call i8* @_Znam(i64 %6) #11
  %7 = bitcast i8* %call to %class.rvectort*
  %isempty = icmp eq i64 %2, 0
  br i1 %isempty, label %arrayctor.cont, label %new.ctorloop

new.ctorloop:                                     ; preds = %entry
  %arrayctor.end = getelementptr inbounds %class.rvectort, %class.rvectort* %7, i64 %2
  br label %arrayctor.loop

arrayctor.loop:                                   ; preds = %invoke.cont, %new.ctorloop
  %arrayctor.cur = phi %class.rvectort* [ %7, %new.ctorloop ], [ %arrayctor.next, %invoke.cont ]
  invoke void @_ZN8rvectortC2Ev(%class.rvectort* %arrayctor.cur)
          to label %invoke.cont unwind label %lpad

invoke.cont:                                      ; preds = %arrayctor.loop
  %arrayctor.next = getelementptr inbounds %class.rvectort, %class.rvectort* %arrayctor.cur, i64 1
  %arrayctor.done = icmp eq %class.rvectort* %arrayctor.next, %arrayctor.end
  br i1 %arrayctor.done, label %arrayctor.cont, label %arrayctor.loop

arrayctor.cont:                                   ; preds = %entry, %invoke.cont
  store %class.rvectort* %7, %class.rvectort** %wayarp, align 8
  %maply = getelementptr inbounds %class.wayobj, %class.wayobj* %this1, i32 0, i32 8
  %8 = load i32, i32* %maply, align 8
  store i32 %8, i32* %yoffset, align 4
  %waymap2 = getelementptr inbounds %class.wayobj, %class.wayobj* %this1, i32 0, i32 18
  %9 = load %struct.waymapcellt*, %struct.waymapcellt** %waymap2, align 8
  store %struct.waymapcellt* %9, %struct.waymapcellt** %waymap, align 8
  %10 = load i32, i32* %endindex.addr, align 4
  store i32 %10, i32* %index, align 4
  %11 = load i32, i32* %startindex.addr, align 4
  %call3 = call i32 @_ZN6wayobj6indexxEi(%class.wayobj* %this1, i32 %11)
  store i32 %call3, i32* %startx, align 4
  %12 = load i32, i32* %startindex.addr, align 4
  %call4 = call i32 @_ZN6wayobj6indexyEi(%class.wayobj* %this1, i32 %12)
  store i32 %call4, i32* %starty, align 4
  %13 = load i32, i32* %length, align 4
  %sub = sub nsw i32 %13, 2
  store i32 %sub, i32* %i, align 4
  br label %for.cond

for.cond:                                         ; preds = %for.inc, %arrayctor.cont
  %14 = load i32, i32* %i, align 4
  %cmp = icmp sgt i32 %14, 0
  br i1 %cmp, label %for.body, label %for.end

for.body:                                         ; preds = %for.cond
  %15 = load i32, i32* %index, align 4
  %call5 = call i32 @_ZN6wayobj6indexxEi(%class.wayobj* %this1, i32 %15)
  store i32 %call5, i32* %x, align 4
  %16 = load i32, i32* %index, align 4
  %call6 = call i32 @_ZN6wayobj6indexyEi(%class.wayobj* %this1, i32 %16)
  store i32 %call6, i32* %y, align 4
  %17 = load i32, i32* %startx, align 4
  %18 = load i32, i32* %x, align 4
  %sub7 = sub nsw i32 %17, %18
  store i32 %sub7, i32* %dpx, align 4
  %19 = load i32, i32* %starty, align 4
  %20 = load i32, i32* %y, align 4
  %sub8 = sub nsw i32 %19, %20
  store i32 %sub8, i32* %dpy, align 4
  %21 = load i32, i32* %dpx, align 4
  %cmp9 = icmp sgt i32 %21, 0
  br i1 %cmp9, label %if.then, label %if.else

if.then:                                          ; preds = %for.body
  store i32 1, i32* %dpx, align 4
  br label %if.end12

lpad:                                             ; preds = %arrayctor.loop
  %22 = landingpad { i8*, i32 }
          cleanup
  %23 = extractvalue { i8*, i32 } %22, 0
  store i8* %23, i8** %exn.slot, align 8
  %24 = extractvalue { i8*, i32 } %22, 1
  store i32 %24, i32* %ehselector.slot, align 4
  call void @_ZdaPv(i8* %call) #12
  br label %eh.resume

if.else:                                          ; preds = %for.body
  %25 = load i32, i32* %dpx, align 4
  %cmp10 = icmp slt i32 %25, 0
  br i1 %cmp10, label %if.then11, label %if.end

if.then11:                                        ; preds = %if.else
  store i32 -1, i32* %dpx, align 4
  br label %if.end

if.end:                                           ; preds = %if.then11, %if.else
  br label %if.end12

if.end12:                                         ; preds = %if.end, %if.then
  %26 = load i32, i32* %dpy, align 4
  %cmp13 = icmp sgt i32 %26, 0
  br i1 %cmp13, label %if.then14, label %if.else15

if.then14:                                        ; preds = %if.end12
  store i32 1, i32* %dpy, align 4
  br label %if.end19

if.else15:                                        ; preds = %if.end12
  %27 = load i32, i32* %dpy, align 4
  %cmp16 = icmp slt i32 %27, 0
  br i1 %cmp16, label %if.then17, label %if.end18

if.then17:                                        ; preds = %if.else15
  store i32 -1, i32* %dpy, align 4
  br label %if.end18

if.end18:                                         ; preds = %if.then17, %if.else15
  br label %if.end19

if.end19:                                         ; preds = %if.end18, %if.then14
  %28 = load i32, i32* %dpy, align 4
  %mul = mul nsw i32 100, %28
  %29 = load i32, i32* @_ZL5alfa1, align 4
  %30 = load i32, i32* %dpx, align 4
  %mul20 = mul nsw i32 %29, %30
  %cmp21 = icmp sge i32 %mul, %mul20
  br i1 %cmp21, label %if.then22, label %if.else23

if.then22:                                        ; preds = %if.end19
  store i32 1, i32* %a, align 4
  br label %if.end24

if.else23:                                        ; preds = %if.end19
  store i32 -1, i32* %a, align 4
  br label %if.end24

if.end24:                                         ; preds = %if.else23, %if.then22
  %31 = load i32, i32* %dpy, align 4
  %mul25 = mul nsw i32 100, %31
  %32 = load i32, i32* @_ZL5alfa2, align 4
  %33 = load i32, i32* %dpx, align 4
  %mul26 = mul nsw i32 %32, %33
  %cmp27 = icmp sge i32 %mul25, %mul26
  br i1 %cmp27, label %if.then28, label %if.else29

if.then28:                                        ; preds = %if.end24
  store i32 1, i32* %b, align 4
  br label %if.end30

if.else29:                                        ; preds = %if.end24
  store i32 -1, i32* %b, align 4
  br label %if.end30

if.end30:                                         ; preds = %if.else29, %if.then28
  %34 = load i32, i32* %dpy, align 4
  %mul31 = mul nsw i32 100, %34
  %35 = load i32, i32* @_ZL5alfa3, align 4
  %36 = load i32, i32* %dpx, align 4
  %mul32 = mul nsw i32 %35, %36
  %cmp33 = icmp sge i32 %mul31, %mul32
  br i1 %cmp33, label %if.then34, label %if.else35

if.then34:                                        ; preds = %if.end30
  store i32 1, i32* %c, align 4
  br label %if.end36

if.else35:                                        ; preds = %if.end30
  store i32 -1, i32* %c, align 4
  br label %if.end36

if.end36:                                         ; preds = %if.else35, %if.then34
  %37 = load i32, i32* %dpy, align 4
  %mul37 = mul nsw i32 100, %37
  %38 = load i32, i32* @_ZL5alfa4, align 4
  %39 = load i32, i32* %dpx, align 4
  %mul38 = mul nsw i32 %38, %39
  %cmp39 = icmp sge i32 %mul37, %mul38
  br i1 %cmp39, label %if.then40, label %if.else41

if.then40:                                        ; preds = %if.end36
  store i32 1, i32* %d, align 4
  br label %if.end42

if.else41:                                        ; preds = %if.end36
  store i32 -1, i32* %d, align 4
  br label %if.end42

if.end42:                                         ; preds = %if.else41, %if.then40
  %40 = load i32, i32* %a, align 4
  %cmp43 = icmp eq i32 %40, 1
  br i1 %cmp43, label %land.lhs.true, label %if.end46

land.lhs.true:                                    ; preds = %if.end42
  %41 = load i32, i32* %d, align 4
  %cmp44 = icmp eq i32 %41, 1
  br i1 %cmp44, label %if.then45, label %if.end46

if.then45:                                        ; preds = %land.lhs.true
  store i32 0, i32* %dx, align 4
  store i32 1, i32* %dy, align 4
  br label %getsector

if.end46:                                         ; preds = %land.lhs.true, %if.end42
  %42 = load i32, i32* %b, align 4
  %cmp47 = icmp eq i32 %42, 1
  br i1 %cmp47, label %land.lhs.true48, label %if.end51

land.lhs.true48:                                  ; preds = %if.end46
  %43 = load i32, i32* %a, align 4
  %cmp49 = icmp eq i32 %43, -1
  br i1 %cmp49, label %if.then50, label %if.end51

if.then50:                                        ; preds = %land.lhs.true48
  store i32 1, i32* %dx, align 4
  store i32 1, i32* %dy, align 4
  br label %getsector

if.end51:                                         ; preds = %land.lhs.true48, %if.end46
  %44 = load i32, i32* %c, align 4
  %cmp52 = icmp eq i32 %44, 1
  br i1 %cmp52, label %land.lhs.true53, label %if.end56

land.lhs.true53:                                  ; preds = %if.end51
  %45 = load i32, i32* %b, align 4
  %cmp54 = icmp eq i32 %45, -1
  br i1 %cmp54, label %if.then55, label %if.end56

if.then55:                                        ; preds = %land.lhs.true53
  store i32 1, i32* %dx, align 4
  store i32 0, i32* %dy, align 4
  br label %getsector

if.end56:                                         ; preds = %land.lhs.true53, %if.end51
  %46 = load i32, i32* %d, align 4
  %cmp57 = icmp eq i32 %46, 1
  br i1 %cmp57, label %land.lhs.true58, label %if.end61

land.lhs.true58:                                  ; preds = %if.end56
  %47 = load i32, i32* %c, align 4
  %cmp59 = icmp eq i32 %47, -1
  br i1 %cmp59, label %if.then60, label %if.end61

if.then60:                                        ; preds = %land.lhs.true58
  store i32 1, i32* %dx, align 4
  store i32 -1, i32* %dy, align 4
  br label %getsector

if.end61:                                         ; preds = %land.lhs.true58, %if.end56
  %48 = load i32, i32* %a, align 4
  %cmp62 = icmp eq i32 %48, -1
  br i1 %cmp62, label %land.lhs.true63, label %if.end66

land.lhs.true63:                                  ; preds = %if.end61
  %49 = load i32, i32* %d, align 4
  %cmp64 = icmp eq i32 %49, -1
  br i1 %cmp64, label %if.then65, label %if.end66

if.then65:                                        ; preds = %land.lhs.true63
  store i32 0, i32* %dx, align 4
  store i32 -1, i32* %dy, align 4
  br label %getsector

if.end66:                                         ; preds = %land.lhs.true63, %if.end61
  %50 = load i32, i32* %a, align 4
  %cmp67 = icmp eq i32 %50, 1
  br i1 %cmp67, label %land.lhs.true68, label %if.end71

land.lhs.true68:                                  ; preds = %if.end66
  %51 = load i32, i32* %b, align 4
  %cmp69 = icmp eq i32 %51, -1
  br i1 %cmp69, label %if.then70, label %if.end71

if.then70:                                        ; preds = %land.lhs.true68
  store i32 -1, i32* %dx, align 4
  store i32 -1, i32* %dy, align 4
  br label %getsector

if.end71:                                         ; preds = %land.lhs.true68, %if.end66
  %52 = load i32, i32* %b, align 4
  %cmp72 = icmp eq i32 %52, 1
  br i1 %cmp72, label %land.lhs.true73, label %if.end76

land.lhs.true73:                                  ; preds = %if.end71
  %53 = load i32, i32* %c, align 4
  %cmp74 = icmp eq i32 %53, -1
  br i1 %cmp74, label %if.then75, label %if.end76

if.then75:                                        ; preds = %land.lhs.true73
  store i32 -1, i32* %dx, align 4
  store i32 0, i32* %dy, align 4
  br label %getsector

if.end76:                                         ; preds = %land.lhs.true73, %if.end71
  %54 = load i32, i32* %c, align 4
  %cmp77 = icmp eq i32 %54, 1
  br i1 %cmp77, label %land.lhs.true78, label %if.end81

land.lhs.true78:                                  ; preds = %if.end76
  %55 = load i32, i32* %d, align 4
  %cmp79 = icmp eq i32 %55, -1
  br i1 %cmp79, label %if.then80, label %if.end81

if.then80:                                        ; preds = %land.lhs.true78
  store i32 -1, i32* %dx, align 4
  store i32 1, i32* %dy, align 4
  br label %getsector

if.end81:                                         ; preds = %land.lhs.true78, %if.end76
  store i32 -1, i32* %dx, align 4
  store i32 -1, i32* %dy, align 4
  br label %getsector

getsector:                                        ; preds = %if.end81, %if.then80, %if.then75, %if.then70, %if.then65, %if.then60, %if.then55, %if.then50, %if.then45
  %56 = load i32, i32* %x, align 4
  %57 = load i32, i32* %dx, align 4
  %add = add nsw i32 %56, %57
  store i32 %add, i32* %x, align 4
  %58 = load i32, i32* %y, align 4
  %59 = load i32, i32* %dy, align 4
  %add82 = add nsw i32 %58, %59
  store i32 %add82, i32* %y, align 4
  %60 = load i32, i32* %x, align 4
  %61 = load i32, i32* %y, align 4
  %call83 = call i32 @_ZN6wayobj5indexEii(%class.wayobj* %this1, i32 %60, i32 %61)
  store i32 %call83, i32* %index1, align 4
  %62 = load %struct.waymapcellt*, %struct.waymapcellt** %waymap, align 8
  %63 = load i32, i32* %index1, align 4
  %idxprom = sext i32 %63 to i64
  %arrayidx = getelementptr inbounds %struct.waymapcellt, %struct.waymapcellt* %62, i64 %idxprom
  %fillnum = getelementptr inbounds %struct.waymapcellt, %struct.waymapcellt* %arrayidx, i32 0, i32 0
  %64 = load i16, i16* %fillnum, align 2
  %conv84 = zext i16 %64 to i32
  %fillnum85 = getelementptr inbounds %class.wayobj, %class.wayobj* %this1, i32 0, i32 27
  %65 = load i16, i16* %fillnum85, align 2
  %conv86 = zext i16 %65 to i32
  %cmp87 = icmp eq i32 %conv84, %conv86
  br i1 %cmp87, label %if.then88, label %if.end98

if.then88:                                        ; preds = %getsector
  %66 = load %struct.waymapcellt*, %struct.waymapcellt** %waymap, align 8
  %67 = load i32, i32* %index1, align 4
  %idxprom89 = sext i32 %67 to i64
  %arrayidx90 = getelementptr inbounds %struct.waymapcellt, %struct.waymapcellt* %66, i64 %idxprom89
  %num = getelementptr inbounds %struct.waymapcellt, %struct.waymapcellt* %arrayidx90, i32 0, i32 1
  %68 = load i16, i16* %num, align 2
  %conv91 = zext i16 %68 to i32
  %69 = load i32, i32* %i, align 4
  %cmp92 = icmp eq i32 %conv91, %69
  br i1 %cmp92, label %if.then93, label %if.end97

if.then93:                                        ; preds = %if.then88
  %70 = load i32, i32* %index1, align 4
  %call94 = call { <2 x float>, float } @_ZN6wayobj8getpointEi(%class.wayobj* %this1, i32 %70)
  store { <2 x float>, float } %call94, { <2 x float>, float }* %tmp, align 8
  %71 = bitcast { <2 x float>, float }* %tmp to i8*
  %72 = bitcast %class.rvectort* %ref.tmp to i8*
  call void @llvm.memcpy.p0i8.p0i8.i64(i8* %72, i8* %71, i64 12, i32 4, i1 false)
  %73 = load %class.rvectort*, %class.rvectort** %wayarp, align 8
  %74 = load i32, i32* %i, align 4
  %idxprom95 = sext i32 %74 to i64
  %arrayidx96 = getelementptr inbounds %class.rvectort, %class.rvectort* %73, i64 %idxprom95
  %75 = bitcast %class.rvectort* %arrayidx96 to i8*
  %76 = bitcast %class.rvectort* %ref.tmp to i8*
  call void @llvm.memcpy.p0i8.p0i8.i64(i8* %75, i8* %76, i64 12, i32 4, i1 false)
  %77 = load i32, i32* %index1, align 4
  store i32 %77, i32* %index, align 4
  br label %for.inc

if.end97:                                         ; preds = %if.then88
  br label %if.end98

if.end98:                                         ; preds = %if.end97, %getsector
  %78 = load i32, i32* %index, align 4
  %79 = load i32, i32* %yoffset, align 4
  %sub99 = sub nsw i32 %78, %79
  %sub100 = sub nsw i32 %sub99, 1
  store i32 %sub100, i32* %index1, align 4
  %80 = load %struct.waymapcellt*, %struct.waymapcellt** %waymap, align 8
  %81 = load i32, i32* %index1, align 4
  %idxprom101 = sext i32 %81 to i64
  %arrayidx102 = getelementptr inbounds %struct.waymapcellt, %struct.waymapcellt* %80, i64 %idxprom101
  %fillnum103 = getelementptr inbounds %struct.waymapcellt, %struct.waymapcellt* %arrayidx102, i32 0, i32 0
  %82 = load i16, i16* %fillnum103, align 2
  %conv104 = zext i16 %82 to i32
  %fillnum105 = getelementptr inbounds %class.wayobj, %class.wayobj* %this1, i32 0, i32 27
  %83 = load i16, i16* %fillnum105, align 2
  %conv106 = zext i16 %83 to i32
  %cmp107 = icmp eq i32 %conv104, %conv106
  br i1 %cmp107, label %if.then108, label %if.end121

if.then108:                                       ; preds = %if.end98
  %84 = load %struct.waymapcellt*, %struct.waymapcellt** %waymap, align 8
  %85 = load i32, i32* %index1, align 4
  %idxprom109 = sext i32 %85 to i64
  %arrayidx110 = getelementptr inbounds %struct.waymapcellt, %struct.waymapcellt* %84, i64 %idxprom109
  %num111 = getelementptr inbounds %struct.waymapcellt, %struct.waymapcellt* %arrayidx110, i32 0, i32 1
  %86 = load i16, i16* %num111, align 2
  %conv112 = zext i16 %86 to i32
  %87 = load i32, i32* %i, align 4
  %cmp113 = icmp eq i32 %conv112, %87
  br i1 %cmp113, label %if.then114, label %if.end120

if.then114:                                       ; preds = %if.then108
  %88 = load i32, i32* %index1, align 4
  %call116 = call { <2 x float>, float } @_ZN6wayobj8getpointEi(%class.wayobj* %this1, i32 %88)
  store { <2 x float>, float } %call116, { <2 x float>, float }* %tmp117, align 8
  %89 = bitcast { <2 x float>, float }* %tmp117 to i8*
  %90 = bitcast %class.rvectort* %ref.tmp115 to i8*
  call void @llvm.memcpy.p0i8.p0i8.i64(i8* %90, i8* %89, i64 12, i32 4, i1 false)
  %91 = load %class.rvectort*, %class.rvectort** %wayarp, align 8
  %92 = load i32, i32* %i, align 4
  %idxprom118 = sext i32 %92 to i64
  %arrayidx119 = getelementptr inbounds %class.rvectort, %class.rvectort* %91, i64 %idxprom118
  %93 = bitcast %class.rvectort* %arrayidx119 to i8*
  %94 = bitcast %class.rvectort* %ref.tmp115 to i8*
  call void @llvm.memcpy.p0i8.p0i8.i64(i8* %93, i8* %94, i64 12, i32 4, i1 false)
  %95 = load i32, i32* %index1, align 4
  store i32 %95, i32* %index, align 4
  br label %for.inc

if.end120:                                        ; preds = %if.then108
  br label %if.end121

if.end121:                                        ; preds = %if.end120, %if.end98
  %96 = load i32, i32* %index1, align 4
  %inc = add nsw i32 %96, 1
  store i32 %inc, i32* %index1, align 4
  %97 = load %struct.waymapcellt*, %struct.waymapcellt** %waymap, align 8
  %98 = load i32, i32* %index1, align 4
  %idxprom122 = sext i32 %98 to i64
  %arrayidx123 = getelementptr inbounds %struct.waymapcellt, %struct.waymapcellt* %97, i64 %idxprom122
  %fillnum124 = getelementptr inbounds %struct.waymapcellt, %struct.waymapcellt* %arrayidx123, i32 0, i32 0
  %99 = load i16, i16* %fillnum124, align 2
  %conv125 = zext i16 %99 to i32
  %fillnum126 = getelementptr inbounds %class.wayobj, %class.wayobj* %this1, i32 0, i32 27
  %100 = load i16, i16* %fillnum126, align 2
  %conv127 = zext i16 %100 to i32
  %cmp128 = icmp eq i32 %conv125, %conv127
  br i1 %cmp128, label %if.then129, label %if.end142

if.then129:                                       ; preds = %if.end121
  %101 = load %struct.waymapcellt*, %struct.waymapcellt** %waymap, align 8
  %102 = load i32, i32* %index1, align 4
  %idxprom130 = sext i32 %102 to i64
  %arrayidx131 = getelementptr inbounds %struct.waymapcellt, %struct.waymapcellt* %101, i64 %idxprom130
  %num132 = getelementptr inbounds %struct.waymapcellt, %struct.waymapcellt* %arrayidx131, i32 0, i32 1
  %103 = load i16, i16* %num132, align 2
  %conv133 = zext i16 %103 to i32
  %104 = load i32, i32* %i, align 4
  %cmp134 = icmp eq i32 %conv133, %104
  br i1 %cmp134, label %if.then135, label %if.end141

if.then135:                                       ; preds = %if.then129
  %105 = load i32, i32* %index1, align 4
  %call137 = call { <2 x float>, float } @_ZN6wayobj8getpointEi(%class.wayobj* %this1, i32 %105)
  store { <2 x float>, float } %call137, { <2 x float>, float }* %tmp138, align 8
  %106 = bitcast { <2 x float>, float }* %tmp138 to i8*
  %107 = bitcast %class.rvectort* %ref.tmp136 to i8*
  call void @llvm.memcpy.p0i8.p0i8.i64(i8* %107, i8* %106, i64 12, i32 4, i1 false)
  %108 = load %class.rvectort*, %class.rvectort** %wayarp, align 8
  %109 = load i32, i32* %i, align 4
  %idxprom139 = sext i32 %109 to i64
  %arrayidx140 = getelementptr inbounds %class.rvectort, %class.rvectort* %108, i64 %idxprom139
  %110 = bitcast %class.rvectort* %arrayidx140 to i8*
  %111 = bitcast %class.rvectort* %ref.tmp136 to i8*
  call void @llvm.memcpy.p0i8.p0i8.i64(i8* %110, i8* %111, i64 12, i32 4, i1 false)
  %112 = load i32, i32* %index1, align 4
  store i32 %112, i32* %index, align 4
  br label %for.inc

if.end141:                                        ; preds = %if.then129
  br label %if.end142

if.end142:                                        ; preds = %if.end141, %if.end121
  %113 = load i32, i32* %index1, align 4
  %inc143 = add nsw i32 %113, 1
  store i32 %inc143, i32* %index1, align 4
  %114 = load %struct.waymapcellt*, %struct.waymapcellt** %waymap, align 8
  %115 = load i32, i32* %index1, align 4
  %idxprom144 = sext i32 %115 to i64
  %arrayidx145 = getelementptr inbounds %struct.waymapcellt, %struct.waymapcellt* %114, i64 %idxprom144
  %fillnum146 = getelementptr inbounds %struct.waymapcellt, %struct.waymapcellt* %arrayidx145, i32 0, i32 0
  %116 = load i16, i16* %fillnum146, align 2
  %conv147 = zext i16 %116 to i32
  %fillnum148 = getelementptr inbounds %class.wayobj, %class.wayobj* %this1, i32 0, i32 27
  %117 = load i16, i16* %fillnum148, align 2
  %conv149 = zext i16 %117 to i32
  %cmp150 = icmp eq i32 %conv147, %conv149
  br i1 %cmp150, label %if.then151, label %if.end164

if.then151:                                       ; preds = %if.end142
  %118 = load %struct.waymapcellt*, %struct.waymapcellt** %waymap, align 8
  %119 = load i32, i32* %index1, align 4
  %idxprom152 = sext i32 %119 to i64
  %arrayidx153 = getelementptr inbounds %struct.waymapcellt, %struct.waymapcellt* %118, i64 %idxprom152
  %num154 = getelementptr inbounds %struct.waymapcellt, %struct.waymapcellt* %arrayidx153, i32 0, i32 1
  %120 = load i16, i16* %num154, align 2
  %conv155 = zext i16 %120 to i32
  %121 = load i32, i32* %i, align 4
  %cmp156 = icmp eq i32 %conv155, %121
  br i1 %cmp156, label %if.then157, label %if.end163

if.then157:                                       ; preds = %if.then151
  %122 = load i32, i32* %index1, align 4
  %call159 = call { <2 x float>, float } @_ZN6wayobj8getpointEi(%class.wayobj* %this1, i32 %122)
  store { <2 x float>, float } %call159, { <2 x float>, float }* %tmp160, align 8
  %123 = bitcast { <2 x float>, float }* %tmp160 to i8*
  %124 = bitcast %class.rvectort* %ref.tmp158 to i8*
  call void @llvm.memcpy.p0i8.p0i8.i64(i8* %124, i8* %123, i64 12, i32 4, i1 false)
  %125 = load %class.rvectort*, %class.rvectort** %wayarp, align 8
  %126 = load i32, i32* %i, align 4
  %idxprom161 = sext i32 %126 to i64
  %arrayidx162 = getelementptr inbounds %class.rvectort, %class.rvectort* %125, i64 %idxprom161
  %127 = bitcast %class.rvectort* %arrayidx162 to i8*
  %128 = bitcast %class.rvectort* %ref.tmp158 to i8*
  call void @llvm.memcpy.p0i8.p0i8.i64(i8* %127, i8* %128, i64 12, i32 4, i1 false)
  %129 = load i32, i32* %index1, align 4
  store i32 %129, i32* %index, align 4
  br label %for.inc

if.end163:                                        ; preds = %if.then151
  br label %if.end164

if.end164:                                        ; preds = %if.end163, %if.end142
  %130 = load i32, i32* %index, align 4
  %sub165 = sub nsw i32 %130, 1
  store i32 %sub165, i32* %index1, align 4
  %131 = load %struct.waymapcellt*, %struct.waymapcellt** %waymap, align 8
  %132 = load i32, i32* %index1, align 4
  %idxprom166 = sext i32 %132 to i64
  %arrayidx167 = getelementptr inbounds %struct.waymapcellt, %struct.waymapcellt* %131, i64 %idxprom166
  %fillnum168 = getelementptr inbounds %struct.waymapcellt, %struct.waymapcellt* %arrayidx167, i32 0, i32 0
  %133 = load i16, i16* %fillnum168, align 2
  %conv169 = zext i16 %133 to i32
  %fillnum170 = getelementptr inbounds %class.wayobj, %class.wayobj* %this1, i32 0, i32 27
  %134 = load i16, i16* %fillnum170, align 2
  %conv171 = zext i16 %134 to i32
  %cmp172 = icmp eq i32 %conv169, %conv171
  br i1 %cmp172, label %if.then173, label %if.end186

if.then173:                                       ; preds = %if.end164
  %135 = load %struct.waymapcellt*, %struct.waymapcellt** %waymap, align 8
  %136 = load i32, i32* %index1, align 4
  %idxprom174 = sext i32 %136 to i64
  %arrayidx175 = getelementptr inbounds %struct.waymapcellt, %struct.waymapcellt* %135, i64 %idxprom174
  %num176 = getelementptr inbounds %struct.waymapcellt, %struct.waymapcellt* %arrayidx175, i32 0, i32 1
  %137 = load i16, i16* %num176, align 2
  %conv177 = zext i16 %137 to i32
  %138 = load i32, i32* %i, align 4
  %cmp178 = icmp eq i32 %conv177, %138
  br i1 %cmp178, label %if.then179, label %if.end185

if.then179:                                       ; preds = %if.then173
  %139 = load i32, i32* %index1, align 4
  %call181 = call { <2 x float>, float } @_ZN6wayobj8getpointEi(%class.wayobj* %this1, i32 %139)
  store { <2 x float>, float } %call181, { <2 x float>, float }* %tmp182, align 8
  %140 = bitcast { <2 x float>, float }* %tmp182 to i8*
  %141 = bitcast %class.rvectort* %ref.tmp180 to i8*
  call void @llvm.memcpy.p0i8.p0i8.i64(i8* %141, i8* %140, i64 12, i32 4, i1 false)
  %142 = load %class.rvectort*, %class.rvectort** %wayarp, align 8
  %143 = load i32, i32* %i, align 4
  %idxprom183 = sext i32 %143 to i64
  %arrayidx184 = getelementptr inbounds %class.rvectort, %class.rvectort* %142, i64 %idxprom183
  %144 = bitcast %class.rvectort* %arrayidx184 to i8*
  %145 = bitcast %class.rvectort* %ref.tmp180 to i8*
  call void @llvm.memcpy.p0i8.p0i8.i64(i8* %144, i8* %145, i64 12, i32 4, i1 false)
  %146 = load i32, i32* %index1, align 4
  store i32 %146, i32* %index, align 4
  br label %for.inc

if.end185:                                        ; preds = %if.then173
  br label %if.end186

if.end186:                                        ; preds = %if.end185, %if.end164
  %147 = load i32, i32* %index, align 4
  %add187 = add nsw i32 %147, 1
  store i32 %add187, i32* %index1, align 4
  %148 = load %struct.waymapcellt*, %struct.waymapcellt** %waymap, align 8
  %149 = load i32, i32* %index1, align 4
  %idxprom188 = sext i32 %149 to i64
  %arrayidx189 = getelementptr inbounds %struct.waymapcellt, %struct.waymapcellt* %148, i64 %idxprom188
  %fillnum190 = getelementptr inbounds %struct.waymapcellt, %struct.waymapcellt* %arrayidx189, i32 0, i32 0
  %150 = load i16, i16* %fillnum190, align 2
  %conv191 = zext i16 %150 to i32
  %fillnum192 = getelementptr inbounds %class.wayobj, %class.wayobj* %this1, i32 0, i32 27
  %151 = load i16, i16* %fillnum192, align 2
  %conv193 = zext i16 %151 to i32
  %cmp194 = icmp eq i32 %conv191, %conv193
  br i1 %cmp194, label %if.then195, label %if.end208

if.then195:                                       ; preds = %if.end186
  %152 = load %struct.waymapcellt*, %struct.waymapcellt** %waymap, align 8
  %153 = load i32, i32* %index1, align 4
  %idxprom196 = sext i32 %153 to i64
  %arrayidx197 = getelementptr inbounds %struct.waymapcellt, %struct.waymapcellt* %152, i64 %idxprom196
  %num198 = getelementptr inbounds %struct.waymapcellt, %struct.waymapcellt* %arrayidx197, i32 0, i32 1
  %154 = load i16, i16* %num198, align 2
  %conv199 = zext i16 %154 to i32
  %155 = load i32, i32* %i, align 4
  %cmp200 = icmp eq i32 %conv199, %155
  br i1 %cmp200, label %if.then201, label %if.end207

if.then201:                                       ; preds = %if.then195
  %156 = load i32, i32* %index1, align 4
  %call203 = call { <2 x float>, float } @_ZN6wayobj8getpointEi(%class.wayobj* %this1, i32 %156)
  store { <2 x float>, float } %call203, { <2 x float>, float }* %tmp204, align 8
  %157 = bitcast { <2 x float>, float }* %tmp204 to i8*
  %158 = bitcast %class.rvectort* %ref.tmp202 to i8*
  call void @llvm.memcpy.p0i8.p0i8.i64(i8* %158, i8* %157, i64 12, i32 4, i1 false)
  %159 = load %class.rvectort*, %class.rvectort** %wayarp, align 8
  %160 = load i32, i32* %i, align 4
  %idxprom205 = sext i32 %160 to i64
  %arrayidx206 = getelementptr inbounds %class.rvectort, %class.rvectort* %159, i64 %idxprom205
  %161 = bitcast %class.rvectort* %arrayidx206 to i8*
  %162 = bitcast %class.rvectort* %ref.tmp202 to i8*
  call void @llvm.memcpy.p0i8.p0i8.i64(i8* %161, i8* %162, i64 12, i32 4, i1 false)
  %163 = load i32, i32* %index1, align 4
  store i32 %163, i32* %index, align 4
  br label %for.inc

if.end207:                                        ; preds = %if.then195
  br label %if.end208

if.end208:                                        ; preds = %if.end207, %if.end186
  %164 = load i32, i32* %index, align 4
  %165 = load i32, i32* %yoffset, align 4
  %add209 = add nsw i32 %164, %165
  %sub210 = sub nsw i32 %add209, 1
  store i32 %sub210, i32* %index1, align 4
  %166 = load %struct.waymapcellt*, %struct.waymapcellt** %waymap, align 8
  %167 = load i32, i32* %index1, align 4
  %idxprom211 = sext i32 %167 to i64
  %arrayidx212 = getelementptr inbounds %struct.waymapcellt, %struct.waymapcellt* %166, i64 %idxprom211
  %fillnum213 = getelementptr inbounds %struct.waymapcellt, %struct.waymapcellt* %arrayidx212, i32 0, i32 0
  %168 = load i16, i16* %fillnum213, align 2
  %conv214 = zext i16 %168 to i32
  %fillnum215 = getelementptr inbounds %class.wayobj, %class.wayobj* %this1, i32 0, i32 27
  %169 = load i16, i16* %fillnum215, align 2
  %conv216 = zext i16 %169 to i32
  %cmp217 = icmp eq i32 %conv214, %conv216
  br i1 %cmp217, label %if.then218, label %if.end231

if.then218:                                       ; preds = %if.end208
  %170 = load %struct.waymapcellt*, %struct.waymapcellt** %waymap, align 8
  %171 = load i32, i32* %index1, align 4
  %idxprom219 = sext i32 %171 to i64
  %arrayidx220 = getelementptr inbounds %struct.waymapcellt, %struct.waymapcellt* %170, i64 %idxprom219
  %num221 = getelementptr inbounds %struct.waymapcellt, %struct.waymapcellt* %arrayidx220, i32 0, i32 1
  %172 = load i16, i16* %num221, align 2
  %conv222 = zext i16 %172 to i32
  %173 = load i32, i32* %i, align 4
  %cmp223 = icmp eq i32 %conv222, %173
  br i1 %cmp223, label %if.then224, label %if.end230

if.then224:                                       ; preds = %if.then218
  %174 = load i32, i32* %index1, align 4
  %call226 = call { <2 x float>, float } @_ZN6wayobj8getpointEi(%class.wayobj* %this1, i32 %174)
  store { <2 x float>, float } %call226, { <2 x float>, float }* %tmp227, align 8
  %175 = bitcast { <2 x float>, float }* %tmp227 to i8*
  %176 = bitcast %class.rvectort* %ref.tmp225 to i8*
  call void @llvm.memcpy.p0i8.p0i8.i64(i8* %176, i8* %175, i64 12, i32 4, i1 false)
  %177 = load %class.rvectort*, %class.rvectort** %wayarp, align 8
  %178 = load i32, i32* %i, align 4
  %idxprom228 = sext i32 %178 to i64
  %arrayidx229 = getelementptr inbounds %class.rvectort, %class.rvectort* %177, i64 %idxprom228
  %179 = bitcast %class.rvectort* %arrayidx229 to i8*
  %180 = bitcast %class.rvectort* %ref.tmp225 to i8*
  call void @llvm.memcpy.p0i8.p0i8.i64(i8* %179, i8* %180, i64 12, i32 4, i1 false)
  %181 = load i32, i32* %index1, align 4
  store i32 %181, i32* %index, align 4
  br label %for.inc

if.end230:                                        ; preds = %if.then218
  br label %if.end231

if.end231:                                        ; preds = %if.end230, %if.end208
  %182 = load i32, i32* %index1, align 4
  %inc232 = add nsw i32 %182, 1
  store i32 %inc232, i32* %index1, align 4
  %183 = load %struct.waymapcellt*, %struct.waymapcellt** %waymap, align 8
  %184 = load i32, i32* %index1, align 4
  %idxprom233 = sext i32 %184 to i64
  %arrayidx234 = getelementptr inbounds %struct.waymapcellt, %struct.waymapcellt* %183, i64 %idxprom233
  %fillnum235 = getelementptr inbounds %struct.waymapcellt, %struct.waymapcellt* %arrayidx234, i32 0, i32 0
  %185 = load i16, i16* %fillnum235, align 2
  %conv236 = zext i16 %185 to i32
  %fillnum237 = getelementptr inbounds %class.wayobj, %class.wayobj* %this1, i32 0, i32 27
  %186 = load i16, i16* %fillnum237, align 2
  %conv238 = zext i16 %186 to i32
  %cmp239 = icmp eq i32 %conv236, %conv238
  br i1 %cmp239, label %if.then240, label %if.end253

if.then240:                                       ; preds = %if.end231
  %187 = load %struct.waymapcellt*, %struct.waymapcellt** %waymap, align 8
  %188 = load i32, i32* %index1, align 4
  %idxprom241 = sext i32 %188 to i64
  %arrayidx242 = getelementptr inbounds %struct.waymapcellt, %struct.waymapcellt* %187, i64 %idxprom241
  %num243 = getelementptr inbounds %struct.waymapcellt, %struct.waymapcellt* %arrayidx242, i32 0, i32 1
  %189 = load i16, i16* %num243, align 2
  %conv244 = zext i16 %189 to i32
  %190 = load i32, i32* %i, align 4
  %cmp245 = icmp eq i32 %conv244, %190
  br i1 %cmp245, label %if.then246, label %if.end252

if.then246:                                       ; preds = %if.then240
  %191 = load i32, i32* %index1, align 4
  %call248 = call { <2 x float>, float } @_ZN6wayobj8getpointEi(%class.wayobj* %this1, i32 %191)
  store { <2 x float>, float } %call248, { <2 x float>, float }* %tmp249, align 8
  %192 = bitcast { <2 x float>, float }* %tmp249 to i8*
  %193 = bitcast %class.rvectort* %ref.tmp247 to i8*
  call void @llvm.memcpy.p0i8.p0i8.i64(i8* %193, i8* %192, i64 12, i32 4, i1 false)
  %194 = load %class.rvectort*, %class.rvectort** %wayarp, align 8
  %195 = load i32, i32* %i, align 4
  %idxprom250 = sext i32 %195 to i64
  %arrayidx251 = getelementptr inbounds %class.rvectort, %class.rvectort* %194, i64 %idxprom250
  %196 = bitcast %class.rvectort* %arrayidx251 to i8*
  %197 = bitcast %class.rvectort* %ref.tmp247 to i8*
  call void @llvm.memcpy.p0i8.p0i8.i64(i8* %196, i8* %197, i64 12, i32 4, i1 false)
  %198 = load i32, i32* %index1, align 4
  store i32 %198, i32* %index, align 4
  br label %for.inc

if.end252:                                        ; preds = %if.then240
  br label %if.end253

if.end253:                                        ; preds = %if.end252, %if.end231
  %199 = load i32, i32* %index1, align 4
  %inc254 = add nsw i32 %199, 1
  store i32 %inc254, i32* %index1, align 4
  %200 = load %struct.waymapcellt*, %struct.waymapcellt** %waymap, align 8
  %201 = load i32, i32* %index1, align 4
  %idxprom255 = sext i32 %201 to i64
  %arrayidx256 = getelementptr inbounds %struct.waymapcellt, %struct.waymapcellt* %200, i64 %idxprom255
  %fillnum257 = getelementptr inbounds %struct.waymapcellt, %struct.waymapcellt* %arrayidx256, i32 0, i32 0
  %202 = load i16, i16* %fillnum257, align 2
  %conv258 = zext i16 %202 to i32
  %fillnum259 = getelementptr inbounds %class.wayobj, %class.wayobj* %this1, i32 0, i32 27
  %203 = load i16, i16* %fillnum259, align 2
  %conv260 = zext i16 %203 to i32
  %cmp261 = icmp eq i32 %conv258, %conv260
  br i1 %cmp261, label %if.then262, label %if.end275

if.then262:                                       ; preds = %if.end253
  %204 = load %struct.waymapcellt*, %struct.waymapcellt** %waymap, align 8
  %205 = load i32, i32* %index1, align 4
  %idxprom263 = sext i32 %205 to i64
  %arrayidx264 = getelementptr inbounds %struct.waymapcellt, %struct.waymapcellt* %204, i64 %idxprom263
  %num265 = getelementptr inbounds %struct.waymapcellt, %struct.waymapcellt* %arrayidx264, i32 0, i32 1
  %206 = load i16, i16* %num265, align 2
  %conv266 = zext i16 %206 to i32
  %207 = load i32, i32* %i, align 4
  %cmp267 = icmp eq i32 %conv266, %207
  br i1 %cmp267, label %if.then268, label %if.end274

if.then268:                                       ; preds = %if.then262
  %208 = load i32, i32* %index1, align 4
  %call270 = call { <2 x float>, float } @_ZN6wayobj8getpointEi(%class.wayobj* %this1, i32 %208)
  store { <2 x float>, float } %call270, { <2 x float>, float }* %tmp271, align 8
  %209 = bitcast { <2 x float>, float }* %tmp271 to i8*
  %210 = bitcast %class.rvectort* %ref.tmp269 to i8*
  call void @llvm.memcpy.p0i8.p0i8.i64(i8* %210, i8* %209, i64 12, i32 4, i1 false)
  %211 = load %class.rvectort*, %class.rvectort** %wayarp, align 8
  %212 = load i32, i32* %i, align 4
  %idxprom272 = sext i32 %212 to i64
  %arrayidx273 = getelementptr inbounds %class.rvectort, %class.rvectort* %211, i64 %idxprom272
  %213 = bitcast %class.rvectort* %arrayidx273 to i8*
  %214 = bitcast %class.rvectort* %ref.tmp269 to i8*
  call void @llvm.memcpy.p0i8.p0i8.i64(i8* %213, i8* %214, i64 12, i32 4, i1 false)
  %215 = load i32, i32* %index1, align 4
  store i32 %215, i32* %index, align 4
  br label %for.inc

if.end274:                                        ; preds = %if.then262
  br label %if.end275

if.end275:                                        ; preds = %if.end274, %if.end253
  %216 = load %class.rvectort*, %class.rvectort** %wayarp, align 8
  %isnull = icmp eq %class.rvectort* %216, null
  br i1 %isnull, label %delete.end, label %delete.notnull

delete.notnull:                                   ; preds = %if.end275
  %217 = bitcast %class.rvectort* %216 to i8*
  call void @_ZdaPv(i8* %217) #12
  br label %delete.end

delete.end:                                       ; preds = %delete.notnull, %if.end275
  store i1 false, i1* %retval, align 1
  br label %return

for.inc:                                          ; preds = %if.then268, %if.then246, %if.then224, %if.then201, %if.then179, %if.then157, %if.then135, %if.then114, %if.then93
  %218 = load i32, i32* %i, align 4
  %dec = add nsw i32 %218, -1
  store i32 %dec, i32* %i, align 4
  br label %for.cond

for.end:                                          ; preds = %for.cond
  %createwayinfo = getelementptr inbounds %class.wayobj, %class.wayobj* %this1, i32 0, i32 15
  %startp = getelementptr inbounds %struct.createwayinfot, %struct.createwayinfot* %createwayinfo, i32 0, i32 0
  %219 = load %class.rvectort*, %class.rvectort** %wayarp, align 8
  %arrayidx276 = getelementptr inbounds %class.rvectort, %class.rvectort* %219, i64 0
  %220 = bitcast %class.rvectort* %arrayidx276 to i8*
  %221 = bitcast %class.rvectort* %startp to i8*
  call void @llvm.memcpy.p0i8.p0i8.i64(i8* %220, i8* %221, i64 12, i32 4, i1 false)
  %createwayinfo277 = getelementptr inbounds %class.wayobj, %class.wayobj* %this1, i32 0, i32 15
  %finishp = getelementptr inbounds %struct.createwayinfot, %struct.createwayinfot* %createwayinfo277, i32 0, i32 1
  %222 = load %class.rvectort*, %class.rvectort** %wayarp, align 8
  %223 = load i32, i32* %length, align 4
  %sub278 = sub nsw i32 %223, 1
  %idxprom279 = sext i32 %sub278 to i64
  %arrayidx280 = getelementptr inbounds %class.rvectort, %class.rvectort* %222, i64 %idxprom279
  %224 = bitcast %class.rvectort* %arrayidx280 to i8*
  %225 = bitcast %class.rvectort* %finishp to i8*
  call void @llvm.memcpy.p0i8.p0i8.i64(i8* %224, i8* %225, i64 12, i32 4, i1 false)
  %226 = load %struct.wayinfot*, %struct.wayinfot** %wayinfo.addr, align 8
  %flexist = getelementptr inbounds %struct.wayinfot, %struct.wayinfot* %226, i32 0, i32 0
  store i8 1, i8* %flexist, align 8
  %227 = load %class.rvectort*, %class.rvectort** %wayarp, align 8
  %228 = load %struct.wayinfot*, %struct.wayinfot** %wayinfo.addr, align 8
  %wayarp281 = getelementptr inbounds %struct.wayinfot, %struct.wayinfot* %228, i32 0, i32 1
  store %class.rvectort* %227, %class.rvectort** %wayarp281, align 8
  %229 = load i32, i32* %length, align 4
  %230 = load %struct.wayinfot*, %struct.wayinfot** %wayinfo.addr, align 8
  %wayarsize = getelementptr inbounds %struct.wayinfot, %struct.wayinfot* %230, i32 0, i32 2
  store i32 %229, i32* %wayarsize, align 8
  %231 = load %struct.wayinfot*, %struct.wayinfot** %wayinfo.addr, align 8
  %flcorrect = getelementptr inbounds %struct.wayinfot, %struct.wayinfot* %231, i32 0, i32 3
  store i8 0, i8* %flcorrect, align 4
  store i1 true, i1* %retval, align 1
  br label %return

return:                                           ; preds = %for.end, %delete.end
  %232 = load i1, i1* %retval, align 1
  ret i1 %232

eh.resume:                                        ; preds = %lpad
  %exn = load i8*, i8** %exn.slot, align 8
  %sel = load i32, i32* %ehselector.slot, align 4
  %lpad.val = insertvalue { i8*, i32 } undef, i8* %exn, 0
  %lpad.val282 = insertvalue { i8*, i32 } %lpad.val, i32 %sel, 1
  resume { i8*, i32 } %lpad.val282
}

; Function Attrs: noinline uwtable
define zeroext i1 @_ZN6wayobj8wayexistEiiii(%class.wayobj* %this, i32 %startx, i32 %starty, i32 %endx, i32 %endy) #0 align 2 {
entry:
  %retval = alloca i1, align 1
  %this.addr = alloca %class.wayobj*, align 8
  %startx.addr = alloca i32, align 4
  %starty.addr = alloca i32, align 4
  %endx.addr = alloca i32, align 4
  %endy.addr = alloca i32, align 4
  store %class.wayobj* %this, %class.wayobj** %this.addr, align 8
  store i32 %startx, i32* %startx.addr, align 4
  store i32 %starty, i32* %starty.addr, align 4
  store i32 %endx, i32* %endx.addr, align 4
  store i32 %endy, i32* %endy.addr, align 4
  %this1 = load %class.wayobj*, %class.wayobj** %this.addr, align 8
  %0 = load i32, i32* %startx.addr, align 4
  %1 = load i32, i32* %starty.addr, align 4
  %call = call zeroext i1 @_ZN6wayobj5ismapEii(%class.wayobj* %this1, i32 %0, i32 %1)
  br i1 %call, label %lor.lhs.false, label %if.then

lor.lhs.false:                                    ; preds = %entry
  %2 = load i32, i32* %endx.addr, align 4
  %3 = load i32, i32* %endy.addr, align 4
  %call2 = call zeroext i1 @_ZN6wayobj5ismapEii(%class.wayobj* %this1, i32 %2, i32 %3)
  br i1 %call2, label %if.end, label %if.then

if.then:                                          ; preds = %lor.lhs.false, %entry
  store i1 false, i1* %retval, align 1
  br label %return

if.end:                                           ; preds = %lor.lhs.false
  %4 = load i32, i32* %endx.addr, align 4
  %5 = load i32, i32* %endy.addr, align 4
  %call3 = call dereferenceable(2) i16* @_ZN6wayobj3mapEii(%class.wayobj* %this1, i32 %4, i32 %5)
  %6 = load i16, i16* %call3, align 2
  %conv = sext i16 %6 to i32
  %cmp = icmp ne i32 %conv, 0
  br i1 %cmp, label %if.then4, label %if.end5

if.then4:                                         ; preds = %if.end
  store i1 false, i1* %retval, align 1
  br label %return

if.end5:                                          ; preds = %if.end
  %7 = load i32, i32* %startx.addr, align 4
  %8 = load i32, i32* %endx.addr, align 4
  %cmp6 = icmp eq i32 %7, %8
  br i1 %cmp6, label %land.lhs.true, label %if.end9

land.lhs.true:                                    ; preds = %if.end5
  %9 = load i32, i32* %starty.addr, align 4
  %10 = load i32, i32* %endy.addr, align 4
  %cmp7 = icmp eq i32 %9, %10
  br i1 %cmp7, label %if.then8, label %if.end9

if.then8:                                         ; preds = %land.lhs.true
  store i1 true, i1* %retval, align 1
  br label %return

if.end9:                                          ; preds = %land.lhs.true, %if.end5
  %11 = load i32, i32* %startx.addr, align 4
  %12 = load i32, i32* %starty.addr, align 4
  %13 = load i32, i32* %endx.addr, align 4
  %14 = load i32, i32* %endy.addr, align 4
  %call10 = call zeroext i1 @_ZN6wayobj4fillEiiii(%class.wayobj* %this1, i32 %11, i32 %12, i32 %13, i32 %14)
  store i1 %call10, i1* %retval, align 1
  br label %return

return:                                           ; preds = %if.end9, %if.then8, %if.then4, %if.then
  %15 = load i1, i1* %retval, align 1
  ret i1 %15
}

; Function Attrs: noinline nounwind uwtable
define linkonce_odr dereferenceable(2) i16* @_ZN6wayobj3mapEii(%class.wayobj* %this, i32 %x, i32 %y) #2 comdat align 2 {
entry:
  %this.addr = alloca %class.wayobj*, align 8
  %x.addr = alloca i32, align 4
  %y.addr = alloca i32, align 4
  store %class.wayobj* %this, %class.wayobj** %this.addr, align 8
  store i32 %x, i32* %x.addr, align 4
  store i32 %y, i32* %y.addr, align 4
  %this1 = load %class.wayobj*, %class.wayobj** %this.addr, align 8
  %maparp = getelementptr inbounds %class.wayobj, %class.wayobj* %this1, i32 0, i32 17
  %0 = load i16*, i16** %maparp, align 8
  %1 = load i32, i32* %y.addr, align 4
  %shift = getelementptr inbounds %class.wayobj, %class.wayobj* %this1, i32 0, i32 2
  %2 = load i32, i32* %shift, align 8
  %shl = shl i32 %1, %2
  %3 = load i32, i32* %x.addr, align 4
  %or = or i32 %shl, %3
  %idxprom = sext i32 %or to i64
  %arrayidx = getelementptr inbounds i16, i16* %0, i64 %idxprom
  ret i16* %arrayidx
}

; Function Attrs: noinline uwtable
define zeroext i1 @_ZN6wayobj9createwayERK8rvectortS2_bR8wayinfot(%class.wayobj* %this, %class.rvectort* dereferenceable(12) %startp, %class.rvectort* dereferenceable(12) %finishp, i1 zeroext %flcorrect, %struct.wayinfot* dereferenceable(24) %wayinfo) #0 align 2 personality i8* bitcast (i32 (...)* @__gxx_personality_v0 to i8*) {
entry:
  %retval = alloca i1, align 1
  %this.addr = alloca %class.wayobj*, align 8
  %startp.addr = alloca %class.rvectort*, align 8
  %finishp.addr = alloca %class.rvectort*, align 8
  %flcorrect.addr = alloca i8, align 1
  %wayinfo.addr = alloca %struct.wayinfot*, align 8
  %startx = alloca i32, align 4
  %starty = alloca i32, align 4
  %endx = alloca i32, align 4
  %endy = alloca i32, align 4
  %flcorrectend = alloca i8, align 1
  %ref.tmp = alloca %class.rvectort, align 4
  %tmp = alloca { <2 x float>, float }, align 8
  %exn.slot = alloca i8*
  %ehselector.slot = alloca i32
  store %class.wayobj* %this, %class.wayobj** %this.addr, align 8
  store %class.rvectort* %startp, %class.rvectort** %startp.addr, align 8
  store %class.rvectort* %finishp, %class.rvectort** %finishp.addr, align 8
  %frombool = zext i1 %flcorrect to i8
  store i8 %frombool, i8* %flcorrect.addr, align 1
  store %struct.wayinfot* %wayinfo, %struct.wayinfot** %wayinfo.addr, align 8
  %this1 = load %class.wayobj*, %class.wayobj** %this.addr, align 8
  %0 = load %class.rvectort*, %class.rvectort** %startp.addr, align 8
  %createwayinfo = getelementptr inbounds %class.wayobj, %class.wayobj* %this1, i32 0, i32 15
  %startp2 = getelementptr inbounds %struct.createwayinfot, %struct.createwayinfot* %createwayinfo, i32 0, i32 0
  %1 = bitcast %class.rvectort* %startp2 to i8*
  %2 = bitcast %class.rvectort* %0 to i8*
  call void @llvm.memcpy.p0i8.p0i8.i64(i8* %1, i8* %2, i64 12, i32 4, i1 false)
  %3 = load %class.rvectort*, %class.rvectort** %finishp.addr, align 8
  %createwayinfo3 = getelementptr inbounds %class.wayobj, %class.wayobj* %this1, i32 0, i32 15
  %finishp4 = getelementptr inbounds %struct.createwayinfot, %struct.createwayinfot* %createwayinfo3, i32 0, i32 1
  %4 = bitcast %class.rvectort* %finishp4 to i8*
  %5 = bitcast %class.rvectort* %3 to i8*
  call void @llvm.memcpy.p0i8.p0i8.i64(i8* %4, i8* %5, i64 12, i32 4, i1 false)
  %6 = load i8, i8* %flcorrect.addr, align 1
  %tobool = trunc i8 %6 to i1
  %createwayinfo5 = getelementptr inbounds %class.wayobj, %class.wayobj* %this1, i32 0, i32 15
  %flcorrect6 = getelementptr inbounds %struct.createwayinfot, %struct.createwayinfot* %createwayinfo5, i32 0, i32 2
  %frombool7 = zext i1 %tobool to i8
  store i8 %frombool7, i8* %flcorrect6, align 8
  %7 = load %class.rvectort*, %class.rvectort** %startp.addr, align 8
  %x = getelementptr inbounds %class.rvectort, %class.rvectort* %7, i32 0, i32 0
  %8 = load float, float* %x, align 4
  %call = call i32 @_ZN6wayobj4getxEf(%class.wayobj* %this1, float %8)
  store i32 %call, i32* %startx, align 4
  %9 = load %class.rvectort*, %class.rvectort** %startp.addr, align 8
  %z = getelementptr inbounds %class.rvectort, %class.rvectort* %9, i32 0, i32 2
  %10 = load float, float* %z, align 4
  %call8 = call i32 @_ZN6wayobj4getyEf(%class.wayobj* %this1, float %10)
  store i32 %call8, i32* %starty, align 4
  %11 = load %class.rvectort*, %class.rvectort** %finishp.addr, align 8
  %x9 = getelementptr inbounds %class.rvectort, %class.rvectort* %11, i32 0, i32 0
  %12 = load float, float* %x9, align 4
  %call10 = call i32 @_ZN6wayobj4getxEf(%class.wayobj* %this1, float %12)
  store i32 %call10, i32* %endx, align 4
  %13 = load %class.rvectort*, %class.rvectort** %finishp.addr, align 8
  %z11 = getelementptr inbounds %class.rvectort, %class.rvectort* %13, i32 0, i32 2
  %14 = load float, float* %z11, align 4
  %call12 = call i32 @_ZN6wayobj4getyEf(%class.wayobj* %this1, float %14)
  store i32 %call12, i32* %endy, align 4
  store i8 0, i8* %flcorrectend, align 1
  %15 = load i32, i32* %startx, align 4
  %16 = load i32, i32* %starty, align 4
  %call13 = call zeroext i1 @_ZN6wayobj5ismapEii(%class.wayobj* %this1, i32 %15, i32 %16)
  br i1 %call13, label %lor.lhs.false, label %if.then

lor.lhs.false:                                    ; preds = %entry
  %17 = load i32, i32* %endx, align 4
  %18 = load i32, i32* %endy, align 4
  %call14 = call zeroext i1 @_ZN6wayobj5ismapEii(%class.wayobj* %this1, i32 %17, i32 %18)
  br i1 %call14, label %if.end, label %if.then

if.then:                                          ; preds = %lor.lhs.false, %entry
  %19 = load %struct.wayinfot*, %struct.wayinfot** %wayinfo.addr, align 8
  %flexist = getelementptr inbounds %struct.wayinfot, %struct.wayinfot* %19, i32 0, i32 0
  store i8 0, i8* %flexist, align 8
  %20 = load %struct.wayinfot*, %struct.wayinfot** %wayinfo.addr, align 8
  %wayarp = getelementptr inbounds %struct.wayinfot, %struct.wayinfot* %20, i32 0, i32 1
  store %class.rvectort* null, %class.rvectort** %wayarp, align 8
  %21 = load %struct.wayinfot*, %struct.wayinfot** %wayinfo.addr, align 8
  %wayarsize = getelementptr inbounds %struct.wayinfot, %struct.wayinfot* %21, i32 0, i32 2
  store i32 0, i32* %wayarsize, align 8
  %22 = load i8, i8* %flcorrectend, align 1
  %tobool15 = trunc i8 %22 to i1
  %23 = load %struct.wayinfot*, %struct.wayinfot** %wayinfo.addr, align 8
  %flcorrect16 = getelementptr inbounds %struct.wayinfot, %struct.wayinfot* %23, i32 0, i32 3
  %frombool17 = zext i1 %tobool15 to i8
  store i8 %frombool17, i8* %flcorrect16, align 4
  store i1 false, i1* %retval, align 1
  br label %return

if.end:                                           ; preds = %lor.lhs.false
  %24 = load i32, i32* %endx, align 4
  %25 = load i32, i32* %endy, align 4
  %call18 = call dereferenceable(2) i16* @_ZN6wayobj3mapEii(%class.wayobj* %this1, i32 %24, i32 %25)
  %26 = load i16, i16* %call18, align 2
  %conv = sext i16 %26 to i32
  %cmp = icmp ne i32 %conv, 0
  br i1 %cmp, label %if.then19, label %if.end47

if.then19:                                        ; preds = %if.end
  %27 = load i8, i8* %flcorrect.addr, align 1
  %tobool20 = trunc i8 %27 to i1
  %conv21 = zext i1 %tobool20 to i32
  %cmp22 = icmp eq i32 %conv21, 0
  br i1 %cmp22, label %if.then23, label %if.else

if.then23:                                        ; preds = %if.then19
  %28 = load %struct.wayinfot*, %struct.wayinfot** %wayinfo.addr, align 8
  %flexist24 = getelementptr inbounds %struct.wayinfot, %struct.wayinfot* %28, i32 0, i32 0
  store i8 0, i8* %flexist24, align 8
  %29 = load %struct.wayinfot*, %struct.wayinfot** %wayinfo.addr, align 8
  %wayarp25 = getelementptr inbounds %struct.wayinfot, %struct.wayinfot* %29, i32 0, i32 1
  store %class.rvectort* null, %class.rvectort** %wayarp25, align 8
  %30 = load %struct.wayinfot*, %struct.wayinfot** %wayinfo.addr, align 8
  %wayarsize26 = getelementptr inbounds %struct.wayinfot, %struct.wayinfot* %30, i32 0, i32 2
  store i32 0, i32* %wayarsize26, align 8
  %31 = load i8, i8* %flcorrectend, align 1
  %tobool27 = trunc i8 %31 to i1
  %32 = load %struct.wayinfot*, %struct.wayinfot** %wayinfo.addr, align 8
  %flcorrect28 = getelementptr inbounds %struct.wayinfot, %struct.wayinfot* %32, i32 0, i32 3
  %frombool29 = zext i1 %tobool27 to i8
  store i8 %frombool29, i8* %flcorrect28, align 4
  store i1 false, i1* %retval, align 1
  br label %return

if.else:                                          ; preds = %if.then19
  %33 = load i32, i32* %endx, align 4
  %34 = load i32, i32* %endy, align 4
  %call30 = call zeroext i1 @_ZN6wayobj13findfreepointEiiRiS0_(%class.wayobj* %this1, i32 %33, i32 %34, i32* dereferenceable(4) %endx, i32* dereferenceable(4) %endy)
  %conv31 = zext i1 %call30 to i32
  %cmp32 = icmp eq i32 %conv31, 0
  br i1 %cmp32, label %if.then33, label %if.else40

if.then33:                                        ; preds = %if.else
  %35 = load %struct.wayinfot*, %struct.wayinfot** %wayinfo.addr, align 8
  %flexist34 = getelementptr inbounds %struct.wayinfot, %struct.wayinfot* %35, i32 0, i32 0
  store i8 0, i8* %flexist34, align 8
  %36 = load %struct.wayinfot*, %struct.wayinfot** %wayinfo.addr, align 8
  %wayarp35 = getelementptr inbounds %struct.wayinfot, %struct.wayinfot* %36, i32 0, i32 1
  store %class.rvectort* null, %class.rvectort** %wayarp35, align 8
  %37 = load %struct.wayinfot*, %struct.wayinfot** %wayinfo.addr, align 8
  %wayarsize36 = getelementptr inbounds %struct.wayinfot, %struct.wayinfot* %37, i32 0, i32 2
  store i32 0, i32* %wayarsize36, align 8
  %38 = load i8, i8* %flcorrectend, align 1
  %tobool37 = trunc i8 %38 to i1
  %39 = load %struct.wayinfot*, %struct.wayinfot** %wayinfo.addr, align 8
  %flcorrect38 = getelementptr inbounds %struct.wayinfot, %struct.wayinfot* %39, i32 0, i32 3
  %frombool39 = zext i1 %tobool37 to i8
  store i8 %frombool39, i8* %flcorrect38, align 4
  store i1 false, i1* %retval, align 1
  br label %return

if.else40:                                        ; preds = %if.else
  store i8 1, i8* %flcorrectend, align 1
  %40 = load i32, i32* %endx, align 4
  %41 = load i32, i32* %endy, align 4
  %call41 = call i32 @_ZN6wayobj5indexEii(%class.wayobj* %this1, i32 %40, i32 %41)
  %call42 = call { <2 x float>, float } @_ZN6wayobj8getpointEi(%class.wayobj* %this1, i32 %call41)
  store { <2 x float>, float } %call42, { <2 x float>, float }* %tmp, align 8
  %42 = bitcast { <2 x float>, float }* %tmp to i8*
  %43 = bitcast %class.rvectort* %ref.tmp to i8*
  call void @llvm.memcpy.p0i8.p0i8.i64(i8* %43, i8* %42, i64 12, i32 4, i1 false)
  %createwayinfo43 = getelementptr inbounds %class.wayobj, %class.wayobj* %this1, i32 0, i32 15
  %finishp44 = getelementptr inbounds %struct.createwayinfot, %struct.createwayinfot* %createwayinfo43, i32 0, i32 1
  %44 = bitcast %class.rvectort* %finishp44 to i8*
  %45 = bitcast %class.rvectort* %ref.tmp to i8*
  call void @llvm.memcpy.p0i8.p0i8.i64(i8* %44, i8* %45, i64 12, i32 4, i1 false)
  br label %if.end45

if.end45:                                         ; preds = %if.else40
  br label %if.end46

if.end46:                                         ; preds = %if.end45
  br label %if.end47

if.end47:                                         ; preds = %if.end46, %if.end
  %46 = load i32, i32* %startx, align 4
  %47 = load i32, i32* %endx, align 4
  %cmp48 = icmp eq i32 %46, %47
  br i1 %cmp48, label %land.lhs.true, label %if.end63

land.lhs.true:                                    ; preds = %if.end47
  %48 = load i32, i32* %starty, align 4
  %49 = load i32, i32* %endy, align 4
  %cmp49 = icmp eq i32 %48, %49
  br i1 %cmp49, label %if.then50, label %if.end63

if.then50:                                        ; preds = %land.lhs.true
  %50 = load %struct.wayinfot*, %struct.wayinfot** %wayinfo.addr, align 8
  %flexist51 = getelementptr inbounds %struct.wayinfot, %struct.wayinfot* %50, i32 0, i32 0
  store i8 1, i8* %flexist51, align 8
  %call52 = call i8* @_Znam(i64 24) #11
  %51 = bitcast i8* %call52 to %class.rvectort*
  %arrayctor.end = getelementptr inbounds %class.rvectort, %class.rvectort* %51, i64 2
  br label %arrayctor.loop

arrayctor.loop:                                   ; preds = %invoke.cont, %if.then50
  %arrayctor.cur = phi %class.rvectort* [ %51, %if.then50 ], [ %arrayctor.next, %invoke.cont ]
  invoke void @_ZN8rvectortC2Ev(%class.rvectort* %arrayctor.cur)
          to label %invoke.cont unwind label %lpad

invoke.cont:                                      ; preds = %arrayctor.loop
  %arrayctor.next = getelementptr inbounds %class.rvectort, %class.rvectort* %arrayctor.cur, i64 1
  %arrayctor.done = icmp eq %class.rvectort* %arrayctor.next, %arrayctor.end
  br i1 %arrayctor.done, label %arrayctor.cont, label %arrayctor.loop

arrayctor.cont:                                   ; preds = %invoke.cont
  %52 = load %struct.wayinfot*, %struct.wayinfot** %wayinfo.addr, align 8
  %wayarp53 = getelementptr inbounds %struct.wayinfot, %struct.wayinfot* %52, i32 0, i32 1
  store %class.rvectort* %51, %class.rvectort** %wayarp53, align 8
  %53 = load %class.rvectort*, %class.rvectort** %startp.addr, align 8
  %54 = load %struct.wayinfot*, %struct.wayinfot** %wayinfo.addr, align 8
  %wayarp54 = getelementptr inbounds %struct.wayinfot, %struct.wayinfot* %54, i32 0, i32 1
  %55 = load %class.rvectort*, %class.rvectort** %wayarp54, align 8
  %arrayidx = getelementptr inbounds %class.rvectort, %class.rvectort* %55, i64 0
  %56 = bitcast %class.rvectort* %arrayidx to i8*
  %57 = bitcast %class.rvectort* %53 to i8*
  call void @llvm.memcpy.p0i8.p0i8.i64(i8* %56, i8* %57, i64 12, i32 4, i1 false)
  %createwayinfo55 = getelementptr inbounds %class.wayobj, %class.wayobj* %this1, i32 0, i32 15
  %finishp56 = getelementptr inbounds %struct.createwayinfot, %struct.createwayinfot* %createwayinfo55, i32 0, i32 1
  %58 = load %struct.wayinfot*, %struct.wayinfot** %wayinfo.addr, align 8
  %wayarp57 = getelementptr inbounds %struct.wayinfot, %struct.wayinfot* %58, i32 0, i32 1
  %59 = load %class.rvectort*, %class.rvectort** %wayarp57, align 8
  %arrayidx58 = getelementptr inbounds %class.rvectort, %class.rvectort* %59, i64 1
  %60 = bitcast %class.rvectort* %arrayidx58 to i8*
  %61 = bitcast %class.rvectort* %finishp56 to i8*
  call void @llvm.memcpy.p0i8.p0i8.i64(i8* %60, i8* %61, i64 12, i32 4, i1 false)
  %62 = load %struct.wayinfot*, %struct.wayinfot** %wayinfo.addr, align 8
  %wayarsize59 = getelementptr inbounds %struct.wayinfot, %struct.wayinfot* %62, i32 0, i32 2
  store i32 2, i32* %wayarsize59, align 8
  %63 = load i8, i8* %flcorrectend, align 1
  %tobool60 = trunc i8 %63 to i1
  %64 = load %struct.wayinfot*, %struct.wayinfot** %wayinfo.addr, align 8
  %flcorrect61 = getelementptr inbounds %struct.wayinfot, %struct.wayinfot* %64, i32 0, i32 3
  %frombool62 = zext i1 %tobool60 to i8
  store i8 %frombool62, i8* %flcorrect61, align 4
  store i1 true, i1* %retval, align 1
  br label %return

lpad:                                             ; preds = %arrayctor.loop
  %65 = landingpad { i8*, i32 }
          cleanup
  %66 = extractvalue { i8*, i32 } %65, 0
  store i8* %66, i8** %exn.slot, align 8
  %67 = extractvalue { i8*, i32 } %65, 1
  store i32 %67, i32* %ehselector.slot, align 4
  call void @_ZdaPv(i8* %call52) #12
  br label %eh.resume

if.end63:                                         ; preds = %land.lhs.true, %if.end47
  %68 = load i32, i32* %startx, align 4
  %69 = load i32, i32* %starty, align 4
  %70 = load i32, i32* %endx, align 4
  %71 = load i32, i32* %endy, align 4
  %call64 = call zeroext i1 @_ZN6wayobj4fillEiiii(%class.wayobj* %this1, i32 %68, i32 %69, i32 %70, i32 %71)
  br i1 %call64, label %if.end72, label %if.then65

if.then65:                                        ; preds = %if.end63
  %72 = load %struct.wayinfot*, %struct.wayinfot** %wayinfo.addr, align 8
  %flexist66 = getelementptr inbounds %struct.wayinfot, %struct.wayinfot* %72, i32 0, i32 0
  store i8 0, i8* %flexist66, align 8
  %73 = load %struct.wayinfot*, %struct.wayinfot** %wayinfo.addr, align 8
  %wayarp67 = getelementptr inbounds %struct.wayinfot, %struct.wayinfot* %73, i32 0, i32 1
  store %class.rvectort* null, %class.rvectort** %wayarp67, align 8
  %74 = load %struct.wayinfot*, %struct.wayinfot** %wayinfo.addr, align 8
  %wayarsize68 = getelementptr inbounds %struct.wayinfot, %struct.wayinfot* %74, i32 0, i32 2
  store i32 0, i32* %wayarsize68, align 8
  %75 = load i8, i8* %flcorrectend, align 1
  %tobool69 = trunc i8 %75 to i1
  %76 = load %struct.wayinfot*, %struct.wayinfot** %wayinfo.addr, align 8
  %flcorrect70 = getelementptr inbounds %struct.wayinfot, %struct.wayinfot* %76, i32 0, i32 3
  %frombool71 = zext i1 %tobool69 to i8
  store i8 %frombool71, i8* %flcorrect70, align 4
  store i1 false, i1* %retval, align 1
  br label %return

if.end72:                                         ; preds = %if.end63
  %77 = load i8, i8* %flcorrectend, align 1
  %tobool73 = trunc i8 %77 to i1
  %78 = load %struct.wayinfot*, %struct.wayinfot** %wayinfo.addr, align 8
  %flcorrect74 = getelementptr inbounds %struct.wayinfot, %struct.wayinfot* %78, i32 0, i32 3
  %frombool75 = zext i1 %tobool73 to i8
  store i8 %frombool75, i8* %flcorrect74, align 4
  %79 = load i32, i32* %startx, align 4
  %80 = load i32, i32* %starty, align 4
  %call76 = call i32 @_ZN6wayobj5indexEii(%class.wayobj* %this1, i32 %79, i32 %80)
  %endindex = getelementptr inbounds %class.wayobj, %class.wayobj* %this1, i32 0, i32 25
  %81 = load i32, i32* %endindex, align 4
  %82 = load %struct.wayinfot*, %struct.wayinfot** %wayinfo.addr, align 8
  %call77 = call zeroext i1 @_ZN6wayobj11createwayarEiiR8wayinfot(%class.wayobj* %this1, i32 %call76, i32 %81, %struct.wayinfot* dereferenceable(24) %82)
  br i1 %call77, label %if.end85, label %if.then78

if.then78:                                        ; preds = %if.end72
  %83 = load %struct.wayinfot*, %struct.wayinfot** %wayinfo.addr, align 8
  %flexist79 = getelementptr inbounds %struct.wayinfot, %struct.wayinfot* %83, i32 0, i32 0
  store i8 0, i8* %flexist79, align 8
  %84 = load %struct.wayinfot*, %struct.wayinfot** %wayinfo.addr, align 8
  %wayarp80 = getelementptr inbounds %struct.wayinfot, %struct.wayinfot* %84, i32 0, i32 1
  store %class.rvectort* null, %class.rvectort** %wayarp80, align 8
  %85 = load %struct.wayinfot*, %struct.wayinfot** %wayinfo.addr, align 8
  %wayarsize81 = getelementptr inbounds %struct.wayinfot, %struct.wayinfot* %85, i32 0, i32 2
  store i32 0, i32* %wayarsize81, align 8
  %86 = load i8, i8* %flcorrectend, align 1
  %tobool82 = trunc i8 %86 to i1
  %87 = load %struct.wayinfot*, %struct.wayinfot** %wayinfo.addr, align 8
  %flcorrect83 = getelementptr inbounds %struct.wayinfot, %struct.wayinfot* %87, i32 0, i32 3
  %frombool84 = zext i1 %tobool82 to i8
  store i8 %frombool84, i8* %flcorrect83, align 4
  store i1 false, i1* %retval, align 1
  br label %return

if.end85:                                         ; preds = %if.end72
  store i1 true, i1* %retval, align 1
  br label %return

return:                                           ; preds = %if.end85, %if.then78, %if.then65, %arrayctor.cont, %if.then33, %if.then23, %if.then
  %88 = load i1, i1* %retval, align 1
  ret i1 %88

eh.resume:                                        ; preds = %lpad
  %exn = load i8*, i8** %exn.slot, align 8
  %sel = load i32, i32* %ehselector.slot, align 4
  %lpad.val = insertvalue { i8*, i32 } undef, i8* %exn, 0
  %lpad.val86 = insertvalue { i8*, i32 } %lpad.val, i32 %sel, 1
  resume { i8*, i32 } %lpad.val86
}

; Function Attrs: noinline nounwind uwtable
define linkonce_odr i32 @_ZN6wayobj4getxEf(%class.wayobj* %this, float %x) #2 comdat align 2 {
entry:
  %this.addr = alloca %class.wayobj*, align 8
  %x.addr = alloca float, align 4
  store %class.wayobj* %this, %class.wayobj** %this.addr, align 8
  store float %x, float* %x.addr, align 4
  %this1 = load %class.wayobj*, %class.wayobj** %this.addr, align 8
  %0 = load float, float* %x.addr, align 4
  %xcoef1 = getelementptr inbounds %class.wayobj, %class.wayobj* %this1, i32 0, i32 9
  %1 = load float, float* %xcoef1, align 4
  %mul = fmul float %0, %1
  %xcoef2 = getelementptr inbounds %class.wayobj, %class.wayobj* %this1, i32 0, i32 10
  %2 = load float, float* %xcoef2, align 8
  %add = fadd float %mul, %2
  %conv = fptosi float %add to i32
  ret i32 %conv
}

; Function Attrs: noinline nounwind uwtable
define linkonce_odr i32 @_ZN6wayobj4getyEf(%class.wayobj* %this, float %y) #2 comdat align 2 {
entry:
  %this.addr = alloca %class.wayobj*, align 8
  %y.addr = alloca float, align 4
  store %class.wayobj* %this, %class.wayobj** %this.addr, align 8
  store float %y, float* %y.addr, align 4
  %this1 = load %class.wayobj*, %class.wayobj** %this.addr, align 8
  %0 = load float, float* %y.addr, align 4
  %ycoef1 = getelementptr inbounds %class.wayobj, %class.wayobj* %this1, i32 0, i32 11
  %1 = load float, float* %ycoef1, align 4
  %mul = fmul float %0, %1
  %ycoef2 = getelementptr inbounds %class.wayobj, %class.wayobj* %this1, i32 0, i32 12
  %2 = load float, float* %ycoef2, align 8
  %add = fadd float %mul, %2
  %conv = fptosi float %add to i32
  ret i32 %conv
}

; Function Attrs: noinline uwtable
define zeroext i1 @_ZN6wayobj9createwayERK14createwayinfotR8wayinfot(%class.wayobj* %this, %struct.createwayinfot* dereferenceable(28) %createinfo, %struct.wayinfot* dereferenceable(24) %wayinfo) #0 align 2 {
entry:
  %this.addr = alloca %class.wayobj*, align 8
  %createinfo.addr = alloca %struct.createwayinfot*, align 8
  %wayinfo.addr = alloca %struct.wayinfot*, align 8
  store %class.wayobj* %this, %class.wayobj** %this.addr, align 8
  store %struct.createwayinfot* %createinfo, %struct.createwayinfot** %createinfo.addr, align 8
  store %struct.wayinfot* %wayinfo, %struct.wayinfot** %wayinfo.addr, align 8
  %this1 = load %class.wayobj*, %class.wayobj** %this.addr, align 8
  %0 = load %struct.createwayinfot*, %struct.createwayinfot** %createinfo.addr, align 8
  %startp = getelementptr inbounds %struct.createwayinfot, %struct.createwayinfot* %0, i32 0, i32 0
  %1 = load %struct.createwayinfot*, %struct.createwayinfot** %createinfo.addr, align 8
  %finishp = getelementptr inbounds %struct.createwayinfot, %struct.createwayinfot* %1, i32 0, i32 1
  %2 = load %struct.createwayinfot*, %struct.createwayinfot** %createinfo.addr, align 8
  %flcorrect = getelementptr inbounds %struct.createwayinfot, %struct.createwayinfot* %2, i32 0, i32 2
  %3 = load i8, i8* %flcorrect, align 4
  %tobool = trunc i8 %3 to i1
  %4 = load %struct.wayinfot*, %struct.wayinfot** %wayinfo.addr, align 8
  %call = call zeroext i1 @_ZN6wayobj9createwayERK8rvectortS2_bR8wayinfot(%class.wayobj* %this1, %class.rvectort* dereferenceable(12) %startp, %class.rvectort* dereferenceable(12) %finishp, i1 zeroext %tobool, %struct.wayinfot* dereferenceable(24) %4)
  ret i1 %call
}

; Function Attrs: noinline uwtable
define zeroext i1 @_ZN6wayobj9createwayEiiiiRP8point16tRi(%class.wayobj* %this, i32 %startx, i32 %starty, i32 %endx, i32 %endy, %struct.waymapcellt** dereferenceable(8) %wayar, i32* dereferenceable(4) %waylength) #0 align 2 {
entry:
  %retval = alloca i1, align 1
  %this.addr = alloca %class.wayobj*, align 8
  %startx.addr = alloca i32, align 4
  %starty.addr = alloca i32, align 4
  %endx.addr = alloca i32, align 4
  %endy.addr = alloca i32, align 4
  %wayar.addr = alloca %struct.waymapcellt**, align 8
  %waylength.addr = alloca i32*, align 8
  store %class.wayobj* %this, %class.wayobj** %this.addr, align 8
  store i32 %startx, i32* %startx.addr, align 4
  store i32 %starty, i32* %starty.addr, align 4
  store i32 %endx, i32* %endx.addr, align 4
  store i32 %endy, i32* %endy.addr, align 4
  store %struct.waymapcellt** %wayar, %struct.waymapcellt*** %wayar.addr, align 8
  store i32* %waylength, i32** %waylength.addr, align 8
  %this1 = load %class.wayobj*, %class.wayobj** %this.addr, align 8
  %0 = load i32, i32* %startx.addr, align 4
  %1 = load i32, i32* %starty.addr, align 4
  %call = call zeroext i1 @_ZN6wayobj5ismapEii(%class.wayobj* %this1, i32 %0, i32 %1)
  br i1 %call, label %lor.lhs.false, label %if.then

lor.lhs.false:                                    ; preds = %entry
  %2 = load i32, i32* %endx.addr, align 4
  %3 = load i32, i32* %endy.addr, align 4
  %call2 = call zeroext i1 @_ZN6wayobj5ismapEii(%class.wayobj* %this1, i32 %2, i32 %3)
  br i1 %call2, label %if.end, label %if.then

if.then:                                          ; preds = %lor.lhs.false, %entry
  %4 = load %struct.waymapcellt**, %struct.waymapcellt*** %wayar.addr, align 8
  store %struct.waymapcellt* null, %struct.waymapcellt** %4, align 8
  %5 = load i32*, i32** %waylength.addr, align 8
  store i32 0, i32* %5, align 4
  store i1 false, i1* %retval, align 1
  br label %return

if.end:                                           ; preds = %lor.lhs.false
  %6 = load i32, i32* %endx.addr, align 4
  %7 = load i32, i32* %endy.addr, align 4
  %call3 = call dereferenceable(2) i16* @_ZN6wayobj3mapEii(%class.wayobj* %this1, i32 %6, i32 %7)
  %8 = load i16, i16* %call3, align 2
  %conv = sext i16 %8 to i32
  %cmp = icmp ne i32 %conv, 0
  br i1 %cmp, label %if.then4, label %if.end5

if.then4:                                         ; preds = %if.end
  %9 = load %struct.waymapcellt**, %struct.waymapcellt*** %wayar.addr, align 8
  store %struct.waymapcellt* null, %struct.waymapcellt** %9, align 8
  %10 = load i32*, i32** %waylength.addr, align 8
  store i32 0, i32* %10, align 4
  store i1 false, i1* %retval, align 1
  br label %return

if.end5:                                          ; preds = %if.end
  %11 = load i32, i32* %startx.addr, align 4
  %12 = load i32, i32* %endx.addr, align 4
  %cmp6 = icmp eq i32 %11, %12
  br i1 %cmp6, label %land.lhs.true, label %if.end10

land.lhs.true:                                    ; preds = %if.end5
  %13 = load i32, i32* %starty.addr, align 4
  %14 = load i32, i32* %endy.addr, align 4
  %cmp7 = icmp eq i32 %13, %14
  br i1 %cmp7, label %if.then8, label %if.end10

if.then8:                                         ; preds = %land.lhs.true
  %call9 = call noalias i8* @malloc(i64 4) #10
  %15 = bitcast i8* %call9 to %struct.waymapcellt*
  %16 = load %struct.waymapcellt**, %struct.waymapcellt*** %wayar.addr, align 8
  store %struct.waymapcellt* %15, %struct.waymapcellt** %16, align 8
  %17 = load i32*, i32** %waylength.addr, align 8
  store i32 1, i32* %17, align 4
  store i1 true, i1* %retval, align 1
  br label %return

if.end10:                                         ; preds = %land.lhs.true, %if.end5
  %18 = load i32, i32* %startx.addr, align 4
  %19 = load i32, i32* %starty.addr, align 4
  %20 = load i32, i32* %endx.addr, align 4
  %21 = load i32, i32* %endy.addr, align 4
  %call11 = call zeroext i1 @_ZN6wayobj4fillEiiii(%class.wayobj* %this1, i32 %18, i32 %19, i32 %20, i32 %21)
  br i1 %call11, label %if.end13, label %if.then12

if.then12:                                        ; preds = %if.end10
  %22 = load %struct.waymapcellt**, %struct.waymapcellt*** %wayar.addr, align 8
  store %struct.waymapcellt* null, %struct.waymapcellt** %22, align 8
  %23 = load i32*, i32** %waylength.addr, align 8
  store i32 0, i32* %23, align 4
  store i1 false, i1* %retval, align 1
  br label %return

if.end13:                                         ; preds = %if.end10
  %24 = load i32, i32* %startx.addr, align 4
  %25 = load i32, i32* %starty.addr, align 4
  %call14 = call i32 @_ZN6wayobj5indexEii(%class.wayobj* %this1, i32 %24, i32 %25)
  %endindex = getelementptr inbounds %class.wayobj, %class.wayobj* %this1, i32 0, i32 25
  %26 = load i32, i32* %endindex, align 4
  %27 = load %struct.waymapcellt**, %struct.waymapcellt*** %wayar.addr, align 8
  %28 = load i32*, i32** %waylength.addr, align 8
  %call15 = call zeroext i1 @_ZN6wayobj11createwayarEiiRP8point16tRi(%class.wayobj* %this1, i32 %call14, i32 %26, %struct.waymapcellt** dereferenceable(8) %27, i32* dereferenceable(4) %28)
  br i1 %call15, label %if.end17, label %if.then16

if.then16:                                        ; preds = %if.end13
  %29 = load %struct.waymapcellt**, %struct.waymapcellt*** %wayar.addr, align 8
  store %struct.waymapcellt* null, %struct.waymapcellt** %29, align 8
  %30 = load i32*, i32** %waylength.addr, align 8
  store i32 0, i32* %30, align 4
  store i1 false, i1* %retval, align 1
  br label %return

if.end17:                                         ; preds = %if.end13
  store i1 true, i1* %retval, align 1
  br label %return

return:                                           ; preds = %if.end17, %if.then16, %if.then12, %if.then8, %if.then4, %if.then
  %31 = load i1, i1* %retval, align 1
  ret i1 %31
}

; Function Attrs: noinline uwtable
define internal void @_GLOBAL__sub_I_Library.cpp() #0 section ".text.startup" {
entry:
  call void @__cxx_global_var_init.4()
  call void @__cxx_global_var_init.1.5()
  ret void
}

; Function Attrs: noinline uwtable
define internal void @__cxx_global_var_init.4() #0 section ".text.startup" {
entry:
  call void @_ZN6wayobjC2Ev(%class.wayobj* @way)
  ret void
}

; Function Attrs: noinline uwtable
define internal void @__cxx_global_var_init.1.5() #0 section ".text.startup" {
entry:
  call void @_ZN9regwayobjC2Ev(%class.regwayobj* @regway) #10
  ret void
}

; Function Attrs: noinline nounwind uwtable
define linkonce_odr void @_ZN9regwayobjC2Ev(%class.regwayobj* %this) unnamed_addr #2 comdat align 2 {
entry:
  %this.addr = alloca %class.regwayobj*, align 8
  store %class.regwayobj* %this, %class.regwayobj** %this.addr, align 8
  %this1 = load %class.regwayobj*, %class.regwayobj** %this.addr, align 8
  %0 = bitcast %class.regwayobj* %this1 to i32 (...)***
  store i32 (...)** bitcast (i8** getelementptr inbounds ({ [5 x i8*] }, { [5 x i8*] }* @_ZTV9regwayobj, i32 0, inrange i32 0, i32 2) to i32 (...)**), i32 (...)*** %0, align 8
  %bound1arp = getelementptr inbounds %class.regwayobj, %class.regwayobj* %this1, i32 0, i32 1
  %bound2arp = getelementptr inbounds %class.regwayobj, %class.regwayobj* %this1, i32 0, i32 2
  ret void
}

; Function Attrs: noinline uwtable
define linkonce_odr void @_ZN6wayobjC2Ev(%class.wayobj* %this) unnamed_addr #0 comdat align 2 {
entry:
  %this.addr = alloca %class.wayobj*, align 8
  store %class.wayobj* %this, %class.wayobj** %this.addr, align 8
  %this1 = load %class.wayobj*, %class.wayobj** %this.addr, align 8
  %info = getelementptr inbounds %class.wayobj, %class.wayobj* %this1, i32 0, i32 14
  %createwayinfo = getelementptr inbounds %class.wayobj, %class.wayobj* %this1, i32 0, i32 15
  call void @_ZN14createwayinfotC2Ev(%struct.createwayinfot* %createwayinfo)
  ret void
}

; Function Attrs: noinline uwtable
define linkonce_odr void @_ZN14createwayinfotC2Ev(%struct.createwayinfot* %this) unnamed_addr #0 comdat align 2 {
entry:
  %this.addr = alloca %struct.createwayinfot*, align 8
  store %struct.createwayinfot* %this, %struct.createwayinfot** %this.addr, align 8
  %this1 = load %struct.createwayinfot*, %struct.createwayinfot** %this.addr, align 8
  %startp = getelementptr inbounds %struct.createwayinfot, %struct.createwayinfot* %this1, i32 0, i32 0
  call void @_ZN8rvectortC2Ev(%class.rvectort* %startp)
  %finishp = getelementptr inbounds %struct.createwayinfot, %struct.createwayinfot* %this1, i32 0, i32 1
  call void @_ZN8rvectortC2Ev(%class.rvectort* %finishp)
  ret void
}

; Function Attrs: noinline uwtable
define void @_ZN9statinfot5printEv(%struct.statinfot* %this) #0 align 2 {
entry:
  %this.addr = alloca %struct.statinfot*, align 8
  store %struct.statinfot* %this, %struct.statinfot** %this.addr, align 8
  %this1 = load %struct.statinfot*, %struct.statinfot** %this.addr, align 8
  %createregtime = getelementptr inbounds %struct.statinfot, %struct.statinfot* %this1, i32 0, i32 0
  %0 = load double, double* %createregtime, align 8
  %call = call i32 (i8*, ...) @printf(i8* getelementptr inbounds ([33 x i8], [33 x i8]* @.str, i32 0, i32 0), double %0)
  %call2 = call i32 (i8*, ...) @printf(i8* getelementptr inbounds ([2 x i8], [2 x i8]* @.str.2, i32 0, i32 0))
  %createwaytime = getelementptr inbounds %struct.statinfot, %struct.statinfot* %this1, i32 0, i32 1
  %1 = load double, double* %createwaytime, align 8
  %call3 = call i32 (i8*, ...) @printf(i8* getelementptr inbounds ([25 x i8], [25 x i8]* @.str.3, i32 0, i32 0), double %1)
  %wayqu = getelementptr inbounds %struct.statinfot, %struct.statinfot* %this1, i32 0, i32 8
  %2 = load i64, i64* %wayqu, align 8
  %call4 = call i32 (i8*, ...) @printf(i8* getelementptr inbounds ([21 x i8], [21 x i8]* @.str.4, i32 0, i32 0), i64 %2)
  %waylength = getelementptr inbounds %struct.statinfot, %struct.statinfot* %this1, i32 0, i32 5
  %3 = load i64, i64* %waylength, align 8
  %call5 = call i32 (i8*, ...) @printf(i8* getelementptr inbounds ([24 x i8], [24 x i8]* @.str.5, i32 0, i32 0), i64 %3)
  %call6 = call i32 (i8*, ...) @printf(i8* getelementptr inbounds ([2 x i8], [2 x i8]* @.str.2, i32 0, i32 0))
  %createregwaytime = getelementptr inbounds %struct.statinfot, %struct.statinfot* %this1, i32 0, i32 4
  %4 = load double, double* %createregwaytime, align 8
  %call7 = call i32 (i8*, ...) @printf(i8* getelementptr inbounds ([29 x i8], [29 x i8]* @.str.6, i32 0, i32 0), double %4)
  %regwayqu = getelementptr inbounds %struct.statinfot, %struct.statinfot* %this1, i32 0, i32 12
  %5 = load i64, i64* %regwayqu, align 8
  %call8 = call i32 (i8*, ...) @printf(i8* getelementptr inbounds ([25 x i8], [25 x i8]* @.str.7, i32 0, i32 0), i64 %5)
  %regwaylength = getelementptr inbounds %struct.statinfot, %struct.statinfot* %this1, i32 0, i32 11
  %6 = load i64, i64* %regwaylength, align 8
  %call9 = call i32 (i8*, ...) @printf(i8* getelementptr inbounds ([28 x i8], [28 x i8]* @.str.8, i32 0, i32 0), i64 %6)
  %call10 = call i32 (i8*, ...) @printf(i8* getelementptr inbounds ([2 x i8], [2 x i8]* @.str.2, i32 0, i32 0))
  %createriverwaytime = getelementptr inbounds %struct.statinfot, %struct.statinfot* %this1, i32 0, i32 2
  %7 = load double, double* %createriverwaytime, align 8
  %call11 = call i32 (i8*, ...) @printf(i8* getelementptr inbounds ([31 x i8], [31 x i8]* @.str.9, i32 0, i32 0), double %7)
  %riverwayqu = getelementptr inbounds %struct.statinfot, %struct.statinfot* %this1, i32 0, i32 9
  %8 = load i64, i64* %riverwayqu, align 8
  %call12 = call i32 (i8*, ...) @printf(i8* getelementptr inbounds ([27 x i8], [27 x i8]* @.str.10, i32 0, i32 0), i64 %8)
  %riverwaylength = getelementptr inbounds %struct.statinfot, %struct.statinfot* %this1, i32 0, i32 6
  %9 = load i64, i64* %riverwaylength, align 8
  %call13 = call i32 (i8*, ...) @printf(i8* getelementptr inbounds ([30 x i8], [30 x i8]* @.str.11, i32 0, i32 0), i64 %9)
  %createlandwaytime = getelementptr inbounds %struct.statinfot, %struct.statinfot* %this1, i32 0, i32 3
  %10 = load double, double* %createlandwaytime, align 8
  %call14 = call i32 (i8*, ...) @printf(i8* getelementptr inbounds ([30 x i8], [30 x i8]* @.str.12, i32 0, i32 0), double %10)
  %landwayqu = getelementptr inbounds %struct.statinfot, %struct.statinfot* %this1, i32 0, i32 10
  %11 = load i64, i64* %landwayqu, align 8
  %call15 = call i32 (i8*, ...) @printf(i8* getelementptr inbounds ([26 x i8], [26 x i8]* @.str.13, i32 0, i32 0), i64 %11)
  %landwaylength = getelementptr inbounds %struct.statinfot, %struct.statinfot* %this1, i32 0, i32 7
  %12 = load i64, i64* %landwaylength, align 8
  %call16 = call i32 (i8*, ...) @printf(i8* getelementptr inbounds ([29 x i8], [29 x i8]* @.str.14, i32 0, i32 0), i64 %12)
  ret void
}

declare i32 @printf(i8*, ...) #7

; Function Attrs: noinline uwtable
define void @_Z15createrandommapiif(i32 %mapsizex, i32 %mapsizey, float %density) #0 {
entry:
  %mapsizex.addr = alloca i32, align 4
  %mapsizey.addr = alloca i32, align 4
  %density.addr = alloca float, align 4
  %mapp = alloca i8*, align 8
  %x = alloca i32, align 4
  %y = alloca i32, align 4
  store i32 %mapsizex, i32* %mapsizex.addr, align 4
  store i32 %mapsizey, i32* %mapsizey.addr, align 4
  store float %density, float* %density.addr, align 4
  %0 = load i32, i32* %mapsizex.addr, align 4
  %1 = load i32, i32* %mapsizey.addr, align 4
  %call = call zeroext i1 @_ZN6wayobj7initmapEii(%class.wayobj* @way, i32 %0, i32 %1)
  %2 = load i32, i32* %mapsizex.addr, align 4
  %3 = load i32, i32* %mapsizey.addr, align 4
  %call1 = call zeroext i1 @_ZN9regmngobj7initmapEii(%class.regmngobj* @regmng, i32 %2, i32 %3)
  %4 = load i8*, i8** getelementptr inbounds (%class.regmngobj, %class.regmngobj* @regmng, i32 0, i32 7), align 8
  store i8* %4, i8** %mapp, align 8
  store i32 0, i32* %y, align 4
  br label %for.cond

for.cond:                                         ; preds = %for.inc11, %entry
  %5 = load i32, i32* %y, align 4
  %6 = load i32, i32* %mapsizey.addr, align 4
  %cmp = icmp slt i32 %5, %6
  br i1 %cmp, label %for.body, label %for.end13

for.body:                                         ; preds = %for.cond
  store i32 0, i32* %x, align 4
  br label %for.cond2

for.cond2:                                        ; preds = %for.inc, %for.body
  %7 = load i32, i32* %x, align 4
  %8 = load i32, i32* %mapsizex.addr, align 4
  %cmp3 = icmp slt i32 %7, %8
  br i1 %cmp3, label %for.body4, label %for.end

for.body4:                                        ; preds = %for.cond2
  %9 = load float, float* %density.addr, align 4
  %call5 = call float @_Z8myrandomff(float 0.000000e+00, float %9)
  %cmp6 = fcmp ole float %call5, 1.000000e+00
  br i1 %cmp6, label %if.then, label %if.else

if.then:                                          ; preds = %for.body4
  %10 = load i8*, i8** %mapp, align 8
  %11 = load i32, i32* %x, align 4
  %12 = load i32, i32* %y, align 4
  %13 = load i32, i32* %mapsizex.addr, align 4
  %mul = mul nsw i32 %12, %13
  %add = add nsw i32 %11, %mul
  %idxprom = sext i32 %add to i64
  %arrayidx = getelementptr inbounds i8, i8* %10, i64 %idxprom
  store i8 0, i8* %arrayidx, align 1
  br label %if.end

if.else:                                          ; preds = %for.body4
  %14 = load i8*, i8** %mapp, align 8
  %15 = load i32, i32* %x, align 4
  %16 = load i32, i32* %y, align 4
  %17 = load i32, i32* %mapsizex.addr, align 4
  %mul7 = mul nsw i32 %16, %17
  %add8 = add nsw i32 %15, %mul7
  %idxprom9 = sext i32 %add8 to i64
  %arrayidx10 = getelementptr inbounds i8, i8* %14, i64 %idxprom9
  store i8 1, i8* %arrayidx10, align 1
  %18 = load i32, i32* %x, align 4
  %19 = load i32, i32* %y, align 4
  call void @_ZN6wayobj8addpointEii(%class.wayobj* @way, i32 %18, i32 %19)
  br label %if.end

if.end:                                           ; preds = %if.else, %if.then
  br label %for.inc

for.inc:                                          ; preds = %if.end
  %20 = load i32, i32* %x, align 4
  %inc = add nsw i32 %20, 1
  store i32 %inc, i32* %x, align 4
  br label %for.cond2

for.end:                                          ; preds = %for.cond2
  br label %for.inc11

for.inc11:                                        ; preds = %for.end
  %21 = load i32, i32* %y, align 4
  %inc12 = add nsw i32 %21, 1
  store i32 %inc12, i32* %y, align 4
  br label %for.cond

for.end13:                                        ; preds = %for.cond
  ret void
}

; Function Attrs: noinline norecurse uwtable
define i32 @main(i32 %argc, i8** %argv) #8 {
entry:
  %retval = alloca i32, align 4
  %argc.addr = alloca i32, align 4
  %argv.addr = alloca i8**, align 8
  %info = alloca %struct.workinfot, align 4
  %stat = alloca %struct.statinfot, align 8
  %f = alloca %struct._IO_FILE*, align 8
  %t1 = alloca i64, align 8
  %t2 = alloca i64, align 8
  %i = alloca i32, align 4
  %startx = alloca i32, align 4
  %starty = alloca i32, align 4
  %endx = alloca i32, align 4
  %endy = alloca i32, align 4
  %wayar = alloca %struct.waymapcellt*, align 8
  %waylength = alloca i32, align 4
  %flcreate = alloca i8, align 1
  %reg1num = alloca i32, align 4
  %reg2num = alloca i32, align 4
  %reg1p = alloca %class.regobj*, align 8
  %reg2p = alloca %class.regobj*, align 8
  %wayar59 = alloca %class.regobj**, align 8
  %waylength60 = alloca i32, align 4
  %flcreate61 = alloca i8, align 1
  %startx97 = alloca i32, align 4
  %starty98 = alloca i32, align 4
  %endx99 = alloca i32, align 4
  %endy100 = alloca i32, align 4
  %wayar101 = alloca %struct.pointt*, align 8
  %waylength102 = alloca i32, align 4
  %flcreate103 = alloca i8, align 1
  %movetimear = alloca [256 x i8], align 16
  %j = alloca i32, align 4
  %startx155 = alloca i32, align 4
  %starty156 = alloca i32, align 4
  %endx157 = alloca i32, align 4
  %endy158 = alloca i32, align 4
  %wayar159 = alloca %struct.pointt*, align 8
  %waylength160 = alloca i32, align 4
  %flcreate161 = alloca i8, align 1
  %movetimear162 = alloca [256 x i8], align 16
  %j163 = alloca i32, align 4
  %startx224 = alloca i32, align 4
  %starty225 = alloca i32, align 4
  %endx226 = alloca i32, align 4
  %endy227 = alloca i32, align 4
  %wayar228 = alloca %struct.waymapcellt*, align 8
  %waylength229 = alloca i32, align 4
  %flcreate230 = alloca i8, align 1
  %reg1num262 = alloca i32, align 4
  %reg2num263 = alloca i32, align 4
  %reg1p264 = alloca %class.regobj*, align 8
  %reg2p265 = alloca %class.regobj*, align 8
  %wayar266 = alloca %class.regobj**, align 8
  %waylength267 = alloca i32, align 4
  %flcreate268 = alloca i8, align 1
  store i32 0, i32* %retval, align 4
  store i32 %argc, i32* %argc.addr, align 4
  store i8** %argv, i8*** %argv.addr, align 8
  store i64 0, i64* %t2, align 8
  store i64 0, i64* %t1, align 8
  %call = call i32 (i8*, ...) @printf(i8* getelementptr inbounds ([28 x i8], [28 x i8]* @.str.15, i32 0, i32 0))
  %call1 = call i32 (i8*, ...) @printf(i8* getelementptr inbounds ([25 x i8], [25 x i8]* @.str.16, i32 0, i32 0))
  %0 = load i32, i32* %argc.addr, align 4
  %cmp = icmp ne i32 %0, 2
  br i1 %cmp, label %if.then, label %if.end

if.then:                                          ; preds = %entry
  %call2 = call i32 (i8*, ...) @printf(i8* getelementptr inbounds ([37 x i8], [37 x i8]* @.str.17, i32 0, i32 0))
  store i32 1, i32* %retval, align 4
  br label %return

if.end:                                           ; preds = %entry
  %1 = load i8**, i8*** %argv.addr, align 8
  %arrayidx = getelementptr inbounds i8*, i8** %1, i64 1
  %2 = load i8*, i8** %arrayidx, align 8
  %call3 = call %struct._IO_FILE* @fopen(i8* %2, i8* getelementptr inbounds ([2 x i8], [2 x i8]* @.str.18, i32 0, i32 0))
  store %struct._IO_FILE* %call3, %struct._IO_FILE** %f, align 8
  %3 = load %struct._IO_FILE*, %struct._IO_FILE** %f, align 8
  %tobool = icmp ne %struct._IO_FILE* %3, null
  br i1 %tobool, label %if.end6, label %if.then4

if.then4:                                         ; preds = %if.end
  %call5 = call i32 (i8*, ...) @printf(i8* getelementptr inbounds ([32 x i8], [32 x i8]* @.str.19, i32 0, i32 0))
  store i32 1, i32* %retval, align 4
  br label %return

if.end6:                                          ; preds = %if.end
  %4 = load %struct._IO_FILE*, %struct._IO_FILE** %f, align 8
  %mapfilename = getelementptr inbounds %struct.workinfot, %struct.workinfot* %info, i32 0, i32 0
  %arraydecay = getelementptr inbounds [4096 x i8], [4096 x i8]* %mapfilename, i32 0, i32 0
  %call7 = call i32 (%struct._IO_FILE*, i8*, ...) @fscanf(%struct._IO_FILE* %4, i8* getelementptr inbounds ([3 x i8], [3 x i8]* @.str.20, i32 0, i32 0), i8* %arraydecay)
  %5 = load %struct._IO_FILE*, %struct._IO_FILE** %f, align 8
  %regionsize = getelementptr inbounds %struct.workinfot, %struct.workinfot* %info, i32 0, i32 1
  %call8 = call i32 (%struct._IO_FILE*, i8*, ...) @fscanf(%struct._IO_FILE* %5, i8* getelementptr inbounds ([3 x i8], [3 x i8]* @.str.21, i32 0, i32 0), i32* %regionsize)
  %6 = load %struct._IO_FILE*, %struct._IO_FILE** %f, align 8
  %wayqu = getelementptr inbounds %struct.workinfot, %struct.workinfot* %info, i32 0, i32 2
  %call9 = call i32 (%struct._IO_FILE*, i8*, ...) @fscanf(%struct._IO_FILE* %6, i8* getelementptr inbounds ([3 x i8], [3 x i8]* @.str.21, i32 0, i32 0), i32* %wayqu)
  %7 = load %struct._IO_FILE*, %struct._IO_FILE** %f, align 8
  %riverwayqu = getelementptr inbounds %struct.workinfot, %struct.workinfot* %info, i32 0, i32 3
  %call10 = call i32 (%struct._IO_FILE*, i8*, ...) @fscanf(%struct._IO_FILE* %7, i8* getelementptr inbounds ([3 x i8], [3 x i8]* @.str.21, i32 0, i32 0), i32* %riverwayqu)
  %8 = load %struct._IO_FILE*, %struct._IO_FILE** %f, align 8
  %landwayqu = getelementptr inbounds %struct.workinfot, %struct.workinfot* %info, i32 0, i32 4
  %call11 = call i32 (%struct._IO_FILE*, i8*, ...) @fscanf(%struct._IO_FILE* %8, i8* getelementptr inbounds ([3 x i8], [3 x i8]* @.str.21, i32 0, i32 0), i32* %landwayqu)
  %9 = load %struct._IO_FILE*, %struct._IO_FILE** %f, align 8
  %regwayqu = getelementptr inbounds %struct.workinfot, %struct.workinfot* %info, i32 0, i32 5
  %call12 = call i32 (%struct._IO_FILE*, i8*, ...) @fscanf(%struct._IO_FILE* %9, i8* getelementptr inbounds ([3 x i8], [3 x i8]* @.str.21, i32 0, i32 0), i32* %regwayqu)
  %10 = load %struct._IO_FILE*, %struct._IO_FILE** %f, align 8
  %randommaplx = getelementptr inbounds %struct.workinfot, %struct.workinfot* %info, i32 0, i32 6
  %call13 = call i32 (%struct._IO_FILE*, i8*, ...) @fscanf(%struct._IO_FILE* %10, i8* getelementptr inbounds ([3 x i8], [3 x i8]* @.str.21, i32 0, i32 0), i32* %randommaplx)
  %11 = load %struct._IO_FILE*, %struct._IO_FILE** %f, align 8
  %randommaply = getelementptr inbounds %struct.workinfot, %struct.workinfot* %info, i32 0, i32 7
  %call14 = call i32 (%struct._IO_FILE*, i8*, ...) @fscanf(%struct._IO_FILE* %11, i8* getelementptr inbounds ([3 x i8], [3 x i8]* @.str.21, i32 0, i32 0), i32* %randommaply)
  %12 = load %struct._IO_FILE*, %struct._IO_FILE** %f, align 8
  %randommapdensity = getelementptr inbounds %struct.workinfot, %struct.workinfot* %info, i32 0, i32 8
  %call15 = call i32 (%struct._IO_FILE*, i8*, ...) @fscanf(%struct._IO_FILE* %12, i8* getelementptr inbounds ([3 x i8], [3 x i8]* @.str.22, i32 0, i32 0), float* %randommapdensity)
  %13 = load %struct._IO_FILE*, %struct._IO_FILE** %f, align 8
  %randommapregionsize = getelementptr inbounds %struct.workinfot, %struct.workinfot* %info, i32 0, i32 9
  %call16 = call i32 (%struct._IO_FILE*, i8*, ...) @fscanf(%struct._IO_FILE* %13, i8* getelementptr inbounds ([3 x i8], [3 x i8]* @.str.21, i32 0, i32 0), i32* %randommapregionsize)
  %14 = load %struct._IO_FILE*, %struct._IO_FILE** %f, align 8
  %randommapwayqu = getelementptr inbounds %struct.workinfot, %struct.workinfot* %info, i32 0, i32 10
  %call17 = call i32 (%struct._IO_FILE*, i8*, ...) @fscanf(%struct._IO_FILE* %14, i8* getelementptr inbounds ([3 x i8], [3 x i8]* @.str.21, i32 0, i32 0), i32* %randommapwayqu)
  %15 = load %struct._IO_FILE*, %struct._IO_FILE** %f, align 8
  %randommapregwayqu = getelementptr inbounds %struct.workinfot, %struct.workinfot* %info, i32 0, i32 11
  %call18 = call i32 (%struct._IO_FILE*, i8*, ...) @fscanf(%struct._IO_FILE* %15, i8* getelementptr inbounds ([3 x i8], [3 x i8]* @.str.21, i32 0, i32 0), i32* %randommapregwayqu)
  %16 = load %struct._IO_FILE*, %struct._IO_FILE** %f, align 8
  %call19 = call i32 @fclose(%struct._IO_FILE* %16)
  %call20 = call i32 (i8*, ...) @printf(i8* getelementptr inbounds ([13 x i8], [13 x i8]* @.str.23, i32 0, i32 0))
  %mapfilename21 = getelementptr inbounds %struct.workinfot, %struct.workinfot* %info, i32 0, i32 0
  %arraydecay22 = getelementptr inbounds [4096 x i8], [4096 x i8]* %mapfilename21, i32 0, i32 0
  %call23 = call i32 (i8*, ...) @printf(i8* getelementptr inbounds ([4 x i8], [4 x i8]* @.str.24, i32 0, i32 0), i8* %arraydecay22)
  call void @_ZN6wayobj6createEv(%class.wayobj* @way)
  call void @_ZN9regmngobj6createEv(%class.regmngobj* @regmng)
  call void @_ZN9regwayobj6createEP9regmngobj(%class.regwayobj* @regway, %class.regmngobj* @regmng)
  %mapfilename24 = getelementptr inbounds %struct.workinfot, %struct.workinfot* %info, i32 0, i32 0
  %arraydecay25 = getelementptr inbounds [4096 x i8], [4096 x i8]* %mapfilename24, i32 0, i32 0
  %call26 = call zeroext i1 @_ZN6wayobj7loadmapEPKc(%class.wayobj* @way, i8* %arraydecay25)
  %mapfilename27 = getelementptr inbounds %struct.workinfot, %struct.workinfot* %info, i32 0, i32 0
  %arraydecay28 = getelementptr inbounds [4096 x i8], [4096 x i8]* %mapfilename27, i32 0, i32 0
  %call29 = call zeroext i1 @_ZN9regmngobj7loadmapEPKc(%class.regmngobj* @regmng, i8* %arraydecay28)
  call void @_ZN9statinfot4initEv(%struct.statinfot* %stat)
  %regionsize30 = getelementptr inbounds %struct.workinfot, %struct.workinfot* %info, i32 0, i32 1
  %17 = load i32, i32* %regionsize30, align 4
  call void @_ZN9regmngobj13createregionsEi(%class.regmngobj* @regmng, i32 %17)
  %createregtime = getelementptr inbounds %struct.statinfot, %struct.statinfot* %stat, i32 0, i32 0
  store double 0.000000e+00, double* %createregtime, align 8
  %call31 = call i64 @time(i64* null) #10
  store i64 %call31, i64* %t1, align 8
  store i32 0, i32* %i, align 4
  br label %for.cond

for.cond:                                         ; preds = %for.inc, %if.end6
  %18 = load i32, i32* %i, align 4
  %wayqu32 = getelementptr inbounds %struct.workinfot, %struct.workinfot* %info, i32 0, i32 2
  %19 = load i32, i32* %wayqu32, align 4
  %cmp33 = icmp slt i32 %18, %19
  br i1 %cmp33, label %for.body, label %for.end

for.body:                                         ; preds = %for.cond
  store i8 0, i8* %flcreate, align 1
  store i32 0, i32* %waylength, align 4
  store %struct.waymapcellt* null, %struct.waymapcellt** %wayar, align 8
  %20 = load i32, i32* getelementptr inbounds (%class.regmngobj, %class.regmngobj* @regmng, i32 0, i32 12), align 4
  %call34 = call i32 @_Z8myrandomii(i32 1, i32 %20)
  store i32 %call34, i32* %startx, align 4
  %21 = load i32, i32* getelementptr inbounds (%class.regmngobj, %class.regmngobj* @regmng, i32 0, i32 13), align 8
  %call35 = call i32 @_Z8myrandomii(i32 1, i32 %21)
  store i32 %call35, i32* %starty, align 4
  %22 = load i32, i32* %startx, align 4
  %23 = load i32, i32* %starty, align 4
  %call36 = call zeroext i1 @_ZN6wayobj13findfreepointEiiRiS0_(%class.wayobj* @way, i32 %22, i32 %23, i32* dereferenceable(4) %startx, i32* dereferenceable(4) %starty)
  br i1 %call36, label %if.then37, label %if.end47

if.then37:                                        ; preds = %for.body
  %24 = load i32, i32* getelementptr inbounds (%class.regmngobj, %class.regmngobj* @regmng, i32 0, i32 12), align 4
  %call38 = call i32 @_Z8myrandomii(i32 1, i32 %24)
  store i32 %call38, i32* %endx, align 4
  %25 = load i32, i32* getelementptr inbounds (%class.regmngobj, %class.regmngobj* @regmng, i32 0, i32 13), align 8
  %call39 = call i32 @_Z8myrandomii(i32 1, i32 %25)
  store i32 %call39, i32* %endy, align 4
  %26 = load i32, i32* %endx, align 4
  %27 = load i32, i32* %endy, align 4
  %call40 = call zeroext i1 @_ZN6wayobj13findfreepointEiiRiS0_(%class.wayobj* @way, i32 %26, i32 %27, i32* dereferenceable(4) %endx, i32* dereferenceable(4) %endy)
  br i1 %call40, label %if.then41, label %if.end43

if.then41:                                        ; preds = %if.then37
  %28 = load i32, i32* %startx, align 4
  %29 = load i32, i32* %starty, align 4
  %30 = load i32, i32* %endx, align 4
  %31 = load i32, i32* %endy, align 4
  %call42 = call zeroext i1 @_ZN6wayobj9createwayEiiiiRP8point16tRi(%class.wayobj* @way, i32 %28, i32 %29, i32 %30, i32 %31, %struct.waymapcellt** dereferenceable(8) %wayar, i32* dereferenceable(4) %waylength)
  %frombool = zext i1 %call42 to i8
  store i8 %frombool, i8* %flcreate, align 1
  br label %if.end43

if.end43:                                         ; preds = %if.then41, %if.then37
  %32 = load %struct.waymapcellt*, %struct.waymapcellt** %wayar, align 8
  %tobool44 = icmp ne %struct.waymapcellt* %32, null
  br i1 %tobool44, label %if.then45, label %if.end46

if.then45:                                        ; preds = %if.end43
  %33 = load %struct.waymapcellt*, %struct.waymapcellt** %wayar, align 8
  %34 = bitcast %struct.waymapcellt* %33 to i8*
  call void @free(i8* %34) #10
  br label %if.end46

if.end46:                                         ; preds = %if.then45, %if.end43
  br label %if.end47

if.end47:                                         ; preds = %if.end46, %for.body
  %35 = load i8, i8* %flcreate, align 1
  %tobool48 = trunc i8 %35 to i1
  br i1 %tobool48, label %if.then49, label %if.end52

if.then49:                                        ; preds = %if.end47
  %36 = load i32, i32* %waylength, align 4
  %conv = sext i32 %36 to i64
  %waylength50 = getelementptr inbounds %struct.statinfot, %struct.statinfot* %stat, i32 0, i32 5
  %37 = load i64, i64* %waylength50, align 8
  %add = add nsw i64 %37, %conv
  store i64 %add, i64* %waylength50, align 8
  %wayqu51 = getelementptr inbounds %struct.statinfot, %struct.statinfot* %stat, i32 0, i32 8
  %38 = load i64, i64* %wayqu51, align 8
  %inc = add nsw i64 %38, 1
  store i64 %inc, i64* %wayqu51, align 8
  br label %if.end52

if.end52:                                         ; preds = %if.then49, %if.end47
  br label %for.inc

for.inc:                                          ; preds = %if.end52
  %39 = load i32, i32* %i, align 4
  %inc53 = add nsw i32 %39, 1
  store i32 %inc53, i32* %i, align 4
  br label %for.cond

for.end:                                          ; preds = %for.cond
  %createwaytime = getelementptr inbounds %struct.statinfot, %struct.statinfot* %stat, i32 0, i32 1
  store double 0.000000e+00, double* %createwaytime, align 8
  %call54 = call i64 @time(i64* null) #10
  store i64 %call54, i64* %t1, align 8
  store i32 0, i32* %i, align 4
  br label %for.cond55

for.cond55:                                       ; preds = %for.inc87, %for.end
  %40 = load i32, i32* %i, align 4
  %regwayqu56 = getelementptr inbounds %struct.workinfot, %struct.workinfot* %info, i32 0, i32 5
  %41 = load i32, i32* %regwayqu56, align 4
  %cmp57 = icmp slt i32 %40, %41
  br i1 %cmp57, label %for.body58, label %for.end89

for.body58:                                       ; preds = %for.cond55
  %42 = load i32, i32* getelementptr inbounds (%class.regmngobj, %class.regmngobj* @regmng, i32 0, i32 18, i32 4), align 8
  %sub = sub nsw i32 %42, 1
  %call62 = call i32 @_Z7random1i(i32 %sub)
  store i32 %call62, i32* %reg1num, align 4
  %43 = load i32, i32* getelementptr inbounds (%class.regmngobj, %class.regmngobj* @regmng, i32 0, i32 18, i32 4), align 8
  %sub63 = sub nsw i32 %43, 1
  %call64 = call i32 @_Z7random1i(i32 %sub63)
  store i32 %call64, i32* %reg2num, align 4
  %44 = load i32, i32* %reg1num, align 4
  %call65 = call dereferenceable(8) %class.regobj** @_ZN15largesolidarrayIP6regobjEixEi(%class.largesolidarray* getelementptr inbounds (%class.regmngobj, %class.regmngobj* @regmng, i32 0, i32 18), i32 %44)
  %45 = load %class.regobj*, %class.regobj** %call65, align 8
  store %class.regobj* %45, %class.regobj** %reg1p, align 8
  %46 = load %class.regobj*, %class.regobj** %reg1p, align 8
  %nb1ar = getelementptr inbounds %class.regobj, %class.regobj* %46, i32 0, i32 9
  %elemqu = getelementptr inbounds %class.flexarray.2, %class.flexarray.2* %nb1ar, i32 0, i32 1
  %47 = load i32, i32* %elemqu, align 8
  %cmp66 = icmp eq i32 %47, 0
  br i1 %cmp66, label %if.then67, label %if.end68

if.then67:                                        ; preds = %for.body58
  br label %for.inc87

if.end68:                                         ; preds = %for.body58
  %48 = load i32, i32* %reg2num, align 4
  %call69 = call dereferenceable(8) %class.regobj** @_ZN15largesolidarrayIP6regobjEixEi(%class.largesolidarray* getelementptr inbounds (%class.regmngobj, %class.regmngobj* @regmng, i32 0, i32 18), i32 %48)
  %49 = load %class.regobj*, %class.regobj** %call69, align 8
  store %class.regobj* %49, %class.regobj** %reg2p, align 8
  %50 = load %class.regobj*, %class.regobj** %reg2p, align 8
  %nb1ar70 = getelementptr inbounds %class.regobj, %class.regobj* %50, i32 0, i32 9
  %elemqu71 = getelementptr inbounds %class.flexarray.2, %class.flexarray.2* %nb1ar70, i32 0, i32 1
  %51 = load i32, i32* %elemqu71, align 8
  %cmp72 = icmp eq i32 %51, 0
  br i1 %cmp72, label %if.then73, label %if.end74

if.then73:                                        ; preds = %if.end68
  br label %for.inc87

if.end74:                                         ; preds = %if.end68
  store %class.regobj** null, %class.regobj*** %wayar59, align 8
  store i32 0, i32* %waylength60, align 4
  %52 = load %class.regobj*, %class.regobj** %reg1p, align 8
  %53 = load %class.regobj*, %class.regobj** %reg2p, align 8
  %call75 = call zeroext i1 @_ZN9regwayobj9createwayEP6regobjS1_RPS1_Ri(%class.regwayobj* @regway, %class.regobj* %52, %class.regobj* %53, %class.regobj*** dereferenceable(8) %wayar59, i32* dereferenceable(4) %waylength60)
  %frombool76 = zext i1 %call75 to i8
  store i8 %frombool76, i8* %flcreate61, align 1
  %54 = load %class.regobj**, %class.regobj*** %wayar59, align 8
  %tobool77 = icmp ne %class.regobj** %54, null
  br i1 %tobool77, label %if.then78, label %if.end79

if.then78:                                        ; preds = %if.end74
  %55 = load %class.regobj**, %class.regobj*** %wayar59, align 8
  %56 = bitcast %class.regobj** %55 to i8*
  call void @free(i8* %56) #10
  br label %if.end79

if.end79:                                         ; preds = %if.then78, %if.end74
  %57 = load i8, i8* %flcreate61, align 1
  %tobool80 = trunc i8 %57 to i1
  br i1 %tobool80, label %if.then81, label %if.end86

if.then81:                                        ; preds = %if.end79
  %58 = load i32, i32* %waylength60, align 4
  %conv82 = sext i32 %58 to i64
  %regwaylength = getelementptr inbounds %struct.statinfot, %struct.statinfot* %stat, i32 0, i32 11
  %59 = load i64, i64* %regwaylength, align 8
  %add83 = add nsw i64 %59, %conv82
  store i64 %add83, i64* %regwaylength, align 8
  %regwayqu84 = getelementptr inbounds %struct.statinfot, %struct.statinfot* %stat, i32 0, i32 12
  %60 = load i64, i64* %regwayqu84, align 8
  %inc85 = add nsw i64 %60, 1
  store i64 %inc85, i64* %regwayqu84, align 8
  br label %if.end86

if.end86:                                         ; preds = %if.then81, %if.end79
  br label %for.inc87

for.inc87:                                        ; preds = %if.end86, %if.then73, %if.then67
  %61 = load i32, i32* %i, align 4
  %inc88 = add nsw i32 %61, 1
  store i32 %inc88, i32* %i, align 4
  br label %for.cond55

for.end89:                                        ; preds = %for.cond55
  %createregwaytime = getelementptr inbounds %struct.statinfot, %struct.statinfot* %stat, i32 0, i32 4
  store double 0.000000e+00, double* %createregwaytime, align 8
  call void @_ZN9regwayobj7destroyEv(%class.regwayobj* @regway)
  call void @_ZN9regmngobj7destroyEv(%class.regmngobj* @regmng)
  call void @_ZN6wayobj7destroyEv(%class.wayobj* @way)
  call void @_ZN7way2obj6createEv(%class.way2obj* @way2)
  %mapfilename90 = getelementptr inbounds %struct.workinfot, %struct.workinfot* %info, i32 0, i32 0
  %arraydecay91 = getelementptr inbounds [4096 x i8], [4096 x i8]* %mapfilename90, i32 0, i32 0
  %call92 = call zeroext i1 @_ZN7way2obj7loadmapEPKc(%class.way2obj* @way2, i8* %arraydecay91)
  store i32 0, i32* %i, align 4
  br label %for.cond93

for.cond93:                                       ; preds = %for.inc147, %for.end89
  %62 = load i32, i32* %i, align 4
  %riverwayqu94 = getelementptr inbounds %struct.workinfot, %struct.workinfot* %info, i32 0, i32 3
  %63 = load i32, i32* %riverwayqu94, align 4
  %cmp95 = icmp slt i32 %62, %63
  br i1 %cmp95, label %for.body96, label %for.end149

for.body96:                                       ; preds = %for.cond93
  store i32 0, i32* %j, align 4
  br label %for.cond104

for.cond104:                                      ; preds = %for.inc109, %for.body96
  %64 = load i32, i32* %j, align 4
  %cmp105 = icmp slt i32 %64, 256
  br i1 %cmp105, label %for.body106, label %for.end111

for.body106:                                      ; preds = %for.cond104
  %65 = load i32, i32* %j, align 4
  %conv107 = trunc i32 %65 to i8
  %66 = load i32, i32* %j, align 4
  %idxprom = sext i32 %66 to i64
  %arrayidx108 = getelementptr inbounds [256 x i8], [256 x i8]* %movetimear, i64 0, i64 %idxprom
  store i8 %conv107, i8* %arrayidx108, align 1
  br label %for.inc109

for.inc109:                                       ; preds = %for.body106
  %67 = load i32, i32* %j, align 4
  %inc110 = add nsw i32 %67, 1
  store i32 %inc110, i32* %j, align 4
  br label %for.cond104

for.end111:                                       ; preds = %for.cond104
  %arrayidx112 = getelementptr inbounds [256 x i8], [256 x i8]* %movetimear, i64 0, i64 0
  store i8 -1, i8* %arrayidx112, align 16
  %arrayidx113 = getelementptr inbounds [256 x i8], [256 x i8]* %movetimear, i64 0, i64 1
  store i8 1, i8* %arrayidx113, align 1
  %arrayidx114 = getelementptr inbounds [256 x i8], [256 x i8]* %movetimear, i64 0, i64 2
  store i8 -1, i8* %arrayidx114, align 2
  store i8 0, i8* %flcreate103, align 1
  store i32 0, i32* %waylength102, align 4
  store %struct.pointt* null, %struct.pointt** %wayar101, align 8
  %68 = load i32, i32* getelementptr inbounds (%class.way2obj, %class.way2obj* @way2, i32 0, i32 17), align 8
  %sub115 = sub nsw i32 %68, 1
  %call116 = call i32 @_Z7irandomii(i32 1, i32 %sub115)
  store i32 %call116, i32* %startx97, align 4
  %69 = load i32, i32* getelementptr inbounds (%class.way2obj, %class.way2obj* @way2, i32 0, i32 18), align 4
  %sub117 = sub nsw i32 %69, 1
  %call118 = call i32 @_Z7irandomii(i32 1, i32 %sub117)
  store i32 %call118, i32* %starty98, align 4
  %70 = load i32, i32* %startx97, align 4
  %71 = load i32, i32* %starty98, align 4
  %call119 = call zeroext i8 @_ZN7way2obj10getterrainEii(%class.way2obj* @way2, i32 %70, i32 %71)
  %idxprom120 = zext i8 %call119 to i64
  %arrayidx121 = getelementptr inbounds [256 x i8], [256 x i8]* %movetimear, i64 0, i64 %idxprom120
  %72 = load i8, i8* %arrayidx121, align 1
  %conv122 = zext i8 %72 to i32
  %cmp123 = icmp sgt i32 %conv122, 0
  br i1 %cmp123, label %if.then124, label %if.end139

if.then124:                                       ; preds = %for.end111
  %73 = load i32, i32* getelementptr inbounds (%class.way2obj, %class.way2obj* @way2, i32 0, i32 17), align 8
  %sub125 = sub nsw i32 %73, 1
  %call126 = call i32 @_Z7irandomii(i32 1, i32 %sub125)
  store i32 %call126, i32* %endx99, align 4
  %74 = load i32, i32* getelementptr inbounds (%class.way2obj, %class.way2obj* @way2, i32 0, i32 18), align 4
  %sub127 = sub nsw i32 %74, 1
  %call128 = call i32 @_Z7irandomii(i32 1, i32 %sub127)
  store i32 %call128, i32* %endy100, align 4
  %75 = load i32, i32* %startx97, align 4
  %76 = load i32, i32* %starty98, align 4
  %call129 = call zeroext i8 @_ZN7way2obj10getterrainEii(%class.way2obj* @way2, i32 %75, i32 %76)
  %idxprom130 = zext i8 %call129 to i64
  %arrayidx131 = getelementptr inbounds [256 x i8], [256 x i8]* %movetimear, i64 0, i64 %idxprom130
  %77 = load i8, i8* %arrayidx131, align 1
  %conv132 = zext i8 %77 to i32
  %cmp133 = icmp sgt i32 %conv132, 0
  br i1 %cmp133, label %if.then134, label %if.end138

if.then134:                                       ; preds = %if.then124
  %78 = load i32, i32* %startx97, align 4
  %79 = load i32, i32* %starty98, align 4
  %80 = load i32, i32* %endx99, align 4
  %81 = load i32, i32* %endy100, align 4
  %arraydecay135 = getelementptr inbounds [256 x i8], [256 x i8]* %movetimear, i32 0, i32 0
  %call136 = call zeroext i1 @_ZN7way2obj9createwayEiiiiPhRP6pointtRi(%class.way2obj* @way2, i32 %78, i32 %79, i32 %80, i32 %81, i8* %arraydecay135, %struct.pointt** dereferenceable(8) %wayar101, i32* dereferenceable(4) %waylength102)
  %frombool137 = zext i1 %call136 to i8
  store i8 %frombool137, i8* %flcreate103, align 1
  br label %if.end138

if.end138:                                        ; preds = %if.then134, %if.then124
  %82 = load %struct.pointt*, %struct.pointt** %wayar101, align 8
  %83 = bitcast %struct.pointt* %82 to i8*
  call void @free(i8* %83) #10
  br label %if.end139

if.end139:                                        ; preds = %if.end138, %for.end111
  %84 = load i8, i8* %flcreate103, align 1
  %tobool140 = trunc i8 %84 to i1
  br i1 %tobool140, label %if.then141, label %if.end146

if.then141:                                       ; preds = %if.end139
  %85 = load i32, i32* %waylength102, align 4
  %conv142 = sext i32 %85 to i64
  %riverwaylength = getelementptr inbounds %struct.statinfot, %struct.statinfot* %stat, i32 0, i32 6
  %86 = load i64, i64* %riverwaylength, align 8
  %add143 = add nsw i64 %86, %conv142
  store i64 %add143, i64* %riverwaylength, align 8
  %riverwayqu144 = getelementptr inbounds %struct.statinfot, %struct.statinfot* %stat, i32 0, i32 9
  %87 = load i64, i64* %riverwayqu144, align 8
  %inc145 = add nsw i64 %87, 1
  store i64 %inc145, i64* %riverwayqu144, align 8
  br label %if.end146

if.end146:                                        ; preds = %if.then141, %if.end139
  br label %for.inc147

for.inc147:                                       ; preds = %if.end146
  %88 = load i32, i32* %i, align 4
  %inc148 = add nsw i32 %88, 1
  store i32 %inc148, i32* %i, align 4
  br label %for.cond93

for.end149:                                       ; preds = %for.cond93
  %createriverwaytime = getelementptr inbounds %struct.statinfot, %struct.statinfot* %stat, i32 0, i32 2
  store double 0.000000e+00, double* %createriverwaytime, align 8
  %call150 = call i64 @time(i64* null) #10
  store i64 %call150, i64* %t1, align 8
  store i32 0, i32* %i, align 4
  br label %for.cond151

for.cond151:                                      ; preds = %for.inc208, %for.end149
  %89 = load i32, i32* %i, align 4
  %landwayqu152 = getelementptr inbounds %struct.workinfot, %struct.workinfot* %info, i32 0, i32 4
  %90 = load i32, i32* %landwayqu152, align 4
  %cmp153 = icmp slt i32 %89, %90
  br i1 %cmp153, label %for.body154, label %for.end210

for.body154:                                      ; preds = %for.cond151
  store i32 0, i32* %j163, align 4
  br label %for.cond164

for.cond164:                                      ; preds = %for.inc170, %for.body154
  %91 = load i32, i32* %j163, align 4
  %cmp165 = icmp slt i32 %91, 256
  br i1 %cmp165, label %for.body166, label %for.end172

for.body166:                                      ; preds = %for.cond164
  %92 = load i32, i32* %j163, align 4
  %conv167 = trunc i32 %92 to i8
  %93 = load i32, i32* %j163, align 4
  %idxprom168 = sext i32 %93 to i64
  %arrayidx169 = getelementptr inbounds [256 x i8], [256 x i8]* %movetimear162, i64 0, i64 %idxprom168
  store i8 %conv167, i8* %arrayidx169, align 1
  br label %for.inc170

for.inc170:                                       ; preds = %for.body166
  %94 = load i32, i32* %j163, align 4
  %inc171 = add nsw i32 %94, 1
  store i32 %inc171, i32* %j163, align 4
  br label %for.cond164

for.end172:                                       ; preds = %for.cond164
  %arrayidx173 = getelementptr inbounds [256 x i8], [256 x i8]* %movetimear162, i64 0, i64 0
  store i8 1, i8* %arrayidx173, align 16
  %arrayidx174 = getelementptr inbounds [256 x i8], [256 x i8]* %movetimear162, i64 0, i64 1
  store i8 -1, i8* %arrayidx174, align 1
  %arrayidx175 = getelementptr inbounds [256 x i8], [256 x i8]* %movetimear162, i64 0, i64 2
  store i8 -1, i8* %arrayidx175, align 2
  store i8 0, i8* %flcreate161, align 1
  store i32 0, i32* %waylength160, align 4
  store %struct.pointt* null, %struct.pointt** %wayar159, align 8
  %95 = load i32, i32* getelementptr inbounds (%class.way2obj, %class.way2obj* @way2, i32 0, i32 17), align 8
  %sub176 = sub nsw i32 %95, 2
  %call177 = call i32 @_Z7irandomii(i32 1, i32 %sub176)
  store i32 %call177, i32* %startx155, align 4
  %96 = load i32, i32* getelementptr inbounds (%class.way2obj, %class.way2obj* @way2, i32 0, i32 18), align 4
  %sub178 = sub nsw i32 %96, 2
  %call179 = call i32 @_Z7irandomii(i32 1, i32 %sub178)
  store i32 %call179, i32* %starty156, align 4
  %97 = load i32, i32* %startx155, align 4
  %98 = load i32, i32* %starty156, align 4
  %call180 = call zeroext i8 @_ZN7way2obj10getterrainEii(%class.way2obj* @way2, i32 %97, i32 %98)
  %idxprom181 = zext i8 %call180 to i64
  %arrayidx182 = getelementptr inbounds [256 x i8], [256 x i8]* %movetimear162, i64 0, i64 %idxprom181
  %99 = load i8, i8* %arrayidx182, align 1
  %conv183 = zext i8 %99 to i32
  %cmp184 = icmp sgt i32 %conv183, 0
  br i1 %cmp184, label %if.then185, label %if.end200

if.then185:                                       ; preds = %for.end172
  %100 = load i32, i32* getelementptr inbounds (%class.way2obj, %class.way2obj* @way2, i32 0, i32 17), align 8
  %sub186 = sub nsw i32 %100, 2
  %call187 = call i32 @_Z7irandomii(i32 1, i32 %sub186)
  store i32 %call187, i32* %endx157, align 4
  %101 = load i32, i32* getelementptr inbounds (%class.way2obj, %class.way2obj* @way2, i32 0, i32 18), align 4
  %sub188 = sub nsw i32 %101, 2
  %call189 = call i32 @_Z7irandomii(i32 1, i32 %sub188)
  store i32 %call189, i32* %endy158, align 4
  %102 = load i32, i32* %startx155, align 4
  %103 = load i32, i32* %starty156, align 4
  %call190 = call zeroext i8 @_ZN7way2obj10getterrainEii(%class.way2obj* @way2, i32 %102, i32 %103)
  %idxprom191 = zext i8 %call190 to i64
  %arrayidx192 = getelementptr inbounds [256 x i8], [256 x i8]* %movetimear162, i64 0, i64 %idxprom191
  %104 = load i8, i8* %arrayidx192, align 1
  %conv193 = zext i8 %104 to i32
  %cmp194 = icmp sgt i32 %conv193, 0
  br i1 %cmp194, label %if.then195, label %if.end199

if.then195:                                       ; preds = %if.then185
  %105 = load i32, i32* %startx155, align 4
  %106 = load i32, i32* %starty156, align 4
  %107 = load i32, i32* %endx157, align 4
  %108 = load i32, i32* %endy158, align 4
  %arraydecay196 = getelementptr inbounds [256 x i8], [256 x i8]* %movetimear162, i32 0, i32 0
  %call197 = call zeroext i1 @_ZN7way2obj9createwayEiiiiPhRP6pointtRi(%class.way2obj* @way2, i32 %105, i32 %106, i32 %107, i32 %108, i8* %arraydecay196, %struct.pointt** dereferenceable(8) %wayar159, i32* dereferenceable(4) %waylength160)
  %frombool198 = zext i1 %call197 to i8
  store i8 %frombool198, i8* %flcreate161, align 1
  br label %if.end199

if.end199:                                        ; preds = %if.then195, %if.then185
  %109 = load %struct.pointt*, %struct.pointt** %wayar159, align 8
  %110 = bitcast %struct.pointt* %109 to i8*
  call void @free(i8* %110) #10
  br label %if.end200

if.end200:                                        ; preds = %if.end199, %for.end172
  %111 = load i8, i8* %flcreate161, align 1
  %tobool201 = trunc i8 %111 to i1
  br i1 %tobool201, label %if.then202, label %if.end207

if.then202:                                       ; preds = %if.end200
  %112 = load i32, i32* %waylength160, align 4
  %conv203 = sext i32 %112 to i64
  %landwaylength = getelementptr inbounds %struct.statinfot, %struct.statinfot* %stat, i32 0, i32 7
  %113 = load i64, i64* %landwaylength, align 8
  %add204 = add nsw i64 %113, %conv203
  store i64 %add204, i64* %landwaylength, align 8
  %landwayqu205 = getelementptr inbounds %struct.statinfot, %struct.statinfot* %stat, i32 0, i32 10
  %114 = load i64, i64* %landwayqu205, align 8
  %inc206 = add nsw i64 %114, 1
  store i64 %inc206, i64* %landwayqu205, align 8
  br label %if.end207

if.end207:                                        ; preds = %if.then202, %if.end200
  br label %for.inc208

for.inc208:                                       ; preds = %if.end207
  %115 = load i32, i32* %i, align 4
  %inc209 = add nsw i32 %115, 1
  store i32 %inc209, i32* %i, align 4
  br label %for.cond151

for.end210:                                       ; preds = %for.cond151
  %createlandwaytime = getelementptr inbounds %struct.statinfot, %struct.statinfot* %stat, i32 0, i32 3
  store double 0.000000e+00, double* %createlandwaytime, align 8
  call void @_ZN7way2obj7destroyEv(%class.way2obj* @way2)
  call void @_ZN9statinfot5printEv(%struct.statinfot* %stat)
  %call211 = call i32 (i8*, ...) @printf(i8* getelementptr inbounds ([2 x i8], [2 x i8]* @.str.2, i32 0, i32 0))
  %call212 = call i32 (i8*, ...) @printf(i8* getelementptr inbounds ([13 x i8], [13 x i8]* @.str.23, i32 0, i32 0))
  %call213 = call i32 (i8*, ...) @printf(i8* getelementptr inbounds ([12 x i8], [12 x i8]* @.str.25, i32 0, i32 0))
  call void @_ZN6wayobj6createEv(%class.wayobj* @way)
  call void @_ZN9regmngobj6createEv(%class.regmngobj* @regmng)
  call void @_ZN9regwayobj6createEP9regmngobj(%class.regwayobj* @regway, %class.regmngobj* @regmng)
  %randommaplx214 = getelementptr inbounds %struct.workinfot, %struct.workinfot* %info, i32 0, i32 6
  %116 = load i32, i32* %randommaplx214, align 4
  %randommaply215 = getelementptr inbounds %struct.workinfot, %struct.workinfot* %info, i32 0, i32 7
  %117 = load i32, i32* %randommaply215, align 4
  %randommapdensity216 = getelementptr inbounds %struct.workinfot, %struct.workinfot* %info, i32 0, i32 8
  %118 = load float, float* %randommapdensity216, align 4
  call void @_Z15createrandommapiif(i32 %116, i32 %117, float %118)
  call void @_ZN9statinfot4initEv(%struct.statinfot* %stat)
  %randommapregionsize217 = getelementptr inbounds %struct.workinfot, %struct.workinfot* %info, i32 0, i32 9
  %119 = load i32, i32* %randommapregionsize217, align 4
  call void @_ZN9regmngobj13createregionsEi(%class.regmngobj* @regmng, i32 %119)
  %createregtime218 = getelementptr inbounds %struct.statinfot, %struct.statinfot* %stat, i32 0, i32 0
  store double 0.000000e+00, double* %createregtime218, align 8
  %call219 = call i64 @time(i64* null) #10
  store i64 %call219, i64* %t1, align 8
  store i32 0, i32* %i, align 4
  br label %for.cond220

for.cond220:                                      ; preds = %for.inc254, %for.end210
  %120 = load i32, i32* %i, align 4
  %randommapwayqu221 = getelementptr inbounds %struct.workinfot, %struct.workinfot* %info, i32 0, i32 10
  %121 = load i32, i32* %randommapwayqu221, align 4
  %cmp222 = icmp slt i32 %120, %121
  br i1 %cmp222, label %for.body223, label %for.end256

for.body223:                                      ; preds = %for.cond220
  store i8 0, i8* %flcreate230, align 1
  store i32 0, i32* %waylength229, align 4
  store %struct.waymapcellt* null, %struct.waymapcellt** %wayar228, align 8
  %122 = load i32, i32* getelementptr inbounds (%class.regmngobj, %class.regmngobj* @regmng, i32 0, i32 12), align 4
  %call231 = call i32 @_Z8myrandomii(i32 1, i32 %122)
  store i32 %call231, i32* %startx224, align 4
  %123 = load i32, i32* getelementptr inbounds (%class.regmngobj, %class.regmngobj* @regmng, i32 0, i32 13), align 8
  %call232 = call i32 @_Z8myrandomii(i32 1, i32 %123)
  store i32 %call232, i32* %starty225, align 4
  %124 = load i32, i32* %startx224, align 4
  %125 = load i32, i32* %starty225, align 4
  %call233 = call zeroext i1 @_ZN6wayobj13findfreepointEiiRiS0_(%class.wayobj* @way, i32 %124, i32 %125, i32* dereferenceable(4) %startx224, i32* dereferenceable(4) %starty225)
  br i1 %call233, label %if.then234, label %if.end245

if.then234:                                       ; preds = %for.body223
  %126 = load i32, i32* getelementptr inbounds (%class.regmngobj, %class.regmngobj* @regmng, i32 0, i32 12), align 4
  %call235 = call i32 @_Z8myrandomii(i32 1, i32 %126)
  store i32 %call235, i32* %endx226, align 4
  %127 = load i32, i32* getelementptr inbounds (%class.regmngobj, %class.regmngobj* @regmng, i32 0, i32 13), align 8
  %call236 = call i32 @_Z8myrandomii(i32 1, i32 %127)
  store i32 %call236, i32* %endy227, align 4
  %128 = load i32, i32* %endx226, align 4
  %129 = load i32, i32* %endy227, align 4
  %call237 = call zeroext i1 @_ZN6wayobj13findfreepointEiiRiS0_(%class.wayobj* @way, i32 %128, i32 %129, i32* dereferenceable(4) %endx226, i32* dereferenceable(4) %endy227)
  br i1 %call237, label %if.then238, label %if.end241

if.then238:                                       ; preds = %if.then234
  %130 = load i32, i32* %startx224, align 4
  %131 = load i32, i32* %starty225, align 4
  %132 = load i32, i32* %endx226, align 4
  %133 = load i32, i32* %endy227, align 4
  %call239 = call zeroext i1 @_ZN6wayobj9createwayEiiiiRP8point16tRi(%class.wayobj* @way, i32 %130, i32 %131, i32 %132, i32 %133, %struct.waymapcellt** dereferenceable(8) %wayar228, i32* dereferenceable(4) %waylength229)
  %frombool240 = zext i1 %call239 to i8
  store i8 %frombool240, i8* %flcreate230, align 1
  br label %if.end241

if.end241:                                        ; preds = %if.then238, %if.then234
  %134 = load %struct.waymapcellt*, %struct.waymapcellt** %wayar228, align 8
  %tobool242 = icmp ne %struct.waymapcellt* %134, null
  br i1 %tobool242, label %if.then243, label %if.end244

if.then243:                                       ; preds = %if.end241
  %135 = load %struct.waymapcellt*, %struct.waymapcellt** %wayar228, align 8
  %136 = bitcast %struct.waymapcellt* %135 to i8*
  call void @free(i8* %136) #10
  br label %if.end244

if.end244:                                        ; preds = %if.then243, %if.end241
  br label %if.end245

if.end245:                                        ; preds = %if.end244, %for.body223
  %137 = load i8, i8* %flcreate230, align 1
  %tobool246 = trunc i8 %137 to i1
  br i1 %tobool246, label %if.then247, label %if.end253

if.then247:                                       ; preds = %if.end245
  %138 = load i32, i32* %waylength229, align 4
  %conv248 = sext i32 %138 to i64
  %waylength249 = getelementptr inbounds %struct.statinfot, %struct.statinfot* %stat, i32 0, i32 5
  %139 = load i64, i64* %waylength249, align 8
  %add250 = add nsw i64 %139, %conv248
  store i64 %add250, i64* %waylength249, align 8
  %wayqu251 = getelementptr inbounds %struct.statinfot, %struct.statinfot* %stat, i32 0, i32 8
  %140 = load i64, i64* %wayqu251, align 8
  %inc252 = add nsw i64 %140, 1
  store i64 %inc252, i64* %wayqu251, align 8
  br label %if.end253

if.end253:                                        ; preds = %if.then247, %if.end245
  br label %for.inc254

for.inc254:                                       ; preds = %if.end253
  %141 = load i32, i32* %i, align 4
  %inc255 = add nsw i32 %141, 1
  store i32 %inc255, i32* %i, align 4
  br label %for.cond220

for.end256:                                       ; preds = %for.cond220
  %createwaytime257 = getelementptr inbounds %struct.statinfot, %struct.statinfot* %stat, i32 0, i32 1
  store double 0.000000e+00, double* %createwaytime257, align 8
  store i32 0, i32* %i, align 4
  br label %for.cond258

for.cond258:                                      ; preds = %for.inc298, %for.end256
  %142 = load i32, i32* %i, align 4
  %randommapregwayqu259 = getelementptr inbounds %struct.workinfot, %struct.workinfot* %info, i32 0, i32 11
  %143 = load i32, i32* %randommapregwayqu259, align 4
  %cmp260 = icmp slt i32 %142, %143
  br i1 %cmp260, label %for.body261, label %for.end300

for.body261:                                      ; preds = %for.cond258
  %144 = load i32, i32* getelementptr inbounds (%class.regmngobj, %class.regmngobj* @regmng, i32 0, i32 18, i32 4), align 8
  %sub269 = sub nsw i32 %144, 1
  %call270 = call i32 @_Z7random1i(i32 %sub269)
  store i32 %call270, i32* %reg1num262, align 4
  %145 = load i32, i32* getelementptr inbounds (%class.regmngobj, %class.regmngobj* @regmng, i32 0, i32 18, i32 4), align 8
  %sub271 = sub nsw i32 %145, 1
  %call272 = call i32 @_Z7random1i(i32 %sub271)
  store i32 %call272, i32* %reg2num263, align 4
  %146 = load i32, i32* %reg1num262, align 4
  %call273 = call dereferenceable(8) %class.regobj** @_ZN15largesolidarrayIP6regobjEixEi(%class.largesolidarray* getelementptr inbounds (%class.regmngobj, %class.regmngobj* @regmng, i32 0, i32 18), i32 %146)
  %147 = load %class.regobj*, %class.regobj** %call273, align 8
  store %class.regobj* %147, %class.regobj** %reg1p264, align 8
  %148 = load %class.regobj*, %class.regobj** %reg1p264, align 8
  %nb1ar274 = getelementptr inbounds %class.regobj, %class.regobj* %148, i32 0, i32 9
  %elemqu275 = getelementptr inbounds %class.flexarray.2, %class.flexarray.2* %nb1ar274, i32 0, i32 1
  %149 = load i32, i32* %elemqu275, align 8
  %cmp276 = icmp eq i32 %149, 0
  br i1 %cmp276, label %if.then277, label %if.end278

if.then277:                                       ; preds = %for.body261
  br label %for.inc298

if.end278:                                        ; preds = %for.body261
  %150 = load i32, i32* %reg2num263, align 4
  %call279 = call dereferenceable(8) %class.regobj** @_ZN15largesolidarrayIP6regobjEixEi(%class.largesolidarray* getelementptr inbounds (%class.regmngobj, %class.regmngobj* @regmng, i32 0, i32 18), i32 %150)
  %151 = load %class.regobj*, %class.regobj** %call279, align 8
  store %class.regobj* %151, %class.regobj** %reg2p265, align 8
  %152 = load %class.regobj*, %class.regobj** %reg2p265, align 8
  %nb1ar280 = getelementptr inbounds %class.regobj, %class.regobj* %152, i32 0, i32 9
  %elemqu281 = getelementptr inbounds %class.flexarray.2, %class.flexarray.2* %nb1ar280, i32 0, i32 1
  %153 = load i32, i32* %elemqu281, align 8
  %cmp282 = icmp eq i32 %153, 0
  br i1 %cmp282, label %if.then283, label %if.end284

if.then283:                                       ; preds = %if.end278
  br label %for.inc298

if.end284:                                        ; preds = %if.end278
  store %class.regobj** null, %class.regobj*** %wayar266, align 8
  store i32 0, i32* %waylength267, align 4
  %154 = load %class.regobj*, %class.regobj** %reg1p264, align 8
  %155 = load %class.regobj*, %class.regobj** %reg2p265, align 8
  %call285 = call zeroext i1 @_ZN9regwayobj9createwayEP6regobjS1_RPS1_Ri(%class.regwayobj* @regway, %class.regobj* %154, %class.regobj* %155, %class.regobj*** dereferenceable(8) %wayar266, i32* dereferenceable(4) %waylength267)
  %frombool286 = zext i1 %call285 to i8
  store i8 %frombool286, i8* %flcreate268, align 1
  %156 = load %class.regobj**, %class.regobj*** %wayar266, align 8
  %tobool287 = icmp ne %class.regobj** %156, null
  br i1 %tobool287, label %if.then288, label %if.end289

if.then288:                                       ; preds = %if.end284
  %157 = load %class.regobj**, %class.regobj*** %wayar266, align 8
  %158 = bitcast %class.regobj** %157 to i8*
  call void @free(i8* %158) #10
  br label %if.end289

if.end289:                                        ; preds = %if.then288, %if.end284
  %159 = load i8, i8* %flcreate268, align 1
  %tobool290 = trunc i8 %159 to i1
  br i1 %tobool290, label %if.then291, label %if.end297

if.then291:                                       ; preds = %if.end289
  %160 = load i32, i32* %waylength267, align 4
  %conv292 = sext i32 %160 to i64
  %regwaylength293 = getelementptr inbounds %struct.statinfot, %struct.statinfot* %stat, i32 0, i32 11
  %161 = load i64, i64* %regwaylength293, align 8
  %add294 = add nsw i64 %161, %conv292
  store i64 %add294, i64* %regwaylength293, align 8
  %regwayqu295 = getelementptr inbounds %struct.statinfot, %struct.statinfot* %stat, i32 0, i32 12
  %162 = load i64, i64* %regwayqu295, align 8
  %inc296 = add nsw i64 %162, 1
  store i64 %inc296, i64* %regwayqu295, align 8
  br label %if.end297

if.end297:                                        ; preds = %if.then291, %if.end289
  br label %for.inc298

for.inc298:                                       ; preds = %if.end297, %if.then283, %if.then277
  %163 = load i32, i32* %i, align 4
  %inc299 = add nsw i32 %163, 1
  store i32 %inc299, i32* %i, align 4
  br label %for.cond258

for.end300:                                       ; preds = %for.cond258
  %createregwaytime301 = getelementptr inbounds %struct.statinfot, %struct.statinfot* %stat, i32 0, i32 4
  store double 0.000000e+00, double* %createregwaytime301, align 8
  call void @_ZN9regwayobj7destroyEv(%class.regwayobj* @regway)
  call void @_ZN9regmngobj7destroyEv(%class.regmngobj* @regmng)
  call void @_ZN6wayobj7destroyEv(%class.wayobj* @way)
  call void @_ZN9statinfot5printEv(%struct.statinfot* %stat)
  %call302 = call i32 (i8*, ...) @printf(i8* getelementptr inbounds ([2 x i8], [2 x i8]* @.str.2, i32 0, i32 0))
  store i32 0, i32* %retval, align 4
  br label %return

return:                                           ; preds = %for.end300, %if.then4, %if.then
  %164 = load i32, i32* %retval, align 4
  ret i32 %164
}

declare %struct._IO_FILE* @fopen(i8*, i8*) #7

declare i32 @fscanf(%struct._IO_FILE*, i8*, ...) #7

declare i32 @fclose(%struct._IO_FILE*) #7

; Function Attrs: noinline nounwind uwtable
define linkonce_odr void @_ZN9statinfot4initEv(%struct.statinfot* %this) #2 comdat align 2 {
entry:
  %this.addr = alloca %struct.statinfot*, align 8
  store %struct.statinfot* %this, %struct.statinfot** %this.addr, align 8
  %this1 = load %struct.statinfot*, %struct.statinfot** %this.addr, align 8
  %createregtime = getelementptr inbounds %struct.statinfot, %struct.statinfot* %this1, i32 0, i32 0
  store double 0.000000e+00, double* %createregtime, align 8
  %createwaytime = getelementptr inbounds %struct.statinfot, %struct.statinfot* %this1, i32 0, i32 1
  store double 0.000000e+00, double* %createwaytime, align 8
  %createriverwaytime = getelementptr inbounds %struct.statinfot, %struct.statinfot* %this1, i32 0, i32 2
  store double 0.000000e+00, double* %createriverwaytime, align 8
  %createlandwaytime = getelementptr inbounds %struct.statinfot, %struct.statinfot* %this1, i32 0, i32 3
  store double 0.000000e+00, double* %createlandwaytime, align 8
  %createregwaytime = getelementptr inbounds %struct.statinfot, %struct.statinfot* %this1, i32 0, i32 4
  store double 0.000000e+00, double* %createregwaytime, align 8
  %waylength = getelementptr inbounds %struct.statinfot, %struct.statinfot* %this1, i32 0, i32 5
  store i64 0, i64* %waylength, align 8
  %wayqu = getelementptr inbounds %struct.statinfot, %struct.statinfot* %this1, i32 0, i32 8
  store i64 0, i64* %wayqu, align 8
  %riverwayqu = getelementptr inbounds %struct.statinfot, %struct.statinfot* %this1, i32 0, i32 9
  store i64 0, i64* %riverwayqu, align 8
  %landwayqu = getelementptr inbounds %struct.statinfot, %struct.statinfot* %this1, i32 0, i32 10
  store i64 0, i64* %landwayqu, align 8
  %regwaylength = getelementptr inbounds %struct.statinfot, %struct.statinfot* %this1, i32 0, i32 11
  store i64 0, i64* %regwaylength, align 8
  %riverwaylength = getelementptr inbounds %struct.statinfot, %struct.statinfot* %this1, i32 0, i32 6
  store i64 0, i64* %riverwaylength, align 8
  %landwaylength = getelementptr inbounds %struct.statinfot, %struct.statinfot* %this1, i32 0, i32 7
  store i64 0, i64* %landwaylength, align 8
  %regwayqu = getelementptr inbounds %struct.statinfot, %struct.statinfot* %this1, i32 0, i32 12
  store i64 0, i64* %regwayqu, align 8
  ret void
}

; Function Attrs: nounwind
declare i64 @time(i64*) #1

; Function Attrs: noinline nounwind uwtable
define linkonce_odr dereferenceable(8) %class.regobj** @_ZN15largesolidarrayIP6regobjEixEi(%class.largesolidarray* %this, i32 %index) #2 comdat align 2 {
entry:
  %this.addr = alloca %class.largesolidarray*, align 8
  %index.addr = alloca i32, align 4
  store %class.largesolidarray* %this, %class.largesolidarray** %this.addr, align 8
  store i32 %index, i32* %index.addr, align 4
  %this1 = load %class.largesolidarray*, %class.largesolidarray** %this.addr, align 8
  %ep = getelementptr inbounds %class.largesolidarray, %class.largesolidarray* %this1, i32 0, i32 0
  %0 = load %class.regobj**, %class.regobj*** %ep, align 8
  %1 = load i32, i32* %index.addr, align 4
  %idxprom = sext i32 %1 to i64
  %arrayidx = getelementptr inbounds %class.regobj*, %class.regobj** %0, i64 %idxprom
  ret %class.regobj** %arrayidx
}

; Function Attrs: noinline uwtable
define linkonce_odr i32 @_Z7irandomii(i32 %lo, i32 %hi) #0 comdat {
entry:
  %lo.addr = alloca i32, align 4
  %hi.addr = alloca i32, align 4
  store i32 %lo, i32* %lo.addr, align 4
  store i32 %hi, i32* %hi.addr, align 4
  %0 = load i32, i32* %lo.addr, align 4
  %1 = load i32, i32* %hi.addr, align 4
  %call = call i32 @_Z8myrandomii(i32 %0, i32 %1)
  ret i32 %call
}

; Function Attrs: noinline nounwind uwtable
define linkonce_odr zeroext i8 @_ZN7way2obj10getterrainEii(%class.way2obj* %this, i32 %x, i32 %y) #2 comdat align 2 {
entry:
  %this.addr = alloca %class.way2obj*, align 8
  %x.addr = alloca i32, align 4
  %y.addr = alloca i32, align 4
  store %class.way2obj* %this, %class.way2obj** %this.addr, align 8
  store i32 %x, i32* %x.addr, align 4
  store i32 %y, i32* %y.addr, align 4
  %this1 = load %class.way2obj*, %class.way2obj** %this.addr, align 8
  %mapp = getelementptr inbounds %class.way2obj, %class.way2obj* %this1, i32 0, i32 0
  %0 = load i8*, i8** %mapp, align 8
  %1 = load i32, i32* %x.addr, align 4
  %2 = load i32, i32* %y.addr, align 4
  %mapsizex = getelementptr inbounds %class.way2obj, %class.way2obj* %this1, i32 0, i32 17
  %3 = load i32, i32* %mapsizex, align 8
  %mul = mul nsw i32 %2, %3
  %add = add nsw i32 %1, %mul
  %idxprom = sext i32 %add to i64
  %arrayidx = getelementptr inbounds i8, i8* %0, i64 %idxprom
  %4 = load i8, i8* %arrayidx, align 1
  ret i8 %4
}

; Function Attrs: noinline uwtable
define %struct.levelplacet* @_ZN6wayobj14findfreepointsE8rvectortiRi(%class.wayobj* %this, <2 x float> %startp.coerce0, float %startp.coerce1, i32 %minpointqu, i32* dereferenceable(4) %pointqu) #0 align 2 {
entry:
  %retval = alloca %struct.levelplacet*, align 8
  %startp = alloca %class.rvectort, align 4
  %coerce = alloca { <2 x float>, float }, align 4
  %this.addr = alloca %class.wayobj*, align 8
  %minpointqu.addr = alloca i32, align 4
  %pointqu.addr = alloca i32*, align 8
  %startx = alloca i32, align 4
  %starty = alloca i32, align 4
  %contour = alloca %class.flexarray.10, align 8
  %minneighbourcoef = alloca i32, align 4
  %place = alloca %struct.levelplacet, align 4
  %placearp = alloca %struct.levelplacet*, align 8
  %fillnum = alloca i16, align 2
  %neighboursqu = alloca i32, align 4
  %yoffset = alloca i32, align 4
  %index = alloca i32, align 4
  %index1 = alloca i32, align 4
  %x = alloca i32, align 4
  %y = alloca i32, align 4
  %i = alloca i32, align 4
  %0 = getelementptr inbounds { <2 x float>, float }, { <2 x float>, float }* %coerce, i32 0, i32 0
  store <2 x float> %startp.coerce0, <2 x float>* %0, align 4
  %1 = getelementptr inbounds { <2 x float>, float }, { <2 x float>, float }* %coerce, i32 0, i32 1
  store float %startp.coerce1, float* %1, align 4
  %2 = bitcast %class.rvectort* %startp to i8*
  %3 = bitcast { <2 x float>, float }* %coerce to i8*
  call void @llvm.memcpy.p0i8.p0i8.i64(i8* %2, i8* %3, i64 12, i32 4, i1 false)
  store %class.wayobj* %this, %class.wayobj** %this.addr, align 8
  store i32 %minpointqu, i32* %minpointqu.addr, align 4
  store i32* %pointqu, i32** %pointqu.addr, align 8
  %this1 = load %class.wayobj*, %class.wayobj** %this.addr, align 8
  %x2 = getelementptr inbounds %class.rvectort, %class.rvectort* %startp, i32 0, i32 0
  %4 = load float, float* %x2, align 4
  %call = call i32 @_ZN6wayobj4getxEf(%class.wayobj* %this1, float %4)
  store i32 %call, i32* %startx, align 4
  %z = getelementptr inbounds %class.rvectort, %class.rvectort* %startp, i32 0, i32 2
  %5 = load float, float* %z, align 4
  %call3 = call i32 @_ZN6wayobj4getyEf(%class.wayobj* %this1, float %5)
  store i32 %call3, i32* %starty, align 4
  %6 = load i32, i32* %startx, align 4
  %7 = load i32, i32* %starty, align 4
  %call4 = call zeroext i1 @_ZN6wayobj5ismapEii(%class.wayobj* %this1, i32 %6, i32 %7)
  br i1 %call4, label %if.end, label %if.then

if.then:                                          ; preds = %entry
  %maplx = getelementptr inbounds %class.wayobj, %class.wayobj* %this1, i32 0, i32 7
  %8 = load i32, i32* %maplx, align 4
  %shr = ashr i32 %8, 1
  store i32 %shr, i32* %startx, align 4
  %maply = getelementptr inbounds %class.wayobj, %class.wayobj* %this1, i32 0, i32 8
  %9 = load i32, i32* %maply, align 8
  %shr5 = ashr i32 %9, 1
  store i32 %shr5, i32* %starty, align 4
  br label %if.end

if.end:                                           ; preds = %if.then, %entry
  %10 = load i32, i32* %startx, align 4
  %11 = load i32, i32* %starty, align 4
  %call6 = call dereferenceable(2) i16* @_ZN6wayobj3mapEii(%class.wayobj* %this1, i32 %10, i32 %11)
  %12 = load i16, i16* %call6, align 2
  %conv = sext i16 %12 to i32
  %cmp = icmp ne i32 %conv, 0
  br i1 %cmp, label %if.then7, label %if.end13

if.then7:                                         ; preds = %if.end
  %13 = load i32, i32* %startx, align 4
  %14 = load i32, i32* %starty, align 4
  %call8 = call zeroext i1 @_ZN6wayobj13findfreepointEiiRiS0_(%class.wayobj* %this1, i32 %13, i32 %14, i32* dereferenceable(4) %startx, i32* dereferenceable(4) %starty)
  %conv9 = zext i1 %call8 to i32
  %cmp10 = icmp eq i32 %conv9, 0
  br i1 %cmp10, label %if.then11, label %if.end12

if.then11:                                        ; preds = %if.then7
  store %struct.levelplacet* null, %struct.levelplacet** %retval, align 8
  br label %return

if.end12:                                         ; preds = %if.then7
  br label %if.end13

if.end13:                                         ; preds = %if.end12, %if.end
  %15 = load i32, i32* %startx, align 4
  %16 = load i32, i32* %starty, align 4
  %call14 = call zeroext i1 @_ZN6wayobj4fillEiiii(%class.wayobj* %this1, i32 %15, i32 %16, i32 0, i32 0)
  %fillnum15 = getelementptr inbounds %class.wayobj, %class.wayobj* %this1, i32 0, i32 27
  %17 = load i16, i16* %fillnum15, align 2
  store i16 %17, i16* %fillnum, align 2
  %maplx16 = getelementptr inbounds %class.wayobj, %class.wayobj* %this1, i32 0, i32 7
  %18 = load i32, i32* %maplx16, align 4
  %mul = mul nsw i32 %18, 10
  call void @_ZN9flexarrayI11levelplacetE6createEi(%class.flexarray.10* %contour, i32 %mul)
  %maply17 = getelementptr inbounds %class.wayobj, %class.wayobj* %this1, i32 0, i32 8
  %19 = load i32, i32* %maply17, align 8
  store i32 %19, i32* %yoffset, align 4
  store i32 7, i32* %minneighbourcoef, align 4
  br label %do.body

do.body:                                          ; preds = %land.end, %if.end13
  call void @_ZN9flexarrayI11levelplacetE5clearEv(%class.flexarray.10* %contour)
  store i32 1, i32* %y, align 4
  br label %for.cond

for.cond:                                         ; preds = %for.inc112, %do.body
  %20 = load i32, i32* %y, align 4
  %mapmaxy = getelementptr inbounds %class.wayobj, %class.wayobj* %this1, i32 0, i32 4
  %21 = load i32, i32* %mapmaxy, align 8
  %cmp18 = icmp slt i32 %20, %21
  br i1 %cmp18, label %for.body, label %for.end114

for.body:                                         ; preds = %for.cond
  store i32 1, i32* %x, align 4
  br label %for.cond19

for.cond19:                                       ; preds = %for.inc, %for.body
  %22 = load i32, i32* %x, align 4
  %mapmaxx = getelementptr inbounds %class.wayobj, %class.wayobj* %this1, i32 0, i32 3
  %23 = load i32, i32* %mapmaxx, align 4
  %cmp20 = icmp slt i32 %22, %23
  br i1 %cmp20, label %for.body21, label %for.end

for.body21:                                       ; preds = %for.cond19
  %24 = load i32, i32* %y, align 4
  %shift = getelementptr inbounds %class.wayobj, %class.wayobj* %this1, i32 0, i32 2
  %25 = load i32, i32* %shift, align 8
  %shl = shl i32 %24, %25
  %26 = load i32, i32* %x, align 4
  %or = or i32 %shl, %26
  store i32 %or, i32* %index, align 4
  %waymap = getelementptr inbounds %class.wayobj, %class.wayobj* %this1, i32 0, i32 18
  %27 = load %struct.waymapcellt*, %struct.waymapcellt** %waymap, align 8
  %28 = load i32, i32* %index, align 4
  %idxprom = sext i32 %28 to i64
  %arrayidx = getelementptr inbounds %struct.waymapcellt, %struct.waymapcellt* %27, i64 %idxprom
  %fillnum22 = getelementptr inbounds %struct.waymapcellt, %struct.waymapcellt* %arrayidx, i32 0, i32 0
  %29 = load i16, i16* %fillnum22, align 2
  %conv23 = zext i16 %29 to i32
  %30 = load i16, i16* %fillnum, align 2
  %conv24 = zext i16 %30 to i32
  %cmp25 = icmp eq i32 %conv23, %conv24
  br i1 %cmp25, label %if.then26, label %if.end110

if.then26:                                        ; preds = %for.body21
  store i32 0, i32* %neighboursqu, align 4
  %31 = load i32, i32* %index, align 4
  %32 = load i32, i32* %yoffset, align 4
  %sub = sub nsw i32 %31, %32
  %sub27 = sub nsw i32 %sub, 1
  store i32 %sub27, i32* %index1, align 4
  %maparp = getelementptr inbounds %class.wayobj, %class.wayobj* %this1, i32 0, i32 17
  %33 = load i16*, i16** %maparp, align 8
  %34 = load i32, i32* %index1, align 4
  %idxprom28 = sext i32 %34 to i64
  %arrayidx29 = getelementptr inbounds i16, i16* %33, i64 %idxprom28
  %35 = load i16, i16* %arrayidx29, align 2
  %conv30 = sext i16 %35 to i32
  %cmp31 = icmp ne i32 %conv30, 0
  br i1 %cmp31, label %if.then32, label %if.end33

if.then32:                                        ; preds = %if.then26
  %36 = load i32, i32* %neighboursqu, align 4
  %inc = add nsw i32 %36, 1
  store i32 %inc, i32* %neighboursqu, align 4
  br label %if.end33

if.end33:                                         ; preds = %if.then32, %if.then26
  %37 = load i32, i32* %index, align 4
  %38 = load i32, i32* %yoffset, align 4
  %sub34 = sub nsw i32 %37, %38
  store i32 %sub34, i32* %index1, align 4
  %maparp35 = getelementptr inbounds %class.wayobj, %class.wayobj* %this1, i32 0, i32 17
  %39 = load i16*, i16** %maparp35, align 8
  %40 = load i32, i32* %index1, align 4
  %idxprom36 = sext i32 %40 to i64
  %arrayidx37 = getelementptr inbounds i16, i16* %39, i64 %idxprom36
  %41 = load i16, i16* %arrayidx37, align 2
  %conv38 = sext i16 %41 to i32
  %cmp39 = icmp ne i32 %conv38, 0
  br i1 %cmp39, label %if.then40, label %if.end42

if.then40:                                        ; preds = %if.end33
  %42 = load i32, i32* %neighboursqu, align 4
  %inc41 = add nsw i32 %42, 1
  store i32 %inc41, i32* %neighboursqu, align 4
  br label %if.end42

if.end42:                                         ; preds = %if.then40, %if.end33
  %43 = load i32, i32* %index, align 4
  %44 = load i32, i32* %yoffset, align 4
  %sub43 = sub nsw i32 %43, %44
  %add = add nsw i32 %sub43, 1
  store i32 %add, i32* %index1, align 4
  %maparp44 = getelementptr inbounds %class.wayobj, %class.wayobj* %this1, i32 0, i32 17
  %45 = load i16*, i16** %maparp44, align 8
  %46 = load i32, i32* %index1, align 4
  %idxprom45 = sext i32 %46 to i64
  %arrayidx46 = getelementptr inbounds i16, i16* %45, i64 %idxprom45
  %47 = load i16, i16* %arrayidx46, align 2
  %conv47 = sext i16 %47 to i32
  %cmp48 = icmp ne i32 %conv47, 0
  br i1 %cmp48, label %if.then49, label %if.end51

if.then49:                                        ; preds = %if.end42
  %48 = load i32, i32* %neighboursqu, align 4
  %inc50 = add nsw i32 %48, 1
  store i32 %inc50, i32* %neighboursqu, align 4
  br label %if.end51

if.end51:                                         ; preds = %if.then49, %if.end42
  %49 = load i32, i32* %index, align 4
  %sub52 = sub nsw i32 %49, 1
  store i32 %sub52, i32* %index1, align 4
  %maparp53 = getelementptr inbounds %class.wayobj, %class.wayobj* %this1, i32 0, i32 17
  %50 = load i16*, i16** %maparp53, align 8
  %51 = load i32, i32* %index1, align 4
  %idxprom54 = sext i32 %51 to i64
  %arrayidx55 = getelementptr inbounds i16, i16* %50, i64 %idxprom54
  %52 = load i16, i16* %arrayidx55, align 2
  %conv56 = sext i16 %52 to i32
  %cmp57 = icmp ne i32 %conv56, 0
  br i1 %cmp57, label %if.then58, label %if.end60

if.then58:                                        ; preds = %if.end51
  %53 = load i32, i32* %neighboursqu, align 4
  %inc59 = add nsw i32 %53, 1
  store i32 %inc59, i32* %neighboursqu, align 4
  br label %if.end60

if.end60:                                         ; preds = %if.then58, %if.end51
  %54 = load i32, i32* %index, align 4
  %add61 = add nsw i32 %54, 1
  store i32 %add61, i32* %index1, align 4
  %maparp62 = getelementptr inbounds %class.wayobj, %class.wayobj* %this1, i32 0, i32 17
  %55 = load i16*, i16** %maparp62, align 8
  %56 = load i32, i32* %index1, align 4
  %idxprom63 = sext i32 %56 to i64
  %arrayidx64 = getelementptr inbounds i16, i16* %55, i64 %idxprom63
  %57 = load i16, i16* %arrayidx64, align 2
  %conv65 = sext i16 %57 to i32
  %cmp66 = icmp ne i32 %conv65, 0
  br i1 %cmp66, label %if.then67, label %if.end69

if.then67:                                        ; preds = %if.end60
  %58 = load i32, i32* %neighboursqu, align 4
  %inc68 = add nsw i32 %58, 1
  store i32 %inc68, i32* %neighboursqu, align 4
  br label %if.end69

if.end69:                                         ; preds = %if.then67, %if.end60
  %59 = load i32, i32* %index, align 4
  %60 = load i32, i32* %yoffset, align 4
  %add70 = add nsw i32 %59, %60
  %sub71 = sub nsw i32 %add70, 1
  store i32 %sub71, i32* %index1, align 4
  %maparp72 = getelementptr inbounds %class.wayobj, %class.wayobj* %this1, i32 0, i32 17
  %61 = load i16*, i16** %maparp72, align 8
  %62 = load i32, i32* %index1, align 4
  %idxprom73 = sext i32 %62 to i64
  %arrayidx74 = getelementptr inbounds i16, i16* %61, i64 %idxprom73
  %63 = load i16, i16* %arrayidx74, align 2
  %conv75 = sext i16 %63 to i32
  %cmp76 = icmp ne i32 %conv75, 0
  br i1 %cmp76, label %if.then77, label %if.end79

if.then77:                                        ; preds = %if.end69
  %64 = load i32, i32* %neighboursqu, align 4
  %inc78 = add nsw i32 %64, 1
  store i32 %inc78, i32* %neighboursqu, align 4
  br label %if.end79

if.end79:                                         ; preds = %if.then77, %if.end69
  %65 = load i32, i32* %index, align 4
  %66 = load i32, i32* %yoffset, align 4
  %add80 = add nsw i32 %65, %66
  store i32 %add80, i32* %index1, align 4
  %maparp81 = getelementptr inbounds %class.wayobj, %class.wayobj* %this1, i32 0, i32 17
  %67 = load i16*, i16** %maparp81, align 8
  %68 = load i32, i32* %index1, align 4
  %idxprom82 = sext i32 %68 to i64
  %arrayidx83 = getelementptr inbounds i16, i16* %67, i64 %idxprom82
  %69 = load i16, i16* %arrayidx83, align 2
  %conv84 = sext i16 %69 to i32
  %cmp85 = icmp ne i32 %conv84, 0
  br i1 %cmp85, label %if.then86, label %if.end88

if.then86:                                        ; preds = %if.end79
  %70 = load i32, i32* %neighboursqu, align 4
  %inc87 = add nsw i32 %70, 1
  store i32 %inc87, i32* %neighboursqu, align 4
  br label %if.end88

if.end88:                                         ; preds = %if.then86, %if.end79
  %71 = load i32, i32* %index, align 4
  %72 = load i32, i32* %yoffset, align 4
  %add89 = add nsw i32 %71, %72
  %add90 = add nsw i32 %add89, 1
  store i32 %add90, i32* %index1, align 4
  %maparp91 = getelementptr inbounds %class.wayobj, %class.wayobj* %this1, i32 0, i32 17
  %73 = load i16*, i16** %maparp91, align 8
  %74 = load i32, i32* %index1, align 4
  %idxprom92 = sext i32 %74 to i64
  %arrayidx93 = getelementptr inbounds i16, i16* %73, i64 %idxprom92
  %75 = load i16, i16* %arrayidx93, align 2
  %conv94 = sext i16 %75 to i32
  %cmp95 = icmp ne i32 %conv94, 0
  br i1 %cmp95, label %if.then96, label %if.end98

if.then96:                                        ; preds = %if.end88
  %76 = load i32, i32* %neighboursqu, align 4
  %inc97 = add nsw i32 %76, 1
  store i32 %inc97, i32* %neighboursqu, align 4
  br label %if.end98

if.end98:                                         ; preds = %if.then96, %if.end88
  %77 = load i32, i32* %neighboursqu, align 4
  %78 = load i32, i32* %minneighbourcoef, align 4
  %cmp99 = icmp sge i32 %77, %78
  br i1 %cmp99, label %if.then100, label %if.end109

if.then100:                                       ; preds = %if.end98
  %79 = load i32, i32* %index, align 4
  %call101 = call i32 @_ZN6wayobj6indexxEi(%class.wayobj* %this1, i32 %79)
  %conv102 = trunc i32 %call101 to i16
  %x103 = getelementptr inbounds %struct.levelplacet, %struct.levelplacet* %place, i32 0, i32 0
  store i16 %conv102, i16* %x103, align 4
  %80 = load i32, i32* %index, align 4
  %call104 = call i32 @_ZN6wayobj6indexyEi(%class.wayobj* %this1, i32 %80)
  %conv105 = trunc i32 %call104 to i16
  %y106 = getelementptr inbounds %struct.levelplacet, %struct.levelplacet* %place, i32 0, i32 1
  store i16 %conv105, i16* %y106, align 2
  %81 = load i32, i32* %neighboursqu, align 4
  %conv107 = sitofp i32 %81 to float
  %mul108 = fmul float %conv107, 1.250000e-01
  %hiding = getelementptr inbounds %struct.levelplacet, %struct.levelplacet* %place, i32 0, i32 4
  store float %mul108, float* %hiding, align 4
  call void @_ZN9flexarrayI11levelplacetE3addERKS0_(%class.flexarray.10* %contour, %struct.levelplacet* dereferenceable(16) %place)
  br label %if.end109

if.end109:                                        ; preds = %if.then100, %if.end98
  br label %if.end110

if.end110:                                        ; preds = %if.end109, %for.body21
  br label %for.inc

for.inc:                                          ; preds = %if.end110
  %82 = load i32, i32* %x, align 4
  %inc111 = add nsw i32 %82, 1
  store i32 %inc111, i32* %x, align 4
  br label %for.cond19

for.end:                                          ; preds = %for.cond19
  br label %for.inc112

for.inc112:                                       ; preds = %for.end
  %83 = load i32, i32* %y, align 4
  %inc113 = add nsw i32 %83, 1
  store i32 %inc113, i32* %y, align 4
  br label %for.cond

for.end114:                                       ; preds = %for.cond
  %84 = load i32, i32* %minneighbourcoef, align 4
  %dec = add nsw i32 %84, -1
  store i32 %dec, i32* %minneighbourcoef, align 4
  br label %do.cond

do.cond:                                          ; preds = %for.end114
  %elemqu = getelementptr inbounds %class.flexarray.10, %class.flexarray.10* %contour, i32 0, i32 1
  %85 = load i32, i32* %elemqu, align 8
  %86 = load i32, i32* %minpointqu.addr, align 4
  %cmp115 = icmp slt i32 %85, %86
  br i1 %cmp115, label %land.rhs, label %land.end

land.rhs:                                         ; preds = %do.cond
  %87 = load i32, i32* %minneighbourcoef, align 4
  %cmp116 = icmp sge i32 %87, -1
  br label %land.end

land.end:                                         ; preds = %land.rhs, %do.cond
  %88 = phi i1 [ false, %do.cond ], [ %cmp116, %land.rhs ]
  br i1 %88, label %do.body, label %do.end

do.end:                                           ; preds = %land.end
  %89 = load i32, i32* %minneighbourcoef, align 4
  %cmp117 = icmp slt i32 %89, -1
  br i1 %cmp117, label %if.then118, label %if.end119

if.then118:                                       ; preds = %do.end
  call void @_ZN9flexarrayI11levelplacetE7destroyEv(%class.flexarray.10* %contour)
  store %struct.levelplacet* null, %struct.levelplacet** %retval, align 8
  br label %return

if.end119:                                        ; preds = %do.end
  %elemqu120 = getelementptr inbounds %class.flexarray.10, %class.flexarray.10* %contour, i32 0, i32 1
  %90 = load i32, i32* %elemqu120, align 8
  %91 = load i32*, i32** %pointqu.addr, align 8
  store i32 %90, i32* %91, align 4
  %92 = load i32*, i32** %pointqu.addr, align 8
  %93 = load i32, i32* %92, align 4
  %94 = sext i32 %93 to i64
  %95 = call { i64, i1 } @llvm.umul.with.overflow.i64(i64 %94, i64 16)
  %96 = extractvalue { i64, i1 } %95, 1
  %97 = extractvalue { i64, i1 } %95, 0
  %98 = select i1 %96, i64 -1, i64 %97
  %call121 = call i8* @_Znam(i64 %98) #11
  %99 = bitcast i8* %call121 to %struct.levelplacet*
  store %struct.levelplacet* %99, %struct.levelplacet** %placearp, align 8
  store i32 0, i32* %i, align 4
  br label %for.cond122

for.cond122:                                      ; preds = %for.inc178, %if.end119
  %100 = load i32, i32* %i, align 4
  %101 = load i32*, i32** %pointqu.addr, align 8
  %102 = load i32, i32* %101, align 4
  %cmp123 = icmp slt i32 %100, %102
  br i1 %cmp123, label %for.body124, label %for.end180

for.body124:                                      ; preds = %for.cond122
  %ep = getelementptr inbounds %class.flexarray.10, %class.flexarray.10* %contour, i32 0, i32 0
  %103 = load %struct.levelplacet*, %struct.levelplacet** %ep, align 8
  %104 = load i32, i32* %i, align 4
  %idxprom125 = sext i32 %104 to i64
  %arrayidx126 = getelementptr inbounds %struct.levelplacet, %struct.levelplacet* %103, i64 %idxprom125
  %x127 = getelementptr inbounds %struct.levelplacet, %struct.levelplacet* %arrayidx126, i32 0, i32 0
  %105 = load i16, i16* %x127, align 4
  %106 = load %struct.levelplacet*, %struct.levelplacet** %placearp, align 8
  %107 = load i32, i32* %i, align 4
  %idxprom128 = sext i32 %107 to i64
  %arrayidx129 = getelementptr inbounds %struct.levelplacet, %struct.levelplacet* %106, i64 %idxprom128
  %x130 = getelementptr inbounds %struct.levelplacet, %struct.levelplacet* %arrayidx129, i32 0, i32 0
  store i16 %105, i16* %x130, align 4
  %ep131 = getelementptr inbounds %class.flexarray.10, %class.flexarray.10* %contour, i32 0, i32 0
  %108 = load %struct.levelplacet*, %struct.levelplacet** %ep131, align 8
  %109 = load i32, i32* %i, align 4
  %idxprom132 = sext i32 %109 to i64
  %arrayidx133 = getelementptr inbounds %struct.levelplacet, %struct.levelplacet* %108, i64 %idxprom132
  %y134 = getelementptr inbounds %struct.levelplacet, %struct.levelplacet* %arrayidx133, i32 0, i32 1
  %110 = load i16, i16* %y134, align 2
  %111 = load %struct.levelplacet*, %struct.levelplacet** %placearp, align 8
  %112 = load i32, i32* %i, align 4
  %idxprom135 = sext i32 %112 to i64
  %arrayidx136 = getelementptr inbounds %struct.levelplacet, %struct.levelplacet* %111, i64 %idxprom135
  %y137 = getelementptr inbounds %struct.levelplacet, %struct.levelplacet* %arrayidx136, i32 0, i32 1
  store i16 %110, i16* %y137, align 2
  %info = getelementptr inbounds %class.wayobj, %class.wayobj* %this1, i32 0, i32 14
  %minx = getelementptr inbounds %struct.createwaymnginfot, %struct.createwaymnginfot* %info, i32 0, i32 0
  %113 = load float, float* %minx, align 8
  %cellr = getelementptr inbounds %class.wayobj, %class.wayobj* %this1, i32 0, i32 13
  %114 = load float, float* %cellr, align 4
  %add138 = fadd float %113, %114
  %115 = load %struct.levelplacet*, %struct.levelplacet** %placearp, align 8
  %116 = load i32, i32* %i, align 4
  %idxprom139 = sext i32 %116 to i64
  %arrayidx140 = getelementptr inbounds %struct.levelplacet, %struct.levelplacet* %115, i64 %idxprom139
  %x141 = getelementptr inbounds %struct.levelplacet, %struct.levelplacet* %arrayidx140, i32 0, i32 0
  %117 = load i16, i16* %x141, align 4
  %conv142 = sitofp i16 %117 to float
  %info143 = getelementptr inbounds %class.wayobj, %class.wayobj* %this1, i32 0, i32 14
  %maxx = getelementptr inbounds %struct.createwaymnginfot, %struct.createwaymnginfot* %info143, i32 0, i32 1
  %118 = load float, float* %maxx, align 4
  %info144 = getelementptr inbounds %class.wayobj, %class.wayobj* %this1, i32 0, i32 14
  %minx145 = getelementptr inbounds %struct.createwaymnginfot, %struct.createwaymnginfot* %info144, i32 0, i32 0
  %119 = load float, float* %minx145, align 8
  %sub146 = fsub float %118, %119
  %mul147 = fmul float %conv142, %sub146
  %maplx148 = getelementptr inbounds %class.wayobj, %class.wayobj* %this1, i32 0, i32 7
  %120 = load i32, i32* %maplx148, align 4
  %conv149 = sitofp i32 %120 to float
  %div = fdiv float %mul147, %conv149
  %add150 = fadd float %add138, %div
  %121 = load %struct.levelplacet*, %struct.levelplacet** %placearp, align 8
  %122 = load i32, i32* %i, align 4
  %idxprom151 = sext i32 %122 to i64
  %arrayidx152 = getelementptr inbounds %struct.levelplacet, %struct.levelplacet* %121, i64 %idxprom151
  %rx = getelementptr inbounds %struct.levelplacet, %struct.levelplacet* %arrayidx152, i32 0, i32 2
  store float %add150, float* %rx, align 4
  %info153 = getelementptr inbounds %class.wayobj, %class.wayobj* %this1, i32 0, i32 14
  %miny = getelementptr inbounds %struct.createwaymnginfot, %struct.createwaymnginfot* %info153, i32 0, i32 2
  %123 = load float, float* %miny, align 8
  %cellr154 = getelementptr inbounds %class.wayobj, %class.wayobj* %this1, i32 0, i32 13
  %124 = load float, float* %cellr154, align 4
  %add155 = fadd float %123, %124
  %125 = load %struct.levelplacet*, %struct.levelplacet** %placearp, align 8
  %126 = load i32, i32* %i, align 4
  %idxprom156 = sext i32 %126 to i64
  %arrayidx157 = getelementptr inbounds %struct.levelplacet, %struct.levelplacet* %125, i64 %idxprom156
  %y158 = getelementptr inbounds %struct.levelplacet, %struct.levelplacet* %arrayidx157, i32 0, i32 1
  %127 = load i16, i16* %y158, align 2
  %conv159 = sitofp i16 %127 to float
  %info160 = getelementptr inbounds %class.wayobj, %class.wayobj* %this1, i32 0, i32 14
  %maxy = getelementptr inbounds %struct.createwaymnginfot, %struct.createwaymnginfot* %info160, i32 0, i32 3
  %128 = load float, float* %maxy, align 4
  %info161 = getelementptr inbounds %class.wayobj, %class.wayobj* %this1, i32 0, i32 14
  %miny162 = getelementptr inbounds %struct.createwaymnginfot, %struct.createwaymnginfot* %info161, i32 0, i32 2
  %129 = load float, float* %miny162, align 8
  %sub163 = fsub float %128, %129
  %mul164 = fmul float %conv159, %sub163
  %maply165 = getelementptr inbounds %class.wayobj, %class.wayobj* %this1, i32 0, i32 8
  %130 = load i32, i32* %maply165, align 8
  %conv166 = sitofp i32 %130 to float
  %div167 = fdiv float %mul164, %conv166
  %add168 = fadd float %add155, %div167
  %131 = load %struct.levelplacet*, %struct.levelplacet** %placearp, align 8
  %132 = load i32, i32* %i, align 4
  %idxprom169 = sext i32 %132 to i64
  %arrayidx170 = getelementptr inbounds %struct.levelplacet, %struct.levelplacet* %131, i64 %idxprom169
  %ry = getelementptr inbounds %struct.levelplacet, %struct.levelplacet* %arrayidx170, i32 0, i32 3
  store float %add168, float* %ry, align 4
  %ep171 = getelementptr inbounds %class.flexarray.10, %class.flexarray.10* %contour, i32 0, i32 0
  %133 = load %struct.levelplacet*, %struct.levelplacet** %ep171, align 8
  %134 = load i32, i32* %i, align 4
  %idxprom172 = sext i32 %134 to i64
  %arrayidx173 = getelementptr inbounds %struct.levelplacet, %struct.levelplacet* %133, i64 %idxprom172
  %hiding174 = getelementptr inbounds %struct.levelplacet, %struct.levelplacet* %arrayidx173, i32 0, i32 4
  %135 = load float, float* %hiding174, align 4
  %136 = load %struct.levelplacet*, %struct.levelplacet** %placearp, align 8
  %137 = load i32, i32* %i, align 4
  %idxprom175 = sext i32 %137 to i64
  %arrayidx176 = getelementptr inbounds %struct.levelplacet, %struct.levelplacet* %136, i64 %idxprom175
  %hiding177 = getelementptr inbounds %struct.levelplacet, %struct.levelplacet* %arrayidx176, i32 0, i32 4
  store float %135, float* %hiding177, align 4
  br label %for.inc178

for.inc178:                                       ; preds = %for.body124
  %138 = load i32, i32* %i, align 4
  %inc179 = add nsw i32 %138, 1
  store i32 %inc179, i32* %i, align 4
  br label %for.cond122

for.end180:                                       ; preds = %for.cond122
  call void @_ZN9flexarrayI11levelplacetE7destroyEv(%class.flexarray.10* %contour)
  %139 = load %struct.levelplacet*, %struct.levelplacet** %placearp, align 8
  store %struct.levelplacet* %139, %struct.levelplacet** %retval, align 8
  br label %return

return:                                           ; preds = %for.end180, %if.then118, %if.then11
  %140 = load %struct.levelplacet*, %struct.levelplacet** %retval, align 8
  ret %struct.levelplacet* %140
}

; Function Attrs: noinline uwtable
define linkonce_odr void @_ZN9flexarrayI11levelplacetE6createEi(%class.flexarray.10* %this, i32 %maxelemquin) #0 comdat align 2 {
entry:
  %this.addr = alloca %class.flexarray.10*, align 8
  %maxelemquin.addr = alloca i32, align 4
  store %class.flexarray.10* %this, %class.flexarray.10** %this.addr, align 8
  store i32 %maxelemquin, i32* %maxelemquin.addr, align 4
  %this1 = load %class.flexarray.10*, %class.flexarray.10** %this.addr, align 8
  %0 = load i32, i32* %maxelemquin.addr, align 4
  %maxelemqu = getelementptr inbounds %class.flexarray.10, %class.flexarray.10* %this1, i32 0, i32 2
  store i32 %0, i32* %maxelemqu, align 4
  %elemqu = getelementptr inbounds %class.flexarray.10, %class.flexarray.10* %this1, i32 0, i32 1
  store i32 0, i32* %elemqu, align 8
  %maxelemqu2 = getelementptr inbounds %class.flexarray.10, %class.flexarray.10* %this1, i32 0, i32 2
  %1 = load i32, i32* %maxelemqu2, align 4
  %conv = sext i32 %1 to i64
  %mul = mul i64 %conv, 16
  %conv3 = trunc i64 %mul to i32
  %call = call i8* @_Z15_aligned_mallocii(i32 %conv3, i32 16)
  %2 = bitcast i8* %call to %struct.levelplacet*
  %ep = getelementptr inbounds %class.flexarray.10, %class.flexarray.10* %this1, i32 0, i32 0
  store %struct.levelplacet* %2, %struct.levelplacet** %ep, align 8
  ret void
}

; Function Attrs: noinline nounwind uwtable
define linkonce_odr void @_ZN9flexarrayI11levelplacetE5clearEv(%class.flexarray.10* %this) #2 comdat align 2 {
entry:
  %this.addr = alloca %class.flexarray.10*, align 8
  store %class.flexarray.10* %this, %class.flexarray.10** %this.addr, align 8
  %this1 = load %class.flexarray.10*, %class.flexarray.10** %this.addr, align 8
  %elemqu = getelementptr inbounds %class.flexarray.10, %class.flexarray.10* %this1, i32 0, i32 1
  store i32 0, i32* %elemqu, align 8
  ret void
}

; Function Attrs: noinline uwtable
define linkonce_odr void @_ZN9flexarrayI11levelplacetE3addERKS0_(%class.flexarray.10* %this, %struct.levelplacet* dereferenceable(16) %e) #0 comdat align 2 {
entry:
  %this.addr = alloca %class.flexarray.10*, align 8
  %e.addr = alloca %struct.levelplacet*, align 8
  store %class.flexarray.10* %this, %class.flexarray.10** %this.addr, align 8
  store %struct.levelplacet* %e, %struct.levelplacet** %e.addr, align 8
  %this1 = load %class.flexarray.10*, %class.flexarray.10** %this.addr, align 8
  %elemqu = getelementptr inbounds %class.flexarray.10, %class.flexarray.10* %this1, i32 0, i32 1
  %0 = load i32, i32* %elemqu, align 8
  %maxelemqu = getelementptr inbounds %class.flexarray.10, %class.flexarray.10* %this1, i32 0, i32 2
  %1 = load i32, i32* %maxelemqu, align 4
  %cmp = icmp eq i32 %0, %1
  br i1 %cmp, label %if.then, label %if.end

if.then:                                          ; preds = %entry
  call void @_ZN9flexarrayI11levelplacetE8doublingEb(%class.flexarray.10* %this1, i1 zeroext true)
  br label %if.end

if.end:                                           ; preds = %if.then, %entry
  %2 = load %struct.levelplacet*, %struct.levelplacet** %e.addr, align 8
  %ep = getelementptr inbounds %class.flexarray.10, %class.flexarray.10* %this1, i32 0, i32 0
  %3 = load %struct.levelplacet*, %struct.levelplacet** %ep, align 8
  %elemqu2 = getelementptr inbounds %class.flexarray.10, %class.flexarray.10* %this1, i32 0, i32 1
  %4 = load i32, i32* %elemqu2, align 8
  %idxprom = sext i32 %4 to i64
  %arrayidx = getelementptr inbounds %struct.levelplacet, %struct.levelplacet* %3, i64 %idxprom
  %5 = bitcast %struct.levelplacet* %arrayidx to i8*
  %6 = bitcast %struct.levelplacet* %2 to i8*
  call void @llvm.memcpy.p0i8.p0i8.i64(i8* %5, i8* %6, i64 16, i32 4, i1 false)
  %elemqu3 = getelementptr inbounds %class.flexarray.10, %class.flexarray.10* %this1, i32 0, i32 1
  %7 = load i32, i32* %elemqu3, align 8
  %inc = add nsw i32 %7, 1
  store i32 %inc, i32* %elemqu3, align 8
  ret void
}

; Function Attrs: noinline nounwind uwtable
define linkonce_odr void @_ZN9flexarrayI11levelplacetE7destroyEv(%class.flexarray.10* %this) #2 comdat align 2 {
entry:
  %this.addr = alloca %class.flexarray.10*, align 8
  store %class.flexarray.10* %this, %class.flexarray.10** %this.addr, align 8
  %this1 = load %class.flexarray.10*, %class.flexarray.10** %this.addr, align 8
  %ep = getelementptr inbounds %class.flexarray.10, %class.flexarray.10* %this1, i32 0, i32 0
  %0 = load %struct.levelplacet*, %struct.levelplacet** %ep, align 8
  %1 = bitcast %struct.levelplacet* %0 to i8*
  call void @_Z13_aligned_freePv(i8* %1)
  ret void
}

; Function Attrs: noinline nounwind uwtable
define linkonce_odr void @_Z13_aligned_freePv(i8* %p) #2 comdat {
entry:
  %p.addr = alloca i8*, align 8
  store i8* %p, i8** %p.addr, align 8
  %0 = load i8*, i8** %p.addr, align 8
  call void @free(i8* %0) #10
  ret void
}

; Function Attrs: noinline uwtable
define linkonce_odr void @_ZN9flexarrayI11levelplacetE8doublingEb(%class.flexarray.10* %this, i1 zeroext %flcopy) #0 comdat align 2 {
entry:
  %this.addr = alloca %class.flexarray.10*, align 8
  %flcopy.addr = alloca i8, align 1
  %newep = alloca %struct.levelplacet*, align 8
  %newelemqu = alloca i32, align 4
  store %class.flexarray.10* %this, %class.flexarray.10** %this.addr, align 8
  %frombool = zext i1 %flcopy to i8
  store i8 %frombool, i8* %flcopy.addr, align 1
  %this1 = load %class.flexarray.10*, %class.flexarray.10** %this.addr, align 8
  %maxelemqu = getelementptr inbounds %class.flexarray.10, %class.flexarray.10* %this1, i32 0, i32 2
  %0 = load i32, i32* %maxelemqu, align 4
  %shl = shl i32 %0, 1
  store i32 %shl, i32* %newelemqu, align 4
  %1 = load i32, i32* %newelemqu, align 4
  %conv = sext i32 %1 to i64
  %mul = mul i64 %conv, 16
  %conv2 = trunc i64 %mul to i32
  %call = call i8* @_Z15_aligned_mallocii(i32 %conv2, i32 16)
  %2 = bitcast i8* %call to %struct.levelplacet*
  store %struct.levelplacet* %2, %struct.levelplacet** %newep, align 8
  %3 = load i8, i8* %flcopy.addr, align 1
  %tobool = trunc i8 %3 to i1
  br i1 %tobool, label %if.then, label %if.end

if.then:                                          ; preds = %entry
  %4 = load %struct.levelplacet*, %struct.levelplacet** %newep, align 8
  %5 = bitcast %struct.levelplacet* %4 to i8*
  %ep = getelementptr inbounds %class.flexarray.10, %class.flexarray.10* %this1, i32 0, i32 0
  %6 = load %struct.levelplacet*, %struct.levelplacet** %ep, align 8
  %7 = bitcast %struct.levelplacet* %6 to i8*
  %maxelemqu3 = getelementptr inbounds %class.flexarray.10, %class.flexarray.10* %this1, i32 0, i32 2
  %8 = load i32, i32* %maxelemqu3, align 4
  %conv4 = sext i32 %8 to i64
  %mul5 = mul i64 %conv4, 16
  call void @llvm.memcpy.p0i8.p0i8.i64(i8* %5, i8* %7, i64 %mul5, i32 4, i1 false)
  br label %if.end

if.end:                                           ; preds = %if.then, %entry
  %ep6 = getelementptr inbounds %class.flexarray.10, %class.flexarray.10* %this1, i32 0, i32 0
  %9 = load %struct.levelplacet*, %struct.levelplacet** %ep6, align 8
  %10 = bitcast %struct.levelplacet* %9 to i8*
  call void @_Z13_aligned_freePv(i8* %10)
  %11 = load %struct.levelplacet*, %struct.levelplacet** %newep, align 8
  %ep7 = getelementptr inbounds %class.flexarray.10, %class.flexarray.10* %this1, i32 0, i32 0
  store %struct.levelplacet* %11, %struct.levelplacet** %ep7, align 8
  %12 = load i32, i32* %newelemqu, align 4
  %maxelemqu8 = getelementptr inbounds %class.flexarray.10, %class.flexarray.10* %this1, i32 0, i32 2
  store i32 %12, i32* %maxelemqu8, align 4
  ret void
}

; Function Attrs: noinline nounwind uwtable
define linkonce_odr i8* @_Z15_aligned_mallocii(i32 %size, i32 %align) #2 comdat {
entry:
  %size.addr = alloca i32, align 4
  %align.addr = alloca i32, align 4
  store i32 %size, i32* %size.addr, align 4
  store i32 %align, i32* %align.addr, align 4
  %0 = load i32, i32* %size.addr, align 4
  %conv = sext i32 %0 to i64
  %call = call noalias i8* @malloc(i64 %conv) #10
  ret i8* %call
}

; Function Attrs: noinline uwtable
define zeroext i1 @_ZN6wayobj16findverticallineEiiRiS0_(%class.wayobj* %this, i32 %x, i32 %y, i32* dereferenceable(4) %y1, i32* dereferenceable(4) %y2) #0 align 2 {
entry:
  %this.addr = alloca %class.wayobj*, align 8
  %x.addr = alloca i32, align 4
  %y.addr = alloca i32, align 4
  %y1.addr = alloca i32*, align 8
  %y2.addr = alloca i32*, align 8
  %yy = alloca i32, align 4
  store %class.wayobj* %this, %class.wayobj** %this.addr, align 8
  store i32 %x, i32* %x.addr, align 4
  store i32 %y, i32* %y.addr, align 4
  store i32* %y1, i32** %y1.addr, align 8
  store i32* %y2, i32** %y2.addr, align 8
  %this1 = load %class.wayobj*, %class.wayobj** %this.addr, align 8
  %0 = load i32, i32* %y.addr, align 4
  %1 = load i32*, i32** %y1.addr, align 8
  store i32 %0, i32* %1, align 4
  %2 = load i32, i32* %y.addr, align 4
  %3 = load i32*, i32** %y2.addr, align 8
  store i32 %2, i32* %3, align 4
  %4 = load i32, i32* %y.addr, align 4
  store i32 %4, i32* %yy, align 4
  br label %for.cond

for.cond:                                         ; preds = %for.inc, %entry
  %5 = load i32, i32* %yy, align 4
  %maply = getelementptr inbounds %class.wayobj, %class.wayobj* %this1, i32 0, i32 8
  %6 = load i32, i32* %maply, align 8
  %cmp = icmp slt i32 %5, %6
  br i1 %cmp, label %for.body, label %for.end

for.body:                                         ; preds = %for.cond
  %7 = load i32, i32* %x.addr, align 4
  %8 = load i32, i32* %yy, align 4
  %call = call dereferenceable(2) i16* @_ZN6wayobj3mapEii(%class.wayobj* %this1, i32 %7, i32 %8)
  %9 = load i16, i16* %call, align 2
  %conv = sext i16 %9 to i32
  %cmp2 = icmp ne i32 %conv, 0
  br i1 %cmp2, label %if.then, label %if.end

if.then:                                          ; preds = %for.body
  %10 = load i32, i32* %yy, align 4
  %11 = load i32*, i32** %y2.addr, align 8
  store i32 %10, i32* %11, align 4
  br label %for.end

if.end:                                           ; preds = %for.body
  br label %for.inc

for.inc:                                          ; preds = %if.end
  %12 = load i32, i32* %yy, align 4
  %inc = add nsw i32 %12, 1
  store i32 %inc, i32* %yy, align 4
  br label %for.cond

for.end:                                          ; preds = %if.then, %for.cond
  %13 = load i32, i32* %y.addr, align 4
  store i32 %13, i32* %yy, align 4
  br label %for.cond3

for.cond3:                                        ; preds = %for.inc11, %for.end
  %14 = load i32, i32* %yy, align 4
  %cmp4 = icmp sgt i32 %14, 0
  br i1 %cmp4, label %for.body5, label %for.end12

for.body5:                                        ; preds = %for.cond3
  %15 = load i32, i32* %x.addr, align 4
  %16 = load i32, i32* %yy, align 4
  %call6 = call dereferenceable(2) i16* @_ZN6wayobj3mapEii(%class.wayobj* %this1, i32 %15, i32 %16)
  %17 = load i16, i16* %call6, align 2
  %conv7 = sext i16 %17 to i32
  %cmp8 = icmp ne i32 %conv7, 0
  br i1 %cmp8, label %if.then9, label %if.end10

if.then9:                                         ; preds = %for.body5
  %18 = load i32, i32* %yy, align 4
  %19 = load i32*, i32** %y1.addr, align 8
  store i32 %18, i32* %19, align 4
  br label %for.end12

if.end10:                                         ; preds = %for.body5
  br label %for.inc11

for.inc11:                                        ; preds = %if.end10
  %20 = load i32, i32* %yy, align 4
  %dec = add nsw i32 %20, -1
  store i32 %dec, i32* %yy, align 4
  br label %for.cond3

for.end12:                                        ; preds = %if.then9, %for.cond3
  ret i1 true
}

; Function Attrs: noinline nounwind uwtable
define float @_Z8myrandomv() #2 {
entry:
  %x1 = alloca float, align 4
  %x2 = alloca float, align 4
  %x3 = alloca float, align 4
  %0 = load i32, i32* @_ZL5y1rnd, align 4
  %mul = mul nsw i32 171, %0
  %rem = srem i32 %mul, 30269
  store i32 %rem, i32* @_ZL5y1rnd, align 4
  %1 = load i32, i32* @_ZL5y2rnd, align 4
  %mul1 = mul nsw i32 172, %1
  %rem2 = srem i32 %mul1, 30307
  store i32 %rem2, i32* @_ZL5y2rnd, align 4
  %2 = load i32, i32* @_ZL5y3rnd, align 4
  %mul3 = mul nsw i32 170, %2
  %rem4 = srem i32 %mul3, 30323
  store i32 %rem4, i32* @_ZL5y3rnd, align 4
  %3 = load i32, i32* @_ZL5y1rnd, align 4
  %conv = sitofp i32 %3 to float
  store float %conv, float* %x1, align 4
  %4 = load float, float* %x1, align 4
  %mul5 = fmul float %4, 0x3F01522A20000000
  store float %mul5, float* %x1, align 4
  %5 = load i32, i32* @_ZL5y2rnd, align 4
  %conv6 = sitofp i32 %5 to float
  store float %conv6, float* %x2, align 4
  %6 = load float, float* %x2, align 4
  %mul7 = fmul float %6, 0x3F014C9AE0000000
  store float %mul7, float* %x2, align 4
  %7 = load i32, i32* @_ZL5y3rnd, align 4
  %conv8 = sitofp i32 %7 to float
  store float %conv8, float* %x3, align 4
  %8 = load float, float* %x3, align 4
  %mul9 = fmul float %8, 0x3F014A44A0000000
  store float %mul9, float* %x3, align 4
  %9 = load float, float* %x1, align 4
  %10 = load float, float* %x2, align 4
  %add = fadd float %9, %10
  %11 = load float, float* %x3, align 4
  %add10 = fadd float %add, %11
  %12 = load float, float* %x1, align 4
  %13 = load float, float* %x2, align 4
  %add11 = fadd float %12, %13
  %14 = load float, float* %x3, align 4
  %add12 = fadd float %add11, %14
  %conv13 = fptosi float %add12 to i32
  %conv14 = sitofp i32 %conv13 to float
  %sub = fsub float %add10, %conv14
  ret float %sub
}

; Function Attrs: noinline nounwind uwtable
define float @_Z8myrandomff(float %lo, float %hi) #2 {
entry:
  %lo.addr = alloca float, align 4
  %hi.addr = alloca float, align 4
  store float %lo, float* %lo.addr, align 4
  store float %hi, float* %hi.addr, align 4
  %0 = load float, float* %hi.addr, align 4
  %1 = load float, float* %lo.addr, align 4
  %sub = fsub float %0, %1
  %call = call float @_Z8myrandomv()
  %mul = fmul float %sub, %call
  %2 = load float, float* %lo.addr, align 4
  %add = fadd float %mul, %2
  ret float %add
}

; Function Attrs: noinline nounwind uwtable
define i32 @_Z8myrandomii(i32 %lo, i32 %hi) #2 {
entry:
  %lo.addr = alloca i32, align 4
  %hi.addr = alloca i32, align 4
  store i32 %lo, i32* %lo.addr, align 4
  store i32 %hi, i32* %hi.addr, align 4
  %0 = load i32, i32* %hi.addr, align 4
  %1 = load i32, i32* %lo.addr, align 4
  %sub = sub nsw i32 %0, %1
  %add = add nsw i32 %sub, 1
  %conv = sitofp i32 %add to float
  %call = call float @_Z8myrandomv()
  %mul = fmul float %conv, %call
  %conv1 = fptosi float %mul to i32
  %2 = load i32, i32* %lo.addr, align 4
  %add2 = add nsw i32 %conv1, %2
  ret i32 %add2
}

; Function Attrs: noinline nounwind uwtable
define i32 @_Z7random1i(i32 %max) #2 {
entry:
  %max.addr = alloca i32, align 4
  store i32 %max, i32* %max.addr, align 4
  %call = call float @_Z8myrandomv()
  %0 = load i32, i32* %max.addr, align 4
  %conv = sitofp i32 %0 to float
  %mul = fmul float %call, %conv
  %conv1 = fptosi float %mul to i32
  ret i32 %conv1
}

; Function Attrs: noinline nounwind uwtable
define void @_Z10initrandomv() #2 {
entry:
  store i32 1023, i32* @_ZL5y1rnd, align 4
  store i32 11, i32* @_ZL5y2rnd, align 4
  store i32 3007, i32* @_ZL5y3rnd, align 4
  ret void
}

; Function Attrs: noinline uwtable
define void @_ZN9regmngobj10addtoboundER9flexarrayI6pointtEii(%class.regmngobj* %this, %class.flexarray* dereferenceable(16) %barp, i32 %x, i32 %y) #0 align 2 {
entry:
  %this.addr = alloca %class.regmngobj*, align 8
  %barp.addr = alloca %class.flexarray*, align 8
  %x.addr = alloca i32, align 4
  %y.addr = alloca i32, align 4
  %flpassable = alloca i8, align 1
  %ref.tmp = alloca %struct.pointt, align 4
  store %class.regmngobj* %this, %class.regmngobj** %this.addr, align 8
  store %class.flexarray* %barp, %class.flexarray** %barp.addr, align 8
  store i32 %x, i32* %x.addr, align 4
  store i32 %y, i32* %y.addr, align 4
  %this1 = load %class.regmngobj*, %class.regmngobj** %this.addr, align 8
  %flpasablear = getelementptr inbounds %class.regmngobj, %class.regmngobj* %this1, i32 0, i32 8
  %0 = load i32, i32* %x.addr, align 4
  %1 = load i32, i32* %y.addr, align 4
  %call = call zeroext i8 @_ZN9regmngobj4mappEii(%class.regmngobj* %this1, i32 %0, i32 %1)
  %idxprom = zext i8 %call to i64
  %arrayidx = getelementptr inbounds [256 x i8], [256 x i8]* %flpasablear, i64 0, i64 %idxprom
  %2 = load i8, i8* %arrayidx, align 1
  %tobool = trunc i8 %2 to i1
  %frombool = zext i1 %tobool to i8
  store i8 %frombool, i8* %flpassable, align 1
  %3 = load i8, i8* %flpassable, align 1
  %tobool2 = trunc i8 %3 to i1
  br i1 %tobool2, label %land.lhs.true, label %if.end

land.lhs.true:                                    ; preds = %entry
  %flfind = getelementptr inbounds %class.regmngobj, %class.regmngobj* %this1, i32 0, i32 4
  %4 = load i8, i8* %flfind, align 4
  %tobool3 = trunc i8 %4 to i1
  %conv = zext i1 %tobool3 to i32
  %cmp = icmp eq i32 %conv, 0
  br i1 %cmp, label %if.then, label %if.end

if.then:                                          ; preds = %land.lhs.true
  %5 = load i32, i32* %x.addr, align 4
  %freepointx = getelementptr inbounds %class.regmngobj, %class.regmngobj* %this1, i32 0, i32 2
  store i32 %5, i32* %freepointx, align 4
  %6 = load i32, i32* %y.addr, align 4
  %freepointy = getelementptr inbounds %class.regmngobj, %class.regmngobj* %this1, i32 0, i32 3
  store i32 %6, i32* %freepointy, align 8
  %flfind4 = getelementptr inbounds %class.regmngobj, %class.regmngobj* %this1, i32 0, i32 4
  store i8 1, i8* %flfind4, align 4
  br label %return

if.end:                                           ; preds = %land.lhs.true, %entry
  %7 = load i8, i8* %flpassable, align 1
  %tobool5 = trunc i8 %7 to i1
  br i1 %tobool5, label %if.end7, label %if.then6
