; ModuleID = 'test.bc'
source_filename = "llvm-link"
target datalayout = "e-m:e-i64:64-f80:128-n8:16:32:64-S128"
target triple = "x86_64-pc-linux-gnu-elf"
%union.anon = type { i64 }
%seg_400388__init_type = type <{ [23 x i8] }>
%seg_4003a0__text_type = type <{ [354 x i8] }>
%seg_400504__fini_type = type <{ [9 x i8] }>
%seg_400510__rodata_type = type <{ [4 x i8] }>
%seg_400514__eh_frame_hdr_type = type <{ [52 x i8] }>
%seg_400548__eh_frame_type = type <{ [208 x i8] }>
%seg_600e40__init_array_type = type <{ i64, i64 }>
%seg_601018__data_type = type <{ [16 x i8] }>
%__bss_start_type = type <{ [8 x i8] }>
%struct.State = type { %struct.ArchState, [32 x %union.VectorReg], %struct.ArithFlags, %union.anon, %struct.Segments, %struct.AddressSpace, %struct.GPR, %struct.X87Stack, %struct.MMX, %struct.FPUStatusFlags, %union.anon, %union.FPU, %struct.SegmentCaches }
%struct.ArchState = type { i32, i32, %union.anon }
%union.VectorReg = type { %union.vec512_t }
%union.vec512_t = type { %struct.uint64v8_t }
%struct.uint64v8_t = type { [8 x i64] }
%struct.ArithFlags = type { i8, i8, i8, i8, i8, i8, i8, i8, i8, i8, i8, i8, i8, i8, i8, i8 }
%struct.Segments = type { i16, %union.SegmentSelector, i16, %union.SegmentSelector, i16, %union.SegmentSelector, i16, %union.SegmentSelector, i16, %union.SegmentSelector, i16, %union.SegmentSelector }
%union.SegmentSelector = type { i16 }
%struct.AddressSpace = type { i64, %struct.Reg, i64, %struct.Reg, i64, %struct.Reg, i64, %struct.Reg, i64, %struct.Reg, i64, %struct.Reg }
%struct.Reg = type { %union.anon }
%struct.GPR = type { i64, %struct.Reg, i64, %struct.Reg, i64, %struct.Reg, i64, %struct.Reg, i64, %struct.Reg, i64, %struct.Reg, i64, %struct.Reg, i64, %struct.Reg, i64, %struct.Reg, i64, %struct.Reg, i64, %struct.Reg, i64, %struct.Reg, i64, %struct.Reg, i64, %struct.Reg, i64, %struct.Reg, i64, %struct.Reg, i64, %struct.Reg }
%struct.X87Stack = type { [8 x %struct.anon.3] }
%struct.anon.3 = type { i64, double }
%struct.MMX = type { [8 x %struct.anon.4] }
%struct.anon.4 = type { i64, %union.vec64_t }
%union.vec64_t = type { %struct.uint64v1_t }
%struct.uint64v1_t = type { [1 x i64] }
%struct.FPUStatusFlags = type { i8, i8, i8, i8, i8, i8, i8, i8, i8, i8, i8, i8, i8, i8, i8, i8, i8, i8, i8, i8, [4 x i8] }
%union.FPU = type { %struct.anon.13 }
%struct.anon.13 = type { %struct.FpuFXSAVE, [96 x i8] }
%struct.FpuFXSAVE = type { %union.SegmentSelector, %union.SegmentSelector, %union.FPUAbridgedTagWord, i8, i16, i32, %union.SegmentSelector, i16, i32, %union.SegmentSelector, i16, %union.FPUControlStatus, %union.FPUControlStatus, [8 x %struct.FPUStackElem], [16 x %union.vec128_t] }
%union.FPUAbridgedTagWord = type { i8 }
%union.FPUControlStatus = type { i32 }
%struct.FPUStackElem = type { %union.anon.11, [6 x i8] }
%union.anon.11 = type { %struct.float80_t }
%struct.float80_t = type { [10 x i8] }
%union.vec128_t = type { %struct.uint128v1_t }
%struct.uint128v1_t = type { [1 x i128] }
%struct.SegmentCaches = type { %struct.SegmentShadow, %struct.SegmentShadow, %struct.SegmentShadow, %struct.SegmentShadow, %struct.SegmentShadow, %struct.SegmentShadow }
%struct.SegmentShadow = type { %union.anon, i32, i32 }
%struct.Memory = type opaque
%struct.uint8v32_t = type { [32 x i8] }
%struct.anon.2 = type { i8, i8 }
%struct.int32v8_t = type { [8 x i32] }
%struct.float32v8_t = type { [8 x float] }
%struct.uint8v8_t = type { [8 x i8] }
%struct.uint8v16_t = type { [16 x i8] }
%struct.uint16v8_t = type { [8 x i16] }
%struct.uint8v4_t = type { [4 x i8] }
%struct.int16v4_t = type { [4 x i16] }
%struct.int32v4_t = type { [4 x i32] }
%struct.uint64v2_t = type { [2 x i64] }
%struct.uint64v4_t = type { [4 x i64] }
%struct.uint128v2_t = type { [2 x i128] }
%struct.uint16v16_t = type { [16 x i16] }
%struct.float64v4_t = type { [4 x double] }
%"class.(anonymous namespace)::BitMatrix" = type { %"class.std::bitset", [16 x [16 x i8]] }
%"class.std::bitset" = type { %struct.uint64v4_t }
%struct.bcd80_t = type { [9 x %union.FPUAbridgedTagWord], %union.FPUAbridgedTagWord }
%struct.FpuFSAVE = type { %union.SegmentSelector, i16, %union.SegmentSelector, i16, %union.SegmentSelector, i16, i32, %union.SegmentSelector, i16, i32, %union.SegmentSelector, i16, [8 x %struct.FPUStackElem] }
%struct.anon.5 = type { i32, i32 }
@switch.table = private unnamed_addr constant [4 x i32] [i32 2048, i32 3072, i32 0, i32 1024]
@DR0 = external global i64, align 8
@DR1 = external global i64, align 8
@DR2 = external global i64, align 8
@DR3 = external global i64, align 8
@DR4 = external global i64, align 8
@DR5 = external global i64, align 8
@DR6 = external global i64, align 8
@DR7 = external global i64, align 8
@gCR0 = external global %union.anon, align 1
@gCR1 = external global %union.anon, align 1
@gCR2 = external global %union.anon, align 1
@gCR3 = external global %union.anon, align 1
@gCR4 = external global %union.anon, align 1
@gCR8 = external global %union.anon, align 1
@seg_400388__init = internal constant %seg_400388__init_type <{ [23 x i8] c"H\83\EC\08H\8B\05e\0C \00H\85\C0t\02\FF\D0H\83\C4\08\C3" }>
@seg_4003a0__text = internal constant %seg_4003a0__text_type <{ [354 x i8] c"1\EDI\89\D1^H\89\E2H\83\E4\F0PTI\C7\C0\00\05@\00H\C7\C1\90\04@\00H\C7\C7\88\04@\00\FF\15&\0C \00\F4\0F\1FD\00\00\F3\C3f.\0F\1F\84\00\00\00\00\00\0F\1F@\00U\B8(\10`\00H=(\10`\00H\89\E5t\17\B8\00\00\00\00H\85\C0t\0D]\BF(\10`\00\FF\E0\0F\1FD\00\00]\C3f\0F\1FD\00\00\BE(\10`\00UH\81\EE(\10`\00H\89\E5H\C1\FE\03H\89\F0H\C1\E8?H\01\C6H\D1\FEt\15\B8\00\00\00\00H\85\C0t\0B]\BF(\10`\00\FF\E0\0F\1F\00]\C3f\0F\1FD\00\00\80=\D1\0B \00\00u\17UH\89\E5\E8~\FF\FF\FF\C6\05\BF\0B \00\01]\C3\0F\1FD\00\00\F3\C3\0F\1F@\00f.\0F\1F\84\00\00\00\00\00UH\89\E5]\EB\89\90U\C3f\0F\1FD\00\00AWAVI\89\D7AUATL\8D%\9E\09 \00UH\8D-\9E\09 \00SA\89\FDI\89\F6L)\E5H\83\EC\08H\C1\FD\03\E8\C7\FE\FF\FFH\85\EDt 1\DB\0F\1F\84\00\00\00\00\00L\89\FAL\89\F6D\89\EFA\FF\14\DCH\83\C3\01H9\DDu\EAH\83\C4\08[]A\5CA]A^A_\C3\90f.\0F\1F\84\00\00\00\00\00\F3\C3" }>
@seg_400504__fini = internal constant %seg_400504__fini_type <{ [9 x i8] c"H\83\EC\08H\83\C4\08\C3" }>
@seg_400510__rodata = internal constant %seg_400510__rodata_type <{ [4 x i8] c"\01\00\02\00" }>
@seg_400514__eh_frame_hdr = internal constant %seg_400514__eh_frame_hdr_type <{ [52 x i8] c"\01\1B\03;0\00\00\00\05\00\00\00\8C\FE\FF\FFL\00\00\00\BC\FE\FF\FFx\00\00\00t\FF\FF\FF\8C\00\00\00|\FF\FF\FF\A4\00\00\00\EC\FF\FF\FF\EC\00\00\00" }>
@seg_400548__eh_frame = internal constant %seg_400548__eh_frame_type <{ [208 x i8] c"\14\00\00\00\00\00\00\00\01zR\00\01x\10\01\1B\0C\07\08\90\01\07\10\10\00\00\00\1C\00\00\008\FE\FF\FF+\00\00\00\00\00\00\00\14\00\00\00\00\00\00\00\01zR\00\01x\10\01\1B\0C\07\08\90\01\00\00\10\00\00\00\1C\00\00\00<\FE\FF\FF\02\00\00\00\00\00\00\00\14\00\00\000\00\00\00\E0\FE\FF\FF\02\00\00\00\00\00\00\00\00\00\00\00D\00\00\00H\00\00\00\D0\FE\FF\FFe\00\00\00\00B\0E\10\8F\02B\0E\18\8E\03E\0E \8D\04B\0E(\8C\05H\0E0\86\06H\0E8\83\07M\0E@r\0E8A\0E0A\0E(B\0E B\0E\18B\0E\10B\0E\08\00\10\00\00\00\90\00\00\00\F8\FE\FF\FF\02\00\00\00\00\00\00\00\00\00\00\00" }>
@seg_601018__data = internal global %seg_601018__data_type zeroinitializer
@__bss_start = global %__bss_start_type zeroinitializer
@0 = internal global i1 false

; Function Declaraions
declare i32 @llvm.ctpop.i32(i32) #2
declare %struct.Memory* @__remill_error(%struct.State* dereferenceable(3376), i64, %struct.Memory*)


; Data Access Globals


define %struct.Memory* @init_array(%struct.State* noalias , i64, %struct.Memory* noalias) alwaysinline  {
entry:
  %3 = getelementptr inbounds %struct.State, %struct.State* %0, i64 0, i32 6, i32 33, i32 0, i32 0
  store i64 %1, i64* %3, align 8
  %BRANCH_TAKEN = alloca i8, align 1
  store i8 0, i8* %BRANCH_TAKEN, align 1
  %MEMORY = alloca %struct.Memory*, align 8
  store %struct.Memory* %2, %struct.Memory** %MEMORY, align 8

  ; Code: .init_array:	 RIP: 400bb0	 Bytes: 0
  ; Code: pushq %rbp	 RIP: 400bb0	 Bytes: 1
  %loadMem_400bb0 = load %struct.Memory*, %struct.Memory** %MEMORY
  %call_400bb0 = call %struct.Memory* @routine_pushq__rbp(%struct.State* %0, i64  0, %struct.Memory* %loadMem_400bb0)
  store %struct.Memory* %call_400bb0, %struct.Memory** %MEMORY

  ; Code: movq %rsp, %rbp	 RIP: 400bb1	 Bytes: 3
  %loadMem_400bb1 = load %struct.Memory*, %struct.Memory** %MEMORY
  %call_400bb1 = call %struct.Memory* @routine_movq__rsp___rbp(%struct.State* %0, i64  0, %struct.Memory* %loadMem_400bb1)
  store %struct.Memory* %call_400bb1, %struct.Memory** %MEMORY

  ; Code: movq 0x20(%rbp), %rax	 RIP: 400bb4	 Bytes: 4
  %loadMem_400bb4 = load %struct.Memory*, %struct.Memory** %MEMORY
  %call_400bb4 = call %struct.Memory* @routine_movq_0x20__rbp____rax(%struct.State* %0, i64  0, %struct.Memory* %loadMem_400bb4)
  store %struct.Memory* %call_400bb4, %struct.Memory** %MEMORY

  ; Code: movq 0x18(%rbp), %r10	 RIP: 400bb8	 Bytes: 4
  %loadMem_400bb8 = load %struct.Memory*, %struct.Memory** %MEMORY
  %call_400bb8 = call %struct.Memory* @routine_movq_0x18__rbp____r10(%struct.State* %0, i64  0, %struct.Memory* %loadMem_400bb8)
  store %struct.Memory* %call_400bb8, %struct.Memory** %MEMORY

  ; Code: movq 0x10(%rbp), %r11	 RIP: 400bbc	 Bytes: 4
  %loadMem_400bbc = load %struct.Memory*, %struct.Memory** %MEMORY
  %call_400bbc = call %struct.Memory* @routine_movq_0x10__rbp____r11(%struct.State* %0, i64  0, %struct.Memory* %loadMem_400bbc)
  store %struct.Memory* %call_400bbc, %struct.Memory** %MEMORY

  ; Code: movl %edi, -0x4(%rbp)	 RIP: 400bc0	 Bytes: 3
  %loadMem_400bc0 = load %struct.Memory*, %struct.Memory** %MEMORY
  %call_400bc0 = call %struct.Memory* @routine_movl__edi__MINUS0x4__rbp_(%struct.State* %0, i64  0, %struct.Memory* %loadMem_400bc0)
  store %struct.Memory* %call_400bc0, %struct.Memory** %MEMORY

  ; Code: movl %esi, -0x8(%rbp)	 RIP: 400bc3	 Bytes: 3
  %loadMem_400bc3 = load %struct.Memory*, %struct.Memory** %MEMORY
  %call_400bc3 = call %struct.Memory* @routine_movl__esi__MINUS0x8__rbp_(%struct.State* %0, i64  0, %struct.Memory* %loadMem_400bc3)
  store %struct.Memory* %call_400bc3, %struct.Memory** %MEMORY

  ; Code: movl %edx, -0xc(%rbp)	 RIP: 400bc6	 Bytes: 3
  %loadMem_400bc6 = load %struct.Memory*, %struct.Memory** %MEMORY
  %call_400bc6 = call %struct.Memory* @routine_movl__edx__MINUS0xc__rbp_(%struct.State* %0, i64  0, %struct.Memory* %loadMem_400bc6)
  store %struct.Memory* %call_400bc6, %struct.Memory** %MEMORY

  ; Code: movl %ecx, -0x10(%rbp)	 RIP: 400bc9	 Bytes: 3
  %loadMem_400bc9 = load %struct.Memory*, %struct.Memory** %MEMORY
  %call_400bc9 = call %struct.Memory* @routine_movl__ecx__MINUS0x10__rbp_(%struct.State* %0, i64  0, %struct.Memory* %loadMem_400bc9)
  store %struct.Memory* %call_400bc9, %struct.Memory** %MEMORY

  ; Code: movl %r8d, -0x14(%rbp)	 RIP: 400bcc	 Bytes: 4
  %loadMem_400bcc = load %struct.Memory*, %struct.Memory** %MEMORY
  %call_400bcc = call %struct.Memory* @routine_movl__r8d__MINUS0x14__rbp_(%struct.State* %0, i64  0, %struct.Memory* %loadMem_400bcc)
  store %struct.Memory* %call_400bcc, %struct.Memory** %MEMORY

  ; Code: movq %r9, -0x20(%rbp)	 RIP: 400bd0	 Bytes: 4
  %loadMem_400bd0 = load %struct.Memory*, %struct.Memory** %MEMORY
  %call_400bd0 = call %struct.Memory* @routine_movq__r9__MINUS0x20__rbp_(%struct.State* %0, i64  0, %struct.Memory* %loadMem_400bd0)
  store %struct.Memory* %call_400bd0, %struct.Memory** %MEMORY

  ; Code: movq %r11, -0x28(%rbp)	 RIP: 400bd4	 Bytes: 4
  %loadMem_400bd4 = load %struct.Memory*, %struct.Memory** %MEMORY
  %call_400bd4 = call %struct.Memory* @routine_movq__r11__MINUS0x28__rbp_(%struct.State* %0, i64  0, %struct.Memory* %loadMem_400bd4)
  store %struct.Memory* %call_400bd4, %struct.Memory** %MEMORY

  ; Code: movq %r10, -0x30(%rbp)	 RIP: 400bd8	 Bytes: 4
  %loadMem_400bd8 = load %struct.Memory*, %struct.Memory** %MEMORY
  %call_400bd8 = call %struct.Memory* @routine_movq__r10__MINUS0x30__rbp_(%struct.State* %0, i64  0, %struct.Memory* %loadMem_400bd8)
  store %struct.Memory* %call_400bd8, %struct.Memory** %MEMORY

  ; Code: movq %rax, -0x38(%rbp)	 RIP: 400bdc	 Bytes: 4
  %loadMem_400bdc = load %struct.Memory*, %struct.Memory** %MEMORY
  %call_400bdc = call %struct.Memory* @routine_movq__rax__MINUS0x38__rbp_(%struct.State* %0, i64  0, %struct.Memory* %loadMem_400bdc)
  store %struct.Memory* %call_400bdc, %struct.Memory** %MEMORY

  ; Code: movl $0x0, -0x3c(%rbp)	 RIP: 400be0	 Bytes: 7
  %loadMem_400be0 = load %struct.Memory*, %struct.Memory** %MEMORY
  %call_400be0 = call %struct.Memory* @routine_movl__0x0__MINUS0x3c__rbp_(%struct.State* %0, i64  0, %struct.Memory* %loadMem_400be0)
  store %struct.Memory* %call_400be0, %struct.Memory** %MEMORY

  ; Code: .L_400be7:	 RIP: 400be7	 Bytes: 0
  br label %block_.L_400be7
block_.L_400be7:

  ; Code: movl -0x3c(%rbp), %eax	 RIP: 400be7	 Bytes: 3
  %loadMem_400be7 = load %struct.Memory*, %struct.Memory** %MEMORY
  %call_400be7 = call %struct.Memory* @routine_movl_MINUS0x3c__rbp____eax(%struct.State* %0, i64  0, %struct.Memory* %loadMem_400be7)
  store %struct.Memory* %call_400be7, %struct.Memory** %MEMORY

  ; Code: cmpl -0x4(%rbp), %eax	 RIP: 400bea	 Bytes: 3
  %loadMem_400bea = load %struct.Memory*, %struct.Memory** %MEMORY
  %call_400bea = call %struct.Memory* @routine_cmpl_MINUS0x4__rbp____eax(%struct.State* %0, i64  0, %struct.Memory* %loadMem_400bea)
  store %struct.Memory* %call_400bea, %struct.Memory** %MEMORY

  ; Code: jge .L_400c56	 RIP: 400bed	 Bytes: 6
  %loadMem_400bed = load %struct.Memory*, %struct.Memory** %MEMORY
  %call_400bed = call %struct.Memory* @routine_jge_.L_400c56(%struct.State* %0, i64  0, %struct.Memory* %loadMem_400bed, i8* %BRANCH_TAKEN, i64 105, i64 6, i64 6)
  store %struct.Memory* %call_400bed, %struct.Memory** %MEMORY

  %loadBr_400bed = load i8, i8* %BRANCH_TAKEN
  %cmpBr_400bed = icmp eq i8 %loadBr_400bed, 1
  br i1 %cmpBr_400bed, label %block_.L_400c56, label %block_400bf3

block_400bf3:
  ; Code: movl $0x0, -0x40(%rbp)	 RIP: 400bf3	 Bytes: 7
  %loadMem_400bf3 = load %struct.Memory*, %struct.Memory** %MEMORY
  %call_400bf3 = call %struct.Memory* @routine_movl__0x0__MINUS0x40__rbp_(%struct.State* %0, i64  0, %struct.Memory* %loadMem_400bf3)
  store %struct.Memory* %call_400bf3, %struct.Memory** %MEMORY

  ; Code: .L_400bfa:	 RIP: 400bfa	 Bytes: 0
  br label %block_.L_400bfa
block_.L_400bfa:

  ; Code: movl -0x40(%rbp), %eax	 RIP: 400bfa	 Bytes: 3
  %loadMem_400bfa = load %struct.Memory*, %struct.Memory** %MEMORY
  %call_400bfa = call %struct.Memory* @routine_movl_MINUS0x40__rbp____eax(%struct.State* %0, i64  0, %struct.Memory* %loadMem_400bfa)
  store %struct.Memory* %call_400bfa, %struct.Memory** %MEMORY

  ; Code: cmpl -0xc(%rbp), %eax	 RIP: 400bfd	 Bytes: 3
  %loadMem_400bfd = load %struct.Memory*, %struct.Memory** %MEMORY
  %call_400bfd = call %struct.Memory* @routine_cmpl_MINUS0xc__rbp____eax(%struct.State* %0, i64  0, %struct.Memory* %loadMem_400bfd)
  store %struct.Memory* %call_400bfd, %struct.Memory** %MEMORY

  ; Code: jge .L_400c43	 RIP: 400c00	 Bytes: 6
  %loadMem_400c00 = load %struct.Memory*, %struct.Memory** %MEMORY
  %call_400c00 = call %struct.Memory* @routine_jge_.L_400c43(%struct.State* %0, i64  0, %struct.Memory* %loadMem_400c00, i8* %BRANCH_TAKEN, i64 67, i64 6, i64 6)
  store %struct.Memory* %call_400c00, %struct.Memory** %MEMORY

  %loadBr_400c00 = load i8, i8* %BRANCH_TAKEN
  %cmpBr_400c00 = icmp eq i8 %loadBr_400c00, 1
  br i1 %cmpBr_400c00, label %block_.L_400c43, label %block_400c06

block_400c06:
  ; Code: cvtsi2sdl -0x3c(%rbp), %xmm0	 RIP: 400c06	 Bytes: 5
  %loadMem_400c06 = load %struct.Memory*, %struct.Memory** %MEMORY
  %call_400c06 = call %struct.Memory* @routine_cvtsi2sdl_MINUS0x3c__rbp____xmm0(%struct.State* %0, i64  0, %struct.Memory* %loadMem_400c06)
  store %struct.Memory* %call_400c06, %struct.Memory** %MEMORY

  ; Code: cvtsi2sdl -0x40(%rbp), %xmm1	 RIP: 400c0b	 Bytes: 5
  %loadMem_400c0b = load %struct.Memory*, %struct.Memory** %MEMORY
  %call_400c0b = call %struct.Memory* @routine_cvtsi2sdl_MINUS0x40__rbp____xmm1(%struct.State* %0, i64  0, %struct.Memory* %loadMem_400c0b)
  store %struct.Memory* %call_400c0b, %struct.Memory** %MEMORY

  ; Code: mulsd %xmm1, %xmm0	 RIP: 400c10	 Bytes: 4
  %loadMem_400c10 = load %struct.Memory*, %struct.Memory** %MEMORY
  %call_400c10 = call %struct.Memory* @routine_mulsd__xmm1___xmm0(%struct.State* %0, i64  0, %struct.Memory* %loadMem_400c10)
  store %struct.Memory* %call_400c10, %struct.Memory** %MEMORY

  ; Code: cvtsi2sdl -0x4(%rbp), %xmm1	 RIP: 400c14	 Bytes: 5
  %loadMem_400c14 = load %struct.Memory*, %struct.Memory** %MEMORY
  %call_400c14 = call %struct.Memory* @routine_cvtsi2sdl_MINUS0x4__rbp____xmm1(%struct.State* %0, i64  0, %struct.Memory* %loadMem_400c14)
  store %struct.Memory* %call_400c14, %struct.Memory** %MEMORY

  ; Code: divsd %xmm1, %xmm0	 RIP: 400c19	 Bytes: 4
  %loadMem_400c19 = load %struct.Memory*, %struct.Memory** %MEMORY
  %call_400c19 = call %struct.Memory* @routine_divsd__xmm1___xmm0(%struct.State* %0, i64  0, %struct.Memory* %loadMem_400c19)
  store %struct.Memory* %call_400c19, %struct.Memory** %MEMORY

  ; Code: movq -0x20(%rbp), %rax	 RIP: 400c1d	 Bytes: 4
  %loadMem_400c1d = load %struct.Memory*, %struct.Memory** %MEMORY
  %call_400c1d = call %struct.Memory* @routine_movq_MINUS0x20__rbp____rax(%struct.State* %0, i64  0, %struct.Memory* %loadMem_400c1d)
  store %struct.Memory* %call_400c1d, %struct.Memory** %MEMORY

  ; Code: movslq -0x3c(%rbp), %rcx	 RIP: 400c21	 Bytes: 4
  %loadMem_400c21 = load %struct.Memory*, %struct.Memory** %MEMORY
  %call_400c21 = call %struct.Memory* @routine_movslq_MINUS0x3c__rbp____rcx(%struct.State* %0, i64  0, %struct.Memory* %loadMem_400c21)
  store %struct.Memory* %call_400c21, %struct.Memory** %MEMORY

  ; Code: shlq $0xd, %rcx	 RIP: 400c25	 Bytes: 4
  %loadMem_400c25 = load %struct.Memory*, %struct.Memory** %MEMORY
  %call_400c25 = call %struct.Memory* @routine_shlq__0xd___rcx(%struct.State* %0, i64  0, %struct.Memory* %loadMem_400c25)
  store %struct.Memory* %call_400c25, %struct.Memory** %MEMORY

  ; Code: addq %rcx, %rax	 RIP: 400c29	 Bytes: 3
  %loadMem_400c29 = load %struct.Memory*, %struct.Memory** %MEMORY
  %call_400c29 = call %struct.Memory* @routine_addq__rcx___rax(%struct.State* %0, i64  0, %struct.Memory* %loadMem_400c29)
  store %struct.Memory* %call_400c29, %struct.Memory** %MEMORY

  ; Code: movslq -0x40(%rbp), %rcx	 RIP: 400c2c	 Bytes: 4
  %loadMem_400c2c = load %struct.Memory*, %struct.Memory** %MEMORY
  %call_400c2c = call %struct.Memory* @routine_movslq_MINUS0x40__rbp____rcx(%struct.State* %0, i64  0, %struct.Memory* %loadMem_400c2c)
  store %struct.Memory* %call_400c2c, %struct.Memory** %MEMORY

  ; Code: movsd %xmm0, (%rax,%rcx,8)	 RIP: 400c30	 Bytes: 5
  %loadMem_400c30 = load %struct.Memory*, %struct.Memory** %MEMORY
  %call_400c30 = call %struct.Memory* @routine_movsd__xmm0____rax__rcx_8_(%struct.State* %0, i64  0, %struct.Memory* %loadMem_400c30)
  store %struct.Memory* %call_400c30, %struct.Memory** %MEMORY

  ; Code: movl -0x40(%rbp), %eax	 RIP: 400c35	 Bytes: 3
  %loadMem_400c35 = load %struct.Memory*, %struct.Memory** %MEMORY
  %call_400c35 = call %struct.Memory* @routine_movl_MINUS0x40__rbp____eax(%struct.State* %0, i64  0, %struct.Memory* %loadMem_400c35)
  store %struct.Memory* %call_400c35, %struct.Memory** %MEMORY

  ; Code: addl $0x1, %eax	 RIP: 400c38	 Bytes: 3
  %loadMem_400c38 = load %struct.Memory*, %struct.Memory** %MEMORY
  %call_400c38 = call %struct.Memory* @routine_addl__0x1___eax(%struct.State* %0, i64  0, %struct.Memory* %loadMem_400c38)
  store %struct.Memory* %call_400c38, %struct.Memory** %MEMORY

  ; Code: movl %eax, -0x40(%rbp)	 RIP: 400c3b	 Bytes: 3
  %loadMem_400c3b = load %struct.Memory*, %struct.Memory** %MEMORY
  %call_400c3b = call %struct.Memory* @routine_movl__eax__MINUS0x40__rbp_(%struct.State* %0, i64  0, %struct.Memory* %loadMem_400c3b)
  store %struct.Memory* %call_400c3b, %struct.Memory** %MEMORY

  ; Code: jmpq .L_400bfa	 RIP: 400c3e	 Bytes: 5
  %loadMem_400c3e = load %struct.Memory*, %struct.Memory** %MEMORY
  %call_400c3e = call %struct.Memory* @routine_jmpq_.L_400bfa(%struct.State* %0, i64  0, %struct.Memory* %loadMem_400c3e, i64 -68, i64 5)
  store %struct.Memory* %call_400c3e, %struct.Memory** %MEMORY

  br label %block_.L_400bfa

  ; Code: .L_400c43:	 RIP: 400c43	 Bytes: 0
block_.L_400c43:

  ; Code: jmpq .L_400c48	 RIP: 400c43	 Bytes: 5
  %loadMem_400c43 = load %struct.Memory*, %struct.Memory** %MEMORY
  %call_400c43 = call %struct.Memory* @routine_jmpq_.L_400c48(%struct.State* %0, i64  0, %struct.Memory* %loadMem_400c43, i64 5, i64 5)
  store %struct.Memory* %call_400c43, %struct.Memory** %MEMORY

  br label %block_.L_400c48

  ; Code: .L_400c48:	 RIP: 400c48	 Bytes: 0
block_.L_400c48:

  ; Code: movl -0x3c(%rbp), %eax	 RIP: 400c48	 Bytes: 3
  %loadMem_400c48 = load %struct.Memory*, %struct.Memory** %MEMORY
  %call_400c48 = call %struct.Memory* @routine_movl_MINUS0x3c__rbp____eax(%struct.State* %0, i64  0, %struct.Memory* %loadMem_400c48)
  store %struct.Memory* %call_400c48, %struct.Memory** %MEMORY

  ; Code: addl $0x1, %eax	 RIP: 400c4b	 Bytes: 3
  %loadMem_400c4b = load %struct.Memory*, %struct.Memory** %MEMORY
  %call_400c4b = call %struct.Memory* @routine_addl__0x1___eax(%struct.State* %0, i64  0, %struct.Memory* %loadMem_400c4b)
  store %struct.Memory* %call_400c4b, %struct.Memory** %MEMORY

  ; Code: movl %eax, -0x3c(%rbp)	 RIP: 400c4e	 Bytes: 3
  %loadMem_400c4e = load %struct.Memory*, %struct.Memory** %MEMORY
  %call_400c4e = call %struct.Memory* @routine_movl__eax__MINUS0x3c__rbp_(%struct.State* %0, i64  0, %struct.Memory* %loadMem_400c4e)
  store %struct.Memory* %call_400c4e, %struct.Memory** %MEMORY

  ; Code: jmpq .L_400be7	 RIP: 400c51	 Bytes: 5
  %loadMem_400c51 = load %struct.Memory*, %struct.Memory** %MEMORY
  %call_400c51 = call %struct.Memory* @routine_jmpq_.L_400be7(%struct.State* %0, i64  0, %struct.Memory* %loadMem_400c51, i64 -106, i64 5)
  store %struct.Memory* %call_400c51, %struct.Memory** %MEMORY

  br label %block_.L_400be7

  ; Code: .L_400c56:	 RIP: 400c56	 Bytes: 0
block_.L_400c56:

  ; Code: movl $0x0, -0x3c(%rbp)	 RIP: 400c56	 Bytes: 7
  %loadMem_400c56 = load %struct.Memory*, %struct.Memory** %MEMORY
  %call_400c56 = call %struct.Memory* @routine_movl__0x0__MINUS0x3c__rbp_(%struct.State* %0, i64  0, %struct.Memory* %loadMem_400c56)
  store %struct.Memory* %call_400c56, %struct.Memory** %MEMORY

  ; Code: .L_400c5d:	 RIP: 400c5d	 Bytes: 0
  br label %block_.L_400c5d
block_.L_400c5d:

  ; Code: movl -0x3c(%rbp), %eax	 RIP: 400c5d	 Bytes: 3
  %loadMem_400c5d = load %struct.Memory*, %struct.Memory** %MEMORY
  %call_400c5d = call %struct.Memory* @routine_movl_MINUS0x3c__rbp____eax(%struct.State* %0, i64  0, %struct.Memory* %loadMem_400c5d)
  store %struct.Memory* %call_400c5d, %struct.Memory** %MEMORY

  ; Code: cmpl -0xc(%rbp), %eax	 RIP: 400c60	 Bytes: 3
  %loadMem_400c60 = load %struct.Memory*, %struct.Memory** %MEMORY
  %call_400c60 = call %struct.Memory* @routine_cmpl_MINUS0xc__rbp____eax(%struct.State* %0, i64  0, %struct.Memory* %loadMem_400c60)
  store %struct.Memory* %call_400c60, %struct.Memory** %MEMORY

  ; Code: jge .L_400cd1	 RIP: 400c63	 Bytes: 6
  %loadMem_400c63 = load %struct.Memory*, %struct.Memory** %MEMORY
  %call_400c63 = call %struct.Memory* @routine_jge_.L_400cd1(%struct.State* %0, i64  0, %struct.Memory* %loadMem_400c63, i8* %BRANCH_TAKEN, i64 110, i64 6, i64 6)
  store %struct.Memory* %call_400c63, %struct.Memory** %MEMORY

  %loadBr_400c63 = load i8, i8* %BRANCH_TAKEN
  %cmpBr_400c63 = icmp eq i8 %loadBr_400c63, 1
  br i1 %cmpBr_400c63, label %block_.L_400cd1, label %block_400c69

block_400c69:
  ; Code: movl $0x0, -0x40(%rbp)	 RIP: 400c69	 Bytes: 7
  %loadMem_400c69 = load %struct.Memory*, %struct.Memory** %MEMORY
  %call_400c69 = call %struct.Memory* @routine_movl__0x0__MINUS0x40__rbp_(%struct.State* %0, i64  0, %struct.Memory* %loadMem_400c69)
  store %struct.Memory* %call_400c69, %struct.Memory** %MEMORY

  ; Code: .L_400c70:	 RIP: 400c70	 Bytes: 0
  br label %block_.L_400c70
block_.L_400c70:

  ; Code: movl -0x40(%rbp), %eax	 RIP: 400c70	 Bytes: 3
  %loadMem_400c70 = load %struct.Memory*, %struct.Memory** %MEMORY
  %call_400c70 = call %struct.Memory* @routine_movl_MINUS0x40__rbp____eax(%struct.State* %0, i64  0, %struct.Memory* %loadMem_400c70)
  store %struct.Memory* %call_400c70, %struct.Memory** %MEMORY

  ; Code: cmpl -0x8(%rbp), %eax	 RIP: 400c73	 Bytes: 3
  %loadMem_400c73 = load %struct.Memory*, %struct.Memory** %MEMORY
  %call_400c73 = call %struct.Memory* @routine_cmpl_MINUS0x8__rbp____eax(%struct.State* %0, i64  0, %struct.Memory* %loadMem_400c73)
  store %struct.Memory* %call_400c73, %struct.Memory** %MEMORY

  ; Code: jge .L_400cbe	 RIP: 400c76	 Bytes: 6
  %loadMem_400c76 = load %struct.Memory*, %struct.Memory** %MEMORY
  %call_400c76 = call %struct.Memory* @routine_jge_.L_400cbe(%struct.State* %0, i64  0, %struct.Memory* %loadMem_400c76, i8* %BRANCH_TAKEN, i64 72, i64 6, i64 6)
  store %struct.Memory* %call_400c76, %struct.Memory** %MEMORY

  %loadBr_400c76 = load i8, i8* %BRANCH_TAKEN
  %cmpBr_400c76 = icmp eq i8 %loadBr_400c76, 1
  br i1 %cmpBr_400c76, label %block_.L_400cbe, label %block_400c7c

block_400c7c:
  ; Code: cvtsi2sdl -0x3c(%rbp), %xmm0	 RIP: 400c7c	 Bytes: 5
  %loadMem_400c7c = load %struct.Memory*, %struct.Memory** %MEMORY
  %call_400c7c = call %struct.Memory* @routine_cvtsi2sdl_MINUS0x3c__rbp____xmm0(%struct.State* %0, i64  0, %struct.Memory* %loadMem_400c7c)
  store %struct.Memory* %call_400c7c, %struct.Memory** %MEMORY

  ; Code: movl -0x40(%rbp), %eax	 RIP: 400c81	 Bytes: 3
  %loadMem_400c81 = load %struct.Memory*, %struct.Memory** %MEMORY
  %call_400c81 = call %struct.Memory* @routine_movl_MINUS0x40__rbp____eax(%struct.State* %0, i64  0, %struct.Memory* %loadMem_400c81)
  store %struct.Memory* %call_400c81, %struct.Memory** %MEMORY

  ; Code: addl $0x1, %eax	 RIP: 400c84	 Bytes: 3
  %loadMem_400c84 = load %struct.Memory*, %struct.Memory** %MEMORY
  %call_400c84 = call %struct.Memory* @routine_addl__0x1___eax(%struct.State* %0, i64  0, %struct.Memory* %loadMem_400c84)
  store %struct.Memory* %call_400c84, %struct.Memory** %MEMORY

  ; Code: cvtsi2sdl %eax, %xmm1	 RIP: 400c87	 Bytes: 4
  %loadMem_400c87 = load %struct.Memory*, %struct.Memory** %MEMORY
  %call_400c87 = call %struct.Memory* @routine_cvtsi2sdl__eax___xmm1(%struct.State* %0, i64  0, %struct.Memory* %loadMem_400c87)
  store %struct.Memory* %call_400c87, %struct.Memory** %MEMORY

  ; Code: mulsd %xmm1, %xmm0	 RIP: 400c8b	 Bytes: 4
  %loadMem_400c8b = load %struct.Memory*, %struct.Memory** %MEMORY
  %call_400c8b = call %struct.Memory* @routine_mulsd__xmm1___xmm0(%struct.State* %0, i64  0, %struct.Memory* %loadMem_400c8b)
  store %struct.Memory* %call_400c8b, %struct.Memory** %MEMORY

  ; Code: cvtsi2sdl -0x8(%rbp), %xmm1	 RIP: 400c8f	 Bytes: 5
  %loadMem_400c8f = load %struct.Memory*, %struct.Memory** %MEMORY
  %call_400c8f = call %struct.Memory* @routine_cvtsi2sdl_MINUS0x8__rbp____xmm1(%struct.State* %0, i64  0, %struct.Memory* %loadMem_400c8f)
  store %struct.Memory* %call_400c8f, %struct.Memory** %MEMORY

  ; Code: divsd %xmm1, %xmm0	 RIP: 400c94	 Bytes: 4
  %loadMem_400c94 = load %struct.Memory*, %struct.Memory** %MEMORY
  %call_400c94 = call %struct.Memory* @routine_divsd__xmm1___xmm0(%struct.State* %0, i64  0, %struct.Memory* %loadMem_400c94)
  store %struct.Memory* %call_400c94, %struct.Memory** %MEMORY

  ; Code: movq -0x28(%rbp), %rcx	 RIP: 400c98	 Bytes: 4
  %loadMem_400c98 = load %struct.Memory*, %struct.Memory** %MEMORY
  %call_400c98 = call %struct.Memory* @routine_movq_MINUS0x28__rbp____rcx(%struct.State* %0, i64  0, %struct.Memory* %loadMem_400c98)
  store %struct.Memory* %call_400c98, %struct.Memory** %MEMORY

  ; Code: movslq -0x3c(%rbp), %rdx	 RIP: 400c9c	 Bytes: 4
  %loadMem_400c9c = load %struct.Memory*, %struct.Memory** %MEMORY
  %call_400c9c = call %struct.Memory* @routine_movslq_MINUS0x3c__rbp____rdx(%struct.State* %0, i64  0, %struct.Memory* %loadMem_400c9c)
  store %struct.Memory* %call_400c9c, %struct.Memory** %MEMORY

  ; Code: shlq $0xd, %rdx	 RIP: 400ca0	 Bytes: 4
  %loadMem_400ca0 = load %struct.Memory*, %struct.Memory** %MEMORY
  %call_400ca0 = call %struct.Memory* @routine_shlq__0xd___rdx(%struct.State* %0, i64  0, %struct.Memory* %loadMem_400ca0)
  store %struct.Memory* %call_400ca0, %struct.Memory** %MEMORY

  ; Code: addq %rdx, %rcx	 RIP: 400ca4	 Bytes: 3
  %loadMem_400ca4 = load %struct.Memory*, %struct.Memory** %MEMORY
  %call_400ca4 = call %struct.Memory* @routine_addq__rdx___rcx(%struct.State* %0, i64  0, %struct.Memory* %loadMem_400ca4)
  store %struct.Memory* %call_400ca4, %struct.Memory** %MEMORY

  ; Code: movslq -0x40(%rbp), %rdx	 RIP: 400ca7	 Bytes: 4
  %loadMem_400ca7 = load %struct.Memory*, %struct.Memory** %MEMORY
  %call_400ca7 = call %struct.Memory* @routine_movslq_MINUS0x40__rbp____rdx(%struct.State* %0, i64  0, %struct.Memory* %loadMem_400ca7)
  store %struct.Memory* %call_400ca7, %struct.Memory** %MEMORY

  ; Code: movsd %xmm0, (%rcx,%rdx,8)	 RIP: 400cab	 Bytes: 5
  %loadMem_400cab = load %struct.Memory*, %struct.Memory** %MEMORY
  %call_400cab = call %struct.Memory* @routine_movsd__xmm0____rcx__rdx_8_(%struct.State* %0, i64  0, %struct.Memory* %loadMem_400cab)
  store %struct.Memory* %call_400cab, %struct.Memory** %MEMORY

  ; Code: movl -0x40(%rbp), %eax	 RIP: 400cb0	 Bytes: 3
  %loadMem_400cb0 = load %struct.Memory*, %struct.Memory** %MEMORY
  %call_400cb0 = call %struct.Memory* @routine_movl_MINUS0x40__rbp____eax(%struct.State* %0, i64  0, %struct.Memory* %loadMem_400cb0)
  store %struct.Memory* %call_400cb0, %struct.Memory** %MEMORY

  ; Code: addl $0x1, %eax	 RIP: 400cb3	 Bytes: 3
  %loadMem_400cb3 = load %struct.Memory*, %struct.Memory** %MEMORY
  %call_400cb3 = call %struct.Memory* @routine_addl__0x1___eax(%struct.State* %0, i64  0, %struct.Memory* %loadMem_400cb3)
  store %struct.Memory* %call_400cb3, %struct.Memory** %MEMORY

  ; Code: movl %eax, -0x40(%rbp)	 RIP: 400cb6	 Bytes: 3
  %loadMem_400cb6 = load %struct.Memory*, %struct.Memory** %MEMORY
  %call_400cb6 = call %struct.Memory* @routine_movl__eax__MINUS0x40__rbp_(%struct.State* %0, i64  0, %struct.Memory* %loadMem_400cb6)
  store %struct.Memory* %call_400cb6, %struct.Memory** %MEMORY

  ; Code: jmpq .L_400c70	 RIP: 400cb9	 Bytes: 5
  %loadMem_400cb9 = load %struct.Memory*, %struct.Memory** %MEMORY
  %call_400cb9 = call %struct.Memory* @routine_jmpq_.L_400c70(%struct.State* %0, i64  0, %struct.Memory* %loadMem_400cb9, i64 -73, i64 5)
  store %struct.Memory* %call_400cb9, %struct.Memory** %MEMORY

  br label %block_.L_400c70

  ; Code: .L_400cbe:	 RIP: 400cbe	 Bytes: 0
block_.L_400cbe:

  ; Code: jmpq .L_400cc3	 RIP: 400cbe	 Bytes: 5
  %loadMem_400cbe = load %struct.Memory*, %struct.Memory** %MEMORY
  %call_400cbe = call %struct.Memory* @routine_jmpq_.L_400cc3(%struct.State* %0, i64  0, %struct.Memory* %loadMem_400cbe, i64 5, i64 5)
  store %struct.Memory* %call_400cbe, %struct.Memory** %MEMORY

  br label %block_.L_400cc3

  ; Code: .L_400cc3:	 RIP: 400cc3	 Bytes: 0
block_.L_400cc3:

  ; Code: movl -0x3c(%rbp), %eax	 RIP: 400cc3	 Bytes: 3
  %loadMem_400cc3 = load %struct.Memory*, %struct.Memory** %MEMORY
  %call_400cc3 = call %struct.Memory* @routine_movl_MINUS0x3c__rbp____eax(%struct.State* %0, i64  0, %struct.Memory* %loadMem_400cc3)
  store %struct.Memory* %call_400cc3, %struct.Memory** %MEMORY

  ; Code: addl $0x1, %eax	 RIP: 400cc6	 Bytes: 3
  %loadMem_400cc6 = load %struct.Memory*, %struct.Memory** %MEMORY
  %call_400cc6 = call %struct.Memory* @routine_addl__0x1___eax(%struct.State* %0, i64  0, %struct.Memory* %loadMem_400cc6)
  store %struct.Memory* %call_400cc6, %struct.Memory** %MEMORY

  ; Code: movl %eax, -0x3c(%rbp)	 RIP: 400cc9	 Bytes: 3
  %loadMem_400cc9 = load %struct.Memory*, %struct.Memory** %MEMORY
  %call_400cc9 = call %struct.Memory* @routine_movl__eax__MINUS0x3c__rbp_(%struct.State* %0, i64  0, %struct.Memory* %loadMem_400cc9)
  store %struct.Memory* %call_400cc9, %struct.Memory** %MEMORY

  ; Code: jmpq .L_400c5d	 RIP: 400ccc	 Bytes: 5
  %loadMem_400ccc = load %struct.Memory*, %struct.Memory** %MEMORY
  %call_400ccc = call %struct.Memory* @routine_jmpq_.L_400c5d(%struct.State* %0, i64  0, %struct.Memory* %loadMem_400ccc, i64 -111, i64 5)
  store %struct.Memory* %call_400ccc, %struct.Memory** %MEMORY

  br label %block_.L_400c5d

  ; Code: .L_400cd1:	 RIP: 400cd1	 Bytes: 0
block_.L_400cd1:

  ; Code: movl $0x0, -0x3c(%rbp)	 RIP: 400cd1	 Bytes: 7
  %loadMem_400cd1 = load %struct.Memory*, %struct.Memory** %MEMORY
  %call_400cd1 = call %struct.Memory* @routine_movl__0x0__MINUS0x3c__rbp_(%struct.State* %0, i64  0, %struct.Memory* %loadMem_400cd1)
  store %struct.Memory* %call_400cd1, %struct.Memory** %MEMORY

  ; Code: .L_400cd8:	 RIP: 400cd8	 Bytes: 0
  br label %block_.L_400cd8
block_.L_400cd8:

  ; Code: movl -0x3c(%rbp), %eax	 RIP: 400cd8	 Bytes: 3
  %loadMem_400cd8 = load %struct.Memory*, %struct.Memory** %MEMORY
  %call_400cd8 = call %struct.Memory* @routine_movl_MINUS0x3c__rbp____eax(%struct.State* %0, i64  0, %struct.Memory* %loadMem_400cd8)
  store %struct.Memory* %call_400cd8, %struct.Memory** %MEMORY

  ; Code: cmpl -0x8(%rbp), %eax	 RIP: 400cdb	 Bytes: 3
  %loadMem_400cdb = load %struct.Memory*, %struct.Memory** %MEMORY
  %call_400cdb = call %struct.Memory* @routine_cmpl_MINUS0x8__rbp____eax(%struct.State* %0, i64  0, %struct.Memory* %loadMem_400cdb)
  store %struct.Memory* %call_400cdb, %struct.Memory** %MEMORY

  ; Code: jge .L_400d4c	 RIP: 400cde	 Bytes: 6
  %loadMem_400cde = load %struct.Memory*, %struct.Memory** %MEMORY
  %call_400cde = call %struct.Memory* @routine_jge_.L_400d4c(%struct.State* %0, i64  0, %struct.Memory* %loadMem_400cde, i8* %BRANCH_TAKEN, i64 110, i64 6, i64 6)
  store %struct.Memory* %call_400cde, %struct.Memory** %MEMORY

  %loadBr_400cde = load i8, i8* %BRANCH_TAKEN
  %cmpBr_400cde = icmp eq i8 %loadBr_400cde, 1
  br i1 %cmpBr_400cde, label %block_.L_400d4c, label %block_400ce4

block_400ce4:
  ; Code: movl $0x0, -0x40(%rbp)	 RIP: 400ce4	 Bytes: 7
  %loadMem_400ce4 = load %struct.Memory*, %struct.Memory** %MEMORY
  %call_400ce4 = call %struct.Memory* @routine_movl__0x0__MINUS0x40__rbp_(%struct.State* %0, i64  0, %struct.Memory* %loadMem_400ce4)
  store %struct.Memory* %call_400ce4, %struct.Memory** %MEMORY

  ; Code: .L_400ceb:	 RIP: 400ceb	 Bytes: 0
  br label %block_.L_400ceb
block_.L_400ceb:

  ; Code: movl -0x40(%rbp), %eax	 RIP: 400ceb	 Bytes: 3
  %loadMem_400ceb = load %struct.Memory*, %struct.Memory** %MEMORY
  %call_400ceb = call %struct.Memory* @routine_movl_MINUS0x40__rbp____eax(%struct.State* %0, i64  0, %struct.Memory* %loadMem_400ceb)
  store %struct.Memory* %call_400ceb, %struct.Memory** %MEMORY

  ; Code: cmpl -0x14(%rbp), %eax	 RIP: 400cee	 Bytes: 3
  %loadMem_400cee = load %struct.Memory*, %struct.Memory** %MEMORY
  %call_400cee = call %struct.Memory* @routine_cmpl_MINUS0x14__rbp____eax(%struct.State* %0, i64  0, %struct.Memory* %loadMem_400cee)
  store %struct.Memory* %call_400cee, %struct.Memory** %MEMORY

  ; Code: jge .L_400d39	 RIP: 400cf1	 Bytes: 6
  %loadMem_400cf1 = load %struct.Memory*, %struct.Memory** %MEMORY
  %call_400cf1 = call %struct.Memory* @routine_jge_.L_400d39(%struct.State* %0, i64  0, %struct.Memory* %loadMem_400cf1, i8* %BRANCH_TAKEN, i64 72, i64 6, i64 6)
  store %struct.Memory* %call_400cf1, %struct.Memory** %MEMORY

  %loadBr_400cf1 = load i8, i8* %BRANCH_TAKEN
  %cmpBr_400cf1 = icmp eq i8 %loadBr_400cf1, 1
  br i1 %cmpBr_400cf1, label %block_.L_400d39, label %block_400cf7

block_400cf7:
  ; Code: cvtsi2sdl -0x3c(%rbp), %xmm0	 RIP: 400cf7	 Bytes: 5
  %loadMem_400cf7 = load %struct.Memory*, %struct.Memory** %MEMORY
  %call_400cf7 = call %struct.Memory* @routine_cvtsi2sdl_MINUS0x3c__rbp____xmm0(%struct.State* %0, i64  0, %struct.Memory* %loadMem_400cf7)
  store %struct.Memory* %call_400cf7, %struct.Memory** %MEMORY

  ; Code: movl -0x40(%rbp), %eax	 RIP: 400cfc	 Bytes: 3
  %loadMem_400cfc = load %struct.Memory*, %struct.Memory** %MEMORY
  %call_400cfc = call %struct.Memory* @routine_movl_MINUS0x40__rbp____eax(%struct.State* %0, i64  0, %struct.Memory* %loadMem_400cfc)
  store %struct.Memory* %call_400cfc, %struct.Memory** %MEMORY

  ; Code: addl $0x3, %eax	 RIP: 400cff	 Bytes: 3
  %loadMem_400cff = load %struct.Memory*, %struct.Memory** %MEMORY
  %call_400cff = call %struct.Memory* @routine_addl__0x3___eax(%struct.State* %0, i64  0, %struct.Memory* %loadMem_400cff)
  store %struct.Memory* %call_400cff, %struct.Memory** %MEMORY

  ; Code: cvtsi2sdl %eax, %xmm1	 RIP: 400d02	 Bytes: 4
  %loadMem_400d02 = load %struct.Memory*, %struct.Memory** %MEMORY
  %call_400d02 = call %struct.Memory* @routine_cvtsi2sdl__eax___xmm1(%struct.State* %0, i64  0, %struct.Memory* %loadMem_400d02)
  store %struct.Memory* %call_400d02, %struct.Memory** %MEMORY

  ; Code: mulsd %xmm1, %xmm0	 RIP: 400d06	 Bytes: 4
  %loadMem_400d06 = load %struct.Memory*, %struct.Memory** %MEMORY
  %call_400d06 = call %struct.Memory* @routine_mulsd__xmm1___xmm0(%struct.State* %0, i64  0, %struct.Memory* %loadMem_400d06)
  store %struct.Memory* %call_400d06, %struct.Memory** %MEMORY

  ; Code: cvtsi2sdl -0x10(%rbp), %xmm1	 RIP: 400d0a	 Bytes: 5
  %loadMem_400d0a = load %struct.Memory*, %struct.Memory** %MEMORY
  %call_400d0a = call %struct.Memory* @routine_cvtsi2sdl_MINUS0x10__rbp____xmm1(%struct.State* %0, i64  0, %struct.Memory* %loadMem_400d0a)
  store %struct.Memory* %call_400d0a, %struct.Memory** %MEMORY

  ; Code: divsd %xmm1, %xmm0	 RIP: 400d0f	 Bytes: 4
  %loadMem_400d0f = load %struct.Memory*, %struct.Memory** %MEMORY
  %call_400d0f = call %struct.Memory* @routine_divsd__xmm1___xmm0(%struct.State* %0, i64  0, %struct.Memory* %loadMem_400d0f)
  store %struct.Memory* %call_400d0f, %struct.Memory** %MEMORY

  ; Code: movq -0x30(%rbp), %rcx	 RIP: 400d13	 Bytes: 4
  %loadMem_400d13 = load %struct.Memory*, %struct.Memory** %MEMORY
  %call_400d13 = call %struct.Memory* @routine_movq_MINUS0x30__rbp____rcx(%struct.State* %0, i64  0, %struct.Memory* %loadMem_400d13)
  store %struct.Memory* %call_400d13, %struct.Memory** %MEMORY

  ; Code: movslq -0x3c(%rbp), %rdx	 RIP: 400d17	 Bytes: 4
  %loadMem_400d17 = load %struct.Memory*, %struct.Memory** %MEMORY
  %call_400d17 = call %struct.Memory* @routine_movslq_MINUS0x3c__rbp____rdx(%struct.State* %0, i64  0, %struct.Memory* %loadMem_400d17)
  store %struct.Memory* %call_400d17, %struct.Memory** %MEMORY

  ; Code: shlq $0xd, %rdx	 RIP: 400d1b	 Bytes: 4
  %loadMem_400d1b = load %struct.Memory*, %struct.Memory** %MEMORY
  %call_400d1b = call %struct.Memory* @routine_shlq__0xd___rdx(%struct.State* %0, i64  0, %struct.Memory* %loadMem_400d1b)
  store %struct.Memory* %call_400d1b, %struct.Memory** %MEMORY

  ; Code: addq %rdx, %rcx	 RIP: 400d1f	 Bytes: 3
  %loadMem_400d1f = load %struct.Memory*, %struct.Memory** %MEMORY
  %call_400d1f = call %struct.Memory* @routine_addq__rdx___rcx(%struct.State* %0, i64  0, %struct.Memory* %loadMem_400d1f)
  store %struct.Memory* %call_400d1f, %struct.Memory** %MEMORY

  ; Code: movslq -0x40(%rbp), %rdx	 RIP: 400d22	 Bytes: 4
  %loadMem_400d22 = load %struct.Memory*, %struct.Memory** %MEMORY
  %call_400d22 = call %struct.Memory* @routine_movslq_MINUS0x40__rbp____rdx(%struct.State* %0, i64  0, %struct.Memory* %loadMem_400d22)
  store %struct.Memory* %call_400d22, %struct.Memory** %MEMORY

  ; Code: movsd %xmm0, (%rcx,%rdx,8)	 RIP: 400d26	 Bytes: 5
  %loadMem_400d26 = load %struct.Memory*, %struct.Memory** %MEMORY
  %call_400d26 = call %struct.Memory* @routine_movsd__xmm0____rcx__rdx_8_(%struct.State* %0, i64  0, %struct.Memory* %loadMem_400d26)
  store %struct.Memory* %call_400d26, %struct.Memory** %MEMORY

  ; Code: movl -0x40(%rbp), %eax	 RIP: 400d2b	 Bytes: 3
  %loadMem_400d2b = load %struct.Memory*, %struct.Memory** %MEMORY
  %call_400d2b = call %struct.Memory* @routine_movl_MINUS0x40__rbp____eax(%struct.State* %0, i64  0, %struct.Memory* %loadMem_400d2b)
  store %struct.Memory* %call_400d2b, %struct.Memory** %MEMORY

  ; Code: addl $0x1, %eax	 RIP: 400d2e	 Bytes: 3
  %loadMem_400d2e = load %struct.Memory*, %struct.Memory** %MEMORY
  %call_400d2e = call %struct.Memory* @routine_addl__0x1___eax(%struct.State* %0, i64  0, %struct.Memory* %loadMem_400d2e)
  store %struct.Memory* %call_400d2e, %struct.Memory** %MEMORY

  ; Code: movl %eax, -0x40(%rbp)	 RIP: 400d31	 Bytes: 3
  %loadMem_400d31 = load %struct.Memory*, %struct.Memory** %MEMORY
  %call_400d31 = call %struct.Memory* @routine_movl__eax__MINUS0x40__rbp_(%struct.State* %0, i64  0, %struct.Memory* %loadMem_400d31)
  store %struct.Memory* %call_400d31, %struct.Memory** %MEMORY

  ; Code: jmpq .L_400ceb	 RIP: 400d34	 Bytes: 5
  %loadMem_400d34 = load %struct.Memory*, %struct.Memory** %MEMORY
  %call_400d34 = call %struct.Memory* @routine_jmpq_.L_400ceb(%struct.State* %0, i64  0, %struct.Memory* %loadMem_400d34, i64 -73, i64 5)
  store %struct.Memory* %call_400d34, %struct.Memory** %MEMORY

  br label %block_.L_400ceb

  ; Code: .L_400d39:	 RIP: 400d39	 Bytes: 0
block_.L_400d39:

  ; Code: jmpq .L_400d3e	 RIP: 400d39	 Bytes: 5
  %loadMem_400d39 = load %struct.Memory*, %struct.Memory** %MEMORY
  %call_400d39 = call %struct.Memory* @routine_jmpq_.L_400d3e(%struct.State* %0, i64  0, %struct.Memory* %loadMem_400d39, i64 5, i64 5)
  store %struct.Memory* %call_400d39, %struct.Memory** %MEMORY

  br label %block_.L_400d3e

  ; Code: .L_400d3e:	 RIP: 400d3e	 Bytes: 0
block_.L_400d3e:

  ; Code: movl -0x3c(%rbp), %eax	 RIP: 400d3e	 Bytes: 3
  %loadMem_400d3e = load %struct.Memory*, %struct.Memory** %MEMORY
  %call_400d3e = call %struct.Memory* @routine_movl_MINUS0x3c__rbp____eax(%struct.State* %0, i64  0, %struct.Memory* %loadMem_400d3e)
  store %struct.Memory* %call_400d3e, %struct.Memory** %MEMORY

  ; Code: addl $0x1, %eax	 RIP: 400d41	 Bytes: 3
  %loadMem_400d41 = load %struct.Memory*, %struct.Memory** %MEMORY
  %call_400d41 = call %struct.Memory* @routine_addl__0x1___eax(%struct.State* %0, i64  0, %struct.Memory* %loadMem_400d41)
  store %struct.Memory* %call_400d41, %struct.Memory** %MEMORY

  ; Code: movl %eax, -0x3c(%rbp)	 RIP: 400d44	 Bytes: 3
  %loadMem_400d44 = load %struct.Memory*, %struct.Memory** %MEMORY
  %call_400d44 = call %struct.Memory* @routine_movl__eax__MINUS0x3c__rbp_(%struct.State* %0, i64  0, %struct.Memory* %loadMem_400d44)
  store %struct.Memory* %call_400d44, %struct.Memory** %MEMORY

  ; Code: jmpq .L_400cd8	 RIP: 400d47	 Bytes: 5
  %loadMem_400d47 = load %struct.Memory*, %struct.Memory** %MEMORY
  %call_400d47 = call %struct.Memory* @routine_jmpq_.L_400cd8(%struct.State* %0, i64  0, %struct.Memory* %loadMem_400d47, i64 -111, i64 5)
  store %struct.Memory* %call_400d47, %struct.Memory** %MEMORY

  br label %block_.L_400cd8

  ; Code: .L_400d4c:	 RIP: 400d4c	 Bytes: 0
block_.L_400d4c:

  ; Code: movl $0x0, -0x3c(%rbp)	 RIP: 400d4c	 Bytes: 7
  %loadMem_400d4c = load %struct.Memory*, %struct.Memory** %MEMORY
  %call_400d4c = call %struct.Memory* @routine_movl__0x0__MINUS0x3c__rbp_(%struct.State* %0, i64  0, %struct.Memory* %loadMem_400d4c)
  store %struct.Memory* %call_400d4c, %struct.Memory** %MEMORY

  ; Code: .L_400d53:	 RIP: 400d53	 Bytes: 0
  br label %block_.L_400d53
block_.L_400d53:

  ; Code: movl -0x3c(%rbp), %eax	 RIP: 400d53	 Bytes: 3
  %loadMem_400d53 = load %struct.Memory*, %struct.Memory** %MEMORY
  %call_400d53 = call %struct.Memory* @routine_movl_MINUS0x3c__rbp____eax(%struct.State* %0, i64  0, %struct.Memory* %loadMem_400d53)
  store %struct.Memory* %call_400d53, %struct.Memory** %MEMORY

  ; Code: cmpl -0x14(%rbp), %eax	 RIP: 400d56	 Bytes: 3
  %loadMem_400d56 = load %struct.Memory*, %struct.Memory** %MEMORY
  %call_400d56 = call %struct.Memory* @routine_cmpl_MINUS0x14__rbp____eax(%struct.State* %0, i64  0, %struct.Memory* %loadMem_400d56)
  store %struct.Memory* %call_400d56, %struct.Memory** %MEMORY

  ; Code: jge .L_400dc7	 RIP: 400d59	 Bytes: 6
  %loadMem_400d59 = load %struct.Memory*, %struct.Memory** %MEMORY
  %call_400d59 = call %struct.Memory* @routine_jge_.L_400dc7(%struct.State* %0, i64  0, %struct.Memory* %loadMem_400d59, i8* %BRANCH_TAKEN, i64 110, i64 6, i64 6)
  store %struct.Memory* %call_400d59, %struct.Memory** %MEMORY

  %loadBr_400d59 = load i8, i8* %BRANCH_TAKEN
  %cmpBr_400d59 = icmp eq i8 %loadBr_400d59, 1
  br i1 %cmpBr_400d59, label %block_.L_400dc7, label %block_400d5f

block_400d5f:
  ; Code: movl $0x0, -0x40(%rbp)	 RIP: 400d5f	 Bytes: 7
  %loadMem_400d5f = load %struct.Memory*, %struct.Memory** %MEMORY
  %call_400d5f = call %struct.Memory* @routine_movl__0x0__MINUS0x40__rbp_(%struct.State* %0, i64  0, %struct.Memory* %loadMem_400d5f)
  store %struct.Memory* %call_400d5f, %struct.Memory** %MEMORY

  ; Code: .L_400d66:	 RIP: 400d66	 Bytes: 0
  br label %block_.L_400d66
block_.L_400d66:

  ; Code: movl -0x40(%rbp), %eax	 RIP: 400d66	 Bytes: 3
  %loadMem_400d66 = load %struct.Memory*, %struct.Memory** %MEMORY
  %call_400d66 = call %struct.Memory* @routine_movl_MINUS0x40__rbp____eax(%struct.State* %0, i64  0, %struct.Memory* %loadMem_400d66)
  store %struct.Memory* %call_400d66, %struct.Memory** %MEMORY

  ; Code: cmpl -0x10(%rbp), %eax	 RIP: 400d69	 Bytes: 3
  %loadMem_400d69 = load %struct.Memory*, %struct.Memory** %MEMORY
  %call_400d69 = call %struct.Memory* @routine_cmpl_MINUS0x10__rbp____eax(%struct.State* %0, i64  0, %struct.Memory* %loadMem_400d69)
  store %struct.Memory* %call_400d69, %struct.Memory** %MEMORY

  ; Code: jge .L_400db4	 RIP: 400d6c	 Bytes: 6
  %loadMem_400d6c = load %struct.Memory*, %struct.Memory** %MEMORY
  %call_400d6c = call %struct.Memory* @routine_jge_.L_400db4(%struct.State* %0, i64  0, %struct.Memory* %loadMem_400d6c, i8* %BRANCH_TAKEN, i64 72, i64 6, i64 6)
  store %struct.Memory* %call_400d6c, %struct.Memory** %MEMORY

  %loadBr_400d6c = load i8, i8* %BRANCH_TAKEN
  %cmpBr_400d6c = icmp eq i8 %loadBr_400d6c, 1
  br i1 %cmpBr_400d6c, label %block_.L_400db4, label %block_400d72

block_400d72:
  ; Code: cvtsi2sdl -0x3c(%rbp), %xmm0	 RIP: 400d72	 Bytes: 5
  %loadMem_400d72 = load %struct.Memory*, %struct.Memory** %MEMORY
  %call_400d72 = call %struct.Memory* @routine_cvtsi2sdl_MINUS0x3c__rbp____xmm0(%struct.State* %0, i64  0, %struct.Memory* %loadMem_400d72)
  store %struct.Memory* %call_400d72, %struct.Memory** %MEMORY

  ; Code: movl -0x40(%rbp), %eax	 RIP: 400d77	 Bytes: 3
  %loadMem_400d77 = load %struct.Memory*, %struct.Memory** %MEMORY
  %call_400d77 = call %struct.Memory* @routine_movl_MINUS0x40__rbp____eax(%struct.State* %0, i64  0, %struct.Memory* %loadMem_400d77)
  store %struct.Memory* %call_400d77, %struct.Memory** %MEMORY

  ; Code: addl $0x2, %eax	 RIP: 400d7a	 Bytes: 3
  %loadMem_400d7a = load %struct.Memory*, %struct.Memory** %MEMORY
  %call_400d7a = call %struct.Memory* @routine_addl__0x2___eax(%struct.State* %0, i64  0, %struct.Memory* %loadMem_400d7a)
  store %struct.Memory* %call_400d7a, %struct.Memory** %MEMORY

  ; Code: cvtsi2sdl %eax, %xmm1	 RIP: 400d7d	 Bytes: 4
  %loadMem_400d7d = load %struct.Memory*, %struct.Memory** %MEMORY
  %call_400d7d = call %struct.Memory* @routine_cvtsi2sdl__eax___xmm1(%struct.State* %0, i64  0, %struct.Memory* %loadMem_400d7d)
  store %struct.Memory* %call_400d7d, %struct.Memory** %MEMORY

  ; Code: mulsd %xmm1, %xmm0	 RIP: 400d81	 Bytes: 4
  %loadMem_400d81 = load %struct.Memory*, %struct.Memory** %MEMORY
  %call_400d81 = call %struct.Memory* @routine_mulsd__xmm1___xmm0(%struct.State* %0, i64  0, %struct.Memory* %loadMem_400d81)
  store %struct.Memory* %call_400d81, %struct.Memory** %MEMORY

  ; Code: cvtsi2sdl -0xc(%rbp), %xmm1	 RIP: 400d85	 Bytes: 5
  %loadMem_400d85 = load %struct.Memory*, %struct.Memory** %MEMORY
  %call_400d85 = call %struct.Memory* @routine_cvtsi2sdl_MINUS0xc__rbp____xmm1(%struct.State* %0, i64  0, %struct.Memory* %loadMem_400d85)
  store %struct.Memory* %call_400d85, %struct.Memory** %MEMORY

  ; Code: divsd %xmm1, %xmm0	 RIP: 400d8a	 Bytes: 4
  %loadMem_400d8a = load %struct.Memory*, %struct.Memory** %MEMORY
  %call_400d8a = call %struct.Memory* @routine_divsd__xmm1___xmm0(%struct.State* %0, i64  0, %struct.Memory* %loadMem_400d8a)
  store %struct.Memory* %call_400d8a, %struct.Memory** %MEMORY

  ; Code: movq -0x38(%rbp), %rcx	 RIP: 400d8e	 Bytes: 4
  %loadMem_400d8e = load %struct.Memory*, %struct.Memory** %MEMORY
  %call_400d8e = call %struct.Memory* @routine_movq_MINUS0x38__rbp____rcx(%struct.State* %0, i64  0, %struct.Memory* %loadMem_400d8e)
  store %struct.Memory* %call_400d8e, %struct.Memory** %MEMORY

  ; Code: movslq -0x3c(%rbp), %rdx	 RIP: 400d92	 Bytes: 4
  %loadMem_400d92 = load %struct.Memory*, %struct.Memory** %MEMORY
  %call_400d92 = call %struct.Memory* @routine_movslq_MINUS0x3c__rbp____rdx(%struct.State* %0, i64  0, %struct.Memory* %loadMem_400d92)
  store %struct.Memory* %call_400d92, %struct.Memory** %MEMORY

  ; Code: shlq $0xd, %rdx	 RIP: 400d96	 Bytes: 4
  %loadMem_400d96 = load %struct.Memory*, %struct.Memory** %MEMORY
  %call_400d96 = call %struct.Memory* @routine_shlq__0xd___rdx(%struct.State* %0, i64  0, %struct.Memory* %loadMem_400d96)
  store %struct.Memory* %call_400d96, %struct.Memory** %MEMORY

  ; Code: addq %rdx, %rcx	 RIP: 400d9a	 Bytes: 3
  %loadMem_400d9a = load %struct.Memory*, %struct.Memory** %MEMORY
  %call_400d9a = call %struct.Memory* @routine_addq__rdx___rcx(%struct.State* %0, i64  0, %struct.Memory* %loadMem_400d9a)
  store %struct.Memory* %call_400d9a, %struct.Memory** %MEMORY

  ; Code: movslq -0x40(%rbp), %rdx	 RIP: 400d9d	 Bytes: 4
  %loadMem_400d9d = load %struct.Memory*, %struct.Memory** %MEMORY
  %call_400d9d = call %struct.Memory* @routine_movslq_MINUS0x40__rbp____rdx(%struct.State* %0, i64  0, %struct.Memory* %loadMem_400d9d)
  store %struct.Memory* %call_400d9d, %struct.Memory** %MEMORY

  ; Code: movsd %xmm0, (%rcx,%rdx,8)	 RIP: 400da1	 Bytes: 5
  %loadMem_400da1 = load %struct.Memory*, %struct.Memory** %MEMORY
  %call_400da1 = call %struct.Memory* @routine_movsd__xmm0____rcx__rdx_8_(%struct.State* %0, i64  0, %struct.Memory* %loadMem_400da1)
  store %struct.Memory* %call_400da1, %struct.Memory** %MEMORY

  ; Code: movl -0x40(%rbp), %eax	 RIP: 400da6	 Bytes: 3
  %loadMem_400da6 = load %struct.Memory*, %struct.Memory** %MEMORY
  %call_400da6 = call %struct.Memory* @routine_movl_MINUS0x40__rbp____eax(%struct.State* %0, i64  0, %struct.Memory* %loadMem_400da6)
  store %struct.Memory* %call_400da6, %struct.Memory** %MEMORY

  ; Code: addl $0x1, %eax	 RIP: 400da9	 Bytes: 3
  %loadMem_400da9 = load %struct.Memory*, %struct.Memory** %MEMORY
  %call_400da9 = call %struct.Memory* @routine_addl__0x1___eax(%struct.State* %0, i64  0, %struct.Memory* %loadMem_400da9)
  store %struct.Memory* %call_400da9, %struct.Memory** %MEMORY

  ; Code: movl %eax, -0x40(%rbp)	 RIP: 400dac	 Bytes: 3
  %loadMem_400dac = load %struct.Memory*, %struct.Memory** %MEMORY
  %call_400dac = call %struct.Memory* @routine_movl__eax__MINUS0x40__rbp_(%struct.State* %0, i64  0, %struct.Memory* %loadMem_400dac)
  store %struct.Memory* %call_400dac, %struct.Memory** %MEMORY

  ; Code: jmpq .L_400d66	 RIP: 400daf	 Bytes: 5
  %loadMem_400daf = load %struct.Memory*, %struct.Memory** %MEMORY
  %call_400daf = call %struct.Memory* @routine_jmpq_.L_400d66(%struct.State* %0, i64  0, %struct.Memory* %loadMem_400daf, i64 -73, i64 5)
  store %struct.Memory* %call_400daf, %struct.Memory** %MEMORY

  br label %block_.L_400d66

  ; Code: .L_400db4:	 RIP: 400db4	 Bytes: 0
block_.L_400db4:

  ; Code: jmpq .L_400db9	 RIP: 400db4	 Bytes: 5
  %loadMem_400db4 = load %struct.Memory*, %struct.Memory** %MEMORY
  %call_400db4 = call %struct.Memory* @routine_jmpq_.L_400db9(%struct.State* %0, i64  0, %struct.Memory* %loadMem_400db4, i64 5, i64 5)
  store %struct.Memory* %call_400db4, %struct.Memory** %MEMORY

  br label %block_.L_400db9

  ; Code: .L_400db9:	 RIP: 400db9	 Bytes: 0
block_.L_400db9:

  ; Code: movl -0x3c(%rbp), %eax	 RIP: 400db9	 Bytes: 3
  %loadMem_400db9 = load %struct.Memory*, %struct.Memory** %MEMORY
  %call_400db9 = call %struct.Memory* @routine_movl_MINUS0x3c__rbp____eax(%struct.State* %0, i64  0, %struct.Memory* %loadMem_400db9)
  store %struct.Memory* %call_400db9, %struct.Memory** %MEMORY

  ; Code: addl $0x1, %eax	 RIP: 400dbc	 Bytes: 3
  %loadMem_400dbc = load %struct.Memory*, %struct.Memory** %MEMORY
  %call_400dbc = call %struct.Memory* @routine_addl__0x1___eax(%struct.State* %0, i64  0, %struct.Memory* %loadMem_400dbc)
  store %struct.Memory* %call_400dbc, %struct.Memory** %MEMORY

  ; Code: movl %eax, -0x3c(%rbp)	 RIP: 400dbf	 Bytes: 3
  %loadMem_400dbf = load %struct.Memory*, %struct.Memory** %MEMORY
  %call_400dbf = call %struct.Memory* @routine_movl__eax__MINUS0x3c__rbp_(%struct.State* %0, i64  0, %struct.Memory* %loadMem_400dbf)
  store %struct.Memory* %call_400dbf, %struct.Memory** %MEMORY

  ; Code: jmpq .L_400d53	 RIP: 400dc2	 Bytes: 5
  %loadMem_400dc2 = load %struct.Memory*, %struct.Memory** %MEMORY
  %call_400dc2 = call %struct.Memory* @routine_jmpq_.L_400d53(%struct.State* %0, i64  0, %struct.Memory* %loadMem_400dc2, i64 -111, i64 5)
  store %struct.Memory* %call_400dc2, %struct.Memory** %MEMORY

  br label %block_.L_400d53

  ; Code: .L_400dc7:	 RIP: 400dc7	 Bytes: 0
block_.L_400dc7:

  ; Code: popq %rbp	 RIP: 400dc7	 Bytes: 1
  %loadMem_400dc7 = load %struct.Memory*, %struct.Memory** %MEMORY
  %call_400dc7 = call %struct.Memory* @routine_popq__rbp(%struct.State* %0, i64  0, %struct.Memory* %loadMem_400dc7)
  store %struct.Memory* %call_400dc7, %struct.Memory** %MEMORY

  ; Code: retq	 RIP: 400dc8	 Bytes: 1
  %loadMem_400dc8 = load %struct.Memory*, %struct.Memory** %MEMORY
  %call_400dc8 = call %struct.Memory* @routine_retq(%struct.State* %0, i64  0, %struct.Memory* %loadMem_400dc8)
  store %struct.Memory* %call_400dc8, %struct.Memory** %MEMORY

  ret %struct.Memory* %call_400dc8
}

define internal %struct.Memory* @_ZN12_GLOBAL__N_1L4PUSHI2InImEEEP6MemoryS4_R5StateT_(%struct.Memory*, %struct.State* nocapture dereferenceable(3376), i64) #0 {
  %4 = getelementptr inbounds %struct.State, %struct.State* %1, i64 0, i32 6, i32 13, i32 0, i32 0
  %5 = load i64, i64* %4, align 8
  %6 = add i64 %5, -8
  %7 = inttoptr i64 %6 to i64*
  store i64 %2, i64* %7
  store i64 %6, i64* %4, align 8
  ret %struct.Memory* %0
}

define %struct.Memory* @routine_pushq__rbp(%struct.State*  dereferenceable(3376), i64, %struct.Memory* ) #19 {
block_400488:
  %3 = getelementptr inbounds %struct.State, %struct.State* %0, i32 0, i32 6
  %4 = getelementptr inbounds %struct.GPR, %struct.GPR* %3, i32 0, i32 33
  %5 = getelementptr inbounds %struct.Reg, %struct.Reg* %4, i32 0, i32 0
  %PC = bitcast %union.anon* %5 to i64*
  %6 = getelementptr inbounds %struct.State, %struct.State* %0, i32 0, i32 6
  %7 = getelementptr inbounds %struct.GPR, %struct.GPR* %6, i32 0, i32 15
  %8 = getelementptr inbounds %struct.Reg, %struct.Reg* %7, i32 0, i32 0
  %RBP = bitcast %union.anon* %8 to i64*
  %9 = load i64, i64* %RBP
  %10 = load i64, i64* %PC
  %11 = add i64 %10, 1
  store i64 %11, i64* %PC
  %12 = call %struct.Memory* @_ZN12_GLOBAL__N_1L4PUSHI2InImEEEP6MemoryS4_R5StateT_(%struct.Memory* %2, %struct.State* %0, i64 %9)
  ret %struct.Memory* %12
}

define internal %struct.Memory* @_ZN12_GLOBAL__N_1L3MOVI3RnWImE2RnImEEEP6MemoryS6_R5StateT_T0_(%struct.Memory* readnone returned, %struct.State* nocapture readnone dereferenceable(3376), i64* nocapture, i64) #2 {
  store i64 %3, i64* %2, align 8
  ret %struct.Memory* %0
}

define %struct.Memory* @routine_movq__rsp___rbp(%struct.State*  dereferenceable(3376), i64, %struct.Memory* ) #19 {
block_400488:
  %3 = getelementptr inbounds %struct.State, %struct.State* %0, i32 0, i32 6
  %4 = getelementptr inbounds %struct.GPR, %struct.GPR* %3, i32 0, i32 33
  %5 = getelementptr inbounds %struct.Reg, %struct.Reg* %4, i32 0, i32 0
  %PC = bitcast %union.anon* %5 to i64*
  %6 = getelementptr inbounds %struct.State, %struct.State* %0, i32 0, i32 6
  %7 = getelementptr inbounds %struct.GPR, %struct.GPR* %6, i32 0, i32 13
  %8 = getelementptr inbounds %struct.Reg, %struct.Reg* %7, i32 0, i32 0
  %RSP = bitcast %union.anon* %8 to i64*
  %9 = getelementptr inbounds %struct.State, %struct.State* %0, i32 0, i32 6
  %10 = getelementptr inbounds %struct.GPR, %struct.GPR* %9, i32 0, i32 15
  %11 = getelementptr inbounds %struct.Reg, %struct.Reg* %10, i32 0, i32 0
  %RBP = bitcast %union.anon* %11 to i64*
  %12 = load i64, i64* %RSP
  %13 = load i64, i64* %PC
  %14 = add i64 %13, 3
  store i64 %14, i64* %PC
  %15 = call %struct.Memory* @_ZN12_GLOBAL__N_1L3MOVI3RnWImE2RnImEEEP6MemoryS6_R5StateT_T0_(%struct.Memory* %2, %struct.State* %0, i64* %RBP, i64 %12)
  ret %struct.Memory* %15
}

define internal %struct.Memory* @_ZN12_GLOBAL__N_1L3MOVI3RnWImE2MnImEEEP6MemoryS6_R5StateT_T0_(%struct.Memory* returned, %struct.State* nocapture readnone dereferenceable(3376), i64* nocapture, i64) #0 {
  %5 = inttoptr i64 %3 to i64*
  %6 = load i64, i64* %5
  store i64 %6, i64* %2, align 8
  ret %struct.Memory* %0
}

define %struct.Memory* @routine_movq_0x20__rbp____rax(%struct.State*  dereferenceable(3376), i64, %struct.Memory* ) #19 {
block_400488:
  %3 = getelementptr inbounds %struct.State, %struct.State* %0, i32 0, i32 6
  %4 = getelementptr inbounds %struct.GPR, %struct.GPR* %3, i32 0, i32 33
  %5 = getelementptr inbounds %struct.Reg, %struct.Reg* %4, i32 0, i32 0
  %PC = bitcast %union.anon* %5 to i64*
  %6 = getelementptr inbounds %struct.State, %struct.State* %0, i32 0, i32 6
  %7 = getelementptr inbounds %struct.GPR, %struct.GPR* %6, i32 0, i32 1
  %8 = getelementptr inbounds %struct.Reg, %struct.Reg* %7, i32 0, i32 0
  %RAX = bitcast %union.anon* %8 to i64*
  %9 = getelementptr inbounds %struct.State, %struct.State* %0, i32 0, i32 6
  %10 = getelementptr inbounds %struct.GPR, %struct.GPR* %9, i32 0, i32 15
  %11 = getelementptr inbounds %struct.Reg, %struct.Reg* %10, i32 0, i32 0
  %RBP = bitcast %union.anon* %11 to i64*
  %12 = load i64, i64* %RBP
  %13 = add i64 %12, 32
  %14 = load i64, i64* %PC
  %15 = add i64 %14, 4
  store i64 %15, i64* %PC
  %16 = call %struct.Memory* @_ZN12_GLOBAL__N_1L3MOVI3RnWImE2MnImEEEP6MemoryS6_R5StateT_T0_(%struct.Memory* %2, %struct.State* %0, i64* %RAX, i64 %13)
  ret %struct.Memory* %16
}


define %struct.Memory* @routine_movq_0x18__rbp____r10(%struct.State*  dereferenceable(3376), i64, %struct.Memory* ) #19 {
block_400488:
  %3 = getelementptr inbounds %struct.State, %struct.State* %0, i32 0, i32 6
  %4 = getelementptr inbounds %struct.GPR, %struct.GPR* %3, i32 0, i32 33
  %5 = getelementptr inbounds %struct.Reg, %struct.Reg* %4, i32 0, i32 0
  %PC = bitcast %union.anon* %5 to i64*
  %6 = getelementptr inbounds %struct.State, %struct.State* %0, i32 0, i32 6
  %7 = getelementptr inbounds %struct.GPR, %struct.GPR* %6, i32 0, i32 15
  %8 = getelementptr inbounds %struct.Reg, %struct.Reg* %7, i32 0, i32 0
  %RBP = bitcast %union.anon* %8 to i64*
  %9 = getelementptr inbounds %struct.State, %struct.State* %0, i32 0, i32 6
  %10 = getelementptr inbounds %struct.GPR, %struct.GPR* %9, i32 0, i32 21
  %11 = getelementptr inbounds %struct.Reg, %struct.Reg* %10, i32 0, i32 0
  %R10 = bitcast %union.anon* %11 to i64*
  %12 = load i64, i64* %RBP
  %13 = add i64 %12, 24
  %14 = load i64, i64* %PC
  %15 = add i64 %14, 4
  store i64 %15, i64* %PC
  %16 = call %struct.Memory* @_ZN12_GLOBAL__N_1L3MOVI3RnWImE2MnImEEEP6MemoryS6_R5StateT_T0_(%struct.Memory* %2, %struct.State* %0, i64* %R10, i64 %13)
  ret %struct.Memory* %16
}


define %struct.Memory* @routine_movq_0x10__rbp____r11(%struct.State*  dereferenceable(3376), i64, %struct.Memory* ) #19 {
block_400488:
  %3 = getelementptr inbounds %struct.State, %struct.State* %0, i32 0, i32 6
  %4 = getelementptr inbounds %struct.GPR, %struct.GPR* %3, i32 0, i32 33
  %5 = getelementptr inbounds %struct.Reg, %struct.Reg* %4, i32 0, i32 0
  %PC = bitcast %union.anon* %5 to i64*
  %6 = getelementptr inbounds %struct.State, %struct.State* %0, i32 0, i32 6
  %7 = getelementptr inbounds %struct.GPR, %struct.GPR* %6, i32 0, i32 15
  %8 = getelementptr inbounds %struct.Reg, %struct.Reg* %7, i32 0, i32 0
  %RBP = bitcast %union.anon* %8 to i64*
  %9 = getelementptr inbounds %struct.State, %struct.State* %0, i32 0, i32 6
  %10 = getelementptr inbounds %struct.GPR, %struct.GPR* %9, i32 0, i32 23
  %11 = getelementptr inbounds %struct.Reg, %struct.Reg* %10, i32 0, i32 0
  %R11 = bitcast %union.anon* %11 to i64*
  %12 = load i64, i64* %RBP
  %13 = add i64 %12, 16
  %14 = load i64, i64* %PC
  %15 = add i64 %14, 4
  store i64 %15, i64* %PC
  %16 = call %struct.Memory* @_ZN12_GLOBAL__N_1L3MOVI3RnWImE2MnImEEEP6MemoryS6_R5StateT_T0_(%struct.Memory* %2, %struct.State* %0, i64* %R11, i64 %13)
  ret %struct.Memory* %16
}

define internal %struct.Memory* @_ZN12_GLOBAL__N_1L3MOVI3MnWIjE2RnIjEEEP6MemoryS6_R5StateT_T0_(%struct.Memory* readnone, %struct.State* nocapture readnone dereferenceable(3376), i64, i64) #8 {
  %5 = trunc i64 %3 to i32
  %6 = inttoptr i64 %2 to i32*
  store i32 %5, i32* %6
  ret %struct.Memory* %0
}

define %struct.Memory* @routine_movl__edi__MINUS0x4__rbp_(%struct.State*  dereferenceable(3376), i64, %struct.Memory* ) #19 {
block_400488:
  %3 = getelementptr inbounds %struct.State, %struct.State* %0, i32 0, i32 6
  %4 = getelementptr inbounds %struct.GPR, %struct.GPR* %3, i32 0, i32 33
  %5 = getelementptr inbounds %struct.Reg, %struct.Reg* %4, i32 0, i32 0
  %PC = bitcast %union.anon* %5 to i64*
  %6 = getelementptr inbounds %struct.State, %struct.State* %0, i32 0, i32 6
  %7 = getelementptr inbounds %struct.GPR, %struct.GPR* %6, i32 0, i32 11
  %8 = getelementptr inbounds %struct.Reg, %struct.Reg* %7, i32 0, i32 0
  %EDI = bitcast %union.anon* %8 to i32*
  %9 = getelementptr inbounds %struct.State, %struct.State* %0, i32 0, i32 6
  %10 = getelementptr inbounds %struct.GPR, %struct.GPR* %9, i32 0, i32 15
  %11 = getelementptr inbounds %struct.Reg, %struct.Reg* %10, i32 0, i32 0
  %RBP = bitcast %union.anon* %11 to i64*
  %12 = load i64, i64* %RBP
  %13 = sub i64 %12, 4
  %14 = load i32, i32* %EDI
  %15 = zext i32 %14 to i64
  %16 = load i64, i64* %PC
  %17 = add i64 %16, 3
  store i64 %17, i64* %PC
  %18 = call %struct.Memory* @_ZN12_GLOBAL__N_1L3MOVI3MnWIjE2RnIjEEEP6MemoryS6_R5StateT_T0_(%struct.Memory* %2, %struct.State* %0, i64 %13, i64 %15)
  ret %struct.Memory* %18
}


define %struct.Memory* @routine_movl__esi__MINUS0x8__rbp_(%struct.State*  dereferenceable(3376), i64, %struct.Memory* ) #19 {
block_400488:
  %3 = getelementptr inbounds %struct.State, %struct.State* %0, i32 0, i32 6
  %4 = getelementptr inbounds %struct.GPR, %struct.GPR* %3, i32 0, i32 33
  %5 = getelementptr inbounds %struct.Reg, %struct.Reg* %4, i32 0, i32 0
  %PC = bitcast %union.anon* %5 to i64*
  %6 = getelementptr inbounds %struct.State, %struct.State* %0, i32 0, i32 6
  %7 = getelementptr inbounds %struct.GPR, %struct.GPR* %6, i32 0, i32 9
  %8 = getelementptr inbounds %struct.Reg, %struct.Reg* %7, i32 0, i32 0
  %ESI = bitcast %union.anon* %8 to i32*
  %9 = getelementptr inbounds %struct.State, %struct.State* %0, i32 0, i32 6
  %10 = getelementptr inbounds %struct.GPR, %struct.GPR* %9, i32 0, i32 15
  %11 = getelementptr inbounds %struct.Reg, %struct.Reg* %10, i32 0, i32 0
  %RBP = bitcast %union.anon* %11 to i64*
  %12 = load i64, i64* %RBP
  %13 = sub i64 %12, 8
  %14 = load i32, i32* %ESI
  %15 = zext i32 %14 to i64
  %16 = load i64, i64* %PC
  %17 = add i64 %16, 3
  store i64 %17, i64* %PC
  %18 = call %struct.Memory* @_ZN12_GLOBAL__N_1L3MOVI3MnWIjE2RnIjEEEP6MemoryS6_R5StateT_T0_(%struct.Memory* %2, %struct.State* %0, i64 %13, i64 %15)
  ret %struct.Memory* %18
}


define %struct.Memory* @routine_movl__edx__MINUS0xc__rbp_(%struct.State*  dereferenceable(3376), i64, %struct.Memory* ) #19 {
block_400488:
  %3 = getelementptr inbounds %struct.State, %struct.State* %0, i32 0, i32 6
  %4 = getelementptr inbounds %struct.GPR, %struct.GPR* %3, i32 0, i32 33
  %5 = getelementptr inbounds %struct.Reg, %struct.Reg* %4, i32 0, i32 0
  %PC = bitcast %union.anon* %5 to i64*
  %6 = getelementptr inbounds %struct.State, %struct.State* %0, i32 0, i32 6
  %7 = getelementptr inbounds %struct.GPR, %struct.GPR* %6, i32 0, i32 7
  %8 = getelementptr inbounds %struct.Reg, %struct.Reg* %7, i32 0, i32 0
  %EDX = bitcast %union.anon* %8 to i32*
  %9 = getelementptr inbounds %struct.State, %struct.State* %0, i32 0, i32 6
  %10 = getelementptr inbounds %struct.GPR, %struct.GPR* %9, i32 0, i32 15
  %11 = getelementptr inbounds %struct.Reg, %struct.Reg* %10, i32 0, i32 0
  %RBP = bitcast %union.anon* %11 to i64*
  %12 = load i64, i64* %RBP
  %13 = sub i64 %12, 12
  %14 = load i32, i32* %EDX
  %15 = zext i32 %14 to i64
  %16 = load i64, i64* %PC
  %17 = add i64 %16, 3
  store i64 %17, i64* %PC
  %18 = call %struct.Memory* @_ZN12_GLOBAL__N_1L3MOVI3MnWIjE2RnIjEEEP6MemoryS6_R5StateT_T0_(%struct.Memory* %2, %struct.State* %0, i64 %13, i64 %15)
  ret %struct.Memory* %18
}


define %struct.Memory* @routine_movl__ecx__MINUS0x10__rbp_(%struct.State*  dereferenceable(3376), i64, %struct.Memory* ) #19 {
block_400488:
  %3 = getelementptr inbounds %struct.State, %struct.State* %0, i32 0, i32 6
  %4 = getelementptr inbounds %struct.GPR, %struct.GPR* %3, i32 0, i32 33
  %5 = getelementptr inbounds %struct.Reg, %struct.Reg* %4, i32 0, i32 0
  %PC = bitcast %union.anon* %5 to i64*
  %6 = getelementptr inbounds %struct.State, %struct.State* %0, i32 0, i32 6
  %7 = getelementptr inbounds %struct.GPR, %struct.GPR* %6, i32 0, i32 5
  %8 = getelementptr inbounds %struct.Reg, %struct.Reg* %7, i32 0, i32 0
  %ECX = bitcast %union.anon* %8 to i32*
  %9 = getelementptr inbounds %struct.State, %struct.State* %0, i32 0, i32 6
  %10 = getelementptr inbounds %struct.GPR, %struct.GPR* %9, i32 0, i32 15
  %11 = getelementptr inbounds %struct.Reg, %struct.Reg* %10, i32 0, i32 0
  %RBP = bitcast %union.anon* %11 to i64*
  %12 = load i64, i64* %RBP
  %13 = sub i64 %12, 16
  %14 = load i32, i32* %ECX
  %15 = zext i32 %14 to i64
  %16 = load i64, i64* %PC
  %17 = add i64 %16, 3
  store i64 %17, i64* %PC
  %18 = call %struct.Memory* @_ZN12_GLOBAL__N_1L3MOVI3MnWIjE2RnIjEEEP6MemoryS6_R5StateT_T0_(%struct.Memory* %2, %struct.State* %0, i64 %13, i64 %15)
  ret %struct.Memory* %18
}


define %struct.Memory* @routine_movl__r8d__MINUS0x14__rbp_(%struct.State*  dereferenceable(3376), i64, %struct.Memory* ) #19 {
block_400488:
  %3 = getelementptr inbounds %struct.State, %struct.State* %0, i32 0, i32 6
  %4 = getelementptr inbounds %struct.GPR, %struct.GPR* %3, i32 0, i32 33
  %5 = getelementptr inbounds %struct.Reg, %struct.Reg* %4, i32 0, i32 0
  %PC = bitcast %union.anon* %5 to i64*
  %6 = getelementptr inbounds %struct.State, %struct.State* %0, i32 0, i32 6
  %7 = getelementptr inbounds %struct.GPR, %struct.GPR* %6, i32 0, i32 17
  %8 = getelementptr inbounds %struct.Reg, %struct.Reg* %7, i32 0, i32 0
  %R8D = bitcast %union.anon* %8 to i32*
  %9 = getelementptr inbounds %struct.State, %struct.State* %0, i32 0, i32 6
  %10 = getelementptr inbounds %struct.GPR, %struct.GPR* %9, i32 0, i32 15
  %11 = getelementptr inbounds %struct.Reg, %struct.Reg* %10, i32 0, i32 0
  %RBP = bitcast %union.anon* %11 to i64*
  %12 = load i64, i64* %RBP
  %13 = sub i64 %12, 20
  %14 = load i32, i32* %R8D
  %15 = zext i32 %14 to i64
  %16 = load i64, i64* %PC
  %17 = add i64 %16, 4
  store i64 %17, i64* %PC
  %18 = call %struct.Memory* @_ZN12_GLOBAL__N_1L3MOVI3MnWIjE2RnIjEEEP6MemoryS6_R5StateT_T0_(%struct.Memory* %2, %struct.State* %0, i64 %13, i64 %15)
  ret %struct.Memory* %18
}

define internal %struct.Memory* @_ZN12_GLOBAL__N_1L3MOVI3MnWImE2RnImEEEP6MemoryS6_R5StateT_T0_(%struct.Memory* readnone, %struct.State* nocapture readnone dereferenceable(3376), i64, i64) #8 {
  %5 = inttoptr i64 %2 to i64*
  store i64 %3, i64* %5
  ret %struct.Memory* %0
}

define %struct.Memory* @routine_movq__r9__MINUS0x20__rbp_(%struct.State*  dereferenceable(3376), i64, %struct.Memory* ) #19 {
block_400488:
  %3 = getelementptr inbounds %struct.State, %struct.State* %0, i32 0, i32 6
  %4 = getelementptr inbounds %struct.GPR, %struct.GPR* %3, i32 0, i32 33
  %5 = getelementptr inbounds %struct.Reg, %struct.Reg* %4, i32 0, i32 0
  %PC = bitcast %union.anon* %5 to i64*
  %6 = getelementptr inbounds %struct.State, %struct.State* %0, i32 0, i32 6
  %7 = getelementptr inbounds %struct.GPR, %struct.GPR* %6, i32 0, i32 15
  %8 = getelementptr inbounds %struct.Reg, %struct.Reg* %7, i32 0, i32 0
  %RBP = bitcast %union.anon* %8 to i64*
  %9 = getelementptr inbounds %struct.State, %struct.State* %0, i32 0, i32 6
  %10 = getelementptr inbounds %struct.GPR, %struct.GPR* %9, i32 0, i32 19
  %11 = getelementptr inbounds %struct.Reg, %struct.Reg* %10, i32 0, i32 0
  %R9 = bitcast %union.anon* %11 to i64*
  %12 = load i64, i64* %RBP
  %13 = sub i64 %12, 32
  %14 = load i64, i64* %R9
  %15 = load i64, i64* %PC
  %16 = add i64 %15, 4
  store i64 %16, i64* %PC
  %17 = call %struct.Memory* @_ZN12_GLOBAL__N_1L3MOVI3MnWImE2RnImEEEP6MemoryS6_R5StateT_T0_(%struct.Memory* %2, %struct.State* %0, i64 %13, i64 %14)
  ret %struct.Memory* %17
}


define %struct.Memory* @routine_movq__r11__MINUS0x28__rbp_(%struct.State*  dereferenceable(3376), i64, %struct.Memory* ) #19 {
block_400488:
  %3 = getelementptr inbounds %struct.State, %struct.State* %0, i32 0, i32 6
  %4 = getelementptr inbounds %struct.GPR, %struct.GPR* %3, i32 0, i32 33
  %5 = getelementptr inbounds %struct.Reg, %struct.Reg* %4, i32 0, i32 0
  %PC = bitcast %union.anon* %5 to i64*
  %6 = getelementptr inbounds %struct.State, %struct.State* %0, i32 0, i32 6
  %7 = getelementptr inbounds %struct.GPR, %struct.GPR* %6, i32 0, i32 15
  %8 = getelementptr inbounds %struct.Reg, %struct.Reg* %7, i32 0, i32 0
  %RBP = bitcast %union.anon* %8 to i64*
  %9 = getelementptr inbounds %struct.State, %struct.State* %0, i32 0, i32 6
  %10 = getelementptr inbounds %struct.GPR, %struct.GPR* %9, i32 0, i32 23
  %11 = getelementptr inbounds %struct.Reg, %struct.Reg* %10, i32 0, i32 0
  %R11 = bitcast %union.anon* %11 to i64*
  %12 = load i64, i64* %RBP
  %13 = sub i64 %12, 40
  %14 = load i64, i64* %R11
  %15 = load i64, i64* %PC
  %16 = add i64 %15, 4
  store i64 %16, i64* %PC
  %17 = call %struct.Memory* @_ZN12_GLOBAL__N_1L3MOVI3MnWImE2RnImEEEP6MemoryS6_R5StateT_T0_(%struct.Memory* %2, %struct.State* %0, i64 %13, i64 %14)
  ret %struct.Memory* %17
}


define %struct.Memory* @routine_movq__r10__MINUS0x30__rbp_(%struct.State*  dereferenceable(3376), i64, %struct.Memory* ) #19 {
block_400488:
  %3 = getelementptr inbounds %struct.State, %struct.State* %0, i32 0, i32 6
  %4 = getelementptr inbounds %struct.GPR, %struct.GPR* %3, i32 0, i32 33
  %5 = getelementptr inbounds %struct.Reg, %struct.Reg* %4, i32 0, i32 0
  %PC = bitcast %union.anon* %5 to i64*
  %6 = getelementptr inbounds %struct.State, %struct.State* %0, i32 0, i32 6
  %7 = getelementptr inbounds %struct.GPR, %struct.GPR* %6, i32 0, i32 15
  %8 = getelementptr inbounds %struct.Reg, %struct.Reg* %7, i32 0, i32 0
  %RBP = bitcast %union.anon* %8 to i64*
  %9 = getelementptr inbounds %struct.State, %struct.State* %0, i32 0, i32 6
  %10 = getelementptr inbounds %struct.GPR, %struct.GPR* %9, i32 0, i32 21
  %11 = getelementptr inbounds %struct.Reg, %struct.Reg* %10, i32 0, i32 0
  %R10 = bitcast %union.anon* %11 to i64*
  %12 = load i64, i64* %RBP
  %13 = sub i64 %12, 48
  %14 = load i64, i64* %R10
  %15 = load i64, i64* %PC
  %16 = add i64 %15, 4
  store i64 %16, i64* %PC
  %17 = call %struct.Memory* @_ZN12_GLOBAL__N_1L3MOVI3MnWImE2RnImEEEP6MemoryS6_R5StateT_T0_(%struct.Memory* %2, %struct.State* %0, i64 %13, i64 %14)
  ret %struct.Memory* %17
}


define %struct.Memory* @routine_movq__rax__MINUS0x38__rbp_(%struct.State*  dereferenceable(3376), i64, %struct.Memory* ) #19 {
block_400488:
  %3 = getelementptr inbounds %struct.State, %struct.State* %0, i32 0, i32 6
  %4 = getelementptr inbounds %struct.GPR, %struct.GPR* %3, i32 0, i32 33
  %5 = getelementptr inbounds %struct.Reg, %struct.Reg* %4, i32 0, i32 0
  %PC = bitcast %union.anon* %5 to i64*
  %6 = getelementptr inbounds %struct.State, %struct.State* %0, i32 0, i32 6
  %7 = getelementptr inbounds %struct.GPR, %struct.GPR* %6, i32 0, i32 1
  %8 = getelementptr inbounds %struct.Reg, %struct.Reg* %7, i32 0, i32 0
  %RAX = bitcast %union.anon* %8 to i64*
  %9 = getelementptr inbounds %struct.State, %struct.State* %0, i32 0, i32 6
  %10 = getelementptr inbounds %struct.GPR, %struct.GPR* %9, i32 0, i32 15
  %11 = getelementptr inbounds %struct.Reg, %struct.Reg* %10, i32 0, i32 0
  %RBP = bitcast %union.anon* %11 to i64*
  %12 = load i64, i64* %RBP
  %13 = sub i64 %12, 56
  %14 = load i64, i64* %RAX
  %15 = load i64, i64* %PC
  %16 = add i64 %15, 4
  store i64 %16, i64* %PC
  %17 = call %struct.Memory* @_ZN12_GLOBAL__N_1L3MOVI3MnWImE2RnImEEEP6MemoryS6_R5StateT_T0_(%struct.Memory* %2, %struct.State* %0, i64 %13, i64 %14)
  ret %struct.Memory* %17
}

define internal %struct.Memory* @_ZN12_GLOBAL__N_1L3MOVI3MnWIjE2InIjEEEP6MemoryS6_R5StateT_T0_(%struct.Memory* readnone, %struct.State* nocapture readnone dereferenceable(3376), i64, i64) #8 {
  %5 = trunc i64 %3 to i32
  %6 = inttoptr i64 %2 to i32*
  store i32 %5, i32* %6
  ret %struct.Memory* %0
}

define %struct.Memory* @routine_movl__0x0__MINUS0x3c__rbp_(%struct.State*  dereferenceable(3376), i64, %struct.Memory* ) #19 {
block_400488:
  %3 = getelementptr inbounds %struct.State, %struct.State* %0, i32 0, i32 6
  %4 = getelementptr inbounds %struct.GPR, %struct.GPR* %3, i32 0, i32 33
  %5 = getelementptr inbounds %struct.Reg, %struct.Reg* %4, i32 0, i32 0
  %PC = bitcast %union.anon* %5 to i64*
  %6 = getelementptr inbounds %struct.State, %struct.State* %0, i32 0, i32 6
  %7 = getelementptr inbounds %struct.GPR, %struct.GPR* %6, i32 0, i32 15
  %8 = getelementptr inbounds %struct.Reg, %struct.Reg* %7, i32 0, i32 0
  %RBP = bitcast %union.anon* %8 to i64*
  %9 = load i64, i64* %RBP
  %10 = sub i64 %9, 60
  %11 = load i64, i64* %PC
  %12 = add i64 %11, 7
  store i64 %12, i64* %PC
  %13 = call %struct.Memory* @_ZN12_GLOBAL__N_1L3MOVI3MnWIjE2InIjEEEP6MemoryS6_R5StateT_T0_(%struct.Memory* %2, %struct.State* %0, i64 %10, i64 0)
  ret %struct.Memory* %13
}

define internal %struct.Memory* @_ZN12_GLOBAL__N_1L3MOVI3RnWImE2MnIjEEEP6MemoryS6_R5StateT_T0_(%struct.Memory* returned, %struct.State* nocapture readnone dereferenceable(3376), i64* nocapture, i64) #0 {
  %5 = inttoptr i64 %3 to i32*
  %6 = load i32, i32* %5
  %7 = zext i32 %6 to i64
  store i64 %7, i64* %2, align 8
  ret %struct.Memory* %0
}

define %struct.Memory* @routine_movl_MINUS0x3c__rbp____eax(%struct.State*  dereferenceable(3376), i64, %struct.Memory* ) #19 {
block_400488:
  %3 = getelementptr inbounds %struct.State, %struct.State* %0, i32 0, i32 6
  %4 = getelementptr inbounds %struct.GPR, %struct.GPR* %3, i32 0, i32 33
  %5 = getelementptr inbounds %struct.Reg, %struct.Reg* %4, i32 0, i32 0
  %PC = bitcast %union.anon* %5 to i64*
  %6 = getelementptr inbounds %struct.State, %struct.State* %0, i32 0, i32 6
  %7 = getelementptr inbounds %struct.GPR, %struct.GPR* %6, i32 0, i32 1
  %8 = getelementptr inbounds %struct.Reg, %struct.Reg* %7, i32 0, i32 0
  %RAX = bitcast %union.anon* %8 to i64*
  %9 = getelementptr inbounds %struct.State, %struct.State* %0, i32 0, i32 6
  %10 = getelementptr inbounds %struct.GPR, %struct.GPR* %9, i32 0, i32 15
  %11 = getelementptr inbounds %struct.Reg, %struct.Reg* %10, i32 0, i32 0
  %RBP = bitcast %union.anon* %11 to i64*
  %12 = load i64, i64* %RBP
  %13 = sub i64 %12, 60
  %14 = load i64, i64* %PC
  %15 = add i64 %14, 3
  store i64 %15, i64* %PC
  %16 = call %struct.Memory* @_ZN12_GLOBAL__N_1L3MOVI3RnWImE2MnIjEEEP6MemoryS6_R5StateT_T0_(%struct.Memory* %2, %struct.State* %0, i64* %RAX, i64 %13)
  ret %struct.Memory* %16
}

define internal %struct.Memory* @_ZN12_GLOBAL__N_1L3CMPI2RnIjE2MnIjEEEP6MemoryS6_R5StateT_T0_(%struct.Memory*, %struct.State* nocapture dereferenceable(3376), i64, i64) #0 {
  %5 = trunc i64 %2 to i32
  %6 = inttoptr i64 %3 to i32*
  %7 = load i32, i32* %6
  %8 = sub i32 %5, %7
  %9 = icmp ult i32 %5, %7
  %10 = zext i1 %9 to i8
  %11 = getelementptr inbounds %struct.State, %struct.State* %1, i64 0, i32 2, i32 1
  store i8 %10, i8* %11, align 1
  %12 = and i32 %8, 255
  %13 = tail call i32 @llvm.ctpop.i32(i32 %12) #22
  %14 = trunc i32 %13 to i8
  %15 = and i8 %14, 1
  %16 = xor i8 %15, 1
  %17 = getelementptr inbounds %struct.State, %struct.State* %1, i64 0, i32 2, i32 3
  store i8 %16, i8* %17, align 1
  %18 = xor i32 %7, %5
  %19 = xor i32 %18, %8
  %20 = lshr i32 %19, 4
  %21 = trunc i32 %20 to i8
  %22 = and i8 %21, 1
  %23 = getelementptr inbounds %struct.State, %struct.State* %1, i64 0, i32 2, i32 5
  store i8 %22, i8* %23, align 1
  %24 = icmp eq i32 %8, 0
  %25 = zext i1 %24 to i8
  %26 = getelementptr inbounds %struct.State, %struct.State* %1, i64 0, i32 2, i32 7
  store i8 %25, i8* %26, align 1
  %27 = lshr i32 %8, 31
  %28 = trunc i32 %27 to i8
  %29 = getelementptr inbounds %struct.State, %struct.State* %1, i64 0, i32 2, i32 9
  store i8 %28, i8* %29, align 1
  %30 = lshr i32 %5, 31
  %31 = lshr i32 %7, 31
  %32 = xor i32 %31, %30
  %33 = xor i32 %27, %30
  %34 = add   i32 %33, %32
  %35 = icmp eq i32 %34, 2
  %36 = zext i1 %35 to i8
  %37 = getelementptr inbounds %struct.State, %struct.State* %1, i64 0, i32 2, i32 13
  store i8 %36, i8* %37, align 1
  ret %struct.Memory* %0
}

define %struct.Memory* @routine_cmpl_MINUS0x4__rbp____eax(%struct.State*  dereferenceable(3376), i64, %struct.Memory* ) #19 {
block_400488:
  %3 = getelementptr inbounds %struct.State, %struct.State* %0, i32 0, i32 6
  %4 = getelementptr inbounds %struct.GPR, %struct.GPR* %3, i32 0, i32 33
  %5 = getelementptr inbounds %struct.Reg, %struct.Reg* %4, i32 0, i32 0
  %PC = bitcast %union.anon* %5 to i64*
  %6 = getelementptr inbounds %struct.State, %struct.State* %0, i32 0, i32 6
  %7 = getelementptr inbounds %struct.GPR, %struct.GPR* %6, i32 0, i32 1
  %8 = getelementptr inbounds %struct.Reg, %struct.Reg* %7, i32 0, i32 0
  %EAX = bitcast %union.anon* %8 to i32*
  %9 = getelementptr inbounds %struct.State, %struct.State* %0, i32 0, i32 6
  %10 = getelementptr inbounds %struct.GPR, %struct.GPR* %9, i32 0, i32 15
  %11 = getelementptr inbounds %struct.Reg, %struct.Reg* %10, i32 0, i32 0
  %RBP = bitcast %union.anon* %11 to i64*
  %12 = load i32, i32* %EAX
  %13 = zext i32 %12 to i64
  %14 = load i64, i64* %RBP
  %15 = sub i64 %14, 4
  %16 = load i64, i64* %PC
  %17 = add i64 %16, 3
  store i64 %17, i64* %PC
  %18 = call %struct.Memory* @_ZN12_GLOBAL__N_1L3CMPI2RnIjE2MnIjEEEP6MemoryS6_R5StateT_T0_(%struct.Memory* %2, %struct.State* %0, i64 %13, i64 %15)
  ret %struct.Memory* %18
}

define internal %struct.Memory* @_ZN12_GLOBAL__N_1L3JNLEP6MemoryR5State3RnWIhE2InImES7_(%struct.Memory* readnone returned, %struct.State* nocapture dereferenceable(3376), i8* nocapture, i64, i64) #2 {
  %6 = getelementptr inbounds %struct.State, %struct.State* %1, i64 0, i32 2, i32 9
  %7 = load i8, i8* %6, align 1
  %8 = icmp ne i8 %7, 0
  %9 = getelementptr inbounds %struct.State, %struct.State* %1, i64 0, i32 2, i32 13
  %10 = load i8, i8* %9, align 1
  %11 = icmp ne i8 %10, 0
  %12 = xor i1 %8, %11
  %13 = xor i1 %12, true
  %14 = zext i1 %13 to i8
  store i8 %14, i8* %2, align 1
  %15 = getelementptr inbounds %struct.State, %struct.State* %1, i64 0, i32 6, i32 33, i32 0, i32 0
  %16 = select i1 %12, i64 %4, i64 %3
  store i64 %16, i64* %15, align 8
  ret %struct.Memory* %0
}

define %struct.Memory* @routine_jge_.L_400c56(%struct.State*  dereferenceable(3376), i64, %struct.Memory*, i8* %BRANCH_TAKEN, i64 %rel_off1, i64 %rel_off2, i64 %rel_off3) {
block_400488:
  %3 = getelementptr inbounds %struct.State, %struct.State* %0, i32 0, i32 6
  %4 = getelementptr inbounds %struct.GPR, %struct.GPR* %3, i32 0, i32 33
  %5 = getelementptr inbounds %struct.Reg, %struct.Reg* %4, i32 0, i32 0
  %PC = bitcast %union.anon* %5 to i64*
  %6 = load i64, i64* %PC
  %7 = add i64 %6, %rel_off1
  %8 = load i64, i64* %PC
  %9 = add i64 %8, %rel_off2
  %10 = load i64, i64* %PC
  %11 = add i64 %10, %rel_off3
  store i64 %11, i64* %PC
  %12 = call %struct.Memory* @_ZN12_GLOBAL__N_1L3JNLEP6MemoryR5State3RnWIhE2InImES7_(%struct.Memory* %2, %struct.State* %0, i8* %BRANCH_TAKEN, i64 %7, i64 %9)
  ret %struct.Memory* %12
}


define %struct.Memory* @routine_movl__0x0__MINUS0x40__rbp_(%struct.State*  dereferenceable(3376), i64, %struct.Memory* ) #19 {
block_400488:
  %3 = getelementptr inbounds %struct.State, %struct.State* %0, i32 0, i32 6
  %4 = getelementptr inbounds %struct.GPR, %struct.GPR* %3, i32 0, i32 33
  %5 = getelementptr inbounds %struct.Reg, %struct.Reg* %4, i32 0, i32 0
  %PC = bitcast %union.anon* %5 to i64*
  %6 = getelementptr inbounds %struct.State, %struct.State* %0, i32 0, i32 6
  %7 = getelementptr inbounds %struct.GPR, %struct.GPR* %6, i32 0, i32 15
  %8 = getelementptr inbounds %struct.Reg, %struct.Reg* %7, i32 0, i32 0
  %RBP = bitcast %union.anon* %8 to i64*
  %9 = load i64, i64* %RBP
  %10 = sub i64 %9, 64
  %11 = load i64, i64* %PC
  %12 = add i64 %11, 7
  store i64 %12, i64* %PC
  %13 = call %struct.Memory* @_ZN12_GLOBAL__N_1L3MOVI3MnWIjE2InIjEEEP6MemoryS6_R5StateT_T0_(%struct.Memory* %2, %struct.State* %0, i64 %10, i64 0)
  ret %struct.Memory* %13
}


define %struct.Memory* @routine_movl_MINUS0x40__rbp____eax(%struct.State*  dereferenceable(3376), i64, %struct.Memory* ) #19 {
block_400488:
  %3 = getelementptr inbounds %struct.State, %struct.State* %0, i32 0, i32 6
  %4 = getelementptr inbounds %struct.GPR, %struct.GPR* %3, i32 0, i32 33
  %5 = getelementptr inbounds %struct.Reg, %struct.Reg* %4, i32 0, i32 0
  %PC = bitcast %union.anon* %5 to i64*
  %6 = getelementptr inbounds %struct.State, %struct.State* %0, i32 0, i32 6
  %7 = getelementptr inbounds %struct.GPR, %struct.GPR* %6, i32 0, i32 1
  %8 = getelementptr inbounds %struct.Reg, %struct.Reg* %7, i32 0, i32 0
  %RAX = bitcast %union.anon* %8 to i64*
  %9 = getelementptr inbounds %struct.State, %struct.State* %0, i32 0, i32 6
  %10 = getelementptr inbounds %struct.GPR, %struct.GPR* %9, i32 0, i32 15
  %11 = getelementptr inbounds %struct.Reg, %struct.Reg* %10, i32 0, i32 0
  %RBP = bitcast %union.anon* %11 to i64*
  %12 = load i64, i64* %RBP
  %13 = sub i64 %12, 64
  %14 = load i64, i64* %PC
  %15 = add i64 %14, 3
  store i64 %15, i64* %PC
  %16 = call %struct.Memory* @_ZN12_GLOBAL__N_1L3MOVI3RnWImE2MnIjEEEP6MemoryS6_R5StateT_T0_(%struct.Memory* %2, %struct.State* %0, i64* %RAX, i64 %13)
  ret %struct.Memory* %16
}


define %struct.Memory* @routine_cmpl_MINUS0xc__rbp____eax(%struct.State*  dereferenceable(3376), i64, %struct.Memory* ) #19 {
block_400488:
  %3 = getelementptr inbounds %struct.State, %struct.State* %0, i32 0, i32 6
  %4 = getelementptr inbounds %struct.GPR, %struct.GPR* %3, i32 0, i32 33
  %5 = getelementptr inbounds %struct.Reg, %struct.Reg* %4, i32 0, i32 0
  %PC = bitcast %union.anon* %5 to i64*
  %6 = getelementptr inbounds %struct.State, %struct.State* %0, i32 0, i32 6
  %7 = getelementptr inbounds %struct.GPR, %struct.GPR* %6, i32 0, i32 1
  %8 = getelementptr inbounds %struct.Reg, %struct.Reg* %7, i32 0, i32 0
  %EAX = bitcast %union.anon* %8 to i32*
  %9 = getelementptr inbounds %struct.State, %struct.State* %0, i32 0, i32 6
  %10 = getelementptr inbounds %struct.GPR, %struct.GPR* %9, i32 0, i32 15
  %11 = getelementptr inbounds %struct.Reg, %struct.Reg* %10, i32 0, i32 0
  %RBP = bitcast %union.anon* %11 to i64*
  %12 = load i32, i32* %EAX
  %13 = zext i32 %12 to i64
  %14 = load i64, i64* %RBP
  %15 = sub i64 %14, 12
  %16 = load i64, i64* %PC
  %17 = add i64 %16, 3
  store i64 %17, i64* %PC
  %18 = call %struct.Memory* @_ZN12_GLOBAL__N_1L3CMPI2RnIjE2MnIjEEEP6MemoryS6_R5StateT_T0_(%struct.Memory* %2, %struct.State* %0, i64 %13, i64 %15)
  ret %struct.Memory* %18
}


define %struct.Memory* @routine_jge_.L_400c43(%struct.State*  dereferenceable(3376), i64, %struct.Memory*, i8* %BRANCH_TAKEN, i64 %rel_off1, i64 %rel_off2, i64 %rel_off3) {
block_400488:
  %3 = getelementptr inbounds %struct.State, %struct.State* %0, i32 0, i32 6
  %4 = getelementptr inbounds %struct.GPR, %struct.GPR* %3, i32 0, i32 33
  %5 = getelementptr inbounds %struct.Reg, %struct.Reg* %4, i32 0, i32 0
  %PC = bitcast %union.anon* %5 to i64*
  %6 = load i64, i64* %PC
  %7 = add i64 %6, %rel_off1
  %8 = load i64, i64* %PC
  %9 = add i64 %8, %rel_off2
  %10 = load i64, i64* %PC
  %11 = add i64 %10, %rel_off3
  store i64 %11, i64* %PC
  %12 = call %struct.Memory* @_ZN12_GLOBAL__N_1L3JNLEP6MemoryR5State3RnWIhE2InImES7_(%struct.Memory* %2, %struct.State* %0, i8* %BRANCH_TAKEN, i64 %7, i64 %9)
  ret %struct.Memory* %12
}

define internal %struct.Memory* @_ZN12_GLOBAL__N_1L8CVTSI2SDI2MnIjEEEP6MemoryS4_R5State3VnWI8vec128_tET_(%struct.Memory*, %struct.State* nocapture readnone dereferenceable(3376), i8* nocapture, i64) #0 {
  %5 = inttoptr i64 %3 to i32*
  %6 = load i32, i32* %5
  %7 = sitofp i32 %6 to double
  %8 = bitcast i8* %2 to double*
  store double %7, double* %8, align 1
  ret %struct.Memory* %0
}

define %struct.Memory* @routine_cvtsi2sdl_MINUS0x3c__rbp____xmm0(%struct.State*  dereferenceable(3376), i64, %struct.Memory* ) #19 {
block_400488:
  %3 = getelementptr inbounds %struct.State, %struct.State* %0, i32 0, i32 6
  %4 = getelementptr inbounds %struct.GPR, %struct.GPR* %3, i32 0, i32 33
  %5 = getelementptr inbounds %struct.Reg, %struct.Reg* %4, i32 0, i32 0
  %PC = bitcast %union.anon* %5 to i64*
  %6 = getelementptr inbounds %struct.State, %struct.State* %0, i32 0, i32 6
  %7 = getelementptr inbounds %struct.GPR, %struct.GPR* %6, i32 0, i32 15
  %8 = getelementptr inbounds %struct.Reg, %struct.Reg* %7, i32 0, i32 0
  %RBP = bitcast %union.anon* %8 to i64*
  %9 = getelementptr inbounds %struct.State, %struct.State* %0, i32 0, i32 1
  %10 = getelementptr inbounds [32 x %union.VectorReg], [32 x %union.VectorReg]* %9, i64 0, i64 0
  %YMM0 = bitcast %union.VectorReg* %10 to %"class.std::bitset"*
  %11 = bitcast %"class.std::bitset"* %YMM0 to i8*
  %12 = load i64, i64* %RBP
  %13 = sub i64 %12, 60
  %14 = load i64, i64* %PC
  %15 = add i64 %14, 5
  store i64 %15, i64* %PC
  %16 = call %struct.Memory* @_ZN12_GLOBAL__N_1L8CVTSI2SDI2MnIjEEEP6MemoryS4_R5State3VnWI8vec128_tET_(%struct.Memory* %2, %struct.State* %0, i8* %11, i64 %13)
  ret %struct.Memory* %16
}


define %struct.Memory* @routine_cvtsi2sdl_MINUS0x40__rbp____xmm1(%struct.State*  dereferenceable(3376), i64, %struct.Memory* ) #19 {
block_400488:
  %3 = getelementptr inbounds %struct.State, %struct.State* %0, i32 0, i32 6
  %4 = getelementptr inbounds %struct.GPR, %struct.GPR* %3, i32 0, i32 33
  %5 = getelementptr inbounds %struct.Reg, %struct.Reg* %4, i32 0, i32 0
  %PC = bitcast %union.anon* %5 to i64*
  %6 = getelementptr inbounds %struct.State, %struct.State* %0, i32 0, i32 6
  %7 = getelementptr inbounds %struct.GPR, %struct.GPR* %6, i32 0, i32 15
  %8 = getelementptr inbounds %struct.Reg, %struct.Reg* %7, i32 0, i32 0
  %RBP = bitcast %union.anon* %8 to i64*
  %9 = getelementptr inbounds %struct.State, %struct.State* %0, i32 0, i32 1
  %10 = getelementptr inbounds [32 x %union.VectorReg], [32 x %union.VectorReg]* %9, i64 0, i64 1
  %YMM1 = bitcast %union.VectorReg* %10 to %"class.std::bitset"*
  %11 = bitcast %"class.std::bitset"* %YMM1 to i8*
  %12 = load i64, i64* %RBP
  %13 = sub i64 %12, 64
  %14 = load i64, i64* %PC
  %15 = add i64 %14, 5
  store i64 %15, i64* %PC
  %16 = call %struct.Memory* @_ZN12_GLOBAL__N_1L8CVTSI2SDI2MnIjEEEP6MemoryS4_R5State3VnWI8vec128_tET_(%struct.Memory* %2, %struct.State* %0, i8* %11, i64 %13)
  ret %struct.Memory* %16
}

define internal %struct.Memory* @_ZN12_GLOBAL__N_1L5MULSDI3VnWI8vec128_tE2VnIS2_ES5_EEP6MemoryS7_R5StateT_T0_T1_(%struct.Memory* readnone returned, %struct.State* nocapture readnone dereferenceable(3376), i8* nocapture, i8* nocapture readonly, i8* nocapture readonly) #0 {
  %6 = bitcast i8* %3 to double*
  %7 = load double, double* %6, align 1
  %8 = getelementptr inbounds i8, i8* %3, i64 8
  %9 = bitcast i8* %8 to i64*
  %10 = load i64, i64* %9, align 1
  %11 = bitcast i8* %4 to double*
  %12 = load double, double* %11, align 1
  %13 = fmul double %7, %12
  %14 = bitcast i8* %2 to double*
  store double %13, double* %14, align 1
  %15 = getelementptr inbounds i8, i8* %2, i64 8
  %16 = bitcast i8* %15 to i64*
  store i64 %10, i64* %16, align 1
  ret %struct.Memory* %0
}

define %struct.Memory* @routine_mulsd__xmm1___xmm0(%struct.State*  dereferenceable(3376), i64, %struct.Memory* ) #19 {
block_400488:
  %3 = getelementptr inbounds %struct.State, %struct.State* %0, i32 0, i32 6
  %4 = getelementptr inbounds %struct.GPR, %struct.GPR* %3, i32 0, i32 33
  %5 = getelementptr inbounds %struct.Reg, %struct.Reg* %4, i32 0, i32 0
  %PC = bitcast %union.anon* %5 to i64*
  %6 = getelementptr inbounds %struct.State, %struct.State* %0, i32 0, i32 1
  %7 = getelementptr inbounds [32 x %union.VectorReg], [32 x %union.VectorReg]* %6, i64 0, i64 0
  %YMM0 = bitcast %union.VectorReg* %7 to %"class.std::bitset"*
  %8 = getelementptr inbounds %struct.State, %struct.State* %0, i32 0, i32 1
  %9 = getelementptr inbounds [32 x %union.VectorReg], [32 x %union.VectorReg]* %8, i64 0, i64 1
  %XMM1 = bitcast %union.VectorReg* %9 to %union.vec128_t*
  %10 = bitcast %"class.std::bitset"* %YMM0 to i8*
  %11 = bitcast %"class.std::bitset"* %YMM0 to i8*
  %12 = bitcast %union.vec128_t* %XMM1 to i8*
  %13 = load i64, i64* %PC
  %14 = add i64 %13, 4
  store i64 %14, i64* %PC
  %15 = call %struct.Memory* @_ZN12_GLOBAL__N_1L5MULSDI3VnWI8vec128_tE2VnIS2_ES5_EEP6MemoryS7_R5StateT_T0_T1_(%struct.Memory* %2, %struct.State* %0, i8* %10, i8* %11, i8* %12)
  ret %struct.Memory* %15
}


define %struct.Memory* @routine_cvtsi2sdl_MINUS0x4__rbp____xmm1(%struct.State*  dereferenceable(3376), i64, %struct.Memory* ) #19 {
block_400488:
  %3 = getelementptr inbounds %struct.State, %struct.State* %0, i32 0, i32 6
  %4 = getelementptr inbounds %struct.GPR, %struct.GPR* %3, i32 0, i32 33
  %5 = getelementptr inbounds %struct.Reg, %struct.Reg* %4, i32 0, i32 0
  %PC = bitcast %union.anon* %5 to i64*
  %6 = getelementptr inbounds %struct.State, %struct.State* %0, i32 0, i32 6
  %7 = getelementptr inbounds %struct.GPR, %struct.GPR* %6, i32 0, i32 15
  %8 = getelementptr inbounds %struct.Reg, %struct.Reg* %7, i32 0, i32 0
  %RBP = bitcast %union.anon* %8 to i64*
  %9 = getelementptr inbounds %struct.State, %struct.State* %0, i32 0, i32 1
  %10 = getelementptr inbounds [32 x %union.VectorReg], [32 x %union.VectorReg]* %9, i64 0, i64 1
  %YMM1 = bitcast %union.VectorReg* %10 to %"class.std::bitset"*
  %11 = bitcast %"class.std::bitset"* %YMM1 to i8*
  %12 = load i64, i64* %RBP
  %13 = sub i64 %12, 4
  %14 = load i64, i64* %PC
  %15 = add i64 %14, 5
  store i64 %15, i64* %PC
  %16 = call %struct.Memory* @_ZN12_GLOBAL__N_1L8CVTSI2SDI2MnIjEEEP6MemoryS4_R5State3VnWI8vec128_tET_(%struct.Memory* %2, %struct.State* %0, i8* %11, i64 %13)
  ret %struct.Memory* %16
}

define internal %struct.Memory* @_ZN12_GLOBAL__N_1L5DIVSDI3VnWI8vec128_tE2VnIS2_ES5_EEP6MemoryS7_R5StateT_T0_T1_(%struct.Memory* readnone returned, %struct.State* nocapture readnone dereferenceable(3376), i8* nocapture, i8* nocapture readonly, i8* nocapture readonly) #0 {
  %6 = bitcast i8* %3 to double*
  %7 = load double, double* %6, align 1
  %8 = getelementptr inbounds i8, i8* %3, i64 8
  %9 = bitcast i8* %8 to i64*
  %10 = load i64, i64* %9, align 1
  %11 = bitcast i8* %4 to double*
  %12 = load double, double* %11, align 1
  %13 = fdiv double %7, %12
  %14 = bitcast i8* %2 to double*
  store double %13, double* %14, align 1
  %15 = getelementptr inbounds i8, i8* %2, i64 8
  %16 = bitcast i8* %15 to i64*
  store i64 %10, i64* %16, align 1
  ret %struct.Memory* %0
}

define %struct.Memory* @routine_divsd__xmm1___xmm0(%struct.State*  dereferenceable(3376), i64, %struct.Memory* ) #19 {
block_400488:
  %3 = getelementptr inbounds %struct.State, %struct.State* %0, i32 0, i32 6
  %4 = getelementptr inbounds %struct.GPR, %struct.GPR* %3, i32 0, i32 33
  %5 = getelementptr inbounds %struct.Reg, %struct.Reg* %4, i32 0, i32 0
  %PC = bitcast %union.anon* %5 to i64*
  %6 = getelementptr inbounds %struct.State, %struct.State* %0, i32 0, i32 1
  %7 = getelementptr inbounds [32 x %union.VectorReg], [32 x %union.VectorReg]* %6, i64 0, i64 0
  %YMM0 = bitcast %union.VectorReg* %7 to %"class.std::bitset"*
  %8 = getelementptr inbounds %struct.State, %struct.State* %0, i32 0, i32 1
  %9 = getelementptr inbounds [32 x %union.VectorReg], [32 x %union.VectorReg]* %8, i64 0, i64 1
  %XMM1 = bitcast %union.VectorReg* %9 to %union.vec128_t*
  %10 = bitcast %"class.std::bitset"* %YMM0 to i8*
  %11 = bitcast %"class.std::bitset"* %YMM0 to i8*
  %12 = bitcast %union.vec128_t* %XMM1 to i8*
  %13 = load i64, i64* %PC
  %14 = add i64 %13, 4
  store i64 %14, i64* %PC
  %15 = call %struct.Memory* @_ZN12_GLOBAL__N_1L5DIVSDI3VnWI8vec128_tE2VnIS2_ES5_EEP6MemoryS7_R5StateT_T0_T1_(%struct.Memory* %2, %struct.State* %0, i8* %10, i8* %11, i8* %12)
  ret %struct.Memory* %15
}


define %struct.Memory* @routine_movq_MINUS0x20__rbp____rax(%struct.State*  dereferenceable(3376), i64, %struct.Memory* ) #19 {
block_400488:
  %3 = getelementptr inbounds %struct.State, %struct.State* %0, i32 0, i32 6
  %4 = getelementptr inbounds %struct.GPR, %struct.GPR* %3, i32 0, i32 33
  %5 = getelementptr inbounds %struct.Reg, %struct.Reg* %4, i32 0, i32 0
  %PC = bitcast %union.anon* %5 to i64*
  %6 = getelementptr inbounds %struct.State, %struct.State* %0, i32 0, i32 6
  %7 = getelementptr inbounds %struct.GPR, %struct.GPR* %6, i32 0, i32 1
  %8 = getelementptr inbounds %struct.Reg, %struct.Reg* %7, i32 0, i32 0
  %RAX = bitcast %union.anon* %8 to i64*
  %9 = getelementptr inbounds %struct.State, %struct.State* %0, i32 0, i32 6
  %10 = getelementptr inbounds %struct.GPR, %struct.GPR* %9, i32 0, i32 15
  %11 = getelementptr inbounds %struct.Reg, %struct.Reg* %10, i32 0, i32 0
  %RBP = bitcast %union.anon* %11 to i64*
  %12 = load i64, i64* %RBP
  %13 = sub i64 %12, 32
  %14 = load i64, i64* %PC
  %15 = add i64 %14, 4
  store i64 %15, i64* %PC
  %16 = call %struct.Memory* @_ZN12_GLOBAL__N_1L3MOVI3RnWImE2MnImEEEP6MemoryS6_R5StateT_T0_(%struct.Memory* %2, %struct.State* %0, i64* %RAX, i64 %13)
  ret %struct.Memory* %16
}

define internal %struct.Memory* @_ZN12_GLOBAL__N_1L5MOVSXI3RnWImE2MnIjElEEP6MemoryS6_R5StateT_T0_(%struct.Memory* returned, %struct.State* nocapture readnone dereferenceable(3376), i64* nocapture, i64) #0 {
  %5 = inttoptr i64 %3 to i32*
  %6 = load i32, i32* %5
  %7 = sext i32 %6 to i64
  store i64 %7, i64* %2, align 8
  ret %struct.Memory* %0
}

define %struct.Memory* @routine_movslq_MINUS0x3c__rbp____rcx(%struct.State*  dereferenceable(3376), i64, %struct.Memory* ) #19 {
block_400488:
  %3 = getelementptr inbounds %struct.State, %struct.State* %0, i32 0, i32 6
  %4 = getelementptr inbounds %struct.GPR, %struct.GPR* %3, i32 0, i32 33
  %5 = getelementptr inbounds %struct.Reg, %struct.Reg* %4, i32 0, i32 0
  %PC = bitcast %union.anon* %5 to i64*
  %6 = getelementptr inbounds %struct.State, %struct.State* %0, i32 0, i32 6
  %7 = getelementptr inbounds %struct.GPR, %struct.GPR* %6, i32 0, i32 5
  %8 = getelementptr inbounds %struct.Reg, %struct.Reg* %7, i32 0, i32 0
  %RCX = bitcast %union.anon* %8 to i64*
  %9 = getelementptr inbounds %struct.State, %struct.State* %0, i32 0, i32 6
  %10 = getelementptr inbounds %struct.GPR, %struct.GPR* %9, i32 0, i32 15
  %11 = getelementptr inbounds %struct.Reg, %struct.Reg* %10, i32 0, i32 0
  %RBP = bitcast %union.anon* %11 to i64*
  %12 = load i64, i64* %RBP
  %13 = sub i64 %12, 60
  %14 = load i64, i64* %PC
  %15 = add i64 %14, 4
  store i64 %15, i64* %PC
  %16 = call %struct.Memory* @_ZN12_GLOBAL__N_1L5MOVSXI3RnWImE2MnIjElEEP6MemoryS6_R5StateT_T0_(%struct.Memory* %2, %struct.State* %0, i64* %RCX, i64 %13)
  ret %struct.Memory* %16
}

define internal %struct.Memory* @_ZN12_GLOBAL__N_1L3SHLI3RnWImE2RnImE2InImEEEP6MemoryS8_R5StateT_T0_T1_(%struct.Memory* readnone, %struct.State* nocapture dereferenceable(3376), i64* nocapture, i64, i64) #0 {
  %6 = trunc i64 %4 to i6
  switch i6 %6, label %12 [
    i6 0, label %41
    i6 1, label %7
  ]

; <label>:7:                                      ; preds = %5
  %8 = shl i64 %3, 1
  %9 = icmp slt i64 %3, 0
  %10 = icmp slt i64 %8, 0
  %11 = xor i1 %9, %10
  br label %19

; <label>:12:                                     ; preds = %5
  %13 = and i64 %4, 63
  %14 = add  i64 %13, -1
  %15 = shl i64 %3, %14
  %16 = icmp slt i64 %15, 0
  %17 = icmp ne i8 0, 0
  %18 = shl i64 %15, 1
  br label %19

; <label>:19:                                     ; preds = %12, %7
  %20 = phi i1 [ %9, %7 ], [ %16, %12 ]
  %21 = phi i1 [ %11, %7 ], [ %17, %12 ]
  %22 = phi i64 [ %8, %7 ], [ %18, %12 ]
  store i64 %22, i64* %2, align 8
  %23 = getelementptr inbounds %struct.State, %struct.State* %1, i64 0, i32 2, i32 1
  %24 = zext i1 %20 to i8
  store i8 %24, i8* %23, align 1
  %25 = getelementptr inbounds %struct.State, %struct.State* %1, i64 0, i32 2, i32 3
  %26 = trunc i64 %22 to i32
  %27 = and i32 %26, 254
  %28 = tail call i32 @llvm.ctpop.i32(i32 %27) #22
  %29 = trunc i32 %28 to i8
  %30 = and i8 %29, 1
  %31 = xor i8 %30, 1
  store i8 %31, i8* %25, align 1
  %32 = getelementptr inbounds %struct.State, %struct.State* %1, i64 0, i32 2, i32 5
  store i8 0, i8* %32, align 1
  %33 = getelementptr inbounds %struct.State, %struct.State* %1, i64 0, i32 2, i32 7
  %34 = icmp eq i64 %22, 0
  %35 = zext i1 %34 to i8
  store i8 %35, i8* %33, align 1
  %36 = getelementptr inbounds %struct.State, %struct.State* %1, i64 0, i32 2, i32 9
  %37 = lshr i64 %22, 63
  %38 = trunc i64 %37 to i8
  store i8 %38, i8* %36, align 1
  %39 = getelementptr inbounds %struct.State, %struct.State* %1, i64 0, i32 2, i32 13
  %40 = zext i1 %21 to i8
  store i8 %40, i8* %39, align 1
  br label %41

; <label>:41:                                     ; preds = %19, %5
  ret %struct.Memory* %0
}

define %struct.Memory* @routine_shlq__0xd___rcx(%struct.State*  dereferenceable(3376), i64, %struct.Memory* ) #19 {
block_400488:
  %3 = getelementptr inbounds %struct.State, %struct.State* %0, i32 0, i32 6
  %4 = getelementptr inbounds %struct.GPR, %struct.GPR* %3, i32 0, i32 33
  %5 = getelementptr inbounds %struct.Reg, %struct.Reg* %4, i32 0, i32 0
  %PC = bitcast %union.anon* %5 to i64*
  %6 = getelementptr inbounds %struct.State, %struct.State* %0, i32 0, i32 6
  %7 = getelementptr inbounds %struct.GPR, %struct.GPR* %6, i32 0, i32 5
  %8 = getelementptr inbounds %struct.Reg, %struct.Reg* %7, i32 0, i32 0
  %RCX = bitcast %union.anon* %8 to i64*
  %9 = load i64, i64* %RCX
  %10 = load i64, i64* %PC
  %11 = add i64 %10, 4
  store i64 %11, i64* %PC
  %12 = call %struct.Memory* @_ZN12_GLOBAL__N_1L3SHLI3RnWImE2RnImE2InImEEEP6MemoryS8_R5StateT_T0_T1_(%struct.Memory* %2, %struct.State* %0, i64* %RCX, i64 %9, i64 13)
  ret %struct.Memory* %12
}

define internal %struct.Memory* @_ZN12_GLOBAL__N_1L3ADDI3RnWImE2RnImES4_EEP6MemoryS6_R5StateT_T0_T1_(%struct.Memory* readnone returned, %struct.State* nocapture dereferenceable(3376), i64* nocapture, i64, i64) #0 {
  %6 = add i64 %4, %3
  store i64 %6, i64* %2, align 8
  %7 = icmp ult i64 %6, %3
  %8 = icmp ult i64 %6, %4
  %9 = or i1 %7, %8
  %10 = zext i1 %9 to i8
  %11 = getelementptr inbounds %struct.State, %struct.State* %1, i64 0, i32 2, i32 1
  store i8 %10, i8* %11, align 1
  %12 = trunc i64 %6 to i32
  %13 = and i32 %12, 255
  %14 = tail call i32 @llvm.ctpop.i32(i32 %13) #22
  %15 = trunc i32 %14 to i8
  %16 = and i8 %15, 1
  %17 = xor i8 %16, 1
  %18 = getelementptr inbounds %struct.State, %struct.State* %1, i64 0, i32 2, i32 3
  store i8 %17, i8* %18, align 1
  %19 = xor i64 %4, %3
  %20 = xor i64 %19, %6
  %21 = lshr i64 %20, 4
  %22 = trunc i64 %21 to i8
  %23 = and i8 %22, 1
  %24 = getelementptr inbounds %struct.State, %struct.State* %1, i64 0, i32 2, i32 5
  store i8 %23, i8* %24, align 1
  %25 = icmp eq i64 %6, 0
  %26 = zext i1 %25 to i8
  %27 = getelementptr inbounds %struct.State, %struct.State* %1, i64 0, i32 2, i32 7
  store i8 %26, i8* %27, align 1
  %28 = lshr i64 %6, 63
  %29 = trunc i64 %28 to i8
  %30 = getelementptr inbounds %struct.State, %struct.State* %1, i64 0, i32 2, i32 9
  store i8 %29, i8* %30, align 1
  %31 = lshr i64 %3, 63
  %32 = lshr i64 %4, 63
  %33 = xor i64 %28, %31
  %34 = xor i64 %28, %32
  %35 = add   i64 %33, %34
  %36 = icmp eq i64 %35, 2
  %37 = zext i1 %36 to i8
  %38 = getelementptr inbounds %struct.State, %struct.State* %1, i64 0, i32 2, i32 13
  store i8 %37, i8* %38, align 1
  ret %struct.Memory* %0
}

define %struct.Memory* @routine_addq__rcx___rax(%struct.State*  dereferenceable(3376), i64, %struct.Memory* ) #19 {
block_400488:
  %3 = getelementptr inbounds %struct.State, %struct.State* %0, i32 0, i32 6
  %4 = getelementptr inbounds %struct.GPR, %struct.GPR* %3, i32 0, i32 33
  %5 = getelementptr inbounds %struct.Reg, %struct.Reg* %4, i32 0, i32 0
  %PC = bitcast %union.anon* %5 to i64*
  %6 = getelementptr inbounds %struct.State, %struct.State* %0, i32 0, i32 6
  %7 = getelementptr inbounds %struct.GPR, %struct.GPR* %6, i32 0, i32 1
  %8 = getelementptr inbounds %struct.Reg, %struct.Reg* %7, i32 0, i32 0
  %RAX = bitcast %union.anon* %8 to i64*
  %9 = getelementptr inbounds %struct.State, %struct.State* %0, i32 0, i32 6
  %10 = getelementptr inbounds %struct.GPR, %struct.GPR* %9, i32 0, i32 5
  %11 = getelementptr inbounds %struct.Reg, %struct.Reg* %10, i32 0, i32 0
  %RCX = bitcast %union.anon* %11 to i64*
  %12 = load i64, i64* %RAX
  %13 = load i64, i64* %RCX
  %14 = load i64, i64* %PC
  %15 = add i64 %14, 3
  store i64 %15, i64* %PC
  %16 = call %struct.Memory* @_ZN12_GLOBAL__N_1L3ADDI3RnWImE2RnImES4_EEP6MemoryS6_R5StateT_T0_T1_(%struct.Memory* %2, %struct.State* %0, i64* %RAX, i64 %12, i64 %13)
  ret %struct.Memory* %16
}

define internal %struct.Memory* @_ZN12_GLOBAL__N_1L9MOVSD_MEMI4MVnWI7vec64_tE2VnI8vec128_tEEEP6MemoryS8_R5StateT_T0_(%struct.Memory* readnone, %struct.State* nocapture readnone dereferenceable(3376), i64, i8* nocapture readonly) #7 {
  %5 = bitcast i8* %3 to double*
  %6 = load double, double* %5, align 1
  %7 = inttoptr i64 %2 to double*
  store double %6, double* %7
  ret %struct.Memory* %0
}

define %struct.Memory* @routine_movsd__xmm0____rax__rcx_8_(%struct.State*  dereferenceable(3376), i64, %struct.Memory* ) #19 {
block_400488:
  %3 = getelementptr inbounds %struct.State, %struct.State* %0, i32 0, i32 6
  %4 = getelementptr inbounds %struct.GPR, %struct.GPR* %3, i32 0, i32 33
  %5 = getelementptr inbounds %struct.Reg, %struct.Reg* %4, i32 0, i32 0
  %PC = bitcast %union.anon* %5 to i64*
  %6 = getelementptr inbounds %struct.State, %struct.State* %0, i32 0, i32 6
  %7 = getelementptr inbounds %struct.GPR, %struct.GPR* %6, i32 0, i32 1
  %8 = getelementptr inbounds %struct.Reg, %struct.Reg* %7, i32 0, i32 0
  %RAX = bitcast %union.anon* %8 to i64*
  %9 = getelementptr inbounds %struct.State, %struct.State* %0, i32 0, i32 6
  %10 = getelementptr inbounds %struct.GPR, %struct.GPR* %9, i32 0, i32 5
  %11 = getelementptr inbounds %struct.Reg, %struct.Reg* %10, i32 0, i32 0
  %RCX = bitcast %union.anon* %11 to i64*
  %12 = getelementptr inbounds %struct.State, %struct.State* %0, i32 0, i32 1
  %13 = getelementptr inbounds [32 x %union.VectorReg], [32 x %union.VectorReg]* %12, i64 0, i64 0
  %XMM0 = bitcast %union.VectorReg* %13 to %union.vec128_t*
  %14 = load i64, i64* %RAX
  %15 = load i64, i64* %RCX
  %16 = mul i64 %15, 8
  %17 = add i64 %16, %14
  %18 = bitcast %union.vec128_t* %XMM0 to i8*
  %19 = load i64, i64* %PC
  %20 = add i64 %19, 5
  store i64 %20, i64* %PC
  %21 = call %struct.Memory* @_ZN12_GLOBAL__N_1L9MOVSD_MEMI4MVnWI7vec64_tE2VnI8vec128_tEEEP6MemoryS8_R5StateT_T0_(%struct.Memory* %2, %struct.State* %0, i64 %17, i8* %18)
  ret %struct.Memory* %21
}



define internal %struct.Memory* @_ZN12_GLOBAL__N_1L3ADDI3RnWImE2RnIjE2InIjEEEP6MemoryS8_R5StateT_T0_T1_(%struct.Memory* readnone returned, %struct.State* nocapture dereferenceable(3376), i64* nocapture, i64, i64) #0 {
  %6 = trunc i64 %3 to i32
  %7 = trunc i64 %4 to i32
  %8 = add i32 %7, %6
  %9 = zext i32 %8 to i64
  store i64 %9, i64* %2, align 8
  %10 = icmp ult i32 %8, %6
  %11 = icmp ult i32 %8, %7
  %12 = or i1 %10, %11
  %13 = zext i1 %12 to i8
  %14 = getelementptr inbounds %struct.State, %struct.State* %1, i64 0, i32 2, i32 1
  store i8 %13, i8* %14, align 1
  %15 = and i32 %8, 255
  %16 = tail call i32 @llvm.ctpop.i32(i32 %15) #22
  %17 = trunc i32 %16 to i8
  %18 = and i8 %17, 1
  %19 = xor i8 %18, 1
  %20 = getelementptr inbounds %struct.State, %struct.State* %1, i64 0, i32 2, i32 3
  store i8 %19, i8* %20, align 1
  %21 = xor i64 %4, %3
  %22 = trunc i64 %21 to i32
  %23 = xor i32 %22, %8
  %24 = lshr i32 %23, 4
  %25 = trunc i32 %24 to i8
  %26 = and i8 %25, 1
  %27 = getelementptr inbounds %struct.State, %struct.State* %1, i64 0, i32 2, i32 5
  store i8 %26, i8* %27, align 1
  %28 = icmp eq i32 %8, 0
  %29 = zext i1 %28 to i8
  %30 = getelementptr inbounds %struct.State, %struct.State* %1, i64 0, i32 2, i32 7
  store i8 %29, i8* %30, align 1
  %31 = lshr i32 %8, 31
  %32 = trunc i32 %31 to i8
  %33 = getelementptr inbounds %struct.State, %struct.State* %1, i64 0, i32 2, i32 9
  store i8 %32, i8* %33, align 1
  %34 = lshr i32 %6, 31
  %35 = lshr i32 %7, 31
  %36 = xor i32 %31, %34
  %37 = xor i32 %31, %35
  %38 = add   i32 %36, %37
  %39 = icmp eq i32 %38, 2
  %40 = zext i1 %39 to i8
  %41 = getelementptr inbounds %struct.State, %struct.State* %1, i64 0, i32 2, i32 13
  store i8 %40, i8* %41, align 1
  ret %struct.Memory* %0
}

define %struct.Memory* @routine_addl__0x1___eax(%struct.State*  dereferenceable(3376), i64, %struct.Memory* ) #19 {
block_400488:
  %3 = getelementptr inbounds %struct.State, %struct.State* %0, i32 0, i32 6
  %4 = getelementptr inbounds %struct.GPR, %struct.GPR* %3, i32 0, i32 33
  %5 = getelementptr inbounds %struct.Reg, %struct.Reg* %4, i32 0, i32 0
  %PC = bitcast %union.anon* %5 to i64*
  %6 = getelementptr inbounds %struct.State, %struct.State* %0, i32 0, i32 6
  %7 = getelementptr inbounds %struct.GPR, %struct.GPR* %6, i32 0, i32 1
  %8 = getelementptr inbounds %struct.Reg, %struct.Reg* %7, i32 0, i32 0
  %RAX = bitcast %union.anon* %8 to i64*
  %9 = load i64, i64* %RAX
  %10 = load i64, i64* %PC
  %11 = add i64 %10, 3
  store i64 %11, i64* %PC
  %12 = call %struct.Memory* @_ZN12_GLOBAL__N_1L3ADDI3RnWImE2RnIjE2InIjEEEP6MemoryS8_R5StateT_T0_T1_(%struct.Memory* %2, %struct.State* %0, i64* %RAX, i64 %9, i64 1)
  ret %struct.Memory* %12
}


define %struct.Memory* @routine_movl__eax__MINUS0x40__rbp_(%struct.State*  dereferenceable(3376), i64, %struct.Memory* ) #19 {
block_400488:
  %3 = getelementptr inbounds %struct.State, %struct.State* %0, i32 0, i32 6
  %4 = getelementptr inbounds %struct.GPR, %struct.GPR* %3, i32 0, i32 33
  %5 = getelementptr inbounds %struct.Reg, %struct.Reg* %4, i32 0, i32 0
  %PC = bitcast %union.anon* %5 to i64*
  %6 = getelementptr inbounds %struct.State, %struct.State* %0, i32 0, i32 6
  %7 = getelementptr inbounds %struct.GPR, %struct.GPR* %6, i32 0, i32 1
  %8 = getelementptr inbounds %struct.Reg, %struct.Reg* %7, i32 0, i32 0
  %EAX = bitcast %union.anon* %8 to i32*
  %9 = getelementptr inbounds %struct.State, %struct.State* %0, i32 0, i32 6
  %10 = getelementptr inbounds %struct.GPR, %struct.GPR* %9, i32 0, i32 15
  %11 = getelementptr inbounds %struct.Reg, %struct.Reg* %10, i32 0, i32 0
  %RBP = bitcast %union.anon* %11 to i64*
  %12 = load i64, i64* %RBP
  %13 = sub i64 %12, 64
  %14 = load i32, i32* %EAX
  %15 = zext i32 %14 to i64
  %16 = load i64, i64* %PC
  %17 = add i64 %16, 3
  store i64 %17, i64* %PC
  %18 = call %struct.Memory* @_ZN12_GLOBAL__N_1L3MOVI3MnWIjE2RnIjEEEP6MemoryS6_R5StateT_T0_(%struct.Memory* %2, %struct.State* %0, i64 %13, i64 %15)
  ret %struct.Memory* %18
}

define internal %struct.Memory* @_ZN12_GLOBAL__N_1L3JMPI2InImEEEP6MemoryS4_R5StateT_(%struct.Memory* readnone returned, %struct.State* nocapture dereferenceable(3376), i64) #2 {
  %4 = getelementptr inbounds %struct.State, %struct.State* %1, i64 0, i32 6, i32 33, i32 0, i32 0
  store i64 %2, i64* %4, align 8
  ret %struct.Memory* %0
}

define %struct.Memory* @routine_jmpq_.L_400bfa(%struct.State*  dereferenceable(3376), i64, %struct.Memory*, i64 %rel_off1, i64 %rel_off2) {
block_400488:
  %3 = getelementptr inbounds %struct.State, %struct.State* %0, i32 0, i32 6
  %4 = getelementptr inbounds %struct.GPR, %struct.GPR* %3, i32 0, i32 33
  %5 = getelementptr inbounds %struct.Reg, %struct.Reg* %4, i32 0, i32 0
  %PC = bitcast %union.anon* %5 to i64*
  %6 = load i64, i64* %PC
  %7 = add i64 %6, %rel_off1
  %8 = load i64, i64* %PC
  %9 = add i64 %8, %rel_off2
  store i64 %9, i64* %PC
  %10 = call %struct.Memory* @_ZN12_GLOBAL__N_1L3JMPI2InImEEEP6MemoryS4_R5StateT_(%struct.Memory* %2, %struct.State* %0, i64 %7)
  ret %struct.Memory* %10
}


define %struct.Memory* @routine_jmpq_.L_400c48(%struct.State*  dereferenceable(3376), i64, %struct.Memory*, i64 %rel_off1, i64 %rel_off2) {
block_400488:
  %3 = getelementptr inbounds %struct.State, %struct.State* %0, i32 0, i32 6
  %4 = getelementptr inbounds %struct.GPR, %struct.GPR* %3, i32 0, i32 33
  %5 = getelementptr inbounds %struct.Reg, %struct.Reg* %4, i32 0, i32 0
  %PC = bitcast %union.anon* %5 to i64*
  %6 = load i64, i64* %PC
  %7 = add i64 %6, %rel_off1
  %8 = load i64, i64* %PC
  %9 = add i64 %8, %rel_off2
  store i64 %9, i64* %PC
  %10 = call %struct.Memory* @_ZN12_GLOBAL__N_1L3JMPI2InImEEEP6MemoryS4_R5StateT_(%struct.Memory* %2, %struct.State* %0, i64 %7)
  ret %struct.Memory* %10
}






define %struct.Memory* @routine_movl__eax__MINUS0x3c__rbp_(%struct.State*  dereferenceable(3376), i64, %struct.Memory* ) #19 {
block_400488:
  %3 = getelementptr inbounds %struct.State, %struct.State* %0, i32 0, i32 6
  %4 = getelementptr inbounds %struct.GPR, %struct.GPR* %3, i32 0, i32 33
  %5 = getelementptr inbounds %struct.Reg, %struct.Reg* %4, i32 0, i32 0
  %PC = bitcast %union.anon* %5 to i64*
  %6 = getelementptr inbounds %struct.State, %struct.State* %0, i32 0, i32 6
  %7 = getelementptr inbounds %struct.GPR, %struct.GPR* %6, i32 0, i32 1
  %8 = getelementptr inbounds %struct.Reg, %struct.Reg* %7, i32 0, i32 0
  %EAX = bitcast %union.anon* %8 to i32*
  %9 = getelementptr inbounds %struct.State, %struct.State* %0, i32 0, i32 6
  %10 = getelementptr inbounds %struct.GPR, %struct.GPR* %9, i32 0, i32 15
  %11 = getelementptr inbounds %struct.Reg, %struct.Reg* %10, i32 0, i32 0
  %RBP = bitcast %union.anon* %11 to i64*
  %12 = load i64, i64* %RBP
  %13 = sub i64 %12, 60
  %14 = load i32, i32* %EAX
  %15 = zext i32 %14 to i64
  %16 = load i64, i64* %PC
  %17 = add i64 %16, 3
  store i64 %17, i64* %PC
  %18 = call %struct.Memory* @_ZN12_GLOBAL__N_1L3MOVI3MnWIjE2RnIjEEEP6MemoryS6_R5StateT_T0_(%struct.Memory* %2, %struct.State* %0, i64 %13, i64 %15)
  ret %struct.Memory* %18
}


define %struct.Memory* @routine_jmpq_.L_400be7(%struct.State*  dereferenceable(3376), i64, %struct.Memory*, i64 %rel_off1, i64 %rel_off2) {
block_400488:
  %3 = getelementptr inbounds %struct.State, %struct.State* %0, i32 0, i32 6
  %4 = getelementptr inbounds %struct.GPR, %struct.GPR* %3, i32 0, i32 33
  %5 = getelementptr inbounds %struct.Reg, %struct.Reg* %4, i32 0, i32 0
  %PC = bitcast %union.anon* %5 to i64*
  %6 = load i64, i64* %PC
  %7 = add i64 %6, %rel_off1
  %8 = load i64, i64* %PC
  %9 = add i64 %8, %rel_off2
  store i64 %9, i64* %PC
  %10 = call %struct.Memory* @_ZN12_GLOBAL__N_1L3JMPI2InImEEEP6MemoryS4_R5StateT_(%struct.Memory* %2, %struct.State* %0, i64 %7)
  ret %struct.Memory* %10
}








define %struct.Memory* @routine_jge_.L_400cd1(%struct.State*  dereferenceable(3376), i64, %struct.Memory*, i8* %BRANCH_TAKEN, i64 %rel_off1, i64 %rel_off2, i64 %rel_off3) {
block_400488:
  %3 = getelementptr inbounds %struct.State, %struct.State* %0, i32 0, i32 6
  %4 = getelementptr inbounds %struct.GPR, %struct.GPR* %3, i32 0, i32 33
  %5 = getelementptr inbounds %struct.Reg, %struct.Reg* %4, i32 0, i32 0
  %PC = bitcast %union.anon* %5 to i64*
  %6 = load i64, i64* %PC
  %7 = add i64 %6, %rel_off1
  %8 = load i64, i64* %PC
  %9 = add i64 %8, %rel_off2
  %10 = load i64, i64* %PC
  %11 = add i64 %10, %rel_off3
  store i64 %11, i64* %PC
  %12 = call %struct.Memory* @_ZN12_GLOBAL__N_1L3JNLEP6MemoryR5State3RnWIhE2InImES7_(%struct.Memory* %2, %struct.State* %0, i8* %BRANCH_TAKEN, i64 %7, i64 %9)
  ret %struct.Memory* %12
}






define %struct.Memory* @routine_cmpl_MINUS0x8__rbp____eax(%struct.State*  dereferenceable(3376), i64, %struct.Memory* ) #19 {
block_400488:
  %3 = getelementptr inbounds %struct.State, %struct.State* %0, i32 0, i32 6
  %4 = getelementptr inbounds %struct.GPR, %struct.GPR* %3, i32 0, i32 33
  %5 = getelementptr inbounds %struct.Reg, %struct.Reg* %4, i32 0, i32 0
  %PC = bitcast %union.anon* %5 to i64*
  %6 = getelementptr inbounds %struct.State, %struct.State* %0, i32 0, i32 6
  %7 = getelementptr inbounds %struct.GPR, %struct.GPR* %6, i32 0, i32 1
  %8 = getelementptr inbounds %struct.Reg, %struct.Reg* %7, i32 0, i32 0
  %EAX = bitcast %union.anon* %8 to i32*
  %9 = getelementptr inbounds %struct.State, %struct.State* %0, i32 0, i32 6
  %10 = getelementptr inbounds %struct.GPR, %struct.GPR* %9, i32 0, i32 15
  %11 = getelementptr inbounds %struct.Reg, %struct.Reg* %10, i32 0, i32 0
  %RBP = bitcast %union.anon* %11 to i64*
  %12 = load i32, i32* %EAX
  %13 = zext i32 %12 to i64
  %14 = load i64, i64* %RBP
  %15 = sub i64 %14, 8
  %16 = load i64, i64* %PC
  %17 = add i64 %16, 3
  store i64 %17, i64* %PC
  %18 = call %struct.Memory* @_ZN12_GLOBAL__N_1L3CMPI2RnIjE2MnIjEEEP6MemoryS6_R5StateT_T0_(%struct.Memory* %2, %struct.State* %0, i64 %13, i64 %15)
  ret %struct.Memory* %18
}


define %struct.Memory* @routine_jge_.L_400cbe(%struct.State*  dereferenceable(3376), i64, %struct.Memory*, i8* %BRANCH_TAKEN, i64 %rel_off1, i64 %rel_off2, i64 %rel_off3) {
block_400488:
  %3 = getelementptr inbounds %struct.State, %struct.State* %0, i32 0, i32 6
  %4 = getelementptr inbounds %struct.GPR, %struct.GPR* %3, i32 0, i32 33
  %5 = getelementptr inbounds %struct.Reg, %struct.Reg* %4, i32 0, i32 0
  %PC = bitcast %union.anon* %5 to i64*
  %6 = load i64, i64* %PC
  %7 = add i64 %6, %rel_off1
  %8 = load i64, i64* %PC
  %9 = add i64 %8, %rel_off2
  %10 = load i64, i64* %PC
  %11 = add i64 %10, %rel_off3
  store i64 %11, i64* %PC
  %12 = call %struct.Memory* @_ZN12_GLOBAL__N_1L3JNLEP6MemoryR5State3RnWIhE2InImES7_(%struct.Memory* %2, %struct.State* %0, i8* %BRANCH_TAKEN, i64 %7, i64 %9)
  ret %struct.Memory* %12
}







define internal %struct.Memory* @_ZN12_GLOBAL__N_1L8CVTSI2SDI2RnIjEEEP6MemoryS4_R5State3VnWI8vec128_tET_(%struct.Memory* readnone returned, %struct.State* nocapture readnone dereferenceable(3376), i8* nocapture, i64) #0 {
  %5 = trunc i64 %3 to i32
  %6 = sitofp i32 %5 to double
  %7 = bitcast i8* %2 to double*
  store double %6, double* %7, align 1
  ret %struct.Memory* %0
}

define %struct.Memory* @routine_cvtsi2sdl__eax___xmm1(%struct.State*  dereferenceable(3376), i64, %struct.Memory* ) #19 {
block_400488:
  %3 = getelementptr inbounds %struct.State, %struct.State* %0, i32 0, i32 6
  %4 = getelementptr inbounds %struct.GPR, %struct.GPR* %3, i32 0, i32 33
  %5 = getelementptr inbounds %struct.Reg, %struct.Reg* %4, i32 0, i32 0
  %PC = bitcast %union.anon* %5 to i64*
  %6 = getelementptr inbounds %struct.State, %struct.State* %0, i32 0, i32 6
  %7 = getelementptr inbounds %struct.GPR, %struct.GPR* %6, i32 0, i32 1
  %8 = getelementptr inbounds %struct.Reg, %struct.Reg* %7, i32 0, i32 0
  %EAX = bitcast %union.anon* %8 to i32*
  %9 = getelementptr inbounds %struct.State, %struct.State* %0, i32 0, i32 1
  %10 = getelementptr inbounds [32 x %union.VectorReg], [32 x %union.VectorReg]* %9, i64 0, i64 1
  %YMM1 = bitcast %union.VectorReg* %10 to %"class.std::bitset"*
  %11 = bitcast %"class.std::bitset"* %YMM1 to i8*
  %12 = load i32, i32* %EAX
  %13 = zext i32 %12 to i64
  %14 = load i64, i64* %PC
  %15 = add i64 %14, 4
  store i64 %15, i64* %PC
  %16 = call %struct.Memory* @_ZN12_GLOBAL__N_1L8CVTSI2SDI2RnIjEEEP6MemoryS4_R5State3VnWI8vec128_tET_(%struct.Memory* %2, %struct.State* %0, i8* %11, i64 %13)
  ret %struct.Memory* %16
}




define %struct.Memory* @routine_cvtsi2sdl_MINUS0x8__rbp____xmm1(%struct.State*  dereferenceable(3376), i64, %struct.Memory* ) #19 {
block_400488:
  %3 = getelementptr inbounds %struct.State, %struct.State* %0, i32 0, i32 6
  %4 = getelementptr inbounds %struct.GPR, %struct.GPR* %3, i32 0, i32 33
  %5 = getelementptr inbounds %struct.Reg, %struct.Reg* %4, i32 0, i32 0
  %PC = bitcast %union.anon* %5 to i64*
  %6 = getelementptr inbounds %struct.State, %struct.State* %0, i32 0, i32 6
  %7 = getelementptr inbounds %struct.GPR, %struct.GPR* %6, i32 0, i32 15
  %8 = getelementptr inbounds %struct.Reg, %struct.Reg* %7, i32 0, i32 0
  %RBP = bitcast %union.anon* %8 to i64*
  %9 = getelementptr inbounds %struct.State, %struct.State* %0, i32 0, i32 1
  %10 = getelementptr inbounds [32 x %union.VectorReg], [32 x %union.VectorReg]* %9, i64 0, i64 1
  %YMM1 = bitcast %union.VectorReg* %10 to %"class.std::bitset"*
  %11 = bitcast %"class.std::bitset"* %YMM1 to i8*
  %12 = load i64, i64* %RBP
  %13 = sub i64 %12, 8
  %14 = load i64, i64* %PC
  %15 = add i64 %14, 5
  store i64 %15, i64* %PC
  %16 = call %struct.Memory* @_ZN12_GLOBAL__N_1L8CVTSI2SDI2MnIjEEEP6MemoryS4_R5State3VnWI8vec128_tET_(%struct.Memory* %2, %struct.State* %0, i8* %11, i64 %13)
  ret %struct.Memory* %16
}




define %struct.Memory* @routine_movq_MINUS0x28__rbp____rcx(%struct.State*  dereferenceable(3376), i64, %struct.Memory* ) #19 {
block_400488:
  %3 = getelementptr inbounds %struct.State, %struct.State* %0, i32 0, i32 6
  %4 = getelementptr inbounds %struct.GPR, %struct.GPR* %3, i32 0, i32 33
  %5 = getelementptr inbounds %struct.Reg, %struct.Reg* %4, i32 0, i32 0
  %PC = bitcast %union.anon* %5 to i64*
  %6 = getelementptr inbounds %struct.State, %struct.State* %0, i32 0, i32 6
  %7 = getelementptr inbounds %struct.GPR, %struct.GPR* %6, i32 0, i32 5
  %8 = getelementptr inbounds %struct.Reg, %struct.Reg* %7, i32 0, i32 0
  %RCX = bitcast %union.anon* %8 to i64*
  %9 = getelementptr inbounds %struct.State, %struct.State* %0, i32 0, i32 6
  %10 = getelementptr inbounds %struct.GPR, %struct.GPR* %9, i32 0, i32 15
  %11 = getelementptr inbounds %struct.Reg, %struct.Reg* %10, i32 0, i32 0
  %RBP = bitcast %union.anon* %11 to i64*
  %12 = load i64, i64* %RBP
  %13 = sub i64 %12, 40
  %14 = load i64, i64* %PC
  %15 = add i64 %14, 4
  store i64 %15, i64* %PC
  %16 = call %struct.Memory* @_ZN12_GLOBAL__N_1L3MOVI3RnWImE2MnImEEEP6MemoryS6_R5StateT_T0_(%struct.Memory* %2, %struct.State* %0, i64* %RCX, i64 %13)
  ret %struct.Memory* %16
}


define %struct.Memory* @routine_movslq_MINUS0x3c__rbp____rdx(%struct.State*  dereferenceable(3376), i64, %struct.Memory* ) #19 {
block_400488:
  %3 = getelementptr inbounds %struct.State, %struct.State* %0, i32 0, i32 6
  %4 = getelementptr inbounds %struct.GPR, %struct.GPR* %3, i32 0, i32 33
  %5 = getelementptr inbounds %struct.Reg, %struct.Reg* %4, i32 0, i32 0
  %PC = bitcast %union.anon* %5 to i64*
  %6 = getelementptr inbounds %struct.State, %struct.State* %0, i32 0, i32 6
  %7 = getelementptr inbounds %struct.GPR, %struct.GPR* %6, i32 0, i32 7
  %8 = getelementptr inbounds %struct.Reg, %struct.Reg* %7, i32 0, i32 0
  %RDX = bitcast %union.anon* %8 to i64*
  %9 = getelementptr inbounds %struct.State, %struct.State* %0, i32 0, i32 6
  %10 = getelementptr inbounds %struct.GPR, %struct.GPR* %9, i32 0, i32 15
  %11 = getelementptr inbounds %struct.Reg, %struct.Reg* %10, i32 0, i32 0
  %RBP = bitcast %union.anon* %11 to i64*
  %12 = load i64, i64* %RBP
  %13 = sub i64 %12, 60
  %14 = load i64, i64* %PC
  %15 = add i64 %14, 4
  store i64 %15, i64* %PC
  %16 = call %struct.Memory* @_ZN12_GLOBAL__N_1L5MOVSXI3RnWImE2MnIjElEEP6MemoryS6_R5StateT_T0_(%struct.Memory* %2, %struct.State* %0, i64* %RDX, i64 %13)
  ret %struct.Memory* %16
}


define %struct.Memory* @routine_shlq__0xd___rdx(%struct.State*  dereferenceable(3376), i64, %struct.Memory* ) #19 {
block_400488:
  %3 = getelementptr inbounds %struct.State, %struct.State* %0, i32 0, i32 6
  %4 = getelementptr inbounds %struct.GPR, %struct.GPR* %3, i32 0, i32 33
  %5 = getelementptr inbounds %struct.Reg, %struct.Reg* %4, i32 0, i32 0
  %PC = bitcast %union.anon* %5 to i64*
  %6 = getelementptr inbounds %struct.State, %struct.State* %0, i32 0, i32 6
  %7 = getelementptr inbounds %struct.GPR, %struct.GPR* %6, i32 0, i32 7
  %8 = getelementptr inbounds %struct.Reg, %struct.Reg* %7, i32 0, i32 0
  %RDX = bitcast %union.anon* %8 to i64*
  %9 = load i64, i64* %RDX
  %10 = load i64, i64* %PC
  %11 = add i64 %10, 4
  store i64 %11, i64* %PC
  %12 = call %struct.Memory* @_ZN12_GLOBAL__N_1L3SHLI3RnWImE2RnImE2InImEEEP6MemoryS8_R5StateT_T0_T1_(%struct.Memory* %2, %struct.State* %0, i64* %RDX, i64 %9, i64 13)
  ret %struct.Memory* %12
}


define %struct.Memory* @routine_addq__rdx___rcx(%struct.State*  dereferenceable(3376), i64, %struct.Memory* ) #19 {
block_400488:
  %3 = getelementptr inbounds %struct.State, %struct.State* %0, i32 0, i32 6
  %4 = getelementptr inbounds %struct.GPR, %struct.GPR* %3, i32 0, i32 33
  %5 = getelementptr inbounds %struct.Reg, %struct.Reg* %4, i32 0, i32 0
  %PC = bitcast %union.anon* %5 to i64*
  %6 = getelementptr inbounds %struct.State, %struct.State* %0, i32 0, i32 6
  %7 = getelementptr inbounds %struct.GPR, %struct.GPR* %6, i32 0, i32 5
  %8 = getelementptr inbounds %struct.Reg, %struct.Reg* %7, i32 0, i32 0
  %RCX = bitcast %union.anon* %8 to i64*
  %9 = getelementptr inbounds %struct.State, %struct.State* %0, i32 0, i32 6
  %10 = getelementptr inbounds %struct.GPR, %struct.GPR* %9, i32 0, i32 7
  %11 = getelementptr inbounds %struct.Reg, %struct.Reg* %10, i32 0, i32 0
  %RDX = bitcast %union.anon* %11 to i64*
  %12 = load i64, i64* %RCX
  %13 = load i64, i64* %RDX
  %14 = load i64, i64* %PC
  %15 = add i64 %14, 3
  store i64 %15, i64* %PC
  %16 = call %struct.Memory* @_ZN12_GLOBAL__N_1L3ADDI3RnWImE2RnImES4_EEP6MemoryS6_R5StateT_T0_T1_(%struct.Memory* %2, %struct.State* %0, i64* %RCX, i64 %12, i64 %13)
  ret %struct.Memory* %16
}


define %struct.Memory* @routine_movslq_MINUS0x40__rbp____rdx(%struct.State*  dereferenceable(3376), i64, %struct.Memory* ) #19 {
block_400488:
  %3 = getelementptr inbounds %struct.State, %struct.State* %0, i32 0, i32 6
  %4 = getelementptr inbounds %struct.GPR, %struct.GPR* %3, i32 0, i32 33
  %5 = getelementptr inbounds %struct.Reg, %struct.Reg* %4, i32 0, i32 0
  %PC = bitcast %union.anon* %5 to i64*
  %6 = getelementptr inbounds %struct.State, %struct.State* %0, i32 0, i32 6
  %7 = getelementptr inbounds %struct.GPR, %struct.GPR* %6, i32 0, i32 7
  %8 = getelementptr inbounds %struct.Reg, %struct.Reg* %7, i32 0, i32 0
  %RDX = bitcast %union.anon* %8 to i64*
  %9 = getelementptr inbounds %struct.State, %struct.State* %0, i32 0, i32 6
  %10 = getelementptr inbounds %struct.GPR, %struct.GPR* %9, i32 0, i32 15
  %11 = getelementptr inbounds %struct.Reg, %struct.Reg* %10, i32 0, i32 0
  %RBP = bitcast %union.anon* %11 to i64*
  %12 = load i64, i64* %RBP
  %13 = sub i64 %12, 64
  %14 = load i64, i64* %PC
  %15 = add i64 %14, 4
  store i64 %15, i64* %PC
  %16 = call %struct.Memory* @_ZN12_GLOBAL__N_1L5MOVSXI3RnWImE2MnIjElEEP6MemoryS6_R5StateT_T0_(%struct.Memory* %2, %struct.State* %0, i64* %RDX, i64 %13)
  ret %struct.Memory* %16
}


define %struct.Memory* @routine_movsd__xmm0____rcx__rdx_8_(%struct.State*  dereferenceable(3376), i64, %struct.Memory* ) #19 {
block_400488:
  %3 = getelementptr inbounds %struct.State, %struct.State* %0, i32 0, i32 6
  %4 = getelementptr inbounds %struct.GPR, %struct.GPR* %3, i32 0, i32 33
  %5 = getelementptr inbounds %struct.Reg, %struct.Reg* %4, i32 0, i32 0
  %PC = bitcast %union.anon* %5 to i64*
  %6 = getelementptr inbounds %struct.State, %struct.State* %0, i32 0, i32 6
  %7 = getelementptr inbounds %struct.GPR, %struct.GPR* %6, i32 0, i32 5
  %8 = getelementptr inbounds %struct.Reg, %struct.Reg* %7, i32 0, i32 0
  %RCX = bitcast %union.anon* %8 to i64*
  %9 = getelementptr inbounds %struct.State, %struct.State* %0, i32 0, i32 6
  %10 = getelementptr inbounds %struct.GPR, %struct.GPR* %9, i32 0, i32 7
  %11 = getelementptr inbounds %struct.Reg, %struct.Reg* %10, i32 0, i32 0
  %RDX = bitcast %union.anon* %11 to i64*
  %12 = getelementptr inbounds %struct.State, %struct.State* %0, i32 0, i32 1
  %13 = getelementptr inbounds [32 x %union.VectorReg], [32 x %union.VectorReg]* %12, i64 0, i64 0
  %XMM0 = bitcast %union.VectorReg* %13 to %union.vec128_t*
  %14 = load i64, i64* %RCX
  %15 = load i64, i64* %RDX
  %16 = mul i64 %15, 8
  %17 = add i64 %16, %14
  %18 = bitcast %union.vec128_t* %XMM0 to i8*
  %19 = load i64, i64* %PC
  %20 = add i64 %19, 5
  store i64 %20, i64* %PC
  %21 = call %struct.Memory* @_ZN12_GLOBAL__N_1L9MOVSD_MEMI4MVnWI7vec64_tE2VnI8vec128_tEEEP6MemoryS8_R5StateT_T0_(%struct.Memory* %2, %struct.State* %0, i64 %17, i8* %18)
  ret %struct.Memory* %21
}








define %struct.Memory* @routine_jmpq_.L_400c70(%struct.State*  dereferenceable(3376), i64, %struct.Memory*, i64 %rel_off1, i64 %rel_off2) {
block_400488:
  %3 = getelementptr inbounds %struct.State, %struct.State* %0, i32 0, i32 6
  %4 = getelementptr inbounds %struct.GPR, %struct.GPR* %3, i32 0, i32 33
  %5 = getelementptr inbounds %struct.Reg, %struct.Reg* %4, i32 0, i32 0
  %PC = bitcast %union.anon* %5 to i64*
  %6 = load i64, i64* %PC
  %7 = add i64 %6, %rel_off1
  %8 = load i64, i64* %PC
  %9 = add i64 %8, %rel_off2
  store i64 %9, i64* %PC
  %10 = call %struct.Memory* @_ZN12_GLOBAL__N_1L3JMPI2InImEEEP6MemoryS4_R5StateT_(%struct.Memory* %2, %struct.State* %0, i64 %7)
  ret %struct.Memory* %10
}


define %struct.Memory* @routine_jmpq_.L_400cc3(%struct.State*  dereferenceable(3376), i64, %struct.Memory*, i64 %rel_off1, i64 %rel_off2) {
block_400488:
  %3 = getelementptr inbounds %struct.State, %struct.State* %0, i32 0, i32 6
  %4 = getelementptr inbounds %struct.GPR, %struct.GPR* %3, i32 0, i32 33
  %5 = getelementptr inbounds %struct.Reg, %struct.Reg* %4, i32 0, i32 0
  %PC = bitcast %union.anon* %5 to i64*
  %6 = load i64, i64* %PC
  %7 = add i64 %6, %rel_off1
  %8 = load i64, i64* %PC
  %9 = add i64 %8, %rel_off2
  store i64 %9, i64* %PC
  %10 = call %struct.Memory* @_ZN12_GLOBAL__N_1L3JMPI2InImEEEP6MemoryS4_R5StateT_(%struct.Memory* %2, %struct.State* %0, i64 %7)
  ret %struct.Memory* %10
}








define %struct.Memory* @routine_jmpq_.L_400c5d(%struct.State*  dereferenceable(3376), i64, %struct.Memory*, i64 %rel_off1, i64 %rel_off2) {
block_400488:
  %3 = getelementptr inbounds %struct.State, %struct.State* %0, i32 0, i32 6
  %4 = getelementptr inbounds %struct.GPR, %struct.GPR* %3, i32 0, i32 33
  %5 = getelementptr inbounds %struct.Reg, %struct.Reg* %4, i32 0, i32 0
  %PC = bitcast %union.anon* %5 to i64*
  %6 = load i64, i64* %PC
  %7 = add i64 %6, %rel_off1
  %8 = load i64, i64* %PC
  %9 = add i64 %8, %rel_off2
  store i64 %9, i64* %PC
  %10 = call %struct.Memory* @_ZN12_GLOBAL__N_1L3JMPI2InImEEEP6MemoryS4_R5StateT_(%struct.Memory* %2, %struct.State* %0, i64 %7)
  ret %struct.Memory* %10
}








define %struct.Memory* @routine_jge_.L_400d4c(%struct.State*  dereferenceable(3376), i64, %struct.Memory*, i8* %BRANCH_TAKEN, i64 %rel_off1, i64 %rel_off2, i64 %rel_off3) {
block_400488:
  %3 = getelementptr inbounds %struct.State, %struct.State* %0, i32 0, i32 6
  %4 = getelementptr inbounds %struct.GPR, %struct.GPR* %3, i32 0, i32 33
  %5 = getelementptr inbounds %struct.Reg, %struct.Reg* %4, i32 0, i32 0
  %PC = bitcast %union.anon* %5 to i64*
  %6 = load i64, i64* %PC
  %7 = add i64 %6, %rel_off1
  %8 = load i64, i64* %PC
  %9 = add i64 %8, %rel_off2
  %10 = load i64, i64* %PC
  %11 = add i64 %10, %rel_off3
  store i64 %11, i64* %PC
  %12 = call %struct.Memory* @_ZN12_GLOBAL__N_1L3JNLEP6MemoryR5State3RnWIhE2InImES7_(%struct.Memory* %2, %struct.State* %0, i8* %BRANCH_TAKEN, i64 %7, i64 %9)
  ret %struct.Memory* %12
}






define %struct.Memory* @routine_cmpl_MINUS0x14__rbp____eax(%struct.State*  dereferenceable(3376), i64, %struct.Memory* ) #19 {
block_400488:
  %3 = getelementptr inbounds %struct.State, %struct.State* %0, i32 0, i32 6
  %4 = getelementptr inbounds %struct.GPR, %struct.GPR* %3, i32 0, i32 33
  %5 = getelementptr inbounds %struct.Reg, %struct.Reg* %4, i32 0, i32 0
  %PC = bitcast %union.anon* %5 to i64*
  %6 = getelementptr inbounds %struct.State, %struct.State* %0, i32 0, i32 6
  %7 = getelementptr inbounds %struct.GPR, %struct.GPR* %6, i32 0, i32 1
  %8 = getelementptr inbounds %struct.Reg, %struct.Reg* %7, i32 0, i32 0
  %EAX = bitcast %union.anon* %8 to i32*
  %9 = getelementptr inbounds %struct.State, %struct.State* %0, i32 0, i32 6
  %10 = getelementptr inbounds %struct.GPR, %struct.GPR* %9, i32 0, i32 15
  %11 = getelementptr inbounds %struct.Reg, %struct.Reg* %10, i32 0, i32 0
  %RBP = bitcast %union.anon* %11 to i64*
  %12 = load i32, i32* %EAX
  %13 = zext i32 %12 to i64
  %14 = load i64, i64* %RBP
  %15 = sub i64 %14, 20
  %16 = load i64, i64* %PC
  %17 = add i64 %16, 3
  store i64 %17, i64* %PC
  %18 = call %struct.Memory* @_ZN12_GLOBAL__N_1L3CMPI2RnIjE2MnIjEEEP6MemoryS6_R5StateT_T0_(%struct.Memory* %2, %struct.State* %0, i64 %13, i64 %15)
  ret %struct.Memory* %18
}


define %struct.Memory* @routine_jge_.L_400d39(%struct.State*  dereferenceable(3376), i64, %struct.Memory*, i8* %BRANCH_TAKEN, i64 %rel_off1, i64 %rel_off2, i64 %rel_off3) {
block_400488:
  %3 = getelementptr inbounds %struct.State, %struct.State* %0, i32 0, i32 6
  %4 = getelementptr inbounds %struct.GPR, %struct.GPR* %3, i32 0, i32 33
  %5 = getelementptr inbounds %struct.Reg, %struct.Reg* %4, i32 0, i32 0
  %PC = bitcast %union.anon* %5 to i64*
  %6 = load i64, i64* %PC
  %7 = add i64 %6, %rel_off1
  %8 = load i64, i64* %PC
  %9 = add i64 %8, %rel_off2
  %10 = load i64, i64* %PC
  %11 = add i64 %10, %rel_off3
  store i64 %11, i64* %PC
  %12 = call %struct.Memory* @_ZN12_GLOBAL__N_1L3JNLEP6MemoryR5State3RnWIhE2InImES7_(%struct.Memory* %2, %struct.State* %0, i8* %BRANCH_TAKEN, i64 %7, i64 %9)
  ret %struct.Memory* %12
}






define %struct.Memory* @routine_addl__0x3___eax(%struct.State*  dereferenceable(3376), i64, %struct.Memory* ) #19 {
block_400488:
  %3 = getelementptr inbounds %struct.State, %struct.State* %0, i32 0, i32 6
  %4 = getelementptr inbounds %struct.GPR, %struct.GPR* %3, i32 0, i32 33
  %5 = getelementptr inbounds %struct.Reg, %struct.Reg* %4, i32 0, i32 0
  %PC = bitcast %union.anon* %5 to i64*
  %6 = getelementptr inbounds %struct.State, %struct.State* %0, i32 0, i32 6
  %7 = getelementptr inbounds %struct.GPR, %struct.GPR* %6, i32 0, i32 1
  %8 = getelementptr inbounds %struct.Reg, %struct.Reg* %7, i32 0, i32 0
  %RAX = bitcast %union.anon* %8 to i64*
  %9 = load i64, i64* %RAX
  %10 = load i64, i64* %PC
  %11 = add i64 %10, 3
  store i64 %11, i64* %PC
  %12 = call %struct.Memory* @_ZN12_GLOBAL__N_1L3ADDI3RnWImE2RnIjE2InIjEEEP6MemoryS8_R5StateT_T0_T1_(%struct.Memory* %2, %struct.State* %0, i64* %RAX, i64 %9, i64 3)
  ret %struct.Memory* %12
}






define %struct.Memory* @routine_cvtsi2sdl_MINUS0x10__rbp____xmm1(%struct.State*  dereferenceable(3376), i64, %struct.Memory* ) #19 {
block_400488:
  %3 = getelementptr inbounds %struct.State, %struct.State* %0, i32 0, i32 6
  %4 = getelementptr inbounds %struct.GPR, %struct.GPR* %3, i32 0, i32 33
  %5 = getelementptr inbounds %struct.Reg, %struct.Reg* %4, i32 0, i32 0
  %PC = bitcast %union.anon* %5 to i64*
  %6 = getelementptr inbounds %struct.State, %struct.State* %0, i32 0, i32 6
  %7 = getelementptr inbounds %struct.GPR, %struct.GPR* %6, i32 0, i32 15
  %8 = getelementptr inbounds %struct.Reg, %struct.Reg* %7, i32 0, i32 0
  %RBP = bitcast %union.anon* %8 to i64*
  %9 = getelementptr inbounds %struct.State, %struct.State* %0, i32 0, i32 1
  %10 = getelementptr inbounds [32 x %union.VectorReg], [32 x %union.VectorReg]* %9, i64 0, i64 1
  %YMM1 = bitcast %union.VectorReg* %10 to %"class.std::bitset"*
  %11 = bitcast %"class.std::bitset"* %YMM1 to i8*
  %12 = load i64, i64* %RBP
  %13 = sub i64 %12, 16
  %14 = load i64, i64* %PC
  %15 = add i64 %14, 5
  store i64 %15, i64* %PC
  %16 = call %struct.Memory* @_ZN12_GLOBAL__N_1L8CVTSI2SDI2MnIjEEEP6MemoryS4_R5State3VnWI8vec128_tET_(%struct.Memory* %2, %struct.State* %0, i8* %11, i64 %13)
  ret %struct.Memory* %16
}




define %struct.Memory* @routine_movq_MINUS0x30__rbp____rcx(%struct.State*  dereferenceable(3376), i64, %struct.Memory* ) #19 {
block_400488:
  %3 = getelementptr inbounds %struct.State, %struct.State* %0, i32 0, i32 6
  %4 = getelementptr inbounds %struct.GPR, %struct.GPR* %3, i32 0, i32 33
  %5 = getelementptr inbounds %struct.Reg, %struct.Reg* %4, i32 0, i32 0
  %PC = bitcast %union.anon* %5 to i64*
  %6 = getelementptr inbounds %struct.State, %struct.State* %0, i32 0, i32 6
  %7 = getelementptr inbounds %struct.GPR, %struct.GPR* %6, i32 0, i32 5
  %8 = getelementptr inbounds %struct.Reg, %struct.Reg* %7, i32 0, i32 0
  %RCX = bitcast %union.anon* %8 to i64*
  %9 = getelementptr inbounds %struct.State, %struct.State* %0, i32 0, i32 6
  %10 = getelementptr inbounds %struct.GPR, %struct.GPR* %9, i32 0, i32 15
  %11 = getelementptr inbounds %struct.Reg, %struct.Reg* %10, i32 0, i32 0
  %RBP = bitcast %union.anon* %11 to i64*
  %12 = load i64, i64* %RBP
  %13 = sub i64 %12, 48
  %14 = load i64, i64* %PC
  %15 = add i64 %14, 4
  store i64 %15, i64* %PC
  %16 = call %struct.Memory* @_ZN12_GLOBAL__N_1L3MOVI3RnWImE2MnImEEEP6MemoryS6_R5StateT_T0_(%struct.Memory* %2, %struct.State* %0, i64* %RCX, i64 %13)
  ret %struct.Memory* %16
}


















define %struct.Memory* @routine_jmpq_.L_400ceb(%struct.State*  dereferenceable(3376), i64, %struct.Memory*, i64 %rel_off1, i64 %rel_off2) {
block_400488:
  %3 = getelementptr inbounds %struct.State, %struct.State* %0, i32 0, i32 6
  %4 = getelementptr inbounds %struct.GPR, %struct.GPR* %3, i32 0, i32 33
  %5 = getelementptr inbounds %struct.Reg, %struct.Reg* %4, i32 0, i32 0
  %PC = bitcast %union.anon* %5 to i64*
  %6 = load i64, i64* %PC
  %7 = add i64 %6, %rel_off1
  %8 = load i64, i64* %PC
  %9 = add i64 %8, %rel_off2
  store i64 %9, i64* %PC
  %10 = call %struct.Memory* @_ZN12_GLOBAL__N_1L3JMPI2InImEEEP6MemoryS4_R5StateT_(%struct.Memory* %2, %struct.State* %0, i64 %7)
  ret %struct.Memory* %10
}


define %struct.Memory* @routine_jmpq_.L_400d3e(%struct.State*  dereferenceable(3376), i64, %struct.Memory*, i64 %rel_off1, i64 %rel_off2) {
block_400488:
  %3 = getelementptr inbounds %struct.State, %struct.State* %0, i32 0, i32 6
  %4 = getelementptr inbounds %struct.GPR, %struct.GPR* %3, i32 0, i32 33
  %5 = getelementptr inbounds %struct.Reg, %struct.Reg* %4, i32 0, i32 0
  %PC = bitcast %union.anon* %5 to i64*
  %6 = load i64, i64* %PC
  %7 = add i64 %6, %rel_off1
  %8 = load i64, i64* %PC
  %9 = add i64 %8, %rel_off2
  store i64 %9, i64* %PC
  %10 = call %struct.Memory* @_ZN12_GLOBAL__N_1L3JMPI2InImEEEP6MemoryS4_R5StateT_(%struct.Memory* %2, %struct.State* %0, i64 %7)
  ret %struct.Memory* %10
}








define %struct.Memory* @routine_jmpq_.L_400cd8(%struct.State*  dereferenceable(3376), i64, %struct.Memory*, i64 %rel_off1, i64 %rel_off2) {
block_400488:
  %3 = getelementptr inbounds %struct.State, %struct.State* %0, i32 0, i32 6
  %4 = getelementptr inbounds %struct.GPR, %struct.GPR* %3, i32 0, i32 33
  %5 = getelementptr inbounds %struct.Reg, %struct.Reg* %4, i32 0, i32 0
  %PC = bitcast %union.anon* %5 to i64*
  %6 = load i64, i64* %PC
  %7 = add i64 %6, %rel_off1
  %8 = load i64, i64* %PC
  %9 = add i64 %8, %rel_off2
  store i64 %9, i64* %PC
  %10 = call %struct.Memory* @_ZN12_GLOBAL__N_1L3JMPI2InImEEEP6MemoryS4_R5StateT_(%struct.Memory* %2, %struct.State* %0, i64 %7)
  ret %struct.Memory* %10
}








define %struct.Memory* @routine_jge_.L_400dc7(%struct.State*  dereferenceable(3376), i64, %struct.Memory*, i8* %BRANCH_TAKEN, i64 %rel_off1, i64 %rel_off2, i64 %rel_off3) {
block_400488:
  %3 = getelementptr inbounds %struct.State, %struct.State* %0, i32 0, i32 6
  %4 = getelementptr inbounds %struct.GPR, %struct.GPR* %3, i32 0, i32 33
  %5 = getelementptr inbounds %struct.Reg, %struct.Reg* %4, i32 0, i32 0
  %PC = bitcast %union.anon* %5 to i64*
  %6 = load i64, i64* %PC
  %7 = add i64 %6, %rel_off1
  %8 = load i64, i64* %PC
  %9 = add i64 %8, %rel_off2
  %10 = load i64, i64* %PC
  %11 = add i64 %10, %rel_off3
  store i64 %11, i64* %PC
  %12 = call %struct.Memory* @_ZN12_GLOBAL__N_1L3JNLEP6MemoryR5State3RnWIhE2InImES7_(%struct.Memory* %2, %struct.State* %0, i8* %BRANCH_TAKEN, i64 %7, i64 %9)
  ret %struct.Memory* %12
}






define %struct.Memory* @routine_cmpl_MINUS0x10__rbp____eax(%struct.State*  dereferenceable(3376), i64, %struct.Memory* ) #19 {
block_400488:
  %3 = getelementptr inbounds %struct.State, %struct.State* %0, i32 0, i32 6
  %4 = getelementptr inbounds %struct.GPR, %struct.GPR* %3, i32 0, i32 33
  %5 = getelementptr inbounds %struct.Reg, %struct.Reg* %4, i32 0, i32 0
  %PC = bitcast %union.anon* %5 to i64*
  %6 = getelementptr inbounds %struct.State, %struct.State* %0, i32 0, i32 6
  %7 = getelementptr inbounds %struct.GPR, %struct.GPR* %6, i32 0, i32 1
  %8 = getelementptr inbounds %struct.Reg, %struct.Reg* %7, i32 0, i32 0
  %EAX = bitcast %union.anon* %8 to i32*
  %9 = getelementptr inbounds %struct.State, %struct.State* %0, i32 0, i32 6
  %10 = getelementptr inbounds %struct.GPR, %struct.GPR* %9, i32 0, i32 15
  %11 = getelementptr inbounds %struct.Reg, %struct.Reg* %10, i32 0, i32 0
  %RBP = bitcast %union.anon* %11 to i64*
  %12 = load i32, i32* %EAX
  %13 = zext i32 %12 to i64
  %14 = load i64, i64* %RBP
  %15 = sub i64 %14, 16
  %16 = load i64, i64* %PC
  %17 = add i64 %16, 3
  store i64 %17, i64* %PC
  %18 = call %struct.Memory* @_ZN12_GLOBAL__N_1L3CMPI2RnIjE2MnIjEEEP6MemoryS6_R5StateT_T0_(%struct.Memory* %2, %struct.State* %0, i64 %13, i64 %15)
  ret %struct.Memory* %18
}


define %struct.Memory* @routine_jge_.L_400db4(%struct.State*  dereferenceable(3376), i64, %struct.Memory*, i8* %BRANCH_TAKEN, i64 %rel_off1, i64 %rel_off2, i64 %rel_off3) {
block_400488:
  %3 = getelementptr inbounds %struct.State, %struct.State* %0, i32 0, i32 6
  %4 = getelementptr inbounds %struct.GPR, %struct.GPR* %3, i32 0, i32 33
  %5 = getelementptr inbounds %struct.Reg, %struct.Reg* %4, i32 0, i32 0
  %PC = bitcast %union.anon* %5 to i64*
  %6 = load i64, i64* %PC
  %7 = add i64 %6, %rel_off1
  %8 = load i64, i64* %PC
  %9 = add i64 %8, %rel_off2
  %10 = load i64, i64* %PC
  %11 = add i64 %10, %rel_off3
  store i64 %11, i64* %PC
  %12 = call %struct.Memory* @_ZN12_GLOBAL__N_1L3JNLEP6MemoryR5State3RnWIhE2InImES7_(%struct.Memory* %2, %struct.State* %0, i8* %BRANCH_TAKEN, i64 %7, i64 %9)
  ret %struct.Memory* %12
}






define %struct.Memory* @routine_addl__0x2___eax(%struct.State*  dereferenceable(3376), i64, %struct.Memory* ) #19 {
block_400488:
  %3 = getelementptr inbounds %struct.State, %struct.State* %0, i32 0, i32 6
  %4 = getelementptr inbounds %struct.GPR, %struct.GPR* %3, i32 0, i32 33
  %5 = getelementptr inbounds %struct.Reg, %struct.Reg* %4, i32 0, i32 0
  %PC = bitcast %union.anon* %5 to i64*
  %6 = getelementptr inbounds %struct.State, %struct.State* %0, i32 0, i32 6
  %7 = getelementptr inbounds %struct.GPR, %struct.GPR* %6, i32 0, i32 1
  %8 = getelementptr inbounds %struct.Reg, %struct.Reg* %7, i32 0, i32 0
  %RAX = bitcast %union.anon* %8 to i64*
  %9 = load i64, i64* %RAX
  %10 = load i64, i64* %PC
  %11 = add i64 %10, 3
  store i64 %11, i64* %PC
  %12 = call %struct.Memory* @_ZN12_GLOBAL__N_1L3ADDI3RnWImE2RnIjE2InIjEEEP6MemoryS8_R5StateT_T0_T1_(%struct.Memory* %2, %struct.State* %0, i64* %RAX, i64 %9, i64 2)
  ret %struct.Memory* %12
}






define %struct.Memory* @routine_cvtsi2sdl_MINUS0xc__rbp____xmm1(%struct.State*  dereferenceable(3376), i64, %struct.Memory* ) #19 {
block_400488:
  %3 = getelementptr inbounds %struct.State, %struct.State* %0, i32 0, i32 6
  %4 = getelementptr inbounds %struct.GPR, %struct.GPR* %3, i32 0, i32 33
  %5 = getelementptr inbounds %struct.Reg, %struct.Reg* %4, i32 0, i32 0
  %PC = bitcast %union.anon* %5 to i64*
  %6 = getelementptr inbounds %struct.State, %struct.State* %0, i32 0, i32 6
  %7 = getelementptr inbounds %struct.GPR, %struct.GPR* %6, i32 0, i32 15
  %8 = getelementptr inbounds %struct.Reg, %struct.Reg* %7, i32 0, i32 0
  %RBP = bitcast %union.anon* %8 to i64*
  %9 = getelementptr inbounds %struct.State, %struct.State* %0, i32 0, i32 1
  %10 = getelementptr inbounds [32 x %union.VectorReg], [32 x %union.VectorReg]* %9, i64 0, i64 1
  %YMM1 = bitcast %union.VectorReg* %10 to %"class.std::bitset"*
  %11 = bitcast %"class.std::bitset"* %YMM1 to i8*
  %12 = load i64, i64* %RBP
  %13 = sub i64 %12, 12
  %14 = load i64, i64* %PC
  %15 = add i64 %14, 5
  store i64 %15, i64* %PC
  %16 = call %struct.Memory* @_ZN12_GLOBAL__N_1L8CVTSI2SDI2MnIjEEEP6MemoryS4_R5State3VnWI8vec128_tET_(%struct.Memory* %2, %struct.State* %0, i8* %11, i64 %13)
  ret %struct.Memory* %16
}




define %struct.Memory* @routine_movq_MINUS0x38__rbp____rcx(%struct.State*  dereferenceable(3376), i64, %struct.Memory* ) #19 {
block_400488:
  %3 = getelementptr inbounds %struct.State, %struct.State* %0, i32 0, i32 6
  %4 = getelementptr inbounds %struct.GPR, %struct.GPR* %3, i32 0, i32 33
  %5 = getelementptr inbounds %struct.Reg, %struct.Reg* %4, i32 0, i32 0
  %PC = bitcast %union.anon* %5 to i64*
  %6 = getelementptr inbounds %struct.State, %struct.State* %0, i32 0, i32 6
  %7 = getelementptr inbounds %struct.GPR, %struct.GPR* %6, i32 0, i32 5
  %8 = getelementptr inbounds %struct.Reg, %struct.Reg* %7, i32 0, i32 0
  %RCX = bitcast %union.anon* %8 to i64*
  %9 = getelementptr inbounds %struct.State, %struct.State* %0, i32 0, i32 6
  %10 = getelementptr inbounds %struct.GPR, %struct.GPR* %9, i32 0, i32 15
  %11 = getelementptr inbounds %struct.Reg, %struct.Reg* %10, i32 0, i32 0
  %RBP = bitcast %union.anon* %11 to i64*
  %12 = load i64, i64* %RBP
  %13 = sub i64 %12, 56
  %14 = load i64, i64* %PC
  %15 = add i64 %14, 4
  store i64 %15, i64* %PC
  %16 = call %struct.Memory* @_ZN12_GLOBAL__N_1L3MOVI3RnWImE2MnImEEEP6MemoryS6_R5StateT_T0_(%struct.Memory* %2, %struct.State* %0, i64* %RCX, i64 %13)
  ret %struct.Memory* %16
}


















define %struct.Memory* @routine_jmpq_.L_400d66(%struct.State*  dereferenceable(3376), i64, %struct.Memory*, i64 %rel_off1, i64 %rel_off2) {
block_400488:
  %3 = getelementptr inbounds %struct.State, %struct.State* %0, i32 0, i32 6
  %4 = getelementptr inbounds %struct.GPR, %struct.GPR* %3, i32 0, i32 33
  %5 = getelementptr inbounds %struct.Reg, %struct.Reg* %4, i32 0, i32 0
  %PC = bitcast %union.anon* %5 to i64*
  %6 = load i64, i64* %PC
  %7 = add i64 %6, %rel_off1
  %8 = load i64, i64* %PC
  %9 = add i64 %8, %rel_off2
  store i64 %9, i64* %PC
  %10 = call %struct.Memory* @_ZN12_GLOBAL__N_1L3JMPI2InImEEEP6MemoryS4_R5StateT_(%struct.Memory* %2, %struct.State* %0, i64 %7)
  ret %struct.Memory* %10
}


define %struct.Memory* @routine_jmpq_.L_400db9(%struct.State*  dereferenceable(3376), i64, %struct.Memory*, i64 %rel_off1, i64 %rel_off2) {
block_400488:
  %3 = getelementptr inbounds %struct.State, %struct.State* %0, i32 0, i32 6
  %4 = getelementptr inbounds %struct.GPR, %struct.GPR* %3, i32 0, i32 33
  %5 = getelementptr inbounds %struct.Reg, %struct.Reg* %4, i32 0, i32 0
  %PC = bitcast %union.anon* %5 to i64*
  %6 = load i64, i64* %PC
  %7 = add i64 %6, %rel_off1
  %8 = load i64, i64* %PC
  %9 = add i64 %8, %rel_off2
  store i64 %9, i64* %PC
  %10 = call %struct.Memory* @_ZN12_GLOBAL__N_1L3JMPI2InImEEEP6MemoryS4_R5StateT_(%struct.Memory* %2, %struct.State* %0, i64 %7)
  ret %struct.Memory* %10
}








define %struct.Memory* @routine_jmpq_.L_400d53(%struct.State*  dereferenceable(3376), i64, %struct.Memory*, i64 %rel_off1, i64 %rel_off2) {
block_400488:
  %3 = getelementptr inbounds %struct.State, %struct.State* %0, i32 0, i32 6
  %4 = getelementptr inbounds %struct.GPR, %struct.GPR* %3, i32 0, i32 33
  %5 = getelementptr inbounds %struct.Reg, %struct.Reg* %4, i32 0, i32 0
  %PC = bitcast %union.anon* %5 to i64*
  %6 = load i64, i64* %PC
  %7 = add i64 %6, %rel_off1
  %8 = load i64, i64* %PC
  %9 = add i64 %8, %rel_off2
  store i64 %9, i64* %PC
  %10 = call %struct.Memory* @_ZN12_GLOBAL__N_1L3JMPI2InImEEEP6MemoryS4_R5StateT_(%struct.Memory* %2, %struct.State* %0, i64 %7)
  ret %struct.Memory* %10
}

define internal %struct.Memory* @_ZN12_GLOBAL__N_1L3POPI3RnWImEEEP6MemoryS4_R5StateT_(%struct.Memory*, %struct.State* nocapture dereferenceable(3376), i64* nocapture) #0 {
  %4 = getelementptr inbounds %struct.State, %struct.State* %1, i64 0, i32 6, i32 13, i32 0, i32 0
  %5 = load i64, i64* %4, align 8
  %6 = add i64 %5, 8
  %7 = inttoptr i64 %5 to i64*
  %8 = load i64, i64* %7
  store i64 %8, i64* %2, align 8
  store i64 %6, i64* %4, align 8
  ret %struct.Memory* %0
}

define %struct.Memory* @routine_popq__rbp(%struct.State*  dereferenceable(3376), i64, %struct.Memory* ) #19 {
block_400488:
  %3 = getelementptr inbounds %struct.State, %struct.State* %0, i32 0, i32 6
  %4 = getelementptr inbounds %struct.GPR, %struct.GPR* %3, i32 0, i32 33
  %5 = getelementptr inbounds %struct.Reg, %struct.Reg* %4, i32 0, i32 0
  %PC = bitcast %union.anon* %5 to i64*
  %6 = getelementptr inbounds %struct.State, %struct.State* %0, i32 0, i32 6
  %7 = getelementptr inbounds %struct.GPR, %struct.GPR* %6, i32 0, i32 15
  %8 = getelementptr inbounds %struct.Reg, %struct.Reg* %7, i32 0, i32 0
  %RBP = bitcast %union.anon* %8 to i64*
  %9 = load i64, i64* %PC
  %10 = add i64 %9, 1
  store i64 %10, i64* %PC
  %11 = call %struct.Memory* @_ZN12_GLOBAL__N_1L3POPI3RnWImEEEP6MemoryS4_R5StateT_(%struct.Memory* %2, %struct.State* %0, i64* %RBP)
  ret %struct.Memory* %11
}

define internal %struct.Memory* @_ZN12_GLOBAL__N_1L3RETEP6MemoryR5State(%struct.Memory* returned, %struct.State* nocapture dereferenceable(3376)) #0 {
  %3 = getelementptr inbounds %struct.State, %struct.State* %1, i64 0, i32 6, i32 33, i32 0, i32 0
  %4 = getelementptr inbounds %struct.State, %struct.State* %1, i64 0, i32 6, i32 13, i32 0, i32 0
  %5 = load i64, i64* %4, align 8
  %6 = inttoptr i64 %5 to i64*
  %7 = load i64, i64* %6
  store i64 %7, i64* %3, align 8
  %8 = add i64 %5, 8
  store i64 %8, i64* %4, align 8
  ret %struct.Memory* %0
}

define %struct.Memory* @routine_retq(%struct.State*  dereferenceable(3376), i64, %struct.Memory* ) #19 {
block_400488:
  %3 = getelementptr inbounds %struct.State, %struct.State* %0, i32 0, i32 6
  %4 = getelementptr inbounds %struct.GPR, %struct.GPR* %3, i32 0, i32 33
  %5 = getelementptr inbounds %struct.Reg, %struct.Reg* %4, i32 0, i32 0
  %PC = bitcast %union.anon* %5 to i64*
  %6 = load i64, i64* %PC
  %7 = add i64 %6, 1
  store i64 %7, i64* %PC
  %8 = call %struct.Memory* @_ZN12_GLOBAL__N_1L3RETEP6MemoryR5State(%struct.Memory* %2, %struct.State* %0)
  ret %struct.Memory* %8
}

