; ModuleID = 'test.bc'
source_filename = "llvm-link"
target datalayout = "e-m:e-i64:64-f80:128-n8:16:32:64-S128"
target triple = "x86_64-pc-linux-gnu-elf"
%union.anon = type { i64 }
%seg_400388__init_type = type <{ [23 x i8] }>
%seg_4003a0__text_type = type <{ [354 x i8] }>
%seg_400504__fini_type = type <{ [9 x i8] }>
%seg_400510__rodata_type = type <{ [4 x i8] }>
%seg_400514__eh_frame_hdr_type = type <{ [52 x i8] }>
%seg_400548__eh_frame_type = type <{ [208 x i8] }>
%seg_600e40__init_array_type = type <{ i64, i64 }>
%seg_601018__data_type = type <{ [16 x i8] }>
%__bss_start_type = type <{ [8 x i8] }>
%struct.State = type { %struct.ArchState, [32 x %union.VectorReg], %struct.ArithFlags, %union.anon, %struct.Segments, %struct.AddressSpace, %struct.GPR, %struct.X87Stack, %struct.MMX, %struct.FPUStatusFlags, %union.anon, %union.FPU, %struct.SegmentCaches }
%struct.ArchState = type { i32, i32, %union.anon }
%union.VectorReg = type { %union.vec512_t }
%union.vec512_t = type { %struct.uint64v8_t }
%struct.uint64v8_t = type { [8 x i64] }
%struct.ArithFlags = type { i8, i8, i8, i8, i8, i8, i8, i8, i8, i8, i8, i8, i8, i8, i8, i8 }
%struct.Segments = type { i16, %union.SegmentSelector, i16, %union.SegmentSelector, i16, %union.SegmentSelector, i16, %union.SegmentSelector, i16, %union.SegmentSelector, i16, %union.SegmentSelector }
%union.SegmentSelector = type { i16 }
%struct.AddressSpace = type { i64, %struct.Reg, i64, %struct.Reg, i64, %struct.Reg, i64, %struct.Reg, i64, %struct.Reg, i64, %struct.Reg }
%struct.Reg = type { %union.anon }
%struct.GPR = type { i64, %struct.Reg, i64, %struct.Reg, i64, %struct.Reg, i64, %struct.Reg, i64, %struct.Reg, i64, %struct.Reg, i64, %struct.Reg, i64, %struct.Reg, i64, %struct.Reg, i64, %struct.Reg, i64, %struct.Reg, i64, %struct.Reg, i64, %struct.Reg, i64, %struct.Reg, i64, %struct.Reg, i64, %struct.Reg, i64, %struct.Reg }
%struct.X87Stack = type { [8 x %struct.anon.3] }
%struct.anon.3 = type { i64, double }
%struct.MMX = type { [8 x %struct.anon.4] }
%struct.anon.4 = type { i64, %union.vec64_t }
%union.vec64_t = type { %struct.uint64v1_t }
%struct.uint64v1_t = type { [1 x i64] }
%struct.FPUStatusFlags = type { i8, i8, i8, i8, i8, i8, i8, i8, i8, i8, i8, i8, i8, i8, i8, i8, i8, i8, i8, i8, [4 x i8] }
%union.FPU = type { %struct.anon.13 }
%struct.anon.13 = type { %struct.FpuFXSAVE, [96 x i8] }
%struct.FpuFXSAVE = type { %union.SegmentSelector, %union.SegmentSelector, %union.FPUAbridgedTagWord, i8, i16, i32, %union.SegmentSelector, i16, i32, %union.SegmentSelector, i16, %union.FPUControlStatus, %union.FPUControlStatus, [8 x %struct.FPUStackElem], [16 x %union.vec128_t] }
%union.FPUAbridgedTagWord = type { i8 }
%union.FPUControlStatus = type { i32 }
%struct.FPUStackElem = type { %union.anon.11, [6 x i8] }
%union.anon.11 = type { %struct.float80_t }
%struct.float80_t = type { [10 x i8] }
%union.vec128_t = type { %struct.uint128v1_t }
%struct.uint128v1_t = type { [1 x i128] }
%struct.SegmentCaches = type { %struct.SegmentShadow, %struct.SegmentShadow, %struct.SegmentShadow, %struct.SegmentShadow, %struct.SegmentShadow, %struct.SegmentShadow }
%struct.SegmentShadow = type { %union.anon, i32, i32 }
%struct.Memory = type opaque
%struct.uint8v32_t = type { [32 x i8] }
%struct.anon.2 = type { i8, i8 }
%struct.int32v8_t = type { [8 x i32] }
%struct.float32v8_t = type { [8 x float] }
%struct.uint8v8_t = type { [8 x i8] }
%struct.uint8v16_t = type { [16 x i8] }
%struct.uint16v8_t = type { [8 x i16] }
%struct.uint8v4_t = type { [4 x i8] }
%struct.int16v4_t = type { [4 x i16] }
%struct.int32v4_t = type { [4 x i32] }
%struct.uint64v2_t = type { [2 x i64] }
%struct.uint64v4_t = type { [4 x i64] }
%struct.uint128v2_t = type { [2 x i128] }
%struct.uint16v16_t = type { [16 x i16] }
%struct.float64v4_t = type { [4 x double] }
%"class.(anonymous namespace)::BitMatrix" = type { %"class.std::bitset", [16 x [16 x i8]] }
%"class.std::bitset" = type { %struct.uint64v4_t }
%struct.bcd80_t = type { [9 x %union.FPUAbridgedTagWord], %union.FPUAbridgedTagWord }
%struct.FpuFSAVE = type { %union.SegmentSelector, i16, %union.SegmentSelector, i16, %union.SegmentSelector, i16, i32, %union.SegmentSelector, i16, i32, %union.SegmentSelector, i16, [8 x %struct.FPUStackElem] }
%struct.anon.5 = type { i32, i32 }
@switch.table = private unnamed_addr constant [4 x i32] [i32 2048, i32 3072, i32 0, i32 1024]
@DR0 = external global i64, align 8
@DR1 = external global i64, align 8
@DR2 = external global i64, align 8
@DR3 = external global i64, align 8
@DR4 = external global i64, align 8
@DR5 = external global i64, align 8
@DR6 = external global i64, align 8
@DR7 = external global i64, align 8
@gCR0 = external global %union.anon, align 1
@gCR1 = external global %union.anon, align 1
@gCR2 = external global %union.anon, align 1
@gCR3 = external global %union.anon, align 1
@gCR4 = external global %union.anon, align 1
@gCR8 = external global %union.anon, align 1
@seg_400388__init = internal constant %seg_400388__init_type <{ [23 x i8] c"H\83\EC\08H\8B\05e\0C \00H\85\C0t\02\FF\D0H\83\C4\08\C3" }>
@seg_4003a0__text = internal constant %seg_4003a0__text_type <{ [354 x i8] c"1\EDI\89\D1^H\89\E2H\83\E4\F0PTI\C7\C0\00\05@\00H\C7\C1\90\04@\00H\C7\C7\88\04@\00\FF\15&\0C \00\F4\0F\1FD\00\00\F3\C3f.\0F\1F\84\00\00\00\00\00\0F\1F@\00U\B8(\10`\00H=(\10`\00H\89\E5t\17\B8\00\00\00\00H\85\C0t\0D]\BF(\10`\00\FF\E0\0F\1FD\00\00]\C3f\0F\1FD\00\00\BE(\10`\00UH\81\EE(\10`\00H\89\E5H\C1\FE\03H\89\F0H\C1\E8?H\01\C6H\D1\FEt\15\B8\00\00\00\00H\85\C0t\0B]\BF(\10`\00\FF\E0\0F\1F\00]\C3f\0F\1FD\00\00\80=\D1\0B \00\00u\17UH\89\E5\E8~\FF\FF\FF\C6\05\BF\0B \00\01]\C3\0F\1FD\00\00\F3\C3\0F\1F@\00f.\0F\1F\84\00\00\00\00\00UH\89\E5]\EB\89\90U\C3f\0F\1FD\00\00AWAVI\89\D7AUATL\8D%\9E\09 \00UH\8D-\9E\09 \00SA\89\FDI\89\F6L)\E5H\83\EC\08H\C1\FD\03\E8\C7\FE\FF\FFH\85\EDt 1\DB\0F\1F\84\00\00\00\00\00L\89\FAL\89\F6D\89\EFA\FF\14\DCH\83\C3\01H9\DDu\EAH\83\C4\08[]A\5CA]A^A_\C3\90f.\0F\1F\84\00\00\00\00\00\F3\C3" }>
@seg_400504__fini = internal constant %seg_400504__fini_type <{ [9 x i8] c"H\83\EC\08H\83\C4\08\C3" }>
@seg_400510__rodata = internal constant %seg_400510__rodata_type <{ [4 x i8] c"\01\00\02\00" }>
@seg_400514__eh_frame_hdr = internal constant %seg_400514__eh_frame_hdr_type <{ [52 x i8] c"\01\1B\03;0\00\00\00\05\00\00\00\8C\FE\FF\FFL\00\00\00\BC\FE\FF\FFx\00\00\00t\FF\FF\FF\8C\00\00\00|\FF\FF\FF\A4\00\00\00\EC\FF\FF\FF\EC\00\00\00" }>
@seg_400548__eh_frame = internal constant %seg_400548__eh_frame_type <{ [208 x i8] c"\14\00\00\00\00\00\00\00\01zR\00\01x\10\01\1B\0C\07\08\90\01\07\10\10\00\00\00\1C\00\00\008\FE\FF\FF+\00\00\00\00\00\00\00\14\00\00\00\00\00\00\00\01zR\00\01x\10\01\1B\0C\07\08\90\01\00\00\10\00\00\00\1C\00\00\00<\FE\FF\FF\02\00\00\00\00\00\00\00\14\00\00\000\00\00\00\E0\FE\FF\FF\02\00\00\00\00\00\00\00\00\00\00\00D\00\00\00H\00\00\00\D0\FE\FF\FFe\00\00\00\00B\0E\10\8F\02B\0E\18\8E\03E\0E \8D\04B\0E(\8C\05H\0E0\86\06H\0E8\83\07M\0E@r\0E8A\0E0A\0E(B\0E B\0E\18B\0E\10B\0E\08\00\10\00\00\00\90\00\00\00\F8\FE\FF\FF\02\00\00\00\00\00\00\00\00\00\00\00" }>
@seg_601018__data = internal global %seg_601018__data_type zeroinitializer
@__bss_start = global %__bss_start_type zeroinitializer
@0 = internal global i1 false
%seg_400514__fini_type = type <{ [9 x i8] }>
%seg_400520__rodata_type = type <{ [4 x i8] }>
%seg_400524__eh_frame_hdr_type = type <{ [52 x i8] }>
%seg_400558__eh_frame_type = type <{ [208 x i8] }>
@seg_400514__fini = internal constant %seg_400514__fini_type <{ [9 x i8] c"H\83\EC\08H\83\C4\08\C3" }>
@seg_400520__rodata = internal constant %seg_400520__rodata_type <{ [4 x i8] c"\01\00\02\00" }>
@seg_400524__eh_frame_hdr = internal constant %seg_400524__eh_frame_hdr_type <{ [52 x i8] c"\01\1B\03;0\00\00\00\05\00\00\00|\FE\FF\FFL\00\00\00\AC\FE\FF\FFx\00\00\00d\FF\FF\FF\8C\00\00\00|\FF\FF\FF\A4\00\00\00\EC\FF\FF\FF\EC\00\00\00" }>
@seg_400558__eh_frame = internal constant %seg_400558__eh_frame_type <{ [208 x i8] c"\14\00\00\00\00\00\00\00\01zR\00\01x\10\01\1B\0C\07\08\90\01\07\10\10\00\00\00\1C\00\00\00(\FE\FF\FF+\00\00\00\00\00\00\00\14\00\00\00\00\00\00\00\01zR\00\01x\10\01\1B\0C\07\08\90\01\00\00\10\00\00\00\1C\00\00\00,\FE\FF\FF\02\00\00\00\00\00\00\00\14\00\00\000\00\00\00\D0\FE\FF\FF\09\00\00\00\00\00\00\00\00\00\00\00D\00\00\00H\00\00\00\D0\FE\FF\FFe\00\00\00\00B\0E\10\8F\02B\0E\18\8E\03E\0E \8D\04B\0E(\8C\05H\0E0\86\06H\0E8\83\07M\0E@r\0E8A\0E0A\0E(B\0E B\0E\18B\0E\10B\0E\08\00\10\00\00\00\90\00\00\00\F8\FE\FF\FF\02\00\00\00\00\00\00\00\00\00\00\00" }>

; Function Declaraions
declare i32 @llvm.ctpop.i32(i32) #2
declare %struct.Memory* @__remill_error(%struct.State* dereferenceable(3376), i64, %struct.Memory*)


; Data Access Globals


define %struct.Memory* @kernel_fdtd_2d_StrictFP(%struct.State* noalias , i64, %struct.Memory* noalias) alwaysinline  {
entry:
  %3 = getelementptr inbounds %struct.State, %struct.State* %0, i64 0, i32 6, i32 33, i32 0, i32 0
  store i64 %1, i64* %3, align 8
  %BRANCH_TAKEN = alloca i8, align 1
  store i8 0, i8* %BRANCH_TAKEN, align 1
  %MEMORY = alloca %struct.Memory*, align 8
  store %struct.Memory* %2, %struct.Memory** %MEMORY, align 8

  ; Code: .kernel_fdtd_2d_StrictFP:	 RIP: 400f80	 Bytes: 0
  ; Code: pushq %rbp	 RIP: 400f80	 Bytes: 1
  %loadMem_400f80 = load %struct.Memory*, %struct.Memory** %MEMORY
  %call_400f80 = call %struct.Memory* @routine_pushq__rbp(%struct.State* %0, i64  0, %struct.Memory* %loadMem_400f80)
  store %struct.Memory* %call_400f80, %struct.Memory** %MEMORY

  ; Code: movq %rsp, %rbp	 RIP: 400f81	 Bytes: 3
  %loadMem_400f81 = load %struct.Memory*, %struct.Memory** %MEMORY
  %call_400f81 = call %struct.Memory* @routine_movq__rsp___rbp(%struct.State* %0, i64  0, %struct.Memory* %loadMem_400f81)
  store %struct.Memory* %call_400f81, %struct.Memory** %MEMORY

  ; Code: movq 0x10(%rbp), %rax	 RIP: 400f84	 Bytes: 4
  %loadMem_400f84 = load %struct.Memory*, %struct.Memory** %MEMORY
  %call_400f84 = call %struct.Memory* @routine_movq_0x10__rbp____rax(%struct.State* %0, i64  0, %struct.Memory* %loadMem_400f84)
  store %struct.Memory* %call_400f84, %struct.Memory** %MEMORY

  ; Code: movl %edi, -0x4(%rbp)	 RIP: 400f88	 Bytes: 3
  %loadMem_400f88 = load %struct.Memory*, %struct.Memory** %MEMORY
  %call_400f88 = call %struct.Memory* @routine_movl__edi__MINUS0x4__rbp_(%struct.State* %0, i64  0, %struct.Memory* %loadMem_400f88)
  store %struct.Memory* %call_400f88, %struct.Memory** %MEMORY

  ; Code: movl %esi, -0x8(%rbp)	 RIP: 400f8b	 Bytes: 3
  %loadMem_400f8b = load %struct.Memory*, %struct.Memory** %MEMORY
  %call_400f8b = call %struct.Memory* @routine_movl__esi__MINUS0x8__rbp_(%struct.State* %0, i64  0, %struct.Memory* %loadMem_400f8b)
  store %struct.Memory* %call_400f8b, %struct.Memory** %MEMORY

  ; Code: movl %edx, -0xc(%rbp)	 RIP: 400f8e	 Bytes: 3
  %loadMem_400f8e = load %struct.Memory*, %struct.Memory** %MEMORY
  %call_400f8e = call %struct.Memory* @routine_movl__edx__MINUS0xc__rbp_(%struct.State* %0, i64  0, %struct.Memory* %loadMem_400f8e)
  store %struct.Memory* %call_400f8e, %struct.Memory** %MEMORY

  ; Code: movq %rcx, -0x18(%rbp)	 RIP: 400f91	 Bytes: 4
  %loadMem_400f91 = load %struct.Memory*, %struct.Memory** %MEMORY
  %call_400f91 = call %struct.Memory* @routine_movq__rcx__MINUS0x18__rbp_(%struct.State* %0, i64  0, %struct.Memory* %loadMem_400f91)
  store %struct.Memory* %call_400f91, %struct.Memory** %MEMORY

  ; Code: movq %r8, -0x20(%rbp)	 RIP: 400f95	 Bytes: 4
  %loadMem_400f95 = load %struct.Memory*, %struct.Memory** %MEMORY
  %call_400f95 = call %struct.Memory* @routine_movq__r8__MINUS0x20__rbp_(%struct.State* %0, i64  0, %struct.Memory* %loadMem_400f95)
  store %struct.Memory* %call_400f95, %struct.Memory** %MEMORY

  ; Code: movq %r9, -0x28(%rbp)	 RIP: 400f99	 Bytes: 4
  %loadMem_400f99 = load %struct.Memory*, %struct.Memory** %MEMORY
  %call_400f99 = call %struct.Memory* @routine_movq__r9__MINUS0x28__rbp_(%struct.State* %0, i64  0, %struct.Memory* %loadMem_400f99)
  store %struct.Memory* %call_400f99, %struct.Memory** %MEMORY

  ; Code: movq %rax, -0x30(%rbp)	 RIP: 400f9d	 Bytes: 4
  %loadMem_400f9d = load %struct.Memory*, %struct.Memory** %MEMORY
  %call_400f9d = call %struct.Memory* @routine_movq__rax__MINUS0x30__rbp_(%struct.State* %0, i64  0, %struct.Memory* %loadMem_400f9d)
  store %struct.Memory* %call_400f9d, %struct.Memory** %MEMORY

  ; Code: movl $0x0, -0x34(%rbp)	 RIP: 400fa1	 Bytes: 7
  %loadMem_400fa1 = load %struct.Memory*, %struct.Memory** %MEMORY
  %call_400fa1 = call %struct.Memory* @routine_movl__0x0__MINUS0x34__rbp_(%struct.State* %0, i64  0, %struct.Memory* %loadMem_400fa1)
  store %struct.Memory* %call_400fa1, %struct.Memory** %MEMORY

  ; Code: .L_400fa8:	 RIP: 400fa8	 Bytes: 0
  br label %block_.L_400fa8
block_.L_400fa8:

  ; Code: movl -0x34(%rbp), %eax	 RIP: 400fa8	 Bytes: 3
  %loadMem_400fa8 = load %struct.Memory*, %struct.Memory** %MEMORY
  %call_400fa8 = call %struct.Memory* @routine_movl_MINUS0x34__rbp____eax(%struct.State* %0, i64  0, %struct.Memory* %loadMem_400fa8)
  store %struct.Memory* %call_400fa8, %struct.Memory** %MEMORY

  ; Code: cmpl -0x4(%rbp), %eax	 RIP: 400fab	 Bytes: 3
  %loadMem_400fab = load %struct.Memory*, %struct.Memory** %MEMORY
  %call_400fab = call %struct.Memory* @routine_cmpl_MINUS0x4__rbp____eax(%struct.State* %0, i64  0, %struct.Memory* %loadMem_400fab)
  store %struct.Memory* %call_400fab, %struct.Memory** %MEMORY

  ; Code: jge .L_40129f	 RIP: 400fae	 Bytes: 6
  %loadMem_400fae = load %struct.Memory*, %struct.Memory** %MEMORY
  %call_400fae = call %struct.Memory* @routine_jge_.L_40129f(%struct.State* %0, i64  0, %struct.Memory* %loadMem_400fae, i8* %BRANCH_TAKEN, i64 753, i64 6, i64 6)
  store %struct.Memory* %call_400fae, %struct.Memory** %MEMORY

  %loadBr_400fae = load i8, i8* %BRANCH_TAKEN
  %cmpBr_400fae = icmp eq i8 %loadBr_400fae, 1
  br i1 %cmpBr_400fae, label %block_.L_40129f, label %block_400fb4

block_400fb4:
  ; Code: movl $0x0, -0x3c(%rbp)	 RIP: 400fb4	 Bytes: 7
  %loadMem_400fb4 = load %struct.Memory*, %struct.Memory** %MEMORY
  %call_400fb4 = call %struct.Memory* @routine_movl__0x0__MINUS0x3c__rbp_(%struct.State* %0, i64  0, %struct.Memory* %loadMem_400fb4)
  store %struct.Memory* %call_400fb4, %struct.Memory** %MEMORY

  ; Code: .L_400fbb:	 RIP: 400fbb	 Bytes: 0
  br label %block_.L_400fbb
block_.L_400fbb:

  ; Code: movl -0x3c(%rbp), %eax	 RIP: 400fbb	 Bytes: 3
  %loadMem_400fbb = load %struct.Memory*, %struct.Memory** %MEMORY
  %call_400fbb = call %struct.Memory* @routine_movl_MINUS0x3c__rbp____eax(%struct.State* %0, i64  0, %struct.Memory* %loadMem_400fbb)
  store %struct.Memory* %call_400fbb, %struct.Memory** %MEMORY

  ; Code: cmpl -0xc(%rbp), %eax	 RIP: 400fbe	 Bytes: 3
  %loadMem_400fbe = load %struct.Memory*, %struct.Memory** %MEMORY
  %call_400fbe = call %struct.Memory* @routine_cmpl_MINUS0xc__rbp____eax(%struct.State* %0, i64  0, %struct.Memory* %loadMem_400fbe)
  store %struct.Memory* %call_400fbe, %struct.Memory** %MEMORY

  ; Code: jge .L_400fef	 RIP: 400fc1	 Bytes: 6
  %loadMem_400fc1 = load %struct.Memory*, %struct.Memory** %MEMORY
  %call_400fc1 = call %struct.Memory* @routine_jge_.L_400fef(%struct.State* %0, i64  0, %struct.Memory* %loadMem_400fc1, i8* %BRANCH_TAKEN, i64 46, i64 6, i64 6)
  store %struct.Memory* %call_400fc1, %struct.Memory** %MEMORY

  %loadBr_400fc1 = load i8, i8* %BRANCH_TAKEN
  %cmpBr_400fc1 = icmp eq i8 %loadBr_400fc1, 1
  br i1 %cmpBr_400fc1, label %block_.L_400fef, label %block_400fc7

block_400fc7:
  ; Code: movq -0x30(%rbp), %rax	 RIP: 400fc7	 Bytes: 4
  %loadMem_400fc7 = load %struct.Memory*, %struct.Memory** %MEMORY
  %call_400fc7 = call %struct.Memory* @routine_movq_MINUS0x30__rbp____rax(%struct.State* %0, i64  0, %struct.Memory* %loadMem_400fc7)
  store %struct.Memory* %call_400fc7, %struct.Memory** %MEMORY

  ; Code: movslq -0x34(%rbp), %rcx	 RIP: 400fcb	 Bytes: 4
  %loadMem_400fcb = load %struct.Memory*, %struct.Memory** %MEMORY
  %call_400fcb = call %struct.Memory* @routine_movslq_MINUS0x34__rbp____rcx(%struct.State* %0, i64  0, %struct.Memory* %loadMem_400fcb)
  store %struct.Memory* %call_400fcb, %struct.Memory** %MEMORY

  ; Code: movsd (%rax,%rcx,8), %xmm0	 RIP: 400fcf	 Bytes: 5
  %loadMem_400fcf = load %struct.Memory*, %struct.Memory** %MEMORY
  %call_400fcf = call %struct.Memory* @routine_movsd___rax__rcx_8____xmm0(%struct.State* %0, i64  0, %struct.Memory* %loadMem_400fcf)
  store %struct.Memory* %call_400fcf, %struct.Memory** %MEMORY

  ; Code: movq -0x20(%rbp), %rax	 RIP: 400fd4	 Bytes: 4
  %loadMem_400fd4 = load %struct.Memory*, %struct.Memory** %MEMORY
  %call_400fd4 = call %struct.Memory* @routine_movq_MINUS0x20__rbp____rax(%struct.State* %0, i64  0, %struct.Memory* %loadMem_400fd4)
  store %struct.Memory* %call_400fd4, %struct.Memory** %MEMORY

  ; Code: movslq -0x3c(%rbp), %rcx	 RIP: 400fd8	 Bytes: 4
  %loadMem_400fd8 = load %struct.Memory*, %struct.Memory** %MEMORY
  %call_400fd8 = call %struct.Memory* @routine_movslq_MINUS0x3c__rbp____rcx(%struct.State* %0, i64  0, %struct.Memory* %loadMem_400fd8)
  store %struct.Memory* %call_400fd8, %struct.Memory** %MEMORY

  ; Code: movsd %xmm0, (%rax,%rcx,8)	 RIP: 400fdc	 Bytes: 5
  %loadMem_400fdc = load %struct.Memory*, %struct.Memory** %MEMORY
  %call_400fdc = call %struct.Memory* @routine_movsd__xmm0____rax__rcx_8_(%struct.State* %0, i64  0, %struct.Memory* %loadMem_400fdc)
  store %struct.Memory* %call_400fdc, %struct.Memory** %MEMORY

  ; Code: movl -0x3c(%rbp), %eax	 RIP: 400fe1	 Bytes: 3
  %loadMem_400fe1 = load %struct.Memory*, %struct.Memory** %MEMORY
  %call_400fe1 = call %struct.Memory* @routine_movl_MINUS0x3c__rbp____eax(%struct.State* %0, i64  0, %struct.Memory* %loadMem_400fe1)
  store %struct.Memory* %call_400fe1, %struct.Memory** %MEMORY

  ; Code: addl $0x1, %eax	 RIP: 400fe4	 Bytes: 3
  %loadMem_400fe4 = load %struct.Memory*, %struct.Memory** %MEMORY
  %call_400fe4 = call %struct.Memory* @routine_addl__0x1___eax(%struct.State* %0, i64  0, %struct.Memory* %loadMem_400fe4)
  store %struct.Memory* %call_400fe4, %struct.Memory** %MEMORY

  ; Code: movl %eax, -0x3c(%rbp)	 RIP: 400fe7	 Bytes: 3
  %loadMem_400fe7 = load %struct.Memory*, %struct.Memory** %MEMORY
  %call_400fe7 = call %struct.Memory* @routine_movl__eax__MINUS0x3c__rbp_(%struct.State* %0, i64  0, %struct.Memory* %loadMem_400fe7)
  store %struct.Memory* %call_400fe7, %struct.Memory** %MEMORY

  ; Code: jmpq .L_400fbb	 RIP: 400fea	 Bytes: 5
  %loadMem_400fea = load %struct.Memory*, %struct.Memory** %MEMORY
  %call_400fea = call %struct.Memory* @routine_jmpq_.L_400fbb(%struct.State* %0, i64  0, %struct.Memory* %loadMem_400fea, i64 -47, i64 5)
  store %struct.Memory* %call_400fea, %struct.Memory** %MEMORY

  br label %block_.L_400fbb

  ; Code: .L_400fef:	 RIP: 400fef	 Bytes: 0
block_.L_400fef:

  ; Code: movl $0x1, -0x38(%rbp)	 RIP: 400fef	 Bytes: 7
  %loadMem_400fef = load %struct.Memory*, %struct.Memory** %MEMORY
  %call_400fef = call %struct.Memory* @routine_movl__0x1__MINUS0x38__rbp_(%struct.State* %0, i64  0, %struct.Memory* %loadMem_400fef)
  store %struct.Memory* %call_400fef, %struct.Memory** %MEMORY

  ; Code: .L_400ff6:	 RIP: 400ff6	 Bytes: 0
  br label %block_.L_400ff6
block_.L_400ff6:

  ; Code: movl -0x38(%rbp), %eax	 RIP: 400ff6	 Bytes: 3
  %loadMem_400ff6 = load %struct.Memory*, %struct.Memory** %MEMORY
  %call_400ff6 = call %struct.Memory* @routine_movl_MINUS0x38__rbp____eax(%struct.State* %0, i64  0, %struct.Memory* %loadMem_400ff6)
  store %struct.Memory* %call_400ff6, %struct.Memory** %MEMORY

  ; Code: cmpl -0x8(%rbp), %eax	 RIP: 400ff9	 Bytes: 3
  %loadMem_400ff9 = load %struct.Memory*, %struct.Memory** %MEMORY
  %call_400ff9 = call %struct.Memory* @routine_cmpl_MINUS0x8__rbp____eax(%struct.State* %0, i64  0, %struct.Memory* %loadMem_400ff9)
  store %struct.Memory* %call_400ff9, %struct.Memory** %MEMORY

  ; Code: jge .L_4010b7	 RIP: 400ffc	 Bytes: 6
  %loadMem_400ffc = load %struct.Memory*, %struct.Memory** %MEMORY
  %call_400ffc = call %struct.Memory* @routine_jge_.L_4010b7(%struct.State* %0, i64  0, %struct.Memory* %loadMem_400ffc, i8* %BRANCH_TAKEN, i64 187, i64 6, i64 6)
  store %struct.Memory* %call_400ffc, %struct.Memory** %MEMORY

  %loadBr_400ffc = load i8, i8* %BRANCH_TAKEN
  %cmpBr_400ffc = icmp eq i8 %loadBr_400ffc, 1
  br i1 %cmpBr_400ffc, label %block_.L_4010b7, label %block_401002

block_401002:
  ; Code: movl $0x0, -0x3c(%rbp)	 RIP: 401002	 Bytes: 7
  %loadMem_401002 = load %struct.Memory*, %struct.Memory** %MEMORY
  %call_401002 = call %struct.Memory* @routine_movl__0x0__MINUS0x3c__rbp_(%struct.State* %0, i64  0, %struct.Memory* %loadMem_401002)
  store %struct.Memory* %call_401002, %struct.Memory** %MEMORY

  ; Code: .L_401009:	 RIP: 401009	 Bytes: 0
  br label %block_.L_401009
block_.L_401009:

  ; Code: movl -0x3c(%rbp), %eax	 RIP: 401009	 Bytes: 3
  %loadMem_401009 = load %struct.Memory*, %struct.Memory** %MEMORY
  %call_401009 = call %struct.Memory* @routine_movl_MINUS0x3c__rbp____eax(%struct.State* %0, i64  0, %struct.Memory* %loadMem_401009)
  store %struct.Memory* %call_401009, %struct.Memory** %MEMORY

  ; Code: cmpl -0xc(%rbp), %eax	 RIP: 40100c	 Bytes: 3
  %loadMem_40100c = load %struct.Memory*, %struct.Memory** %MEMORY
  %call_40100c = call %struct.Memory* @routine_cmpl_MINUS0xc__rbp____eax(%struct.State* %0, i64  0, %struct.Memory* %loadMem_40100c)
  store %struct.Memory* %call_40100c, %struct.Memory** %MEMORY

  ; Code: jge .L_4010a4	 RIP: 40100f	 Bytes: 6
  %loadMem_40100f = load %struct.Memory*, %struct.Memory** %MEMORY
  %call_40100f = call %struct.Memory* @routine_jge_.L_4010a4(%struct.State* %0, i64  0, %struct.Memory* %loadMem_40100f, i8* %BRANCH_TAKEN, i64 149, i64 6, i64 6)
  store %struct.Memory* %call_40100f, %struct.Memory** %MEMORY

  %loadBr_40100f = load i8, i8* %BRANCH_TAKEN
  %cmpBr_40100f = icmp eq i8 %loadBr_40100f, 1
  br i1 %cmpBr_40100f, label %block_.L_4010a4, label %block_401015

block_401015:
  ; Code: movsd 0x673(%rip), %xmm0	 RIP: 401015	 Bytes: 8
  %loadMem_401015 = load %struct.Memory*, %struct.Memory** %MEMORY
  %call_401015 = call %struct.Memory* @routine_movsd_0x673__rip____xmm0(%struct.State* %0, i64  0, %struct.Memory* %loadMem_401015)
  store %struct.Memory* %call_401015, %struct.Memory** %MEMORY

  ; Code: movq -0x20(%rbp), %rax	 RIP: 40101d	 Bytes: 4
  %loadMem_40101d = load %struct.Memory*, %struct.Memory** %MEMORY
  %call_40101d = call %struct.Memory* @routine_movq_MINUS0x20__rbp____rax(%struct.State* %0, i64  0, %struct.Memory* %loadMem_40101d)
  store %struct.Memory* %call_40101d, %struct.Memory** %MEMORY

  ; Code: movslq -0x38(%rbp), %rcx	 RIP: 401021	 Bytes: 4
  %loadMem_401021 = load %struct.Memory*, %struct.Memory** %MEMORY
  %call_401021 = call %struct.Memory* @routine_movslq_MINUS0x38__rbp____rcx(%struct.State* %0, i64  0, %struct.Memory* %loadMem_401021)
  store %struct.Memory* %call_401021, %struct.Memory** %MEMORY

  ; Code: imulq $0x1f40, %rcx, %rcx	 RIP: 401025	 Bytes: 7
  %loadMem_401025 = load %struct.Memory*, %struct.Memory** %MEMORY
  %call_401025 = call %struct.Memory* @routine_imulq__0x1f40___rcx___rcx(%struct.State* %0, i64  0, %struct.Memory* %loadMem_401025)
  store %struct.Memory* %call_401025, %struct.Memory** %MEMORY

  ; Code: addq %rcx, %rax	 RIP: 40102c	 Bytes: 3
  %loadMem_40102c = load %struct.Memory*, %struct.Memory** %MEMORY
  %call_40102c = call %struct.Memory* @routine_addq__rcx___rax(%struct.State* %0, i64  0, %struct.Memory* %loadMem_40102c)
  store %struct.Memory* %call_40102c, %struct.Memory** %MEMORY

  ; Code: movslq -0x3c(%rbp), %rcx	 RIP: 40102f	 Bytes: 4
  %loadMem_40102f = load %struct.Memory*, %struct.Memory** %MEMORY
  %call_40102f = call %struct.Memory* @routine_movslq_MINUS0x3c__rbp____rcx(%struct.State* %0, i64  0, %struct.Memory* %loadMem_40102f)
  store %struct.Memory* %call_40102f, %struct.Memory** %MEMORY

  ; Code: movsd (%rax,%rcx,8), %xmm1	 RIP: 401033	 Bytes: 5
  %loadMem_401033 = load %struct.Memory*, %struct.Memory** %MEMORY
  %call_401033 = call %struct.Memory* @routine_movsd___rax__rcx_8____xmm1(%struct.State* %0, i64  0, %struct.Memory* %loadMem_401033)
  store %struct.Memory* %call_401033, %struct.Memory** %MEMORY

  ; Code: movq -0x28(%rbp), %rax	 RIP: 401038	 Bytes: 4
  %loadMem_401038 = load %struct.Memory*, %struct.Memory** %MEMORY
  %call_401038 = call %struct.Memory* @routine_movq_MINUS0x28__rbp____rax(%struct.State* %0, i64  0, %struct.Memory* %loadMem_401038)
  store %struct.Memory* %call_401038, %struct.Memory** %MEMORY

  ; Code: movslq -0x38(%rbp), %rcx	 RIP: 40103c	 Bytes: 4
  %loadMem_40103c = load %struct.Memory*, %struct.Memory** %MEMORY
  %call_40103c = call %struct.Memory* @routine_movslq_MINUS0x38__rbp____rcx(%struct.State* %0, i64  0, %struct.Memory* %loadMem_40103c)
  store %struct.Memory* %call_40103c, %struct.Memory** %MEMORY

  ; Code: imulq $0x1f40, %rcx, %rcx	 RIP: 401040	 Bytes: 7
  %loadMem_401040 = load %struct.Memory*, %struct.Memory** %MEMORY
  %call_401040 = call %struct.Memory* @routine_imulq__0x1f40___rcx___rcx(%struct.State* %0, i64  0, %struct.Memory* %loadMem_401040)
  store %struct.Memory* %call_401040, %struct.Memory** %MEMORY

  ; Code: addq %rcx, %rax	 RIP: 401047	 Bytes: 3
  %loadMem_401047 = load %struct.Memory*, %struct.Memory** %MEMORY
  %call_401047 = call %struct.Memory* @routine_addq__rcx___rax(%struct.State* %0, i64  0, %struct.Memory* %loadMem_401047)
  store %struct.Memory* %call_401047, %struct.Memory** %MEMORY

  ; Code: movslq -0x3c(%rbp), %rcx	 RIP: 40104a	 Bytes: 4
  %loadMem_40104a = load %struct.Memory*, %struct.Memory** %MEMORY
  %call_40104a = call %struct.Memory* @routine_movslq_MINUS0x3c__rbp____rcx(%struct.State* %0, i64  0, %struct.Memory* %loadMem_40104a)
  store %struct.Memory* %call_40104a, %struct.Memory** %MEMORY

  ; Code: movsd (%rax,%rcx,8), %xmm2	 RIP: 40104e	 Bytes: 5
  %loadMem_40104e = load %struct.Memory*, %struct.Memory** %MEMORY
  %call_40104e = call %struct.Memory* @routine_movsd___rax__rcx_8____xmm2(%struct.State* %0, i64  0, %struct.Memory* %loadMem_40104e)
  store %struct.Memory* %call_40104e, %struct.Memory** %MEMORY

  ; Code: movq -0x28(%rbp), %rax	 RIP: 401053	 Bytes: 4
  %loadMem_401053 = load %struct.Memory*, %struct.Memory** %MEMORY
  %call_401053 = call %struct.Memory* @routine_movq_MINUS0x28__rbp____rax(%struct.State* %0, i64  0, %struct.Memory* %loadMem_401053)
  store %struct.Memory* %call_401053, %struct.Memory** %MEMORY

  ; Code: movl -0x38(%rbp), %edx	 RIP: 401057	 Bytes: 3
  %loadMem_401057 = load %struct.Memory*, %struct.Memory** %MEMORY
  %call_401057 = call %struct.Memory* @routine_movl_MINUS0x38__rbp____edx(%struct.State* %0, i64  0, %struct.Memory* %loadMem_401057)
  store %struct.Memory* %call_401057, %struct.Memory** %MEMORY

  ; Code: subl $0x1, %edx	 RIP: 40105a	 Bytes: 3
  %loadMem_40105a = load %struct.Memory*, %struct.Memory** %MEMORY
  %call_40105a = call %struct.Memory* @routine_subl__0x1___edx(%struct.State* %0, i64  0, %struct.Memory* %loadMem_40105a)
  store %struct.Memory* %call_40105a, %struct.Memory** %MEMORY

  ; Code: movslq %edx, %rcx	 RIP: 40105d	 Bytes: 3
  %loadMem_40105d = load %struct.Memory*, %struct.Memory** %MEMORY
  %call_40105d = call %struct.Memory* @routine_movslq__edx___rcx(%struct.State* %0, i64  0, %struct.Memory* %loadMem_40105d)
  store %struct.Memory* %call_40105d, %struct.Memory** %MEMORY

  ; Code: imulq $0x1f40, %rcx, %rcx	 RIP: 401060	 Bytes: 7
  %loadMem_401060 = load %struct.Memory*, %struct.Memory** %MEMORY
  %call_401060 = call %struct.Memory* @routine_imulq__0x1f40___rcx___rcx(%struct.State* %0, i64  0, %struct.Memory* %loadMem_401060)
  store %struct.Memory* %call_401060, %struct.Memory** %MEMORY

  ; Code: addq %rcx, %rax	 RIP: 401067	 Bytes: 3
  %loadMem_401067 = load %struct.Memory*, %struct.Memory** %MEMORY
  %call_401067 = call %struct.Memory* @routine_addq__rcx___rax(%struct.State* %0, i64  0, %struct.Memory* %loadMem_401067)
  store %struct.Memory* %call_401067, %struct.Memory** %MEMORY

  ; Code: movslq -0x3c(%rbp), %rcx	 RIP: 40106a	 Bytes: 4
  %loadMem_40106a = load %struct.Memory*, %struct.Memory** %MEMORY
  %call_40106a = call %struct.Memory* @routine_movslq_MINUS0x3c__rbp____rcx(%struct.State* %0, i64  0, %struct.Memory* %loadMem_40106a)
  store %struct.Memory* %call_40106a, %struct.Memory** %MEMORY

  ; Code: subsd (%rax,%rcx,8), %xmm2	 RIP: 40106e	 Bytes: 5
  %loadMem_40106e = load %struct.Memory*, %struct.Memory** %MEMORY
  %call_40106e = call %struct.Memory* @routine_subsd___rax__rcx_8____xmm2(%struct.State* %0, i64  0, %struct.Memory* %loadMem_40106e)
  store %struct.Memory* %call_40106e, %struct.Memory** %MEMORY

  ; Code: mulsd %xmm2, %xmm0	 RIP: 401073	 Bytes: 4
  %loadMem_401073 = load %struct.Memory*, %struct.Memory** %MEMORY
  %call_401073 = call %struct.Memory* @routine_mulsd__xmm2___xmm0(%struct.State* %0, i64  0, %struct.Memory* %loadMem_401073)
  store %struct.Memory* %call_401073, %struct.Memory** %MEMORY

  ; Code: subsd %xmm0, %xmm1	 RIP: 401077	 Bytes: 4
  %loadMem_401077 = load %struct.Memory*, %struct.Memory** %MEMORY
  %call_401077 = call %struct.Memory* @routine_subsd__xmm0___xmm1(%struct.State* %0, i64  0, %struct.Memory* %loadMem_401077)
  store %struct.Memory* %call_401077, %struct.Memory** %MEMORY

  ; Code: movq -0x20(%rbp), %rax	 RIP: 40107b	 Bytes: 4
  %loadMem_40107b = load %struct.Memory*, %struct.Memory** %MEMORY
  %call_40107b = call %struct.Memory* @routine_movq_MINUS0x20__rbp____rax(%struct.State* %0, i64  0, %struct.Memory* %loadMem_40107b)
  store %struct.Memory* %call_40107b, %struct.Memory** %MEMORY

  ; Code: movslq -0x38(%rbp), %rcx	 RIP: 40107f	 Bytes: 4
  %loadMem_40107f = load %struct.Memory*, %struct.Memory** %MEMORY
  %call_40107f = call %struct.Memory* @routine_movslq_MINUS0x38__rbp____rcx(%struct.State* %0, i64  0, %struct.Memory* %loadMem_40107f)
  store %struct.Memory* %call_40107f, %struct.Memory** %MEMORY

  ; Code: imulq $0x1f40, %rcx, %rcx	 RIP: 401083	 Bytes: 7
  %loadMem_401083 = load %struct.Memory*, %struct.Memory** %MEMORY
  %call_401083 = call %struct.Memory* @routine_imulq__0x1f40___rcx___rcx(%struct.State* %0, i64  0, %struct.Memory* %loadMem_401083)
  store %struct.Memory* %call_401083, %struct.Memory** %MEMORY

  ; Code: addq %rcx, %rax	 RIP: 40108a	 Bytes: 3
  %loadMem_40108a = load %struct.Memory*, %struct.Memory** %MEMORY
  %call_40108a = call %struct.Memory* @routine_addq__rcx___rax(%struct.State* %0, i64  0, %struct.Memory* %loadMem_40108a)
  store %struct.Memory* %call_40108a, %struct.Memory** %MEMORY

  ; Code: movslq -0x3c(%rbp), %rcx	 RIP: 40108d	 Bytes: 4
  %loadMem_40108d = load %struct.Memory*, %struct.Memory** %MEMORY
  %call_40108d = call %struct.Memory* @routine_movslq_MINUS0x3c__rbp____rcx(%struct.State* %0, i64  0, %struct.Memory* %loadMem_40108d)
  store %struct.Memory* %call_40108d, %struct.Memory** %MEMORY

  ; Code: movsd %xmm1, (%rax,%rcx,8)	 RIP: 401091	 Bytes: 5
  %loadMem_401091 = load %struct.Memory*, %struct.Memory** %MEMORY
  %call_401091 = call %struct.Memory* @routine_movsd__xmm1____rax__rcx_8_(%struct.State* %0, i64  0, %struct.Memory* %loadMem_401091)
  store %struct.Memory* %call_401091, %struct.Memory** %MEMORY

  ; Code: movl -0x3c(%rbp), %eax	 RIP: 401096	 Bytes: 3
  %loadMem_401096 = load %struct.Memory*, %struct.Memory** %MEMORY
  %call_401096 = call %struct.Memory* @routine_movl_MINUS0x3c__rbp____eax(%struct.State* %0, i64  0, %struct.Memory* %loadMem_401096)
  store %struct.Memory* %call_401096, %struct.Memory** %MEMORY

  ; Code: addl $0x1, %eax	 RIP: 401099	 Bytes: 3
  %loadMem_401099 = load %struct.Memory*, %struct.Memory** %MEMORY
  %call_401099 = call %struct.Memory* @routine_addl__0x1___eax(%struct.State* %0, i64  0, %struct.Memory* %loadMem_401099)
  store %struct.Memory* %call_401099, %struct.Memory** %MEMORY

  ; Code: movl %eax, -0x3c(%rbp)	 RIP: 40109c	 Bytes: 3
  %loadMem_40109c = load %struct.Memory*, %struct.Memory** %MEMORY
  %call_40109c = call %struct.Memory* @routine_movl__eax__MINUS0x3c__rbp_(%struct.State* %0, i64  0, %struct.Memory* %loadMem_40109c)
  store %struct.Memory* %call_40109c, %struct.Memory** %MEMORY

  ; Code: jmpq .L_401009	 RIP: 40109f	 Bytes: 5
  %loadMem_40109f = load %struct.Memory*, %struct.Memory** %MEMORY
  %call_40109f = call %struct.Memory* @routine_jmpq_.L_401009(%struct.State* %0, i64  0, %struct.Memory* %loadMem_40109f, i64 -150, i64 5)
  store %struct.Memory* %call_40109f, %struct.Memory** %MEMORY

  br label %block_.L_401009

  ; Code: .L_4010a4:	 RIP: 4010a4	 Bytes: 0
block_.L_4010a4:

  ; Code: jmpq .L_4010a9	 RIP: 4010a4	 Bytes: 5
  %loadMem_4010a4 = load %struct.Memory*, %struct.Memory** %MEMORY
  %call_4010a4 = call %struct.Memory* @routine_jmpq_.L_4010a9(%struct.State* %0, i64  0, %struct.Memory* %loadMem_4010a4, i64 5, i64 5)
  store %struct.Memory* %call_4010a4, %struct.Memory** %MEMORY

  br label %block_.L_4010a9

  ; Code: .L_4010a9:	 RIP: 4010a9	 Bytes: 0
block_.L_4010a9:

  ; Code: movl -0x38(%rbp), %eax	 RIP: 4010a9	 Bytes: 3
  %loadMem_4010a9 = load %struct.Memory*, %struct.Memory** %MEMORY
  %call_4010a9 = call %struct.Memory* @routine_movl_MINUS0x38__rbp____eax(%struct.State* %0, i64  0, %struct.Memory* %loadMem_4010a9)
  store %struct.Memory* %call_4010a9, %struct.Memory** %MEMORY

  ; Code: addl $0x1, %eax	 RIP: 4010ac	 Bytes: 3
  %loadMem_4010ac = load %struct.Memory*, %struct.Memory** %MEMORY
  %call_4010ac = call %struct.Memory* @routine_addl__0x1___eax(%struct.State* %0, i64  0, %struct.Memory* %loadMem_4010ac)
  store %struct.Memory* %call_4010ac, %struct.Memory** %MEMORY

  ; Code: movl %eax, -0x38(%rbp)	 RIP: 4010af	 Bytes: 3
  %loadMem_4010af = load %struct.Memory*, %struct.Memory** %MEMORY
  %call_4010af = call %struct.Memory* @routine_movl__eax__MINUS0x38__rbp_(%struct.State* %0, i64  0, %struct.Memory* %loadMem_4010af)
  store %struct.Memory* %call_4010af, %struct.Memory** %MEMORY

  ; Code: jmpq .L_400ff6	 RIP: 4010b2	 Bytes: 5
  %loadMem_4010b2 = load %struct.Memory*, %struct.Memory** %MEMORY
  %call_4010b2 = call %struct.Memory* @routine_jmpq_.L_400ff6(%struct.State* %0, i64  0, %struct.Memory* %loadMem_4010b2, i64 -188, i64 5)
  store %struct.Memory* %call_4010b2, %struct.Memory** %MEMORY

  br label %block_.L_400ff6

  ; Code: .L_4010b7:	 RIP: 4010b7	 Bytes: 0
block_.L_4010b7:

  ; Code: movl $0x0, -0x38(%rbp)	 RIP: 4010b7	 Bytes: 7
  %loadMem_4010b7 = load %struct.Memory*, %struct.Memory** %MEMORY
  %call_4010b7 = call %struct.Memory* @routine_movl__0x0__MINUS0x38__rbp_(%struct.State* %0, i64  0, %struct.Memory* %loadMem_4010b7)
  store %struct.Memory* %call_4010b7, %struct.Memory** %MEMORY

  ; Code: .L_4010be:	 RIP: 4010be	 Bytes: 0
  br label %block_.L_4010be
block_.L_4010be:

  ; Code: movl -0x38(%rbp), %eax	 RIP: 4010be	 Bytes: 3
  %loadMem_4010be = load %struct.Memory*, %struct.Memory** %MEMORY
  %call_4010be = call %struct.Memory* @routine_movl_MINUS0x38__rbp____eax(%struct.State* %0, i64  0, %struct.Memory* %loadMem_4010be)
  store %struct.Memory* %call_4010be, %struct.Memory** %MEMORY

  ; Code: cmpl -0x8(%rbp), %eax	 RIP: 4010c1	 Bytes: 3
  %loadMem_4010c1 = load %struct.Memory*, %struct.Memory** %MEMORY
  %call_4010c1 = call %struct.Memory* @routine_cmpl_MINUS0x8__rbp____eax(%struct.State* %0, i64  0, %struct.Memory* %loadMem_4010c1)
  store %struct.Memory* %call_4010c1, %struct.Memory** %MEMORY

  ; Code: jge .L_40117f	 RIP: 4010c4	 Bytes: 6
  %loadMem_4010c4 = load %struct.Memory*, %struct.Memory** %MEMORY
  %call_4010c4 = call %struct.Memory* @routine_jge_.L_40117f(%struct.State* %0, i64  0, %struct.Memory* %loadMem_4010c4, i8* %BRANCH_TAKEN, i64 187, i64 6, i64 6)
  store %struct.Memory* %call_4010c4, %struct.Memory** %MEMORY

  %loadBr_4010c4 = load i8, i8* %BRANCH_TAKEN
  %cmpBr_4010c4 = icmp eq i8 %loadBr_4010c4, 1
  br i1 %cmpBr_4010c4, label %block_.L_40117f, label %block_4010ca

block_4010ca:
  ; Code: movl $0x1, -0x3c(%rbp)	 RIP: 4010ca	 Bytes: 7
  %loadMem_4010ca = load %struct.Memory*, %struct.Memory** %MEMORY
  %call_4010ca = call %struct.Memory* @routine_movl__0x1__MINUS0x3c__rbp_(%struct.State* %0, i64  0, %struct.Memory* %loadMem_4010ca)
  store %struct.Memory* %call_4010ca, %struct.Memory** %MEMORY

  ; Code: .L_4010d1:	 RIP: 4010d1	 Bytes: 0
  br label %block_.L_4010d1
block_.L_4010d1:

  ; Code: movl -0x3c(%rbp), %eax	 RIP: 4010d1	 Bytes: 3
  %loadMem_4010d1 = load %struct.Memory*, %struct.Memory** %MEMORY
  %call_4010d1 = call %struct.Memory* @routine_movl_MINUS0x3c__rbp____eax(%struct.State* %0, i64  0, %struct.Memory* %loadMem_4010d1)
  store %struct.Memory* %call_4010d1, %struct.Memory** %MEMORY

  ; Code: cmpl -0xc(%rbp), %eax	 RIP: 4010d4	 Bytes: 3
  %loadMem_4010d4 = load %struct.Memory*, %struct.Memory** %MEMORY
  %call_4010d4 = call %struct.Memory* @routine_cmpl_MINUS0xc__rbp____eax(%struct.State* %0, i64  0, %struct.Memory* %loadMem_4010d4)
  store %struct.Memory* %call_4010d4, %struct.Memory** %MEMORY

  ; Code: jge .L_40116c	 RIP: 4010d7	 Bytes: 6
  %loadMem_4010d7 = load %struct.Memory*, %struct.Memory** %MEMORY
  %call_4010d7 = call %struct.Memory* @routine_jge_.L_40116c(%struct.State* %0, i64  0, %struct.Memory* %loadMem_4010d7, i8* %BRANCH_TAKEN, i64 149, i64 6, i64 6)
  store %struct.Memory* %call_4010d7, %struct.Memory** %MEMORY

  %loadBr_4010d7 = load i8, i8* %BRANCH_TAKEN
  %cmpBr_4010d7 = icmp eq i8 %loadBr_4010d7, 1
  br i1 %cmpBr_4010d7, label %block_.L_40116c, label %block_4010dd

block_4010dd:
  ; Code: movsd 0x5ab(%rip), %xmm0	 RIP: 4010dd	 Bytes: 8
  %loadMem_4010dd = load %struct.Memory*, %struct.Memory** %MEMORY
  %call_4010dd = call %struct.Memory* @routine_movsd_0x5ab__rip____xmm0(%struct.State* %0, i64  0, %struct.Memory* %loadMem_4010dd)
  store %struct.Memory* %call_4010dd, %struct.Memory** %MEMORY

  ; Code: movq -0x18(%rbp), %rax	 RIP: 4010e5	 Bytes: 4
  %loadMem_4010e5 = load %struct.Memory*, %struct.Memory** %MEMORY
  %call_4010e5 = call %struct.Memory* @routine_movq_MINUS0x18__rbp____rax(%struct.State* %0, i64  0, %struct.Memory* %loadMem_4010e5)
  store %struct.Memory* %call_4010e5, %struct.Memory** %MEMORY

  ; Code: movslq -0x38(%rbp), %rcx	 RIP: 4010e9	 Bytes: 4
  %loadMem_4010e9 = load %struct.Memory*, %struct.Memory** %MEMORY
  %call_4010e9 = call %struct.Memory* @routine_movslq_MINUS0x38__rbp____rcx(%struct.State* %0, i64  0, %struct.Memory* %loadMem_4010e9)
  store %struct.Memory* %call_4010e9, %struct.Memory** %MEMORY

  ; Code: imulq $0x1f40, %rcx, %rcx	 RIP: 4010ed	 Bytes: 7
  %loadMem_4010ed = load %struct.Memory*, %struct.Memory** %MEMORY
  %call_4010ed = call %struct.Memory* @routine_imulq__0x1f40___rcx___rcx(%struct.State* %0, i64  0, %struct.Memory* %loadMem_4010ed)
  store %struct.Memory* %call_4010ed, %struct.Memory** %MEMORY

  ; Code: addq %rcx, %rax	 RIP: 4010f4	 Bytes: 3
  %loadMem_4010f4 = load %struct.Memory*, %struct.Memory** %MEMORY
  %call_4010f4 = call %struct.Memory* @routine_addq__rcx___rax(%struct.State* %0, i64  0, %struct.Memory* %loadMem_4010f4)
  store %struct.Memory* %call_4010f4, %struct.Memory** %MEMORY

  ; Code: movslq -0x3c(%rbp), %rcx	 RIP: 4010f7	 Bytes: 4
  %loadMem_4010f7 = load %struct.Memory*, %struct.Memory** %MEMORY
  %call_4010f7 = call %struct.Memory* @routine_movslq_MINUS0x3c__rbp____rcx(%struct.State* %0, i64  0, %struct.Memory* %loadMem_4010f7)
  store %struct.Memory* %call_4010f7, %struct.Memory** %MEMORY

  ; Code: movsd (%rax,%rcx,8), %xmm1	 RIP: 4010fb	 Bytes: 5
  %loadMem_4010fb = load %struct.Memory*, %struct.Memory** %MEMORY
  %call_4010fb = call %struct.Memory* @routine_movsd___rax__rcx_8____xmm1(%struct.State* %0, i64  0, %struct.Memory* %loadMem_4010fb)
  store %struct.Memory* %call_4010fb, %struct.Memory** %MEMORY

  ; Code: movq -0x28(%rbp), %rax	 RIP: 401100	 Bytes: 4
  %loadMem_401100 = load %struct.Memory*, %struct.Memory** %MEMORY
  %call_401100 = call %struct.Memory* @routine_movq_MINUS0x28__rbp____rax(%struct.State* %0, i64  0, %struct.Memory* %loadMem_401100)
  store %struct.Memory* %call_401100, %struct.Memory** %MEMORY

  ; Code: movslq -0x38(%rbp), %rcx	 RIP: 401104	 Bytes: 4
  %loadMem_401104 = load %struct.Memory*, %struct.Memory** %MEMORY
  %call_401104 = call %struct.Memory* @routine_movslq_MINUS0x38__rbp____rcx(%struct.State* %0, i64  0, %struct.Memory* %loadMem_401104)
  store %struct.Memory* %call_401104, %struct.Memory** %MEMORY

  ; Code: imulq $0x1f40, %rcx, %rcx	 RIP: 401108	 Bytes: 7
  %loadMem_401108 = load %struct.Memory*, %struct.Memory** %MEMORY
  %call_401108 = call %struct.Memory* @routine_imulq__0x1f40___rcx___rcx(%struct.State* %0, i64  0, %struct.Memory* %loadMem_401108)
  store %struct.Memory* %call_401108, %struct.Memory** %MEMORY

  ; Code: addq %rcx, %rax	 RIP: 40110f	 Bytes: 3
  %loadMem_40110f = load %struct.Memory*, %struct.Memory** %MEMORY
  %call_40110f = call %struct.Memory* @routine_addq__rcx___rax(%struct.State* %0, i64  0, %struct.Memory* %loadMem_40110f)
  store %struct.Memory* %call_40110f, %struct.Memory** %MEMORY

  ; Code: movslq -0x3c(%rbp), %rcx	 RIP: 401112	 Bytes: 4
  %loadMem_401112 = load %struct.Memory*, %struct.Memory** %MEMORY
  %call_401112 = call %struct.Memory* @routine_movslq_MINUS0x3c__rbp____rcx(%struct.State* %0, i64  0, %struct.Memory* %loadMem_401112)
  store %struct.Memory* %call_401112, %struct.Memory** %MEMORY

  ; Code: movsd (%rax,%rcx,8), %xmm2	 RIP: 401116	 Bytes: 5
  %loadMem_401116 = load %struct.Memory*, %struct.Memory** %MEMORY
  %call_401116 = call %struct.Memory* @routine_movsd___rax__rcx_8____xmm2(%struct.State* %0, i64  0, %struct.Memory* %loadMem_401116)
  store %struct.Memory* %call_401116, %struct.Memory** %MEMORY

  ; Code: movq -0x28(%rbp), %rax	 RIP: 40111b	 Bytes: 4
  %loadMem_40111b = load %struct.Memory*, %struct.Memory** %MEMORY
  %call_40111b = call %struct.Memory* @routine_movq_MINUS0x28__rbp____rax(%struct.State* %0, i64  0, %struct.Memory* %loadMem_40111b)
  store %struct.Memory* %call_40111b, %struct.Memory** %MEMORY

  ; Code: movslq -0x38(%rbp), %rcx	 RIP: 40111f	 Bytes: 4
  %loadMem_40111f = load %struct.Memory*, %struct.Memory** %MEMORY
  %call_40111f = call %struct.Memory* @routine_movslq_MINUS0x38__rbp____rcx(%struct.State* %0, i64  0, %struct.Memory* %loadMem_40111f)
  store %struct.Memory* %call_40111f, %struct.Memory** %MEMORY

  ; Code: imulq $0x1f40, %rcx, %rcx	 RIP: 401123	 Bytes: 7
  %loadMem_401123 = load %struct.Memory*, %struct.Memory** %MEMORY
  %call_401123 = call %struct.Memory* @routine_imulq__0x1f40___rcx___rcx(%struct.State* %0, i64  0, %struct.Memory* %loadMem_401123)
  store %struct.Memory* %call_401123, %struct.Memory** %MEMORY

  ; Code: addq %rcx, %rax	 RIP: 40112a	 Bytes: 3
  %loadMem_40112a = load %struct.Memory*, %struct.Memory** %MEMORY
  %call_40112a = call %struct.Memory* @routine_addq__rcx___rax(%struct.State* %0, i64  0, %struct.Memory* %loadMem_40112a)
  store %struct.Memory* %call_40112a, %struct.Memory** %MEMORY

  ; Code: movl -0x3c(%rbp), %edx	 RIP: 40112d	 Bytes: 3
  %loadMem_40112d = load %struct.Memory*, %struct.Memory** %MEMORY
  %call_40112d = call %struct.Memory* @routine_movl_MINUS0x3c__rbp____edx(%struct.State* %0, i64  0, %struct.Memory* %loadMem_40112d)
  store %struct.Memory* %call_40112d, %struct.Memory** %MEMORY

  ; Code: subl $0x1, %edx	 RIP: 401130	 Bytes: 3
  %loadMem_401130 = load %struct.Memory*, %struct.Memory** %MEMORY
  %call_401130 = call %struct.Memory* @routine_subl__0x1___edx(%struct.State* %0, i64  0, %struct.Memory* %loadMem_401130)
  store %struct.Memory* %call_401130, %struct.Memory** %MEMORY

  ; Code: movslq %edx, %rcx	 RIP: 401133	 Bytes: 3
  %loadMem_401133 = load %struct.Memory*, %struct.Memory** %MEMORY
  %call_401133 = call %struct.Memory* @routine_movslq__edx___rcx(%struct.State* %0, i64  0, %struct.Memory* %loadMem_401133)
  store %struct.Memory* %call_401133, %struct.Memory** %MEMORY

  ; Code: subsd (%rax,%rcx,8), %xmm2	 RIP: 401136	 Bytes: 5
  %loadMem_401136 = load %struct.Memory*, %struct.Memory** %MEMORY
  %call_401136 = call %struct.Memory* @routine_subsd___rax__rcx_8____xmm2(%struct.State* %0, i64  0, %struct.Memory* %loadMem_401136)
  store %struct.Memory* %call_401136, %struct.Memory** %MEMORY

  ; Code: mulsd %xmm2, %xmm0	 RIP: 40113b	 Bytes: 4
  %loadMem_40113b = load %struct.Memory*, %struct.Memory** %MEMORY
  %call_40113b = call %struct.Memory* @routine_mulsd__xmm2___xmm0(%struct.State* %0, i64  0, %struct.Memory* %loadMem_40113b)
  store %struct.Memory* %call_40113b, %struct.Memory** %MEMORY

  ; Code: subsd %xmm0, %xmm1	 RIP: 40113f	 Bytes: 4
  %loadMem_40113f = load %struct.Memory*, %struct.Memory** %MEMORY
  %call_40113f = call %struct.Memory* @routine_subsd__xmm0___xmm1(%struct.State* %0, i64  0, %struct.Memory* %loadMem_40113f)
  store %struct.Memory* %call_40113f, %struct.Memory** %MEMORY

  ; Code: movq -0x18(%rbp), %rax	 RIP: 401143	 Bytes: 4
  %loadMem_401143 = load %struct.Memory*, %struct.Memory** %MEMORY
  %call_401143 = call %struct.Memory* @routine_movq_MINUS0x18__rbp____rax(%struct.State* %0, i64  0, %struct.Memory* %loadMem_401143)
  store %struct.Memory* %call_401143, %struct.Memory** %MEMORY

  ; Code: movslq -0x38(%rbp), %rcx	 RIP: 401147	 Bytes: 4
  %loadMem_401147 = load %struct.Memory*, %struct.Memory** %MEMORY
  %call_401147 = call %struct.Memory* @routine_movslq_MINUS0x38__rbp____rcx(%struct.State* %0, i64  0, %struct.Memory* %loadMem_401147)
  store %struct.Memory* %call_401147, %struct.Memory** %MEMORY

  ; Code: imulq $0x1f40, %rcx, %rcx	 RIP: 40114b	 Bytes: 7
  %loadMem_40114b = load %struct.Memory*, %struct.Memory** %MEMORY
  %call_40114b = call %struct.Memory* @routine_imulq__0x1f40___rcx___rcx(%struct.State* %0, i64  0, %struct.Memory* %loadMem_40114b)
  store %struct.Memory* %call_40114b, %struct.Memory** %MEMORY

  ; Code: addq %rcx, %rax	 RIP: 401152	 Bytes: 3
  %loadMem_401152 = load %struct.Memory*, %struct.Memory** %MEMORY
  %call_401152 = call %struct.Memory* @routine_addq__rcx___rax(%struct.State* %0, i64  0, %struct.Memory* %loadMem_401152)
  store %struct.Memory* %call_401152, %struct.Memory** %MEMORY

  ; Code: movslq -0x3c(%rbp), %rcx	 RIP: 401155	 Bytes: 4
  %loadMem_401155 = load %struct.Memory*, %struct.Memory** %MEMORY
  %call_401155 = call %struct.Memory* @routine_movslq_MINUS0x3c__rbp____rcx(%struct.State* %0, i64  0, %struct.Memory* %loadMem_401155)
  store %struct.Memory* %call_401155, %struct.Memory** %MEMORY

  ; Code: movsd %xmm1, (%rax,%rcx,8)	 RIP: 401159	 Bytes: 5
  %loadMem_401159 = load %struct.Memory*, %struct.Memory** %MEMORY
  %call_401159 = call %struct.Memory* @routine_movsd__xmm1____rax__rcx_8_(%struct.State* %0, i64  0, %struct.Memory* %loadMem_401159)
  store %struct.Memory* %call_401159, %struct.Memory** %MEMORY

  ; Code: movl -0x3c(%rbp), %eax	 RIP: 40115e	 Bytes: 3
  %loadMem_40115e = load %struct.Memory*, %struct.Memory** %MEMORY
  %call_40115e = call %struct.Memory* @routine_movl_MINUS0x3c__rbp____eax(%struct.State* %0, i64  0, %struct.Memory* %loadMem_40115e)
  store %struct.Memory* %call_40115e, %struct.Memory** %MEMORY

  ; Code: addl $0x1, %eax	 RIP: 401161	 Bytes: 3
  %loadMem_401161 = load %struct.Memory*, %struct.Memory** %MEMORY
  %call_401161 = call %struct.Memory* @routine_addl__0x1___eax(%struct.State* %0, i64  0, %struct.Memory* %loadMem_401161)
  store %struct.Memory* %call_401161, %struct.Memory** %MEMORY

  ; Code: movl %eax, -0x3c(%rbp)	 RIP: 401164	 Bytes: 3
  %loadMem_401164 = load %struct.Memory*, %struct.Memory** %MEMORY
  %call_401164 = call %struct.Memory* @routine_movl__eax__MINUS0x3c__rbp_(%struct.State* %0, i64  0, %struct.Memory* %loadMem_401164)
  store %struct.Memory* %call_401164, %struct.Memory** %MEMORY

  ; Code: jmpq .L_4010d1	 RIP: 401167	 Bytes: 5
  %loadMem_401167 = load %struct.Memory*, %struct.Memory** %MEMORY
  %call_401167 = call %struct.Memory* @routine_jmpq_.L_4010d1(%struct.State* %0, i64  0, %struct.Memory* %loadMem_401167, i64 -150, i64 5)
  store %struct.Memory* %call_401167, %struct.Memory** %MEMORY

  br label %block_.L_4010d1

  ; Code: .L_40116c:	 RIP: 40116c	 Bytes: 0
block_.L_40116c:

  ; Code: jmpq .L_401171	 RIP: 40116c	 Bytes: 5
  %loadMem_40116c = load %struct.Memory*, %struct.Memory** %MEMORY
  %call_40116c = call %struct.Memory* @routine_jmpq_.L_401171(%struct.State* %0, i64  0, %struct.Memory* %loadMem_40116c, i64 5, i64 5)
  store %struct.Memory* %call_40116c, %struct.Memory** %MEMORY

  br label %block_.L_401171

  ; Code: .L_401171:	 RIP: 401171	 Bytes: 0
block_.L_401171:

  ; Code: movl -0x38(%rbp), %eax	 RIP: 401171	 Bytes: 3
  %loadMem_401171 = load %struct.Memory*, %struct.Memory** %MEMORY
  %call_401171 = call %struct.Memory* @routine_movl_MINUS0x38__rbp____eax(%struct.State* %0, i64  0, %struct.Memory* %loadMem_401171)
  store %struct.Memory* %call_401171, %struct.Memory** %MEMORY

  ; Code: addl $0x1, %eax	 RIP: 401174	 Bytes: 3
  %loadMem_401174 = load %struct.Memory*, %struct.Memory** %MEMORY
  %call_401174 = call %struct.Memory* @routine_addl__0x1___eax(%struct.State* %0, i64  0, %struct.Memory* %loadMem_401174)
  store %struct.Memory* %call_401174, %struct.Memory** %MEMORY

  ; Code: movl %eax, -0x38(%rbp)	 RIP: 401177	 Bytes: 3
  %loadMem_401177 = load %struct.Memory*, %struct.Memory** %MEMORY
  %call_401177 = call %struct.Memory* @routine_movl__eax__MINUS0x38__rbp_(%struct.State* %0, i64  0, %struct.Memory* %loadMem_401177)
  store %struct.Memory* %call_401177, %struct.Memory** %MEMORY

  ; Code: jmpq .L_4010be	 RIP: 40117a	 Bytes: 5
  %loadMem_40117a = load %struct.Memory*, %struct.Memory** %MEMORY
  %call_40117a = call %struct.Memory* @routine_jmpq_.L_4010be(%struct.State* %0, i64  0, %struct.Memory* %loadMem_40117a, i64 -188, i64 5)
  store %struct.Memory* %call_40117a, %struct.Memory** %MEMORY

  br label %block_.L_4010be

  ; Code: .L_40117f:	 RIP: 40117f	 Bytes: 0
block_.L_40117f:

  ; Code: movl $0x0, -0x38(%rbp)	 RIP: 40117f	 Bytes: 7
  %loadMem_40117f = load %struct.Memory*, %struct.Memory** %MEMORY
  %call_40117f = call %struct.Memory* @routine_movl__0x0__MINUS0x38__rbp_(%struct.State* %0, i64  0, %struct.Memory* %loadMem_40117f)
  store %struct.Memory* %call_40117f, %struct.Memory** %MEMORY

  ; Code: .L_401186:	 RIP: 401186	 Bytes: 0
  br label %block_.L_401186
block_.L_401186:

  ; Code: movl -0x38(%rbp), %eax	 RIP: 401186	 Bytes: 3
  %loadMem_401186 = load %struct.Memory*, %struct.Memory** %MEMORY
  %call_401186 = call %struct.Memory* @routine_movl_MINUS0x38__rbp____eax(%struct.State* %0, i64  0, %struct.Memory* %loadMem_401186)
  store %struct.Memory* %call_401186, %struct.Memory** %MEMORY

  ; Code: movl -0x8(%rbp), %ecx	 RIP: 401189	 Bytes: 3
  %loadMem_401189 = load %struct.Memory*, %struct.Memory** %MEMORY
  %call_401189 = call %struct.Memory* @routine_movl_MINUS0x8__rbp____ecx(%struct.State* %0, i64  0, %struct.Memory* %loadMem_401189)
  store %struct.Memory* %call_401189, %struct.Memory** %MEMORY

  ; Code: subl $0x1, %ecx	 RIP: 40118c	 Bytes: 3
  %loadMem_40118c = load %struct.Memory*, %struct.Memory** %MEMORY
  %call_40118c = call %struct.Memory* @routine_subl__0x1___ecx(%struct.State* %0, i64  0, %struct.Memory* %loadMem_40118c)
  store %struct.Memory* %call_40118c, %struct.Memory** %MEMORY

  ; Code: cmpl %ecx, %eax	 RIP: 40118f	 Bytes: 2
  %loadMem_40118f = load %struct.Memory*, %struct.Memory** %MEMORY
  %call_40118f = call %struct.Memory* @routine_cmpl__ecx___eax(%struct.State* %0, i64  0, %struct.Memory* %loadMem_40118f)
  store %struct.Memory* %call_40118f, %struct.Memory** %MEMORY

  ; Code: jge .L_40128c	 RIP: 401191	 Bytes: 6
  %loadMem_401191 = load %struct.Memory*, %struct.Memory** %MEMORY
  %call_401191 = call %struct.Memory* @routine_jge_.L_40128c(%struct.State* %0, i64  0, %struct.Memory* %loadMem_401191, i8* %BRANCH_TAKEN, i64 251, i64 6, i64 6)
  store %struct.Memory* %call_401191, %struct.Memory** %MEMORY

  %loadBr_401191 = load i8, i8* %BRANCH_TAKEN
  %cmpBr_401191 = icmp eq i8 %loadBr_401191, 1
  br i1 %cmpBr_401191, label %block_.L_40128c, label %block_401197

block_401197:
  ; Code: movl $0x0, -0x3c(%rbp)	 RIP: 401197	 Bytes: 7
  %loadMem_401197 = load %struct.Memory*, %struct.Memory** %MEMORY
  %call_401197 = call %struct.Memory* @routine_movl__0x0__MINUS0x3c__rbp_(%struct.State* %0, i64  0, %struct.Memory* %loadMem_401197)
  store %struct.Memory* %call_401197, %struct.Memory** %MEMORY

  ; Code: .L_40119e:	 RIP: 40119e	 Bytes: 0
  br label %block_.L_40119e
block_.L_40119e:

  ; Code: movl -0x3c(%rbp), %eax	 RIP: 40119e	 Bytes: 3
  %loadMem_40119e = load %struct.Memory*, %struct.Memory** %MEMORY
  %call_40119e = call %struct.Memory* @routine_movl_MINUS0x3c__rbp____eax(%struct.State* %0, i64  0, %struct.Memory* %loadMem_40119e)
  store %struct.Memory* %call_40119e, %struct.Memory** %MEMORY

  ; Code: movl -0xc(%rbp), %ecx	 RIP: 4011a1	 Bytes: 3
  %loadMem_4011a1 = load %struct.Memory*, %struct.Memory** %MEMORY
  %call_4011a1 = call %struct.Memory* @routine_movl_MINUS0xc__rbp____ecx(%struct.State* %0, i64  0, %struct.Memory* %loadMem_4011a1)
  store %struct.Memory* %call_4011a1, %struct.Memory** %MEMORY

  ; Code: subl $0x1, %ecx	 RIP: 4011a4	 Bytes: 3
  %loadMem_4011a4 = load %struct.Memory*, %struct.Memory** %MEMORY
  %call_4011a4 = call %struct.Memory* @routine_subl__0x1___ecx(%struct.State* %0, i64  0, %struct.Memory* %loadMem_4011a4)
  store %struct.Memory* %call_4011a4, %struct.Memory** %MEMORY

  ; Code: cmpl %ecx, %eax	 RIP: 4011a7	 Bytes: 2
  %loadMem_4011a7 = load %struct.Memory*, %struct.Memory** %MEMORY
  %call_4011a7 = call %struct.Memory* @routine_cmpl__ecx___eax(%struct.State* %0, i64  0, %struct.Memory* %loadMem_4011a7)
  store %struct.Memory* %call_4011a7, %struct.Memory** %MEMORY

  ; Code: jge .L_401279	 RIP: 4011a9	 Bytes: 6
  %loadMem_4011a9 = load %struct.Memory*, %struct.Memory** %MEMORY
  %call_4011a9 = call %struct.Memory* @routine_jge_.L_401279(%struct.State* %0, i64  0, %struct.Memory* %loadMem_4011a9, i8* %BRANCH_TAKEN, i64 208, i64 6, i64 6)
  store %struct.Memory* %call_4011a9, %struct.Memory** %MEMORY

  %loadBr_4011a9 = load i8, i8* %BRANCH_TAKEN
  %cmpBr_4011a9 = icmp eq i8 %loadBr_4011a9, 1
  br i1 %cmpBr_4011a9, label %block_.L_401279, label %block_4011af

block_4011af:
  ; Code: movsd 0x4d1(%rip), %xmm0	 RIP: 4011af	 Bytes: 8
  %loadMem_4011af = load %struct.Memory*, %struct.Memory** %MEMORY
  %call_4011af = call %struct.Memory* @routine_movsd_0x4d1__rip____xmm0(%struct.State* %0, i64  0, %struct.Memory* %loadMem_4011af)
  store %struct.Memory* %call_4011af, %struct.Memory** %MEMORY

  ; Code: movq -0x28(%rbp), %rax	 RIP: 4011b7	 Bytes: 4
  %loadMem_4011b7 = load %struct.Memory*, %struct.Memory** %MEMORY
  %call_4011b7 = call %struct.Memory* @routine_movq_MINUS0x28__rbp____rax(%struct.State* %0, i64  0, %struct.Memory* %loadMem_4011b7)
  store %struct.Memory* %call_4011b7, %struct.Memory** %MEMORY

  ; Code: movslq -0x38(%rbp), %rcx	 RIP: 4011bb	 Bytes: 4
  %loadMem_4011bb = load %struct.Memory*, %struct.Memory** %MEMORY
  %call_4011bb = call %struct.Memory* @routine_movslq_MINUS0x38__rbp____rcx(%struct.State* %0, i64  0, %struct.Memory* %loadMem_4011bb)
  store %struct.Memory* %call_4011bb, %struct.Memory** %MEMORY

  ; Code: imulq $0x1f40, %rcx, %rcx	 RIP: 4011bf	 Bytes: 7
  %loadMem_4011bf = load %struct.Memory*, %struct.Memory** %MEMORY
  %call_4011bf = call %struct.Memory* @routine_imulq__0x1f40___rcx___rcx(%struct.State* %0, i64  0, %struct.Memory* %loadMem_4011bf)
  store %struct.Memory* %call_4011bf, %struct.Memory** %MEMORY

  ; Code: addq %rcx, %rax	 RIP: 4011c6	 Bytes: 3
  %loadMem_4011c6 = load %struct.Memory*, %struct.Memory** %MEMORY
  %call_4011c6 = call %struct.Memory* @routine_addq__rcx___rax(%struct.State* %0, i64  0, %struct.Memory* %loadMem_4011c6)
  store %struct.Memory* %call_4011c6, %struct.Memory** %MEMORY

  ; Code: movslq -0x3c(%rbp), %rcx	 RIP: 4011c9	 Bytes: 4
  %loadMem_4011c9 = load %struct.Memory*, %struct.Memory** %MEMORY
  %call_4011c9 = call %struct.Memory* @routine_movslq_MINUS0x3c__rbp____rcx(%struct.State* %0, i64  0, %struct.Memory* %loadMem_4011c9)
  store %struct.Memory* %call_4011c9, %struct.Memory** %MEMORY

  ; Code: movsd (%rax,%rcx,8), %xmm1	 RIP: 4011cd	 Bytes: 5
  %loadMem_4011cd = load %struct.Memory*, %struct.Memory** %MEMORY
  %call_4011cd = call %struct.Memory* @routine_movsd___rax__rcx_8____xmm1(%struct.State* %0, i64  0, %struct.Memory* %loadMem_4011cd)
  store %struct.Memory* %call_4011cd, %struct.Memory** %MEMORY

  ; Code: movq -0x18(%rbp), %rax	 RIP: 4011d2	 Bytes: 4
  %loadMem_4011d2 = load %struct.Memory*, %struct.Memory** %MEMORY
  %call_4011d2 = call %struct.Memory* @routine_movq_MINUS0x18__rbp____rax(%struct.State* %0, i64  0, %struct.Memory* %loadMem_4011d2)
  store %struct.Memory* %call_4011d2, %struct.Memory** %MEMORY

  ; Code: movslq -0x38(%rbp), %rcx	 RIP: 4011d6	 Bytes: 4
  %loadMem_4011d6 = load %struct.Memory*, %struct.Memory** %MEMORY
  %call_4011d6 = call %struct.Memory* @routine_movslq_MINUS0x38__rbp____rcx(%struct.State* %0, i64  0, %struct.Memory* %loadMem_4011d6)
  store %struct.Memory* %call_4011d6, %struct.Memory** %MEMORY

  ; Code: imulq $0x1f40, %rcx, %rcx	 RIP: 4011da	 Bytes: 7
  %loadMem_4011da = load %struct.Memory*, %struct.Memory** %MEMORY
  %call_4011da = call %struct.Memory* @routine_imulq__0x1f40___rcx___rcx(%struct.State* %0, i64  0, %struct.Memory* %loadMem_4011da)
  store %struct.Memory* %call_4011da, %struct.Memory** %MEMORY

  ; Code: addq %rcx, %rax	 RIP: 4011e1	 Bytes: 3
  %loadMem_4011e1 = load %struct.Memory*, %struct.Memory** %MEMORY
  %call_4011e1 = call %struct.Memory* @routine_addq__rcx___rax(%struct.State* %0, i64  0, %struct.Memory* %loadMem_4011e1)
  store %struct.Memory* %call_4011e1, %struct.Memory** %MEMORY

  ; Code: movl -0x3c(%rbp), %edx	 RIP: 4011e4	 Bytes: 3
  %loadMem_4011e4 = load %struct.Memory*, %struct.Memory** %MEMORY
  %call_4011e4 = call %struct.Memory* @routine_movl_MINUS0x3c__rbp____edx(%struct.State* %0, i64  0, %struct.Memory* %loadMem_4011e4)
  store %struct.Memory* %call_4011e4, %struct.Memory** %MEMORY

  ; Code: addl $0x1, %edx	 RIP: 4011e7	 Bytes: 3
  %loadMem_4011e7 = load %struct.Memory*, %struct.Memory** %MEMORY
  %call_4011e7 = call %struct.Memory* @routine_addl__0x1___edx(%struct.State* %0, i64  0, %struct.Memory* %loadMem_4011e7)
  store %struct.Memory* %call_4011e7, %struct.Memory** %MEMORY

  ; Code: movslq %edx, %rcx	 RIP: 4011ea	 Bytes: 3
  %loadMem_4011ea = load %struct.Memory*, %struct.Memory** %MEMORY
  %call_4011ea = call %struct.Memory* @routine_movslq__edx___rcx(%struct.State* %0, i64  0, %struct.Memory* %loadMem_4011ea)
  store %struct.Memory* %call_4011ea, %struct.Memory** %MEMORY

  ; Code: movsd (%rax,%rcx,8), %xmm2	 RIP: 4011ed	 Bytes: 5
  %loadMem_4011ed = load %struct.Memory*, %struct.Memory** %MEMORY
  %call_4011ed = call %struct.Memory* @routine_movsd___rax__rcx_8____xmm2(%struct.State* %0, i64  0, %struct.Memory* %loadMem_4011ed)
  store %struct.Memory* %call_4011ed, %struct.Memory** %MEMORY

  ; Code: movq -0x18(%rbp), %rax	 RIP: 4011f2	 Bytes: 4
  %loadMem_4011f2 = load %struct.Memory*, %struct.Memory** %MEMORY
  %call_4011f2 = call %struct.Memory* @routine_movq_MINUS0x18__rbp____rax(%struct.State* %0, i64  0, %struct.Memory* %loadMem_4011f2)
  store %struct.Memory* %call_4011f2, %struct.Memory** %MEMORY

  ; Code: movslq -0x38(%rbp), %rcx	 RIP: 4011f6	 Bytes: 4
  %loadMem_4011f6 = load %struct.Memory*, %struct.Memory** %MEMORY
  %call_4011f6 = call %struct.Memory* @routine_movslq_MINUS0x38__rbp____rcx(%struct.State* %0, i64  0, %struct.Memory* %loadMem_4011f6)
  store %struct.Memory* %call_4011f6, %struct.Memory** %MEMORY

  ; Code: imulq $0x1f40, %rcx, %rcx	 RIP: 4011fa	 Bytes: 7
  %loadMem_4011fa = load %struct.Memory*, %struct.Memory** %MEMORY
  %call_4011fa = call %struct.Memory* @routine_imulq__0x1f40___rcx___rcx(%struct.State* %0, i64  0, %struct.Memory* %loadMem_4011fa)
  store %struct.Memory* %call_4011fa, %struct.Memory** %MEMORY

  ; Code: addq %rcx, %rax	 RIP: 401201	 Bytes: 3
  %loadMem_401201 = load %struct.Memory*, %struct.Memory** %MEMORY
  %call_401201 = call %struct.Memory* @routine_addq__rcx___rax(%struct.State* %0, i64  0, %struct.Memory* %loadMem_401201)
  store %struct.Memory* %call_401201, %struct.Memory** %MEMORY

  ; Code: movslq -0x3c(%rbp), %rcx	 RIP: 401204	 Bytes: 4
  %loadMem_401204 = load %struct.Memory*, %struct.Memory** %MEMORY
  %call_401204 = call %struct.Memory* @routine_movslq_MINUS0x3c__rbp____rcx(%struct.State* %0, i64  0, %struct.Memory* %loadMem_401204)
  store %struct.Memory* %call_401204, %struct.Memory** %MEMORY

  ; Code: subsd (%rax,%rcx,8), %xmm2	 RIP: 401208	 Bytes: 5
  %loadMem_401208 = load %struct.Memory*, %struct.Memory** %MEMORY
  %call_401208 = call %struct.Memory* @routine_subsd___rax__rcx_8____xmm2(%struct.State* %0, i64  0, %struct.Memory* %loadMem_401208)
  store %struct.Memory* %call_401208, %struct.Memory** %MEMORY

  ; Code: movq -0x20(%rbp), %rax	 RIP: 40120d	 Bytes: 4
  %loadMem_40120d = load %struct.Memory*, %struct.Memory** %MEMORY
  %call_40120d = call %struct.Memory* @routine_movq_MINUS0x20__rbp____rax(%struct.State* %0, i64  0, %struct.Memory* %loadMem_40120d)
  store %struct.Memory* %call_40120d, %struct.Memory** %MEMORY

  ; Code: movl -0x38(%rbp), %edx	 RIP: 401211	 Bytes: 3
  %loadMem_401211 = load %struct.Memory*, %struct.Memory** %MEMORY
  %call_401211 = call %struct.Memory* @routine_movl_MINUS0x38__rbp____edx(%struct.State* %0, i64  0, %struct.Memory* %loadMem_401211)
  store %struct.Memory* %call_401211, %struct.Memory** %MEMORY

  ; Code: addl $0x1, %edx	 RIP: 401214	 Bytes: 3
  %loadMem_401214 = load %struct.Memory*, %struct.Memory** %MEMORY
  %call_401214 = call %struct.Memory* @routine_addl__0x1___edx(%struct.State* %0, i64  0, %struct.Memory* %loadMem_401214)
  store %struct.Memory* %call_401214, %struct.Memory** %MEMORY

  ; Code: movslq %edx, %rcx	 RIP: 401217	 Bytes: 3
  %loadMem_401217 = load %struct.Memory*, %struct.Memory** %MEMORY
  %call_401217 = call %struct.Memory* @routine_movslq__edx___rcx(%struct.State* %0, i64  0, %struct.Memory* %loadMem_401217)
  store %struct.Memory* %call_401217, %struct.Memory** %MEMORY

  ; Code: imulq $0x1f40, %rcx, %rcx	 RIP: 40121a	 Bytes: 7
  %loadMem_40121a = load %struct.Memory*, %struct.Memory** %MEMORY
  %call_40121a = call %struct.Memory* @routine_imulq__0x1f40___rcx___rcx(%struct.State* %0, i64  0, %struct.Memory* %loadMem_40121a)
  store %struct.Memory* %call_40121a, %struct.Memory** %MEMORY

  ; Code: addq %rcx, %rax	 RIP: 401221	 Bytes: 3
  %loadMem_401221 = load %struct.Memory*, %struct.Memory** %MEMORY
  %call_401221 = call %struct.Memory* @routine_addq__rcx___rax(%struct.State* %0, i64  0, %struct.Memory* %loadMem_401221)
  store %struct.Memory* %call_401221, %struct.Memory** %MEMORY

  ; Code: movslq -0x3c(%rbp), %rcx	 RIP: 401224	 Bytes: 4
  %loadMem_401224 = load %struct.Memory*, %struct.Memory** %MEMORY
  %call_401224 = call %struct.Memory* @routine_movslq_MINUS0x3c__rbp____rcx(%struct.State* %0, i64  0, %struct.Memory* %loadMem_401224)
  store %struct.Memory* %call_401224, %struct.Memory** %MEMORY

  ; Code: addsd (%rax,%rcx,8), %xmm2	 RIP: 401228	 Bytes: 5
  %loadMem_401228 = load %struct.Memory*, %struct.Memory** %MEMORY
  %call_401228 = call %struct.Memory* @routine_addsd___rax__rcx_8____xmm2(%struct.State* %0, i64  0, %struct.Memory* %loadMem_401228)
  store %struct.Memory* %call_401228, %struct.Memory** %MEMORY

  ; Code: movq -0x20(%rbp), %rax	 RIP: 40122d	 Bytes: 4
  %loadMem_40122d = load %struct.Memory*, %struct.Memory** %MEMORY
  %call_40122d = call %struct.Memory* @routine_movq_MINUS0x20__rbp____rax(%struct.State* %0, i64  0, %struct.Memory* %loadMem_40122d)
  store %struct.Memory* %call_40122d, %struct.Memory** %MEMORY

  ; Code: movslq -0x38(%rbp), %rcx	 RIP: 401231	 Bytes: 4
  %loadMem_401231 = load %struct.Memory*, %struct.Memory** %MEMORY
  %call_401231 = call %struct.Memory* @routine_movslq_MINUS0x38__rbp____rcx(%struct.State* %0, i64  0, %struct.Memory* %loadMem_401231)
  store %struct.Memory* %call_401231, %struct.Memory** %MEMORY

  ; Code: imulq $0x1f40, %rcx, %rcx	 RIP: 401235	 Bytes: 7
  %loadMem_401235 = load %struct.Memory*, %struct.Memory** %MEMORY
  %call_401235 = call %struct.Memory* @routine_imulq__0x1f40___rcx___rcx(%struct.State* %0, i64  0, %struct.Memory* %loadMem_401235)
  store %struct.Memory* %call_401235, %struct.Memory** %MEMORY

  ; Code: addq %rcx, %rax	 RIP: 40123c	 Bytes: 3
  %loadMem_40123c = load %struct.Memory*, %struct.Memory** %MEMORY
  %call_40123c = call %struct.Memory* @routine_addq__rcx___rax(%struct.State* %0, i64  0, %struct.Memory* %loadMem_40123c)
  store %struct.Memory* %call_40123c, %struct.Memory** %MEMORY

  ; Code: movslq -0x3c(%rbp), %rcx	 RIP: 40123f	 Bytes: 4
  %loadMem_40123f = load %struct.Memory*, %struct.Memory** %MEMORY
  %call_40123f = call %struct.Memory* @routine_movslq_MINUS0x3c__rbp____rcx(%struct.State* %0, i64  0, %struct.Memory* %loadMem_40123f)
  store %struct.Memory* %call_40123f, %struct.Memory** %MEMORY

  ; Code: subsd (%rax,%rcx,8), %xmm2	 RIP: 401243	 Bytes: 5
  %loadMem_401243 = load %struct.Memory*, %struct.Memory** %MEMORY
  %call_401243 = call %struct.Memory* @routine_subsd___rax__rcx_8____xmm2(%struct.State* %0, i64  0, %struct.Memory* %loadMem_401243)
  store %struct.Memory* %call_401243, %struct.Memory** %MEMORY

  ; Code: mulsd %xmm2, %xmm0	 RIP: 401248	 Bytes: 4
  %loadMem_401248 = load %struct.Memory*, %struct.Memory** %MEMORY
  %call_401248 = call %struct.Memory* @routine_mulsd__xmm2___xmm0(%struct.State* %0, i64  0, %struct.Memory* %loadMem_401248)
  store %struct.Memory* %call_401248, %struct.Memory** %MEMORY

  ; Code: subsd %xmm0, %xmm1	 RIP: 40124c	 Bytes: 4
  %loadMem_40124c = load %struct.Memory*, %struct.Memory** %MEMORY
  %call_40124c = call %struct.Memory* @routine_subsd__xmm0___xmm1(%struct.State* %0, i64  0, %struct.Memory* %loadMem_40124c)
  store %struct.Memory* %call_40124c, %struct.Memory** %MEMORY

  ; Code: movq -0x28(%rbp), %rax	 RIP: 401250	 Bytes: 4
  %loadMem_401250 = load %struct.Memory*, %struct.Memory** %MEMORY
  %call_401250 = call %struct.Memory* @routine_movq_MINUS0x28__rbp____rax(%struct.State* %0, i64  0, %struct.Memory* %loadMem_401250)
  store %struct.Memory* %call_401250, %struct.Memory** %MEMORY

  ; Code: movslq -0x38(%rbp), %rcx	 RIP: 401254	 Bytes: 4
  %loadMem_401254 = load %struct.Memory*, %struct.Memory** %MEMORY
  %call_401254 = call %struct.Memory* @routine_movslq_MINUS0x38__rbp____rcx(%struct.State* %0, i64  0, %struct.Memory* %loadMem_401254)
  store %struct.Memory* %call_401254, %struct.Memory** %MEMORY

  ; Code: imulq $0x1f40, %rcx, %rcx	 RIP: 401258	 Bytes: 7
  %loadMem_401258 = load %struct.Memory*, %struct.Memory** %MEMORY
  %call_401258 = call %struct.Memory* @routine_imulq__0x1f40___rcx___rcx(%struct.State* %0, i64  0, %struct.Memory* %loadMem_401258)
  store %struct.Memory* %call_401258, %struct.Memory** %MEMORY

  ; Code: addq %rcx, %rax	 RIP: 40125f	 Bytes: 3
  %loadMem_40125f = load %struct.Memory*, %struct.Memory** %MEMORY
  %call_40125f = call %struct.Memory* @routine_addq__rcx___rax(%struct.State* %0, i64  0, %struct.Memory* %loadMem_40125f)
  store %struct.Memory* %call_40125f, %struct.Memory** %MEMORY

  ; Code: movslq -0x3c(%rbp), %rcx	 RIP: 401262	 Bytes: 4
  %loadMem_401262 = load %struct.Memory*, %struct.Memory** %MEMORY
  %call_401262 = call %struct.Memory* @routine_movslq_MINUS0x3c__rbp____rcx(%struct.State* %0, i64  0, %struct.Memory* %loadMem_401262)
  store %struct.Memory* %call_401262, %struct.Memory** %MEMORY

  ; Code: movsd %xmm1, (%rax,%rcx,8)	 RIP: 401266	 Bytes: 5
  %loadMem_401266 = load %struct.Memory*, %struct.Memory** %MEMORY
  %call_401266 = call %struct.Memory* @routine_movsd__xmm1____rax__rcx_8_(%struct.State* %0, i64  0, %struct.Memory* %loadMem_401266)
  store %struct.Memory* %call_401266, %struct.Memory** %MEMORY

  ; Code: movl -0x3c(%rbp), %eax	 RIP: 40126b	 Bytes: 3
  %loadMem_40126b = load %struct.Memory*, %struct.Memory** %MEMORY
  %call_40126b = call %struct.Memory* @routine_movl_MINUS0x3c__rbp____eax(%struct.State* %0, i64  0, %struct.Memory* %loadMem_40126b)
  store %struct.Memory* %call_40126b, %struct.Memory** %MEMORY

  ; Code: addl $0x1, %eax	 RIP: 40126e	 Bytes: 3
  %loadMem_40126e = load %struct.Memory*, %struct.Memory** %MEMORY
  %call_40126e = call %struct.Memory* @routine_addl__0x1___eax(%struct.State* %0, i64  0, %struct.Memory* %loadMem_40126e)
  store %struct.Memory* %call_40126e, %struct.Memory** %MEMORY

  ; Code: movl %eax, -0x3c(%rbp)	 RIP: 401271	 Bytes: 3
  %loadMem_401271 = load %struct.Memory*, %struct.Memory** %MEMORY
  %call_401271 = call %struct.Memory* @routine_movl__eax__MINUS0x3c__rbp_(%struct.State* %0, i64  0, %struct.Memory* %loadMem_401271)
  store %struct.Memory* %call_401271, %struct.Memory** %MEMORY

  ; Code: jmpq .L_40119e	 RIP: 401274	 Bytes: 5
  %loadMem_401274 = load %struct.Memory*, %struct.Memory** %MEMORY
  %call_401274 = call %struct.Memory* @routine_jmpq_.L_40119e(%struct.State* %0, i64  0, %struct.Memory* %loadMem_401274, i64 -214, i64 5)
  store %struct.Memory* %call_401274, %struct.Memory** %MEMORY

  br label %block_.L_40119e

  ; Code: .L_401279:	 RIP: 401279	 Bytes: 0
block_.L_401279:

  ; Code: jmpq .L_40127e	 RIP: 401279	 Bytes: 5
  %loadMem_401279 = load %struct.Memory*, %struct.Memory** %MEMORY
  %call_401279 = call %struct.Memory* @routine_jmpq_.L_40127e(%struct.State* %0, i64  0, %struct.Memory* %loadMem_401279, i64 5, i64 5)
  store %struct.Memory* %call_401279, %struct.Memory** %MEMORY

  br label %block_.L_40127e

  ; Code: .L_40127e:	 RIP: 40127e	 Bytes: 0
block_.L_40127e:

  ; Code: movl -0x38(%rbp), %eax	 RIP: 40127e	 Bytes: 3
  %loadMem_40127e = load %struct.Memory*, %struct.Memory** %MEMORY
  %call_40127e = call %struct.Memory* @routine_movl_MINUS0x38__rbp____eax(%struct.State* %0, i64  0, %struct.Memory* %loadMem_40127e)
  store %struct.Memory* %call_40127e, %struct.Memory** %MEMORY

  ; Code: addl $0x1, %eax	 RIP: 401281	 Bytes: 3
  %loadMem_401281 = load %struct.Memory*, %struct.Memory** %MEMORY
  %call_401281 = call %struct.Memory* @routine_addl__0x1___eax(%struct.State* %0, i64  0, %struct.Memory* %loadMem_401281)
  store %struct.Memory* %call_401281, %struct.Memory** %MEMORY

  ; Code: movl %eax, -0x38(%rbp)	 RIP: 401284	 Bytes: 3
  %loadMem_401284 = load %struct.Memory*, %struct.Memory** %MEMORY
  %call_401284 = call %struct.Memory* @routine_movl__eax__MINUS0x38__rbp_(%struct.State* %0, i64  0, %struct.Memory* %loadMem_401284)
  store %struct.Memory* %call_401284, %struct.Memory** %MEMORY

  ; Code: jmpq .L_401186	 RIP: 401287	 Bytes: 5
  %loadMem_401287 = load %struct.Memory*, %struct.Memory** %MEMORY
  %call_401287 = call %struct.Memory* @routine_jmpq_.L_401186(%struct.State* %0, i64  0, %struct.Memory* %loadMem_401287, i64 -257, i64 5)
  store %struct.Memory* %call_401287, %struct.Memory** %MEMORY

  br label %block_.L_401186

  ; Code: .L_40128c:	 RIP: 40128c	 Bytes: 0
block_.L_40128c:

  ; Code: jmpq .L_401291	 RIP: 40128c	 Bytes: 5
  %loadMem_40128c = load %struct.Memory*, %struct.Memory** %MEMORY
  %call_40128c = call %struct.Memory* @routine_jmpq_.L_401291(%struct.State* %0, i64  0, %struct.Memory* %loadMem_40128c, i64 5, i64 5)
  store %struct.Memory* %call_40128c, %struct.Memory** %MEMORY

  br label %block_.L_401291

  ; Code: .L_401291:	 RIP: 401291	 Bytes: 0
block_.L_401291:

  ; Code: movl -0x34(%rbp), %eax	 RIP: 401291	 Bytes: 3
  %loadMem_401291 = load %struct.Memory*, %struct.Memory** %MEMORY
  %call_401291 = call %struct.Memory* @routine_movl_MINUS0x34__rbp____eax(%struct.State* %0, i64  0, %struct.Memory* %loadMem_401291)
  store %struct.Memory* %call_401291, %struct.Memory** %MEMORY

  ; Code: addl $0x1, %eax	 RIP: 401294	 Bytes: 3
  %loadMem_401294 = load %struct.Memory*, %struct.Memory** %MEMORY
  %call_401294 = call %struct.Memory* @routine_addl__0x1___eax(%struct.State* %0, i64  0, %struct.Memory* %loadMem_401294)
  store %struct.Memory* %call_401294, %struct.Memory** %MEMORY

  ; Code: movl %eax, -0x34(%rbp)	 RIP: 401297	 Bytes: 3
  %loadMem_401297 = load %struct.Memory*, %struct.Memory** %MEMORY
  %call_401297 = call %struct.Memory* @routine_movl__eax__MINUS0x34__rbp_(%struct.State* %0, i64  0, %struct.Memory* %loadMem_401297)
  store %struct.Memory* %call_401297, %struct.Memory** %MEMORY

  ; Code: jmpq .L_400fa8	 RIP: 40129a	 Bytes: 5
  %loadMem_40129a = load %struct.Memory*, %struct.Memory** %MEMORY
  %call_40129a = call %struct.Memory* @routine_jmpq_.L_400fa8(%struct.State* %0, i64  0, %struct.Memory* %loadMem_40129a, i64 -754, i64 5)
  store %struct.Memory* %call_40129a, %struct.Memory** %MEMORY

  br label %block_.L_400fa8

  ; Code: .L_40129f:	 RIP: 40129f	 Bytes: 0
block_.L_40129f:

  ; Code: popq %rbp	 RIP: 40129f	 Bytes: 1
  %loadMem_40129f = load %struct.Memory*, %struct.Memory** %MEMORY
  %call_40129f = call %struct.Memory* @routine_popq__rbp(%struct.State* %0, i64  0, %struct.Memory* %loadMem_40129f)
  store %struct.Memory* %call_40129f, %struct.Memory** %MEMORY

  ; Code: retq	 RIP: 4012a0	 Bytes: 1
  %loadMem_4012a0 = load %struct.Memory*, %struct.Memory** %MEMORY
  %call_4012a0 = call %struct.Memory* @routine_retq(%struct.State* %0, i64  0, %struct.Memory* %loadMem_4012a0)
  store %struct.Memory* %call_4012a0, %struct.Memory** %MEMORY

  ret %struct.Memory* %call_4012a0
}

define internal %struct.Memory* @_ZN12_GLOBAL__N_1L4PUSHI2InImEEEP6MemoryS4_R5StateT_(%struct.Memory*, %struct.State* nocapture dereferenceable(3376), i64) #0 {
  %4 = getelementptr inbounds %struct.State, %struct.State* %1, i64 0, i32 6, i32 13, i32 0, i32 0
  %5 = load i64, i64* %4, align 8
  %6 = add i64 %5, -8
  %7 = inttoptr i64 %6 to i64*
  store i64 %2, i64* %7
  store i64 %6, i64* %4, align 8
  ret %struct.Memory* %0
}

define %struct.Memory* @routine_pushq__rbp(%struct.State*  dereferenceable(3376), i64, %struct.Memory* ) #19 {
block_400488:
  %3 = getelementptr inbounds %struct.State, %struct.State* %0, i32 0, i32 6
  %4 = getelementptr inbounds %struct.GPR, %struct.GPR* %3, i32 0, i32 33
  %5 = getelementptr inbounds %struct.Reg, %struct.Reg* %4, i32 0, i32 0
  %PC = bitcast %union.anon* %5 to i64*
  %6 = getelementptr inbounds %struct.State, %struct.State* %0, i32 0, i32 6
  %7 = getelementptr inbounds %struct.GPR, %struct.GPR* %6, i32 0, i32 15
  %8 = getelementptr inbounds %struct.Reg, %struct.Reg* %7, i32 0, i32 0
  %RBP = bitcast %union.anon* %8 to i64*
  %9 = load i64, i64* %RBP
  %10 = load i64, i64* %PC
  %11 = add i64 %10, 1
  store i64 %11, i64* %PC
  %12 = call %struct.Memory* @_ZN12_GLOBAL__N_1L4PUSHI2InImEEEP6MemoryS4_R5StateT_(%struct.Memory* %2, %struct.State* %0, i64 %9)
  ret %struct.Memory* %12
}

define internal %struct.Memory* @_ZN12_GLOBAL__N_1L3MOVI3RnWImE2RnImEEEP6MemoryS6_R5StateT_T0_(%struct.Memory* readnone returned, %struct.State* nocapture readnone dereferenceable(3376), i64* nocapture, i64) #2 {
  store i64 %3, i64* %2, align 8
  ret %struct.Memory* %0
}

define %struct.Memory* @routine_movq__rsp___rbp(%struct.State*  dereferenceable(3376), i64, %struct.Memory* ) #19 {
block_400488:
  %3 = getelementptr inbounds %struct.State, %struct.State* %0, i32 0, i32 6
  %4 = getelementptr inbounds %struct.GPR, %struct.GPR* %3, i32 0, i32 33
  %5 = getelementptr inbounds %struct.Reg, %struct.Reg* %4, i32 0, i32 0
  %PC = bitcast %union.anon* %5 to i64*
  %6 = getelementptr inbounds %struct.State, %struct.State* %0, i32 0, i32 6
  %7 = getelementptr inbounds %struct.GPR, %struct.GPR* %6, i32 0, i32 13
  %8 = getelementptr inbounds %struct.Reg, %struct.Reg* %7, i32 0, i32 0
  %RSP = bitcast %union.anon* %8 to i64*
  %9 = getelementptr inbounds %struct.State, %struct.State* %0, i32 0, i32 6
  %10 = getelementptr inbounds %struct.GPR, %struct.GPR* %9, i32 0, i32 15
  %11 = getelementptr inbounds %struct.Reg, %struct.Reg* %10, i32 0, i32 0
  %RBP = bitcast %union.anon* %11 to i64*
  %12 = load i64, i64* %RSP
  %13 = load i64, i64* %PC
  %14 = add i64 %13, 3
  store i64 %14, i64* %PC
  %15 = call %struct.Memory* @_ZN12_GLOBAL__N_1L3MOVI3RnWImE2RnImEEEP6MemoryS6_R5StateT_T0_(%struct.Memory* %2, %struct.State* %0, i64* %RBP, i64 %12)
  ret %struct.Memory* %15
}

define internal %struct.Memory* @_ZN12_GLOBAL__N_1L3MOVI3RnWImE2MnImEEEP6MemoryS6_R5StateT_T0_(%struct.Memory* returned, %struct.State* nocapture readnone dereferenceable(3376), i64* nocapture, i64) #0 {
  %5 = inttoptr i64 %3 to i64*
  %6 = load i64, i64* %5
  store i64 %6, i64* %2, align 8
  ret %struct.Memory* %0
}

define %struct.Memory* @routine_movq_0x10__rbp____rax(%struct.State*  dereferenceable(3376), i64, %struct.Memory* ) #19 {
block_400488:
  %3 = getelementptr inbounds %struct.State, %struct.State* %0, i32 0, i32 6
  %4 = getelementptr inbounds %struct.GPR, %struct.GPR* %3, i32 0, i32 33
  %5 = getelementptr inbounds %struct.Reg, %struct.Reg* %4, i32 0, i32 0
  %PC = bitcast %union.anon* %5 to i64*
  %6 = getelementptr inbounds %struct.State, %struct.State* %0, i32 0, i32 6
  %7 = getelementptr inbounds %struct.GPR, %struct.GPR* %6, i32 0, i32 1
  %8 = getelementptr inbounds %struct.Reg, %struct.Reg* %7, i32 0, i32 0
  %RAX = bitcast %union.anon* %8 to i64*
  %9 = getelementptr inbounds %struct.State, %struct.State* %0, i32 0, i32 6
  %10 = getelementptr inbounds %struct.GPR, %struct.GPR* %9, i32 0, i32 15
  %11 = getelementptr inbounds %struct.Reg, %struct.Reg* %10, i32 0, i32 0
  %RBP = bitcast %union.anon* %11 to i64*
  %12 = load i64, i64* %RBP
  %13 = add i64 %12, 16
  %14 = load i64, i64* %PC
  %15 = add i64 %14, 4
  store i64 %15, i64* %PC
  %16 = call %struct.Memory* @_ZN12_GLOBAL__N_1L3MOVI3RnWImE2MnImEEEP6MemoryS6_R5StateT_T0_(%struct.Memory* %2, %struct.State* %0, i64* %RAX, i64 %13)
  ret %struct.Memory* %16
}

define internal %struct.Memory* @_ZN12_GLOBAL__N_1L3MOVI3MnWIjE2RnIjEEEP6MemoryS6_R5StateT_T0_(%struct.Memory* readnone, %struct.State* nocapture readnone dereferenceable(3376), i64, i64) #8 {
  %5 = trunc i64 %3 to i32
  %6 = inttoptr i64 %2 to i32*
  store i32 %5, i32* %6
  ret %struct.Memory* %0
}

define %struct.Memory* @routine_movl__edi__MINUS0x4__rbp_(%struct.State*  dereferenceable(3376), i64, %struct.Memory* ) #19 {
block_400488:
  %3 = getelementptr inbounds %struct.State, %struct.State* %0, i32 0, i32 6
  %4 = getelementptr inbounds %struct.GPR, %struct.GPR* %3, i32 0, i32 33
  %5 = getelementptr inbounds %struct.Reg, %struct.Reg* %4, i32 0, i32 0
  %PC = bitcast %union.anon* %5 to i64*
  %6 = getelementptr inbounds %struct.State, %struct.State* %0, i32 0, i32 6
  %7 = getelementptr inbounds %struct.GPR, %struct.GPR* %6, i32 0, i32 11
  %8 = getelementptr inbounds %struct.Reg, %struct.Reg* %7, i32 0, i32 0
  %EDI = bitcast %union.anon* %8 to i32*
  %9 = getelementptr inbounds %struct.State, %struct.State* %0, i32 0, i32 6
  %10 = getelementptr inbounds %struct.GPR, %struct.GPR* %9, i32 0, i32 15
  %11 = getelementptr inbounds %struct.Reg, %struct.Reg* %10, i32 0, i32 0
  %RBP = bitcast %union.anon* %11 to i64*
  %12 = load i64, i64* %RBP
  %13 = sub i64 %12, 4
  %14 = load i32, i32* %EDI
  %15 = zext i32 %14 to i64
  %16 = load i64, i64* %PC
  %17 = add i64 %16, 3
  store i64 %17, i64* %PC
  %18 = call %struct.Memory* @_ZN12_GLOBAL__N_1L3MOVI3MnWIjE2RnIjEEEP6MemoryS6_R5StateT_T0_(%struct.Memory* %2, %struct.State* %0, i64 %13, i64 %15)
  ret %struct.Memory* %18
}


define %struct.Memory* @routine_movl__esi__MINUS0x8__rbp_(%struct.State*  dereferenceable(3376), i64, %struct.Memory* ) #19 {
block_400488:
  %3 = getelementptr inbounds %struct.State, %struct.State* %0, i32 0, i32 6
  %4 = getelementptr inbounds %struct.GPR, %struct.GPR* %3, i32 0, i32 33
  %5 = getelementptr inbounds %struct.Reg, %struct.Reg* %4, i32 0, i32 0
  %PC = bitcast %union.anon* %5 to i64*
  %6 = getelementptr inbounds %struct.State, %struct.State* %0, i32 0, i32 6
  %7 = getelementptr inbounds %struct.GPR, %struct.GPR* %6, i32 0, i32 9
  %8 = getelementptr inbounds %struct.Reg, %struct.Reg* %7, i32 0, i32 0
  %ESI = bitcast %union.anon* %8 to i32*
  %9 = getelementptr inbounds %struct.State, %struct.State* %0, i32 0, i32 6
  %10 = getelementptr inbounds %struct.GPR, %struct.GPR* %9, i32 0, i32 15
  %11 = getelementptr inbounds %struct.Reg, %struct.Reg* %10, i32 0, i32 0
  %RBP = bitcast %union.anon* %11 to i64*
  %12 = load i64, i64* %RBP
  %13 = sub i64 %12, 8
  %14 = load i32, i32* %ESI
  %15 = zext i32 %14 to i64
  %16 = load i64, i64* %PC
  %17 = add i64 %16, 3
  store i64 %17, i64* %PC
  %18 = call %struct.Memory* @_ZN12_GLOBAL__N_1L3MOVI3MnWIjE2RnIjEEEP6MemoryS6_R5StateT_T0_(%struct.Memory* %2, %struct.State* %0, i64 %13, i64 %15)
  ret %struct.Memory* %18
}


define %struct.Memory* @routine_movl__edx__MINUS0xc__rbp_(%struct.State*  dereferenceable(3376), i64, %struct.Memory* ) #19 {
block_400488:
  %3 = getelementptr inbounds %struct.State, %struct.State* %0, i32 0, i32 6
  %4 = getelementptr inbounds %struct.GPR, %struct.GPR* %3, i32 0, i32 33
  %5 = getelementptr inbounds %struct.Reg, %struct.Reg* %4, i32 0, i32 0
  %PC = bitcast %union.anon* %5 to i64*
  %6 = getelementptr inbounds %struct.State, %struct.State* %0, i32 0, i32 6
  %7 = getelementptr inbounds %struct.GPR, %struct.GPR* %6, i32 0, i32 7
  %8 = getelementptr inbounds %struct.Reg, %struct.Reg* %7, i32 0, i32 0
  %EDX = bitcast %union.anon* %8 to i32*
  %9 = getelementptr inbounds %struct.State, %struct.State* %0, i32 0, i32 6
  %10 = getelementptr inbounds %struct.GPR, %struct.GPR* %9, i32 0, i32 15
  %11 = getelementptr inbounds %struct.Reg, %struct.Reg* %10, i32 0, i32 0
  %RBP = bitcast %union.anon* %11 to i64*
  %12 = load i64, i64* %RBP
  %13 = sub i64 %12, 12
  %14 = load i32, i32* %EDX
  %15 = zext i32 %14 to i64
  %16 = load i64, i64* %PC
  %17 = add i64 %16, 3
  store i64 %17, i64* %PC
  %18 = call %struct.Memory* @_ZN12_GLOBAL__N_1L3MOVI3MnWIjE2RnIjEEEP6MemoryS6_R5StateT_T0_(%struct.Memory* %2, %struct.State* %0, i64 %13, i64 %15)
  ret %struct.Memory* %18
}

define internal %struct.Memory* @_ZN12_GLOBAL__N_1L3MOVI3MnWImE2RnImEEEP6MemoryS6_R5StateT_T0_(%struct.Memory* readnone, %struct.State* nocapture readnone dereferenceable(3376), i64, i64) #8 {
  %5 = inttoptr i64 %2 to i64*
  store i64 %3, i64* %5
  ret %struct.Memory* %0
}

define %struct.Memory* @routine_movq__rcx__MINUS0x18__rbp_(%struct.State*  dereferenceable(3376), i64, %struct.Memory* ) #19 {
block_400488:
  %3 = getelementptr inbounds %struct.State, %struct.State* %0, i32 0, i32 6
  %4 = getelementptr inbounds %struct.GPR, %struct.GPR* %3, i32 0, i32 33
  %5 = getelementptr inbounds %struct.Reg, %struct.Reg* %4, i32 0, i32 0
  %PC = bitcast %union.anon* %5 to i64*
  %6 = getelementptr inbounds %struct.State, %struct.State* %0, i32 0, i32 6
  %7 = getelementptr inbounds %struct.GPR, %struct.GPR* %6, i32 0, i32 5
  %8 = getelementptr inbounds %struct.Reg, %struct.Reg* %7, i32 0, i32 0
  %RCX = bitcast %union.anon* %8 to i64*
  %9 = getelementptr inbounds %struct.State, %struct.State* %0, i32 0, i32 6
  %10 = getelementptr inbounds %struct.GPR, %struct.GPR* %9, i32 0, i32 15
  %11 = getelementptr inbounds %struct.Reg, %struct.Reg* %10, i32 0, i32 0
  %RBP = bitcast %union.anon* %11 to i64*
  %12 = load i64, i64* %RBP
  %13 = sub i64 %12, 24
  %14 = load i64, i64* %RCX
  %15 = load i64, i64* %PC
  %16 = add i64 %15, 4
  store i64 %16, i64* %PC
  %17 = call %struct.Memory* @_ZN12_GLOBAL__N_1L3MOVI3MnWImE2RnImEEEP6MemoryS6_R5StateT_T0_(%struct.Memory* %2, %struct.State* %0, i64 %13, i64 %14)
  ret %struct.Memory* %17
}


define %struct.Memory* @routine_movq__r8__MINUS0x20__rbp_(%struct.State*  dereferenceable(3376), i64, %struct.Memory* ) #19 {
block_400488:
  %3 = getelementptr inbounds %struct.State, %struct.State* %0, i32 0, i32 6
  %4 = getelementptr inbounds %struct.GPR, %struct.GPR* %3, i32 0, i32 33
  %5 = getelementptr inbounds %struct.Reg, %struct.Reg* %4, i32 0, i32 0
  %PC = bitcast %union.anon* %5 to i64*
  %6 = getelementptr inbounds %struct.State, %struct.State* %0, i32 0, i32 6
  %7 = getelementptr inbounds %struct.GPR, %struct.GPR* %6, i32 0, i32 15
  %8 = getelementptr inbounds %struct.Reg, %struct.Reg* %7, i32 0, i32 0
  %RBP = bitcast %union.anon* %8 to i64*
  %9 = getelementptr inbounds %struct.State, %struct.State* %0, i32 0, i32 6
  %10 = getelementptr inbounds %struct.GPR, %struct.GPR* %9, i32 0, i32 17
  %11 = getelementptr inbounds %struct.Reg, %struct.Reg* %10, i32 0, i32 0
  %R8 = bitcast %union.anon* %11 to i64*
  %12 = load i64, i64* %RBP
  %13 = sub i64 %12, 32
  %14 = load i64, i64* %R8
  %15 = load i64, i64* %PC
  %16 = add i64 %15, 4
  store i64 %16, i64* %PC
  %17 = call %struct.Memory* @_ZN12_GLOBAL__N_1L3MOVI3MnWImE2RnImEEEP6MemoryS6_R5StateT_T0_(%struct.Memory* %2, %struct.State* %0, i64 %13, i64 %14)
  ret %struct.Memory* %17
}


define %struct.Memory* @routine_movq__r9__MINUS0x28__rbp_(%struct.State*  dereferenceable(3376), i64, %struct.Memory* ) #19 {
block_400488:
  %3 = getelementptr inbounds %struct.State, %struct.State* %0, i32 0, i32 6
  %4 = getelementptr inbounds %struct.GPR, %struct.GPR* %3, i32 0, i32 33
  %5 = getelementptr inbounds %struct.Reg, %struct.Reg* %4, i32 0, i32 0
  %PC = bitcast %union.anon* %5 to i64*
  %6 = getelementptr inbounds %struct.State, %struct.State* %0, i32 0, i32 6
  %7 = getelementptr inbounds %struct.GPR, %struct.GPR* %6, i32 0, i32 15
  %8 = getelementptr inbounds %struct.Reg, %struct.Reg* %7, i32 0, i32 0
  %RBP = bitcast %union.anon* %8 to i64*
  %9 = getelementptr inbounds %struct.State, %struct.State* %0, i32 0, i32 6
  %10 = getelementptr inbounds %struct.GPR, %struct.GPR* %9, i32 0, i32 19
  %11 = getelementptr inbounds %struct.Reg, %struct.Reg* %10, i32 0, i32 0
  %R9 = bitcast %union.anon* %11 to i64*
  %12 = load i64, i64* %RBP
  %13 = sub i64 %12, 40
  %14 = load i64, i64* %R9
  %15 = load i64, i64* %PC
  %16 = add i64 %15, 4
  store i64 %16, i64* %PC
  %17 = call %struct.Memory* @_ZN12_GLOBAL__N_1L3MOVI3MnWImE2RnImEEEP6MemoryS6_R5StateT_T0_(%struct.Memory* %2, %struct.State* %0, i64 %13, i64 %14)
  ret %struct.Memory* %17
}


define %struct.Memory* @routine_movq__rax__MINUS0x30__rbp_(%struct.State*  dereferenceable(3376), i64, %struct.Memory* ) #19 {
block_400488:
  %3 = getelementptr inbounds %struct.State, %struct.State* %0, i32 0, i32 6
  %4 = getelementptr inbounds %struct.GPR, %struct.GPR* %3, i32 0, i32 33
  %5 = getelementptr inbounds %struct.Reg, %struct.Reg* %4, i32 0, i32 0
  %PC = bitcast %union.anon* %5 to i64*
  %6 = getelementptr inbounds %struct.State, %struct.State* %0, i32 0, i32 6
  %7 = getelementptr inbounds %struct.GPR, %struct.GPR* %6, i32 0, i32 1
  %8 = getelementptr inbounds %struct.Reg, %struct.Reg* %7, i32 0, i32 0
  %RAX = bitcast %union.anon* %8 to i64*
  %9 = getelementptr inbounds %struct.State, %struct.State* %0, i32 0, i32 6
  %10 = getelementptr inbounds %struct.GPR, %struct.GPR* %9, i32 0, i32 15
  %11 = getelementptr inbounds %struct.Reg, %struct.Reg* %10, i32 0, i32 0
  %RBP = bitcast %union.anon* %11 to i64*
  %12 = load i64, i64* %RBP
  %13 = sub i64 %12, 48
  %14 = load i64, i64* %RAX
  %15 = load i64, i64* %PC
  %16 = add i64 %15, 4
  store i64 %16, i64* %PC
  %17 = call %struct.Memory* @_ZN12_GLOBAL__N_1L3MOVI3MnWImE2RnImEEEP6MemoryS6_R5StateT_T0_(%struct.Memory* %2, %struct.State* %0, i64 %13, i64 %14)
  ret %struct.Memory* %17
}

define internal %struct.Memory* @_ZN12_GLOBAL__N_1L3MOVI3MnWIjE2InIjEEEP6MemoryS6_R5StateT_T0_(%struct.Memory* readnone, %struct.State* nocapture readnone dereferenceable(3376), i64, i64) #8 {
  %5 = trunc i64 %3 to i32
  %6 = inttoptr i64 %2 to i32*
  store i32 %5, i32* %6
  ret %struct.Memory* %0
}

define %struct.Memory* @routine_movl__0x0__MINUS0x34__rbp_(%struct.State*  dereferenceable(3376), i64, %struct.Memory* ) #19 {
block_400488:
  %3 = getelementptr inbounds %struct.State, %struct.State* %0, i32 0, i32 6
  %4 = getelementptr inbounds %struct.GPR, %struct.GPR* %3, i32 0, i32 33
  %5 = getelementptr inbounds %struct.Reg, %struct.Reg* %4, i32 0, i32 0
  %PC = bitcast %union.anon* %5 to i64*
  %6 = getelementptr inbounds %struct.State, %struct.State* %0, i32 0, i32 6
  %7 = getelementptr inbounds %struct.GPR, %struct.GPR* %6, i32 0, i32 15
  %8 = getelementptr inbounds %struct.Reg, %struct.Reg* %7, i32 0, i32 0
  %RBP = bitcast %union.anon* %8 to i64*
  %9 = load i64, i64* %RBP
  %10 = sub i64 %9, 52
  %11 = load i64, i64* %PC
  %12 = add i64 %11, 7
  store i64 %12, i64* %PC
  %13 = call %struct.Memory* @_ZN12_GLOBAL__N_1L3MOVI3MnWIjE2InIjEEEP6MemoryS6_R5StateT_T0_(%struct.Memory* %2, %struct.State* %0, i64 %10, i64 0)
  ret %struct.Memory* %13
}

define internal %struct.Memory* @_ZN12_GLOBAL__N_1L3MOVI3RnWImE2MnIjEEEP6MemoryS6_R5StateT_T0_(%struct.Memory* returned, %struct.State* nocapture readnone dereferenceable(3376), i64* nocapture, i64) #0 {
  %5 = inttoptr i64 %3 to i32*
  %6 = load i32, i32* %5
  %7 = zext i32 %6 to i64
  store i64 %7, i64* %2, align 8
  ret %struct.Memory* %0
}

define %struct.Memory* @routine_movl_MINUS0x34__rbp____eax(%struct.State*  dereferenceable(3376), i64, %struct.Memory* ) #19 {
block_400488:
  %3 = getelementptr inbounds %struct.State, %struct.State* %0, i32 0, i32 6
  %4 = getelementptr inbounds %struct.GPR, %struct.GPR* %3, i32 0, i32 33
  %5 = getelementptr inbounds %struct.Reg, %struct.Reg* %4, i32 0, i32 0
  %PC = bitcast %union.anon* %5 to i64*
  %6 = getelementptr inbounds %struct.State, %struct.State* %0, i32 0, i32 6
  %7 = getelementptr inbounds %struct.GPR, %struct.GPR* %6, i32 0, i32 1
  %8 = getelementptr inbounds %struct.Reg, %struct.Reg* %7, i32 0, i32 0
  %RAX = bitcast %union.anon* %8 to i64*
  %9 = getelementptr inbounds %struct.State, %struct.State* %0, i32 0, i32 6
  %10 = getelementptr inbounds %struct.GPR, %struct.GPR* %9, i32 0, i32 15
  %11 = getelementptr inbounds %struct.Reg, %struct.Reg* %10, i32 0, i32 0
  %RBP = bitcast %union.anon* %11 to i64*
  %12 = load i64, i64* %RBP
  %13 = sub i64 %12, 52
  %14 = load i64, i64* %PC
  %15 = add i64 %14, 3
  store i64 %15, i64* %PC
  %16 = call %struct.Memory* @_ZN12_GLOBAL__N_1L3MOVI3RnWImE2MnIjEEEP6MemoryS6_R5StateT_T0_(%struct.Memory* %2, %struct.State* %0, i64* %RAX, i64 %13)
  ret %struct.Memory* %16
}

define internal %struct.Memory* @_ZN12_GLOBAL__N_1L3CMPI2RnIjE2MnIjEEEP6MemoryS6_R5StateT_T0_(%struct.Memory*, %struct.State* nocapture dereferenceable(3376), i64, i64) #0 {
  %5 = trunc i64 %2 to i32
  %6 = inttoptr i64 %3 to i32*
  %7 = load i32, i32* %6
  %8 = sub i32 %5, %7
  %9 = icmp ult i32 %5, %7
  %10 = zext i1 %9 to i8
  %11 = getelementptr inbounds %struct.State, %struct.State* %1, i64 0, i32 2, i32 1
  store i8 %10, i8* %11, align 1
  %12 = and i32 %8, 255
  %13 = tail call i32 @llvm.ctpop.i32(i32 %12) #22
  %14 = trunc i32 %13 to i8
  %15 = and i8 %14, 1
  %16 = xor i8 %15, 1
  %17 = getelementptr inbounds %struct.State, %struct.State* %1, i64 0, i32 2, i32 3
  store i8 %16, i8* %17, align 1
  %18 = xor i32 %7, %5
  %19 = xor i32 %18, %8
  %20 = lshr i32 %19, 4
  %21 = trunc i32 %20 to i8
  %22 = and i8 %21, 1
  %23 = getelementptr inbounds %struct.State, %struct.State* %1, i64 0, i32 2, i32 5
  store i8 %22, i8* %23, align 1
  %24 = icmp eq i32 %8, 0
  %25 = zext i1 %24 to i8
  %26 = getelementptr inbounds %struct.State, %struct.State* %1, i64 0, i32 2, i32 7
  store i8 %25, i8* %26, align 1
  %27 = lshr i32 %8, 31
  %28 = trunc i32 %27 to i8
  %29 = getelementptr inbounds %struct.State, %struct.State* %1, i64 0, i32 2, i32 9
  store i8 %28, i8* %29, align 1
  %30 = lshr i32 %5, 31
  %31 = lshr i32 %7, 31
  %32 = xor i32 %31, %30
  %33 = xor i32 %27, %30
  %34 = add   i32 %33, %32
  %35 = icmp eq i32 %34, 2
  %36 = zext i1 %35 to i8
  %37 = getelementptr inbounds %struct.State, %struct.State* %1, i64 0, i32 2, i32 13
  store i8 %36, i8* %37, align 1
  ret %struct.Memory* %0
}

define %struct.Memory* @routine_cmpl_MINUS0x4__rbp____eax(%struct.State*  dereferenceable(3376), i64, %struct.Memory* ) #19 {
block_400488:
  %3 = getelementptr inbounds %struct.State, %struct.State* %0, i32 0, i32 6
  %4 = getelementptr inbounds %struct.GPR, %struct.GPR* %3, i32 0, i32 33
  %5 = getelementptr inbounds %struct.Reg, %struct.Reg* %4, i32 0, i32 0
  %PC = bitcast %union.anon* %5 to i64*
  %6 = getelementptr inbounds %struct.State, %struct.State* %0, i32 0, i32 6
  %7 = getelementptr inbounds %struct.GPR, %struct.GPR* %6, i32 0, i32 1
  %8 = getelementptr inbounds %struct.Reg, %struct.Reg* %7, i32 0, i32 0
  %EAX = bitcast %union.anon* %8 to i32*
  %9 = getelementptr inbounds %struct.State, %struct.State* %0, i32 0, i32 6
  %10 = getelementptr inbounds %struct.GPR, %struct.GPR* %9, i32 0, i32 15
  %11 = getelementptr inbounds %struct.Reg, %struct.Reg* %10, i32 0, i32 0
  %RBP = bitcast %union.anon* %11 to i64*
  %12 = load i32, i32* %EAX
  %13 = zext i32 %12 to i64
  %14 = load i64, i64* %RBP
  %15 = sub i64 %14, 4
  %16 = load i64, i64* %PC
  %17 = add i64 %16, 3
  store i64 %17, i64* %PC
  %18 = call %struct.Memory* @_ZN12_GLOBAL__N_1L3CMPI2RnIjE2MnIjEEEP6MemoryS6_R5StateT_T0_(%struct.Memory* %2, %struct.State* %0, i64 %13, i64 %15)
  ret %struct.Memory* %18
}

define internal %struct.Memory* @_ZN12_GLOBAL__N_1L3JNLEP6MemoryR5State3RnWIhE2InImES7_(%struct.Memory* readnone returned, %struct.State* nocapture dereferenceable(3376), i8* nocapture, i64, i64) #2 {
  %6 = getelementptr inbounds %struct.State, %struct.State* %1, i64 0, i32 2, i32 9
  %7 = load i8, i8* %6, align 1
  %8 = icmp ne i8 %7, 0
  %9 = getelementptr inbounds %struct.State, %struct.State* %1, i64 0, i32 2, i32 13
  %10 = load i8, i8* %9, align 1
  %11 = icmp ne i8 %10, 0
  %12 = xor i1 %8, %11
  %13 = xor i1 %12, true
  %14 = zext i1 %13 to i8
  store i8 %14, i8* %2, align 1
  %15 = getelementptr inbounds %struct.State, %struct.State* %1, i64 0, i32 6, i32 33, i32 0, i32 0
  %16 = select i1 %12, i64 %4, i64 %3
  store i64 %16, i64* %15, align 8
  ret %struct.Memory* %0
}

define %struct.Memory* @routine_jge_.L_40129f(%struct.State*  dereferenceable(3376), i64, %struct.Memory*, i8* %BRANCH_TAKEN, i64 %rel_off1, i64 %rel_off2, i64 %rel_off3) {
block_400488:
  %3 = getelementptr inbounds %struct.State, %struct.State* %0, i32 0, i32 6
  %4 = getelementptr inbounds %struct.GPR, %struct.GPR* %3, i32 0, i32 33
  %5 = getelementptr inbounds %struct.Reg, %struct.Reg* %4, i32 0, i32 0
  %PC = bitcast %union.anon* %5 to i64*
  %6 = load i64, i64* %PC
  %7 = add i64 %6, %rel_off1
  %8 = load i64, i64* %PC
  %9 = add i64 %8, %rel_off2
  %10 = load i64, i64* %PC
  %11 = add i64 %10, %rel_off3
  store i64 %11, i64* %PC
  %12 = call %struct.Memory* @_ZN12_GLOBAL__N_1L3JNLEP6MemoryR5State3RnWIhE2InImES7_(%struct.Memory* %2, %struct.State* %0, i8* %BRANCH_TAKEN, i64 %7, i64 %9)
  ret %struct.Memory* %12
}


define %struct.Memory* @routine_movl__0x0__MINUS0x3c__rbp_(%struct.State*  dereferenceable(3376), i64, %struct.Memory* ) #19 {
block_400488:
  %3 = getelementptr inbounds %struct.State, %struct.State* %0, i32 0, i32 6
  %4 = getelementptr inbounds %struct.GPR, %struct.GPR* %3, i32 0, i32 33
  %5 = getelementptr inbounds %struct.Reg, %struct.Reg* %4, i32 0, i32 0
  %PC = bitcast %union.anon* %5 to i64*
  %6 = getelementptr inbounds %struct.State, %struct.State* %0, i32 0, i32 6
  %7 = getelementptr inbounds %struct.GPR, %struct.GPR* %6, i32 0, i32 15
  %8 = getelementptr inbounds %struct.Reg, %struct.Reg* %7, i32 0, i32 0
  %RBP = bitcast %union.anon* %8 to i64*
  %9 = load i64, i64* %RBP
  %10 = sub i64 %9, 60
  %11 = load i64, i64* %PC
  %12 = add i64 %11, 7
  store i64 %12, i64* %PC
  %13 = call %struct.Memory* @_ZN12_GLOBAL__N_1L3MOVI3MnWIjE2InIjEEEP6MemoryS6_R5StateT_T0_(%struct.Memory* %2, %struct.State* %0, i64 %10, i64 0)
  ret %struct.Memory* %13
}


define %struct.Memory* @routine_movl_MINUS0x3c__rbp____eax(%struct.State*  dereferenceable(3376), i64, %struct.Memory* ) #19 {
block_400488:
  %3 = getelementptr inbounds %struct.State, %struct.State* %0, i32 0, i32 6
  %4 = getelementptr inbounds %struct.GPR, %struct.GPR* %3, i32 0, i32 33
  %5 = getelementptr inbounds %struct.Reg, %struct.Reg* %4, i32 0, i32 0
  %PC = bitcast %union.anon* %5 to i64*
  %6 = getelementptr inbounds %struct.State, %struct.State* %0, i32 0, i32 6
  %7 = getelementptr inbounds %struct.GPR, %struct.GPR* %6, i32 0, i32 1
  %8 = getelementptr inbounds %struct.Reg, %struct.Reg* %7, i32 0, i32 0
  %RAX = bitcast %union.anon* %8 to i64*
  %9 = getelementptr inbounds %struct.State, %struct.State* %0, i32 0, i32 6
  %10 = getelementptr inbounds %struct.GPR, %struct.GPR* %9, i32 0, i32 15
  %11 = getelementptr inbounds %struct.Reg, %struct.Reg* %10, i32 0, i32 0
  %RBP = bitcast %union.anon* %11 to i64*
  %12 = load i64, i64* %RBP
  %13 = sub i64 %12, 60
  %14 = load i64, i64* %PC
  %15 = add i64 %14, 3
  store i64 %15, i64* %PC
  %16 = call %struct.Memory* @_ZN12_GLOBAL__N_1L3MOVI3RnWImE2MnIjEEEP6MemoryS6_R5StateT_T0_(%struct.Memory* %2, %struct.State* %0, i64* %RAX, i64 %13)
  ret %struct.Memory* %16
}


define %struct.Memory* @routine_cmpl_MINUS0xc__rbp____eax(%struct.State*  dereferenceable(3376), i64, %struct.Memory* ) #19 {
block_400488:
  %3 = getelementptr inbounds %struct.State, %struct.State* %0, i32 0, i32 6
  %4 = getelementptr inbounds %struct.GPR, %struct.GPR* %3, i32 0, i32 33
  %5 = getelementptr inbounds %struct.Reg, %struct.Reg* %4, i32 0, i32 0
  %PC = bitcast %union.anon* %5 to i64*
  %6 = getelementptr inbounds %struct.State, %struct.State* %0, i32 0, i32 6
  %7 = getelementptr inbounds %struct.GPR, %struct.GPR* %6, i32 0, i32 1
  %8 = getelementptr inbounds %struct.Reg, %struct.Reg* %7, i32 0, i32 0
  %EAX = bitcast %union.anon* %8 to i32*
  %9 = getelementptr inbounds %struct.State, %struct.State* %0, i32 0, i32 6
  %10 = getelementptr inbounds %struct.GPR, %struct.GPR* %9, i32 0, i32 15
  %11 = getelementptr inbounds %struct.Reg, %struct.Reg* %10, i32 0, i32 0
  %RBP = bitcast %union.anon* %11 to i64*
  %12 = load i32, i32* %EAX
  %13 = zext i32 %12 to i64
  %14 = load i64, i64* %RBP
  %15 = sub i64 %14, 12
  %16 = load i64, i64* %PC
  %17 = add i64 %16, 3
  store i64 %17, i64* %PC
  %18 = call %struct.Memory* @_ZN12_GLOBAL__N_1L3CMPI2RnIjE2MnIjEEEP6MemoryS6_R5StateT_T0_(%struct.Memory* %2, %struct.State* %0, i64 %13, i64 %15)
  ret %struct.Memory* %18
}


define %struct.Memory* @routine_jge_.L_400fef(%struct.State*  dereferenceable(3376), i64, %struct.Memory*, i8* %BRANCH_TAKEN, i64 %rel_off1, i64 %rel_off2, i64 %rel_off3) {
block_400488:
  %3 = getelementptr inbounds %struct.State, %struct.State* %0, i32 0, i32 6
  %4 = getelementptr inbounds %struct.GPR, %struct.GPR* %3, i32 0, i32 33
  %5 = getelementptr inbounds %struct.Reg, %struct.Reg* %4, i32 0, i32 0
  %PC = bitcast %union.anon* %5 to i64*
  %6 = load i64, i64* %PC
  %7 = add i64 %6, %rel_off1
  %8 = load i64, i64* %PC
  %9 = add i64 %8, %rel_off2
  %10 = load i64, i64* %PC
  %11 = add i64 %10, %rel_off3
  store i64 %11, i64* %PC
  %12 = call %struct.Memory* @_ZN12_GLOBAL__N_1L3JNLEP6MemoryR5State3RnWIhE2InImES7_(%struct.Memory* %2, %struct.State* %0, i8* %BRANCH_TAKEN, i64 %7, i64 %9)
  ret %struct.Memory* %12
}


define %struct.Memory* @routine_movq_MINUS0x30__rbp____rax(%struct.State*  dereferenceable(3376), i64, %struct.Memory* ) #19 {
block_400488:
  %3 = getelementptr inbounds %struct.State, %struct.State* %0, i32 0, i32 6
  %4 = getelementptr inbounds %struct.GPR, %struct.GPR* %3, i32 0, i32 33
  %5 = getelementptr inbounds %struct.Reg, %struct.Reg* %4, i32 0, i32 0
  %PC = bitcast %union.anon* %5 to i64*
  %6 = getelementptr inbounds %struct.State, %struct.State* %0, i32 0, i32 6
  %7 = getelementptr inbounds %struct.GPR, %struct.GPR* %6, i32 0, i32 1
  %8 = getelementptr inbounds %struct.Reg, %struct.Reg* %7, i32 0, i32 0
  %RAX = bitcast %union.anon* %8 to i64*
  %9 = getelementptr inbounds %struct.State, %struct.State* %0, i32 0, i32 6
  %10 = getelementptr inbounds %struct.GPR, %struct.GPR* %9, i32 0, i32 15
  %11 = getelementptr inbounds %struct.Reg, %struct.Reg* %10, i32 0, i32 0
  %RBP = bitcast %union.anon* %11 to i64*
  %12 = load i64, i64* %RBP
  %13 = sub i64 %12, 48
  %14 = load i64, i64* %PC
  %15 = add i64 %14, 4
  store i64 %15, i64* %PC
  %16 = call %struct.Memory* @_ZN12_GLOBAL__N_1L3MOVI3RnWImE2MnImEEEP6MemoryS6_R5StateT_T0_(%struct.Memory* %2, %struct.State* %0, i64* %RAX, i64 %13)
  ret %struct.Memory* %16
}

define internal %struct.Memory* @_ZN12_GLOBAL__N_1L5MOVSXI3RnWImE2MnIjElEEP6MemoryS6_R5StateT_T0_(%struct.Memory* returned, %struct.State* nocapture readnone dereferenceable(3376), i64* nocapture, i64) #0 {
  %5 = inttoptr i64 %3 to i32*
  %6 = load i32, i32* %5
  %7 = sext i32 %6 to i64
  store i64 %7, i64* %2, align 8
  ret %struct.Memory* %0
}

define %struct.Memory* @routine_movslq_MINUS0x34__rbp____rcx(%struct.State*  dereferenceable(3376), i64, %struct.Memory* ) #19 {
block_400488:
  %3 = getelementptr inbounds %struct.State, %struct.State* %0, i32 0, i32 6
  %4 = getelementptr inbounds %struct.GPR, %struct.GPR* %3, i32 0, i32 33
  %5 = getelementptr inbounds %struct.Reg, %struct.Reg* %4, i32 0, i32 0
  %PC = bitcast %union.anon* %5 to i64*
  %6 = getelementptr inbounds %struct.State, %struct.State* %0, i32 0, i32 6
  %7 = getelementptr inbounds %struct.GPR, %struct.GPR* %6, i32 0, i32 5
  %8 = getelementptr inbounds %struct.Reg, %struct.Reg* %7, i32 0, i32 0
  %RCX = bitcast %union.anon* %8 to i64*
  %9 = getelementptr inbounds %struct.State, %struct.State* %0, i32 0, i32 6
  %10 = getelementptr inbounds %struct.GPR, %struct.GPR* %9, i32 0, i32 15
  %11 = getelementptr inbounds %struct.Reg, %struct.Reg* %10, i32 0, i32 0
  %RBP = bitcast %union.anon* %11 to i64*
  %12 = load i64, i64* %RBP
  %13 = sub i64 %12, 52
  %14 = load i64, i64* %PC
  %15 = add i64 %14, 4
  store i64 %15, i64* %PC
  %16 = call %struct.Memory* @_ZN12_GLOBAL__N_1L5MOVSXI3RnWImE2MnIjElEEP6MemoryS6_R5StateT_T0_(%struct.Memory* %2, %struct.State* %0, i64* %RCX, i64 %13)
  ret %struct.Memory* %16
}

define internal %struct.Memory* @_ZN12_GLOBAL__N_1L9MOVSD_MEMI3VnWI8vec128_tE3MVnI7vec64_tEEEP6MemoryS8_R5StateT_T0_(%struct.Memory* returned, %struct.State* nocapture readnone dereferenceable(3376), i8* nocapture, i64) #0 {
  %5 = inttoptr i64 %3 to double*
  %6 = load double, double* %5
  %7 = bitcast i8* %2 to double*
  store double %6, double* %7, align 1
  %8 = getelementptr inbounds i8, i8* %2, i64 8
  %9 = bitcast i8* %8 to double*
  store double 0.000000e+00, double* %9, align 1
  ret %struct.Memory* %0
}

define %struct.Memory* @routine_movsd___rax__rcx_8____xmm0(%struct.State*  dereferenceable(3376), i64, %struct.Memory* ) #19 {
block_400488:
  %3 = getelementptr inbounds %struct.State, %struct.State* %0, i32 0, i32 6
  %4 = getelementptr inbounds %struct.GPR, %struct.GPR* %3, i32 0, i32 33
  %5 = getelementptr inbounds %struct.Reg, %struct.Reg* %4, i32 0, i32 0
  %PC = bitcast %union.anon* %5 to i64*
  %6 = getelementptr inbounds %struct.State, %struct.State* %0, i32 0, i32 6
  %7 = getelementptr inbounds %struct.GPR, %struct.GPR* %6, i32 0, i32 1
  %8 = getelementptr inbounds %struct.Reg, %struct.Reg* %7, i32 0, i32 0
  %RAX = bitcast %union.anon* %8 to i64*
  %9 = getelementptr inbounds %struct.State, %struct.State* %0, i32 0, i32 6
  %10 = getelementptr inbounds %struct.GPR, %struct.GPR* %9, i32 0, i32 5
  %11 = getelementptr inbounds %struct.Reg, %struct.Reg* %10, i32 0, i32 0
  %RCX = bitcast %union.anon* %11 to i64*
  %12 = getelementptr inbounds %struct.State, %struct.State* %0, i32 0, i32 1
  %13 = getelementptr inbounds [32 x %union.VectorReg], [32 x %union.VectorReg]* %12, i64 0, i64 0
  %YMM0 = bitcast %union.VectorReg* %13 to %"class.std::bitset"*
  %14 = bitcast %"class.std::bitset"* %YMM0 to i8*
  %15 = load i64, i64* %RAX
  %16 = load i64, i64* %RCX
  %17 = mul i64 %16, 8
  %18 = add i64 %17, %15
  %19 = load i64, i64* %PC
  %20 = add i64 %19, 5
  store i64 %20, i64* %PC
  %21 = call %struct.Memory* @_ZN12_GLOBAL__N_1L9MOVSD_MEMI3VnWI8vec128_tE3MVnI7vec64_tEEEP6MemoryS8_R5StateT_T0_(%struct.Memory* %2, %struct.State* %0, i8* %14, i64 %18)
  ret %struct.Memory* %21
}


define %struct.Memory* @routine_movq_MINUS0x20__rbp____rax(%struct.State*  dereferenceable(3376), i64, %struct.Memory* ) #19 {
block_400488:
  %3 = getelementptr inbounds %struct.State, %struct.State* %0, i32 0, i32 6
  %4 = getelementptr inbounds %struct.GPR, %struct.GPR* %3, i32 0, i32 33
  %5 = getelementptr inbounds %struct.Reg, %struct.Reg* %4, i32 0, i32 0
  %PC = bitcast %union.anon* %5 to i64*
  %6 = getelementptr inbounds %struct.State, %struct.State* %0, i32 0, i32 6
  %7 = getelementptr inbounds %struct.GPR, %struct.GPR* %6, i32 0, i32 1
  %8 = getelementptr inbounds %struct.Reg, %struct.Reg* %7, i32 0, i32 0
  %RAX = bitcast %union.anon* %8 to i64*
  %9 = getelementptr inbounds %struct.State, %struct.State* %0, i32 0, i32 6
  %10 = getelementptr inbounds %struct.GPR, %struct.GPR* %9, i32 0, i32 15
  %11 = getelementptr inbounds %struct.Reg, %struct.Reg* %10, i32 0, i32 0
  %RBP = bitcast %union.anon* %11 to i64*
  %12 = load i64, i64* %RBP
  %13 = sub i64 %12, 32
  %14 = load i64, i64* %PC
  %15 = add i64 %14, 4
  store i64 %15, i64* %PC
  %16 = call %struct.Memory* @_ZN12_GLOBAL__N_1L3MOVI3RnWImE2MnImEEEP6MemoryS6_R5StateT_T0_(%struct.Memory* %2, %struct.State* %0, i64* %RAX, i64 %13)
  ret %struct.Memory* %16
}


define %struct.Memory* @routine_movslq_MINUS0x3c__rbp____rcx(%struct.State*  dereferenceable(3376), i64, %struct.Memory* ) #19 {
block_400488:
  %3 = getelementptr inbounds %struct.State, %struct.State* %0, i32 0, i32 6
  %4 = getelementptr inbounds %struct.GPR, %struct.GPR* %3, i32 0, i32 33
  %5 = getelementptr inbounds %struct.Reg, %struct.Reg* %4, i32 0, i32 0
  %PC = bitcast %union.anon* %5 to i64*
  %6 = getelementptr inbounds %struct.State, %struct.State* %0, i32 0, i32 6
  %7 = getelementptr inbounds %struct.GPR, %struct.GPR* %6, i32 0, i32 5
  %8 = getelementptr inbounds %struct.Reg, %struct.Reg* %7, i32 0, i32 0
  %RCX = bitcast %union.anon* %8 to i64*
  %9 = getelementptr inbounds %struct.State, %struct.State* %0, i32 0, i32 6
  %10 = getelementptr inbounds %struct.GPR, %struct.GPR* %9, i32 0, i32 15
  %11 = getelementptr inbounds %struct.Reg, %struct.Reg* %10, i32 0, i32 0
  %RBP = bitcast %union.anon* %11 to i64*
  %12 = load i64, i64* %RBP
  %13 = sub i64 %12, 60
  %14 = load i64, i64* %PC
  %15 = add i64 %14, 4
  store i64 %15, i64* %PC
  %16 = call %struct.Memory* @_ZN12_GLOBAL__N_1L5MOVSXI3RnWImE2MnIjElEEP6MemoryS6_R5StateT_T0_(%struct.Memory* %2, %struct.State* %0, i64* %RCX, i64 %13)
  ret %struct.Memory* %16
}

define internal %struct.Memory* @_ZN12_GLOBAL__N_1L9MOVSD_MEMI4MVnWI7vec64_tE2VnI8vec128_tEEEP6MemoryS8_R5StateT_T0_(%struct.Memory* readnone, %struct.State* nocapture readnone dereferenceable(3376), i64, i8* nocapture readonly) #7 {
  %5 = bitcast i8* %3 to double*
  %6 = load double, double* %5, align 1
  %7 = inttoptr i64 %2 to double*
  store double %6, double* %7
  ret %struct.Memory* %0
}

define %struct.Memory* @routine_movsd__xmm0____rax__rcx_8_(%struct.State*  dereferenceable(3376), i64, %struct.Memory* ) #19 {
block_400488:
  %3 = getelementptr inbounds %struct.State, %struct.State* %0, i32 0, i32 6
  %4 = getelementptr inbounds %struct.GPR, %struct.GPR* %3, i32 0, i32 33
  %5 = getelementptr inbounds %struct.Reg, %struct.Reg* %4, i32 0, i32 0
  %PC = bitcast %union.anon* %5 to i64*
  %6 = getelementptr inbounds %struct.State, %struct.State* %0, i32 0, i32 6
  %7 = getelementptr inbounds %struct.GPR, %struct.GPR* %6, i32 0, i32 1
  %8 = getelementptr inbounds %struct.Reg, %struct.Reg* %7, i32 0, i32 0
  %RAX = bitcast %union.anon* %8 to i64*
  %9 = getelementptr inbounds %struct.State, %struct.State* %0, i32 0, i32 6
  %10 = getelementptr inbounds %struct.GPR, %struct.GPR* %9, i32 0, i32 5
  %11 = getelementptr inbounds %struct.Reg, %struct.Reg* %10, i32 0, i32 0
  %RCX = bitcast %union.anon* %11 to i64*
  %12 = getelementptr inbounds %struct.State, %struct.State* %0, i32 0, i32 1
  %13 = getelementptr inbounds [32 x %union.VectorReg], [32 x %union.VectorReg]* %12, i64 0, i64 0
  %XMM0 = bitcast %union.VectorReg* %13 to %union.vec128_t*
  %14 = load i64, i64* %RAX
  %15 = load i64, i64* %RCX
  %16 = mul i64 %15, 8
  %17 = add i64 %16, %14
  %18 = bitcast %union.vec128_t* %XMM0 to i8*
  %19 = load i64, i64* %PC
  %20 = add i64 %19, 5
  store i64 %20, i64* %PC
  %21 = call %struct.Memory* @_ZN12_GLOBAL__N_1L9MOVSD_MEMI4MVnWI7vec64_tE2VnI8vec128_tEEEP6MemoryS8_R5StateT_T0_(%struct.Memory* %2, %struct.State* %0, i64 %17, i8* %18)
  ret %struct.Memory* %21
}



define internal %struct.Memory* @_ZN12_GLOBAL__N_1L3ADDI3RnWImE2RnIjE2InIjEEEP6MemoryS8_R5StateT_T0_T1_(%struct.Memory* readnone returned, %struct.State* nocapture dereferenceable(3376), i64* nocapture, i64, i64) #0 {
  %6 = trunc i64 %3 to i32
  %7 = trunc i64 %4 to i32
  %8 = add i32 %7, %6
  %9 = zext i32 %8 to i64
  store i64 %9, i64* %2, align 8
  %10 = icmp ult i32 %8, %6
  %11 = icmp ult i32 %8, %7
  %12 = or i1 %10, %11
  %13 = zext i1 %12 to i8
  %14 = getelementptr inbounds %struct.State, %struct.State* %1, i64 0, i32 2, i32 1
  store i8 %13, i8* %14, align 1
  %15 = and i32 %8, 255
  %16 = tail call i32 @llvm.ctpop.i32(i32 %15) #22
  %17 = trunc i32 %16 to i8
  %18 = and i8 %17, 1
  %19 = xor i8 %18, 1
  %20 = getelementptr inbounds %struct.State, %struct.State* %1, i64 0, i32 2, i32 3
  store i8 %19, i8* %20, align 1
  %21 = xor i64 %4, %3
  %22 = trunc i64 %21 to i32
  %23 = xor i32 %22, %8
  %24 = lshr i32 %23, 4
  %25 = trunc i32 %24 to i8
  %26 = and i8 %25, 1
  %27 = getelementptr inbounds %struct.State, %struct.State* %1, i64 0, i32 2, i32 5
  store i8 %26, i8* %27, align 1
  %28 = icmp eq i32 %8, 0
  %29 = zext i1 %28 to i8
  %30 = getelementptr inbounds %struct.State, %struct.State* %1, i64 0, i32 2, i32 7
  store i8 %29, i8* %30, align 1
  %31 = lshr i32 %8, 31
  %32 = trunc i32 %31 to i8
  %33 = getelementptr inbounds %struct.State, %struct.State* %1, i64 0, i32 2, i32 9
  store i8 %32, i8* %33, align 1
  %34 = lshr i32 %6, 31
  %35 = lshr i32 %7, 31
  %36 = xor i32 %31, %34
  %37 = xor i32 %31, %35
  %38 = add   i32 %36, %37
  %39 = icmp eq i32 %38, 2
  %40 = zext i1 %39 to i8
  %41 = getelementptr inbounds %struct.State, %struct.State* %1, i64 0, i32 2, i32 13
  store i8 %40, i8* %41, align 1
  ret %struct.Memory* %0
}

define %struct.Memory* @routine_addl__0x1___eax(%struct.State*  dereferenceable(3376), i64, %struct.Memory* ) #19 {
block_400488:
  %3 = getelementptr inbounds %struct.State, %struct.State* %0, i32 0, i32 6
  %4 = getelementptr inbounds %struct.GPR, %struct.GPR* %3, i32 0, i32 33
  %5 = getelementptr inbounds %struct.Reg, %struct.Reg* %4, i32 0, i32 0
  %PC = bitcast %union.anon* %5 to i64*
  %6 = getelementptr inbounds %struct.State, %struct.State* %0, i32 0, i32 6
  %7 = getelementptr inbounds %struct.GPR, %struct.GPR* %6, i32 0, i32 1
  %8 = getelementptr inbounds %struct.Reg, %struct.Reg* %7, i32 0, i32 0
  %RAX = bitcast %union.anon* %8 to i64*
  %9 = load i64, i64* %RAX
  %10 = load i64, i64* %PC
  %11 = add i64 %10, 3
  store i64 %11, i64* %PC
  %12 = call %struct.Memory* @_ZN12_GLOBAL__N_1L3ADDI3RnWImE2RnIjE2InIjEEEP6MemoryS8_R5StateT_T0_T1_(%struct.Memory* %2, %struct.State* %0, i64* %RAX, i64 %9, i64 1)
  ret %struct.Memory* %12
}


define %struct.Memory* @routine_movl__eax__MINUS0x3c__rbp_(%struct.State*  dereferenceable(3376), i64, %struct.Memory* ) #19 {
block_400488:
  %3 = getelementptr inbounds %struct.State, %struct.State* %0, i32 0, i32 6
  %4 = getelementptr inbounds %struct.GPR, %struct.GPR* %3, i32 0, i32 33
  %5 = getelementptr inbounds %struct.Reg, %struct.Reg* %4, i32 0, i32 0
  %PC = bitcast %union.anon* %5 to i64*
  %6 = getelementptr inbounds %struct.State, %struct.State* %0, i32 0, i32 6
  %7 = getelementptr inbounds %struct.GPR, %struct.GPR* %6, i32 0, i32 1
  %8 = getelementptr inbounds %struct.Reg, %struct.Reg* %7, i32 0, i32 0
  %EAX = bitcast %union.anon* %8 to i32*
  %9 = getelementptr inbounds %struct.State, %struct.State* %0, i32 0, i32 6
  %10 = getelementptr inbounds %struct.GPR, %struct.GPR* %9, i32 0, i32 15
  %11 = getelementptr inbounds %struct.Reg, %struct.Reg* %10, i32 0, i32 0
  %RBP = bitcast %union.anon* %11 to i64*
  %12 = load i64, i64* %RBP
  %13 = sub i64 %12, 60
  %14 = load i32, i32* %EAX
  %15 = zext i32 %14 to i64
  %16 = load i64, i64* %PC
  %17 = add i64 %16, 3
  store i64 %17, i64* %PC
  %18 = call %struct.Memory* @_ZN12_GLOBAL__N_1L3MOVI3MnWIjE2RnIjEEEP6MemoryS6_R5StateT_T0_(%struct.Memory* %2, %struct.State* %0, i64 %13, i64 %15)
  ret %struct.Memory* %18
}

define internal %struct.Memory* @_ZN12_GLOBAL__N_1L3JMPI2InImEEEP6MemoryS4_R5StateT_(%struct.Memory* readnone returned, %struct.State* nocapture dereferenceable(3376), i64) #2 {
  %4 = getelementptr inbounds %struct.State, %struct.State* %1, i64 0, i32 6, i32 33, i32 0, i32 0
  store i64 %2, i64* %4, align 8
  ret %struct.Memory* %0
}

define %struct.Memory* @routine_jmpq_.L_400fbb(%struct.State*  dereferenceable(3376), i64, %struct.Memory*, i64 %rel_off1, i64 %rel_off2) {
block_400488:
  %3 = getelementptr inbounds %struct.State, %struct.State* %0, i32 0, i32 6
  %4 = getelementptr inbounds %struct.GPR, %struct.GPR* %3, i32 0, i32 33
  %5 = getelementptr inbounds %struct.Reg, %struct.Reg* %4, i32 0, i32 0
  %PC = bitcast %union.anon* %5 to i64*
  %6 = load i64, i64* %PC
  %7 = add i64 %6, %rel_off1
  %8 = load i64, i64* %PC
  %9 = add i64 %8, %rel_off2
  store i64 %9, i64* %PC
  %10 = call %struct.Memory* @_ZN12_GLOBAL__N_1L3JMPI2InImEEEP6MemoryS4_R5StateT_(%struct.Memory* %2, %struct.State* %0, i64 %7)
  ret %struct.Memory* %10
}


define %struct.Memory* @routine_movl__0x1__MINUS0x38__rbp_(%struct.State*  dereferenceable(3376), i64, %struct.Memory* ) #19 {
block_400488:
  %3 = getelementptr inbounds %struct.State, %struct.State* %0, i32 0, i32 6
  %4 = getelementptr inbounds %struct.GPR, %struct.GPR* %3, i32 0, i32 33
  %5 = getelementptr inbounds %struct.Reg, %struct.Reg* %4, i32 0, i32 0
  %PC = bitcast %union.anon* %5 to i64*
  %6 = getelementptr inbounds %struct.State, %struct.State* %0, i32 0, i32 6
  %7 = getelementptr inbounds %struct.GPR, %struct.GPR* %6, i32 0, i32 15
  %8 = getelementptr inbounds %struct.Reg, %struct.Reg* %7, i32 0, i32 0
  %RBP = bitcast %union.anon* %8 to i64*
  %9 = load i64, i64* %RBP
  %10 = sub i64 %9, 56
  %11 = load i64, i64* %PC
  %12 = add i64 %11, 7
  store i64 %12, i64* %PC
  %13 = call %struct.Memory* @_ZN12_GLOBAL__N_1L3MOVI3MnWIjE2InIjEEEP6MemoryS6_R5StateT_T0_(%struct.Memory* %2, %struct.State* %0, i64 %10, i64 1)
  ret %struct.Memory* %13
}


define %struct.Memory* @routine_movl_MINUS0x38__rbp____eax(%struct.State*  dereferenceable(3376), i64, %struct.Memory* ) #19 {
block_400488:
  %3 = getelementptr inbounds %struct.State, %struct.State* %0, i32 0, i32 6
  %4 = getelementptr inbounds %struct.GPR, %struct.GPR* %3, i32 0, i32 33
  %5 = getelementptr inbounds %struct.Reg, %struct.Reg* %4, i32 0, i32 0
  %PC = bitcast %union.anon* %5 to i64*
  %6 = getelementptr inbounds %struct.State, %struct.State* %0, i32 0, i32 6
  %7 = getelementptr inbounds %struct.GPR, %struct.GPR* %6, i32 0, i32 1
  %8 = getelementptr inbounds %struct.Reg, %struct.Reg* %7, i32 0, i32 0
  %RAX = bitcast %union.anon* %8 to i64*
  %9 = getelementptr inbounds %struct.State, %struct.State* %0, i32 0, i32 6
  %10 = getelementptr inbounds %struct.GPR, %struct.GPR* %9, i32 0, i32 15
  %11 = getelementptr inbounds %struct.Reg, %struct.Reg* %10, i32 0, i32 0
  %RBP = bitcast %union.anon* %11 to i64*
  %12 = load i64, i64* %RBP
  %13 = sub i64 %12, 56
  %14 = load i64, i64* %PC
  %15 = add i64 %14, 3
  store i64 %15, i64* %PC
  %16 = call %struct.Memory* @_ZN12_GLOBAL__N_1L3MOVI3RnWImE2MnIjEEEP6MemoryS6_R5StateT_T0_(%struct.Memory* %2, %struct.State* %0, i64* %RAX, i64 %13)
  ret %struct.Memory* %16
}


define %struct.Memory* @routine_cmpl_MINUS0x8__rbp____eax(%struct.State*  dereferenceable(3376), i64, %struct.Memory* ) #19 {
block_400488:
  %3 = getelementptr inbounds %struct.State, %struct.State* %0, i32 0, i32 6
  %4 = getelementptr inbounds %struct.GPR, %struct.GPR* %3, i32 0, i32 33
  %5 = getelementptr inbounds %struct.Reg, %struct.Reg* %4, i32 0, i32 0
  %PC = bitcast %union.anon* %5 to i64*
  %6 = getelementptr inbounds %struct.State, %struct.State* %0, i32 0, i32 6
  %7 = getelementptr inbounds %struct.GPR, %struct.GPR* %6, i32 0, i32 1
  %8 = getelementptr inbounds %struct.Reg, %struct.Reg* %7, i32 0, i32 0
  %EAX = bitcast %union.anon* %8 to i32*
  %9 = getelementptr inbounds %struct.State, %struct.State* %0, i32 0, i32 6
  %10 = getelementptr inbounds %struct.GPR, %struct.GPR* %9, i32 0, i32 15
  %11 = getelementptr inbounds %struct.Reg, %struct.Reg* %10, i32 0, i32 0
  %RBP = bitcast %union.anon* %11 to i64*
  %12 = load i32, i32* %EAX
  %13 = zext i32 %12 to i64
  %14 = load i64, i64* %RBP
  %15 = sub i64 %14, 8
  %16 = load i64, i64* %PC
  %17 = add i64 %16, 3
  store i64 %17, i64* %PC
  %18 = call %struct.Memory* @_ZN12_GLOBAL__N_1L3CMPI2RnIjE2MnIjEEEP6MemoryS6_R5StateT_T0_(%struct.Memory* %2, %struct.State* %0, i64 %13, i64 %15)
  ret %struct.Memory* %18
}


define %struct.Memory* @routine_jge_.L_4010b7(%struct.State*  dereferenceable(3376), i64, %struct.Memory*, i8* %BRANCH_TAKEN, i64 %rel_off1, i64 %rel_off2, i64 %rel_off3) {
block_400488:
  %3 = getelementptr inbounds %struct.State, %struct.State* %0, i32 0, i32 6
  %4 = getelementptr inbounds %struct.GPR, %struct.GPR* %3, i32 0, i32 33
  %5 = getelementptr inbounds %struct.Reg, %struct.Reg* %4, i32 0, i32 0
  %PC = bitcast %union.anon* %5 to i64*
  %6 = load i64, i64* %PC
  %7 = add i64 %6, %rel_off1
  %8 = load i64, i64* %PC
  %9 = add i64 %8, %rel_off2
  %10 = load i64, i64* %PC
  %11 = add i64 %10, %rel_off3
  store i64 %11, i64* %PC
  %12 = call %struct.Memory* @_ZN12_GLOBAL__N_1L3JNLEP6MemoryR5State3RnWIhE2InImES7_(%struct.Memory* %2, %struct.State* %0, i8* %BRANCH_TAKEN, i64 %7, i64 %9)
  ret %struct.Memory* %12
}








define %struct.Memory* @routine_jge_.L_4010a4(%struct.State*  dereferenceable(3376), i64, %struct.Memory*, i8* %BRANCH_TAKEN, i64 %rel_off1, i64 %rel_off2, i64 %rel_off3) {
block_400488:
  %3 = getelementptr inbounds %struct.State, %struct.State* %0, i32 0, i32 6
  %4 = getelementptr inbounds %struct.GPR, %struct.GPR* %3, i32 0, i32 33
  %5 = getelementptr inbounds %struct.Reg, %struct.Reg* %4, i32 0, i32 0
  %PC = bitcast %union.anon* %5 to i64*
  %6 = load i64, i64* %PC
  %7 = add i64 %6, %rel_off1
  %8 = load i64, i64* %PC
  %9 = add i64 %8, %rel_off2
  %10 = load i64, i64* %PC
  %11 = add i64 %10, %rel_off3
  store i64 %11, i64* %PC
  %12 = call %struct.Memory* @_ZN12_GLOBAL__N_1L3JNLEP6MemoryR5State3RnWIhE2InImES7_(%struct.Memory* %2, %struct.State* %0, i8* %BRANCH_TAKEN, i64 %7, i64 %9)
  ret %struct.Memory* %12
}


define %struct.Memory* @routine_movsd_0x673__rip____xmm0(%struct.State*  dereferenceable(3376), i64, %struct.Memory* ) #19 {
block_400488:
  %3 = getelementptr inbounds %struct.State, %struct.State* %0, i32 0, i32 6
  %4 = getelementptr inbounds %struct.GPR, %struct.GPR* %3, i32 0, i32 33
  %5 = getelementptr inbounds %struct.Reg, %struct.Reg* %4, i32 0, i32 0
  %PC = bitcast %union.anon* %5 to i64*
  %6 = getelementptr inbounds %struct.State, %struct.State* %0, i32 0, i32 1
  %7 = getelementptr inbounds [32 x %union.VectorReg], [32 x %union.VectorReg]* %6, i64 0, i64 0
  %YMM0 = bitcast %union.VectorReg* %7 to %"class.std::bitset"*
  %8 = bitcast %"class.std::bitset"* %YMM0 to i8*
  %9 = load i64, i64* %PC
  %10 = add i64 %9, 1659
  %11 = load i64, i64* %PC
  %12 = add i64 %11, 8
  store i64 %12, i64* %PC
  %13 = call %struct.Memory* @_ZN12_GLOBAL__N_1L9MOVSD_MEMI3VnWI8vec128_tE3MVnI7vec64_tEEEP6MemoryS8_R5StateT_T0_(%struct.Memory* %2, %struct.State* %0, i8* %8, i64 %10)
  ret %struct.Memory* %13
}




define %struct.Memory* @routine_movslq_MINUS0x38__rbp____rcx(%struct.State*  dereferenceable(3376), i64, %struct.Memory* ) #19 {
block_400488:
  %3 = getelementptr inbounds %struct.State, %struct.State* %0, i32 0, i32 6
  %4 = getelementptr inbounds %struct.GPR, %struct.GPR* %3, i32 0, i32 33
  %5 = getelementptr inbounds %struct.Reg, %struct.Reg* %4, i32 0, i32 0
  %PC = bitcast %union.anon* %5 to i64*
  %6 = getelementptr inbounds %struct.State, %struct.State* %0, i32 0, i32 6
  %7 = getelementptr inbounds %struct.GPR, %struct.GPR* %6, i32 0, i32 5
  %8 = getelementptr inbounds %struct.Reg, %struct.Reg* %7, i32 0, i32 0
  %RCX = bitcast %union.anon* %8 to i64*
  %9 = getelementptr inbounds %struct.State, %struct.State* %0, i32 0, i32 6
  %10 = getelementptr inbounds %struct.GPR, %struct.GPR* %9, i32 0, i32 15
  %11 = getelementptr inbounds %struct.Reg, %struct.Reg* %10, i32 0, i32 0
  %RBP = bitcast %union.anon* %11 to i64*
  %12 = load i64, i64* %RBP
  %13 = sub i64 %12, 56
  %14 = load i64, i64* %PC
  %15 = add i64 %14, 4
  store i64 %15, i64* %PC
  %16 = call %struct.Memory* @_ZN12_GLOBAL__N_1L5MOVSXI3RnWImE2MnIjElEEP6MemoryS6_R5StateT_T0_(%struct.Memory* %2, %struct.State* %0, i64* %RCX, i64 %13)
  ret %struct.Memory* %16
}

define internal %struct.Memory* @_ZN12_GLOBAL__N_1L4IMULI3RnWImE2RnImE2InImEEEP6MemoryS8_R5StateT_T0_T1_(%struct.Memory* readnone returned, %struct.State* nocapture dereferenceable(3376), i64* nocapture, i64, i64) #0 {
  %6 = sext i64 %3 to i128
  %7 = and i128 %6, -18446744073709551616
  %8 = sext i64 %4 to i128
  %9 = and i128 %8, -18446744073709551616
  %10 = zext i64 %3 to i128
  %11 = or i128 %7, %10
  %12 = zext i64 %4 to i128
  %13 = or i128 %9, %12
  %14 = mul  i128 %13, %11
  %15 = trunc i128 %14 to i64
  store i64 %15, i64* %2, align 8
  %16 = sext i64 %15 to i128
  %17 = icmp ne i128 %16, %14
  %18 = zext i1 %17 to i8
  %19 = getelementptr inbounds %struct.State, %struct.State* %1, i64 0, i32 2, i32 1
  store i8 %18, i8* %19, align 1
  %20 = trunc i128 %14 to i32
  %21 = and i32 %20, 255
  %22 = tail call i32 @llvm.ctpop.i32(i32 %21) #22
  %23 = trunc i32 %22 to i8
  %24 = and i8 %23, 1
  %25 = xor i8 %24, 1
  %26 = getelementptr inbounds %struct.State, %struct.State* %1, i64 0, i32 2, i32 3
  store i8 %25, i8* %26, align 1
  %27 = getelementptr inbounds %struct.State, %struct.State* %1, i64 0, i32 2, i32 5
  store i8 0, i8* %27, align 1
  %28 = getelementptr inbounds %struct.State, %struct.State* %1, i64 0, i32 2, i32 7
  store i8 0, i8* %28, align 1
  %29 = lshr i64 %15, 63
  %30 = trunc i64 %29 to i8
  %31 = getelementptr inbounds %struct.State, %struct.State* %1, i64 0, i32 2, i32 9
  store i8 %30, i8* %31, align 1
  %32 = getelementptr inbounds %struct.State, %struct.State* %1, i64 0, i32 2, i32 13
  store i8 %18, i8* %32, align 1
  ret %struct.Memory* %0
}

define %struct.Memory* @routine_imulq__0x1f40___rcx___rcx(%struct.State*  dereferenceable(3376), i64, %struct.Memory* ) #19 {
block_400488:
  %3 = getelementptr inbounds %struct.State, %struct.State* %0, i32 0, i32 6
  %4 = getelementptr inbounds %struct.GPR, %struct.GPR* %3, i32 0, i32 33
  %5 = getelementptr inbounds %struct.Reg, %struct.Reg* %4, i32 0, i32 0
  %PC = bitcast %union.anon* %5 to i64*
  %6 = getelementptr inbounds %struct.State, %struct.State* %0, i32 0, i32 6
  %7 = getelementptr inbounds %struct.GPR, %struct.GPR* %6, i32 0, i32 5
  %8 = getelementptr inbounds %struct.Reg, %struct.Reg* %7, i32 0, i32 0
  %RCX = bitcast %union.anon* %8 to i64*
  %9 = load i64, i64* %RCX
  %10 = load i64, i64* %PC
  %11 = add i64 %10, 7
  store i64 %11, i64* %PC
  %12 = call %struct.Memory* @_ZN12_GLOBAL__N_1L4IMULI3RnWImE2RnImE2InImEEEP6MemoryS8_R5StateT_T0_T1_(%struct.Memory* %2, %struct.State* %0, i64* %RCX, i64 %9, i64 8000)
  ret %struct.Memory* %12
}

define internal %struct.Memory* @_ZN12_GLOBAL__N_1L3ADDI3RnWImE2RnImES4_EEP6MemoryS6_R5StateT_T0_T1_(%struct.Memory* readnone returned, %struct.State* nocapture dereferenceable(3376), i64* nocapture, i64, i64) #0 {
  %6 = add i64 %4, %3
  store i64 %6, i64* %2, align 8
  %7 = icmp ult i64 %6, %3
  %8 = icmp ult i64 %6, %4
  %9 = or i1 %7, %8
  %10 = zext i1 %9 to i8
  %11 = getelementptr inbounds %struct.State, %struct.State* %1, i64 0, i32 2, i32 1
  store i8 %10, i8* %11, align 1
  %12 = trunc i64 %6 to i32
  %13 = and i32 %12, 255
  %14 = tail call i32 @llvm.ctpop.i32(i32 %13) #22
  %15 = trunc i32 %14 to i8
  %16 = and i8 %15, 1
  %17 = xor i8 %16, 1
  %18 = getelementptr inbounds %struct.State, %struct.State* %1, i64 0, i32 2, i32 3
  store i8 %17, i8* %18, align 1
  %19 = xor i64 %4, %3
  %20 = xor i64 %19, %6
  %21 = lshr i64 %20, 4
  %22 = trunc i64 %21 to i8
  %23 = and i8 %22, 1
  %24 = getelementptr inbounds %struct.State, %struct.State* %1, i64 0, i32 2, i32 5
  store i8 %23, i8* %24, align 1
  %25 = icmp eq i64 %6, 0
  %26 = zext i1 %25 to i8
  %27 = getelementptr inbounds %struct.State, %struct.State* %1, i64 0, i32 2, i32 7
  store i8 %26, i8* %27, align 1
  %28 = lshr i64 %6, 63
  %29 = trunc i64 %28 to i8
  %30 = getelementptr inbounds %struct.State, %struct.State* %1, i64 0, i32 2, i32 9
  store i8 %29, i8* %30, align 1
  %31 = lshr i64 %3, 63
  %32 = lshr i64 %4, 63
  %33 = xor i64 %28, %31
  %34 = xor i64 %28, %32
  %35 = add   i64 %33, %34
  %36 = icmp eq i64 %35, 2
  %37 = zext i1 %36 to i8
  %38 = getelementptr inbounds %struct.State, %struct.State* %1, i64 0, i32 2, i32 13
  store i8 %37, i8* %38, align 1
  ret %struct.Memory* %0
}

define %struct.Memory* @routine_addq__rcx___rax(%struct.State*  dereferenceable(3376), i64, %struct.Memory* ) #19 {
block_400488:
  %3 = getelementptr inbounds %struct.State, %struct.State* %0, i32 0, i32 6
  %4 = getelementptr inbounds %struct.GPR, %struct.GPR* %3, i32 0, i32 33
  %5 = getelementptr inbounds %struct.Reg, %struct.Reg* %4, i32 0, i32 0
  %PC = bitcast %union.anon* %5 to i64*
  %6 = getelementptr inbounds %struct.State, %struct.State* %0, i32 0, i32 6
  %7 = getelementptr inbounds %struct.GPR, %struct.GPR* %6, i32 0, i32 1
  %8 = getelementptr inbounds %struct.Reg, %struct.Reg* %7, i32 0, i32 0
  %RAX = bitcast %union.anon* %8 to i64*
  %9 = getelementptr inbounds %struct.State, %struct.State* %0, i32 0, i32 6
  %10 = getelementptr inbounds %struct.GPR, %struct.GPR* %9, i32 0, i32 5
  %11 = getelementptr inbounds %struct.Reg, %struct.Reg* %10, i32 0, i32 0
  %RCX = bitcast %union.anon* %11 to i64*
  %12 = load i64, i64* %RAX
  %13 = load i64, i64* %RCX
  %14 = load i64, i64* %PC
  %15 = add i64 %14, 3
  store i64 %15, i64* %PC
  %16 = call %struct.Memory* @_ZN12_GLOBAL__N_1L3ADDI3RnWImE2RnImES4_EEP6MemoryS6_R5StateT_T0_T1_(%struct.Memory* %2, %struct.State* %0, i64* %RAX, i64 %12, i64 %13)
  ret %struct.Memory* %16
}




define %struct.Memory* @routine_movsd___rax__rcx_8____xmm1(%struct.State*  dereferenceable(3376), i64, %struct.Memory* ) #19 {
block_400488:
  %3 = getelementptr inbounds %struct.State, %struct.State* %0, i32 0, i32 6
  %4 = getelementptr inbounds %struct.GPR, %struct.GPR* %3, i32 0, i32 33
  %5 = getelementptr inbounds %struct.Reg, %struct.Reg* %4, i32 0, i32 0
  %PC = bitcast %union.anon* %5 to i64*
  %6 = getelementptr inbounds %struct.State, %struct.State* %0, i32 0, i32 6
  %7 = getelementptr inbounds %struct.GPR, %struct.GPR* %6, i32 0, i32 1
  %8 = getelementptr inbounds %struct.Reg, %struct.Reg* %7, i32 0, i32 0
  %RAX = bitcast %union.anon* %8 to i64*
  %9 = getelementptr inbounds %struct.State, %struct.State* %0, i32 0, i32 6
  %10 = getelementptr inbounds %struct.GPR, %struct.GPR* %9, i32 0, i32 5
  %11 = getelementptr inbounds %struct.Reg, %struct.Reg* %10, i32 0, i32 0
  %RCX = bitcast %union.anon* %11 to i64*
  %12 = getelementptr inbounds %struct.State, %struct.State* %0, i32 0, i32 1
  %13 = getelementptr inbounds [32 x %union.VectorReg], [32 x %union.VectorReg]* %12, i64 0, i64 1
  %YMM1 = bitcast %union.VectorReg* %13 to %"class.std::bitset"*
  %14 = bitcast %"class.std::bitset"* %YMM1 to i8*
  %15 = load i64, i64* %RAX
  %16 = load i64, i64* %RCX
  %17 = mul i64 %16, 8
  %18 = add i64 %17, %15
  %19 = load i64, i64* %PC
  %20 = add i64 %19, 5
  store i64 %20, i64* %PC
  %21 = call %struct.Memory* @_ZN12_GLOBAL__N_1L9MOVSD_MEMI3VnWI8vec128_tE3MVnI7vec64_tEEEP6MemoryS8_R5StateT_T0_(%struct.Memory* %2, %struct.State* %0, i8* %14, i64 %18)
  ret %struct.Memory* %21
}


define %struct.Memory* @routine_movq_MINUS0x28__rbp____rax(%struct.State*  dereferenceable(3376), i64, %struct.Memory* ) #19 {
block_400488:
  %3 = getelementptr inbounds %struct.State, %struct.State* %0, i32 0, i32 6
  %4 = getelementptr inbounds %struct.GPR, %struct.GPR* %3, i32 0, i32 33
  %5 = getelementptr inbounds %struct.Reg, %struct.Reg* %4, i32 0, i32 0
  %PC = bitcast %union.anon* %5 to i64*
  %6 = getelementptr inbounds %struct.State, %struct.State* %0, i32 0, i32 6
  %7 = getelementptr inbounds %struct.GPR, %struct.GPR* %6, i32 0, i32 1
  %8 = getelementptr inbounds %struct.Reg, %struct.Reg* %7, i32 0, i32 0
  %RAX = bitcast %union.anon* %8 to i64*
  %9 = getelementptr inbounds %struct.State, %struct.State* %0, i32 0, i32 6
  %10 = getelementptr inbounds %struct.GPR, %struct.GPR* %9, i32 0, i32 15
  %11 = getelementptr inbounds %struct.Reg, %struct.Reg* %10, i32 0, i32 0
  %RBP = bitcast %union.anon* %11 to i64*
  %12 = load i64, i64* %RBP
  %13 = sub i64 %12, 40
  %14 = load i64, i64* %PC
  %15 = add i64 %14, 4
  store i64 %15, i64* %PC
  %16 = call %struct.Memory* @_ZN12_GLOBAL__N_1L3MOVI3RnWImE2MnImEEEP6MemoryS6_R5StateT_T0_(%struct.Memory* %2, %struct.State* %0, i64* %RAX, i64 %13)
  ret %struct.Memory* %16
}










define %struct.Memory* @routine_movsd___rax__rcx_8____xmm2(%struct.State*  dereferenceable(3376), i64, %struct.Memory* ) #19 {
block_400488:
  %3 = getelementptr inbounds %struct.State, %struct.State* %0, i32 0, i32 6
  %4 = getelementptr inbounds %struct.GPR, %struct.GPR* %3, i32 0, i32 33
  %5 = getelementptr inbounds %struct.Reg, %struct.Reg* %4, i32 0, i32 0
  %PC = bitcast %union.anon* %5 to i64*
  %6 = getelementptr inbounds %struct.State, %struct.State* %0, i32 0, i32 6
  %7 = getelementptr inbounds %struct.GPR, %struct.GPR* %6, i32 0, i32 1
  %8 = getelementptr inbounds %struct.Reg, %struct.Reg* %7, i32 0, i32 0
  %RAX = bitcast %union.anon* %8 to i64*
  %9 = getelementptr inbounds %struct.State, %struct.State* %0, i32 0, i32 6
  %10 = getelementptr inbounds %struct.GPR, %struct.GPR* %9, i32 0, i32 5
  %11 = getelementptr inbounds %struct.Reg, %struct.Reg* %10, i32 0, i32 0
  %RCX = bitcast %union.anon* %11 to i64*
  %12 = getelementptr inbounds %struct.State, %struct.State* %0, i32 0, i32 1
  %13 = getelementptr inbounds [32 x %union.VectorReg], [32 x %union.VectorReg]* %12, i64 0, i64 2
  %YMM2 = bitcast %union.VectorReg* %13 to %"class.std::bitset"*
  %14 = bitcast %"class.std::bitset"* %YMM2 to i8*
  %15 = load i64, i64* %RAX
  %16 = load i64, i64* %RCX
  %17 = mul i64 %16, 8
  %18 = add i64 %17, %15
  %19 = load i64, i64* %PC
  %20 = add i64 %19, 5
  store i64 %20, i64* %PC
  %21 = call %struct.Memory* @_ZN12_GLOBAL__N_1L9MOVSD_MEMI3VnWI8vec128_tE3MVnI7vec64_tEEEP6MemoryS8_R5StateT_T0_(%struct.Memory* %2, %struct.State* %0, i8* %14, i64 %18)
  ret %struct.Memory* %21
}




define %struct.Memory* @routine_movl_MINUS0x38__rbp____edx(%struct.State*  dereferenceable(3376), i64, %struct.Memory* ) #19 {
block_400488:
  %3 = getelementptr inbounds %struct.State, %struct.State* %0, i32 0, i32 6
  %4 = getelementptr inbounds %struct.GPR, %struct.GPR* %3, i32 0, i32 33
  %5 = getelementptr inbounds %struct.Reg, %struct.Reg* %4, i32 0, i32 0
  %PC = bitcast %union.anon* %5 to i64*
  %6 = getelementptr inbounds %struct.State, %struct.State* %0, i32 0, i32 6
  %7 = getelementptr inbounds %struct.GPR, %struct.GPR* %6, i32 0, i32 7
  %8 = getelementptr inbounds %struct.Reg, %struct.Reg* %7, i32 0, i32 0
  %RDX = bitcast %union.anon* %8 to i64*
  %9 = getelementptr inbounds %struct.State, %struct.State* %0, i32 0, i32 6
  %10 = getelementptr inbounds %struct.GPR, %struct.GPR* %9, i32 0, i32 15
  %11 = getelementptr inbounds %struct.Reg, %struct.Reg* %10, i32 0, i32 0
  %RBP = bitcast %union.anon* %11 to i64*
  %12 = load i64, i64* %RBP
  %13 = sub i64 %12, 56
  %14 = load i64, i64* %PC
  %15 = add i64 %14, 3
  store i64 %15, i64* %PC
  %16 = call %struct.Memory* @_ZN12_GLOBAL__N_1L3MOVI3RnWImE2MnIjEEEP6MemoryS6_R5StateT_T0_(%struct.Memory* %2, %struct.State* %0, i64* %RDX, i64 %13)
  ret %struct.Memory* %16
}

define internal %struct.Memory* @_ZN12_GLOBAL__N_1L3SUBI3RnWImE2RnIjE2InIjEEEP6MemoryS8_R5StateT_T0_T1_(%struct.Memory* readnone returned, %struct.State* nocapture dereferenceable(3376), i64* nocapture, i64, i64) #0 {
  %6 = trunc i64 %3 to i32
  %7 = trunc i64 %4 to i32
  %8 = sub i32 %6, %7
  %9 = zext i32 %8 to i64
  store i64 %9, i64* %2, align 8
  %10 = icmp ult i32 %6, %7
  %11 = zext i1 %10 to i8
  %12 = getelementptr inbounds %struct.State, %struct.State* %1, i64 0, i32 2, i32 1
  store i8 %11, i8* %12, align 1
  %13 = and i32 %8, 255
  %14 = tail call i32 @llvm.ctpop.i32(i32 %13) #22
  %15 = trunc i32 %14 to i8
  %16 = and i8 %15, 1
  %17 = xor i8 %16, 1
  %18 = getelementptr inbounds %struct.State, %struct.State* %1, i64 0, i32 2, i32 3
  store i8 %17, i8* %18, align 1
  %19 = xor i64 %4, %3
  %20 = trunc i64 %19 to i32
  %21 = xor i32 %20, %8
  %22 = lshr i32 %21, 4
  %23 = trunc i32 %22 to i8
  %24 = and i8 %23, 1
  %25 = getelementptr inbounds %struct.State, %struct.State* %1, i64 0, i32 2, i32 5
  store i8 %24, i8* %25, align 1
  %26 = icmp eq i32 %8, 0
  %27 = zext i1 %26 to i8
  %28 = getelementptr inbounds %struct.State, %struct.State* %1, i64 0, i32 2, i32 7
  store i8 %27, i8* %28, align 1
  %29 = lshr i32 %8, 31
  %30 = trunc i32 %29 to i8
  %31 = getelementptr inbounds %struct.State, %struct.State* %1, i64 0, i32 2, i32 9
  store i8 %30, i8* %31, align 1
  %32 = lshr i32 %6, 31
  %33 = lshr i32 %7, 31
  %34 = xor i32 %33, %32
  %35 = xor i32 %29, %32
  %36 = add   i32 %35, %34
  %37 = icmp eq i32 %36, 2
  %38 = zext i1 %37 to i8
  %39 = getelementptr inbounds %struct.State, %struct.State* %1, i64 0, i32 2, i32 13
  store i8 %38, i8* %39, align 1
  ret %struct.Memory* %0
}

define %struct.Memory* @routine_subl__0x1___edx(%struct.State*  dereferenceable(3376), i64, %struct.Memory* ) #19 {
block_400488:
  %3 = getelementptr inbounds %struct.State, %struct.State* %0, i32 0, i32 6
  %4 = getelementptr inbounds %struct.GPR, %struct.GPR* %3, i32 0, i32 33
  %5 = getelementptr inbounds %struct.Reg, %struct.Reg* %4, i32 0, i32 0
  %PC = bitcast %union.anon* %5 to i64*
  %6 = getelementptr inbounds %struct.State, %struct.State* %0, i32 0, i32 6
  %7 = getelementptr inbounds %struct.GPR, %struct.GPR* %6, i32 0, i32 7
  %8 = getelementptr inbounds %struct.Reg, %struct.Reg* %7, i32 0, i32 0
  %RDX = bitcast %union.anon* %8 to i64*
  %9 = load i64, i64* %RDX
  %10 = load i64, i64* %PC
  %11 = add i64 %10, 3
  store i64 %11, i64* %PC
  %12 = call %struct.Memory* @_ZN12_GLOBAL__N_1L3SUBI3RnWImE2RnIjE2InIjEEEP6MemoryS8_R5StateT_T0_T1_(%struct.Memory* %2, %struct.State* %0, i64* %RDX, i64 %9, i64 1)
  ret %struct.Memory* %12
}

define internal %struct.Memory* @_ZN12_GLOBAL__N_1L5MOVSXI3RnWImE2RnIjElEEP6MemoryS6_R5StateT_T0_(%struct.Memory* readnone returned, %struct.State* nocapture readnone dereferenceable(3376), i64* nocapture, i64) #2 {
  %5 = shl i64 %3, 32
  %6 = ashr exact i64 %5, 32
  store i64 %6, i64* %2, align 8
  ret %struct.Memory* %0
}

define %struct.Memory* @routine_movslq__edx___rcx(%struct.State*  dereferenceable(3376), i64, %struct.Memory* ) #19 {
block_400488:
  %3 = getelementptr inbounds %struct.State, %struct.State* %0, i32 0, i32 6
  %4 = getelementptr inbounds %struct.GPR, %struct.GPR* %3, i32 0, i32 33
  %5 = getelementptr inbounds %struct.Reg, %struct.Reg* %4, i32 0, i32 0
  %PC = bitcast %union.anon* %5 to i64*
  %6 = getelementptr inbounds %struct.State, %struct.State* %0, i32 0, i32 6
  %7 = getelementptr inbounds %struct.GPR, %struct.GPR* %6, i32 0, i32 7
  %8 = getelementptr inbounds %struct.Reg, %struct.Reg* %7, i32 0, i32 0
  %EDX = bitcast %union.anon* %8 to i32*
  %9 = getelementptr inbounds %struct.State, %struct.State* %0, i32 0, i32 6
  %10 = getelementptr inbounds %struct.GPR, %struct.GPR* %9, i32 0, i32 5
  %11 = getelementptr inbounds %struct.Reg, %struct.Reg* %10, i32 0, i32 0
  %RCX = bitcast %union.anon* %11 to i64*
  %12 = load i32, i32* %EDX
  %13 = zext i32 %12 to i64
  %14 = load i64, i64* %PC
  %15 = add i64 %14, 3
  store i64 %15, i64* %PC
  %16 = call %struct.Memory* @_ZN12_GLOBAL__N_1L5MOVSXI3RnWImE2RnIjElEEP6MemoryS6_R5StateT_T0_(%struct.Memory* %2, %struct.State* %0, i64* %RCX, i64 %13)
  ret %struct.Memory* %16
}







define internal %struct.Memory* @_ZN12_GLOBAL__N_1L5SUBSDI3VnWI8vec128_tE2VnIS2_E3MVnI7vec64_tEEEP6MemorySA_R5StateT_T0_T1_(%struct.Memory* returned, %struct.State* nocapture readnone dereferenceable(3376), i8* nocapture, i8* nocapture readonly, i64) #0 {
  %6 = bitcast i8* %3 to double*
  %7 = load double, double* %6, align 1
  %8 = getelementptr inbounds i8, i8* %3, i64 8
  %9 = bitcast i8* %8 to i64*
  %10 = load i64, i64* %9, align 1
  %11 = inttoptr i64 %4 to double*
  %12 = load double, double* %11
  %13 = fsub double %7, %12
  %14 = bitcast i8* %2 to double*
  store double %13, double* %14, align 1
  %15 = getelementptr inbounds i8, i8* %2, i64 8
  %16 = bitcast i8* %15 to i64*
  store i64 %10, i64* %16, align 1
  ret %struct.Memory* %0
}

define %struct.Memory* @routine_subsd___rax__rcx_8____xmm2(%struct.State*  dereferenceable(3376), i64, %struct.Memory* ) #19 {
block_400488:
  %3 = getelementptr inbounds %struct.State, %struct.State* %0, i32 0, i32 6
  %4 = getelementptr inbounds %struct.GPR, %struct.GPR* %3, i32 0, i32 33
  %5 = getelementptr inbounds %struct.Reg, %struct.Reg* %4, i32 0, i32 0
  %PC = bitcast %union.anon* %5 to i64*
  %6 = getelementptr inbounds %struct.State, %struct.State* %0, i32 0, i32 6
  %7 = getelementptr inbounds %struct.GPR, %struct.GPR* %6, i32 0, i32 1
  %8 = getelementptr inbounds %struct.Reg, %struct.Reg* %7, i32 0, i32 0
  %RAX = bitcast %union.anon* %8 to i64*
  %9 = getelementptr inbounds %struct.State, %struct.State* %0, i32 0, i32 6
  %10 = getelementptr inbounds %struct.GPR, %struct.GPR* %9, i32 0, i32 5
  %11 = getelementptr inbounds %struct.Reg, %struct.Reg* %10, i32 0, i32 0
  %RCX = bitcast %union.anon* %11 to i64*
  %12 = getelementptr inbounds %struct.State, %struct.State* %0, i32 0, i32 1
  %13 = getelementptr inbounds [32 x %union.VectorReg], [32 x %union.VectorReg]* %12, i64 0, i64 2
  %YMM2 = bitcast %union.VectorReg* %13 to %"class.std::bitset"*
  %14 = bitcast %"class.std::bitset"* %YMM2 to i8*
  %15 = bitcast %"class.std::bitset"* %YMM2 to i8*
  %16 = load i64, i64* %RAX
  %17 = load i64, i64* %RCX
  %18 = mul i64 %17, 8
  %19 = add i64 %18, %16
  %20 = load i64, i64* %PC
  %21 = add i64 %20, 5
  store i64 %21, i64* %PC
  %22 = call %struct.Memory* @_ZN12_GLOBAL__N_1L5SUBSDI3VnWI8vec128_tE2VnIS2_E3MVnI7vec64_tEEEP6MemorySA_R5StateT_T0_T1_(%struct.Memory* %2, %struct.State* %0, i8* %14, i8* %15, i64 %19)
  ret %struct.Memory* %22
}

define internal %struct.Memory* @_ZN12_GLOBAL__N_1L5MULSDI3VnWI8vec128_tE2VnIS2_ES5_EEP6MemoryS7_R5StateT_T0_T1_(%struct.Memory* readnone returned, %struct.State* nocapture readnone dereferenceable(3376), i8* nocapture, i8* nocapture readonly, i8* nocapture readonly) #0 {
  %6 = bitcast i8* %3 to double*
  %7 = load double, double* %6, align 1
  %8 = getelementptr inbounds i8, i8* %3, i64 8
  %9 = bitcast i8* %8 to i64*
  %10 = load i64, i64* %9, align 1
  %11 = bitcast i8* %4 to double*
  %12 = load double, double* %11, align 1
  %13 = fmul double %7, %12
  %14 = bitcast i8* %2 to double*
  store double %13, double* %14, align 1
  %15 = getelementptr inbounds i8, i8* %2, i64 8
  %16 = bitcast i8* %15 to i64*
  store i64 %10, i64* %16, align 1
  ret %struct.Memory* %0
}

define %struct.Memory* @routine_mulsd__xmm2___xmm0(%struct.State*  dereferenceable(3376), i64, %struct.Memory* ) #19 {
block_400488:
  %3 = getelementptr inbounds %struct.State, %struct.State* %0, i32 0, i32 6
  %4 = getelementptr inbounds %struct.GPR, %struct.GPR* %3, i32 0, i32 33
  %5 = getelementptr inbounds %struct.Reg, %struct.Reg* %4, i32 0, i32 0
  %PC = bitcast %union.anon* %5 to i64*
  %6 = getelementptr inbounds %struct.State, %struct.State* %0, i32 0, i32 1
  %7 = getelementptr inbounds [32 x %union.VectorReg], [32 x %union.VectorReg]* %6, i64 0, i64 0
  %YMM0 = bitcast %union.VectorReg* %7 to %"class.std::bitset"*
  %8 = getelementptr inbounds %struct.State, %struct.State* %0, i32 0, i32 1
  %9 = getelementptr inbounds [32 x %union.VectorReg], [32 x %union.VectorReg]* %8, i64 0, i64 2
  %XMM2 = bitcast %union.VectorReg* %9 to %union.vec128_t*
  %10 = bitcast %"class.std::bitset"* %YMM0 to i8*
  %11 = bitcast %"class.std::bitset"* %YMM0 to i8*
  %12 = bitcast %union.vec128_t* %XMM2 to i8*
  %13 = load i64, i64* %PC
  %14 = add i64 %13, 4
  store i64 %14, i64* %PC
  %15 = call %struct.Memory* @_ZN12_GLOBAL__N_1L5MULSDI3VnWI8vec128_tE2VnIS2_ES5_EEP6MemoryS7_R5StateT_T0_T1_(%struct.Memory* %2, %struct.State* %0, i8* %10, i8* %11, i8* %12)
  ret %struct.Memory* %15
}

define internal %struct.Memory* @_ZN12_GLOBAL__N_1L5SUBSDI3VnWI8vec128_tE2VnIS2_ES5_EEP6MemoryS7_R5StateT_T0_T1_(%struct.Memory* readnone returned, %struct.State* nocapture readnone dereferenceable(3376), i8* nocapture, i8* nocapture readonly, i8* nocapture readonly) #0 {
  %6 = bitcast i8* %3 to double*
  %7 = load double, double* %6, align 1
  %8 = getelementptr inbounds i8, i8* %3, i64 8
  %9 = bitcast i8* %8 to i64*
  %10 = load i64, i64* %9, align 1
  %11 = bitcast i8* %4 to double*
  %12 = load double, double* %11, align 1
  %13 = fsub double %7, %12
  %14 = bitcast i8* %2 to double*
  store double %13, double* %14, align 1
  %15 = getelementptr inbounds i8, i8* %2, i64 8
  %16 = bitcast i8* %15 to i64*
  store i64 %10, i64* %16, align 1
  ret %struct.Memory* %0
}

define %struct.Memory* @routine_subsd__xmm0___xmm1(%struct.State*  dereferenceable(3376), i64, %struct.Memory* ) #19 {
block_400488:
  %3 = getelementptr inbounds %struct.State, %struct.State* %0, i32 0, i32 6
  %4 = getelementptr inbounds %struct.GPR, %struct.GPR* %3, i32 0, i32 33
  %5 = getelementptr inbounds %struct.Reg, %struct.Reg* %4, i32 0, i32 0
  %PC = bitcast %union.anon* %5 to i64*
  %6 = getelementptr inbounds %struct.State, %struct.State* %0, i32 0, i32 1
  %7 = getelementptr inbounds [32 x %union.VectorReg], [32 x %union.VectorReg]* %6, i64 0, i64 1
  %YMM1 = bitcast %union.VectorReg* %7 to %"class.std::bitset"*
  %8 = getelementptr inbounds %struct.State, %struct.State* %0, i32 0, i32 1
  %9 = getelementptr inbounds [32 x %union.VectorReg], [32 x %union.VectorReg]* %8, i64 0, i64 0
  %XMM0 = bitcast %union.VectorReg* %9 to %union.vec128_t*
  %10 = bitcast %"class.std::bitset"* %YMM1 to i8*
  %11 = bitcast %"class.std::bitset"* %YMM1 to i8*
  %12 = bitcast %union.vec128_t* %XMM0 to i8*
  %13 = load i64, i64* %PC
  %14 = add i64 %13, 4
  store i64 %14, i64* %PC
  %15 = call %struct.Memory* @_ZN12_GLOBAL__N_1L5SUBSDI3VnWI8vec128_tE2VnIS2_ES5_EEP6MemoryS7_R5StateT_T0_T1_(%struct.Memory* %2, %struct.State* %0, i8* %10, i8* %11, i8* %12)
  ret %struct.Memory* %15
}












define %struct.Memory* @routine_movsd__xmm1____rax__rcx_8_(%struct.State*  dereferenceable(3376), i64, %struct.Memory* ) #19 {
block_400488:
  %3 = getelementptr inbounds %struct.State, %struct.State* %0, i32 0, i32 6
  %4 = getelementptr inbounds %struct.GPR, %struct.GPR* %3, i32 0, i32 33
  %5 = getelementptr inbounds %struct.Reg, %struct.Reg* %4, i32 0, i32 0
  %PC = bitcast %union.anon* %5 to i64*
  %6 = getelementptr inbounds %struct.State, %struct.State* %0, i32 0, i32 6
  %7 = getelementptr inbounds %struct.GPR, %struct.GPR* %6, i32 0, i32 1
  %8 = getelementptr inbounds %struct.Reg, %struct.Reg* %7, i32 0, i32 0
  %RAX = bitcast %union.anon* %8 to i64*
  %9 = getelementptr inbounds %struct.State, %struct.State* %0, i32 0, i32 6
  %10 = getelementptr inbounds %struct.GPR, %struct.GPR* %9, i32 0, i32 5
  %11 = getelementptr inbounds %struct.Reg, %struct.Reg* %10, i32 0, i32 0
  %RCX = bitcast %union.anon* %11 to i64*
  %12 = getelementptr inbounds %struct.State, %struct.State* %0, i32 0, i32 1
  %13 = getelementptr inbounds [32 x %union.VectorReg], [32 x %union.VectorReg]* %12, i64 0, i64 1
  %XMM1 = bitcast %union.VectorReg* %13 to %union.vec128_t*
  %14 = load i64, i64* %RAX
  %15 = load i64, i64* %RCX
  %16 = mul i64 %15, 8
  %17 = add i64 %16, %14
  %18 = bitcast %union.vec128_t* %XMM1 to i8*
  %19 = load i64, i64* %PC
  %20 = add i64 %19, 5
  store i64 %20, i64* %PC
  %21 = call %struct.Memory* @_ZN12_GLOBAL__N_1L9MOVSD_MEMI4MVnWI7vec64_tE2VnI8vec128_tEEEP6MemoryS8_R5StateT_T0_(%struct.Memory* %2, %struct.State* %0, i64 %17, i8* %18)
  ret %struct.Memory* %21
}








define %struct.Memory* @routine_jmpq_.L_401009(%struct.State*  dereferenceable(3376), i64, %struct.Memory*, i64 %rel_off1, i64 %rel_off2) {
block_400488:
  %3 = getelementptr inbounds %struct.State, %struct.State* %0, i32 0, i32 6
  %4 = getelementptr inbounds %struct.GPR, %struct.GPR* %3, i32 0, i32 33
  %5 = getelementptr inbounds %struct.Reg, %struct.Reg* %4, i32 0, i32 0
  %PC = bitcast %union.anon* %5 to i64*
  %6 = load i64, i64* %PC
  %7 = add i64 %6, %rel_off1
  %8 = load i64, i64* %PC
  %9 = add i64 %8, %rel_off2
  store i64 %9, i64* %PC
  %10 = call %struct.Memory* @_ZN12_GLOBAL__N_1L3JMPI2InImEEEP6MemoryS4_R5StateT_(%struct.Memory* %2, %struct.State* %0, i64 %7)
  ret %struct.Memory* %10
}


define %struct.Memory* @routine_jmpq_.L_4010a9(%struct.State*  dereferenceable(3376), i64, %struct.Memory*, i64 %rel_off1, i64 %rel_off2) {
block_400488:
  %3 = getelementptr inbounds %struct.State, %struct.State* %0, i32 0, i32 6
  %4 = getelementptr inbounds %struct.GPR, %struct.GPR* %3, i32 0, i32 33
  %5 = getelementptr inbounds %struct.Reg, %struct.Reg* %4, i32 0, i32 0
  %PC = bitcast %union.anon* %5 to i64*
  %6 = load i64, i64* %PC
  %7 = add i64 %6, %rel_off1
  %8 = load i64, i64* %PC
  %9 = add i64 %8, %rel_off2
  store i64 %9, i64* %PC
  %10 = call %struct.Memory* @_ZN12_GLOBAL__N_1L3JMPI2InImEEEP6MemoryS4_R5StateT_(%struct.Memory* %2, %struct.State* %0, i64 %7)
  ret %struct.Memory* %10
}






define %struct.Memory* @routine_movl__eax__MINUS0x38__rbp_(%struct.State*  dereferenceable(3376), i64, %struct.Memory* ) #19 {
block_400488:
  %3 = getelementptr inbounds %struct.State, %struct.State* %0, i32 0, i32 6
  %4 = getelementptr inbounds %struct.GPR, %struct.GPR* %3, i32 0, i32 33
  %5 = getelementptr inbounds %struct.Reg, %struct.Reg* %4, i32 0, i32 0
  %PC = bitcast %union.anon* %5 to i64*
  %6 = getelementptr inbounds %struct.State, %struct.State* %0, i32 0, i32 6
  %7 = getelementptr inbounds %struct.GPR, %struct.GPR* %6, i32 0, i32 1
  %8 = getelementptr inbounds %struct.Reg, %struct.Reg* %7, i32 0, i32 0
  %EAX = bitcast %union.anon* %8 to i32*
  %9 = getelementptr inbounds %struct.State, %struct.State* %0, i32 0, i32 6
  %10 = getelementptr inbounds %struct.GPR, %struct.GPR* %9, i32 0, i32 15
  %11 = getelementptr inbounds %struct.Reg, %struct.Reg* %10, i32 0, i32 0
  %RBP = bitcast %union.anon* %11 to i64*
  %12 = load i64, i64* %RBP
  %13 = sub i64 %12, 56
  %14 = load i32, i32* %EAX
  %15 = zext i32 %14 to i64
  %16 = load i64, i64* %PC
  %17 = add i64 %16, 3
  store i64 %17, i64* %PC
  %18 = call %struct.Memory* @_ZN12_GLOBAL__N_1L3MOVI3MnWIjE2RnIjEEEP6MemoryS6_R5StateT_T0_(%struct.Memory* %2, %struct.State* %0, i64 %13, i64 %15)
  ret %struct.Memory* %18
}


define %struct.Memory* @routine_jmpq_.L_400ff6(%struct.State*  dereferenceable(3376), i64, %struct.Memory*, i64 %rel_off1, i64 %rel_off2) {
block_400488:
  %3 = getelementptr inbounds %struct.State, %struct.State* %0, i32 0, i32 6
  %4 = getelementptr inbounds %struct.GPR, %struct.GPR* %3, i32 0, i32 33
  %5 = getelementptr inbounds %struct.Reg, %struct.Reg* %4, i32 0, i32 0
  %PC = bitcast %union.anon* %5 to i64*
  %6 = load i64, i64* %PC
  %7 = add i64 %6, %rel_off1
  %8 = load i64, i64* %PC
  %9 = add i64 %8, %rel_off2
  store i64 %9, i64* %PC
  %10 = call %struct.Memory* @_ZN12_GLOBAL__N_1L3JMPI2InImEEEP6MemoryS4_R5StateT_(%struct.Memory* %2, %struct.State* %0, i64 %7)
  ret %struct.Memory* %10
}


define %struct.Memory* @routine_movl__0x0__MINUS0x38__rbp_(%struct.State*  dereferenceable(3376), i64, %struct.Memory* ) #19 {
block_400488:
  %3 = getelementptr inbounds %struct.State, %struct.State* %0, i32 0, i32 6
  %4 = getelementptr inbounds %struct.GPR, %struct.GPR* %3, i32 0, i32 33
  %5 = getelementptr inbounds %struct.Reg, %struct.Reg* %4, i32 0, i32 0
  %PC = bitcast %union.anon* %5 to i64*
  %6 = getelementptr inbounds %struct.State, %struct.State* %0, i32 0, i32 6
  %7 = getelementptr inbounds %struct.GPR, %struct.GPR* %6, i32 0, i32 15
  %8 = getelementptr inbounds %struct.Reg, %struct.Reg* %7, i32 0, i32 0
  %RBP = bitcast %union.anon* %8 to i64*
  %9 = load i64, i64* %RBP
  %10 = sub i64 %9, 56
  %11 = load i64, i64* %PC
  %12 = add i64 %11, 7
  store i64 %12, i64* %PC
  %13 = call %struct.Memory* @_ZN12_GLOBAL__N_1L3MOVI3MnWIjE2InIjEEEP6MemoryS6_R5StateT_T0_(%struct.Memory* %2, %struct.State* %0, i64 %10, i64 0)
  ret %struct.Memory* %13
}






define %struct.Memory* @routine_jge_.L_40117f(%struct.State*  dereferenceable(3376), i64, %struct.Memory*, i8* %BRANCH_TAKEN, i64 %rel_off1, i64 %rel_off2, i64 %rel_off3) {
block_400488:
  %3 = getelementptr inbounds %struct.State, %struct.State* %0, i32 0, i32 6
  %4 = getelementptr inbounds %struct.GPR, %struct.GPR* %3, i32 0, i32 33
  %5 = getelementptr inbounds %struct.Reg, %struct.Reg* %4, i32 0, i32 0
  %PC = bitcast %union.anon* %5 to i64*
  %6 = load i64, i64* %PC
  %7 = add i64 %6, %rel_off1
  %8 = load i64, i64* %PC
  %9 = add i64 %8, %rel_off2
  %10 = load i64, i64* %PC
  %11 = add i64 %10, %rel_off3
  store i64 %11, i64* %PC
  %12 = call %struct.Memory* @_ZN12_GLOBAL__N_1L3JNLEP6MemoryR5State3RnWIhE2InImES7_(%struct.Memory* %2, %struct.State* %0, i8* %BRANCH_TAKEN, i64 %7, i64 %9)
  ret %struct.Memory* %12
}


define %struct.Memory* @routine_movl__0x1__MINUS0x3c__rbp_(%struct.State*  dereferenceable(3376), i64, %struct.Memory* ) #19 {
block_400488:
  %3 = getelementptr inbounds %struct.State, %struct.State* %0, i32 0, i32 6
  %4 = getelementptr inbounds %struct.GPR, %struct.GPR* %3, i32 0, i32 33
  %5 = getelementptr inbounds %struct.Reg, %struct.Reg* %4, i32 0, i32 0
  %PC = bitcast %union.anon* %5 to i64*
  %6 = getelementptr inbounds %struct.State, %struct.State* %0, i32 0, i32 6
  %7 = getelementptr inbounds %struct.GPR, %struct.GPR* %6, i32 0, i32 15
  %8 = getelementptr inbounds %struct.Reg, %struct.Reg* %7, i32 0, i32 0
  %RBP = bitcast %union.anon* %8 to i64*
  %9 = load i64, i64* %RBP
  %10 = sub i64 %9, 60
  %11 = load i64, i64* %PC
  %12 = add i64 %11, 7
  store i64 %12, i64* %PC
  %13 = call %struct.Memory* @_ZN12_GLOBAL__N_1L3MOVI3MnWIjE2InIjEEEP6MemoryS6_R5StateT_T0_(%struct.Memory* %2, %struct.State* %0, i64 %10, i64 1)
  ret %struct.Memory* %13
}






define %struct.Memory* @routine_jge_.L_40116c(%struct.State*  dereferenceable(3376), i64, %struct.Memory*, i8* %BRANCH_TAKEN, i64 %rel_off1, i64 %rel_off2, i64 %rel_off3) {
block_400488:
  %3 = getelementptr inbounds %struct.State, %struct.State* %0, i32 0, i32 6
  %4 = getelementptr inbounds %struct.GPR, %struct.GPR* %3, i32 0, i32 33
  %5 = getelementptr inbounds %struct.Reg, %struct.Reg* %4, i32 0, i32 0
  %PC = bitcast %union.anon* %5 to i64*
  %6 = load i64, i64* %PC
  %7 = add i64 %6, %rel_off1
  %8 = load i64, i64* %PC
  %9 = add i64 %8, %rel_off2
  %10 = load i64, i64* %PC
  %11 = add i64 %10, %rel_off3
  store i64 %11, i64* %PC
  %12 = call %struct.Memory* @_ZN12_GLOBAL__N_1L3JNLEP6MemoryR5State3RnWIhE2InImES7_(%struct.Memory* %2, %struct.State* %0, i8* %BRANCH_TAKEN, i64 %7, i64 %9)
  ret %struct.Memory* %12
}


define %struct.Memory* @routine_movsd_0x5ab__rip____xmm0(%struct.State*  dereferenceable(3376), i64, %struct.Memory* ) #19 {
block_400488:
  %3 = getelementptr inbounds %struct.State, %struct.State* %0, i32 0, i32 6
  %4 = getelementptr inbounds %struct.GPR, %struct.GPR* %3, i32 0, i32 33
  %5 = getelementptr inbounds %struct.Reg, %struct.Reg* %4, i32 0, i32 0
  %PC = bitcast %union.anon* %5 to i64*
  %6 = getelementptr inbounds %struct.State, %struct.State* %0, i32 0, i32 1
  %7 = getelementptr inbounds [32 x %union.VectorReg], [32 x %union.VectorReg]* %6, i64 0, i64 0
  %YMM0 = bitcast %union.VectorReg* %7 to %"class.std::bitset"*
  %8 = bitcast %"class.std::bitset"* %YMM0 to i8*
  %9 = load i64, i64* %PC
  %10 = add i64 %9, 1459
  %11 = load i64, i64* %PC
  %12 = add i64 %11, 8
  store i64 %12, i64* %PC
  %13 = call %struct.Memory* @_ZN12_GLOBAL__N_1L9MOVSD_MEMI3VnWI8vec128_tE3MVnI7vec64_tEEEP6MemoryS8_R5StateT_T0_(%struct.Memory* %2, %struct.State* %0, i8* %8, i64 %10)
  ret %struct.Memory* %13
}


define %struct.Memory* @routine_movq_MINUS0x18__rbp____rax(%struct.State*  dereferenceable(3376), i64, %struct.Memory* ) #19 {
block_400488:
  %3 = getelementptr inbounds %struct.State, %struct.State* %0, i32 0, i32 6
  %4 = getelementptr inbounds %struct.GPR, %struct.GPR* %3, i32 0, i32 33
  %5 = getelementptr inbounds %struct.Reg, %struct.Reg* %4, i32 0, i32 0
  %PC = bitcast %union.anon* %5 to i64*
  %6 = getelementptr inbounds %struct.State, %struct.State* %0, i32 0, i32 6
  %7 = getelementptr inbounds %struct.GPR, %struct.GPR* %6, i32 0, i32 1
  %8 = getelementptr inbounds %struct.Reg, %struct.Reg* %7, i32 0, i32 0
  %RAX = bitcast %union.anon* %8 to i64*
  %9 = getelementptr inbounds %struct.State, %struct.State* %0, i32 0, i32 6
  %10 = getelementptr inbounds %struct.GPR, %struct.GPR* %9, i32 0, i32 15
  %11 = getelementptr inbounds %struct.Reg, %struct.Reg* %10, i32 0, i32 0
  %RBP = bitcast %union.anon* %11 to i64*
  %12 = load i64, i64* %RBP
  %13 = sub i64 %12, 24
  %14 = load i64, i64* %PC
  %15 = add i64 %14, 4
  store i64 %15, i64* %PC
  %16 = call %struct.Memory* @_ZN12_GLOBAL__N_1L3MOVI3RnWImE2MnImEEEP6MemoryS6_R5StateT_T0_(%struct.Memory* %2, %struct.State* %0, i64* %RAX, i64 %13)
  ret %struct.Memory* %16
}
































define %struct.Memory* @routine_movl_MINUS0x3c__rbp____edx(%struct.State*  dereferenceable(3376), i64, %struct.Memory* ) #19 {
block_400488:
  %3 = getelementptr inbounds %struct.State, %struct.State* %0, i32 0, i32 6
  %4 = getelementptr inbounds %struct.GPR, %struct.GPR* %3, i32 0, i32 33
  %5 = getelementptr inbounds %struct.Reg, %struct.Reg* %4, i32 0, i32 0
  %PC = bitcast %union.anon* %5 to i64*
  %6 = getelementptr inbounds %struct.State, %struct.State* %0, i32 0, i32 6
  %7 = getelementptr inbounds %struct.GPR, %struct.GPR* %6, i32 0, i32 7
  %8 = getelementptr inbounds %struct.Reg, %struct.Reg* %7, i32 0, i32 0
  %RDX = bitcast %union.anon* %8 to i64*
  %9 = getelementptr inbounds %struct.State, %struct.State* %0, i32 0, i32 6
  %10 = getelementptr inbounds %struct.GPR, %struct.GPR* %9, i32 0, i32 15
  %11 = getelementptr inbounds %struct.Reg, %struct.Reg* %10, i32 0, i32 0
  %RBP = bitcast %union.anon* %11 to i64*
  %12 = load i64, i64* %RBP
  %13 = sub i64 %12, 60
  %14 = load i64, i64* %PC
  %15 = add i64 %14, 3
  store i64 %15, i64* %PC
  %16 = call %struct.Memory* @_ZN12_GLOBAL__N_1L3MOVI3RnWImE2MnIjEEEP6MemoryS6_R5StateT_T0_(%struct.Memory* %2, %struct.State* %0, i64* %RDX, i64 %13)
  ret %struct.Memory* %16
}






























define %struct.Memory* @routine_jmpq_.L_4010d1(%struct.State*  dereferenceable(3376), i64, %struct.Memory*, i64 %rel_off1, i64 %rel_off2) {
block_400488:
  %3 = getelementptr inbounds %struct.State, %struct.State* %0, i32 0, i32 6
  %4 = getelementptr inbounds %struct.GPR, %struct.GPR* %3, i32 0, i32 33
  %5 = getelementptr inbounds %struct.Reg, %struct.Reg* %4, i32 0, i32 0
  %PC = bitcast %union.anon* %5 to i64*
  %6 = load i64, i64* %PC
  %7 = add i64 %6, %rel_off1
  %8 = load i64, i64* %PC
  %9 = add i64 %8, %rel_off2
  store i64 %9, i64* %PC
  %10 = call %struct.Memory* @_ZN12_GLOBAL__N_1L3JMPI2InImEEEP6MemoryS4_R5StateT_(%struct.Memory* %2, %struct.State* %0, i64 %7)
  ret %struct.Memory* %10
}


define %struct.Memory* @routine_jmpq_.L_401171(%struct.State*  dereferenceable(3376), i64, %struct.Memory*, i64 %rel_off1, i64 %rel_off2) {
block_400488:
  %3 = getelementptr inbounds %struct.State, %struct.State* %0, i32 0, i32 6
  %4 = getelementptr inbounds %struct.GPR, %struct.GPR* %3, i32 0, i32 33
  %5 = getelementptr inbounds %struct.Reg, %struct.Reg* %4, i32 0, i32 0
  %PC = bitcast %union.anon* %5 to i64*
  %6 = load i64, i64* %PC
  %7 = add i64 %6, %rel_off1
  %8 = load i64, i64* %PC
  %9 = add i64 %8, %rel_off2
  store i64 %9, i64* %PC
  %10 = call %struct.Memory* @_ZN12_GLOBAL__N_1L3JMPI2InImEEEP6MemoryS4_R5StateT_(%struct.Memory* %2, %struct.State* %0, i64 %7)
  ret %struct.Memory* %10
}








define %struct.Memory* @routine_jmpq_.L_4010be(%struct.State*  dereferenceable(3376), i64, %struct.Memory*, i64 %rel_off1, i64 %rel_off2) {
block_400488:
  %3 = getelementptr inbounds %struct.State, %struct.State* %0, i32 0, i32 6
  %4 = getelementptr inbounds %struct.GPR, %struct.GPR* %3, i32 0, i32 33
  %5 = getelementptr inbounds %struct.Reg, %struct.Reg* %4, i32 0, i32 0
  %PC = bitcast %union.anon* %5 to i64*
  %6 = load i64, i64* %PC
  %7 = add i64 %6, %rel_off1
  %8 = load i64, i64* %PC
  %9 = add i64 %8, %rel_off2
  store i64 %9, i64* %PC
  %10 = call %struct.Memory* @_ZN12_GLOBAL__N_1L3JMPI2InImEEEP6MemoryS4_R5StateT_(%struct.Memory* %2, %struct.State* %0, i64 %7)
  ret %struct.Memory* %10
}






define %struct.Memory* @routine_movl_MINUS0x8__rbp____ecx(%struct.State*  dereferenceable(3376), i64, %struct.Memory* ) #19 {
block_400488:
  %3 = getelementptr inbounds %struct.State, %struct.State* %0, i32 0, i32 6
  %4 = getelementptr inbounds %struct.GPR, %struct.GPR* %3, i32 0, i32 33
  %5 = getelementptr inbounds %struct.Reg, %struct.Reg* %4, i32 0, i32 0
  %PC = bitcast %union.anon* %5 to i64*
  %6 = getelementptr inbounds %struct.State, %struct.State* %0, i32 0, i32 6
  %7 = getelementptr inbounds %struct.GPR, %struct.GPR* %6, i32 0, i32 5
  %8 = getelementptr inbounds %struct.Reg, %struct.Reg* %7, i32 0, i32 0
  %RCX = bitcast %union.anon* %8 to i64*
  %9 = getelementptr inbounds %struct.State, %struct.State* %0, i32 0, i32 6
  %10 = getelementptr inbounds %struct.GPR, %struct.GPR* %9, i32 0, i32 15
  %11 = getelementptr inbounds %struct.Reg, %struct.Reg* %10, i32 0, i32 0
  %RBP = bitcast %union.anon* %11 to i64*
  %12 = load i64, i64* %RBP
  %13 = sub i64 %12, 8
  %14 = load i64, i64* %PC
  %15 = add i64 %14, 3
  store i64 %15, i64* %PC
  %16 = call %struct.Memory* @_ZN12_GLOBAL__N_1L3MOVI3RnWImE2MnIjEEEP6MemoryS6_R5StateT_T0_(%struct.Memory* %2, %struct.State* %0, i64* %RCX, i64 %13)
  ret %struct.Memory* %16
}


define %struct.Memory* @routine_subl__0x1___ecx(%struct.State*  dereferenceable(3376), i64, %struct.Memory* ) #19 {
block_400488:
  %3 = getelementptr inbounds %struct.State, %struct.State* %0, i32 0, i32 6
  %4 = getelementptr inbounds %struct.GPR, %struct.GPR* %3, i32 0, i32 33
  %5 = getelementptr inbounds %struct.Reg, %struct.Reg* %4, i32 0, i32 0
  %PC = bitcast %union.anon* %5 to i64*
  %6 = getelementptr inbounds %struct.State, %struct.State* %0, i32 0, i32 6
  %7 = getelementptr inbounds %struct.GPR, %struct.GPR* %6, i32 0, i32 5
  %8 = getelementptr inbounds %struct.Reg, %struct.Reg* %7, i32 0, i32 0
  %RCX = bitcast %union.anon* %8 to i64*
  %9 = load i64, i64* %RCX
  %10 = load i64, i64* %PC
  %11 = add i64 %10, 3
  store i64 %11, i64* %PC
  %12 = call %struct.Memory* @_ZN12_GLOBAL__N_1L3SUBI3RnWImE2RnIjE2InIjEEEP6MemoryS8_R5StateT_T0_T1_(%struct.Memory* %2, %struct.State* %0, i64* %RCX, i64 %9, i64 1)
  ret %struct.Memory* %12
}

define internal %struct.Memory* @_ZN12_GLOBAL__N_1L3CMPI2RnIjES2_EEP6MemoryS4_R5StateT_T0_(%struct.Memory* readnone returned, %struct.State* nocapture dereferenceable(3376), i64, i64) #0 {
  %5 = trunc i64 %2 to i32
  %6 = trunc i64 %3 to i32
  %7 = sub i32 %5, %6
  %8 = icmp ult i32 %5, %6
  %9 = zext i1 %8 to i8
  %10 = getelementptr inbounds %struct.State, %struct.State* %1, i64 0, i32 2, i32 1
  store i8 %9, i8* %10, align 1
  %11 = and i32 %7, 255
  %12 = tail call i32 @llvm.ctpop.i32(i32 %11) #22
  %13 = trunc i32 %12 to i8
  %14 = and i8 %13, 1
  %15 = xor i8 %14, 1
  %16 = getelementptr inbounds %struct.State, %struct.State* %1, i64 0, i32 2, i32 3
  store i8 %15, i8* %16, align 1
  %17 = xor i64 %3, %2
  %18 = trunc i64 %17 to i32
  %19 = xor i32 %18, %7
  %20 = lshr i32 %19, 4
  %21 = trunc i32 %20 to i8
  %22 = and i8 %21, 1
  %23 = getelementptr inbounds %struct.State, %struct.State* %1, i64 0, i32 2, i32 5
  store i8 %22, i8* %23, align 1
  %24 = icmp eq i32 %7, 0
  %25 = zext i1 %24 to i8
  %26 = getelementptr inbounds %struct.State, %struct.State* %1, i64 0, i32 2, i32 7
  store i8 %25, i8* %26, align 1
  %27 = lshr i32 %7, 31
  %28 = trunc i32 %27 to i8
  %29 = getelementptr inbounds %struct.State, %struct.State* %1, i64 0, i32 2, i32 9
  store i8 %28, i8* %29, align 1
  %30 = lshr i32 %5, 31
  %31 = lshr i32 %6, 31
  %32 = xor i32 %31, %30
  %33 = xor i32 %27, %30
  %34 = add   i32 %33, %32
  %35 = icmp eq i32 %34, 2
  %36 = zext i1 %35 to i8
  %37 = getelementptr inbounds %struct.State, %struct.State* %1, i64 0, i32 2, i32 13
  store i8 %36, i8* %37, align 1
  ret %struct.Memory* %0
}

define %struct.Memory* @routine_cmpl__ecx___eax(%struct.State*  dereferenceable(3376), i64, %struct.Memory* ) #19 {
block_400488:
  %3 = getelementptr inbounds %struct.State, %struct.State* %0, i32 0, i32 6
  %4 = getelementptr inbounds %struct.GPR, %struct.GPR* %3, i32 0, i32 33
  %5 = getelementptr inbounds %struct.Reg, %struct.Reg* %4, i32 0, i32 0
  %PC = bitcast %union.anon* %5 to i64*
  %6 = getelementptr inbounds %struct.State, %struct.State* %0, i32 0, i32 6
  %7 = getelementptr inbounds %struct.GPR, %struct.GPR* %6, i32 0, i32 1
  %8 = getelementptr inbounds %struct.Reg, %struct.Reg* %7, i32 0, i32 0
  %EAX = bitcast %union.anon* %8 to i32*
  %9 = getelementptr inbounds %struct.State, %struct.State* %0, i32 0, i32 6
  %10 = getelementptr inbounds %struct.GPR, %struct.GPR* %9, i32 0, i32 5
  %11 = getelementptr inbounds %struct.Reg, %struct.Reg* %10, i32 0, i32 0
  %ECX = bitcast %union.anon* %11 to i32*
  %12 = load i32, i32* %EAX
  %13 = zext i32 %12 to i64
  %14 = load i32, i32* %ECX
  %15 = zext i32 %14 to i64
  %16 = load i64, i64* %PC
  %17 = add i64 %16, 2
  store i64 %17, i64* %PC
  %18 = call %struct.Memory* @_ZN12_GLOBAL__N_1L3CMPI2RnIjES2_EEP6MemoryS4_R5StateT_T0_(%struct.Memory* %2, %struct.State* %0, i64 %13, i64 %15)
  ret %struct.Memory* %18
}


define %struct.Memory* @routine_jge_.L_40128c(%struct.State*  dereferenceable(3376), i64, %struct.Memory*, i8* %BRANCH_TAKEN, i64 %rel_off1, i64 %rel_off2, i64 %rel_off3) {
block_400488:
  %3 = getelementptr inbounds %struct.State, %struct.State* %0, i32 0, i32 6
  %4 = getelementptr inbounds %struct.GPR, %struct.GPR* %3, i32 0, i32 33
  %5 = getelementptr inbounds %struct.Reg, %struct.Reg* %4, i32 0, i32 0
  %PC = bitcast %union.anon* %5 to i64*
  %6 = load i64, i64* %PC
  %7 = add i64 %6, %rel_off1
  %8 = load i64, i64* %PC
  %9 = add i64 %8, %rel_off2
  %10 = load i64, i64* %PC
  %11 = add i64 %10, %rel_off3
  store i64 %11, i64* %PC
  %12 = call %struct.Memory* @_ZN12_GLOBAL__N_1L3JNLEP6MemoryR5State3RnWIhE2InImES7_(%struct.Memory* %2, %struct.State* %0, i8* %BRANCH_TAKEN, i64 %7, i64 %9)
  ret %struct.Memory* %12
}






define %struct.Memory* @routine_movl_MINUS0xc__rbp____ecx(%struct.State*  dereferenceable(3376), i64, %struct.Memory* ) #19 {
block_400488:
  %3 = getelementptr inbounds %struct.State, %struct.State* %0, i32 0, i32 6
  %4 = getelementptr inbounds %struct.GPR, %struct.GPR* %3, i32 0, i32 33
  %5 = getelementptr inbounds %struct.Reg, %struct.Reg* %4, i32 0, i32 0
  %PC = bitcast %union.anon* %5 to i64*
  %6 = getelementptr inbounds %struct.State, %struct.State* %0, i32 0, i32 6
  %7 = getelementptr inbounds %struct.GPR, %struct.GPR* %6, i32 0, i32 5
  %8 = getelementptr inbounds %struct.Reg, %struct.Reg* %7, i32 0, i32 0
  %RCX = bitcast %union.anon* %8 to i64*
  %9 = getelementptr inbounds %struct.State, %struct.State* %0, i32 0, i32 6
  %10 = getelementptr inbounds %struct.GPR, %struct.GPR* %9, i32 0, i32 15
  %11 = getelementptr inbounds %struct.Reg, %struct.Reg* %10, i32 0, i32 0
  %RBP = bitcast %union.anon* %11 to i64*
  %12 = load i64, i64* %RBP
  %13 = sub i64 %12, 12
  %14 = load i64, i64* %PC
  %15 = add i64 %14, 3
  store i64 %15, i64* %PC
  %16 = call %struct.Memory* @_ZN12_GLOBAL__N_1L3MOVI3RnWImE2MnIjEEEP6MemoryS6_R5StateT_T0_(%struct.Memory* %2, %struct.State* %0, i64* %RCX, i64 %13)
  ret %struct.Memory* %16
}






define %struct.Memory* @routine_jge_.L_401279(%struct.State*  dereferenceable(3376), i64, %struct.Memory*, i8* %BRANCH_TAKEN, i64 %rel_off1, i64 %rel_off2, i64 %rel_off3) {
block_400488:
  %3 = getelementptr inbounds %struct.State, %struct.State* %0, i32 0, i32 6
  %4 = getelementptr inbounds %struct.GPR, %struct.GPR* %3, i32 0, i32 33
  %5 = getelementptr inbounds %struct.Reg, %struct.Reg* %4, i32 0, i32 0
  %PC = bitcast %union.anon* %5 to i64*
  %6 = load i64, i64* %PC
  %7 = add i64 %6, %rel_off1
  %8 = load i64, i64* %PC
  %9 = add i64 %8, %rel_off2
  %10 = load i64, i64* %PC
  %11 = add i64 %10, %rel_off3
  store i64 %11, i64* %PC
  %12 = call %struct.Memory* @_ZN12_GLOBAL__N_1L3JNLEP6MemoryR5State3RnWIhE2InImES7_(%struct.Memory* %2, %struct.State* %0, i8* %BRANCH_TAKEN, i64 %7, i64 %9)
  ret %struct.Memory* %12
}


define %struct.Memory* @routine_movsd_0x4d1__rip____xmm0(%struct.State*  dereferenceable(3376), i64, %struct.Memory* ) #19 {
block_400488:
  %3 = getelementptr inbounds %struct.State, %struct.State* %0, i32 0, i32 6
  %4 = getelementptr inbounds %struct.GPR, %struct.GPR* %3, i32 0, i32 33
  %5 = getelementptr inbounds %struct.Reg, %struct.Reg* %4, i32 0, i32 0
  %PC = bitcast %union.anon* %5 to i64*
  %6 = getelementptr inbounds %struct.State, %struct.State* %0, i32 0, i32 1
  %7 = getelementptr inbounds [32 x %union.VectorReg], [32 x %union.VectorReg]* %6, i64 0, i64 0
  %YMM0 = bitcast %union.VectorReg* %7 to %"class.std::bitset"*
  %8 = bitcast %"class.std::bitset"* %YMM0 to i8*
  %9 = load i64, i64* %PC
  %10 = add i64 %9, 1241
  %11 = load i64, i64* %PC
  %12 = add i64 %11, 8
  store i64 %12, i64* %PC
  %13 = call %struct.Memory* @_ZN12_GLOBAL__N_1L9MOVSD_MEMI3VnWI8vec128_tE3MVnI7vec64_tEEEP6MemoryS8_R5StateT_T0_(%struct.Memory* %2, %struct.State* %0, i8* %8, i64 %10)
  ret %struct.Memory* %13
}
























define %struct.Memory* @routine_addl__0x1___edx(%struct.State*  dereferenceable(3376), i64, %struct.Memory* ) #19 {
block_400488:
  %3 = getelementptr inbounds %struct.State, %struct.State* %0, i32 0, i32 6
  %4 = getelementptr inbounds %struct.GPR, %struct.GPR* %3, i32 0, i32 33
  %5 = getelementptr inbounds %struct.Reg, %struct.Reg* %4, i32 0, i32 0
  %PC = bitcast %union.anon* %5 to i64*
  %6 = getelementptr inbounds %struct.State, %struct.State* %0, i32 0, i32 6
  %7 = getelementptr inbounds %struct.GPR, %struct.GPR* %6, i32 0, i32 7
  %8 = getelementptr inbounds %struct.Reg, %struct.Reg* %7, i32 0, i32 0
  %RDX = bitcast %union.anon* %8 to i64*
  %9 = load i64, i64* %RDX
  %10 = load i64, i64* %PC
  %11 = add i64 %10, 3
  store i64 %11, i64* %PC
  %12 = call %struct.Memory* @_ZN12_GLOBAL__N_1L3ADDI3RnWImE2RnIjE2InIjEEEP6MemoryS8_R5StateT_T0_T1_(%struct.Memory* %2, %struct.State* %0, i64* %RDX, i64 %9, i64 1)
  ret %struct.Memory* %12
}































define internal %struct.Memory* @_ZN12_GLOBAL__N_1L5ADDSDI3VnWI8vec128_tE2VnIS2_E3MVnI7vec64_tEEEP6MemorySA_R5StateT_T0_T1_(%struct.Memory* returned, %struct.State* nocapture readnone dereferenceable(3376), i8* nocapture, i8* nocapture readonly, i64) #0 {
  %6 = bitcast i8* %3 to double*
  %7 = load double, double* %6, align 1
  %8 = getelementptr inbounds i8, i8* %3, i64 8
  %9 = bitcast i8* %8 to i64*
  %10 = load i64, i64* %9, align 1
  %11 = inttoptr i64 %4 to double*
  %12 = load double, double* %11
  %13 = fadd double %7, %12
  %14 = bitcast i8* %2 to double*
  store double %13, double* %14, align 1
  %15 = getelementptr inbounds i8, i8* %2, i64 8
  %16 = bitcast i8* %15 to i64*
  store i64 %10, i64* %16, align 1
  ret %struct.Memory* %0
}

define %struct.Memory* @routine_addsd___rax__rcx_8____xmm2(%struct.State*  dereferenceable(3376), i64, %struct.Memory* ) #19 {
block_400488:
  %3 = getelementptr inbounds %struct.State, %struct.State* %0, i32 0, i32 6
  %4 = getelementptr inbounds %struct.GPR, %struct.GPR* %3, i32 0, i32 33
  %5 = getelementptr inbounds %struct.Reg, %struct.Reg* %4, i32 0, i32 0
  %PC = bitcast %union.anon* %5 to i64*
  %6 = getelementptr inbounds %struct.State, %struct.State* %0, i32 0, i32 6
  %7 = getelementptr inbounds %struct.GPR, %struct.GPR* %6, i32 0, i32 1
  %8 = getelementptr inbounds %struct.Reg, %struct.Reg* %7, i32 0, i32 0
  %RAX = bitcast %union.anon* %8 to i64*
  %9 = getelementptr inbounds %struct.State, %struct.State* %0, i32 0, i32 6
  %10 = getelementptr inbounds %struct.GPR, %struct.GPR* %9, i32 0, i32 5
  %11 = getelementptr inbounds %struct.Reg, %struct.Reg* %10, i32 0, i32 0
  %RCX = bitcast %union.anon* %11 to i64*
  %12 = getelementptr inbounds %struct.State, %struct.State* %0, i32 0, i32 1
  %13 = getelementptr inbounds [32 x %union.VectorReg], [32 x %union.VectorReg]* %12, i64 0, i64 2
  %YMM2 = bitcast %union.VectorReg* %13 to %"class.std::bitset"*
  %14 = bitcast %"class.std::bitset"* %YMM2 to i8*
  %15 = bitcast %"class.std::bitset"* %YMM2 to i8*
  %16 = load i64, i64* %RAX
  %17 = load i64, i64* %RCX
  %18 = mul i64 %17, 8
  %19 = add i64 %18, %16
  %20 = load i64, i64* %PC
  %21 = add i64 %20, 5
  store i64 %21, i64* %PC
  %22 = call %struct.Memory* @_ZN12_GLOBAL__N_1L5ADDSDI3VnWI8vec128_tE2VnIS2_E3MVnI7vec64_tEEEP6MemorySA_R5StateT_T0_T1_(%struct.Memory* %2, %struct.State* %0, i8* %14, i8* %15, i64 %19)
  ret %struct.Memory* %22
}




































define %struct.Memory* @routine_jmpq_.L_40119e(%struct.State*  dereferenceable(3376), i64, %struct.Memory*, i64 %rel_off1, i64 %rel_off2) {
block_400488:
  %3 = getelementptr inbounds %struct.State, %struct.State* %0, i32 0, i32 6
  %4 = getelementptr inbounds %struct.GPR, %struct.GPR* %3, i32 0, i32 33
  %5 = getelementptr inbounds %struct.Reg, %struct.Reg* %4, i32 0, i32 0
  %PC = bitcast %union.anon* %5 to i64*
  %6 = load i64, i64* %PC
  %7 = add i64 %6, %rel_off1
  %8 = load i64, i64* %PC
  %9 = add i64 %8, %rel_off2
  store i64 %9, i64* %PC
  %10 = call %struct.Memory* @_ZN12_GLOBAL__N_1L3JMPI2InImEEEP6MemoryS4_R5StateT_(%struct.Memory* %2, %struct.State* %0, i64 %7)
  ret %struct.Memory* %10
}


define %struct.Memory* @routine_jmpq_.L_40127e(%struct.State*  dereferenceable(3376), i64, %struct.Memory*, i64 %rel_off1, i64 %rel_off2) {
block_400488:
  %3 = getelementptr inbounds %struct.State, %struct.State* %0, i32 0, i32 6
  %4 = getelementptr inbounds %struct.GPR, %struct.GPR* %3, i32 0, i32 33
  %5 = getelementptr inbounds %struct.Reg, %struct.Reg* %4, i32 0, i32 0
  %PC = bitcast %union.anon* %5 to i64*
  %6 = load i64, i64* %PC
  %7 = add i64 %6, %rel_off1
  %8 = load i64, i64* %PC
  %9 = add i64 %8, %rel_off2
  store i64 %9, i64* %PC
  %10 = call %struct.Memory* @_ZN12_GLOBAL__N_1L3JMPI2InImEEEP6MemoryS4_R5StateT_(%struct.Memory* %2, %struct.State* %0, i64 %7)
  ret %struct.Memory* %10
}








define %struct.Memory* @routine_jmpq_.L_401186(%struct.State*  dereferenceable(3376), i64, %struct.Memory*, i64 %rel_off1, i64 %rel_off2) {
block_400488:
  %3 = getelementptr inbounds %struct.State, %struct.State* %0, i32 0, i32 6
  %4 = getelementptr inbounds %struct.GPR, %struct.GPR* %3, i32 0, i32 33
  %5 = getelementptr inbounds %struct.Reg, %struct.Reg* %4, i32 0, i32 0
  %PC = bitcast %union.anon* %5 to i64*
  %6 = load i64, i64* %PC
  %7 = add i64 %6, %rel_off1
  %8 = load i64, i64* %PC
  %9 = add i64 %8, %rel_off2
  store i64 %9, i64* %PC
  %10 = call %struct.Memory* @_ZN12_GLOBAL__N_1L3JMPI2InImEEEP6MemoryS4_R5StateT_(%struct.Memory* %2, %struct.State* %0, i64 %7)
  ret %struct.Memory* %10
}


define %struct.Memory* @routine_jmpq_.L_401291(%struct.State*  dereferenceable(3376), i64, %struct.Memory*, i64 %rel_off1, i64 %rel_off2) {
block_400488:
  %3 = getelementptr inbounds %struct.State, %struct.State* %0, i32 0, i32 6
  %4 = getelementptr inbounds %struct.GPR, %struct.GPR* %3, i32 0, i32 33
  %5 = getelementptr inbounds %struct.Reg, %struct.Reg* %4, i32 0, i32 0
  %PC = bitcast %union.anon* %5 to i64*
  %6 = load i64, i64* %PC
  %7 = add i64 %6, %rel_off1
  %8 = load i64, i64* %PC
  %9 = add i64 %8, %rel_off2
  store i64 %9, i64* %PC
  %10 = call %struct.Memory* @_ZN12_GLOBAL__N_1L3JMPI2InImEEEP6MemoryS4_R5StateT_(%struct.Memory* %2, %struct.State* %0, i64 %7)
  ret %struct.Memory* %10
}






define %struct.Memory* @routine_movl__eax__MINUS0x34__rbp_(%struct.State*  dereferenceable(3376), i64, %struct.Memory* ) #19 {
block_400488:
  %3 = getelementptr inbounds %struct.State, %struct.State* %0, i32 0, i32 6
  %4 = getelementptr inbounds %struct.GPR, %struct.GPR* %3, i32 0, i32 33
  %5 = getelementptr inbounds %struct.Reg, %struct.Reg* %4, i32 0, i32 0
  %PC = bitcast %union.anon* %5 to i64*
  %6 = getelementptr inbounds %struct.State, %struct.State* %0, i32 0, i32 6
  %7 = getelementptr inbounds %struct.GPR, %struct.GPR* %6, i32 0, i32 1
  %8 = getelementptr inbounds %struct.Reg, %struct.Reg* %7, i32 0, i32 0
  %EAX = bitcast %union.anon* %8 to i32*
  %9 = getelementptr inbounds %struct.State, %struct.State* %0, i32 0, i32 6
  %10 = getelementptr inbounds %struct.GPR, %struct.GPR* %9, i32 0, i32 15
  %11 = getelementptr inbounds %struct.Reg, %struct.Reg* %10, i32 0, i32 0
  %RBP = bitcast %union.anon* %11 to i64*
  %12 = load i64, i64* %RBP
  %13 = sub i64 %12, 52
  %14 = load i32, i32* %EAX
  %15 = zext i32 %14 to i64
  %16 = load i64, i64* %PC
  %17 = add i64 %16, 3
  store i64 %17, i64* %PC
  %18 = call %struct.Memory* @_ZN12_GLOBAL__N_1L3MOVI3MnWIjE2RnIjEEEP6MemoryS6_R5StateT_T0_(%struct.Memory* %2, %struct.State* %0, i64 %13, i64 %15)
  ret %struct.Memory* %18
}


define %struct.Memory* @routine_jmpq_.L_400fa8(%struct.State*  dereferenceable(3376), i64, %struct.Memory*, i64 %rel_off1, i64 %rel_off2) {
block_400488:
  %3 = getelementptr inbounds %struct.State, %struct.State* %0, i32 0, i32 6
  %4 = getelementptr inbounds %struct.GPR, %struct.GPR* %3, i32 0, i32 33
  %5 = getelementptr inbounds %struct.Reg, %struct.Reg* %4, i32 0, i32 0
  %PC = bitcast %union.anon* %5 to i64*
  %6 = load i64, i64* %PC
  %7 = add i64 %6, %rel_off1
  %8 = load i64, i64* %PC
  %9 = add i64 %8, %rel_off2
  store i64 %9, i64* %PC
  %10 = call %struct.Memory* @_ZN12_GLOBAL__N_1L3JMPI2InImEEEP6MemoryS4_R5StateT_(%struct.Memory* %2, %struct.State* %0, i64 %7)
  ret %struct.Memory* %10
}

define internal %struct.Memory* @_ZN12_GLOBAL__N_1L3POPI3RnWImEEEP6MemoryS4_R5StateT_(%struct.Memory*, %struct.State* nocapture dereferenceable(3376), i64* nocapture) #0 {
  %4 = getelementptr inbounds %struct.State, %struct.State* %1, i64 0, i32 6, i32 13, i32 0, i32 0
  %5 = load i64, i64* %4, align 8
  %6 = add i64 %5, 8
  %7 = inttoptr i64 %5 to i64*
  %8 = load i64, i64* %7
  store i64 %8, i64* %2, align 8
  store i64 %6, i64* %4, align 8
  ret %struct.Memory* %0
}

define %struct.Memory* @routine_popq__rbp(%struct.State*  dereferenceable(3376), i64, %struct.Memory* ) #19 {
block_400488:
  %3 = getelementptr inbounds %struct.State, %struct.State* %0, i32 0, i32 6
  %4 = getelementptr inbounds %struct.GPR, %struct.GPR* %3, i32 0, i32 33
  %5 = getelementptr inbounds %struct.Reg, %struct.Reg* %4, i32 0, i32 0
  %PC = bitcast %union.anon* %5 to i64*
  %6 = getelementptr inbounds %struct.State, %struct.State* %0, i32 0, i32 6
  %7 = getelementptr inbounds %struct.GPR, %struct.GPR* %6, i32 0, i32 15
  %8 = getelementptr inbounds %struct.Reg, %struct.Reg* %7, i32 0, i32 0
  %RBP = bitcast %union.anon* %8 to i64*
  %9 = load i64, i64* %PC
  %10 = add i64 %9, 1
  store i64 %10, i64* %PC
  %11 = call %struct.Memory* @_ZN12_GLOBAL__N_1L3POPI3RnWImEEEP6MemoryS4_R5StateT_(%struct.Memory* %2, %struct.State* %0, i64* %RBP)
  ret %struct.Memory* %11
}

define internal %struct.Memory* @_ZN12_GLOBAL__N_1L3RETEP6MemoryR5State(%struct.Memory* returned, %struct.State* nocapture dereferenceable(3376)) #0 {
  %3 = getelementptr inbounds %struct.State, %struct.State* %1, i64 0, i32 6, i32 33, i32 0, i32 0
  %4 = getelementptr inbounds %struct.State, %struct.State* %1, i64 0, i32 6, i32 13, i32 0, i32 0
  %5 = load i64, i64* %4, align 8
  %6 = inttoptr i64 %5 to i64*
  %7 = load i64, i64* %6
  store i64 %7, i64* %3, align 8
  %8 = add i64 %5, 8
  store i64 %8, i64* %4, align 8
  ret %struct.Memory* %0
}

define %struct.Memory* @routine_retq(%struct.State*  dereferenceable(3376), i64, %struct.Memory* ) #19 {
block_400488:
  %3 = getelementptr inbounds %struct.State, %struct.State* %0, i32 0, i32 6
  %4 = getelementptr inbounds %struct.GPR, %struct.GPR* %3, i32 0, i32 33
  %5 = getelementptr inbounds %struct.Reg, %struct.Reg* %4, i32 0, i32 0
  %PC = bitcast %union.anon* %5 to i64*
  %6 = load i64, i64* %PC
  %7 = add i64 %6, 1
  store i64 %7, i64* %PC
  %8 = call %struct.Memory* @_ZN12_GLOBAL__N_1L3RETEP6MemoryR5State(%struct.Memory* %2, %struct.State* %0)
  ret %struct.Memory* %8
}

