; ModuleID = 'mcsema/test.proposed.ll'
source_filename = "llvm-link"
target datalayout = "e-m:e-i64:64-f80:128-n8:16:32:64-S128"
target triple = "x86_64-pc-linux-gnu-elf"

%union.anon = type { i64 }
%seg_400388__init_type = type <{ [23 x i8] }>
%seg_4003a0__text_type = type <{ [354 x i8] }>
%seg_400504__fini_type = type <{ [9 x i8] }>
%seg_400510__rodata_type = type <{ [4 x i8] }>
%seg_400514__eh_frame_hdr_type = type <{ [52 x i8] }>
%seg_400548__eh_frame_type = type <{ [208 x i8] }>
%seg_601018__data_type = type <{ [16 x i8] }>
%__bss_start_type = type <{ [8 x i8] }>
%struct.State = type { %struct.ArchState, [32 x %union.VectorReg], %struct.ArithFlags, %union.anon, %struct.Segments, %struct.AddressSpace, %struct.GPR, %struct.X87Stack, %struct.MMX, %struct.FPUStatusFlags, %union.anon, %union.FPU, %struct.SegmentCaches }
%struct.ArchState = type { i32, i32, %union.anon }
%union.VectorReg = type { %union.vec512_t }
%union.vec512_t = type { %struct.uint64v8_t }
%struct.uint64v8_t = type { [8 x i64] }
%struct.ArithFlags = type { i8, i8, i8, i8, i8, i8, i8, i8, i8, i8, i8, i8, i8, i8, i8, i8 }
%struct.Segments = type { i16, %union.SegmentSelector, i16, %union.SegmentSelector, i16, %union.SegmentSelector, i16, %union.SegmentSelector, i16, %union.SegmentSelector, i16, %union.SegmentSelector }
%union.SegmentSelector = type { i16 }
%struct.AddressSpace = type { i64, %struct.Reg, i64, %struct.Reg, i64, %struct.Reg, i64, %struct.Reg, i64, %struct.Reg, i64, %struct.Reg }
%struct.Reg = type { %union.anon }
%struct.GPR = type { i64, %struct.Reg, i64, %struct.Reg, i64, %struct.Reg, i64, %struct.Reg, i64, %struct.Reg, i64, %struct.Reg, i64, %struct.Reg, i64, %struct.Reg, i64, %struct.Reg, i64, %struct.Reg, i64, %struct.Reg, i64, %struct.Reg, i64, %struct.Reg, i64, %struct.Reg, i64, %struct.Reg, i64, %struct.Reg, i64, %struct.Reg }
%struct.X87Stack = type { [8 x %struct.anon.3] }
%struct.anon.3 = type { i64, double }
%struct.MMX = type { [8 x %struct.anon.4] }
%struct.anon.4 = type { i64, %union.vec64_t }
%union.vec64_t = type { %struct.uint64v1_t }
%struct.uint64v1_t = type { [1 x i64] }
%struct.FPUStatusFlags = type { i8, i8, i8, i8, i8, i8, i8, i8, i8, i8, i8, i8, i8, i8, i8, i8, i8, i8, i8, i8, [4 x i8] }
%union.FPU = type { %struct.anon.13 }
%struct.anon.13 = type { %struct.FpuFXSAVE, [96 x i8] }
%struct.FpuFXSAVE = type { %union.SegmentSelector, %union.SegmentSelector, %union.FPUAbridgedTagWord, i8, i16, i32, %union.SegmentSelector, i16, i32, %union.SegmentSelector, i16, %union.FPUControlStatus, %union.FPUControlStatus, [8 x %struct.FPUStackElem], [16 x %union.vec128_t] }
%union.FPUAbridgedTagWord = type { i8 }
%union.FPUControlStatus = type { i32 }
%struct.FPUStackElem = type { %union.anon.11, [6 x i8] }
%union.anon.11 = type { %struct.float80_t }
%struct.float80_t = type { [10 x i8] }
%union.vec128_t = type { %struct.uint128v1_t }
%struct.uint128v1_t = type { [1 x i128] }
%struct.SegmentCaches = type { %struct.SegmentShadow, %struct.SegmentShadow, %struct.SegmentShadow, %struct.SegmentShadow, %struct.SegmentShadow, %struct.SegmentShadow }
%struct.SegmentShadow = type { %union.anon, i32, i32 }
%struct.Memory = type opaque
%struct.anon.2 = type { i8, i8 }

@switch.table = private unnamed_addr constant [4 x i32] [i32 2048, i32 3072, i32 0, i32 1024]
@DR0 = external global i64, align 8
@DR1 = external global i64, align 8
@DR2 = external global i64, align 8
@DR3 = external global i64, align 8
@DR4 = external global i64, align 8
@DR5 = external global i64, align 8
@DR6 = external global i64, align 8
@DR7 = external global i64, align 8
@gCR0 = external global %union.anon, align 1
@gCR1 = external global %union.anon, align 1
@gCR2 = external global %union.anon, align 1
@gCR3 = external global %union.anon, align 1
@gCR4 = external global %union.anon, align 1
@gCR8 = external global %union.anon, align 1
@seg_400388__init = internal constant %seg_400388__init_type <{ [23 x i8] c"H\83\EC\08H\8B\05e\0C \00H\85\C0t\02\FF\D0H\83\C4\08\C3" }>
@seg_4003a0__text = internal constant %seg_4003a0__text_type <{ [354 x i8] c"1\EDI\89\D1^H\89\E2H\83\E4\F0PTI\C7\C0\00\05@\00H\C7\C1\90\04@\00H\C7\C7\88\04@\00\FF\15&\0C \00\F4\0F\1FD\00\00\F3\C3f.\0F\1F\84\00\00\00\00\00\0F\1F@\00U\B8(\10`\00H=(\10`\00H\89\E5t\17\B8\00\00\00\00H\85\C0t\0D]\BF(\10`\00\FF\E0\0F\1FD\00\00]\C3f\0F\1FD\00\00\BE(\10`\00UH\81\EE(\10`\00H\89\E5H\C1\FE\03H\89\F0H\C1\E8?H\01\C6H\D1\FEt\15\B8\00\00\00\00H\85\C0t\0B]\BF(\10`\00\FF\E0\0F\1F\00]\C3f\0F\1FD\00\00\80=\D1\0B \00\00u\17UH\89\E5\E8~\FF\FF\FF\C6\05\BF\0B \00\01]\C3\0F\1FD\00\00\F3\C3\0F\1F@\00f.\0F\1F\84\00\00\00\00\00UH\89\E5]\EB\89\90U\C3f\0F\1FD\00\00AWAVI\89\D7AUATL\8D%\9E\09 \00UH\8D-\9E\09 \00SA\89\FDI\89\F6L)\E5H\83\EC\08H\C1\FD\03\E8\C7\FE\FF\FFH\85\EDt 1\DB\0F\1F\84\00\00\00\00\00L\89\FAL\89\F6D\89\EFA\FF\14\DCH\83\C3\01H9\DDu\EAH\83\C4\08[]A\5CA]A^A_\C3\90f.\0F\1F\84\00\00\00\00\00\F3\C3" }>
@seg_400504__fini = internal constant %seg_400504__fini_type <{ [9 x i8] c"H\83\EC\08H\83\C4\08\C3" }>
@seg_400510__rodata = internal constant %seg_400510__rodata_type <{ [4 x i8] c"\01\00\02\00" }>
@seg_400514__eh_frame_hdr = internal constant %seg_400514__eh_frame_hdr_type <{ [52 x i8] c"\01\1B\03;0\00\00\00\05\00\00\00\8C\FE\FF\FFL\00\00\00\BC\FE\FF\FFx\00\00\00t\FF\FF\FF\8C\00\00\00|\FF\FF\FF\A4\00\00\00\EC\FF\FF\FF\EC\00\00\00" }>
@seg_400548__eh_frame = internal constant %seg_400548__eh_frame_type <{ [208 x i8] c"\14\00\00\00\00\00\00\00\01zR\00\01x\10\01\1B\0C\07\08\90\01\07\10\10\00\00\00\1C\00\00\008\FE\FF\FF+\00\00\00\00\00\00\00\14\00\00\00\00\00\00\00\01zR\00\01x\10\01\1B\0C\07\08\90\01\00\00\10\00\00\00\1C\00\00\00<\FE\FF\FF\02\00\00\00\00\00\00\00\14\00\00\000\00\00\00\E0\FE\FF\FF\02\00\00\00\00\00\00\00\00\00\00\00D\00\00\00H\00\00\00\D0\FE\FF\FFe\00\00\00\00B\0E\10\8F\02B\0E\18\8E\03E\0E \8D\04B\0E(\8C\05H\0E0\86\06H\0E8\83\07M\0E@r\0E8A\0E0A\0E(B\0E B\0E\18B\0E\10B\0E\08\00\10\00\00\00\90\00\00\00\F8\FE\FF\FF\02\00\00\00\00\00\00\00\00\00\00\00" }>
@seg_601018__data = internal global %seg_601018__data_type zeroinitializer
@__bss_start = global %__bss_start_type zeroinitializer
@0 = internal global i1 false

; Function Attrs: nounwind readnone
declare i32 @llvm.ctpop.i32(i32) #0

declare %struct.Memory* @__remill_error(%struct.State* dereferenceable(3376), i64, %struct.Memory*)

declare %struct.Memory* @sub_400e50._Z11start_timerv(%struct.State* dereferenceable(3376), i64, %struct.Memory*)

declare %struct.Memory* @sub_413ba0._ZN19custom_sub_variableIaE8do_shiftEaa(%struct.State* dereferenceable(3376), i64, %struct.Memory*)

declare %struct.Memory* @sub_413bd0._Z26check_shifted_variable_sumIa19custom_sub_variableIaEEvT_S2_(%struct.State* dereferenceable(3376), i64, %struct.Memory*)

declare %struct.Memory* @sub_400e70._Z5timerv(%struct.State* dereferenceable(3376), i64, %struct.Memory*)

declare %struct.Memory* @sub_400810._Z13record_resultdPKc(%struct.State* dereferenceable(3376), i64, %struct.Memory*)

; Function Attrs: alwaysinline
define %struct.Memory* @_Z14test_variable1Ia19custom_sub_variableIaEEvPT_iS2_PKc(%struct.State* noalias, i64, %struct.Memory* noalias) #1 {
entry:
  %3 = getelementptr inbounds %struct.State, %struct.State* %0, i64 0, i32 6, i32 33, i32 0, i32 0
  store i64 %1, i64* %3, align 8
  %BRANCH_TAKEN = alloca i8, align 1
  store i8 0, i8* %BRANCH_TAKEN, align 1
  %MEMORY = alloca %struct.Memory*, align 8
  store %struct.Memory* %2, %struct.Memory** %MEMORY, align 8
  %loadMem_403280 = load %struct.Memory*, %struct.Memory** %MEMORY
  %4 = getelementptr inbounds %struct.State, %struct.State* %0, i32 0, i32 6
  %5 = getelementptr inbounds %struct.GPR, %struct.GPR* %4, i32 0, i32 33
  %6 = getelementptr inbounds %struct.Reg, %struct.Reg* %5, i32 0, i32 0
  %PC.i = bitcast %union.anon* %6 to i64*
  %7 = getelementptr inbounds %struct.State, %struct.State* %0, i32 0, i32 6
  %8 = getelementptr inbounds %struct.GPR, %struct.GPR* %7, i32 0, i32 15
  %9 = getelementptr inbounds %struct.Reg, %struct.Reg* %8, i32 0, i32 0
  %RBP.i = bitcast %union.anon* %9 to i64*
  %10 = load i64, i64* %RBP.i
  %11 = load i64, i64* %PC.i
  %12 = add i64 %11, 1
  store i64 %12, i64* %PC.i
  %13 = getelementptr inbounds %struct.State, %struct.State* %0, i64 0, i32 6, i32 13, i32 0, i32 0
  %14 = load i64, i64* %13, align 8
  %15 = add i64 %14, -8
  %16 = inttoptr i64 %15 to i64*
  store i64 %10, i64* %16
  store i64 %15, i64* %13, align 8
  store %struct.Memory* %loadMem_403280, %struct.Memory** %MEMORY
  %loadMem_403281 = load %struct.Memory*, %struct.Memory** %MEMORY
  %17 = getelementptr inbounds %struct.State, %struct.State* %0, i32 0, i32 6
  %18 = getelementptr inbounds %struct.GPR, %struct.GPR* %17, i32 0, i32 33
  %19 = getelementptr inbounds %struct.Reg, %struct.Reg* %18, i32 0, i32 0
  %PC.i98 = bitcast %union.anon* %19 to i64*
  %20 = getelementptr inbounds %struct.State, %struct.State* %0, i32 0, i32 6
  %21 = getelementptr inbounds %struct.GPR, %struct.GPR* %20, i32 0, i32 13
  %22 = getelementptr inbounds %struct.Reg, %struct.Reg* %21, i32 0, i32 0
  %RSP.i99 = bitcast %union.anon* %22 to i64*
  %23 = getelementptr inbounds %struct.State, %struct.State* %0, i32 0, i32 6
  %24 = getelementptr inbounds %struct.GPR, %struct.GPR* %23, i32 0, i32 15
  %25 = getelementptr inbounds %struct.Reg, %struct.Reg* %24, i32 0, i32 0
  %RBP.i100 = bitcast %union.anon* %25 to i64*
  %26 = load i64, i64* %RSP.i99
  %27 = load i64, i64* %PC.i98
  %28 = add i64 %27, 3
  store i64 %28, i64* %PC.i98
  store i64 %26, i64* %RBP.i100, align 8
  store %struct.Memory* %loadMem_403281, %struct.Memory** %MEMORY
  %loadMem_403284 = load %struct.Memory*, %struct.Memory** %MEMORY
  %29 = getelementptr inbounds %struct.State, %struct.State* %0, i32 0, i32 6
  %30 = getelementptr inbounds %struct.GPR, %struct.GPR* %29, i32 0, i32 33
  %31 = getelementptr inbounds %struct.Reg, %struct.Reg* %30, i32 0, i32 0
  %PC.i96 = bitcast %union.anon* %31 to i64*
  %32 = getelementptr inbounds %struct.State, %struct.State* %0, i32 0, i32 6
  %33 = getelementptr inbounds %struct.GPR, %struct.GPR* %32, i32 0, i32 13
  %34 = getelementptr inbounds %struct.Reg, %struct.Reg* %33, i32 0, i32 0
  %RSP.i97 = bitcast %union.anon* %34 to i64*
  %35 = load i64, i64* %RSP.i97
  %36 = load i64, i64* %PC.i96
  %37 = add i64 %36, 4
  store i64 %37, i64* %PC.i96
  %38 = sub i64 %35, 48
  store i64 %38, i64* %RSP.i97, align 8
  %39 = icmp ult i64 %35, 48
  %40 = zext i1 %39 to i8
  %41 = getelementptr inbounds %struct.State, %struct.State* %0, i64 0, i32 2, i32 1
  store i8 %40, i8* %41, align 1
  %42 = trunc i64 %38 to i32
  %43 = and i32 %42, 255
  %44 = call i32 @llvm.ctpop.i32(i32 %43)
  %45 = trunc i32 %44 to i8
  %46 = and i8 %45, 1
  %47 = xor i8 %46, 1
  %48 = getelementptr inbounds %struct.State, %struct.State* %0, i64 0, i32 2, i32 3
  store i8 %47, i8* %48, align 1
  %49 = xor i64 48, %35
  %50 = xor i64 %49, %38
  %51 = lshr i64 %50, 4
  %52 = trunc i64 %51 to i8
  %53 = and i8 %52, 1
  %54 = getelementptr inbounds %struct.State, %struct.State* %0, i64 0, i32 2, i32 5
  store i8 %53, i8* %54, align 1
  %55 = icmp eq i64 %38, 0
  %56 = zext i1 %55 to i8
  %57 = getelementptr inbounds %struct.State, %struct.State* %0, i64 0, i32 2, i32 7
  store i8 %56, i8* %57, align 1
  %58 = lshr i64 %38, 63
  %59 = trunc i64 %58 to i8
  %60 = getelementptr inbounds %struct.State, %struct.State* %0, i64 0, i32 2, i32 9
  store i8 %59, i8* %60, align 1
  %61 = lshr i64 %35, 63
  %62 = xor i64 %58, %61
  %63 = add i64 %62, %61
  %64 = icmp eq i64 %63, 2
  %65 = zext i1 %64 to i8
  %66 = getelementptr inbounds %struct.State, %struct.State* %0, i64 0, i32 2, i32 13
  store i8 %65, i8* %66, align 1
  store %struct.Memory* %loadMem_403284, %struct.Memory** %MEMORY
  %loadMem_403288 = load %struct.Memory*, %struct.Memory** %MEMORY
  %67 = getelementptr inbounds %struct.State, %struct.State* %0, i32 0, i32 6
  %68 = getelementptr inbounds %struct.GPR, %struct.GPR* %67, i32 0, i32 33
  %69 = getelementptr inbounds %struct.Reg, %struct.Reg* %68, i32 0, i32 0
  %PC.i93 = bitcast %union.anon* %69 to i64*
  %70 = getelementptr inbounds %struct.State, %struct.State* %0, i32 0, i32 6
  %71 = getelementptr inbounds %struct.GPR, %struct.GPR* %70, i32 0, i32 1
  %72 = getelementptr inbounds %struct.Reg, %struct.Reg* %71, i32 0, i32 0
  %73 = bitcast %union.anon* %72 to %struct.anon.2*
  %AL.i94 = getelementptr inbounds %struct.anon.2, %struct.anon.2* %73, i32 0, i32 0
  %74 = getelementptr inbounds %struct.State, %struct.State* %0, i32 0, i32 6
  %75 = getelementptr inbounds %struct.GPR, %struct.GPR* %74, i32 0, i32 7
  %76 = getelementptr inbounds %struct.Reg, %struct.Reg* %75, i32 0, i32 0
  %77 = bitcast %union.anon* %76 to %struct.anon.2*
  %DL.i95 = getelementptr inbounds %struct.anon.2, %struct.anon.2* %77, i32 0, i32 0
  %78 = load i8, i8* %DL.i95
  %79 = zext i8 %78 to i64
  %80 = load i64, i64* %PC.i93
  %81 = add i64 %80, 2
  store i64 %81, i64* %PC.i93
  store i8 %78, i8* %AL.i94, align 1
  store %struct.Memory* %loadMem_403288, %struct.Memory** %MEMORY
  %loadMem_40328a = load %struct.Memory*, %struct.Memory** %MEMORY
  %82 = getelementptr inbounds %struct.State, %struct.State* %0, i32 0, i32 6
  %83 = getelementptr inbounds %struct.GPR, %struct.GPR* %82, i32 0, i32 33
  %84 = getelementptr inbounds %struct.Reg, %struct.Reg* %83, i32 0, i32 0
  %PC.i90 = bitcast %union.anon* %84 to i64*
  %85 = getelementptr inbounds %struct.State, %struct.State* %0, i32 0, i32 6
  %86 = getelementptr inbounds %struct.GPR, %struct.GPR* %85, i32 0, i32 11
  %87 = getelementptr inbounds %struct.Reg, %struct.Reg* %86, i32 0, i32 0
  %RDI.i91 = bitcast %union.anon* %87 to i64*
  %88 = getelementptr inbounds %struct.State, %struct.State* %0, i32 0, i32 6
  %89 = getelementptr inbounds %struct.GPR, %struct.GPR* %88, i32 0, i32 15
  %90 = getelementptr inbounds %struct.Reg, %struct.Reg* %89, i32 0, i32 0
  %RBP.i92 = bitcast %union.anon* %90 to i64*
  %91 = load i64, i64* %RBP.i92
  %92 = sub i64 %91, 8
  %93 = load i64, i64* %RDI.i91
  %94 = load i64, i64* %PC.i90
  %95 = add i64 %94, 4
  store i64 %95, i64* %PC.i90
  %96 = inttoptr i64 %92 to i64*
  store i64 %93, i64* %96
  store %struct.Memory* %loadMem_40328a, %struct.Memory** %MEMORY
  %loadMem_40328e = load %struct.Memory*, %struct.Memory** %MEMORY
  %97 = getelementptr inbounds %struct.State, %struct.State* %0, i32 0, i32 6
  %98 = getelementptr inbounds %struct.GPR, %struct.GPR* %97, i32 0, i32 33
  %99 = getelementptr inbounds %struct.Reg, %struct.Reg* %98, i32 0, i32 0
  %PC.i87 = bitcast %union.anon* %99 to i64*
  %100 = getelementptr inbounds %struct.State, %struct.State* %0, i32 0, i32 6
  %101 = getelementptr inbounds %struct.GPR, %struct.GPR* %100, i32 0, i32 9
  %102 = getelementptr inbounds %struct.Reg, %struct.Reg* %101, i32 0, i32 0
  %ESI.i88 = bitcast %union.anon* %102 to i32*
  %103 = getelementptr inbounds %struct.State, %struct.State* %0, i32 0, i32 6
  %104 = getelementptr inbounds %struct.GPR, %struct.GPR* %103, i32 0, i32 15
  %105 = getelementptr inbounds %struct.Reg, %struct.Reg* %104, i32 0, i32 0
  %RBP.i89 = bitcast %union.anon* %105 to i64*
  %106 = load i64, i64* %RBP.i89
  %107 = sub i64 %106, 12
  %108 = load i32, i32* %ESI.i88
  %109 = zext i32 %108 to i64
  %110 = load i64, i64* %PC.i87
  %111 = add i64 %110, 3
  store i64 %111, i64* %PC.i87
  %112 = inttoptr i64 %107 to i32*
  store i32 %108, i32* %112
  store %struct.Memory* %loadMem_40328e, %struct.Memory** %MEMORY
  %loadMem_403291 = load %struct.Memory*, %struct.Memory** %MEMORY
  %113 = getelementptr inbounds %struct.State, %struct.State* %0, i32 0, i32 6
  %114 = getelementptr inbounds %struct.GPR, %struct.GPR* %113, i32 0, i32 33
  %115 = getelementptr inbounds %struct.Reg, %struct.Reg* %114, i32 0, i32 0
  %PC.i84 = bitcast %union.anon* %115 to i64*
  %116 = getelementptr inbounds %struct.State, %struct.State* %0, i32 0, i32 6
  %117 = getelementptr inbounds %struct.GPR, %struct.GPR* %116, i32 0, i32 1
  %118 = getelementptr inbounds %struct.Reg, %struct.Reg* %117, i32 0, i32 0
  %119 = bitcast %union.anon* %118 to %struct.anon.2*
  %AL.i85 = getelementptr inbounds %struct.anon.2, %struct.anon.2* %119, i32 0, i32 0
  %120 = getelementptr inbounds %struct.State, %struct.State* %0, i32 0, i32 6
  %121 = getelementptr inbounds %struct.GPR, %struct.GPR* %120, i32 0, i32 15
  %122 = getelementptr inbounds %struct.Reg, %struct.Reg* %121, i32 0, i32 0
  %RBP.i86 = bitcast %union.anon* %122 to i64*
  %123 = load i64, i64* %RBP.i86
  %124 = sub i64 %123, 13
  %125 = load i8, i8* %AL.i85
  %126 = zext i8 %125 to i64
  %127 = load i64, i64* %PC.i84
  %128 = add i64 %127, 3
  store i64 %128, i64* %PC.i84
  %129 = inttoptr i64 %124 to i8*
  store i8 %125, i8* %129
  store %struct.Memory* %loadMem_403291, %struct.Memory** %MEMORY
  %loadMem_403294 = load %struct.Memory*, %struct.Memory** %MEMORY
  %130 = getelementptr inbounds %struct.State, %struct.State* %0, i32 0, i32 6
  %131 = getelementptr inbounds %struct.GPR, %struct.GPR* %130, i32 0, i32 33
  %132 = getelementptr inbounds %struct.Reg, %struct.Reg* %131, i32 0, i32 0
  %PC.i81 = bitcast %union.anon* %132 to i64*
  %133 = getelementptr inbounds %struct.State, %struct.State* %0, i32 0, i32 6
  %134 = getelementptr inbounds %struct.GPR, %struct.GPR* %133, i32 0, i32 5
  %135 = getelementptr inbounds %struct.Reg, %struct.Reg* %134, i32 0, i32 0
  %RCX.i82 = bitcast %union.anon* %135 to i64*
  %136 = getelementptr inbounds %struct.State, %struct.State* %0, i32 0, i32 6
  %137 = getelementptr inbounds %struct.GPR, %struct.GPR* %136, i32 0, i32 15
  %138 = getelementptr inbounds %struct.Reg, %struct.Reg* %137, i32 0, i32 0
  %RBP.i83 = bitcast %union.anon* %138 to i64*
  %139 = load i64, i64* %RBP.i83
  %140 = sub i64 %139, 24
  %141 = load i64, i64* %RCX.i82
  %142 = load i64, i64* %PC.i81
  %143 = add i64 %142, 4
  store i64 %143, i64* %PC.i81
  %144 = inttoptr i64 %140 to i64*
  store i64 %141, i64* %144
  store %struct.Memory* %loadMem_403294, %struct.Memory** %MEMORY
  %loadMem1_403298 = load %struct.Memory*, %struct.Memory** %MEMORY
  %145 = getelementptr inbounds %struct.State, %struct.State* %0, i32 0, i32 6
  %146 = getelementptr inbounds %struct.GPR, %struct.GPR* %145, i32 0, i32 33
  %147 = getelementptr inbounds %struct.Reg, %struct.Reg* %146, i32 0, i32 0
  %PC.i80 = bitcast %union.anon* %147 to i64*
  %148 = load i64, i64* %PC.i80
  %149 = add i64 %148, -9288
  %150 = load i64, i64* %PC.i80
  %151 = add i64 %150, 5
  %152 = load i64, i64* %PC.i80
  %153 = add i64 %152, 5
  store i64 %153, i64* %PC.i80
  %154 = getelementptr inbounds %struct.State, %struct.State* %0, i64 0, i32 6, i32 13, i32 0, i32 0
  %155 = load i64, i64* %154, align 8
  %156 = add i64 %155, -8
  %157 = inttoptr i64 %156 to i64*
  store i64 %151, i64* %157
  store i64 %156, i64* %154, align 8
  %158 = getelementptr inbounds %struct.State, %struct.State* %0, i64 0, i32 6, i32 33, i32 0, i32 0
  store i64 %149, i64* %158, align 8
  store %struct.Memory* %loadMem1_403298, %struct.Memory** %MEMORY
  %loadMem2_403298 = load %struct.Memory*, %struct.Memory** %MEMORY
  %loadPC_403298 = load i64, i64* %3
  %call2_403298 = call %struct.Memory* @sub_400e50._Z11start_timerv(%struct.State* %0, i64 %loadPC_403298, %struct.Memory* %loadMem2_403298)
  store %struct.Memory* %call2_403298, %struct.Memory** %MEMORY
  %loadMem_40329d = load %struct.Memory*, %struct.Memory** %MEMORY
  %159 = getelementptr inbounds %struct.State, %struct.State* %0, i32 0, i32 6
  %160 = getelementptr inbounds %struct.GPR, %struct.GPR* %159, i32 0, i32 33
  %161 = getelementptr inbounds %struct.Reg, %struct.Reg* %160, i32 0, i32 0
  %PC.i78 = bitcast %union.anon* %161 to i64*
  %162 = getelementptr inbounds %struct.State, %struct.State* %0, i32 0, i32 6
  %163 = getelementptr inbounds %struct.GPR, %struct.GPR* %162, i32 0, i32 15
  %164 = getelementptr inbounds %struct.Reg, %struct.Reg* %163, i32 0, i32 0
  %RBP.i79 = bitcast %union.anon* %164 to i64*
  %165 = load i64, i64* %RBP.i79
  %166 = sub i64 %165, 28
  %167 = load i64, i64* %PC.i78
  %168 = add i64 %167, 7
  store i64 %168, i64* %PC.i78
  %169 = inttoptr i64 %166 to i32*
  store i32 0, i32* %169
  store %struct.Memory* %loadMem_40329d, %struct.Memory** %MEMORY
  br label %block_.L_4032a4

block_.L_4032a4:                                  ; preds = %block_.L_4032ff, %entry
  %loadMem_4032a4 = load %struct.Memory*, %struct.Memory** %MEMORY
  %170 = getelementptr inbounds %struct.State, %struct.State* %0, i32 0, i32 6
  %171 = getelementptr inbounds %struct.GPR, %struct.GPR* %170, i32 0, i32 33
  %172 = getelementptr inbounds %struct.Reg, %struct.Reg* %171, i32 0, i32 0
  %PC.i75 = bitcast %union.anon* %172 to i64*
  %173 = getelementptr inbounds %struct.State, %struct.State* %0, i32 0, i32 6
  %174 = getelementptr inbounds %struct.GPR, %struct.GPR* %173, i32 0, i32 1
  %175 = getelementptr inbounds %struct.Reg, %struct.Reg* %174, i32 0, i32 0
  %RAX.i76 = bitcast %union.anon* %175 to i64*
  %176 = getelementptr inbounds %struct.State, %struct.State* %0, i32 0, i32 6
  %177 = getelementptr inbounds %struct.GPR, %struct.GPR* %176, i32 0, i32 15
  %178 = getelementptr inbounds %struct.Reg, %struct.Reg* %177, i32 0, i32 0
  %RBP.i77 = bitcast %union.anon* %178 to i64*
  %179 = load i64, i64* %RBP.i77
  %180 = sub i64 %179, 28
  %181 = load i64, i64* %PC.i75
  %182 = add i64 %181, 3
  store i64 %182, i64* %PC.i75
  %183 = inttoptr i64 %180 to i32*
  %184 = load i32, i32* %183
  %185 = zext i32 %184 to i64
  store i64 %185, i64* %RAX.i76, align 8
  store %struct.Memory* %loadMem_4032a4, %struct.Memory** %MEMORY
  %loadMem_4032a7 = load %struct.Memory*, %struct.Memory** %MEMORY
  %186 = getelementptr inbounds %struct.State, %struct.State* %0, i32 0, i32 6
  %187 = getelementptr inbounds %struct.GPR, %struct.GPR* %186, i32 0, i32 33
  %188 = getelementptr inbounds %struct.Reg, %struct.Reg* %187, i32 0, i32 0
  %PC.i73 = bitcast %union.anon* %188 to i64*
  %189 = getelementptr inbounds %struct.State, %struct.State* %0, i32 0, i32 6
  %190 = getelementptr inbounds %struct.GPR, %struct.GPR* %189, i32 0, i32 1
  %191 = getelementptr inbounds %struct.Reg, %struct.Reg* %190, i32 0, i32 0
  %EAX.i74 = bitcast %union.anon* %191 to i32*
  %192 = load i32, i32* %EAX.i74
  %193 = zext i32 %192 to i64
  %194 = load i64, i64* %PC.i73
  %195 = add i64 %194, 7
  store i64 %195, i64* %PC.i73
  %196 = load i32, i32* inttoptr (i64 6398080 to i32*)
  %197 = sub i32 %192, %196
  %198 = icmp ult i32 %192, %196
  %199 = zext i1 %198 to i8
  %200 = getelementptr inbounds %struct.State, %struct.State* %0, i64 0, i32 2, i32 1
  store i8 %199, i8* %200, align 1
  %201 = and i32 %197, 255
  %202 = call i32 @llvm.ctpop.i32(i32 %201)
  %203 = trunc i32 %202 to i8
  %204 = and i8 %203, 1
  %205 = xor i8 %204, 1
  %206 = getelementptr inbounds %struct.State, %struct.State* %0, i64 0, i32 2, i32 3
  store i8 %205, i8* %206, align 1
  %207 = xor i32 %196, %192
  %208 = xor i32 %207, %197
  %209 = lshr i32 %208, 4
  %210 = trunc i32 %209 to i8
  %211 = and i8 %210, 1
  %212 = getelementptr inbounds %struct.State, %struct.State* %0, i64 0, i32 2, i32 5
  store i8 %211, i8* %212, align 1
  %213 = icmp eq i32 %197, 0
  %214 = zext i1 %213 to i8
  %215 = getelementptr inbounds %struct.State, %struct.State* %0, i64 0, i32 2, i32 7
  store i8 %214, i8* %215, align 1
  %216 = lshr i32 %197, 31
  %217 = trunc i32 %216 to i8
  %218 = getelementptr inbounds %struct.State, %struct.State* %0, i64 0, i32 2, i32 9
  store i8 %217, i8* %218, align 1
  %219 = lshr i32 %192, 31
  %220 = lshr i32 %196, 31
  %221 = xor i32 %220, %219
  %222 = xor i32 %216, %219
  %223 = add i32 %222, %221
  %224 = icmp eq i32 %223, 2
  %225 = zext i1 %224 to i8
  %226 = getelementptr inbounds %struct.State, %struct.State* %0, i64 0, i32 2, i32 13
  store i8 %225, i8* %226, align 1
  store %struct.Memory* %loadMem_4032a7, %struct.Memory** %MEMORY
  %loadMem_4032ae = load %struct.Memory*, %struct.Memory** %MEMORY
  %227 = getelementptr inbounds %struct.State, %struct.State* %0, i32 0, i32 6
  %228 = getelementptr inbounds %struct.GPR, %struct.GPR* %227, i32 0, i32 33
  %229 = getelementptr inbounds %struct.Reg, %struct.Reg* %228, i32 0, i32 0
  %PC.i72 = bitcast %union.anon* %229 to i64*
  %230 = load i64, i64* %PC.i72
  %231 = add i64 %230, 110
  %232 = load i64, i64* %PC.i72
  %233 = add i64 %232, 6
  %234 = load i64, i64* %PC.i72
  %235 = add i64 %234, 6
  store i64 %235, i64* %PC.i72
  %236 = getelementptr inbounds %struct.State, %struct.State* %0, i64 0, i32 2, i32 9
  %237 = load i8, i8* %236, align 1
  %238 = icmp ne i8 %237, 0
  %239 = getelementptr inbounds %struct.State, %struct.State* %0, i64 0, i32 2, i32 13
  %240 = load i8, i8* %239, align 1
  %241 = icmp ne i8 %240, 0
  %242 = xor i1 %238, %241
  %243 = xor i1 %242, true
  %244 = zext i1 %243 to i8
  store i8 %244, i8* %BRANCH_TAKEN, align 1
  %245 = getelementptr inbounds %struct.State, %struct.State* %0, i64 0, i32 6, i32 33, i32 0, i32 0
  %246 = select i1 %242, i64 %233, i64 %231
  store i64 %246, i64* %245, align 8
  store %struct.Memory* %loadMem_4032ae, %struct.Memory** %MEMORY
  %loadBr_4032ae = load i8, i8* %BRANCH_TAKEN
  %cmpBr_4032ae = icmp eq i8 %loadBr_4032ae, 1
  br i1 %cmpBr_4032ae, label %block_.L_40331c, label %block_4032b4

block_4032b4:                                     ; preds = %block_.L_4032a4
  %loadMem_4032b4 = load %struct.Memory*, %struct.Memory** %MEMORY
  %247 = getelementptr inbounds %struct.State, %struct.State* %0, i32 0, i32 6
  %248 = getelementptr inbounds %struct.GPR, %struct.GPR* %247, i32 0, i32 33
  %249 = getelementptr inbounds %struct.Reg, %struct.Reg* %248, i32 0, i32 0
  %PC.i70 = bitcast %union.anon* %249 to i64*
  %250 = getelementptr inbounds %struct.State, %struct.State* %0, i32 0, i32 6
  %251 = getelementptr inbounds %struct.GPR, %struct.GPR* %250, i32 0, i32 15
  %252 = getelementptr inbounds %struct.Reg, %struct.Reg* %251, i32 0, i32 0
  %RBP.i71 = bitcast %union.anon* %252 to i64*
  %253 = load i64, i64* %RBP.i71
  %254 = sub i64 %253, 29
  %255 = load i64, i64* %PC.i70
  %256 = add i64 %255, 4
  store i64 %256, i64* %PC.i70
  %257 = inttoptr i64 %254 to i8*
  store i8 0, i8* %257
  store %struct.Memory* %loadMem_4032b4, %struct.Memory** %MEMORY
  %loadMem_4032b8 = load %struct.Memory*, %struct.Memory** %MEMORY
  %258 = getelementptr inbounds %struct.State, %struct.State* %0, i32 0, i32 6
  %259 = getelementptr inbounds %struct.GPR, %struct.GPR* %258, i32 0, i32 33
  %260 = getelementptr inbounds %struct.Reg, %struct.Reg* %259, i32 0, i32 0
  %PC.i68 = bitcast %union.anon* %260 to i64*
  %261 = getelementptr inbounds %struct.State, %struct.State* %0, i32 0, i32 6
  %262 = getelementptr inbounds %struct.GPR, %struct.GPR* %261, i32 0, i32 15
  %263 = getelementptr inbounds %struct.Reg, %struct.Reg* %262, i32 0, i32 0
  %RBP.i69 = bitcast %union.anon* %263 to i64*
  %264 = load i64, i64* %RBP.i69
  %265 = sub i64 %264, 36
  %266 = load i64, i64* %PC.i68
  %267 = add i64 %266, 7
  store i64 %267, i64* %PC.i68
  %268 = inttoptr i64 %265 to i32*
  store i32 0, i32* %268
  store %struct.Memory* %loadMem_4032b8, %struct.Memory** %MEMORY
  br label %block_.L_4032bf

block_.L_4032bf:                                  ; preds = %block_4032cb, %block_4032b4
  %loadMem_4032bf = load %struct.Memory*, %struct.Memory** %MEMORY
  %269 = getelementptr inbounds %struct.State, %struct.State* %0, i32 0, i32 6
  %270 = getelementptr inbounds %struct.GPR, %struct.GPR* %269, i32 0, i32 33
  %271 = getelementptr inbounds %struct.Reg, %struct.Reg* %270, i32 0, i32 0
  %PC.i65 = bitcast %union.anon* %271 to i64*
  %272 = getelementptr inbounds %struct.State, %struct.State* %0, i32 0, i32 6
  %273 = getelementptr inbounds %struct.GPR, %struct.GPR* %272, i32 0, i32 1
  %274 = getelementptr inbounds %struct.Reg, %struct.Reg* %273, i32 0, i32 0
  %RAX.i66 = bitcast %union.anon* %274 to i64*
  %275 = getelementptr inbounds %struct.State, %struct.State* %0, i32 0, i32 6
  %276 = getelementptr inbounds %struct.GPR, %struct.GPR* %275, i32 0, i32 15
  %277 = getelementptr inbounds %struct.Reg, %struct.Reg* %276, i32 0, i32 0
  %RBP.i67 = bitcast %union.anon* %277 to i64*
  %278 = load i64, i64* %RBP.i67
  %279 = sub i64 %278, 36
  %280 = load i64, i64* %PC.i65
  %281 = add i64 %280, 3
  store i64 %281, i64* %PC.i65
  %282 = inttoptr i64 %279 to i32*
  %283 = load i32, i32* %282
  %284 = zext i32 %283 to i64
  store i64 %284, i64* %RAX.i66, align 8
  store %struct.Memory* %loadMem_4032bf, %struct.Memory** %MEMORY
  %loadMem_4032c2 = load %struct.Memory*, %struct.Memory** %MEMORY
  %285 = getelementptr inbounds %struct.State, %struct.State* %0, i32 0, i32 6
  %286 = getelementptr inbounds %struct.GPR, %struct.GPR* %285, i32 0, i32 33
  %287 = getelementptr inbounds %struct.Reg, %struct.Reg* %286, i32 0, i32 0
  %PC.i62 = bitcast %union.anon* %287 to i64*
  %288 = getelementptr inbounds %struct.State, %struct.State* %0, i32 0, i32 6
  %289 = getelementptr inbounds %struct.GPR, %struct.GPR* %288, i32 0, i32 1
  %290 = getelementptr inbounds %struct.Reg, %struct.Reg* %289, i32 0, i32 0
  %EAX.i63 = bitcast %union.anon* %290 to i32*
  %291 = getelementptr inbounds %struct.State, %struct.State* %0, i32 0, i32 6
  %292 = getelementptr inbounds %struct.GPR, %struct.GPR* %291, i32 0, i32 15
  %293 = getelementptr inbounds %struct.Reg, %struct.Reg* %292, i32 0, i32 0
  %RBP.i64 = bitcast %union.anon* %293 to i64*
  %294 = load i32, i32* %EAX.i63
  %295 = zext i32 %294 to i64
  %296 = load i64, i64* %RBP.i64
  %297 = sub i64 %296, 12
  %298 = load i64, i64* %PC.i62
  %299 = add i64 %298, 3
  store i64 %299, i64* %PC.i62
  %300 = inttoptr i64 %297 to i32*
  %301 = load i32, i32* %300
  %302 = sub i32 %294, %301
  %303 = icmp ult i32 %294, %301
  %304 = zext i1 %303 to i8
  %305 = getelementptr inbounds %struct.State, %struct.State* %0, i64 0, i32 2, i32 1
  store i8 %304, i8* %305, align 1
  %306 = and i32 %302, 255
  %307 = call i32 @llvm.ctpop.i32(i32 %306)
  %308 = trunc i32 %307 to i8
  %309 = and i8 %308, 1
  %310 = xor i8 %309, 1
  %311 = getelementptr inbounds %struct.State, %struct.State* %0, i64 0, i32 2, i32 3
  store i8 %310, i8* %311, align 1
  %312 = xor i32 %301, %294
  %313 = xor i32 %312, %302
  %314 = lshr i32 %313, 4
  %315 = trunc i32 %314 to i8
  %316 = and i8 %315, 1
  %317 = getelementptr inbounds %struct.State, %struct.State* %0, i64 0, i32 2, i32 5
  store i8 %316, i8* %317, align 1
  %318 = icmp eq i32 %302, 0
  %319 = zext i1 %318 to i8
  %320 = getelementptr inbounds %struct.State, %struct.State* %0, i64 0, i32 2, i32 7
  store i8 %319, i8* %320, align 1
  %321 = lshr i32 %302, 31
  %322 = trunc i32 %321 to i8
  %323 = getelementptr inbounds %struct.State, %struct.State* %0, i64 0, i32 2, i32 9
  store i8 %322, i8* %323, align 1
  %324 = lshr i32 %294, 31
  %325 = lshr i32 %301, 31
  %326 = xor i32 %325, %324
  %327 = xor i32 %321, %324
  %328 = add i32 %327, %326
  %329 = icmp eq i32 %328, 2
  %330 = zext i1 %329 to i8
  %331 = getelementptr inbounds %struct.State, %struct.State* %0, i64 0, i32 2, i32 13
  store i8 %330, i8* %331, align 1
  store %struct.Memory* %loadMem_4032c2, %struct.Memory** %MEMORY
  %loadMem_4032c5 = load %struct.Memory*, %struct.Memory** %MEMORY
  %332 = getelementptr inbounds %struct.State, %struct.State* %0, i32 0, i32 6
  %333 = getelementptr inbounds %struct.GPR, %struct.GPR* %332, i32 0, i32 33
  %334 = getelementptr inbounds %struct.Reg, %struct.Reg* %333, i32 0, i32 0
  %PC.i61 = bitcast %union.anon* %334 to i64*
  %335 = load i64, i64* %PC.i61
  %336 = add i64 %335, 58
  %337 = load i64, i64* %PC.i61
  %338 = add i64 %337, 6
  %339 = load i64, i64* %PC.i61
  %340 = add i64 %339, 6
  store i64 %340, i64* %PC.i61
  %341 = getelementptr inbounds %struct.State, %struct.State* %0, i64 0, i32 2, i32 9
  %342 = load i8, i8* %341, align 1
  %343 = icmp ne i8 %342, 0
  %344 = getelementptr inbounds %struct.State, %struct.State* %0, i64 0, i32 2, i32 13
  %345 = load i8, i8* %344, align 1
  %346 = icmp ne i8 %345, 0
  %347 = xor i1 %343, %346
  %348 = xor i1 %347, true
  %349 = zext i1 %348 to i8
  store i8 %349, i8* %BRANCH_TAKEN, align 1
  %350 = getelementptr inbounds %struct.State, %struct.State* %0, i64 0, i32 6, i32 33, i32 0, i32 0
  %351 = select i1 %347, i64 %338, i64 %336
  store i64 %351, i64* %350, align 8
  store %struct.Memory* %loadMem_4032c5, %struct.Memory** %MEMORY
  %loadBr_4032c5 = load i8, i8* %BRANCH_TAKEN
  %cmpBr_4032c5 = icmp eq i8 %loadBr_4032c5, 1
  br i1 %cmpBr_4032c5, label %block_.L_4032ff, label %block_4032cb

block_4032cb:                                     ; preds = %block_.L_4032bf
  %loadMem_4032cb = load %struct.Memory*, %struct.Memory** %MEMORY
  %352 = getelementptr inbounds %struct.State, %struct.State* %0, i32 0, i32 6
  %353 = getelementptr inbounds %struct.GPR, %struct.GPR* %352, i32 0, i32 33
  %354 = getelementptr inbounds %struct.Reg, %struct.Reg* %353, i32 0, i32 0
  %PC.i58 = bitcast %union.anon* %354 to i64*
  %355 = getelementptr inbounds %struct.State, %struct.State* %0, i32 0, i32 6
  %356 = getelementptr inbounds %struct.GPR, %struct.GPR* %355, i32 0, i32 1
  %357 = getelementptr inbounds %struct.Reg, %struct.Reg* %356, i32 0, i32 0
  %RAX.i59 = bitcast %union.anon* %357 to i64*
  %358 = getelementptr inbounds %struct.State, %struct.State* %0, i32 0, i32 6
  %359 = getelementptr inbounds %struct.GPR, %struct.GPR* %358, i32 0, i32 15
  %360 = getelementptr inbounds %struct.Reg, %struct.Reg* %359, i32 0, i32 0
  %RBP.i60 = bitcast %union.anon* %360 to i64*
  %361 = load i64, i64* %RBP.i60
  %362 = sub i64 %361, 8
  %363 = load i64, i64* %PC.i58
  %364 = add i64 %363, 4
  store i64 %364, i64* %PC.i58
  %365 = inttoptr i64 %362 to i64*
  %366 = load i64, i64* %365
  store i64 %366, i64* %RAX.i59, align 8
  store %struct.Memory* %loadMem_4032cb, %struct.Memory** %MEMORY
  %loadMem_4032cf = load %struct.Memory*, %struct.Memory** %MEMORY
  %367 = getelementptr inbounds %struct.State, %struct.State* %0, i32 0, i32 6
  %368 = getelementptr inbounds %struct.GPR, %struct.GPR* %367, i32 0, i32 33
  %369 = getelementptr inbounds %struct.Reg, %struct.Reg* %368, i32 0, i32 0
  %PC.i55 = bitcast %union.anon* %369 to i64*
  %370 = getelementptr inbounds %struct.State, %struct.State* %0, i32 0, i32 6
  %371 = getelementptr inbounds %struct.GPR, %struct.GPR* %370, i32 0, i32 5
  %372 = getelementptr inbounds %struct.Reg, %struct.Reg* %371, i32 0, i32 0
  %RCX.i56 = bitcast %union.anon* %372 to i64*
  %373 = getelementptr inbounds %struct.State, %struct.State* %0, i32 0, i32 6
  %374 = getelementptr inbounds %struct.GPR, %struct.GPR* %373, i32 0, i32 15
  %375 = getelementptr inbounds %struct.Reg, %struct.Reg* %374, i32 0, i32 0
  %RBP.i57 = bitcast %union.anon* %375 to i64*
  %376 = load i64, i64* %RBP.i57
  %377 = sub i64 %376, 36
  %378 = load i64, i64* %PC.i55
  %379 = add i64 %378, 4
  store i64 %379, i64* %PC.i55
  %380 = inttoptr i64 %377 to i32*
  %381 = load i32, i32* %380
  %382 = sext i32 %381 to i64
  store i64 %382, i64* %RCX.i56, align 8
  store %struct.Memory* %loadMem_4032cf, %struct.Memory** %MEMORY
  %loadMem_4032d3 = load %struct.Memory*, %struct.Memory** %MEMORY
  %383 = getelementptr inbounds %struct.State, %struct.State* %0, i32 0, i32 6
  %384 = getelementptr inbounds %struct.GPR, %struct.GPR* %383, i32 0, i32 33
  %385 = getelementptr inbounds %struct.Reg, %struct.Reg* %384, i32 0, i32 0
  %PC.i52 = bitcast %union.anon* %385 to i64*
  %386 = getelementptr inbounds %struct.State, %struct.State* %0, i32 0, i32 6
  %387 = getelementptr inbounds %struct.GPR, %struct.GPR* %386, i32 0, i32 7
  %388 = getelementptr inbounds %struct.Reg, %struct.Reg* %387, i32 0, i32 0
  %389 = bitcast %union.anon* %388 to %struct.anon.2*
  %DL.i53 = getelementptr inbounds %struct.anon.2, %struct.anon.2* %389, i32 0, i32 0
  %390 = getelementptr inbounds %struct.State, %struct.State* %0, i32 0, i32 6
  %391 = getelementptr inbounds %struct.GPR, %struct.GPR* %390, i32 0, i32 1
  %392 = getelementptr inbounds %struct.Reg, %struct.Reg* %391, i32 0, i32 0
  %RAX.i54 = bitcast %union.anon* %392 to i64*
  %393 = getelementptr inbounds %struct.State, %struct.State* %0, i32 0, i32 6
  %394 = getelementptr inbounds %struct.GPR, %struct.GPR* %393, i32 0, i32 5
  %395 = getelementptr inbounds %struct.Reg, %struct.Reg* %394, i32 0, i32 0
  %RCX.i = bitcast %union.anon* %395 to i64*
  %396 = load i64, i64* %RAX.i54
  %397 = load i64, i64* %RCX.i
  %398 = add i64 %397, %396
  %399 = load i64, i64* %PC.i52
  %400 = add i64 %399, 3
  store i64 %400, i64* %PC.i52
  %401 = inttoptr i64 %398 to i8*
  %402 = load i8, i8* %401
  store i8 %402, i8* %DL.i53, align 1
  store %struct.Memory* %loadMem_4032d3, %struct.Memory** %MEMORY
  %loadMem_4032d6 = load %struct.Memory*, %struct.Memory** %MEMORY
  %403 = getelementptr inbounds %struct.State, %struct.State* %0, i32 0, i32 6
  %404 = getelementptr inbounds %struct.GPR, %struct.GPR* %403, i32 0, i32 33
  %405 = getelementptr inbounds %struct.Reg, %struct.Reg* %404, i32 0, i32 0
  %PC.i50 = bitcast %union.anon* %405 to i64*
  %406 = getelementptr inbounds %struct.State, %struct.State* %0, i32 0, i32 6
  %407 = getelementptr inbounds %struct.GPR, %struct.GPR* %406, i32 0, i32 7
  %408 = getelementptr inbounds %struct.Reg, %struct.Reg* %407, i32 0, i32 0
  %409 = bitcast %union.anon* %408 to %struct.anon.2*
  %DL.i = getelementptr inbounds %struct.anon.2, %struct.anon.2* %409, i32 0, i32 0
  %410 = getelementptr inbounds %struct.State, %struct.State* %0, i32 0, i32 6
  %411 = getelementptr inbounds %struct.GPR, %struct.GPR* %410, i32 0, i32 11
  %412 = getelementptr inbounds %struct.Reg, %struct.Reg* %411, i32 0, i32 0
  %RDI.i51 = bitcast %union.anon* %412 to i64*
  %413 = load i8, i8* %DL.i
  %414 = zext i8 %413 to i64
  %415 = load i64, i64* %PC.i50
  %416 = add i64 %415, 3
  store i64 %416, i64* %PC.i50
  %417 = trunc i64 %414 to i32
  %418 = shl i32 %417, 24
  %419 = ashr exact i32 %418, 24
  %420 = zext i32 %419 to i64
  store i64 %420, i64* %RDI.i51, align 8
  store %struct.Memory* %loadMem_4032d6, %struct.Memory** %MEMORY
  %loadMem_4032d9 = load %struct.Memory*, %struct.Memory** %MEMORY
  %421 = getelementptr inbounds %struct.State, %struct.State* %0, i32 0, i32 6
  %422 = getelementptr inbounds %struct.GPR, %struct.GPR* %421, i32 0, i32 33
  %423 = getelementptr inbounds %struct.Reg, %struct.Reg* %422, i32 0, i32 0
  %PC.i47 = bitcast %union.anon* %423 to i64*
  %424 = getelementptr inbounds %struct.State, %struct.State* %0, i32 0, i32 6
  %425 = getelementptr inbounds %struct.GPR, %struct.GPR* %424, i32 0, i32 9
  %426 = getelementptr inbounds %struct.Reg, %struct.Reg* %425, i32 0, i32 0
  %RSI.i48 = bitcast %union.anon* %426 to i64*
  %427 = getelementptr inbounds %struct.State, %struct.State* %0, i32 0, i32 6
  %428 = getelementptr inbounds %struct.GPR, %struct.GPR* %427, i32 0, i32 15
  %429 = getelementptr inbounds %struct.Reg, %struct.Reg* %428, i32 0, i32 0
  %RBP.i49 = bitcast %union.anon* %429 to i64*
  %430 = load i64, i64* %RBP.i49
  %431 = sub i64 %430, 13
  %432 = load i64, i64* %PC.i47
  %433 = add i64 %432, 4
  store i64 %433, i64* %PC.i47
  %434 = inttoptr i64 %431 to i8*
  %435 = load i8, i8* %434
  %436 = sext i8 %435 to i64
  %437 = and i64 %436, 4294967295
  store i64 %437, i64* %RSI.i48, align 8
  store %struct.Memory* %loadMem_4032d9, %struct.Memory** %MEMORY
  %loadMem1_4032dd = load %struct.Memory*, %struct.Memory** %MEMORY
  %438 = getelementptr inbounds %struct.State, %struct.State* %0, i32 0, i32 6
  %439 = getelementptr inbounds %struct.GPR, %struct.GPR* %438, i32 0, i32 33
  %440 = getelementptr inbounds %struct.Reg, %struct.Reg* %439, i32 0, i32 0
  %PC.i46 = bitcast %union.anon* %440 to i64*
  %441 = load i64, i64* %PC.i46
  %442 = add i64 %441, 67779
  %443 = load i64, i64* %PC.i46
  %444 = add i64 %443, 5
  %445 = load i64, i64* %PC.i46
  %446 = add i64 %445, 5
  store i64 %446, i64* %PC.i46
  %447 = getelementptr inbounds %struct.State, %struct.State* %0, i64 0, i32 6, i32 13, i32 0, i32 0
  %448 = load i64, i64* %447, align 8
  %449 = add i64 %448, -8
  %450 = inttoptr i64 %449 to i64*
  store i64 %444, i64* %450
  store i64 %449, i64* %447, align 8
  %451 = getelementptr inbounds %struct.State, %struct.State* %0, i64 0, i32 6, i32 33, i32 0, i32 0
  store i64 %442, i64* %451, align 8
  store %struct.Memory* %loadMem1_4032dd, %struct.Memory** %MEMORY
  %loadMem2_4032dd = load %struct.Memory*, %struct.Memory** %MEMORY
  %loadPC_4032dd = load i64, i64* %3
  %call2_4032dd = call %struct.Memory* @sub_413ba0._ZN19custom_sub_variableIaE8do_shiftEaa(%struct.State* %0, i64 %loadPC_4032dd, %struct.Memory* %loadMem2_4032dd)
  store %struct.Memory* %call2_4032dd, %struct.Memory** %MEMORY
  %loadMem_4032e2 = load %struct.Memory*, %struct.Memory** %MEMORY
  %452 = getelementptr inbounds %struct.State, %struct.State* %0, i32 0, i32 6
  %453 = getelementptr inbounds %struct.GPR, %struct.GPR* %452, i32 0, i32 33
  %454 = getelementptr inbounds %struct.Reg, %struct.Reg* %453, i32 0, i32 0
  %PC.i43 = bitcast %union.anon* %454 to i64*
  %455 = getelementptr inbounds %struct.State, %struct.State* %0, i32 0, i32 6
  %456 = getelementptr inbounds %struct.GPR, %struct.GPR* %455, i32 0, i32 1
  %457 = getelementptr inbounds %struct.Reg, %struct.Reg* %456, i32 0, i32 0
  %458 = bitcast %union.anon* %457 to %struct.anon.2*
  %AL.i44 = getelementptr inbounds %struct.anon.2, %struct.anon.2* %458, i32 0, i32 0
  %459 = getelementptr inbounds %struct.State, %struct.State* %0, i32 0, i32 6
  %460 = getelementptr inbounds %struct.GPR, %struct.GPR* %459, i32 0, i32 9
  %461 = getelementptr inbounds %struct.Reg, %struct.Reg* %460, i32 0, i32 0
  %RSI.i45 = bitcast %union.anon* %461 to i64*
  %462 = load i8, i8* %AL.i44
  %463 = zext i8 %462 to i64
  %464 = load i64, i64* %PC.i43
  %465 = add i64 %464, 3
  store i64 %465, i64* %PC.i43
  %466 = trunc i64 %463 to i32
  %467 = shl i32 %466, 24
  %468 = ashr exact i32 %467, 24
  %469 = zext i32 %468 to i64
  store i64 %469, i64* %RSI.i45, align 8
  store %struct.Memory* %loadMem_4032e2, %struct.Memory** %MEMORY
  %loadMem_4032e5 = load %struct.Memory*, %struct.Memory** %MEMORY
  %470 = getelementptr inbounds %struct.State, %struct.State* %0, i32 0, i32 6
  %471 = getelementptr inbounds %struct.GPR, %struct.GPR* %470, i32 0, i32 33
  %472 = getelementptr inbounds %struct.Reg, %struct.Reg* %471, i32 0, i32 0
  %PC.i40 = bitcast %union.anon* %472 to i64*
  %473 = getelementptr inbounds %struct.State, %struct.State* %0, i32 0, i32 6
  %474 = getelementptr inbounds %struct.GPR, %struct.GPR* %473, i32 0, i32 11
  %475 = getelementptr inbounds %struct.Reg, %struct.Reg* %474, i32 0, i32 0
  %RDI.i41 = bitcast %union.anon* %475 to i64*
  %476 = getelementptr inbounds %struct.State, %struct.State* %0, i32 0, i32 6
  %477 = getelementptr inbounds %struct.GPR, %struct.GPR* %476, i32 0, i32 15
  %478 = getelementptr inbounds %struct.Reg, %struct.Reg* %477, i32 0, i32 0
  %RBP.i42 = bitcast %union.anon* %478 to i64*
  %479 = load i64, i64* %RBP.i42
  %480 = sub i64 %479, 29
  %481 = load i64, i64* %PC.i40
  %482 = add i64 %481, 4
  store i64 %482, i64* %PC.i40
  %483 = inttoptr i64 %480 to i8*
  %484 = load i8, i8* %483
  %485 = sext i8 %484 to i64
  %486 = and i64 %485, 4294967295
  store i64 %486, i64* %RDI.i41, align 8
  store %struct.Memory* %loadMem_4032e5, %struct.Memory** %MEMORY
  %loadMem_4032e9 = load %struct.Memory*, %struct.Memory** %MEMORY
  %487 = getelementptr inbounds %struct.State, %struct.State* %0, i32 0, i32 6
  %488 = getelementptr inbounds %struct.GPR, %struct.GPR* %487, i32 0, i32 33
  %489 = getelementptr inbounds %struct.Reg, %struct.Reg* %488, i32 0, i32 0
  %PC.i38 = bitcast %union.anon* %489 to i64*
  %490 = getelementptr inbounds %struct.State, %struct.State* %0, i32 0, i32 6
  %491 = getelementptr inbounds %struct.GPR, %struct.GPR* %490, i32 0, i32 9
  %492 = getelementptr inbounds %struct.Reg, %struct.Reg* %491, i32 0, i32 0
  %ESI.i = bitcast %union.anon* %492 to i32*
  %493 = getelementptr inbounds %struct.State, %struct.State* %0, i32 0, i32 6
  %494 = getelementptr inbounds %struct.GPR, %struct.GPR* %493, i32 0, i32 11
  %495 = getelementptr inbounds %struct.Reg, %struct.Reg* %494, i32 0, i32 0
  %RDI.i39 = bitcast %union.anon* %495 to i64*
  %496 = load i64, i64* %RDI.i39
  %497 = load i32, i32* %ESI.i
  %498 = zext i32 %497 to i64
  %499 = load i64, i64* %PC.i38
  %500 = add i64 %499, 2
  store i64 %500, i64* %PC.i38
  %501 = trunc i64 %496 to i32
  %502 = add i32 %497, %501
  %503 = zext i32 %502 to i64
  store i64 %503, i64* %RDI.i39, align 8
  %504 = icmp ult i32 %502, %501
  %505 = icmp ult i32 %502, %497
  %506 = or i1 %504, %505
  %507 = zext i1 %506 to i8
  %508 = getelementptr inbounds %struct.State, %struct.State* %0, i64 0, i32 2, i32 1
  store i8 %507, i8* %508, align 1
  %509 = and i32 %502, 255
  %510 = call i32 @llvm.ctpop.i32(i32 %509)
  %511 = trunc i32 %510 to i8
  %512 = and i8 %511, 1
  %513 = xor i8 %512, 1
  %514 = getelementptr inbounds %struct.State, %struct.State* %0, i64 0, i32 2, i32 3
  store i8 %513, i8* %514, align 1
  %515 = xor i64 %498, %496
  %516 = trunc i64 %515 to i32
  %517 = xor i32 %516, %502
  %518 = lshr i32 %517, 4
  %519 = trunc i32 %518 to i8
  %520 = and i8 %519, 1
  %521 = getelementptr inbounds %struct.State, %struct.State* %0, i64 0, i32 2, i32 5
  store i8 %520, i8* %521, align 1
  %522 = icmp eq i32 %502, 0
  %523 = zext i1 %522 to i8
  %524 = getelementptr inbounds %struct.State, %struct.State* %0, i64 0, i32 2, i32 7
  store i8 %523, i8* %524, align 1
  %525 = lshr i32 %502, 31
  %526 = trunc i32 %525 to i8
  %527 = getelementptr inbounds %struct.State, %struct.State* %0, i64 0, i32 2, i32 9
  store i8 %526, i8* %527, align 1
  %528 = lshr i32 %501, 31
  %529 = lshr i32 %497, 31
  %530 = xor i32 %525, %528
  %531 = xor i32 %525, %529
  %532 = add i32 %530, %531
  %533 = icmp eq i32 %532, 2
  %534 = zext i1 %533 to i8
  %535 = getelementptr inbounds %struct.State, %struct.State* %0, i64 0, i32 2, i32 13
  store i8 %534, i8* %535, align 1
  store %struct.Memory* %loadMem_4032e9, %struct.Memory** %MEMORY
  %loadMem_4032eb = load %struct.Memory*, %struct.Memory** %MEMORY
  %536 = getelementptr inbounds %struct.State, %struct.State* %0, i32 0, i32 6
  %537 = getelementptr inbounds %struct.GPR, %struct.GPR* %536, i32 0, i32 33
  %538 = getelementptr inbounds %struct.Reg, %struct.Reg* %537, i32 0, i32 0
  %PC.i36 = bitcast %union.anon* %538 to i64*
  %539 = getelementptr inbounds %struct.State, %struct.State* %0, i32 0, i32 6
  %540 = getelementptr inbounds %struct.GPR, %struct.GPR* %539, i32 0, i32 1
  %541 = getelementptr inbounds %struct.Reg, %struct.Reg* %540, i32 0, i32 0
  %542 = bitcast %union.anon* %541 to %struct.anon.2*
  %AL.i37 = getelementptr inbounds %struct.anon.2, %struct.anon.2* %542, i32 0, i32 0
  %543 = getelementptr inbounds %struct.State, %struct.State* %0, i32 0, i32 6
  %544 = getelementptr inbounds %struct.GPR, %struct.GPR* %543, i32 0, i32 11
  %545 = getelementptr inbounds %struct.Reg, %struct.Reg* %544, i32 0, i32 0
  %546 = bitcast %union.anon* %545 to %struct.anon.2*
  %DIL.i = getelementptr inbounds %struct.anon.2, %struct.anon.2* %546, i32 0, i32 0
  %547 = load i8, i8* %DIL.i
  %548 = zext i8 %547 to i64
  %549 = load i64, i64* %PC.i36
  %550 = add i64 %549, 3
  store i64 %550, i64* %PC.i36
  store i8 %547, i8* %AL.i37, align 1
  store %struct.Memory* %loadMem_4032eb, %struct.Memory** %MEMORY
  %loadMem_4032ee = load %struct.Memory*, %struct.Memory** %MEMORY
  %551 = getelementptr inbounds %struct.State, %struct.State* %0, i32 0, i32 6
  %552 = getelementptr inbounds %struct.GPR, %struct.GPR* %551, i32 0, i32 33
  %553 = getelementptr inbounds %struct.Reg, %struct.Reg* %552, i32 0, i32 0
  %PC.i33 = bitcast %union.anon* %553 to i64*
  %554 = getelementptr inbounds %struct.State, %struct.State* %0, i32 0, i32 6
  %555 = getelementptr inbounds %struct.GPR, %struct.GPR* %554, i32 0, i32 1
  %556 = getelementptr inbounds %struct.Reg, %struct.Reg* %555, i32 0, i32 0
  %557 = bitcast %union.anon* %556 to %struct.anon.2*
  %AL.i34 = getelementptr inbounds %struct.anon.2, %struct.anon.2* %557, i32 0, i32 0
  %558 = getelementptr inbounds %struct.State, %struct.State* %0, i32 0, i32 6
  %559 = getelementptr inbounds %struct.GPR, %struct.GPR* %558, i32 0, i32 15
  %560 = getelementptr inbounds %struct.Reg, %struct.Reg* %559, i32 0, i32 0
  %RBP.i35 = bitcast %union.anon* %560 to i64*
  %561 = load i64, i64* %RBP.i35
  %562 = sub i64 %561, 29
  %563 = load i8, i8* %AL.i34
  %564 = zext i8 %563 to i64
  %565 = load i64, i64* %PC.i33
  %566 = add i64 %565, 3
  store i64 %566, i64* %PC.i33
  %567 = inttoptr i64 %562 to i8*
  store i8 %563, i8* %567
  store %struct.Memory* %loadMem_4032ee, %struct.Memory** %MEMORY
  %loadMem_4032f1 = load %struct.Memory*, %struct.Memory** %MEMORY
  %568 = getelementptr inbounds %struct.State, %struct.State* %0, i32 0, i32 6
  %569 = getelementptr inbounds %struct.GPR, %struct.GPR* %568, i32 0, i32 33
  %570 = getelementptr inbounds %struct.Reg, %struct.Reg* %569, i32 0, i32 0
  %PC.i30 = bitcast %union.anon* %570 to i64*
  %571 = getelementptr inbounds %struct.State, %struct.State* %0, i32 0, i32 6
  %572 = getelementptr inbounds %struct.GPR, %struct.GPR* %571, i32 0, i32 1
  %573 = getelementptr inbounds %struct.Reg, %struct.Reg* %572, i32 0, i32 0
  %RAX.i31 = bitcast %union.anon* %573 to i64*
  %574 = getelementptr inbounds %struct.State, %struct.State* %0, i32 0, i32 6
  %575 = getelementptr inbounds %struct.GPR, %struct.GPR* %574, i32 0, i32 15
  %576 = getelementptr inbounds %struct.Reg, %struct.Reg* %575, i32 0, i32 0
  %RBP.i32 = bitcast %union.anon* %576 to i64*
  %577 = load i64, i64* %RBP.i32
  %578 = sub i64 %577, 36
  %579 = load i64, i64* %PC.i30
  %580 = add i64 %579, 3
  store i64 %580, i64* %PC.i30
  %581 = inttoptr i64 %578 to i32*
  %582 = load i32, i32* %581
  %583 = zext i32 %582 to i64
  store i64 %583, i64* %RAX.i31, align 8
  store %struct.Memory* %loadMem_4032f1, %struct.Memory** %MEMORY
  %loadMem_4032f4 = load %struct.Memory*, %struct.Memory** %MEMORY
  %584 = getelementptr inbounds %struct.State, %struct.State* %0, i32 0, i32 6
  %585 = getelementptr inbounds %struct.GPR, %struct.GPR* %584, i32 0, i32 33
  %586 = getelementptr inbounds %struct.Reg, %struct.Reg* %585, i32 0, i32 0
  %PC.i28 = bitcast %union.anon* %586 to i64*
  %587 = getelementptr inbounds %struct.State, %struct.State* %0, i32 0, i32 6
  %588 = getelementptr inbounds %struct.GPR, %struct.GPR* %587, i32 0, i32 1
  %589 = getelementptr inbounds %struct.Reg, %struct.Reg* %588, i32 0, i32 0
  %RAX.i29 = bitcast %union.anon* %589 to i64*
  %590 = load i64, i64* %RAX.i29
  %591 = load i64, i64* %PC.i28
  %592 = add i64 %591, 3
  store i64 %592, i64* %PC.i28
  %593 = trunc i64 %590 to i32
  %594 = add i32 1, %593
  %595 = zext i32 %594 to i64
  store i64 %595, i64* %RAX.i29, align 8
  %596 = icmp ult i32 %594, %593
  %597 = icmp ult i32 %594, 1
  %598 = or i1 %596, %597
  %599 = zext i1 %598 to i8
  %600 = getelementptr inbounds %struct.State, %struct.State* %0, i64 0, i32 2, i32 1
  store i8 %599, i8* %600, align 1
  %601 = and i32 %594, 255
  %602 = call i32 @llvm.ctpop.i32(i32 %601)
  %603 = trunc i32 %602 to i8
  %604 = and i8 %603, 1
  %605 = xor i8 %604, 1
  %606 = getelementptr inbounds %struct.State, %struct.State* %0, i64 0, i32 2, i32 3
  store i8 %605, i8* %606, align 1
  %607 = xor i64 1, %590
  %608 = trunc i64 %607 to i32
  %609 = xor i32 %608, %594
  %610 = lshr i32 %609, 4
  %611 = trunc i32 %610 to i8
  %612 = and i8 %611, 1
  %613 = getelementptr inbounds %struct.State, %struct.State* %0, i64 0, i32 2, i32 5
  store i8 %612, i8* %613, align 1
  %614 = icmp eq i32 %594, 0
  %615 = zext i1 %614 to i8
  %616 = getelementptr inbounds %struct.State, %struct.State* %0, i64 0, i32 2, i32 7
  store i8 %615, i8* %616, align 1
  %617 = lshr i32 %594, 31
  %618 = trunc i32 %617 to i8
  %619 = getelementptr inbounds %struct.State, %struct.State* %0, i64 0, i32 2, i32 9
  store i8 %618, i8* %619, align 1
  %620 = lshr i32 %593, 31
  %621 = xor i32 %617, %620
  %622 = add i32 %621, %617
  %623 = icmp eq i32 %622, 2
  %624 = zext i1 %623 to i8
  %625 = getelementptr inbounds %struct.State, %struct.State* %0, i64 0, i32 2, i32 13
  store i8 %624, i8* %625, align 1
  store %struct.Memory* %loadMem_4032f4, %struct.Memory** %MEMORY
  %loadMem_4032f7 = load %struct.Memory*, %struct.Memory** %MEMORY
  %626 = getelementptr inbounds %struct.State, %struct.State* %0, i32 0, i32 6
  %627 = getelementptr inbounds %struct.GPR, %struct.GPR* %626, i32 0, i32 33
  %628 = getelementptr inbounds %struct.Reg, %struct.Reg* %627, i32 0, i32 0
  %PC.i25 = bitcast %union.anon* %628 to i64*
  %629 = getelementptr inbounds %struct.State, %struct.State* %0, i32 0, i32 6
  %630 = getelementptr inbounds %struct.GPR, %struct.GPR* %629, i32 0, i32 1
  %631 = getelementptr inbounds %struct.Reg, %struct.Reg* %630, i32 0, i32 0
  %EAX.i26 = bitcast %union.anon* %631 to i32*
  %632 = getelementptr inbounds %struct.State, %struct.State* %0, i32 0, i32 6
  %633 = getelementptr inbounds %struct.GPR, %struct.GPR* %632, i32 0, i32 15
  %634 = getelementptr inbounds %struct.Reg, %struct.Reg* %633, i32 0, i32 0
  %RBP.i27 = bitcast %union.anon* %634 to i64*
  %635 = load i64, i64* %RBP.i27
  %636 = sub i64 %635, 36
  %637 = load i32, i32* %EAX.i26
  %638 = zext i32 %637 to i64
  %639 = load i64, i64* %PC.i25
  %640 = add i64 %639, 3
  store i64 %640, i64* %PC.i25
  %641 = inttoptr i64 %636 to i32*
  store i32 %637, i32* %641
  store %struct.Memory* %loadMem_4032f7, %struct.Memory** %MEMORY
  %loadMem_4032fa = load %struct.Memory*, %struct.Memory** %MEMORY
  %642 = getelementptr inbounds %struct.State, %struct.State* %0, i32 0, i32 6
  %643 = getelementptr inbounds %struct.GPR, %struct.GPR* %642, i32 0, i32 33
  %644 = getelementptr inbounds %struct.Reg, %struct.Reg* %643, i32 0, i32 0
  %PC.i24 = bitcast %union.anon* %644 to i64*
  %645 = load i64, i64* %PC.i24
  %646 = add i64 %645, -59
  %647 = load i64, i64* %PC.i24
  %648 = add i64 %647, 5
  store i64 %648, i64* %PC.i24
  %649 = getelementptr inbounds %struct.State, %struct.State* %0, i64 0, i32 6, i32 33, i32 0, i32 0
  store i64 %646, i64* %649, align 8
  store %struct.Memory* %loadMem_4032fa, %struct.Memory** %MEMORY
  br label %block_.L_4032bf

block_.L_4032ff:                                  ; preds = %block_.L_4032bf
  %loadMem_4032ff = load %struct.Memory*, %struct.Memory** %MEMORY
  %650 = getelementptr inbounds %struct.State, %struct.State* %0, i32 0, i32 6
  %651 = getelementptr inbounds %struct.GPR, %struct.GPR* %650, i32 0, i32 33
  %652 = getelementptr inbounds %struct.Reg, %struct.Reg* %651, i32 0, i32 0
  %PC.i21 = bitcast %union.anon* %652 to i64*
  %653 = getelementptr inbounds %struct.State, %struct.State* %0, i32 0, i32 6
  %654 = getelementptr inbounds %struct.GPR, %struct.GPR* %653, i32 0, i32 1
  %655 = getelementptr inbounds %struct.Reg, %struct.Reg* %654, i32 0, i32 0
  %656 = bitcast %union.anon* %655 to %struct.anon.2*
  %AL.i22 = getelementptr inbounds %struct.anon.2, %struct.anon.2* %656, i32 0, i32 0
  %657 = getelementptr inbounds %struct.State, %struct.State* %0, i32 0, i32 6
  %658 = getelementptr inbounds %struct.GPR, %struct.GPR* %657, i32 0, i32 15
  %659 = getelementptr inbounds %struct.Reg, %struct.Reg* %658, i32 0, i32 0
  %RBP.i23 = bitcast %union.anon* %659 to i64*
  %660 = load i64, i64* %RBP.i23
  %661 = sub i64 %660, 29
  %662 = load i64, i64* %PC.i21
  %663 = add i64 %662, 3
  store i64 %663, i64* %PC.i21
  %664 = inttoptr i64 %661 to i8*
  %665 = load i8, i8* %664
  store i8 %665, i8* %AL.i22, align 1
  store %struct.Memory* %loadMem_4032ff, %struct.Memory** %MEMORY
  %loadMem_403302 = load %struct.Memory*, %struct.Memory** %MEMORY
  %666 = getelementptr inbounds %struct.State, %struct.State* %0, i32 0, i32 6
  %667 = getelementptr inbounds %struct.GPR, %struct.GPR* %666, i32 0, i32 33
  %668 = getelementptr inbounds %struct.Reg, %struct.Reg* %667, i32 0, i32 0
  %PC.i19 = bitcast %union.anon* %668 to i64*
  %669 = getelementptr inbounds %struct.State, %struct.State* %0, i32 0, i32 6
  %670 = getelementptr inbounds %struct.GPR, %struct.GPR* %669, i32 0, i32 1
  %671 = getelementptr inbounds %struct.Reg, %struct.Reg* %670, i32 0, i32 0
  %672 = bitcast %union.anon* %671 to %struct.anon.2*
  %AL.i = getelementptr inbounds %struct.anon.2, %struct.anon.2* %672, i32 0, i32 0
  %673 = getelementptr inbounds %struct.State, %struct.State* %0, i32 0, i32 6
  %674 = getelementptr inbounds %struct.GPR, %struct.GPR* %673, i32 0, i32 11
  %675 = getelementptr inbounds %struct.Reg, %struct.Reg* %674, i32 0, i32 0
  %RDI.i20 = bitcast %union.anon* %675 to i64*
  %676 = load i8, i8* %AL.i
  %677 = zext i8 %676 to i64
  %678 = load i64, i64* %PC.i19
  %679 = add i64 %678, 3
  store i64 %679, i64* %PC.i19
  %680 = trunc i64 %677 to i32
  %681 = shl i32 %680, 24
  %682 = ashr exact i32 %681, 24
  %683 = zext i32 %682 to i64
  store i64 %683, i64* %RDI.i20, align 8
  store %struct.Memory* %loadMem_403302, %struct.Memory** %MEMORY
  %loadMem_403305 = load %struct.Memory*, %struct.Memory** %MEMORY
  %684 = getelementptr inbounds %struct.State, %struct.State* %0, i32 0, i32 6
  %685 = getelementptr inbounds %struct.GPR, %struct.GPR* %684, i32 0, i32 33
  %686 = getelementptr inbounds %struct.Reg, %struct.Reg* %685, i32 0, i32 0
  %PC.i17 = bitcast %union.anon* %686 to i64*
  %687 = getelementptr inbounds %struct.State, %struct.State* %0, i32 0, i32 6
  %688 = getelementptr inbounds %struct.GPR, %struct.GPR* %687, i32 0, i32 9
  %689 = getelementptr inbounds %struct.Reg, %struct.Reg* %688, i32 0, i32 0
  %RSI.i = bitcast %union.anon* %689 to i64*
  %690 = getelementptr inbounds %struct.State, %struct.State* %0, i32 0, i32 6
  %691 = getelementptr inbounds %struct.GPR, %struct.GPR* %690, i32 0, i32 15
  %692 = getelementptr inbounds %struct.Reg, %struct.Reg* %691, i32 0, i32 0
  %RBP.i18 = bitcast %union.anon* %692 to i64*
  %693 = load i64, i64* %RBP.i18
  %694 = sub i64 %693, 13
  %695 = load i64, i64* %PC.i17
  %696 = add i64 %695, 4
  store i64 %696, i64* %PC.i17
  %697 = inttoptr i64 %694 to i8*
  %698 = load i8, i8* %697
  %699 = sext i8 %698 to i64
  %700 = and i64 %699, 4294967295
  store i64 %700, i64* %RSI.i, align 8
  store %struct.Memory* %loadMem_403305, %struct.Memory** %MEMORY
  %loadMem1_403309 = load %struct.Memory*, %struct.Memory** %MEMORY
  %701 = getelementptr inbounds %struct.State, %struct.State* %0, i32 0, i32 6
  %702 = getelementptr inbounds %struct.GPR, %struct.GPR* %701, i32 0, i32 33
  %703 = getelementptr inbounds %struct.Reg, %struct.Reg* %702, i32 0, i32 0
  %PC.i16 = bitcast %union.anon* %703 to i64*
  %704 = load i64, i64* %PC.i16
  %705 = add i64 %704, 67783
  %706 = load i64, i64* %PC.i16
  %707 = add i64 %706, 5
  %708 = load i64, i64* %PC.i16
  %709 = add i64 %708, 5
  store i64 %709, i64* %PC.i16
  %710 = getelementptr inbounds %struct.State, %struct.State* %0, i64 0, i32 6, i32 13, i32 0, i32 0
  %711 = load i64, i64* %710, align 8
  %712 = add i64 %711, -8
  %713 = inttoptr i64 %712 to i64*
  store i64 %707, i64* %713
  store i64 %712, i64* %710, align 8
  %714 = getelementptr inbounds %struct.State, %struct.State* %0, i64 0, i32 6, i32 33, i32 0, i32 0
  store i64 %705, i64* %714, align 8
  store %struct.Memory* %loadMem1_403309, %struct.Memory** %MEMORY
  %loadMem2_403309 = load %struct.Memory*, %struct.Memory** %MEMORY
  %loadPC_403309 = load i64, i64* %3
  %call2_403309 = call %struct.Memory* @sub_413bd0._Z26check_shifted_variable_sumIa19custom_sub_variableIaEEvT_S2_(%struct.State* %0, i64 %loadPC_403309, %struct.Memory* %loadMem2_403309)
  store %struct.Memory* %call2_403309, %struct.Memory** %MEMORY
  %loadMem_40330e = load %struct.Memory*, %struct.Memory** %MEMORY
  %715 = getelementptr inbounds %struct.State, %struct.State* %0, i32 0, i32 6
  %716 = getelementptr inbounds %struct.GPR, %struct.GPR* %715, i32 0, i32 33
  %717 = getelementptr inbounds %struct.Reg, %struct.Reg* %716, i32 0, i32 0
  %PC.i13 = bitcast %union.anon* %717 to i64*
  %718 = getelementptr inbounds %struct.State, %struct.State* %0, i32 0, i32 6
  %719 = getelementptr inbounds %struct.GPR, %struct.GPR* %718, i32 0, i32 1
  %720 = getelementptr inbounds %struct.Reg, %struct.Reg* %719, i32 0, i32 0
  %RAX.i14 = bitcast %union.anon* %720 to i64*
  %721 = getelementptr inbounds %struct.State, %struct.State* %0, i32 0, i32 6
  %722 = getelementptr inbounds %struct.GPR, %struct.GPR* %721, i32 0, i32 15
  %723 = getelementptr inbounds %struct.Reg, %struct.Reg* %722, i32 0, i32 0
  %RBP.i15 = bitcast %union.anon* %723 to i64*
  %724 = load i64, i64* %RBP.i15
  %725 = sub i64 %724, 28
  %726 = load i64, i64* %PC.i13
  %727 = add i64 %726, 3
  store i64 %727, i64* %PC.i13
  %728 = inttoptr i64 %725 to i32*
  %729 = load i32, i32* %728
  %730 = zext i32 %729 to i64
  store i64 %730, i64* %RAX.i14, align 8
  store %struct.Memory* %loadMem_40330e, %struct.Memory** %MEMORY
  %loadMem_403311 = load %struct.Memory*, %struct.Memory** %MEMORY
  %731 = getelementptr inbounds %struct.State, %struct.State* %0, i32 0, i32 6
  %732 = getelementptr inbounds %struct.GPR, %struct.GPR* %731, i32 0, i32 33
  %733 = getelementptr inbounds %struct.Reg, %struct.Reg* %732, i32 0, i32 0
  %PC.i12 = bitcast %union.anon* %733 to i64*
  %734 = getelementptr inbounds %struct.State, %struct.State* %0, i32 0, i32 6
  %735 = getelementptr inbounds %struct.GPR, %struct.GPR* %734, i32 0, i32 1
  %736 = getelementptr inbounds %struct.Reg, %struct.Reg* %735, i32 0, i32 0
  %RAX.i = bitcast %union.anon* %736 to i64*
  %737 = load i64, i64* %RAX.i
  %738 = load i64, i64* %PC.i12
  %739 = add i64 %738, 3
  store i64 %739, i64* %PC.i12
  %740 = trunc i64 %737 to i32
  %741 = add i32 1, %740
  %742 = zext i32 %741 to i64
  store i64 %742, i64* %RAX.i, align 8
  %743 = icmp ult i32 %741, %740
  %744 = icmp ult i32 %741, 1
  %745 = or i1 %743, %744
  %746 = zext i1 %745 to i8
  %747 = getelementptr inbounds %struct.State, %struct.State* %0, i64 0, i32 2, i32 1
  store i8 %746, i8* %747, align 1
  %748 = and i32 %741, 255
  %749 = call i32 @llvm.ctpop.i32(i32 %748)
  %750 = trunc i32 %749 to i8
  %751 = and i8 %750, 1
  %752 = xor i8 %751, 1
  %753 = getelementptr inbounds %struct.State, %struct.State* %0, i64 0, i32 2, i32 3
  store i8 %752, i8* %753, align 1
  %754 = xor i64 1, %737
  %755 = trunc i64 %754 to i32
  %756 = xor i32 %755, %741
  %757 = lshr i32 %756, 4
  %758 = trunc i32 %757 to i8
  %759 = and i8 %758, 1
  %760 = getelementptr inbounds %struct.State, %struct.State* %0, i64 0, i32 2, i32 5
  store i8 %759, i8* %760, align 1
  %761 = icmp eq i32 %741, 0
  %762 = zext i1 %761 to i8
  %763 = getelementptr inbounds %struct.State, %struct.State* %0, i64 0, i32 2, i32 7
  store i8 %762, i8* %763, align 1
  %764 = lshr i32 %741, 31
  %765 = trunc i32 %764 to i8
  %766 = getelementptr inbounds %struct.State, %struct.State* %0, i64 0, i32 2, i32 9
  store i8 %765, i8* %766, align 1
  %767 = lshr i32 %740, 31
  %768 = xor i32 %764, %767
  %769 = add i32 %768, %764
  %770 = icmp eq i32 %769, 2
  %771 = zext i1 %770 to i8
  %772 = getelementptr inbounds %struct.State, %struct.State* %0, i64 0, i32 2, i32 13
  store i8 %771, i8* %772, align 1
  store %struct.Memory* %loadMem_403311, %struct.Memory** %MEMORY
  %loadMem_403314 = load %struct.Memory*, %struct.Memory** %MEMORY
  %773 = getelementptr inbounds %struct.State, %struct.State* %0, i32 0, i32 6
  %774 = getelementptr inbounds %struct.GPR, %struct.GPR* %773, i32 0, i32 33
  %775 = getelementptr inbounds %struct.Reg, %struct.Reg* %774, i32 0, i32 0
  %PC.i10 = bitcast %union.anon* %775 to i64*
  %776 = getelementptr inbounds %struct.State, %struct.State* %0, i32 0, i32 6
  %777 = getelementptr inbounds %struct.GPR, %struct.GPR* %776, i32 0, i32 1
  %778 = getelementptr inbounds %struct.Reg, %struct.Reg* %777, i32 0, i32 0
  %EAX.i = bitcast %union.anon* %778 to i32*
  %779 = getelementptr inbounds %struct.State, %struct.State* %0, i32 0, i32 6
  %780 = getelementptr inbounds %struct.GPR, %struct.GPR* %779, i32 0, i32 15
  %781 = getelementptr inbounds %struct.Reg, %struct.Reg* %780, i32 0, i32 0
  %RBP.i11 = bitcast %union.anon* %781 to i64*
  %782 = load i64, i64* %RBP.i11
  %783 = sub i64 %782, 28
  %784 = load i32, i32* %EAX.i
  %785 = zext i32 %784 to i64
  %786 = load i64, i64* %PC.i10
  %787 = add i64 %786, 3
  store i64 %787, i64* %PC.i10
  %788 = inttoptr i64 %783 to i32*
  store i32 %784, i32* %788
  store %struct.Memory* %loadMem_403314, %struct.Memory** %MEMORY
  %loadMem_403317 = load %struct.Memory*, %struct.Memory** %MEMORY
  %789 = getelementptr inbounds %struct.State, %struct.State* %0, i32 0, i32 6
  %790 = getelementptr inbounds %struct.GPR, %struct.GPR* %789, i32 0, i32 33
  %791 = getelementptr inbounds %struct.Reg, %struct.Reg* %790, i32 0, i32 0
  %PC.i9 = bitcast %union.anon* %791 to i64*
  %792 = load i64, i64* %PC.i9
  %793 = add i64 %792, -115
  %794 = load i64, i64* %PC.i9
  %795 = add i64 %794, 5
  store i64 %795, i64* %PC.i9
  %796 = getelementptr inbounds %struct.State, %struct.State* %0, i64 0, i32 6, i32 33, i32 0, i32 0
  store i64 %793, i64* %796, align 8
  store %struct.Memory* %loadMem_403317, %struct.Memory** %MEMORY
  br label %block_.L_4032a4

block_.L_40331c:                                  ; preds = %block_.L_4032a4
  %loadMem1_40331c = load %struct.Memory*, %struct.Memory** %MEMORY
  %797 = getelementptr inbounds %struct.State, %struct.State* %0, i32 0, i32 6
  %798 = getelementptr inbounds %struct.GPR, %struct.GPR* %797, i32 0, i32 33
  %799 = getelementptr inbounds %struct.Reg, %struct.Reg* %798, i32 0, i32 0
  %PC.i8 = bitcast %union.anon* %799 to i64*
  %800 = load i64, i64* %PC.i8
  %801 = add i64 %800, -9388
  %802 = load i64, i64* %PC.i8
  %803 = add i64 %802, 5
  %804 = load i64, i64* %PC.i8
  %805 = add i64 %804, 5
  store i64 %805, i64* %PC.i8
  %806 = getelementptr inbounds %struct.State, %struct.State* %0, i64 0, i32 6, i32 13, i32 0, i32 0
  %807 = load i64, i64* %806, align 8
  %808 = add i64 %807, -8
  %809 = inttoptr i64 %808 to i64*
  store i64 %803, i64* %809
  store i64 %808, i64* %806, align 8
  %810 = getelementptr inbounds %struct.State, %struct.State* %0, i64 0, i32 6, i32 33, i32 0, i32 0
  store i64 %801, i64* %810, align 8
  store %struct.Memory* %loadMem1_40331c, %struct.Memory** %MEMORY
  %loadMem2_40331c = load %struct.Memory*, %struct.Memory** %MEMORY
  %loadPC_40331c = load i64, i64* %3
  %call2_40331c = call %struct.Memory* @sub_400e70._Z5timerv(%struct.State* %0, i64 %loadPC_40331c, %struct.Memory* %loadMem2_40331c)
  store %struct.Memory* %call2_40331c, %struct.Memory** %MEMORY
  %loadMem_403321 = load %struct.Memory*, %struct.Memory** %MEMORY
  %811 = getelementptr inbounds %struct.State, %struct.State* %0, i32 0, i32 6
  %812 = getelementptr inbounds %struct.GPR, %struct.GPR* %811, i32 0, i32 33
  %813 = getelementptr inbounds %struct.Reg, %struct.Reg* %812, i32 0, i32 0
  %PC.i6 = bitcast %union.anon* %813 to i64*
  %814 = getelementptr inbounds %struct.State, %struct.State* %0, i32 0, i32 6
  %815 = getelementptr inbounds %struct.GPR, %struct.GPR* %814, i32 0, i32 11
  %816 = getelementptr inbounds %struct.Reg, %struct.Reg* %815, i32 0, i32 0
  %RDI.i = bitcast %union.anon* %816 to i64*
  %817 = getelementptr inbounds %struct.State, %struct.State* %0, i32 0, i32 6
  %818 = getelementptr inbounds %struct.GPR, %struct.GPR* %817, i32 0, i32 15
  %819 = getelementptr inbounds %struct.Reg, %struct.Reg* %818, i32 0, i32 0
  %RBP.i7 = bitcast %union.anon* %819 to i64*
  %820 = load i64, i64* %RBP.i7
  %821 = sub i64 %820, 24
  %822 = load i64, i64* %PC.i6
  %823 = add i64 %822, 4
  store i64 %823, i64* %PC.i6
  %824 = inttoptr i64 %821 to i64*
  %825 = load i64, i64* %824
  store i64 %825, i64* %RDI.i, align 8
  store %struct.Memory* %loadMem_403321, %struct.Memory** %MEMORY
  %loadMem1_403325 = load %struct.Memory*, %struct.Memory** %MEMORY
  %826 = getelementptr inbounds %struct.State, %struct.State* %0, i32 0, i32 6
  %827 = getelementptr inbounds %struct.GPR, %struct.GPR* %826, i32 0, i32 33
  %828 = getelementptr inbounds %struct.Reg, %struct.Reg* %827, i32 0, i32 0
  %PC.i5 = bitcast %union.anon* %828 to i64*
  %829 = load i64, i64* %PC.i5
  %830 = add i64 %829, -11029
  %831 = load i64, i64* %PC.i5
  %832 = add i64 %831, 5
  %833 = load i64, i64* %PC.i5
  %834 = add i64 %833, 5
  store i64 %834, i64* %PC.i5
  %835 = getelementptr inbounds %struct.State, %struct.State* %0, i64 0, i32 6, i32 13, i32 0, i32 0
  %836 = load i64, i64* %835, align 8
  %837 = add i64 %836, -8
  %838 = inttoptr i64 %837 to i64*
  store i64 %832, i64* %838
  store i64 %837, i64* %835, align 8
  %839 = getelementptr inbounds %struct.State, %struct.State* %0, i64 0, i32 6, i32 33, i32 0, i32 0
  store i64 %830, i64* %839, align 8
  store %struct.Memory* %loadMem1_403325, %struct.Memory** %MEMORY
  %loadMem2_403325 = load %struct.Memory*, %struct.Memory** %MEMORY
  %loadPC_403325 = load i64, i64* %3
  %call2_403325 = call %struct.Memory* @sub_400810._Z13record_resultdPKc(%struct.State* %0, i64 %loadPC_403325, %struct.Memory* %loadMem2_403325)
  store %struct.Memory* %call2_403325, %struct.Memory** %MEMORY
  %loadMem_40332a = load %struct.Memory*, %struct.Memory** %MEMORY
  %840 = getelementptr inbounds %struct.State, %struct.State* %0, i32 0, i32 6
  %841 = getelementptr inbounds %struct.GPR, %struct.GPR* %840, i32 0, i32 33
  %842 = getelementptr inbounds %struct.Reg, %struct.Reg* %841, i32 0, i32 0
  %PC.i4 = bitcast %union.anon* %842 to i64*
  %843 = getelementptr inbounds %struct.State, %struct.State* %0, i32 0, i32 6
  %844 = getelementptr inbounds %struct.GPR, %struct.GPR* %843, i32 0, i32 13
  %845 = getelementptr inbounds %struct.Reg, %struct.Reg* %844, i32 0, i32 0
  %RSP.i = bitcast %union.anon* %845 to i64*
  %846 = load i64, i64* %RSP.i
  %847 = load i64, i64* %PC.i4
  %848 = add i64 %847, 4
  store i64 %848, i64* %PC.i4
  %849 = add i64 48, %846
  store i64 %849, i64* %RSP.i, align 8
  %850 = icmp ult i64 %849, %846
  %851 = icmp ult i64 %849, 48
  %852 = or i1 %850, %851
  %853 = zext i1 %852 to i8
  %854 = getelementptr inbounds %struct.State, %struct.State* %0, i64 0, i32 2, i32 1
  store i8 %853, i8* %854, align 1
  %855 = trunc i64 %849 to i32
  %856 = and i32 %855, 255
  %857 = call i32 @llvm.ctpop.i32(i32 %856)
  %858 = trunc i32 %857 to i8
  %859 = and i8 %858, 1
  %860 = xor i8 %859, 1
  %861 = getelementptr inbounds %struct.State, %struct.State* %0, i64 0, i32 2, i32 3
  store i8 %860, i8* %861, align 1
  %862 = xor i64 48, %846
  %863 = xor i64 %862, %849
  %864 = lshr i64 %863, 4
  %865 = trunc i64 %864 to i8
  %866 = and i8 %865, 1
  %867 = getelementptr inbounds %struct.State, %struct.State* %0, i64 0, i32 2, i32 5
  store i8 %866, i8* %867, align 1
  %868 = icmp eq i64 %849, 0
  %869 = zext i1 %868 to i8
  %870 = getelementptr inbounds %struct.State, %struct.State* %0, i64 0, i32 2, i32 7
  store i8 %869, i8* %870, align 1
  %871 = lshr i64 %849, 63
  %872 = trunc i64 %871 to i8
  %873 = getelementptr inbounds %struct.State, %struct.State* %0, i64 0, i32 2, i32 9
  store i8 %872, i8* %873, align 1
  %874 = lshr i64 %846, 63
  %875 = xor i64 %871, %874
  %876 = add i64 %875, %871
  %877 = icmp eq i64 %876, 2
  %878 = zext i1 %877 to i8
  %879 = getelementptr inbounds %struct.State, %struct.State* %0, i64 0, i32 2, i32 13
  store i8 %878, i8* %879, align 1
  store %struct.Memory* %loadMem_40332a, %struct.Memory** %MEMORY
  %loadMem_40332e = load %struct.Memory*, %struct.Memory** %MEMORY
  %880 = getelementptr inbounds %struct.State, %struct.State* %0, i32 0, i32 6
  %881 = getelementptr inbounds %struct.GPR, %struct.GPR* %880, i32 0, i32 33
  %882 = getelementptr inbounds %struct.Reg, %struct.Reg* %881, i32 0, i32 0
  %PC.i2 = bitcast %union.anon* %882 to i64*
  %883 = getelementptr inbounds %struct.State, %struct.State* %0, i32 0, i32 6
  %884 = getelementptr inbounds %struct.GPR, %struct.GPR* %883, i32 0, i32 15
  %885 = getelementptr inbounds %struct.Reg, %struct.Reg* %884, i32 0, i32 0
  %RBP.i3 = bitcast %union.anon* %885 to i64*
  %886 = load i64, i64* %PC.i2
  %887 = add i64 %886, 1
  store i64 %887, i64* %PC.i2
  %888 = getelementptr inbounds %struct.State, %struct.State* %0, i64 0, i32 6, i32 13, i32 0, i32 0
  %889 = load i64, i64* %888, align 8
  %890 = add i64 %889, 8
  %891 = inttoptr i64 %889 to i64*
  %892 = load i64, i64* %891
  store i64 %892, i64* %RBP.i3, align 8
  store i64 %890, i64* %888, align 8
  store %struct.Memory* %loadMem_40332e, %struct.Memory** %MEMORY
  %loadMem_40332f = load %struct.Memory*, %struct.Memory** %MEMORY
  %893 = getelementptr inbounds %struct.State, %struct.State* %0, i32 0, i32 6
  %894 = getelementptr inbounds %struct.GPR, %struct.GPR* %893, i32 0, i32 33
  %895 = getelementptr inbounds %struct.Reg, %struct.Reg* %894, i32 0, i32 0
  %PC.i1 = bitcast %union.anon* %895 to i64*
  %896 = load i64, i64* %PC.i1
  %897 = add i64 %896, 1
  store i64 %897, i64* %PC.i1
  %898 = getelementptr inbounds %struct.State, %struct.State* %0, i64 0, i32 6, i32 33, i32 0, i32 0
  %899 = getelementptr inbounds %struct.State, %struct.State* %0, i64 0, i32 6, i32 13, i32 0, i32 0
  %900 = load i64, i64* %899, align 8
  %901 = inttoptr i64 %900 to i64*
  %902 = load i64, i64* %901
  store i64 %902, i64* %898, align 8
  %903 = add i64 %900, 8
  store i64 %903, i64* %899, align 8
  store %struct.Memory* %loadMem_40332f, %struct.Memory** %MEMORY
  ret %struct.Memory* %loadMem_40332f
}

define %struct.Memory* @routine_pushq__rbp(%struct.State* dereferenceable(3376), i64, %struct.Memory*) {
block_400488:
  %3 = getelementptr inbounds %struct.State, %struct.State* %0, i32 0, i32 6
  %4 = getelementptr inbounds %struct.GPR, %struct.GPR* %3, i32 0, i32 33
  %5 = getelementptr inbounds %struct.Reg, %struct.Reg* %4, i32 0, i32 0
  %PC = bitcast %union.anon* %5 to i64*
  %6 = getelementptr inbounds %struct.State, %struct.State* %0, i32 0, i32 6
  %7 = getelementptr inbounds %struct.GPR, %struct.GPR* %6, i32 0, i32 15
  %8 = getelementptr inbounds %struct.Reg, %struct.Reg* %7, i32 0, i32 0
  %RBP = bitcast %union.anon* %8 to i64*
  %9 = load i64, i64* %RBP
  %10 = load i64, i64* %PC
  %11 = add i64 %10, 1
  store i64 %11, i64* %PC
  %12 = getelementptr inbounds %struct.State, %struct.State* %0, i64 0, i32 6, i32 13, i32 0, i32 0
  %13 = load i64, i64* %12, align 8
  %14 = add i64 %13, -8
  %15 = inttoptr i64 %14 to i64*
  store i64 %9, i64* %15
  store i64 %14, i64* %12, align 8
  ret %struct.Memory* %2
}

define %struct.Memory* @routine_movq__rsp___rbp(%struct.State* dereferenceable(3376), i64, %struct.Memory*) {
block_400488:
  %3 = getelementptr inbounds %struct.State, %struct.State* %0, i32 0, i32 6
  %4 = getelementptr inbounds %struct.GPR, %struct.GPR* %3, i32 0, i32 33
  %5 = getelementptr inbounds %struct.Reg, %struct.Reg* %4, i32 0, i32 0
  %PC = bitcast %union.anon* %5 to i64*
  %6 = getelementptr inbounds %struct.State, %struct.State* %0, i32 0, i32 6
  %7 = getelementptr inbounds %struct.GPR, %struct.GPR* %6, i32 0, i32 13
  %8 = getelementptr inbounds %struct.Reg, %struct.Reg* %7, i32 0, i32 0
  %RSP = bitcast %union.anon* %8 to i64*
  %9 = getelementptr inbounds %struct.State, %struct.State* %0, i32 0, i32 6
  %10 = getelementptr inbounds %struct.GPR, %struct.GPR* %9, i32 0, i32 15
  %11 = getelementptr inbounds %struct.Reg, %struct.Reg* %10, i32 0, i32 0
  %RBP = bitcast %union.anon* %11 to i64*
  %12 = load i64, i64* %RSP
  %13 = load i64, i64* %PC
  %14 = add i64 %13, 3
  store i64 %14, i64* %PC
  store i64 %12, i64* %RBP, align 8
  ret %struct.Memory* %2
}

define %struct.Memory* @routine_subq__0x30___rsp(%struct.State* dereferenceable(3376), i64, %struct.Memory*) {
block_400488:
  %3 = getelementptr inbounds %struct.State, %struct.State* %0, i32 0, i32 6
  %4 = getelementptr inbounds %struct.GPR, %struct.GPR* %3, i32 0, i32 33
  %5 = getelementptr inbounds %struct.Reg, %struct.Reg* %4, i32 0, i32 0
  %PC = bitcast %union.anon* %5 to i64*
  %6 = getelementptr inbounds %struct.State, %struct.State* %0, i32 0, i32 6
  %7 = getelementptr inbounds %struct.GPR, %struct.GPR* %6, i32 0, i32 13
  %8 = getelementptr inbounds %struct.Reg, %struct.Reg* %7, i32 0, i32 0
  %RSP = bitcast %union.anon* %8 to i64*
  %9 = load i64, i64* %RSP
  %10 = load i64, i64* %PC
  %11 = add i64 %10, 4
  store i64 %11, i64* %PC
  %12 = sub i64 %9, 48
  store i64 %12, i64* %RSP, align 8
  %13 = icmp ult i64 %9, 48
  %14 = zext i1 %13 to i8
  %15 = getelementptr inbounds %struct.State, %struct.State* %0, i64 0, i32 2, i32 1
  store i8 %14, i8* %15, align 1
  %16 = trunc i64 %12 to i32
  %17 = and i32 %16, 255
  %18 = call i32 @llvm.ctpop.i32(i32 %17)
  %19 = trunc i32 %18 to i8
  %20 = and i8 %19, 1
  %21 = xor i8 %20, 1
  %22 = getelementptr inbounds %struct.State, %struct.State* %0, i64 0, i32 2, i32 3
  store i8 %21, i8* %22, align 1
  %23 = xor i64 48, %9
  %24 = xor i64 %23, %12
  %25 = lshr i64 %24, 4
  %26 = trunc i64 %25 to i8
  %27 = and i8 %26, 1
  %28 = getelementptr inbounds %struct.State, %struct.State* %0, i64 0, i32 2, i32 5
  store i8 %27, i8* %28, align 1
  %29 = icmp eq i64 %12, 0
  %30 = zext i1 %29 to i8
  %31 = getelementptr inbounds %struct.State, %struct.State* %0, i64 0, i32 2, i32 7
  store i8 %30, i8* %31, align 1
  %32 = lshr i64 %12, 63
  %33 = trunc i64 %32 to i8
  %34 = getelementptr inbounds %struct.State, %struct.State* %0, i64 0, i32 2, i32 9
  store i8 %33, i8* %34, align 1
  %35 = lshr i64 %9, 63
  %36 = xor i64 %32, %35
  %37 = add i64 %36, %35
  %38 = icmp eq i64 %37, 2
  %39 = zext i1 %38 to i8
  %40 = getelementptr inbounds %struct.State, %struct.State* %0, i64 0, i32 2, i32 13
  store i8 %39, i8* %40, align 1
  ret %struct.Memory* %2
}

define %struct.Memory* @routine_movb__dl___al(%struct.State* dereferenceable(3376), i64, %struct.Memory*) {
block_400488:
  %3 = getelementptr inbounds %struct.State, %struct.State* %0, i32 0, i32 6
  %4 = getelementptr inbounds %struct.GPR, %struct.GPR* %3, i32 0, i32 33
  %5 = getelementptr inbounds %struct.Reg, %struct.Reg* %4, i32 0, i32 0
  %PC = bitcast %union.anon* %5 to i64*
  %6 = getelementptr inbounds %struct.State, %struct.State* %0, i32 0, i32 6
  %7 = getelementptr inbounds %struct.GPR, %struct.GPR* %6, i32 0, i32 1
  %8 = getelementptr inbounds %struct.Reg, %struct.Reg* %7, i32 0, i32 0
  %9 = bitcast %union.anon* %8 to %struct.anon.2*
  %AL = getelementptr inbounds %struct.anon.2, %struct.anon.2* %9, i32 0, i32 0
  %10 = getelementptr inbounds %struct.State, %struct.State* %0, i32 0, i32 6
  %11 = getelementptr inbounds %struct.GPR, %struct.GPR* %10, i32 0, i32 7
  %12 = getelementptr inbounds %struct.Reg, %struct.Reg* %11, i32 0, i32 0
  %13 = bitcast %union.anon* %12 to %struct.anon.2*
  %DL = getelementptr inbounds %struct.anon.2, %struct.anon.2* %13, i32 0, i32 0
  %14 = load i8, i8* %DL
  %15 = zext i8 %14 to i64
  %16 = load i64, i64* %PC
  %17 = add i64 %16, 2
  store i64 %17, i64* %PC
  store i8 %14, i8* %AL, align 1
  ret %struct.Memory* %2
}

define %struct.Memory* @routine_movq__rdi__MINUS0x8__rbp_(%struct.State* dereferenceable(3376), i64, %struct.Memory*) {
block_400488:
  %3 = getelementptr inbounds %struct.State, %struct.State* %0, i32 0, i32 6
  %4 = getelementptr inbounds %struct.GPR, %struct.GPR* %3, i32 0, i32 33
  %5 = getelementptr inbounds %struct.Reg, %struct.Reg* %4, i32 0, i32 0
  %PC = bitcast %union.anon* %5 to i64*
  %6 = getelementptr inbounds %struct.State, %struct.State* %0, i32 0, i32 6
  %7 = getelementptr inbounds %struct.GPR, %struct.GPR* %6, i32 0, i32 11
  %8 = getelementptr inbounds %struct.Reg, %struct.Reg* %7, i32 0, i32 0
  %RDI = bitcast %union.anon* %8 to i64*
  %9 = getelementptr inbounds %struct.State, %struct.State* %0, i32 0, i32 6
  %10 = getelementptr inbounds %struct.GPR, %struct.GPR* %9, i32 0, i32 15
  %11 = getelementptr inbounds %struct.Reg, %struct.Reg* %10, i32 0, i32 0
  %RBP = bitcast %union.anon* %11 to i64*
  %12 = load i64, i64* %RBP
  %13 = sub i64 %12, 8
  %14 = load i64, i64* %RDI
  %15 = load i64, i64* %PC
  %16 = add i64 %15, 4
  store i64 %16, i64* %PC
  %17 = inttoptr i64 %13 to i64*
  store i64 %14, i64* %17
  ret %struct.Memory* %2
}

define %struct.Memory* @routine_movl__esi__MINUS0xc__rbp_(%struct.State* dereferenceable(3376), i64, %struct.Memory*) {
block_400488:
  %3 = getelementptr inbounds %struct.State, %struct.State* %0, i32 0, i32 6
  %4 = getelementptr inbounds %struct.GPR, %struct.GPR* %3, i32 0, i32 33
  %5 = getelementptr inbounds %struct.Reg, %struct.Reg* %4, i32 0, i32 0
  %PC = bitcast %union.anon* %5 to i64*
  %6 = getelementptr inbounds %struct.State, %struct.State* %0, i32 0, i32 6
  %7 = getelementptr inbounds %struct.GPR, %struct.GPR* %6, i32 0, i32 9
  %8 = getelementptr inbounds %struct.Reg, %struct.Reg* %7, i32 0, i32 0
  %ESI = bitcast %union.anon* %8 to i32*
  %9 = getelementptr inbounds %struct.State, %struct.State* %0, i32 0, i32 6
  %10 = getelementptr inbounds %struct.GPR, %struct.GPR* %9, i32 0, i32 15
  %11 = getelementptr inbounds %struct.Reg, %struct.Reg* %10, i32 0, i32 0
  %RBP = bitcast %union.anon* %11 to i64*
  %12 = load i64, i64* %RBP
  %13 = sub i64 %12, 12
  %14 = load i32, i32* %ESI
  %15 = zext i32 %14 to i64
  %16 = load i64, i64* %PC
  %17 = add i64 %16, 3
  store i64 %17, i64* %PC
  %18 = inttoptr i64 %13 to i32*
  store i32 %14, i32* %18
  ret %struct.Memory* %2
}

define %struct.Memory* @routine_movb__al__MINUS0xd__rbp_(%struct.State* dereferenceable(3376), i64, %struct.Memory*) {
block_400488:
  %3 = getelementptr inbounds %struct.State, %struct.State* %0, i32 0, i32 6
  %4 = getelementptr inbounds %struct.GPR, %struct.GPR* %3, i32 0, i32 33
  %5 = getelementptr inbounds %struct.Reg, %struct.Reg* %4, i32 0, i32 0
  %PC = bitcast %union.anon* %5 to i64*
  %6 = getelementptr inbounds %struct.State, %struct.State* %0, i32 0, i32 6
  %7 = getelementptr inbounds %struct.GPR, %struct.GPR* %6, i32 0, i32 1
  %8 = getelementptr inbounds %struct.Reg, %struct.Reg* %7, i32 0, i32 0
  %9 = bitcast %union.anon* %8 to %struct.anon.2*
  %AL = getelementptr inbounds %struct.anon.2, %struct.anon.2* %9, i32 0, i32 0
  %10 = getelementptr inbounds %struct.State, %struct.State* %0, i32 0, i32 6
  %11 = getelementptr inbounds %struct.GPR, %struct.GPR* %10, i32 0, i32 15
  %12 = getelementptr inbounds %struct.Reg, %struct.Reg* %11, i32 0, i32 0
  %RBP = bitcast %union.anon* %12 to i64*
  %13 = load i64, i64* %RBP
  %14 = sub i64 %13, 13
  %15 = load i8, i8* %AL
  %16 = zext i8 %15 to i64
  %17 = load i64, i64* %PC
  %18 = add i64 %17, 3
  store i64 %18, i64* %PC
  %19 = inttoptr i64 %14 to i8*
  store i8 %15, i8* %19
  ret %struct.Memory* %2
}

define %struct.Memory* @routine_movq__rcx__MINUS0x18__rbp_(%struct.State* dereferenceable(3376), i64, %struct.Memory*) {
block_400488:
  %3 = getelementptr inbounds %struct.State, %struct.State* %0, i32 0, i32 6
  %4 = getelementptr inbounds %struct.GPR, %struct.GPR* %3, i32 0, i32 33
  %5 = getelementptr inbounds %struct.Reg, %struct.Reg* %4, i32 0, i32 0
  %PC = bitcast %union.anon* %5 to i64*
  %6 = getelementptr inbounds %struct.State, %struct.State* %0, i32 0, i32 6
  %7 = getelementptr inbounds %struct.GPR, %struct.GPR* %6, i32 0, i32 5
  %8 = getelementptr inbounds %struct.Reg, %struct.Reg* %7, i32 0, i32 0
  %RCX = bitcast %union.anon* %8 to i64*
  %9 = getelementptr inbounds %struct.State, %struct.State* %0, i32 0, i32 6
  %10 = getelementptr inbounds %struct.GPR, %struct.GPR* %9, i32 0, i32 15
  %11 = getelementptr inbounds %struct.Reg, %struct.Reg* %10, i32 0, i32 0
  %RBP = bitcast %union.anon* %11 to i64*
  %12 = load i64, i64* %RBP
  %13 = sub i64 %12, 24
  %14 = load i64, i64* %RCX
  %15 = load i64, i64* %PC
  %16 = add i64 %15, 4
  store i64 %16, i64* %PC
  %17 = inttoptr i64 %13 to i64*
  store i64 %14, i64* %17
  ret %struct.Memory* %2
}

define %struct.Memory* @routine_callq_._Z11start_timerv(%struct.State* dereferenceable(3376), i64, %struct.Memory*, i64 %rel_off1, i64 %rel_off2, i64 %rel_off3) {
block_400488:
  %3 = getelementptr inbounds %struct.State, %struct.State* %0, i32 0, i32 6
  %4 = getelementptr inbounds %struct.GPR, %struct.GPR* %3, i32 0, i32 33
  %5 = getelementptr inbounds %struct.Reg, %struct.Reg* %4, i32 0, i32 0
  %PC = bitcast %union.anon* %5 to i64*
  %6 = load i64, i64* %PC
  %7 = add i64 %6, %rel_off1
  %8 = load i64, i64* %PC
  %9 = add i64 %8, %rel_off2
  %10 = load i64, i64* %PC
  %11 = add i64 %10, %rel_off3
  store i64 %11, i64* %PC
  %12 = getelementptr inbounds %struct.State, %struct.State* %0, i64 0, i32 6, i32 13, i32 0, i32 0
  %13 = load i64, i64* %12, align 8
  %14 = add i64 %13, -8
  %15 = inttoptr i64 %14 to i64*
  store i64 %9, i64* %15
  store i64 %14, i64* %12, align 8
  %16 = getelementptr inbounds %struct.State, %struct.State* %0, i64 0, i32 6, i32 33, i32 0, i32 0
  store i64 %7, i64* %16, align 8
  ret %struct.Memory* %2
}

define %struct.Memory* @routine_movl__0x0__MINUS0x1c__rbp_(%struct.State* dereferenceable(3376), i64, %struct.Memory*) {
block_400488:
  %3 = getelementptr inbounds %struct.State, %struct.State* %0, i32 0, i32 6
  %4 = getelementptr inbounds %struct.GPR, %struct.GPR* %3, i32 0, i32 33
  %5 = getelementptr inbounds %struct.Reg, %struct.Reg* %4, i32 0, i32 0
  %PC = bitcast %union.anon* %5 to i64*
  %6 = getelementptr inbounds %struct.State, %struct.State* %0, i32 0, i32 6
  %7 = getelementptr inbounds %struct.GPR, %struct.GPR* %6, i32 0, i32 15
  %8 = getelementptr inbounds %struct.Reg, %struct.Reg* %7, i32 0, i32 0
  %RBP = bitcast %union.anon* %8 to i64*
  %9 = load i64, i64* %RBP
  %10 = sub i64 %9, 28
  %11 = load i64, i64* %PC
  %12 = add i64 %11, 7
  store i64 %12, i64* %PC
  %13 = inttoptr i64 %10 to i32*
  store i32 0, i32* %13
  ret %struct.Memory* %2
}

define %struct.Memory* @routine_movl_MINUS0x1c__rbp____eax(%struct.State* dereferenceable(3376), i64, %struct.Memory*) {
block_400488:
  %3 = getelementptr inbounds %struct.State, %struct.State* %0, i32 0, i32 6
  %4 = getelementptr inbounds %struct.GPR, %struct.GPR* %3, i32 0, i32 33
  %5 = getelementptr inbounds %struct.Reg, %struct.Reg* %4, i32 0, i32 0
  %PC = bitcast %union.anon* %5 to i64*
  %6 = getelementptr inbounds %struct.State, %struct.State* %0, i32 0, i32 6
  %7 = getelementptr inbounds %struct.GPR, %struct.GPR* %6, i32 0, i32 1
  %8 = getelementptr inbounds %struct.Reg, %struct.Reg* %7, i32 0, i32 0
  %RAX = bitcast %union.anon* %8 to i64*
  %9 = getelementptr inbounds %struct.State, %struct.State* %0, i32 0, i32 6
  %10 = getelementptr inbounds %struct.GPR, %struct.GPR* %9, i32 0, i32 15
  %11 = getelementptr inbounds %struct.Reg, %struct.Reg* %10, i32 0, i32 0
  %RBP = bitcast %union.anon* %11 to i64*
  %12 = load i64, i64* %RBP
  %13 = sub i64 %12, 28
  %14 = load i64, i64* %PC
  %15 = add i64 %14, 3
  store i64 %15, i64* %PC
  %16 = inttoptr i64 %13 to i32*
  %17 = load i32, i32* %16
  %18 = zext i32 %17 to i64
  store i64 %18, i64* %RAX, align 8
  ret %struct.Memory* %2
}

define %struct.Memory* @routine_cmpl_0x61a080___eax(%struct.State* dereferenceable(3376), i64, %struct.Memory*) {
block_400488:
  %3 = getelementptr inbounds %struct.State, %struct.State* %0, i32 0, i32 6
  %4 = getelementptr inbounds %struct.GPR, %struct.GPR* %3, i32 0, i32 33
  %5 = getelementptr inbounds %struct.Reg, %struct.Reg* %4, i32 0, i32 0
  %PC = bitcast %union.anon* %5 to i64*
  %6 = getelementptr inbounds %struct.State, %struct.State* %0, i32 0, i32 6
  %7 = getelementptr inbounds %struct.GPR, %struct.GPR* %6, i32 0, i32 1
  %8 = getelementptr inbounds %struct.Reg, %struct.Reg* %7, i32 0, i32 0
  %EAX = bitcast %union.anon* %8 to i32*
  %9 = load i32, i32* %EAX
  %10 = zext i32 %9 to i64
  %11 = load i64, i64* %PC
  %12 = add i64 %11, 7
  store i64 %12, i64* %PC
  %13 = load i32, i32* inttoptr (i64 6398080 to i32*)
  %14 = sub i32 %9, %13
  %15 = icmp ult i32 %9, %13
  %16 = zext i1 %15 to i8
  %17 = getelementptr inbounds %struct.State, %struct.State* %0, i64 0, i32 2, i32 1
  store i8 %16, i8* %17, align 1
  %18 = and i32 %14, 255
  %19 = call i32 @llvm.ctpop.i32(i32 %18)
  %20 = trunc i32 %19 to i8
  %21 = and i8 %20, 1
  %22 = xor i8 %21, 1
  %23 = getelementptr inbounds %struct.State, %struct.State* %0, i64 0, i32 2, i32 3
  store i8 %22, i8* %23, align 1
  %24 = xor i32 %13, %9
  %25 = xor i32 %24, %14
  %26 = lshr i32 %25, 4
  %27 = trunc i32 %26 to i8
  %28 = and i8 %27, 1
  %29 = getelementptr inbounds %struct.State, %struct.State* %0, i64 0, i32 2, i32 5
  store i8 %28, i8* %29, align 1
  %30 = icmp eq i32 %14, 0
  %31 = zext i1 %30 to i8
  %32 = getelementptr inbounds %struct.State, %struct.State* %0, i64 0, i32 2, i32 7
  store i8 %31, i8* %32, align 1
  %33 = lshr i32 %14, 31
  %34 = trunc i32 %33 to i8
  %35 = getelementptr inbounds %struct.State, %struct.State* %0, i64 0, i32 2, i32 9
  store i8 %34, i8* %35, align 1
  %36 = lshr i32 %9, 31
  %37 = lshr i32 %13, 31
  %38 = xor i32 %37, %36
  %39 = xor i32 %33, %36
  %40 = add i32 %39, %38
  %41 = icmp eq i32 %40, 2
  %42 = zext i1 %41 to i8
  %43 = getelementptr inbounds %struct.State, %struct.State* %0, i64 0, i32 2, i32 13
  store i8 %42, i8* %43, align 1
  ret %struct.Memory* %2
}

define %struct.Memory* @routine_jge_.L_40331c(%struct.State* dereferenceable(3376), i64, %struct.Memory*, i8* %BRANCH_TAKEN, i64 %rel_off1, i64 %rel_off2, i64 %rel_off3) {
block_400488:
  %3 = getelementptr inbounds %struct.State, %struct.State* %0, i32 0, i32 6
  %4 = getelementptr inbounds %struct.GPR, %struct.GPR* %3, i32 0, i32 33
  %5 = getelementptr inbounds %struct.Reg, %struct.Reg* %4, i32 0, i32 0
  %PC = bitcast %union.anon* %5 to i64*
  %6 = load i64, i64* %PC
  %7 = add i64 %6, %rel_off1
  %8 = load i64, i64* %PC
  %9 = add i64 %8, %rel_off2
  %10 = load i64, i64* %PC
  %11 = add i64 %10, %rel_off3
  store i64 %11, i64* %PC
  %12 = getelementptr inbounds %struct.State, %struct.State* %0, i64 0, i32 2, i32 9
  %13 = load i8, i8* %12, align 1
  %14 = icmp ne i8 %13, 0
  %15 = getelementptr inbounds %struct.State, %struct.State* %0, i64 0, i32 2, i32 13
  %16 = load i8, i8* %15, align 1
  %17 = icmp ne i8 %16, 0
  %18 = xor i1 %14, %17
  %19 = xor i1 %18, true
  %20 = zext i1 %19 to i8
  store i8 %20, i8* %BRANCH_TAKEN, align 1
  %21 = getelementptr inbounds %struct.State, %struct.State* %0, i64 0, i32 6, i32 33, i32 0, i32 0
  %22 = select i1 %18, i64 %9, i64 %7
  store i64 %22, i64* %21, align 8
  ret %struct.Memory* %2
}

define %struct.Memory* @routine_movb__0x0__MINUS0x1d__rbp_(%struct.State* dereferenceable(3376), i64, %struct.Memory*) {
block_400488:
  %3 = getelementptr inbounds %struct.State, %struct.State* %0, i32 0, i32 6
  %4 = getelementptr inbounds %struct.GPR, %struct.GPR* %3, i32 0, i32 33
  %5 = getelementptr inbounds %struct.Reg, %struct.Reg* %4, i32 0, i32 0
  %PC = bitcast %union.anon* %5 to i64*
  %6 = getelementptr inbounds %struct.State, %struct.State* %0, i32 0, i32 6
  %7 = getelementptr inbounds %struct.GPR, %struct.GPR* %6, i32 0, i32 15
  %8 = getelementptr inbounds %struct.Reg, %struct.Reg* %7, i32 0, i32 0
  %RBP = bitcast %union.anon* %8 to i64*
  %9 = load i64, i64* %RBP
  %10 = sub i64 %9, 29
  %11 = load i64, i64* %PC
  %12 = add i64 %11, 4
  store i64 %12, i64* %PC
  %13 = inttoptr i64 %10 to i8*
  store i8 0, i8* %13
  ret %struct.Memory* %2
}

define %struct.Memory* @routine_movl__0x0__MINUS0x24__rbp_(%struct.State* dereferenceable(3376), i64, %struct.Memory*) {
block_400488:
  %3 = getelementptr inbounds %struct.State, %struct.State* %0, i32 0, i32 6
  %4 = getelementptr inbounds %struct.GPR, %struct.GPR* %3, i32 0, i32 33
  %5 = getelementptr inbounds %struct.Reg, %struct.Reg* %4, i32 0, i32 0
  %PC = bitcast %union.anon* %5 to i64*
  %6 = getelementptr inbounds %struct.State, %struct.State* %0, i32 0, i32 6
  %7 = getelementptr inbounds %struct.GPR, %struct.GPR* %6, i32 0, i32 15
  %8 = getelementptr inbounds %struct.Reg, %struct.Reg* %7, i32 0, i32 0
  %RBP = bitcast %union.anon* %8 to i64*
  %9 = load i64, i64* %RBP
  %10 = sub i64 %9, 36
  %11 = load i64, i64* %PC
  %12 = add i64 %11, 7
  store i64 %12, i64* %PC
  %13 = inttoptr i64 %10 to i32*
  store i32 0, i32* %13
  ret %struct.Memory* %2
}

define %struct.Memory* @routine_movl_MINUS0x24__rbp____eax(%struct.State* dereferenceable(3376), i64, %struct.Memory*) {
block_400488:
  %3 = getelementptr inbounds %struct.State, %struct.State* %0, i32 0, i32 6
  %4 = getelementptr inbounds %struct.GPR, %struct.GPR* %3, i32 0, i32 33
  %5 = getelementptr inbounds %struct.Reg, %struct.Reg* %4, i32 0, i32 0
  %PC = bitcast %union.anon* %5 to i64*
  %6 = getelementptr inbounds %struct.State, %struct.State* %0, i32 0, i32 6
  %7 = getelementptr inbounds %struct.GPR, %struct.GPR* %6, i32 0, i32 1
  %8 = getelementptr inbounds %struct.Reg, %struct.Reg* %7, i32 0, i32 0
  %RAX = bitcast %union.anon* %8 to i64*
  %9 = getelementptr inbounds %struct.State, %struct.State* %0, i32 0, i32 6
  %10 = getelementptr inbounds %struct.GPR, %struct.GPR* %9, i32 0, i32 15
  %11 = getelementptr inbounds %struct.Reg, %struct.Reg* %10, i32 0, i32 0
  %RBP = bitcast %union.anon* %11 to i64*
  %12 = load i64, i64* %RBP
  %13 = sub i64 %12, 36
  %14 = load i64, i64* %PC
  %15 = add i64 %14, 3
  store i64 %15, i64* %PC
  %16 = inttoptr i64 %13 to i32*
  %17 = load i32, i32* %16
  %18 = zext i32 %17 to i64
  store i64 %18, i64* %RAX, align 8
  ret %struct.Memory* %2
}

define %struct.Memory* @routine_cmpl_MINUS0xc__rbp____eax(%struct.State* dereferenceable(3376), i64, %struct.Memory*) {
block_400488:
  %3 = getelementptr inbounds %struct.State, %struct.State* %0, i32 0, i32 6
  %4 = getelementptr inbounds %struct.GPR, %struct.GPR* %3, i32 0, i32 33
  %5 = getelementptr inbounds %struct.Reg, %struct.Reg* %4, i32 0, i32 0
  %PC = bitcast %union.anon* %5 to i64*
  %6 = getelementptr inbounds %struct.State, %struct.State* %0, i32 0, i32 6
  %7 = getelementptr inbounds %struct.GPR, %struct.GPR* %6, i32 0, i32 1
  %8 = getelementptr inbounds %struct.Reg, %struct.Reg* %7, i32 0, i32 0
  %EAX = bitcast %union.anon* %8 to i32*
  %9 = getelementptr inbounds %struct.State, %struct.State* %0, i32 0, i32 6
  %10 = getelementptr inbounds %struct.GPR, %struct.GPR* %9, i32 0, i32 15
  %11 = getelementptr inbounds %struct.Reg, %struct.Reg* %10, i32 0, i32 0
  %RBP = bitcast %union.anon* %11 to i64*
  %12 = load i32, i32* %EAX
  %13 = zext i32 %12 to i64
  %14 = load i64, i64* %RBP
  %15 = sub i64 %14, 12
  %16 = load i64, i64* %PC
  %17 = add i64 %16, 3
  store i64 %17, i64* %PC
  %18 = inttoptr i64 %15 to i32*
  %19 = load i32, i32* %18
  %20 = sub i32 %12, %19
  %21 = icmp ult i32 %12, %19
  %22 = zext i1 %21 to i8
  %23 = getelementptr inbounds %struct.State, %struct.State* %0, i64 0, i32 2, i32 1
  store i8 %22, i8* %23, align 1
  %24 = and i32 %20, 255
  %25 = call i32 @llvm.ctpop.i32(i32 %24)
  %26 = trunc i32 %25 to i8
  %27 = and i8 %26, 1
  %28 = xor i8 %27, 1
  %29 = getelementptr inbounds %struct.State, %struct.State* %0, i64 0, i32 2, i32 3
  store i8 %28, i8* %29, align 1
  %30 = xor i32 %19, %12
  %31 = xor i32 %30, %20
  %32 = lshr i32 %31, 4
  %33 = trunc i32 %32 to i8
  %34 = and i8 %33, 1
  %35 = getelementptr inbounds %struct.State, %struct.State* %0, i64 0, i32 2, i32 5
  store i8 %34, i8* %35, align 1
  %36 = icmp eq i32 %20, 0
  %37 = zext i1 %36 to i8
  %38 = getelementptr inbounds %struct.State, %struct.State* %0, i64 0, i32 2, i32 7
  store i8 %37, i8* %38, align 1
  %39 = lshr i32 %20, 31
  %40 = trunc i32 %39 to i8
  %41 = getelementptr inbounds %struct.State, %struct.State* %0, i64 0, i32 2, i32 9
  store i8 %40, i8* %41, align 1
  %42 = lshr i32 %12, 31
  %43 = lshr i32 %19, 31
  %44 = xor i32 %43, %42
  %45 = xor i32 %39, %42
  %46 = add i32 %45, %44
  %47 = icmp eq i32 %46, 2
  %48 = zext i1 %47 to i8
  %49 = getelementptr inbounds %struct.State, %struct.State* %0, i64 0, i32 2, i32 13
  store i8 %48, i8* %49, align 1
  ret %struct.Memory* %2
}

define %struct.Memory* @routine_jge_.L_4032ff(%struct.State* dereferenceable(3376), i64, %struct.Memory*, i8* %BRANCH_TAKEN, i64 %rel_off1, i64 %rel_off2, i64 %rel_off3) {
block_400488:
  %3 = getelementptr inbounds %struct.State, %struct.State* %0, i32 0, i32 6
  %4 = getelementptr inbounds %struct.GPR, %struct.GPR* %3, i32 0, i32 33
  %5 = getelementptr inbounds %struct.Reg, %struct.Reg* %4, i32 0, i32 0
  %PC = bitcast %union.anon* %5 to i64*
  %6 = load i64, i64* %PC
  %7 = add i64 %6, %rel_off1
  %8 = load i64, i64* %PC
  %9 = add i64 %8, %rel_off2
  %10 = load i64, i64* %PC
  %11 = add i64 %10, %rel_off3
  store i64 %11, i64* %PC
  %12 = getelementptr inbounds %struct.State, %struct.State* %0, i64 0, i32 2, i32 9
  %13 = load i8, i8* %12, align 1
  %14 = icmp ne i8 %13, 0
  %15 = getelementptr inbounds %struct.State, %struct.State* %0, i64 0, i32 2, i32 13
  %16 = load i8, i8* %15, align 1
  %17 = icmp ne i8 %16, 0
  %18 = xor i1 %14, %17
  %19 = xor i1 %18, true
  %20 = zext i1 %19 to i8
  store i8 %20, i8* %BRANCH_TAKEN, align 1
  %21 = getelementptr inbounds %struct.State, %struct.State* %0, i64 0, i32 6, i32 33, i32 0, i32 0
  %22 = select i1 %18, i64 %9, i64 %7
  store i64 %22, i64* %21, align 8
  ret %struct.Memory* %2
}

define %struct.Memory* @routine_movq_MINUS0x8__rbp____rax(%struct.State* dereferenceable(3376), i64, %struct.Memory*) {
block_400488:
  %3 = getelementptr inbounds %struct.State, %struct.State* %0, i32 0, i32 6
  %4 = getelementptr inbounds %struct.GPR, %struct.GPR* %3, i32 0, i32 33
  %5 = getelementptr inbounds %struct.Reg, %struct.Reg* %4, i32 0, i32 0
  %PC = bitcast %union.anon* %5 to i64*
  %6 = getelementptr inbounds %struct.State, %struct.State* %0, i32 0, i32 6
  %7 = getelementptr inbounds %struct.GPR, %struct.GPR* %6, i32 0, i32 1
  %8 = getelementptr inbounds %struct.Reg, %struct.Reg* %7, i32 0, i32 0
  %RAX = bitcast %union.anon* %8 to i64*
  %9 = getelementptr inbounds %struct.State, %struct.State* %0, i32 0, i32 6
  %10 = getelementptr inbounds %struct.GPR, %struct.GPR* %9, i32 0, i32 15
  %11 = getelementptr inbounds %struct.Reg, %struct.Reg* %10, i32 0, i32 0
  %RBP = bitcast %union.anon* %11 to i64*
  %12 = load i64, i64* %RBP
  %13 = sub i64 %12, 8
  %14 = load i64, i64* %PC
  %15 = add i64 %14, 4
  store i64 %15, i64* %PC
  %16 = inttoptr i64 %13 to i64*
  %17 = load i64, i64* %16
  store i64 %17, i64* %RAX, align 8
  ret %struct.Memory* %2
}

define %struct.Memory* @routine_movslq_MINUS0x24__rbp____rcx(%struct.State* dereferenceable(3376), i64, %struct.Memory*) {
block_400488:
  %3 = getelementptr inbounds %struct.State, %struct.State* %0, i32 0, i32 6
  %4 = getelementptr inbounds %struct.GPR, %struct.GPR* %3, i32 0, i32 33
  %5 = getelementptr inbounds %struct.Reg, %struct.Reg* %4, i32 0, i32 0
  %PC = bitcast %union.anon* %5 to i64*
  %6 = getelementptr inbounds %struct.State, %struct.State* %0, i32 0, i32 6
  %7 = getelementptr inbounds %struct.GPR, %struct.GPR* %6, i32 0, i32 5
  %8 = getelementptr inbounds %struct.Reg, %struct.Reg* %7, i32 0, i32 0
  %RCX = bitcast %union.anon* %8 to i64*
  %9 = getelementptr inbounds %struct.State, %struct.State* %0, i32 0, i32 6
  %10 = getelementptr inbounds %struct.GPR, %struct.GPR* %9, i32 0, i32 15
  %11 = getelementptr inbounds %struct.Reg, %struct.Reg* %10, i32 0, i32 0
  %RBP = bitcast %union.anon* %11 to i64*
  %12 = load i64, i64* %RBP
  %13 = sub i64 %12, 36
  %14 = load i64, i64* %PC
  %15 = add i64 %14, 4
  store i64 %15, i64* %PC
  %16 = inttoptr i64 %13 to i32*
  %17 = load i32, i32* %16
  %18 = sext i32 %17 to i64
  store i64 %18, i64* %RCX, align 8
  ret %struct.Memory* %2
}

define %struct.Memory* @routine_movb___rax__rcx_1____dl(%struct.State* dereferenceable(3376), i64, %struct.Memory*) {
block_400488:
  %3 = getelementptr inbounds %struct.State, %struct.State* %0, i32 0, i32 6
  %4 = getelementptr inbounds %struct.GPR, %struct.GPR* %3, i32 0, i32 33
  %5 = getelementptr inbounds %struct.Reg, %struct.Reg* %4, i32 0, i32 0
  %PC = bitcast %union.anon* %5 to i64*
  %6 = getelementptr inbounds %struct.State, %struct.State* %0, i32 0, i32 6
  %7 = getelementptr inbounds %struct.GPR, %struct.GPR* %6, i32 0, i32 7
  %8 = getelementptr inbounds %struct.Reg, %struct.Reg* %7, i32 0, i32 0
  %9 = bitcast %union.anon* %8 to %struct.anon.2*
  %DL = getelementptr inbounds %struct.anon.2, %struct.anon.2* %9, i32 0, i32 0
  %10 = getelementptr inbounds %struct.State, %struct.State* %0, i32 0, i32 6
  %11 = getelementptr inbounds %struct.GPR, %struct.GPR* %10, i32 0, i32 1
  %12 = getelementptr inbounds %struct.Reg, %struct.Reg* %11, i32 0, i32 0
  %RAX = bitcast %union.anon* %12 to i64*
  %13 = getelementptr inbounds %struct.State, %struct.State* %0, i32 0, i32 6
  %14 = getelementptr inbounds %struct.GPR, %struct.GPR* %13, i32 0, i32 5
  %15 = getelementptr inbounds %struct.Reg, %struct.Reg* %14, i32 0, i32 0
  %RCX = bitcast %union.anon* %15 to i64*
  %16 = load i64, i64* %RAX
  %17 = load i64, i64* %RCX
  %18 = add i64 %17, %16
  %19 = load i64, i64* %PC
  %20 = add i64 %19, 3
  store i64 %20, i64* %PC
  %21 = inttoptr i64 %18 to i8*
  %22 = load i8, i8* %21
  store i8 %22, i8* %DL, align 1
  ret %struct.Memory* %2
}

define %struct.Memory* @routine_movsbl__dl___edi(%struct.State* dereferenceable(3376), i64, %struct.Memory*) {
block_400488:
  %3 = getelementptr inbounds %struct.State, %struct.State* %0, i32 0, i32 6
  %4 = getelementptr inbounds %struct.GPR, %struct.GPR* %3, i32 0, i32 33
  %5 = getelementptr inbounds %struct.Reg, %struct.Reg* %4, i32 0, i32 0
  %PC = bitcast %union.anon* %5 to i64*
  %6 = getelementptr inbounds %struct.State, %struct.State* %0, i32 0, i32 6
  %7 = getelementptr inbounds %struct.GPR, %struct.GPR* %6, i32 0, i32 7
  %8 = getelementptr inbounds %struct.Reg, %struct.Reg* %7, i32 0, i32 0
  %9 = bitcast %union.anon* %8 to %struct.anon.2*
  %DL = getelementptr inbounds %struct.anon.2, %struct.anon.2* %9, i32 0, i32 0
  %10 = getelementptr inbounds %struct.State, %struct.State* %0, i32 0, i32 6
  %11 = getelementptr inbounds %struct.GPR, %struct.GPR* %10, i32 0, i32 11
  %12 = getelementptr inbounds %struct.Reg, %struct.Reg* %11, i32 0, i32 0
  %RDI = bitcast %union.anon* %12 to i64*
  %13 = load i8, i8* %DL
  %14 = zext i8 %13 to i64
  %15 = load i64, i64* %PC
  %16 = add i64 %15, 3
  store i64 %16, i64* %PC
  %17 = trunc i64 %14 to i32
  %18 = shl i32 %17, 24
  %19 = ashr exact i32 %18, 24
  %20 = zext i32 %19 to i64
  store i64 %20, i64* %RDI, align 8
  ret %struct.Memory* %2
}

define %struct.Memory* @routine_movsbl_MINUS0xd__rbp____esi(%struct.State* dereferenceable(3376), i64, %struct.Memory*) {
block_400488:
  %3 = getelementptr inbounds %struct.State, %struct.State* %0, i32 0, i32 6
  %4 = getelementptr inbounds %struct.GPR, %struct.GPR* %3, i32 0, i32 33
  %5 = getelementptr inbounds %struct.Reg, %struct.Reg* %4, i32 0, i32 0
  %PC = bitcast %union.anon* %5 to i64*
  %6 = getelementptr inbounds %struct.State, %struct.State* %0, i32 0, i32 6
  %7 = getelementptr inbounds %struct.GPR, %struct.GPR* %6, i32 0, i32 9
  %8 = getelementptr inbounds %struct.Reg, %struct.Reg* %7, i32 0, i32 0
  %RSI = bitcast %union.anon* %8 to i64*
  %9 = getelementptr inbounds %struct.State, %struct.State* %0, i32 0, i32 6
  %10 = getelementptr inbounds %struct.GPR, %struct.GPR* %9, i32 0, i32 15
  %11 = getelementptr inbounds %struct.Reg, %struct.Reg* %10, i32 0, i32 0
  %RBP = bitcast %union.anon* %11 to i64*
  %12 = load i64, i64* %RBP
  %13 = sub i64 %12, 13
  %14 = load i64, i64* %PC
  %15 = add i64 %14, 4
  store i64 %15, i64* %PC
  %16 = inttoptr i64 %13 to i8*
  %17 = load i8, i8* %16
  %18 = sext i8 %17 to i64
  %19 = and i64 %18, 4294967295
  store i64 %19, i64* %RSI, align 8
  ret %struct.Memory* %2
}

define %struct.Memory* @routine_callq_._ZN19custom_sub_variableIaE8do_shiftEaa(%struct.State* dereferenceable(3376), i64, %struct.Memory*, i64 %rel_off1, i64 %rel_off2, i64 %rel_off3) {
block_400488:
  %3 = getelementptr inbounds %struct.State, %struct.State* %0, i32 0, i32 6
  %4 = getelementptr inbounds %struct.GPR, %struct.GPR* %3, i32 0, i32 33
  %5 = getelementptr inbounds %struct.Reg, %struct.Reg* %4, i32 0, i32 0
  %PC = bitcast %union.anon* %5 to i64*
  %6 = load i64, i64* %PC
  %7 = add i64 %6, %rel_off1
  %8 = load i64, i64* %PC
  %9 = add i64 %8, %rel_off2
  %10 = load i64, i64* %PC
  %11 = add i64 %10, %rel_off3
  store i64 %11, i64* %PC
  %12 = getelementptr inbounds %struct.State, %struct.State* %0, i64 0, i32 6, i32 13, i32 0, i32 0
  %13 = load i64, i64* %12, align 8
  %14 = add i64 %13, -8
  %15 = inttoptr i64 %14 to i64*
  store i64 %9, i64* %15
  store i64 %14, i64* %12, align 8
  %16 = getelementptr inbounds %struct.State, %struct.State* %0, i64 0, i32 6, i32 33, i32 0, i32 0
  store i64 %7, i64* %16, align 8
  ret %struct.Memory* %2
}

define %struct.Memory* @routine_movsbl__al___esi(%struct.State* dereferenceable(3376), i64, %struct.Memory*) {
block_400488:
  %3 = getelementptr inbounds %struct.State, %struct.State* %0, i32 0, i32 6
  %4 = getelementptr inbounds %struct.GPR, %struct.GPR* %3, i32 0, i32 33
  %5 = getelementptr inbounds %struct.Reg, %struct.Reg* %4, i32 0, i32 0
  %PC = bitcast %union.anon* %5 to i64*
  %6 = getelementptr inbounds %struct.State, %struct.State* %0, i32 0, i32 6
  %7 = getelementptr inbounds %struct.GPR, %struct.GPR* %6, i32 0, i32 1
  %8 = getelementptr inbounds %struct.Reg, %struct.Reg* %7, i32 0, i32 0
  %9 = bitcast %union.anon* %8 to %struct.anon.2*
  %AL = getelementptr inbounds %struct.anon.2, %struct.anon.2* %9, i32 0, i32 0
  %10 = getelementptr inbounds %struct.State, %struct.State* %0, i32 0, i32 6
  %11 = getelementptr inbounds %struct.GPR, %struct.GPR* %10, i32 0, i32 9
  %12 = getelementptr inbounds %struct.Reg, %struct.Reg* %11, i32 0, i32 0
  %RSI = bitcast %union.anon* %12 to i64*
  %13 = load i8, i8* %AL
  %14 = zext i8 %13 to i64
  %15 = load i64, i64* %PC
  %16 = add i64 %15, 3
  store i64 %16, i64* %PC
  %17 = trunc i64 %14 to i32
  %18 = shl i32 %17, 24
  %19 = ashr exact i32 %18, 24
  %20 = zext i32 %19 to i64
  store i64 %20, i64* %RSI, align 8
  ret %struct.Memory* %2
}

define %struct.Memory* @routine_movsbl_MINUS0x1d__rbp____edi(%struct.State* dereferenceable(3376), i64, %struct.Memory*) {
block_400488:
  %3 = getelementptr inbounds %struct.State, %struct.State* %0, i32 0, i32 6
  %4 = getelementptr inbounds %struct.GPR, %struct.GPR* %3, i32 0, i32 33
  %5 = getelementptr inbounds %struct.Reg, %struct.Reg* %4, i32 0, i32 0
  %PC = bitcast %union.anon* %5 to i64*
  %6 = getelementptr inbounds %struct.State, %struct.State* %0, i32 0, i32 6
  %7 = getelementptr inbounds %struct.GPR, %struct.GPR* %6, i32 0, i32 11
  %8 = getelementptr inbounds %struct.Reg, %struct.Reg* %7, i32 0, i32 0
  %RDI = bitcast %union.anon* %8 to i64*
  %9 = getelementptr inbounds %struct.State, %struct.State* %0, i32 0, i32 6
  %10 = getelementptr inbounds %struct.GPR, %struct.GPR* %9, i32 0, i32 15
  %11 = getelementptr inbounds %struct.Reg, %struct.Reg* %10, i32 0, i32 0
  %RBP = bitcast %union.anon* %11 to i64*
  %12 = load i64, i64* %RBP
  %13 = sub i64 %12, 29
  %14 = load i64, i64* %PC
  %15 = add i64 %14, 4
  store i64 %15, i64* %PC
  %16 = inttoptr i64 %13 to i8*
  %17 = load i8, i8* %16
  %18 = sext i8 %17 to i64
  %19 = and i64 %18, 4294967295
  store i64 %19, i64* %RDI, align 8
  ret %struct.Memory* %2
}

define %struct.Memory* @routine_addl__esi___edi(%struct.State* dereferenceable(3376), i64, %struct.Memory*) {
block_400488:
  %3 = getelementptr inbounds %struct.State, %struct.State* %0, i32 0, i32 6
  %4 = getelementptr inbounds %struct.GPR, %struct.GPR* %3, i32 0, i32 33
  %5 = getelementptr inbounds %struct.Reg, %struct.Reg* %4, i32 0, i32 0
  %PC = bitcast %union.anon* %5 to i64*
  %6 = getelementptr inbounds %struct.State, %struct.State* %0, i32 0, i32 6
  %7 = getelementptr inbounds %struct.GPR, %struct.GPR* %6, i32 0, i32 9
  %8 = getelementptr inbounds %struct.Reg, %struct.Reg* %7, i32 0, i32 0
  %ESI = bitcast %union.anon* %8 to i32*
  %9 = getelementptr inbounds %struct.State, %struct.State* %0, i32 0, i32 6
  %10 = getelementptr inbounds %struct.GPR, %struct.GPR* %9, i32 0, i32 11
  %11 = getelementptr inbounds %struct.Reg, %struct.Reg* %10, i32 0, i32 0
  %RDI = bitcast %union.anon* %11 to i64*
  %12 = load i64, i64* %RDI
  %13 = load i32, i32* %ESI
  %14 = zext i32 %13 to i64
  %15 = load i64, i64* %PC
  %16 = add i64 %15, 2
  store i64 %16, i64* %PC
  %17 = trunc i64 %12 to i32
  %18 = add i32 %13, %17
  %19 = zext i32 %18 to i64
  store i64 %19, i64* %RDI, align 8
  %20 = icmp ult i32 %18, %17
  %21 = icmp ult i32 %18, %13
  %22 = or i1 %20, %21
  %23 = zext i1 %22 to i8
  %24 = getelementptr inbounds %struct.State, %struct.State* %0, i64 0, i32 2, i32 1
  store i8 %23, i8* %24, align 1
  %25 = and i32 %18, 255
  %26 = call i32 @llvm.ctpop.i32(i32 %25)
  %27 = trunc i32 %26 to i8
  %28 = and i8 %27, 1
  %29 = xor i8 %28, 1
  %30 = getelementptr inbounds %struct.State, %struct.State* %0, i64 0, i32 2, i32 3
  store i8 %29, i8* %30, align 1
  %31 = xor i64 %14, %12
  %32 = trunc i64 %31 to i32
  %33 = xor i32 %32, %18
  %34 = lshr i32 %33, 4
  %35 = trunc i32 %34 to i8
  %36 = and i8 %35, 1
  %37 = getelementptr inbounds %struct.State, %struct.State* %0, i64 0, i32 2, i32 5
  store i8 %36, i8* %37, align 1
  %38 = icmp eq i32 %18, 0
  %39 = zext i1 %38 to i8
  %40 = getelementptr inbounds %struct.State, %struct.State* %0, i64 0, i32 2, i32 7
  store i8 %39, i8* %40, align 1
  %41 = lshr i32 %18, 31
  %42 = trunc i32 %41 to i8
  %43 = getelementptr inbounds %struct.State, %struct.State* %0, i64 0, i32 2, i32 9
  store i8 %42, i8* %43, align 1
  %44 = lshr i32 %17, 31
  %45 = lshr i32 %13, 31
  %46 = xor i32 %41, %44
  %47 = xor i32 %41, %45
  %48 = add i32 %46, %47
  %49 = icmp eq i32 %48, 2
  %50 = zext i1 %49 to i8
  %51 = getelementptr inbounds %struct.State, %struct.State* %0, i64 0, i32 2, i32 13
  store i8 %50, i8* %51, align 1
  ret %struct.Memory* %2
}

define %struct.Memory* @routine_movb__dil___al(%struct.State* dereferenceable(3376), i64, %struct.Memory*) {
block_400488:
  %3 = getelementptr inbounds %struct.State, %struct.State* %0, i32 0, i32 6
  %4 = getelementptr inbounds %struct.GPR, %struct.GPR* %3, i32 0, i32 33
  %5 = getelementptr inbounds %struct.Reg, %struct.Reg* %4, i32 0, i32 0
  %PC = bitcast %union.anon* %5 to i64*
  %6 = getelementptr inbounds %struct.State, %struct.State* %0, i32 0, i32 6
  %7 = getelementptr inbounds %struct.GPR, %struct.GPR* %6, i32 0, i32 1
  %8 = getelementptr inbounds %struct.Reg, %struct.Reg* %7, i32 0, i32 0
  %9 = bitcast %union.anon* %8 to %struct.anon.2*
  %AL = getelementptr inbounds %struct.anon.2, %struct.anon.2* %9, i32 0, i32 0
  %10 = getelementptr inbounds %struct.State, %struct.State* %0, i32 0, i32 6
  %11 = getelementptr inbounds %struct.GPR, %struct.GPR* %10, i32 0, i32 11
  %12 = getelementptr inbounds %struct.Reg, %struct.Reg* %11, i32 0, i32 0
  %13 = bitcast %union.anon* %12 to %struct.anon.2*
  %DIL = getelementptr inbounds %struct.anon.2, %struct.anon.2* %13, i32 0, i32 0
  %14 = load i8, i8* %DIL
  %15 = zext i8 %14 to i64
  %16 = load i64, i64* %PC
  %17 = add i64 %16, 3
  store i64 %17, i64* %PC
  store i8 %14, i8* %AL, align 1
  ret %struct.Memory* %2
}

define %struct.Memory* @routine_movb__al__MINUS0x1d__rbp_(%struct.State* dereferenceable(3376), i64, %struct.Memory*) {
block_400488:
  %3 = getelementptr inbounds %struct.State, %struct.State* %0, i32 0, i32 6
  %4 = getelementptr inbounds %struct.GPR, %struct.GPR* %3, i32 0, i32 33
  %5 = getelementptr inbounds %struct.Reg, %struct.Reg* %4, i32 0, i32 0
  %PC = bitcast %union.anon* %5 to i64*
  %6 = getelementptr inbounds %struct.State, %struct.State* %0, i32 0, i32 6
  %7 = getelementptr inbounds %struct.GPR, %struct.GPR* %6, i32 0, i32 1
  %8 = getelementptr inbounds %struct.Reg, %struct.Reg* %7, i32 0, i32 0
  %9 = bitcast %union.anon* %8 to %struct.anon.2*
  %AL = getelementptr inbounds %struct.anon.2, %struct.anon.2* %9, i32 0, i32 0
  %10 = getelementptr inbounds %struct.State, %struct.State* %0, i32 0, i32 6
  %11 = getelementptr inbounds %struct.GPR, %struct.GPR* %10, i32 0, i32 15
  %12 = getelementptr inbounds %struct.Reg, %struct.Reg* %11, i32 0, i32 0
  %RBP = bitcast %union.anon* %12 to i64*
  %13 = load i64, i64* %RBP
  %14 = sub i64 %13, 29
  %15 = load i8, i8* %AL
  %16 = zext i8 %15 to i64
  %17 = load i64, i64* %PC
  %18 = add i64 %17, 3
  store i64 %18, i64* %PC
  %19 = inttoptr i64 %14 to i8*
  store i8 %15, i8* %19
  ret %struct.Memory* %2
}

define %struct.Memory* @routine_addl__0x1___eax(%struct.State* dereferenceable(3376), i64, %struct.Memory*) {
block_400488:
  %3 = getelementptr inbounds %struct.State, %struct.State* %0, i32 0, i32 6
  %4 = getelementptr inbounds %struct.GPR, %struct.GPR* %3, i32 0, i32 33
  %5 = getelementptr inbounds %struct.Reg, %struct.Reg* %4, i32 0, i32 0
  %PC = bitcast %union.anon* %5 to i64*
  %6 = getelementptr inbounds %struct.State, %struct.State* %0, i32 0, i32 6
  %7 = getelementptr inbounds %struct.GPR, %struct.GPR* %6, i32 0, i32 1
  %8 = getelementptr inbounds %struct.Reg, %struct.Reg* %7, i32 0, i32 0
  %RAX = bitcast %union.anon* %8 to i64*
  %9 = load i64, i64* %RAX
  %10 = load i64, i64* %PC
  %11 = add i64 %10, 3
  store i64 %11, i64* %PC
  %12 = trunc i64 %9 to i32
  %13 = add i32 1, %12
  %14 = zext i32 %13 to i64
  store i64 %14, i64* %RAX, align 8
  %15 = icmp ult i32 %13, %12
  %16 = icmp ult i32 %13, 1
  %17 = or i1 %15, %16
  %18 = zext i1 %17 to i8
  %19 = getelementptr inbounds %struct.State, %struct.State* %0, i64 0, i32 2, i32 1
  store i8 %18, i8* %19, align 1
  %20 = and i32 %13, 255
  %21 = call i32 @llvm.ctpop.i32(i32 %20)
  %22 = trunc i32 %21 to i8
  %23 = and i8 %22, 1
  %24 = xor i8 %23, 1
  %25 = getelementptr inbounds %struct.State, %struct.State* %0, i64 0, i32 2, i32 3
  store i8 %24, i8* %25, align 1
  %26 = xor i64 1, %9
  %27 = trunc i64 %26 to i32
  %28 = xor i32 %27, %13
  %29 = lshr i32 %28, 4
  %30 = trunc i32 %29 to i8
  %31 = and i8 %30, 1
  %32 = getelementptr inbounds %struct.State, %struct.State* %0, i64 0, i32 2, i32 5
  store i8 %31, i8* %32, align 1
  %33 = icmp eq i32 %13, 0
  %34 = zext i1 %33 to i8
  %35 = getelementptr inbounds %struct.State, %struct.State* %0, i64 0, i32 2, i32 7
  store i8 %34, i8* %35, align 1
  %36 = lshr i32 %13, 31
  %37 = trunc i32 %36 to i8
  %38 = getelementptr inbounds %struct.State, %struct.State* %0, i64 0, i32 2, i32 9
  store i8 %37, i8* %38, align 1
  %39 = lshr i32 %12, 31
  %40 = xor i32 %36, %39
  %41 = add i32 %40, %36
  %42 = icmp eq i32 %41, 2
  %43 = zext i1 %42 to i8
  %44 = getelementptr inbounds %struct.State, %struct.State* %0, i64 0, i32 2, i32 13
  store i8 %43, i8* %44, align 1
  ret %struct.Memory* %2
}

define %struct.Memory* @routine_movl__eax__MINUS0x24__rbp_(%struct.State* dereferenceable(3376), i64, %struct.Memory*) {
block_400488:
  %3 = getelementptr inbounds %struct.State, %struct.State* %0, i32 0, i32 6
  %4 = getelementptr inbounds %struct.GPR, %struct.GPR* %3, i32 0, i32 33
  %5 = getelementptr inbounds %struct.Reg, %struct.Reg* %4, i32 0, i32 0
  %PC = bitcast %union.anon* %5 to i64*
  %6 = getelementptr inbounds %struct.State, %struct.State* %0, i32 0, i32 6
  %7 = getelementptr inbounds %struct.GPR, %struct.GPR* %6, i32 0, i32 1
  %8 = getelementptr inbounds %struct.Reg, %struct.Reg* %7, i32 0, i32 0
  %EAX = bitcast %union.anon* %8 to i32*
  %9 = getelementptr inbounds %struct.State, %struct.State* %0, i32 0, i32 6
  %10 = getelementptr inbounds %struct.GPR, %struct.GPR* %9, i32 0, i32 15
  %11 = getelementptr inbounds %struct.Reg, %struct.Reg* %10, i32 0, i32 0
  %RBP = bitcast %union.anon* %11 to i64*
  %12 = load i64, i64* %RBP
  %13 = sub i64 %12, 36
  %14 = load i32, i32* %EAX
  %15 = zext i32 %14 to i64
  %16 = load i64, i64* %PC
  %17 = add i64 %16, 3
  store i64 %17, i64* %PC
  %18 = inttoptr i64 %13 to i32*
  store i32 %14, i32* %18
  ret %struct.Memory* %2
}

define %struct.Memory* @routine_jmpq_.L_4032bf(%struct.State* dereferenceable(3376), i64, %struct.Memory*, i64 %rel_off1, i64 %rel_off2) {
block_400488:
  %3 = getelementptr inbounds %struct.State, %struct.State* %0, i32 0, i32 6
  %4 = getelementptr inbounds %struct.GPR, %struct.GPR* %3, i32 0, i32 33
  %5 = getelementptr inbounds %struct.Reg, %struct.Reg* %4, i32 0, i32 0
  %PC = bitcast %union.anon* %5 to i64*
  %6 = load i64, i64* %PC
  %7 = add i64 %6, %rel_off1
  %8 = load i64, i64* %PC
  %9 = add i64 %8, %rel_off2
  store i64 %9, i64* %PC
  %10 = getelementptr inbounds %struct.State, %struct.State* %0, i64 0, i32 6, i32 33, i32 0, i32 0
  store i64 %7, i64* %10, align 8
  ret %struct.Memory* %2
}

define %struct.Memory* @routine_movb_MINUS0x1d__rbp____al(%struct.State* dereferenceable(3376), i64, %struct.Memory*) {
block_400488:
  %3 = getelementptr inbounds %struct.State, %struct.State* %0, i32 0, i32 6
  %4 = getelementptr inbounds %struct.GPR, %struct.GPR* %3, i32 0, i32 33
  %5 = getelementptr inbounds %struct.Reg, %struct.Reg* %4, i32 0, i32 0
  %PC = bitcast %union.anon* %5 to i64*
  %6 = getelementptr inbounds %struct.State, %struct.State* %0, i32 0, i32 6
  %7 = getelementptr inbounds %struct.GPR, %struct.GPR* %6, i32 0, i32 1
  %8 = getelementptr inbounds %struct.Reg, %struct.Reg* %7, i32 0, i32 0
  %9 = bitcast %union.anon* %8 to %struct.anon.2*
  %AL = getelementptr inbounds %struct.anon.2, %struct.anon.2* %9, i32 0, i32 0
  %10 = getelementptr inbounds %struct.State, %struct.State* %0, i32 0, i32 6
  %11 = getelementptr inbounds %struct.GPR, %struct.GPR* %10, i32 0, i32 15
  %12 = getelementptr inbounds %struct.Reg, %struct.Reg* %11, i32 0, i32 0
  %RBP = bitcast %union.anon* %12 to i64*
  %13 = load i64, i64* %RBP
  %14 = sub i64 %13, 29
  %15 = load i64, i64* %PC
  %16 = add i64 %15, 3
  store i64 %16, i64* %PC
  %17 = inttoptr i64 %14 to i8*
  %18 = load i8, i8* %17
  store i8 %18, i8* %AL, align 1
  ret %struct.Memory* %2
}

define %struct.Memory* @routine_movsbl__al___edi(%struct.State* dereferenceable(3376), i64, %struct.Memory*) {
block_400488:
  %3 = getelementptr inbounds %struct.State, %struct.State* %0, i32 0, i32 6
  %4 = getelementptr inbounds %struct.GPR, %struct.GPR* %3, i32 0, i32 33
  %5 = getelementptr inbounds %struct.Reg, %struct.Reg* %4, i32 0, i32 0
  %PC = bitcast %union.anon* %5 to i64*
  %6 = getelementptr inbounds %struct.State, %struct.State* %0, i32 0, i32 6
  %7 = getelementptr inbounds %struct.GPR, %struct.GPR* %6, i32 0, i32 1
  %8 = getelementptr inbounds %struct.Reg, %struct.Reg* %7, i32 0, i32 0
  %9 = bitcast %union.anon* %8 to %struct.anon.2*
  %AL = getelementptr inbounds %struct.anon.2, %struct.anon.2* %9, i32 0, i32 0
  %10 = getelementptr inbounds %struct.State, %struct.State* %0, i32 0, i32 6
  %11 = getelementptr inbounds %struct.GPR, %struct.GPR* %10, i32 0, i32 11
  %12 = getelementptr inbounds %struct.Reg, %struct.Reg* %11, i32 0, i32 0
  %RDI = bitcast %union.anon* %12 to i64*
  %13 = load i8, i8* %AL
  %14 = zext i8 %13 to i64
  %15 = load i64, i64* %PC
  %16 = add i64 %15, 3
  store i64 %16, i64* %PC
  %17 = trunc i64 %14 to i32
  %18 = shl i32 %17, 24
  %19 = ashr exact i32 %18, 24
  %20 = zext i32 %19 to i64
  store i64 %20, i64* %RDI, align 8
  ret %struct.Memory* %2
}

define %struct.Memory* @routine_callq_._Z26check_shifted_variable_sumIa19custom_sub_variableIaEEvT_S2_(%struct.State* dereferenceable(3376), i64, %struct.Memory*, i64 %rel_off1, i64 %rel_off2, i64 %rel_off3) {
block_400488:
  %3 = getelementptr inbounds %struct.State, %struct.State* %0, i32 0, i32 6
  %4 = getelementptr inbounds %struct.GPR, %struct.GPR* %3, i32 0, i32 33
  %5 = getelementptr inbounds %struct.Reg, %struct.Reg* %4, i32 0, i32 0
  %PC = bitcast %union.anon* %5 to i64*
  %6 = load i64, i64* %PC
  %7 = add i64 %6, %rel_off1
  %8 = load i64, i64* %PC
  %9 = add i64 %8, %rel_off2
  %10 = load i64, i64* %PC
  %11 = add i64 %10, %rel_off3
  store i64 %11, i64* %PC
  %12 = getelementptr inbounds %struct.State, %struct.State* %0, i64 0, i32 6, i32 13, i32 0, i32 0
  %13 = load i64, i64* %12, align 8
  %14 = add i64 %13, -8
  %15 = inttoptr i64 %14 to i64*
  store i64 %9, i64* %15
  store i64 %14, i64* %12, align 8
  %16 = getelementptr inbounds %struct.State, %struct.State* %0, i64 0, i32 6, i32 33, i32 0, i32 0
  store i64 %7, i64* %16, align 8
  ret %struct.Memory* %2
}

define %struct.Memory* @routine_movl__eax__MINUS0x1c__rbp_(%struct.State* dereferenceable(3376), i64, %struct.Memory*) {
block_400488:
  %3 = getelementptr inbounds %struct.State, %struct.State* %0, i32 0, i32 6
  %4 = getelementptr inbounds %struct.GPR, %struct.GPR* %3, i32 0, i32 33
  %5 = getelementptr inbounds %struct.Reg, %struct.Reg* %4, i32 0, i32 0
  %PC = bitcast %union.anon* %5 to i64*
  %6 = getelementptr inbounds %struct.State, %struct.State* %0, i32 0, i32 6
  %7 = getelementptr inbounds %struct.GPR, %struct.GPR* %6, i32 0, i32 1
  %8 = getelementptr inbounds %struct.Reg, %struct.Reg* %7, i32 0, i32 0
  %EAX = bitcast %union.anon* %8 to i32*
  %9 = getelementptr inbounds %struct.State, %struct.State* %0, i32 0, i32 6
  %10 = getelementptr inbounds %struct.GPR, %struct.GPR* %9, i32 0, i32 15
  %11 = getelementptr inbounds %struct.Reg, %struct.Reg* %10, i32 0, i32 0
  %RBP = bitcast %union.anon* %11 to i64*
  %12 = load i64, i64* %RBP
  %13 = sub i64 %12, 28
  %14 = load i32, i32* %EAX
  %15 = zext i32 %14 to i64
  %16 = load i64, i64* %PC
  %17 = add i64 %16, 3
  store i64 %17, i64* %PC
  %18 = inttoptr i64 %13 to i32*
  store i32 %14, i32* %18
  ret %struct.Memory* %2
}

define %struct.Memory* @routine_jmpq_.L_4032a4(%struct.State* dereferenceable(3376), i64, %struct.Memory*, i64 %rel_off1, i64 %rel_off2) {
block_400488:
  %3 = getelementptr inbounds %struct.State, %struct.State* %0, i32 0, i32 6
  %4 = getelementptr inbounds %struct.GPR, %struct.GPR* %3, i32 0, i32 33
  %5 = getelementptr inbounds %struct.Reg, %struct.Reg* %4, i32 0, i32 0
  %PC = bitcast %union.anon* %5 to i64*
  %6 = load i64, i64* %PC
  %7 = add i64 %6, %rel_off1
  %8 = load i64, i64* %PC
  %9 = add i64 %8, %rel_off2
  store i64 %9, i64* %PC
  %10 = getelementptr inbounds %struct.State, %struct.State* %0, i64 0, i32 6, i32 33, i32 0, i32 0
  store i64 %7, i64* %10, align 8
  ret %struct.Memory* %2
}

define %struct.Memory* @routine_callq_._Z5timerv(%struct.State* dereferenceable(3376), i64, %struct.Memory*, i64 %rel_off1, i64 %rel_off2, i64 %rel_off3) {
block_400488:
  %3 = getelementptr inbounds %struct.State, %struct.State* %0, i32 0, i32 6
  %4 = getelementptr inbounds %struct.GPR, %struct.GPR* %3, i32 0, i32 33
  %5 = getelementptr inbounds %struct.Reg, %struct.Reg* %4, i32 0, i32 0
  %PC = bitcast %union.anon* %5 to i64*
  %6 = load i64, i64* %PC
  %7 = add i64 %6, %rel_off1
  %8 = load i64, i64* %PC
  %9 = add i64 %8, %rel_off2
  %10 = load i64, i64* %PC
  %11 = add i64 %10, %rel_off3
  store i64 %11, i64* %PC
  %12 = getelementptr inbounds %struct.State, %struct.State* %0, i64 0, i32 6, i32 13, i32 0, i32 0
  %13 = load i64, i64* %12, align 8
  %14 = add i64 %13, -8
  %15 = inttoptr i64 %14 to i64*
  store i64 %9, i64* %15
  store i64 %14, i64* %12, align 8
  %16 = getelementptr inbounds %struct.State, %struct.State* %0, i64 0, i32 6, i32 33, i32 0, i32 0
  store i64 %7, i64* %16, align 8
  ret %struct.Memory* %2
}

define %struct.Memory* @routine_movq_MINUS0x18__rbp____rdi(%struct.State* dereferenceable(3376), i64, %struct.Memory*) {
block_400488:
  %3 = getelementptr inbounds %struct.State, %struct.State* %0, i32 0, i32 6
  %4 = getelementptr inbounds %struct.GPR, %struct.GPR* %3, i32 0, i32 33
  %5 = getelementptr inbounds %struct.Reg, %struct.Reg* %4, i32 0, i32 0
  %PC = bitcast %union.anon* %5 to i64*
  %6 = getelementptr inbounds %struct.State, %struct.State* %0, i32 0, i32 6
  %7 = getelementptr inbounds %struct.GPR, %struct.GPR* %6, i32 0, i32 11
  %8 = getelementptr inbounds %struct.Reg, %struct.Reg* %7, i32 0, i32 0
  %RDI = bitcast %union.anon* %8 to i64*
  %9 = getelementptr inbounds %struct.State, %struct.State* %0, i32 0, i32 6
  %10 = getelementptr inbounds %struct.GPR, %struct.GPR* %9, i32 0, i32 15
  %11 = getelementptr inbounds %struct.Reg, %struct.Reg* %10, i32 0, i32 0
  %RBP = bitcast %union.anon* %11 to i64*
  %12 = load i64, i64* %RBP
  %13 = sub i64 %12, 24
  %14 = load i64, i64* %PC
  %15 = add i64 %14, 4
  store i64 %15, i64* %PC
  %16 = inttoptr i64 %13 to i64*
  %17 = load i64, i64* %16
  store i64 %17, i64* %RDI, align 8
  ret %struct.Memory* %2
}

define %struct.Memory* @routine_callq_._Z13record_resultdPKc(%struct.State* dereferenceable(3376), i64, %struct.Memory*, i64 %rel_off1, i64 %rel_off2, i64 %rel_off3) {
block_400488:
  %3 = getelementptr inbounds %struct.State, %struct.State* %0, i32 0, i32 6
  %4 = getelementptr inbounds %struct.GPR, %struct.GPR* %3, i32 0, i32 33
  %5 = getelementptr inbounds %struct.Reg, %struct.Reg* %4, i32 0, i32 0
  %PC = bitcast %union.anon* %5 to i64*
  %6 = load i64, i64* %PC
  %7 = add i64 %6, %rel_off1
  %8 = load i64, i64* %PC
  %9 = add i64 %8, %rel_off2
  %10 = load i64, i64* %PC
  %11 = add i64 %10, %rel_off3
  store i64 %11, i64* %PC
  %12 = getelementptr inbounds %struct.State, %struct.State* %0, i64 0, i32 6, i32 13, i32 0, i32 0
  %13 = load i64, i64* %12, align 8
  %14 = add i64 %13, -8
  %15 = inttoptr i64 %14 to i64*
  store i64 %9, i64* %15
  store i64 %14, i64* %12, align 8
  %16 = getelementptr inbounds %struct.State, %struct.State* %0, i64 0, i32 6, i32 33, i32 0, i32 0
  store i64 %7, i64* %16, align 8
  ret %struct.Memory* %2
}

define %struct.Memory* @routine_addq__0x30___rsp(%struct.State* dereferenceable(3376), i64, %struct.Memory*) {
block_400488:
  %3 = getelementptr inbounds %struct.State, %struct.State* %0, i32 0, i32 6
  %4 = getelementptr inbounds %struct.GPR, %struct.GPR* %3, i32 0, i32 33
  %5 = getelementptr inbounds %struct.Reg, %struct.Reg* %4, i32 0, i32 0
  %PC = bitcast %union.anon* %5 to i64*
  %6 = getelementptr inbounds %struct.State, %struct.State* %0, i32 0, i32 6
  %7 = getelementptr inbounds %struct.GPR, %struct.GPR* %6, i32 0, i32 13
  %8 = getelementptr inbounds %struct.Reg, %struct.Reg* %7, i32 0, i32 0
  %RSP = bitcast %union.anon* %8 to i64*
  %9 = load i64, i64* %RSP
  %10 = load i64, i64* %PC
  %11 = add i64 %10, 4
  store i64 %11, i64* %PC
  %12 = add i64 48, %9
  store i64 %12, i64* %RSP, align 8
  %13 = icmp ult i64 %12, %9
  %14 = icmp ult i64 %12, 48
  %15 = or i1 %13, %14
  %16 = zext i1 %15 to i8
  %17 = getelementptr inbounds %struct.State, %struct.State* %0, i64 0, i32 2, i32 1
  store i8 %16, i8* %17, align 1
  %18 = trunc i64 %12 to i32
  %19 = and i32 %18, 255
  %20 = call i32 @llvm.ctpop.i32(i32 %19)
  %21 = trunc i32 %20 to i8
  %22 = and i8 %21, 1
  %23 = xor i8 %22, 1
  %24 = getelementptr inbounds %struct.State, %struct.State* %0, i64 0, i32 2, i32 3
  store i8 %23, i8* %24, align 1
  %25 = xor i64 48, %9
  %26 = xor i64 %25, %12
  %27 = lshr i64 %26, 4
  %28 = trunc i64 %27 to i8
  %29 = and i8 %28, 1
  %30 = getelementptr inbounds %struct.State, %struct.State* %0, i64 0, i32 2, i32 5
  store i8 %29, i8* %30, align 1
  %31 = icmp eq i64 %12, 0
  %32 = zext i1 %31 to i8
  %33 = getelementptr inbounds %struct.State, %struct.State* %0, i64 0, i32 2, i32 7
  store i8 %32, i8* %33, align 1
  %34 = lshr i64 %12, 63
  %35 = trunc i64 %34 to i8
  %36 = getelementptr inbounds %struct.State, %struct.State* %0, i64 0, i32 2, i32 9
  store i8 %35, i8* %36, align 1
  %37 = lshr i64 %9, 63
  %38 = xor i64 %34, %37
  %39 = add i64 %38, %34
  %40 = icmp eq i64 %39, 2
  %41 = zext i1 %40 to i8
  %42 = getelementptr inbounds %struct.State, %struct.State* %0, i64 0, i32 2, i32 13
  store i8 %41, i8* %42, align 1
  ret %struct.Memory* %2
}

define %struct.Memory* @routine_popq__rbp(%struct.State* dereferenceable(3376), i64, %struct.Memory*) {
block_400488:
  %3 = getelementptr inbounds %struct.State, %struct.State* %0, i32 0, i32 6
  %4 = getelementptr inbounds %struct.GPR, %struct.GPR* %3, i32 0, i32 33
  %5 = getelementptr inbounds %struct.Reg, %struct.Reg* %4, i32 0, i32 0
  %PC = bitcast %union.anon* %5 to i64*
  %6 = getelementptr inbounds %struct.State, %struct.State* %0, i32 0, i32 6
  %7 = getelementptr inbounds %struct.GPR, %struct.GPR* %6, i32 0, i32 15
  %8 = getelementptr inbounds %struct.Reg, %struct.Reg* %7, i32 0, i32 0
  %RBP = bitcast %union.anon* %8 to i64*
  %9 = load i64, i64* %PC
  %10 = add i64 %9, 1
  store i64 %10, i64* %PC
  %11 = getelementptr inbounds %struct.State, %struct.State* %0, i64 0, i32 6, i32 13, i32 0, i32 0
  %12 = load i64, i64* %11, align 8
  %13 = add i64 %12, 8
  %14 = inttoptr i64 %12 to i64*
  %15 = load i64, i64* %14
  store i64 %15, i64* %RBP, align 8
  store i64 %13, i64* %11, align 8
  ret %struct.Memory* %2
}

define %struct.Memory* @routine_retq(%struct.State* dereferenceable(3376), i64, %struct.Memory*) {
block_400488:
  %3 = getelementptr inbounds %struct.State, %struct.State* %0, i32 0, i32 6
  %4 = getelementptr inbounds %struct.GPR, %struct.GPR* %3, i32 0, i32 33
  %5 = getelementptr inbounds %struct.Reg, %struct.Reg* %4, i32 0, i32 0
  %PC = bitcast %union.anon* %5 to i64*
  %6 = load i64, i64* %PC
  %7 = add i64 %6, 1
  store i64 %7, i64* %PC
  %8 = getelementptr inbounds %struct.State, %struct.State* %0, i64 0, i32 6, i32 33, i32 0, i32 0
  %9 = getelementptr inbounds %struct.State, %struct.State* %0, i64 0, i32 6, i32 13, i32 0, i32 0
  %10 = load i64, i64* %9, align 8
  %11 = inttoptr i64 %10 to i64*
  %12 = load i64, i64* %11
  store i64 %12, i64* %8, align 8
  %13 = add i64 %10, 8
  store i64 %13, i64* %9, align 8
  ret %struct.Memory* %2
}

attributes #0 = { nounwind readnone }
attributes #1 = { alwaysinline }
