; ModuleID = 'mcsema/test.proposed.inline.ll'
source_filename = "llvm-link"
target datalayout = "e-m:e-i64:64-f80:128-n8:16:32:64-S128"
target triple = "x86_64-pc-linux-gnu-elf"

%__bss_start_type = type <{ [8 x i8] }>
%G_0x609088_type = type <{ [4 x i8] }>
%G_0x609090_type = type <{ [16 x i8] }>
%G_0x609098_type = type <{ [8 x i8] }>
%G_0x6090a0_type = type <{ [8 x i8] }>
%G_0x6090a8_type = type <{ [8 x i8] }>
%G_0x6090b0_type = type <{ [8 x i8] }>
%G_0x6090b8_type = type <{ [8 x i8] }>
%G_0x6090c0_type = type <{ [8 x i8] }>
%G_0x6090c8_type = type <{ [8 x i8] }>
%G_0x6090d0_type = type <{ [8 x i8] }>
%G_0x6090d8_type = type <{ [8 x i8] }>
%G_0x6090e0_type = type <{ [8 x i8] }>
%G_0x6090e8_type = type <{ [8 x i8] }>
%G_0x6090f0_type = type <{ [8 x i8] }>
%G_0x620830_type = type <{ [8 x i8] }>
%G_0x620838_type = type <{ [8 x i8] }>
%G_0x620840_type = type <{ [8 x i8] }>
%G_0x620848_type = type <{ [8 x i8] }>
%G_0x620850_type = type <{ [8 x i8] }>
%G_0x620858_type = type <{ [8 x i8] }>
%G_0x620860_type = type <{ [8 x i8] }>
%G_0x620868_type = type <{ [8 x i8] }>
%G_0x620870_type = type <{ [8 x i8] }>
%G_0x620878_type = type <{ [8 x i8] }>
%G_0x620880_type = type <{ [8 x i8] }>
%G_0x620888_type = type <{ [8 x i8] }>
%G__0x406852_type = type <{ [8 x i8] }>
%G__0x406861_type = type <{ [8 x i8] }>
%G__0x406870_type = type <{ [8 x i8] }>
%G__0x40687f_type = type <{ [8 x i8] }>
%G__0x406894_type = type <{ [8 x i8] }>
%G__0x4068a3_type = type <{ [8 x i8] }>
%G__0x4068be_type = type <{ [8 x i8] }>
%G__0x4068cd_type = type <{ [8 x i8] }>
%G__0x4068ee_type = type <{ [8 x i8] }>
%G__0x4068fd_type = type <{ [8 x i8] }>
%G__0x40691a_type = type <{ [8 x i8] }>
%G__0x406929_type = type <{ [8 x i8] }>
%G__0x40694c_type = type <{ [8 x i8] }>
%G__0x406965_type = type <{ [8 x i8] }>
%G__0x406984_type = type <{ [8 x i8] }>
%G__0x4069a9_type = type <{ [8 x i8] }>
%G__0x4069d4_type = type <{ [8 x i8] }>
%G__0x4069fb_type = type <{ [8 x i8] }>
%G__0x406a28_type = type <{ [8 x i8] }>
%G__0x406a41_type = type <{ [8 x i8] }>
%G__0x406a60_type = type <{ [8 x i8] }>
%G__0x406a85_type = type <{ [8 x i8] }>
%G__0x406ab0_type = type <{ [8 x i8] }>
%G__0x406ad7_type = type <{ [8 x i8] }>
%G__0x609090_type = type <{ [8 x i8] }>
%struct.State = type { %struct.ArchState, [32 x %union.VectorReg], %struct.ArithFlags, %union.anon, %struct.Segments, %struct.AddressSpace, %struct.GPR, %struct.X87Stack, %struct.MMX, %struct.FPUStatusFlags, %union.anon, %union.FPU, %struct.SegmentCaches }
%struct.ArchState = type { i32, i32, %union.anon }
%union.VectorReg = type { %union.vec512_t }
%union.vec512_t = type { %struct.uint64v8_t }
%struct.uint64v8_t = type { [8 x i64] }
%struct.ArithFlags = type { i8, i8, i8, i8, i8, i8, i8, i8, i8, i8, i8, i8, i8, i8, i8, i8 }
%struct.Segments = type { i16, %union.SegmentSelector, i16, %union.SegmentSelector, i16, %union.SegmentSelector, i16, %union.SegmentSelector, i16, %union.SegmentSelector, i16, %union.SegmentSelector }
%union.SegmentSelector = type { i16 }
%struct.AddressSpace = type { i64, %struct.Reg, i64, %struct.Reg, i64, %struct.Reg, i64, %struct.Reg, i64, %struct.Reg, i64, %struct.Reg }
%struct.Reg = type { %union.anon }
%struct.GPR = type { i64, %struct.Reg, i64, %struct.Reg, i64, %struct.Reg, i64, %struct.Reg, i64, %struct.Reg, i64, %struct.Reg, i64, %struct.Reg, i64, %struct.Reg, i64, %struct.Reg, i64, %struct.Reg, i64, %struct.Reg, i64, %struct.Reg, i64, %struct.Reg, i64, %struct.Reg, i64, %struct.Reg, i64, %struct.Reg, i64, %struct.Reg }
%struct.X87Stack = type { [8 x %struct.anon.3] }
%struct.anon.3 = type { i64, double }
%struct.MMX = type { [8 x %struct.anon.4] }
%struct.anon.4 = type { i64, %union.vec64_t }
%union.vec64_t = type { %struct.uint64v1_t }
%struct.uint64v1_t = type { [1 x i64] }
%struct.FPUStatusFlags = type { i8, i8, i8, i8, i8, i8, i8, i8, i8, i8, i8, i8, i8, i8, i8, i8, i8, i8, i8, i8, [4 x i8] }
%union.anon = type { i64 }
%union.FPU = type { %struct.anon.13 }
%struct.anon.13 = type { %struct.FpuFXSAVE, [96 x i8] }
%struct.FpuFXSAVE = type { %union.SegmentSelector, %union.SegmentSelector, %union.FPUAbridgedTagWord, i8, i16, i32, %union.SegmentSelector, i16, i32, %union.SegmentSelector, i16, %union.FPUControlStatus, %union.FPUControlStatus, [8 x %struct.FPUStackElem], [16 x %union.vec128_t] }
%union.FPUAbridgedTagWord = type { i8 }
%union.FPUControlStatus = type { i32 }
%struct.FPUStackElem = type { %union.anon.11, [6 x i8] }
%union.anon.11 = type { %struct.float80_t }
%struct.float80_t = type { [10 x i8] }
%union.vec128_t = type { %struct.uint128v1_t }
%struct.uint128v1_t = type { [1 x i128] }
%struct.SegmentCaches = type { %struct.SegmentShadow, %struct.SegmentShadow, %struct.SegmentShadow, %struct.SegmentShadow, %struct.SegmentShadow, %struct.SegmentShadow }
%struct.SegmentShadow = type { %union.anon, i32, i32 }
%struct.Memory = type opaque

@__bss_start = local_unnamed_addr global %__bss_start_type zeroinitializer
@G_0x609088 = local_unnamed_addr global %G_0x609088_type zeroinitializer
@G_0x609090 = local_unnamed_addr global %G_0x609090_type zeroinitializer
@G_0x609098 = local_unnamed_addr global %G_0x609098_type zeroinitializer
@G_0x6090a0 = local_unnamed_addr global %G_0x6090a0_type zeroinitializer
@G_0x6090a8 = local_unnamed_addr global %G_0x6090a8_type zeroinitializer
@G_0x6090b0 = local_unnamed_addr global %G_0x6090b0_type zeroinitializer
@G_0x6090b8 = local_unnamed_addr global %G_0x6090b8_type zeroinitializer
@G_0x6090c0 = local_unnamed_addr global %G_0x6090c0_type zeroinitializer
@G_0x6090c8 = local_unnamed_addr global %G_0x6090c8_type zeroinitializer
@G_0x6090d0 = local_unnamed_addr global %G_0x6090d0_type zeroinitializer
@G_0x6090d8 = local_unnamed_addr global %G_0x6090d8_type zeroinitializer
@G_0x6090e0 = local_unnamed_addr global %G_0x6090e0_type zeroinitializer
@G_0x6090e8 = local_unnamed_addr global %G_0x6090e8_type zeroinitializer
@G_0x6090f0 = local_unnamed_addr global %G_0x6090f0_type zeroinitializer
@G_0x620830 = local_unnamed_addr global %G_0x620830_type zeroinitializer
@G_0x620838 = local_unnamed_addr global %G_0x620838_type zeroinitializer
@G_0x620840 = local_unnamed_addr global %G_0x620840_type zeroinitializer
@G_0x620848 = local_unnamed_addr global %G_0x620848_type zeroinitializer
@G_0x620850 = local_unnamed_addr global %G_0x620850_type zeroinitializer
@G_0x620858 = local_unnamed_addr global %G_0x620858_type zeroinitializer
@G_0x620860 = local_unnamed_addr global %G_0x620860_type zeroinitializer
@G_0x620868 = local_unnamed_addr global %G_0x620868_type zeroinitializer
@G_0x620870 = local_unnamed_addr global %G_0x620870_type zeroinitializer
@G_0x620878 = local_unnamed_addr global %G_0x620878_type zeroinitializer
@G_0x620880 = local_unnamed_addr global %G_0x620880_type zeroinitializer
@G_0x620888 = local_unnamed_addr global %G_0x620888_type zeroinitializer
@G__0x406852 = global %G__0x406852_type zeroinitializer
@G__0x406861 = global %G__0x406861_type zeroinitializer
@G__0x406870 = global %G__0x406870_type zeroinitializer
@G__0x40687f = global %G__0x40687f_type zeroinitializer
@G__0x406894 = global %G__0x406894_type zeroinitializer
@G__0x4068a3 = global %G__0x4068a3_type zeroinitializer
@G__0x4068be = global %G__0x4068be_type zeroinitializer
@G__0x4068cd = global %G__0x4068cd_type zeroinitializer
@G__0x4068ee = global %G__0x4068ee_type zeroinitializer
@G__0x4068fd = global %G__0x4068fd_type zeroinitializer
@G__0x40691a = global %G__0x40691a_type zeroinitializer
@G__0x406929 = global %G__0x406929_type zeroinitializer
@G__0x40694c = global %G__0x40694c_type zeroinitializer
@G__0x406965 = global %G__0x406965_type zeroinitializer
@G__0x406984 = global %G__0x406984_type zeroinitializer
@G__0x4069a9 = global %G__0x4069a9_type zeroinitializer
@G__0x4069d4 = global %G__0x4069d4_type zeroinitializer
@G__0x4069fb = global %G__0x4069fb_type zeroinitializer
@G__0x406a28 = global %G__0x406a28_type zeroinitializer
@G__0x406a41 = global %G__0x406a41_type zeroinitializer
@G__0x406a60 = global %G__0x406a60_type zeroinitializer
@G__0x406a85 = global %G__0x406a85_type zeroinitializer
@G__0x406ab0 = global %G__0x406ab0_type zeroinitializer
@G__0x406ad7 = global %G__0x406ad7_type zeroinitializer
@G__0x609090 = global %G__0x609090_type zeroinitializer

declare %struct.Memory* @__remill_error(%struct.State* dereferenceable(3376), i64, %struct.Memory*) local_unnamed_addr

; Function Attrs: nounwind readnone
declare i32 @llvm.ctpop.i32(i32) #0

; Function Attrs: nounwind readnone
declare double @llvm.fabs.f64(double) #0

; Function Attrs: nounwind readnone
declare double @llvm.trunc.f64(double) #0

declare extern_weak x86_64_sysvcc i64 @atof(i64)

declare extern_weak x86_64_sysvcc i64 @atoi(i64)

declare extern_weak x86_64_sysvcc i64 @srand(i64)

declare %struct.Memory* @__remill_function_call(%struct.State* dereferenceable(3376), i64, %struct.Memory*) local_unnamed_addr

declare %struct.Memory* @sub_401d20._ZN12ValueWrapperIdEC2IdEERKT_(%struct.State* noalias dereferenceable(3376), i64, %struct.Memory* noalias readnone returned) local_unnamed_addr

declare %struct.Memory* @sub_401d40._ZN12ValueWrapperIS_IS_IS_IS_IS_IS_IS_IS_IS_IdEEEEEEEEEEC2IdEERKT_(%struct.State* noalias dereferenceable(3376), i64, %struct.Memory* noalias readnone returned) local_unnamed_addr

declare %struct.Memory* @sub_401d70._ZN9benchmark4fillIPddEEvT_S2_T0_(%struct.State* noalias dereferenceable(3376), i64, %struct.Memory* noalias readnone returned) local_unnamed_addr

declare %struct.Memory* @sub_401db0._ZN9benchmark4fillIP12ValueWrapperIdES2_EEvT_S4_T0_(%struct.State* noalias dereferenceable(3376), i64, %struct.Memory* noalias readnone returned) local_unnamed_addr

declare %struct.Memory* @sub_401df0._ZN9benchmark4fillIP12ValueWrapperIS1_IS1_IS1_IS1_IS1_IS1_IS1_IS1_IS1_IdEEEEEEEEEESB_EEvT_SD_T0_(%struct.State* noalias dereferenceable(3376), i64, %struct.Memory* noalias readnone returned) local_unnamed_addr

declare %struct.Memory* @sub_401e30._Z15test_accumulateIPddEvT_S1_T0_PKc(%struct.State* noalias dereferenceable(3376), i64, %struct.Memory* noalias readnone returned) local_unnamed_addr

declare %struct.Memory* @sub_401e90._Z15test_accumulateI14PointerWrapperIdEdEvT_S2_T0_PKc(%struct.State* noalias dereferenceable(3376), i64, %struct.Memory* noalias readnone returned) local_unnamed_addr

declare %struct.Memory* @sub_401f00._Z15test_accumulateIP12ValueWrapperIdES1_EvT_S3_T0_PKc(%struct.State* noalias dereferenceable(3376), i64, %struct.Memory* noalias readnone returned) local_unnamed_addr

declare %struct.Memory* @sub_401f80._Z15test_accumulateI14PointerWrapperI12ValueWrapperIdEES2_EvT_S4_T0_PKc(%struct.State* noalias dereferenceable(3376), i64, %struct.Memory* noalias readnone returned) local_unnamed_addr

declare %struct.Memory* @sub_402010._Z15test_accumulateIP12ValueWrapperIS0_IS0_IS0_IS0_IS0_IS0_IS0_IS0_IS0_IdEEEEEEEEEESA_EvT_SC_T0_PKc(%struct.State* noalias dereferenceable(3376), i64, %struct.Memory* noalias readnone returned) local_unnamed_addr

declare %struct.Memory* @sub_402090._Z15test_accumulateI14PointerWrapperI12ValueWrapperIS1_IS1_IS1_IS1_IS1_IS1_IS1_IS1_IS1_IdEEEEEEEEEEESB_EvT_SD_T0_PKc(%struct.State* noalias dereferenceable(3376), i64, %struct.Memory* noalias readnone returned) local_unnamed_addr

declare %struct.Memory* @sub_402120._ZN9benchmark11fill_randomIPddEEvT_S2_(%struct.State* noalias dereferenceable(3376), i64, %struct.Memory* noalias readnone returned) local_unnamed_addr

declare %struct.Memory* @sub_402170._ZN9benchmark4copyIPdP12ValueWrapperIdEEEvT_S5_T0_(%struct.State* noalias dereferenceable(3376), i64, %struct.Memory* noalias readnone returned) local_unnamed_addr

declare %struct.Memory* @sub_4021d0._ZN9benchmark4copyIPdP12ValueWrapperIS2_IS2_IS2_IS2_IS2_IS2_IS2_IS2_IS2_IdEEEEEEEEEEEEvT_SE_T0_(%struct.State* noalias dereferenceable(3376), i64, %struct.Memory* noalias readnone returned) local_unnamed_addr

declare %struct.Memory* @sub_402230._Z19test_insertion_sortIPddEvT_S1_S1_S1_T0_PKc(%struct.State* noalias dereferenceable(3376), i64, %struct.Memory* noalias readnone returned) local_unnamed_addr

declare %struct.Memory* @sub_4022b0._Z19test_insertion_sortI14PointerWrapperIdEdEvT_S2_S2_S2_T0_PKc(%struct.State* noalias dereferenceable(3376), i64, %struct.Memory* noalias readnone returned) local_unnamed_addr

declare %struct.Memory* @sub_402360._Z19test_insertion_sortIP12ValueWrapperIdES1_EvT_S3_S3_S3_T0_PKc(%struct.State* noalias dereferenceable(3376), i64, %struct.Memory* noalias readnone returned) local_unnamed_addr

declare %struct.Memory* @sub_4023e0._Z19test_insertion_sortI14PointerWrapperI12ValueWrapperIdEES2_EvT_S4_S4_S4_T0_PKc(%struct.State* noalias dereferenceable(3376), i64, %struct.Memory* noalias readnone returned) local_unnamed_addr

declare %struct.Memory* @sub_402490._Z19test_insertion_sortIP12ValueWrapperIS0_IS0_IS0_IS0_IS0_IS0_IS0_IS0_IS0_IdEEEEEEEEEESA_EvT_SC_SC_SC_T0_PKc(%struct.State* noalias dereferenceable(3376), i64, %struct.Memory* noalias readnone returned) local_unnamed_addr

declare %struct.Memory* @sub_402510._Z19test_insertion_sortI14PointerWrapperI12ValueWrapperIS1_IS1_IS1_IS1_IS1_IS1_IS1_IS1_IS1_IdEEEEEEEEEEESB_EvT_SD_SD_SD_T0_PKc(%struct.State* noalias dereferenceable(3376), i64, %struct.Memory* noalias readnone returned) local_unnamed_addr

declare %struct.Memory* @sub_4025c0._Z14test_quicksortIPddEvT_S1_S1_S1_T0_PKc(%struct.State* noalias dereferenceable(3376), i64, %struct.Memory* noalias readnone returned) local_unnamed_addr

declare %struct.Memory* @sub_402640._Z14test_quicksortI14PointerWrapperIdEdEvT_S2_S2_S2_T0_PKc(%struct.State* noalias dereferenceable(3376), i64, %struct.Memory* noalias readnone returned) local_unnamed_addr

declare %struct.Memory* @sub_4026f0._Z14test_quicksortIP12ValueWrapperIdES1_EvT_S3_S3_S3_T0_PKc(%struct.State* noalias dereferenceable(3376), i64, %struct.Memory* noalias readnone returned) local_unnamed_addr

declare %struct.Memory* @sub_402770._Z14test_quicksortI14PointerWrapperI12ValueWrapperIdEES2_EvT_S4_S4_S4_T0_PKc(%struct.State* noalias dereferenceable(3376), i64, %struct.Memory* noalias readnone returned) local_unnamed_addr

declare %struct.Memory* @sub_402820._Z14test_quicksortIP12ValueWrapperIS0_IS0_IS0_IS0_IS0_IS0_IS0_IS0_IS0_IdEEEEEEEEEESA_EvT_SC_SC_SC_T0_PKc(%struct.State* noalias dereferenceable(3376), i64, %struct.Memory* noalias readnone returned) local_unnamed_addr

declare %struct.Memory* @sub_4028a0._Z14test_quicksortI14PointerWrapperI12ValueWrapperIS1_IS1_IS1_IS1_IS1_IS1_IS1_IS1_IS1_IdEEEEEEEEEEESB_EvT_SD_SD_SD_T0_PKc(%struct.State* noalias dereferenceable(3376), i64, %struct.Memory* noalias readnone returned) local_unnamed_addr

declare %struct.Memory* @sub_402950._Z14test_heap_sortIPddEvT_S1_S1_S1_T0_PKc(%struct.State* noalias dereferenceable(3376), i64, %struct.Memory* noalias readnone returned) local_unnamed_addr

declare %struct.Memory* @sub_4029d0._Z14test_heap_sortI14PointerWrapperIdEdEvT_S2_S2_S2_T0_PKc(%struct.State* noalias dereferenceable(3376), i64, %struct.Memory* noalias readnone returned) local_unnamed_addr

declare %struct.Memory* @sub_402a80._Z14test_heap_sortIP12ValueWrapperIdES1_EvT_S3_S3_S3_T0_PKc(%struct.State* noalias dereferenceable(3376), i64, %struct.Memory* noalias readnone returned) local_unnamed_addr

declare %struct.Memory* @sub_402b00._Z14test_heap_sortI14PointerWrapperI12ValueWrapperIdEES2_EvT_S4_S4_S4_T0_PKc(%struct.State* noalias dereferenceable(3376), i64, %struct.Memory* noalias readnone returned) local_unnamed_addr

declare %struct.Memory* @sub_402bb0._Z14test_heap_sortIP12ValueWrapperIS0_IS0_IS0_IS0_IS0_IS0_IS0_IS0_IS0_IdEEEEEEEEEESA_EvT_SC_SC_SC_T0_PKc(%struct.State* noalias dereferenceable(3376), i64, %struct.Memory* noalias readnone returned) local_unnamed_addr

declare %struct.Memory* @sub_402c30._Z14test_heap_sortI14PointerWrapperI12ValueWrapperIS1_IS1_IS1_IS1_IS1_IS1_IS1_IS1_IS1_IdEEEEEEEEEEESB_EvT_SD_SD_SD_T0_PKc(%struct.State* noalias dereferenceable(3376), i64, %struct.Memory* noalias readnone returned) local_unnamed_addr

; Function Attrs: alwaysinline
define %struct.Memory* @main(%struct.State* noalias, i64, %struct.Memory* noalias) local_unnamed_addr #1 {
entry:
  %3 = getelementptr inbounds %struct.State, %struct.State* %0, i64 0, i32 6, i32 33, i32 0, i32 0
  %RBP.i = getelementptr inbounds %struct.State, %struct.State* %0, i64 0, i32 6, i32 15, i32 0, i32 0
  %4 = load i64, i64* %RBP.i, align 8
  %5 = add i64 %1, 1
  store i64 %5, i64* %3, align 8
  %6 = getelementptr inbounds %struct.State, %struct.State* %0, i64 0, i32 6, i32 13, i32 0, i32 0
  %7 = load i64, i64* %6, align 8
  %8 = add i64 %7, -8
  %9 = inttoptr i64 %8 to i64*
  store i64 %4, i64* %9, align 8
  %10 = load i64, i64* %3, align 8
  store i64 %8, i64* %RBP.i, align 8
  %11 = add i64 %7, -584
  store i64 %11, i64* %6, align 8
  %12 = icmp ult i64 %8, 576
  %13 = zext i1 %12 to i8
  %14 = getelementptr inbounds %struct.State, %struct.State* %0, i64 0, i32 2, i32 1
  store i8 %13, i8* %14, align 1
  %15 = trunc i64 %11 to i32
  %16 = and i32 %15, 255
  %17 = tail call i32 @llvm.ctpop.i32(i32 %16)
  %18 = trunc i32 %17 to i8
  %19 = and i8 %18, 1
  %20 = xor i8 %19, 1
  %21 = getelementptr inbounds %struct.State, %struct.State* %0, i64 0, i32 2, i32 3
  store i8 %20, i8* %21, align 1
  %22 = xor i64 %8, %11
  %23 = lshr i64 %22, 4
  %24 = trunc i64 %23 to i8
  %25 = and i8 %24, 1
  %26 = getelementptr inbounds %struct.State, %struct.State* %0, i64 0, i32 2, i32 5
  store i8 %25, i8* %26, align 1
  %27 = icmp eq i64 %11, 0
  %28 = zext i1 %27 to i8
  %29 = getelementptr inbounds %struct.State, %struct.State* %0, i64 0, i32 2, i32 7
  store i8 %28, i8* %29, align 1
  %30 = lshr i64 %11, 63
  %31 = trunc i64 %30 to i8
  %32 = getelementptr inbounds %struct.State, %struct.State* %0, i64 0, i32 2, i32 9
  store i8 %31, i8* %32, align 1
  %33 = lshr i64 %8, 63
  %34 = xor i64 %30, %33
  %35 = add nuw nsw i64 %34, %33
  %36 = icmp eq i64 %35, 2
  %37 = zext i1 %36 to i8
  %38 = getelementptr inbounds %struct.State, %struct.State* %0, i64 0, i32 2, i32 13
  store i8 %37, i8* %38, align 1
  %39 = getelementptr inbounds %struct.State, %struct.State* %0, i64 0, i32 6, i32 1, i32 0
  %RAX.i778 = getelementptr inbounds %union.anon, %union.anon* %39, i64 0, i32 0
  %40 = add i64 %7, -40
  store i64 %40, i64* %RAX.i778, align 8
  %RCX.i793 = getelementptr inbounds %struct.State, %struct.State* %0, i64 0, i32 6, i32 5, i32 0, i32 0
  %41 = add i64 %7, -48
  store i64 %41, i64* %RCX.i793, align 8
  %42 = getelementptr inbounds %struct.State, %struct.State* %0, i64 0, i32 1, i64 0
  %43 = bitcast %union.VectorReg* %42 to i8*
  %44 = getelementptr inbounds %struct.State, %struct.State* %0, i64 0, i32 1, i64 0, i32 0, i32 0, i32 0, i64 1
  %45 = bitcast %union.VectorReg* %42 to i32*
  store i32 0, i32* %45, align 1
  %46 = getelementptr inbounds i8, i8* %43, i64 4
  %47 = bitcast i8* %46 to i32*
  store i32 0, i32* %47, align 1
  %48 = bitcast i64* %44 to i32*
  store i32 0, i32* %48, align 1
  %49 = getelementptr inbounds i8, i8* %43, i64 12
  %50 = bitcast i8* %49 to i32*
  store i32 0, i32* %50, align 1
  %51 = add i64 %7, -12
  %52 = add i64 %10, 28
  store i64 %52, i64* %3, align 8
  %53 = inttoptr i64 %51 to i32*
  store i32 0, i32* %53, align 4
  %54 = getelementptr inbounds %struct.State, %struct.State* %0, i64 0, i32 6, i32 11, i32 0
  %EDI.i = bitcast %union.anon* %54 to i32*
  %55 = load i64, i64* %RBP.i, align 8
  %56 = add i64 %55, -8
  %57 = load i32, i32* %EDI.i, align 4
  %58 = load i64, i64* %3, align 8
  %59 = add i64 %58, 3
  store i64 %59, i64* %3, align 8
  %60 = inttoptr i64 %56 to i32*
  store i32 %57, i32* %60, align 4
  %RSI.i832 = getelementptr inbounds %struct.State, %struct.State* %0, i64 0, i32 6, i32 9, i32 0, i32 0
  %61 = load i64, i64* %RBP.i, align 8
  %62 = add i64 %61, -16
  %63 = load i64, i64* %RSI.i832, align 8
  %64 = load i64, i64* %3, align 8
  %65 = add i64 %64, 4
  store i64 %65, i64* %3, align 8
  %66 = inttoptr i64 %62 to i64*
  store i64 %63, i64* %66, align 8
  %67 = load i64, i64* %RBP.i, align 8
  %68 = add i64 %67, -24
  %69 = load i64, i64* %3, align 8
  %70 = add i64 %69, 5
  store i64 %70, i64* %3, align 8
  %71 = bitcast %union.VectorReg* %42 to double*
  %72 = getelementptr inbounds %union.VectorReg, %union.VectorReg* %42, i64 0, i32 0, i32 0, i32 0, i64 0
  %73 = load i64, i64* %72, align 1
  %74 = inttoptr i64 %68 to i64*
  store i64 %73, i64* %74, align 8
  %75 = load i64, i64* %RBP.i, align 8
  %76 = add i64 %75, -40
  %77 = load i64, i64* %3, align 8
  %78 = add i64 %77, 5
  store i64 %78, i64* %3, align 8
  %79 = load i64, i64* %72, align 1
  %80 = inttoptr i64 %76 to i64*
  store i64 %79, i64* %80, align 8
  %RDI.i824 = getelementptr inbounds %union.anon, %union.anon* %54, i64 0, i32 0
  %81 = load i64, i64* %RAX.i778, align 8
  %82 = load i64, i64* %3, align 8
  store i64 %81, i64* %RDI.i824, align 8
  %83 = load i64, i64* %RCX.i793, align 8
  store i64 %83, i64* %RSI.i832, align 8
  %84 = add i64 %82, 2770
  %85 = add i64 %82, 11
  %86 = load i64, i64* %6, align 8
  %87 = add i64 %86, -8
  %88 = inttoptr i64 %87 to i64*
  store i64 %85, i64* %88, align 8
  store i64 %87, i64* %6, align 8
  store i64 %84, i64* %3, align 8
  %call2_401254 = tail call %struct.Memory* @sub_401d20._ZN12ValueWrapperIdEC2IdEERKT_(%struct.State* %0, i64 %84, %struct.Memory* %2)
  %89 = load i64, i64* %RBP.i, align 8
  %90 = add i64 %89, -48
  %91 = load i64, i64* %3, align 8
  store i64 %90, i64* %RDI.i824, align 8
  %92 = add i64 %89, -56
  store i64 %92, i64* %RSI.i832, align 8
  store i32 0, i32* %45, align 1
  store i32 0, i32* %47, align 1
  store i32 0, i32* %48, align 1
  store i32 0, i32* %50, align 1
  %93 = add i64 %91, 16
  store i64 %93, i64* %3, align 8
  %94 = load i64, i64* %72, align 1
  %95 = inttoptr i64 %92 to i64*
  store i64 %94, i64* %95, align 8
  %96 = load i64, i64* %3, align 8
  %97 = add i64 %96, 2775
  %98 = add i64 %96, 5
  %99 = load i64, i64* %6, align 8
  %100 = add i64 %99, -8
  %101 = inttoptr i64 %100 to i64*
  store i64 %98, i64* %101, align 8
  store i64 %100, i64* %6, align 8
  store i64 %97, i64* %3, align 8
  %call2_401269 = tail call %struct.Memory* @sub_401d40._ZN12ValueWrapperIS_IS_IS_IS_IS_IS_IS_IS_IS_IdEEEEEEEEEEC2IdEERKT_(%struct.State* %0, i64 %97, %struct.Memory* %call2_401254)
  %102 = load i64, i64* %RBP.i, align 8
  %103 = add i64 %102, -8
  %104 = load i64, i64* %3, align 8
  %105 = add i64 %104, 4
  store i64 %105, i64* %3, align 8
  %106 = inttoptr i64 %103 to i32*
  %107 = load i32, i32* %106, align 4
  %108 = add i32 %107, -1
  %109 = icmp eq i32 %107, 0
  %110 = zext i1 %109 to i8
  store i8 %110, i8* %14, align 1
  %111 = and i32 %108, 255
  %112 = tail call i32 @llvm.ctpop.i32(i32 %111)
  %113 = trunc i32 %112 to i8
  %114 = and i8 %113, 1
  %115 = xor i8 %114, 1
  store i8 %115, i8* %21, align 1
  %116 = xor i32 %107, %108
  %117 = lshr i32 %116, 4
  %118 = trunc i32 %117 to i8
  %119 = and i8 %118, 1
  store i8 %119, i8* %26, align 1
  %120 = icmp eq i32 %108, 0
  %121 = zext i1 %120 to i8
  store i8 %121, i8* %29, align 1
  %122 = lshr i32 %108, 31
  %123 = trunc i32 %122 to i8
  store i8 %123, i8* %32, align 1
  %124 = lshr i32 %107, 31
  %125 = xor i32 %122, %124
  %126 = add nuw nsw i32 %125, %124
  %127 = icmp eq i32 %126, 2
  %128 = zext i1 %127 to i8
  store i8 %128, i8* %38, align 1
  %129 = icmp ne i8 %123, 0
  %130 = xor i1 %129, %127
  %131 = or i1 %120, %130
  %.v = select i1 %131, i64 30, i64 10
  %132 = add i64 %104, %.v
  store i64 %132, i64* %3, align 8
  br i1 %131, label %block_.L_40128c, label %block_401278

block_401278:                                     ; preds = %entry
  %133 = add i64 %102, -16
  %134 = add i64 %132, 4
  store i64 %134, i64* %3, align 8
  %135 = inttoptr i64 %133 to i64*
  %136 = load i64, i64* %135, align 8
  store i64 %136, i64* %RAX.i778, align 8
  %137 = add i64 %136, 8
  %138 = add i64 %132, 8
  store i64 %138, i64* %3, align 8
  %139 = inttoptr i64 %137 to i64*
  %140 = load i64, i64* %139, align 8
  store i64 %140, i64* %RDI.i824, align 8
  %141 = add i64 %132, -2936
  %142 = add i64 %132, 13
  %143 = load i64, i64* %6, align 8
  %144 = add i64 %143, -8
  %145 = inttoptr i64 %144 to i64*
  store i64 %142, i64* %145, align 8
  store i64 %144, i64* %6, align 8
  store i64 %141, i64* %3, align 8
  %146 = tail call %struct.Memory* @__remill_function_call(%struct.State* %0, i64 ptrtoint (i64 (i64)* @atoi to i64), %struct.Memory* %call2_401269)
  %EAX.i791 = bitcast %union.anon* %39 to i32*
  %147 = load i32, i32* %EAX.i791, align 4
  %148 = load i64, i64* %3, align 8
  %149 = add i64 %148, 7
  store i64 %149, i64* %3, align 8
  store i32 %147, i32* bitcast (%G_0x609088_type* @G_0x609088 to i32*), align 8
  %.pre = load i64, i64* %RBP.i, align 8
  br label %block_.L_40128c

block_.L_40128c:                                  ; preds = %block_401278, %entry
  %150 = phi i64 [ %132, %entry ], [ %149, %block_401278 ]
  %151 = phi i64 [ %102, %entry ], [ %.pre, %block_401278 ]
  %MEMORY.0 = phi %struct.Memory* [ %call2_401269, %entry ], [ %146, %block_401278 ]
  %152 = add i64 %151, -8
  %153 = add i64 %150, 4
  store i64 %153, i64* %3, align 8
  %154 = inttoptr i64 %152 to i32*
  %155 = load i32, i32* %154, align 4
  %156 = add i32 %155, -2
  %157 = icmp ult i32 %155, 2
  %158 = zext i1 %157 to i8
  store i8 %158, i8* %14, align 1
  %159 = and i32 %156, 255
  %160 = tail call i32 @llvm.ctpop.i32(i32 %159)
  %161 = trunc i32 %160 to i8
  %162 = and i8 %161, 1
  %163 = xor i8 %162, 1
  store i8 %163, i8* %21, align 1
  %164 = xor i32 %155, %156
  %165 = lshr i32 %164, 4
  %166 = trunc i32 %165 to i8
  %167 = and i8 %166, 1
  store i8 %167, i8* %26, align 1
  %168 = icmp eq i32 %156, 0
  %169 = zext i1 %168 to i8
  store i8 %169, i8* %29, align 1
  %170 = lshr i32 %156, 31
  %171 = trunc i32 %170 to i8
  store i8 %171, i8* %32, align 1
  %172 = lshr i32 %155, 31
  %173 = xor i32 %170, %172
  %174 = add nuw nsw i32 %173, %172
  %175 = icmp eq i32 %174, 2
  %176 = zext i1 %175 to i8
  store i8 %176, i8* %38, align 1
  %177 = icmp ne i8 %171, 0
  %178 = xor i1 %177, %175
  %179 = or i1 %168, %178
  %.v4 = select i1 %179, i64 32, i64 10
  %180 = add i64 %150, %.v4
  store i64 %180, i64* %3, align 8
  br i1 %179, label %block_.L_40128c.block_.L_4012ac_crit_edge, label %block_401296

block_.L_40128c.block_.L_4012ac_crit_edge:        ; preds = %block_.L_40128c
  %.pre1 = load double, double* bitcast (%G_0x609090_type* @G_0x609090 to double*), align 8
  br label %block_.L_4012ac

block_401296:                                     ; preds = %block_.L_40128c
  %181 = add i64 %151, -16
  %182 = add i64 %180, 4
  store i64 %182, i64* %3, align 8
  %183 = inttoptr i64 %181 to i64*
  %184 = load i64, i64* %183, align 8
  store i64 %184, i64* %RAX.i778, align 8
  %185 = add i64 %184, 16
  %186 = add i64 %180, 8
  store i64 %186, i64* %3, align 8
  %187 = inttoptr i64 %185 to i64*
  %188 = load i64, i64* %187, align 8
  store i64 %188, i64* %RDI.i824, align 8
  %189 = add i64 %180, -3094
  %190 = add i64 %180, 13
  %191 = load i64, i64* %6, align 8
  %192 = add i64 %191, -8
  %193 = inttoptr i64 %192 to i64*
  store i64 %190, i64* %193, align 8
  store i64 %192, i64* %6, align 8
  store i64 %189, i64* %3, align 8
  %194 = tail call %struct.Memory* @__remill_function_call(%struct.State* %0, i64 ptrtoint (i64 (i64)* @atof to i64), %struct.Memory* %MEMORY.0)
  %195 = load i64, i64* %3, align 8
  %196 = add i64 %195, 9
  store i64 %196, i64* %3, align 8
  %197 = load double, double* %71, align 1
  store double %197, double* bitcast (%G_0x609090_type* @G_0x609090 to double*), align 8
  br label %block_.L_4012ac

block_.L_4012ac:                                  ; preds = %block_.L_40128c.block_.L_4012ac_crit_edge, %block_401296
  %198 = phi double [ %.pre1, %block_.L_40128c.block_.L_4012ac_crit_edge ], [ %197, %block_401296 ]
  %199 = phi i64 [ %180, %block_.L_40128c.block_.L_4012ac_crit_edge ], [ %196, %block_401296 ]
  %MEMORY.1 = phi %struct.Memory* [ %MEMORY.0, %block_.L_40128c.block_.L_4012ac_crit_edge ], [ %194, %block_401296 ]
  %200 = tail call double @llvm.trunc.f64(double %198)
  %201 = tail call double @llvm.fabs.f64(double %200)
  %202 = fcmp ogt double %201, 0x41DFFFFFFFC00000
  %203 = fptosi double %200 to i32
  %204 = zext i32 %203 to i64
  %205 = select i1 %202, i64 2147483648, i64 %204
  %206 = trunc i64 %205 to i32
  %207 = add i32 %206, 123
  %208 = zext i32 %207 to i64
  store i64 %208, i64* %RAX.i778, align 8
  %209 = icmp ugt i32 %206, -124
  %210 = zext i1 %209 to i8
  store i8 %210, i8* %14, align 1
  %211 = and i32 %207, 255
  %212 = tail call i32 @llvm.ctpop.i32(i32 %211)
  %213 = trunc i32 %212 to i8
  %214 = and i8 %213, 1
  %215 = xor i8 %214, 1
  store i8 %215, i8* %21, align 1
  %216 = xor i32 %206, 16
  %217 = xor i32 %216, %207
  %218 = lshr i32 %217, 4
  %219 = trunc i32 %218 to i8
  %220 = and i8 %219, 1
  store i8 %220, i8* %26, align 1
  %221 = icmp eq i32 %207, 0
  %222 = zext i1 %221 to i8
  store i8 %222, i8* %29, align 1
  %223 = lshr i32 %207, 31
  %224 = trunc i32 %223 to i8
  store i8 %224, i8* %32, align 1
  %225 = lshr i32 %206, 31
  %226 = xor i32 %223, %225
  %227 = add nuw nsw i32 %226, %223
  %228 = icmp eq i32 %227, 2
  %229 = zext i1 %228 to i8
  store i8 %229, i8* %38, align 1
  store i64 %208, i64* %RDI.i824, align 8
  %230 = add i64 %199, -3036
  %231 = add i64 %199, 19
  %232 = load i64, i64* %6, align 8
  %233 = add i64 %232, -8
  %234 = inttoptr i64 %233 to i64*
  store i64 %231, i64* %234, align 8
  store i64 %233, i64* %6, align 8
  store i64 %230, i64* %3, align 8
  %235 = tail call %struct.Memory* @__remill_function_call(%struct.State* %0, i64 ptrtoint (i64 (i64)* @srand to i64), %struct.Memory* %MEMORY.1)
  %236 = load i64, i64* %3, align 8
  %237 = load i64, i64* bitcast (%G_0x609098_type* @G_0x609098 to i64*), align 8
  store i64 %237, i64* %RDI.i824, align 8
  %238 = load i64, i64* bitcast (%G_0x6090a0_type* @G_0x6090a0 to i64*), align 8
  store i64 %238, i64* %RSI.i832, align 8
  %239 = load i64, i64* bitcast (%G_0x609090_type* @G_0x609090 to i64*), align 8
  store i64 %239, i64* %72, align 1
  %240 = bitcast i64* %44 to double*
  store double 0.000000e+00, double* %240, align 1
  %241 = add i64 %236, 2737
  %242 = add i64 %236, 30
  %243 = load i64, i64* %6, align 8
  %244 = add i64 %243, -8
  %245 = inttoptr i64 %244 to i64*
  store i64 %242, i64* %245, align 8
  store i64 %244, i64* %6, align 8
  store i64 %241, i64* %3, align 8
  %call2_4012d8 = tail call %struct.Memory* @sub_401d70._ZN9benchmark4fillIPddEEvT_S2_T0_(%struct.State* %0, i64 %241, %struct.Memory* %235)
  %246 = load i64, i64* %RBP.i, align 8
  %247 = add i64 %246, -64
  %248 = load i64, i64* %3, align 8
  store i64 %247, i64* %RDI.i824, align 8
  store i64 ptrtoint (%G__0x609090_type* @G__0x609090 to i64), i64* %RSI.i832, align 8
  %249 = load i64, i64* bitcast (%G_0x6090b8_type* @G_0x6090b8 to i64*), align 8
  store i64 %249, i64* %RCX.i793, align 8
  %RDX.i751 = getelementptr inbounds %struct.State, %struct.State* %0, i64 0, i32 6, i32 7, i32 0, i32 0
  %250 = load i64, i64* bitcast (%G_0x6090c0_type* @G_0x6090c0 to i64*), align 8
  store i64 %250, i64* %RDX.i751, align 8
  %251 = add i64 %246, -544
  %252 = add i64 %248, 37
  store i64 %252, i64* %3, align 8
  %253 = inttoptr i64 %251 to i64*
  store i64 %250, i64* %253, align 8
  %254 = load i64, i64* %RBP.i, align 8
  %255 = add i64 %254, -552
  %256 = load i64, i64* %RCX.i793, align 8
  %257 = load i64, i64* %3, align 8
  %258 = add i64 %257, 7
  store i64 %258, i64* %3, align 8
  %259 = inttoptr i64 %255 to i64*
  store i64 %256, i64* %259, align 8
  %260 = load i64, i64* %3, align 8
  %261 = add i64 %260, 2583
  %262 = add i64 %260, 5
  %263 = load i64, i64* %6, align 8
  %264 = add i64 %263, -8
  %265 = inttoptr i64 %264 to i64*
  store i64 %262, i64* %265, align 8
  store i64 %264, i64* %6, align 8
  store i64 %261, i64* %3, align 8
  %call2_401309 = tail call %struct.Memory* @sub_401d20._ZN12ValueWrapperIdEC2IdEERKT_(%struct.State* %0, i64 %261, %struct.Memory* %call2_4012d8)
  %266 = load i64, i64* %RBP.i, align 8
  %267 = add i64 %266, -64
  %268 = load i64, i64* %3, align 8
  %269 = add i64 %268, 5
  store i64 %269, i64* %3, align 8
  %270 = inttoptr i64 %267 to i64*
  %271 = load i64, i64* %270, align 8
  store i64 %271, i64* %72, align 1
  store double 0.000000e+00, double* %240, align 1
  %272 = add i64 %266, -552
  %273 = add i64 %268, 12
  store i64 %273, i64* %3, align 8
  %274 = inttoptr i64 %272 to i64*
  %275 = load i64, i64* %274, align 8
  store i64 %275, i64* %RDI.i824, align 8
  %276 = add i64 %266, -544
  %277 = add i64 %268, 19
  store i64 %277, i64* %3, align 8
  %278 = inttoptr i64 %276 to i64*
  %279 = load i64, i64* %278, align 8
  store i64 %279, i64* %RSI.i832, align 8
  %280 = add i64 %268, 2722
  %281 = add i64 %268, 24
  %282 = load i64, i64* %6, align 8
  %283 = add i64 %282, -8
  %284 = inttoptr i64 %283 to i64*
  store i64 %281, i64* %284, align 8
  store i64 %283, i64* %6, align 8
  store i64 %280, i64* %3, align 8
  %call2_401321 = tail call %struct.Memory* @sub_401db0._ZN9benchmark4fillIP12ValueWrapperIdES2_EEvT_S4_T0_(%struct.State* %0, i64 %280, %struct.Memory* %call2_401309)
  %285 = load i64, i64* %RBP.i, align 8
  %286 = add i64 %285, -72
  %287 = load i64, i64* %3, align 8
  store i64 %286, i64* %RDI.i824, align 8
  store i64 ptrtoint (%G__0x609090_type* @G__0x609090 to i64), i64* %RSI.i832, align 8
  %288 = load i64, i64* bitcast (%G_0x6090d8_type* @G_0x6090d8 to i64*), align 8
  store i64 %288, i64* %RCX.i793, align 8
  %289 = load i64, i64* bitcast (%G_0x6090e0_type* @G_0x6090e0 to i64*), align 8
  store i64 %289, i64* %RDX.i751, align 8
  %290 = add i64 %285, -560
  %291 = add i64 %287, 37
  store i64 %291, i64* %3, align 8
  %292 = inttoptr i64 %290 to i64*
  store i64 %289, i64* %292, align 8
  %293 = load i64, i64* %RBP.i, align 8
  %294 = add i64 %293, -568
  %295 = load i64, i64* %RCX.i793, align 8
  %296 = load i64, i64* %3, align 8
  %297 = add i64 %296, 7
  store i64 %297, i64* %3, align 8
  %298 = inttoptr i64 %294 to i64*
  store i64 %295, i64* %298, align 8
  %299 = load i64, i64* %3, align 8
  %300 = add i64 %299, 2542
  %301 = add i64 %299, 5
  %302 = load i64, i64* %6, align 8
  %303 = add i64 %302, -8
  %304 = inttoptr i64 %303 to i64*
  store i64 %301, i64* %304, align 8
  store i64 %303, i64* %6, align 8
  store i64 %300, i64* %3, align 8
  %call2_401352 = tail call %struct.Memory* @sub_401d40._ZN12ValueWrapperIS_IS_IS_IS_IS_IS_IS_IS_IS_IdEEEEEEEEEEC2IdEERKT_(%struct.State* %0, i64 %300, %struct.Memory* %call2_401321)
  %305 = load i64, i64* %RBP.i, align 8
  %306 = add i64 %305, -72
  %307 = load i64, i64* %3, align 8
  %308 = add i64 %307, 5
  store i64 %308, i64* %3, align 8
  %309 = inttoptr i64 %306 to i64*
  %310 = load i64, i64* %309, align 8
  store i64 %310, i64* %72, align 1
  store double 0.000000e+00, double* %240, align 1
  %311 = add i64 %305, -568
  %312 = add i64 %307, 12
  store i64 %312, i64* %3, align 8
  %313 = inttoptr i64 %311 to i64*
  %314 = load i64, i64* %313, align 8
  store i64 %314, i64* %RDI.i824, align 8
  %315 = add i64 %305, -560
  %316 = add i64 %307, 19
  store i64 %316, i64* %3, align 8
  %317 = inttoptr i64 %315 to i64*
  %318 = load i64, i64* %317, align 8
  store i64 %318, i64* %RSI.i832, align 8
  %319 = add i64 %307, 2713
  %320 = add i64 %307, 24
  %321 = load i64, i64* %6, align 8
  %322 = add i64 %321, -8
  %323 = inttoptr i64 %322 to i64*
  store i64 %320, i64* %323, align 8
  store i64 %322, i64* %6, align 8
  store i64 %319, i64* %3, align 8
  %call2_40136a = tail call %struct.Memory* @sub_401df0._ZN9benchmark4fillIP12ValueWrapperIS1_IS1_IS1_IS1_IS1_IS1_IS1_IS1_IS1_IdEEEEEEEEEESB_EEvT_SD_T0_(%struct.State* %0, i64 %319, %struct.Memory* %call2_401352)
  %324 = load i64, i64* %3, align 8
  store i64 ptrtoint (%G__0x406861_type* @G__0x406861 to i64), i64* %RDX.i751, align 8
  %325 = load i64, i64* bitcast (%G_0x609098_type* @G_0x609098 to i64*), align 8
  store i64 %325, i64* %RDI.i824, align 8
  %326 = load i64, i64* bitcast (%G_0x6090a0_type* @G_0x6090a0 to i64*), align 8
  store i64 %326, i64* %RSI.i832, align 8
  %327 = load i64, i64* %RBP.i, align 8
  %328 = add i64 %327, -24
  %329 = add i64 %324, 31
  store i64 %329, i64* %3, align 8
  %330 = inttoptr i64 %328 to i64*
  %331 = load i64, i64* %330, align 8
  store i64 %331, i64* %72, align 1
  store double 0.000000e+00, double* %240, align 1
  %332 = add i64 %324, 2753
  %333 = add i64 %324, 36
  %334 = load i64, i64* %6, align 8
  %335 = add i64 %334, -8
  %336 = inttoptr i64 %335 to i64*
  store i64 %333, i64* %336, align 8
  store i64 %335, i64* %6, align 8
  store i64 %332, i64* %3, align 8
  %call2_40138e = tail call %struct.Memory* @sub_401e30._Z15test_accumulateIPddEvT_S1_T0_PKc(%struct.State* %0, i64 %332, %struct.Memory* %call2_40136a)
  %337 = load i64, i64* %3, align 8
  store i64 ptrtoint (%G__0x40687f_type* @G__0x40687f to i64), i64* %RDX.i751, align 8
  %338 = load i64, i64* bitcast (%G_0x620830_type* @G_0x620830 to i64*), align 8
  %339 = load i64, i64* %RBP.i, align 8
  %340 = add i64 %339, -80
  %341 = add i64 %337, 22
  store i64 %341, i64* %3, align 8
  %342 = inttoptr i64 %340 to i64*
  store i64 %338, i64* %342, align 8
  %343 = load i64, i64* %3, align 8
  %344 = load i64, i64* bitcast (%G_0x620838_type* @G_0x620838 to i64*), align 8
  store i64 %344, i64* %RCX.i793, align 8
  %345 = load i64, i64* %RBP.i, align 8
  %346 = add i64 %345, -88
  %347 = add i64 %343, 12
  store i64 %347, i64* %3, align 8
  %348 = inttoptr i64 %346 to i64*
  store i64 %344, i64* %348, align 8
  %349 = load i64, i64* %RBP.i, align 8
  %350 = add i64 %349, -24
  %351 = load i64, i64* %3, align 8
  %352 = add i64 %351, 5
  store i64 %352, i64* %3, align 8
  %353 = inttoptr i64 %350 to i64*
  %354 = load i64, i64* %353, align 8
  store i64 %354, i64* %72, align 1
  store double 0.000000e+00, double* %240, align 1
  %355 = add i64 %349, -80
  %356 = add i64 %351, 9
  store i64 %356, i64* %3, align 8
  %357 = inttoptr i64 %355 to i64*
  %358 = load i64, i64* %357, align 8
  store i64 %358, i64* %RDI.i824, align 8
  %359 = add i64 %349, -88
  %360 = add i64 %351, 13
  store i64 %360, i64* %3, align 8
  %361 = inttoptr i64 %359 to i64*
  %362 = load i64, i64* %361, align 8
  store i64 %362, i64* %RSI.i832, align 8
  %363 = add i64 %351, 2779
  %364 = add i64 %351, 18
  %365 = load i64, i64* %6, align 8
  %366 = add i64 %365, -8
  %367 = inttoptr i64 %366 to i64*
  store i64 %364, i64* %367, align 8
  store i64 %366, i64* %6, align 8
  store i64 %363, i64* %3, align 8
  %call2_4013c2 = tail call %struct.Memory* @sub_401e90._Z15test_accumulateI14PointerWrapperIdEdEvT_S2_T0_PKc(%struct.State* %0, i64 %363, %struct.Memory* %call2_40138e)
  %368 = load i64, i64* %3, align 8
  store i64 ptrtoint (%G__0x4068a3_type* @G__0x4068a3 to i64), i64* %RDX.i751, align 8
  %369 = load i64, i64* bitcast (%G_0x6090b8_type* @G_0x6090b8 to i64*), align 8
  store i64 %369, i64* %RDI.i824, align 8
  %370 = load i64, i64* bitcast (%G_0x6090c0_type* @G_0x6090c0 to i64*), align 8
  store i64 %370, i64* %RSI.i832, align 8
  %371 = load i64, i64* %RBP.i, align 8
  %372 = add i64 %371, -32
  %373 = add i64 %368, 30
  store i64 %373, i64* %3, align 8
  %374 = inttoptr i64 %372 to i64*
  %375 = load i64, i64* %374, align 8
  store i64 %375, i64* %RCX.i793, align 8
  %376 = add i64 %371, -96
  %377 = add i64 %368, 34
  store i64 %377, i64* %3, align 8
  %378 = inttoptr i64 %376 to i64*
  store i64 %375, i64* %378, align 8
  %379 = load i64, i64* %RBP.i, align 8
  %380 = add i64 %379, -96
  %381 = load i64, i64* %3, align 8
  %382 = add i64 %381, 5
  store i64 %382, i64* %3, align 8
  %383 = inttoptr i64 %380 to i64*
  %384 = load i64, i64* %383, align 8
  store i64 %384, i64* %72, align 1
  store double 0.000000e+00, double* %240, align 1
  %385 = add i64 %381, 2839
  %386 = add i64 %381, 10
  %387 = load i64, i64* %6, align 8
  %388 = add i64 %387, -8
  %389 = inttoptr i64 %388 to i64*
  store i64 %386, i64* %389, align 8
  store i64 %388, i64* %6, align 8
  store i64 %385, i64* %3, align 8
  %call2_4013ee = tail call %struct.Memory* @sub_401f00._Z15test_accumulateIP12ValueWrapperIdES1_EvT_S3_T0_PKc(%struct.State* %0, i64 %385, %struct.Memory* %call2_4013c2)
  %390 = load i64, i64* %3, align 8
  store i64 ptrtoint (%G__0x4068cd_type* @G__0x4068cd to i64), i64* %RDX.i751, align 8
  %391 = load i64, i64* bitcast (%G_0x620850_type* @G_0x620850 to i64*), align 8
  %392 = load i64, i64* %RBP.i, align 8
  %393 = add i64 %392, -104
  %394 = add i64 %390, 22
  store i64 %394, i64* %3, align 8
  %395 = inttoptr i64 %393 to i64*
  store i64 %391, i64* %395, align 8
  %396 = load i64, i64* %3, align 8
  %397 = load i64, i64* bitcast (%G_0x620858_type* @G_0x620858 to i64*), align 8
  store i64 %397, i64* %RCX.i793, align 8
  %398 = load i64, i64* %RBP.i, align 8
  %399 = add i64 %398, -112
  %400 = add i64 %396, 12
  store i64 %400, i64* %3, align 8
  %401 = inttoptr i64 %399 to i64*
  store i64 %397, i64* %401, align 8
  %402 = load i64, i64* %RBP.i, align 8
  %403 = add i64 %402, -32
  %404 = load i64, i64* %3, align 8
  %405 = add i64 %404, 4
  store i64 %405, i64* %3, align 8
  %406 = inttoptr i64 %403 to i64*
  %407 = load i64, i64* %406, align 8
  store i64 %407, i64* %RCX.i793, align 8
  %408 = add i64 %402, -120
  %409 = add i64 %404, 8
  store i64 %409, i64* %3, align 8
  %410 = inttoptr i64 %408 to i64*
  store i64 %407, i64* %410, align 8
  %411 = load i64, i64* %RBP.i, align 8
  %412 = add i64 %411, -104
  %413 = load i64, i64* %3, align 8
  %414 = add i64 %413, 4
  store i64 %414, i64* %3, align 8
  %415 = inttoptr i64 %412 to i64*
  %416 = load i64, i64* %415, align 8
  store i64 %416, i64* %RDI.i824, align 8
  %417 = add i64 %411, -112
  %418 = add i64 %413, 8
  store i64 %418, i64* %3, align 8
  %419 = inttoptr i64 %417 to i64*
  %420 = load i64, i64* %419, align 8
  store i64 %420, i64* %RSI.i832, align 8
  %421 = add i64 %411, -120
  %422 = add i64 %413, 13
  store i64 %422, i64* %3, align 8
  %423 = inttoptr i64 %421 to i64*
  %424 = load i64, i64* %423, align 8
  store i64 %424, i64* %72, align 1
  store double 0.000000e+00, double* %240, align 1
  %425 = add i64 %413, 2915
  %426 = add i64 %413, 18
  %427 = load i64, i64* %6, align 8
  %428 = add i64 %427, -8
  %429 = inttoptr i64 %428 to i64*
  store i64 %426, i64* %429, align 8
  store i64 %428, i64* %6, align 8
  store i64 %425, i64* %3, align 8
  %call2_40142a = tail call %struct.Memory* @sub_401f80._Z15test_accumulateI14PointerWrapperI12ValueWrapperIdEES2_EvT_S4_T0_PKc(%struct.State* %0, i64 %425, %struct.Memory* %call2_4013ee)
  %430 = load i64, i64* %3, align 8
  store i64 ptrtoint (%G__0x4068fd_type* @G__0x4068fd to i64), i64* %RDX.i751, align 8
  %431 = load i64, i64* bitcast (%G_0x6090d8_type* @G_0x6090d8 to i64*), align 8
  store i64 %431, i64* %RDI.i824, align 8
  %432 = load i64, i64* bitcast (%G_0x6090e0_type* @G_0x6090e0 to i64*), align 8
  store i64 %432, i64* %RSI.i832, align 8
  %433 = load i64, i64* %RBP.i, align 8
  %434 = add i64 %433, -48
  %435 = add i64 %430, 30
  store i64 %435, i64* %3, align 8
  %436 = inttoptr i64 %434 to i64*
  %437 = load i64, i64* %436, align 8
  store i64 %437, i64* %RCX.i793, align 8
  %438 = add i64 %433, -128
  %439 = add i64 %430, 34
  store i64 %439, i64* %3, align 8
  %440 = inttoptr i64 %438 to i64*
  store i64 %437, i64* %440, align 8
  %441 = load i64, i64* %RBP.i, align 8
  %442 = add i64 %441, -128
  %443 = load i64, i64* %3, align 8
  %444 = add i64 %443, 5
  store i64 %444, i64* %3, align 8
  %445 = inttoptr i64 %442 to i64*
  %446 = load i64, i64* %445, align 8
  store i64 %446, i64* %72, align 1
  store double 0.000000e+00, double* %240, align 1
  %447 = add i64 %443, 3007
  %448 = add i64 %443, 10
  %449 = load i64, i64* %6, align 8
  %450 = add i64 %449, -8
  %451 = inttoptr i64 %450 to i64*
  store i64 %448, i64* %451, align 8
  store i64 %450, i64* %6, align 8
  store i64 %447, i64* %3, align 8
  %call2_401456 = tail call %struct.Memory* @sub_402010._Z15test_accumulateIP12ValueWrapperIS0_IS0_IS0_IS0_IS0_IS0_IS0_IS0_IS0_IdEEEEEEEEEESA_EvT_SC_T0_PKc(%struct.State* %0, i64 %447, %struct.Memory* %call2_40142a)
  %452 = load i64, i64* %3, align 8
  store i64 ptrtoint (%G__0x406929_type* @G__0x406929 to i64), i64* %RDX.i751, align 8
  %453 = load i64, i64* bitcast (%G_0x620870_type* @G_0x620870 to i64*), align 8
  %454 = load i64, i64* %RBP.i, align 8
  %455 = add i64 %454, -136
  %456 = add i64 %452, 25
  store i64 %456, i64* %3, align 8
  %457 = inttoptr i64 %455 to i64*
  store i64 %453, i64* %457, align 8
  %458 = load i64, i64* %3, align 8
  %459 = load i64, i64* bitcast (%G_0x620878_type* @G_0x620878 to i64*), align 8
  store i64 %459, i64* %RCX.i793, align 8
  %460 = load i64, i64* %RBP.i, align 8
  %461 = add i64 %460, -144
  %462 = add i64 %458, 15
  store i64 %462, i64* %3, align 8
  %463 = inttoptr i64 %461 to i64*
  store i64 %459, i64* %463, align 8
  %464 = load i64, i64* %RBP.i, align 8
  %465 = add i64 %464, -48
  %466 = load i64, i64* %3, align 8
  %467 = add i64 %466, 4
  store i64 %467, i64* %3, align 8
  %468 = inttoptr i64 %465 to i64*
  %469 = load i64, i64* %468, align 8
  store i64 %469, i64* %RCX.i793, align 8
  %470 = add i64 %464, -152
  %471 = add i64 %466, 11
  store i64 %471, i64* %3, align 8
  %472 = inttoptr i64 %470 to i64*
  store i64 %469, i64* %472, align 8
  %473 = load i64, i64* %RBP.i, align 8
  %474 = add i64 %473, -136
  %475 = load i64, i64* %3, align 8
  %476 = add i64 %475, 7
  store i64 %476, i64* %3, align 8
  %477 = inttoptr i64 %474 to i64*
  %478 = load i64, i64* %477, align 8
  store i64 %478, i64* %RDI.i824, align 8
  %479 = add i64 %473, -144
  %480 = add i64 %475, 14
  store i64 %480, i64* %3, align 8
  %481 = inttoptr i64 %479 to i64*
  %482 = load i64, i64* %481, align 8
  store i64 %482, i64* %RSI.i832, align 8
  %483 = add i64 %473, -152
  %484 = add i64 %475, 22
  store i64 %484, i64* %3, align 8
  %485 = inttoptr i64 %483 to i64*
  %486 = load i64, i64* %485, align 8
  store i64 %486, i64* %72, align 1
  store double 0.000000e+00, double* %240, align 1
  %487 = add i64 %475, 3074
  %488 = add i64 %475, 27
  %489 = load i64, i64* %6, align 8
  %490 = add i64 %489, -8
  %491 = inttoptr i64 %490 to i64*
  store i64 %488, i64* %491, align 8
  store i64 %490, i64* %6, align 8
  store i64 %487, i64* %3, align 8
  %call2_4014a4 = tail call %struct.Memory* @sub_402090._Z15test_accumulateI14PointerWrapperI12ValueWrapperIS1_IS1_IS1_IS1_IS1_IS1_IS1_IS1_IS1_IdEEEEEEEEEEESB_EvT_SD_T0_PKc(%struct.State* %0, i64 %487, %struct.Memory* %call2_401456)
  %492 = load i64, i64* %3, align 8
  %493 = getelementptr inbounds %struct.State, %struct.State* %0, i64 0, i32 6, i32 17, i32 0
  %R8D.i584 = bitcast %union.anon* %493 to i32*
  %494 = getelementptr inbounds %union.anon, %union.anon* %493, i64 0, i32 0
  %495 = load i32, i32* bitcast (%G_0x609088_type* @G_0x609088 to i32*), align 8
  %496 = zext i32 %495 to i64
  store i64 %496, i64* %494, align 8
  %497 = load i64, i64* %RBP.i, align 8
  %498 = add i64 %497, -572
  %499 = add i64 %492, 19
  store i64 %499, i64* %3, align 8
  %500 = inttoptr i64 %498 to i32*
  store i32 2000, i32* %500, align 4
  %501 = load i32, i32* %R8D.i584, align 4
  %502 = zext i32 %501 to i64
  %503 = load i64, i64* %3, align 8
  store i64 %502, i64* %RAX.i778, align 8
  %504 = sext i32 %501 to i64
  %505 = lshr i64 %504, 32
  store i64 %505, i64* %RDX.i751, align 8
  %506 = load i64, i64* %RBP.i, align 8
  %507 = add i64 %506, -572
  %508 = add i64 %503, 11
  store i64 %508, i64* %3, align 8
  %509 = inttoptr i64 %507 to i32*
  %510 = load i32, i32* %509, align 4
  %511 = zext i32 %510 to i64
  store i64 %511, i64* %494, align 8
  %512 = add i64 %503, 14
  store i64 %512, i64* %3, align 8
  %513 = sext i32 %510 to i64
  %514 = shl nuw i64 %505, 32
  %515 = or i64 %514, %502
  %516 = sdiv i64 %515, %513
  %517 = shl i64 %516, 32
  %518 = ashr exact i64 %517, 32
  %519 = icmp eq i64 %516, %518
  br i1 %519, label %522, label %520

; <label>:520:                                    ; preds = %block_.L_4012ac
  %EAX.i770 = bitcast %union.anon* %39 to i32*
  %521 = tail call %struct.Memory* @__remill_error(%struct.State* nonnull dereferenceable(3376) %0, i64 %512, %struct.Memory* %call2_4014a4)
  %.pre2 = load i32, i32* %EAX.i770, align 4
  %.pre3 = load i64, i64* %3, align 8
  br label %routine_idivl__r8d.exit

; <label>:522:                                    ; preds = %block_.L_4012ac
  %523 = srem i64 %515, %513
  %524 = getelementptr inbounds %struct.State, %struct.State* %0, i64 0, i32 6, i32 1, i32 0, i32 0
  %525 = and i64 %516, 4294967295
  store i64 %525, i64* %524, align 8
  %526 = and i64 %523, 4294967295
  store i64 %526, i64* %RDX.i751, align 8
  store i8 0, i8* %14, align 1
  store i8 0, i8* %21, align 1
  store i8 0, i8* %26, align 1
  store i8 0, i8* %29, align 1
  store i8 0, i8* %32, align 1
  store i8 0, i8* %38, align 1
  %527 = trunc i64 %516 to i32
  br label %routine_idivl__r8d.exit

routine_idivl__r8d.exit:                          ; preds = %522, %520
  %528 = phi i64 [ %.pre3, %520 ], [ %512, %522 ]
  %529 = phi i32 [ %.pre2, %520 ], [ %527, %522 ]
  %530 = phi %struct.Memory* [ %521, %520 ], [ %call2_4014a4, %522 ]
  store i32 %529, i32* bitcast (%G_0x609088_type* @G_0x609088 to i32*), align 8
  %531 = load i64, i64* bitcast (%G_0x6090a8_type* @G_0x6090a8 to i64*), align 8
  store i64 %531, i64* %RDI.i824, align 8
  %532 = load i64, i64* bitcast (%G_0x6090b0_type* @G_0x6090b0 to i64*), align 8
  store i64 %532, i64* %RSI.i832, align 8
  %533 = add i64 %528, 3158
  %534 = add i64 %528, 28
  %535 = load i64, i64* %6, align 8
  %536 = add i64 %535, -8
  %537 = inttoptr i64 %536 to i64*
  store i64 %534, i64* %537, align 8
  store i64 %536, i64* %6, align 8
  store i64 %533, i64* %3, align 8
  %call2_4014e1 = tail call %struct.Memory* @sub_402120._ZN9benchmark11fill_randomIPddEEvT_S2_(%struct.State* %0, i64 %533, %struct.Memory* %530)
  %538 = load i64, i64* %3, align 8
  %539 = load i64, i64* bitcast (%G_0x6090a8_type* @G_0x6090a8 to i64*), align 8
  store i64 %539, i64* %RDI.i824, align 8
  %540 = load i64, i64* bitcast (%G_0x6090b0_type* @G_0x6090b0 to i64*), align 8
  store i64 %540, i64* %RSI.i832, align 8
  %541 = load i64, i64* bitcast (%G_0x6090c8_type* @G_0x6090c8 to i64*), align 8
  store i64 %541, i64* %RCX.i793, align 8
  store i64 %541, i64* %RDX.i751, align 8
  %542 = add i64 %538, 3210
  %543 = add i64 %538, 32
  %544 = load i64, i64* %6, align 8
  %545 = add i64 %544, -8
  %546 = inttoptr i64 %545 to i64*
  store i64 %543, i64* %546, align 8
  store i64 %545, i64* %6, align 8
  store i64 %542, i64* %3, align 8
  %call2_401501 = tail call %struct.Memory* @sub_402170._ZN9benchmark4copyIPdP12ValueWrapperIdEEEvT_S5_T0_(%struct.State* %0, i64 %542, %struct.Memory* %call2_4014e1)
  %547 = load i64, i64* %3, align 8
  %548 = load i64, i64* bitcast (%G_0x6090a8_type* @G_0x6090a8 to i64*), align 8
  store i64 %548, i64* %RDI.i824, align 8
  %549 = load i64, i64* bitcast (%G_0x6090b0_type* @G_0x6090b0 to i64*), align 8
  store i64 %549, i64* %RSI.i832, align 8
  %550 = load i64, i64* bitcast (%G_0x6090e8_type* @G_0x6090e8 to i64*), align 8
  store i64 %550, i64* %RDX.i751, align 8
  %551 = add i64 %547, 3274
  %552 = add i64 %547, 29
  %553 = load i64, i64* %6, align 8
  %554 = add i64 %553, -8
  %555 = inttoptr i64 %554 to i64*
  store i64 %552, i64* %555, align 8
  store i64 %554, i64* %6, align 8
  store i64 %551, i64* %3, align 8
  %call2_40151e = tail call %struct.Memory* @sub_4021d0._ZN9benchmark4copyIPdP12ValueWrapperIS2_IS2_IS2_IS2_IS2_IS2_IS2_IS2_IS2_IdEEEEEEEEEEEEvT_SE_T0_(%struct.State* %0, i64 %551, %struct.Memory* %call2_401501)
  %556 = load i64, i64* %3, align 8
  store i64 ptrtoint (%G__0x406852_type* @G__0x406852 to i64), i64* %494, align 8
  %557 = load i64, i64* bitcast (%G_0x6090a8_type* @G_0x6090a8 to i64*), align 8
  store i64 %557, i64* %RDI.i824, align 8
  %558 = load i64, i64* bitcast (%G_0x6090b0_type* @G_0x6090b0 to i64*), align 8
  store i64 %558, i64* %RSI.i832, align 8
  %559 = load i64, i64* bitcast (%G_0x609098_type* @G_0x609098 to i64*), align 8
  store i64 %559, i64* %RDX.i751, align 8
  %560 = load i64, i64* bitcast (%G_0x6090a0_type* @G_0x6090a0 to i64*), align 8
  store i64 %560, i64* %RCX.i793, align 8
  %561 = load i64, i64* %RBP.i, align 8
  %562 = add i64 %561, -24
  %563 = add i64 %556, 47
  store i64 %563, i64* %3, align 8
  %564 = inttoptr i64 %562 to i64*
  %565 = load i64, i64* %564, align 8
  store i64 %565, i64* %72, align 1
  store double 0.000000e+00, double* %240, align 1
  %566 = add i64 %556, 3341
  %567 = add i64 %556, 52
  %568 = load i64, i64* %6, align 8
  %569 = add i64 %568, -8
  %570 = inttoptr i64 %569 to i64*
  store i64 %567, i64* %570, align 8
  store i64 %569, i64* %6, align 8
  store i64 %566, i64* %3, align 8
  %call2_401552 = tail call %struct.Memory* @sub_402230._Z19test_insertion_sortIPddEvT_S1_S1_S1_T0_PKc(%struct.State* %0, i64 %566, %struct.Memory* %call2_40151e)
  %571 = load i64, i64* %3, align 8
  store i64 ptrtoint (%G__0x406870_type* @G__0x406870 to i64), i64* %494, align 8
  %572 = load i64, i64* bitcast (%G_0x620840_type* @G_0x620840 to i64*), align 8
  %573 = load i64, i64* %RBP.i, align 8
  %574 = add i64 %573, -160
  %575 = add i64 %571, 25
  store i64 %575, i64* %3, align 8
  %576 = inttoptr i64 %574 to i64*
  store i64 %572, i64* %576, align 8
  %577 = load i64, i64* %3, align 8
  %578 = load i64, i64* bitcast (%G_0x620848_type* @G_0x620848 to i64*), align 8
  %579 = load i64, i64* %RBP.i, align 8
  %580 = add i64 %579, -168
  %581 = add i64 %577, 15
  store i64 %581, i64* %3, align 8
  %582 = inttoptr i64 %580 to i64*
  store i64 %578, i64* %582, align 8
  %583 = load i64, i64* %3, align 8
  %584 = load i64, i64* bitcast (%G_0x620830_type* @G_0x620830 to i64*), align 8
  %585 = load i64, i64* %RBP.i, align 8
  %586 = add i64 %585, -176
  %587 = add i64 %583, 15
  store i64 %587, i64* %3, align 8
  %588 = inttoptr i64 %586 to i64*
  store i64 %584, i64* %588, align 8
  %589 = load i64, i64* %3, align 8
  %590 = load i64, i64* bitcast (%G_0x620838_type* @G_0x620838 to i64*), align 8
  store i64 %590, i64* %RCX.i793, align 8
  %591 = load i64, i64* %RBP.i, align 8
  %592 = add i64 %591, -184
  %593 = add i64 %589, 15
  store i64 %593, i64* %3, align 8
  %594 = inttoptr i64 %592 to i64*
  store i64 %590, i64* %594, align 8
  %595 = load i64, i64* %RBP.i, align 8
  %596 = add i64 %595, -24
  %597 = load i64, i64* %3, align 8
  %598 = add i64 %597, 5
  store i64 %598, i64* %3, align 8
  %599 = inttoptr i64 %596 to i64*
  %600 = load i64, i64* %599, align 8
  store i64 %600, i64* %72, align 1
  store double 0.000000e+00, double* %240, align 1
  %601 = add i64 %595, -160
  %602 = add i64 %597, 12
  store i64 %602, i64* %3, align 8
  %603 = inttoptr i64 %601 to i64*
  %604 = load i64, i64* %603, align 8
  store i64 %604, i64* %RDI.i824, align 8
  %605 = add i64 %595, -168
  %606 = add i64 %597, 19
  store i64 %606, i64* %3, align 8
  %607 = inttoptr i64 %605 to i64*
  %608 = load i64, i64* %607, align 8
  store i64 %608, i64* %RSI.i832, align 8
  %609 = add i64 %595, -176
  %610 = add i64 %597, 26
  store i64 %610, i64* %3, align 8
  %611 = inttoptr i64 %609 to i64*
  %612 = load i64, i64* %611, align 8
  store i64 %612, i64* %RDX.i751, align 8
  %613 = add i64 %595, -184
  %614 = add i64 %597, 33
  store i64 %614, i64* %3, align 8
  %615 = inttoptr i64 %613 to i64*
  %616 = load i64, i64* %615, align 8
  store i64 %616, i64* %RCX.i793, align 8
  %617 = add i64 %597, 3347
  %618 = add i64 %597, 38
  %619 = load i64, i64* %6, align 8
  %620 = add i64 %619, -8
  %621 = inttoptr i64 %620 to i64*
  store i64 %618, i64* %621, align 8
  store i64 %620, i64* %6, align 8
  store i64 %617, i64* %3, align 8
  %call2_4015be = tail call %struct.Memory* @sub_4022b0._Z19test_insertion_sortI14PointerWrapperIdEdEvT_S2_S2_S2_T0_PKc(%struct.State* %0, i64 %617, %struct.Memory* %call2_401552)
  %622 = load i64, i64* %3, align 8
  store i64 ptrtoint (%G__0x406894_type* @G__0x406894 to i64), i64* %494, align 8
  %623 = load i64, i64* bitcast (%G_0x6090c8_type* @G_0x6090c8 to i64*), align 8
  store i64 %623, i64* %RDI.i824, align 8
  %624 = load i64, i64* bitcast (%G_0x6090d0_type* @G_0x6090d0 to i64*), align 8
  store i64 %624, i64* %RSI.i832, align 8
  %625 = load i64, i64* bitcast (%G_0x6090b8_type* @G_0x6090b8 to i64*), align 8
  store i64 %625, i64* %RDX.i751, align 8
  %626 = load i64, i64* bitcast (%G_0x6090c0_type* @G_0x6090c0 to i64*), align 8
  store i64 %626, i64* %RCX.i793, align 8
  %R9.i482 = getelementptr inbounds %struct.State, %struct.State* %0, i64 0, i32 6, i32 19, i32 0, i32 0
  %627 = load i64, i64* %RBP.i, align 8
  %628 = add i64 %627, -32
  %629 = add i64 %622, 46
  store i64 %629, i64* %3, align 8
  %630 = inttoptr i64 %628 to i64*
  %631 = load i64, i64* %630, align 8
  store i64 %631, i64* %R9.i482, align 8
  %632 = add i64 %627, -192
  %633 = add i64 %622, 53
  store i64 %633, i64* %3, align 8
  %634 = inttoptr i64 %632 to i64*
  store i64 %631, i64* %634, align 8
  %635 = load i64, i64* %RBP.i, align 8
  %636 = add i64 %635, -192
  %637 = load i64, i64* %3, align 8
  %638 = add i64 %637, 8
  store i64 %638, i64* %3, align 8
  %639 = inttoptr i64 %636 to i64*
  %640 = load i64, i64* %639, align 8
  store i64 %640, i64* %72, align 1
  store double 0.000000e+00, double* %240, align 1
  %641 = add i64 %637, 3432
  %642 = add i64 %637, 13
  %643 = load i64, i64* %6, align 8
  %644 = add i64 %643, -8
  %645 = inttoptr i64 %644 to i64*
  store i64 %642, i64* %645, align 8
  store i64 %644, i64* %6, align 8
  store i64 %641, i64* %3, align 8
  %call2_401600 = tail call %struct.Memory* @sub_402360._Z19test_insertion_sortIP12ValueWrapperIdES1_EvT_S3_S3_S3_T0_PKc(%struct.State* %0, i64 %641, %struct.Memory* %call2_4015be)
  %646 = load i64, i64* %3, align 8
  store i64 ptrtoint (%G__0x4068be_type* @G__0x4068be to i64), i64* %494, align 8
  %647 = load i64, i64* bitcast (%G_0x620860_type* @G_0x620860 to i64*), align 8
  %648 = load i64, i64* %RBP.i, align 8
  %649 = add i64 %648, -200
  %650 = add i64 %646, 25
  store i64 %650, i64* %3, align 8
  %651 = inttoptr i64 %649 to i64*
  store i64 %647, i64* %651, align 8
  %652 = load i64, i64* %3, align 8
  %653 = load i64, i64* bitcast (%G_0x620868_type* @G_0x620868 to i64*), align 8
  %654 = load i64, i64* %RBP.i, align 8
  %655 = add i64 %654, -208
  %656 = add i64 %652, 15
  store i64 %656, i64* %3, align 8
  %657 = inttoptr i64 %655 to i64*
  store i64 %653, i64* %657, align 8
  %658 = load i64, i64* %3, align 8
  %659 = load i64, i64* bitcast (%G_0x620850_type* @G_0x620850 to i64*), align 8
  %660 = load i64, i64* %RBP.i, align 8
  %661 = add i64 %660, -216
  %662 = add i64 %658, 15
  store i64 %662, i64* %3, align 8
  %663 = inttoptr i64 %661 to i64*
  store i64 %659, i64* %663, align 8
  %664 = load i64, i64* %3, align 8
  %665 = load i64, i64* bitcast (%G_0x620858_type* @G_0x620858 to i64*), align 8
  store i64 %665, i64* %RCX.i793, align 8
  %666 = load i64, i64* %RBP.i, align 8
  %667 = add i64 %666, -224
  %668 = add i64 %664, 15
  store i64 %668, i64* %3, align 8
  %669 = inttoptr i64 %667 to i64*
  store i64 %665, i64* %669, align 8
  %670 = load i64, i64* %RBP.i, align 8
  %671 = add i64 %670, -32
  %672 = load i64, i64* %3, align 8
  %673 = add i64 %672, 4
  store i64 %673, i64* %3, align 8
  %674 = inttoptr i64 %671 to i64*
  %675 = load i64, i64* %674, align 8
  store i64 %675, i64* %RCX.i793, align 8
  %676 = add i64 %670, -232
  %677 = add i64 %672, 11
  store i64 %677, i64* %3, align 8
  %678 = inttoptr i64 %676 to i64*
  store i64 %675, i64* %678, align 8
  %679 = load i64, i64* %RBP.i, align 8
  %680 = add i64 %679, -200
  %681 = load i64, i64* %3, align 8
  %682 = add i64 %681, 7
  store i64 %682, i64* %3, align 8
  %683 = inttoptr i64 %680 to i64*
  %684 = load i64, i64* %683, align 8
  store i64 %684, i64* %RDI.i824, align 8
  %685 = add i64 %679, -208
  %686 = add i64 %681, 14
  store i64 %686, i64* %3, align 8
  %687 = inttoptr i64 %685 to i64*
  %688 = load i64, i64* %687, align 8
  store i64 %688, i64* %RSI.i832, align 8
  %689 = add i64 %679, -216
  %690 = add i64 %681, 21
  store i64 %690, i64* %3, align 8
  %691 = inttoptr i64 %689 to i64*
  %692 = load i64, i64* %691, align 8
  store i64 %692, i64* %RDX.i751, align 8
  %693 = add i64 %679, -224
  %694 = add i64 %681, 28
  store i64 %694, i64* %3, align 8
  %695 = inttoptr i64 %693 to i64*
  %696 = load i64, i64* %695, align 8
  store i64 %696, i64* %RCX.i793, align 8
  %697 = add i64 %679, -232
  %698 = add i64 %681, 36
  store i64 %698, i64* %3, align 8
  %699 = inttoptr i64 %697 to i64*
  %700 = load i64, i64* %699, align 8
  store i64 %700, i64* %72, align 1
  store double 0.000000e+00, double* %240, align 1
  %701 = add i64 %681, 3466
  %702 = add i64 %681, 41
  %703 = load i64, i64* %6, align 8
  %704 = add i64 %703, -8
  %705 = inttoptr i64 %704 to i64*
  store i64 %702, i64* %705, align 8
  store i64 %704, i64* %6, align 8
  store i64 %701, i64* %3, align 8
  %call2_40167a = tail call %struct.Memory* @sub_4023e0._Z19test_insertion_sortI14PointerWrapperI12ValueWrapperIdEES2_EvT_S4_S4_S4_T0_PKc(%struct.State* %0, i64 %701, %struct.Memory* %call2_401600)
  %706 = load i64, i64* %3, align 8
  store i64 ptrtoint (%G__0x4068ee_type* @G__0x4068ee to i64), i64* %494, align 8
  %707 = load i64, i64* bitcast (%G_0x6090e8_type* @G_0x6090e8 to i64*), align 8
  store i64 %707, i64* %RDI.i824, align 8
  %708 = load i64, i64* bitcast (%G_0x6090f0_type* @G_0x6090f0 to i64*), align 8
  store i64 %708, i64* %RSI.i832, align 8
  %709 = load i64, i64* bitcast (%G_0x6090d8_type* @G_0x6090d8 to i64*), align 8
  store i64 %709, i64* %RDX.i751, align 8
  %710 = load i64, i64* bitcast (%G_0x6090e0_type* @G_0x6090e0 to i64*), align 8
  store i64 %710, i64* %RCX.i793, align 8
  %711 = load i64, i64* %RBP.i, align 8
  %712 = add i64 %711, -48
  %713 = add i64 %706, 46
  store i64 %713, i64* %3, align 8
  %714 = inttoptr i64 %712 to i64*
  %715 = load i64, i64* %714, align 8
  store i64 %715, i64* %R9.i482, align 8
  %716 = add i64 %711, -240
  %717 = add i64 %706, 53
  store i64 %717, i64* %3, align 8
  %718 = inttoptr i64 %716 to i64*
  store i64 %715, i64* %718, align 8
  %719 = load i64, i64* %RBP.i, align 8
  %720 = add i64 %719, -240
  %721 = load i64, i64* %3, align 8
  %722 = add i64 %721, 8
  store i64 %722, i64* %3, align 8
  %723 = inttoptr i64 %720 to i64*
  %724 = load i64, i64* %723, align 8
  store i64 %724, i64* %72, align 1
  store double 0.000000e+00, double* %240, align 1
  %725 = add i64 %721, 3548
  %726 = add i64 %721, 13
  %727 = load i64, i64* %6, align 8
  %728 = add i64 %727, -8
  %729 = inttoptr i64 %728 to i64*
  store i64 %726, i64* %729, align 8
  store i64 %728, i64* %6, align 8
  store i64 %725, i64* %3, align 8
  %call2_4016bc = tail call %struct.Memory* @sub_402490._Z19test_insertion_sortIP12ValueWrapperIS0_IS0_IS0_IS0_IS0_IS0_IS0_IS0_IS0_IdEEEEEEEEEESA_EvT_SC_SC_SC_T0_PKc(%struct.State* %0, i64 %725, %struct.Memory* %call2_40167a)
  %730 = load i64, i64* %3, align 8
  store i64 ptrtoint (%G__0x40691a_type* @G__0x40691a to i64), i64* %494, align 8
  %731 = load i64, i64* bitcast (%G_0x620880_type* @G_0x620880 to i64*), align 8
  %732 = load i64, i64* %RBP.i, align 8
  %733 = add i64 %732, -248
  %734 = add i64 %730, 25
  store i64 %734, i64* %3, align 8
  %735 = inttoptr i64 %733 to i64*
  store i64 %731, i64* %735, align 8
  %736 = load i64, i64* %3, align 8
  %737 = load i64, i64* bitcast (%G_0x620888_type* @G_0x620888 to i64*), align 8
  %738 = load i64, i64* %RBP.i, align 8
  %739 = add i64 %738, -256
  %740 = add i64 %736, 15
  store i64 %740, i64* %3, align 8
  %741 = inttoptr i64 %739 to i64*
  store i64 %737, i64* %741, align 8
  %742 = load i64, i64* %3, align 8
  %743 = load i64, i64* bitcast (%G_0x620870_type* @G_0x620870 to i64*), align 8
  %744 = load i64, i64* %RBP.i, align 8
  %745 = add i64 %744, -264
  %746 = add i64 %742, 15
  store i64 %746, i64* %3, align 8
  %747 = inttoptr i64 %745 to i64*
  store i64 %743, i64* %747, align 8
  %748 = load i64, i64* %3, align 8
  %749 = load i64, i64* bitcast (%G_0x620878_type* @G_0x620878 to i64*), align 8
  store i64 %749, i64* %RCX.i793, align 8
  %750 = load i64, i64* %RBP.i, align 8
  %751 = add i64 %750, -272
  %752 = add i64 %748, 15
  store i64 %752, i64* %3, align 8
  %753 = inttoptr i64 %751 to i64*
  store i64 %749, i64* %753, align 8
  %754 = load i64, i64* %RBP.i, align 8
  %755 = add i64 %754, -48
  %756 = load i64, i64* %3, align 8
  %757 = add i64 %756, 4
  store i64 %757, i64* %3, align 8
  %758 = inttoptr i64 %755 to i64*
  %759 = load i64, i64* %758, align 8
  store i64 %759, i64* %RCX.i793, align 8
  %760 = add i64 %754, -280
  %761 = add i64 %756, 11
  store i64 %761, i64* %3, align 8
  %762 = inttoptr i64 %760 to i64*
  store i64 %759, i64* %762, align 8
  %763 = load i64, i64* %RBP.i, align 8
  %764 = add i64 %763, -248
  %765 = load i64, i64* %3, align 8
  %766 = add i64 %765, 7
  store i64 %766, i64* %3, align 8
  %767 = inttoptr i64 %764 to i64*
  %768 = load i64, i64* %767, align 8
  store i64 %768, i64* %RDI.i824, align 8
  %769 = add i64 %763, -256
  %770 = add i64 %765, 14
  store i64 %770, i64* %3, align 8
  %771 = inttoptr i64 %769 to i64*
  %772 = load i64, i64* %771, align 8
  store i64 %772, i64* %RSI.i832, align 8
  %773 = add i64 %763, -264
  %774 = add i64 %765, 21
  store i64 %774, i64* %3, align 8
  %775 = inttoptr i64 %773 to i64*
  %776 = load i64, i64* %775, align 8
  store i64 %776, i64* %RDX.i751, align 8
  %777 = add i64 %763, -272
  %778 = add i64 %765, 28
  store i64 %778, i64* %3, align 8
  %779 = inttoptr i64 %777 to i64*
  %780 = load i64, i64* %779, align 8
  store i64 %780, i64* %RCX.i793, align 8
  %781 = add i64 %763, -280
  %782 = add i64 %765, 36
  store i64 %782, i64* %3, align 8
  %783 = inttoptr i64 %781 to i64*
  %784 = load i64, i64* %783, align 8
  store i64 %784, i64* %72, align 1
  store double 0.000000e+00, double* %240, align 1
  %785 = add i64 %765, 3582
  %786 = add i64 %765, 41
  %787 = load i64, i64* %6, align 8
  %788 = add i64 %787, -8
  %789 = inttoptr i64 %788 to i64*
  store i64 %786, i64* %789, align 8
  store i64 %788, i64* %6, align 8
  store i64 %785, i64* %3, align 8
  %call2_401736 = tail call %struct.Memory* @sub_402510._Z19test_insertion_sortI14PointerWrapperI12ValueWrapperIS1_IS1_IS1_IS1_IS1_IS1_IS1_IS1_IS1_IdEEEEEEEEEEESB_EvT_SD_SD_SD_T0_PKc(%struct.State* %0, i64 %785, %struct.Memory* %call2_4016bc)
  %790 = load i64, i64* %3, align 8
  store i64 ptrtoint (%G__0x40694c_type* @G__0x40694c to i64), i64* %494, align 8
  %791 = load i32, i32* bitcast (%G_0x609088_type* @G_0x609088 to i32*), align 8
  %792 = shl i32 %791, 3
  %793 = zext i32 %792 to i64
  store i64 %793, i64* %RAX.i778, align 8
  %794 = lshr i32 %791, 29
  %795 = trunc i32 %794 to i8
  %796 = and i8 %795, 1
  store i8 %796, i8* %14, align 1
  %797 = and i32 %792, 248
  %798 = tail call i32 @llvm.ctpop.i32(i32 %797)
  %799 = trunc i32 %798 to i8
  %800 = and i8 %799, 1
  %801 = xor i8 %800, 1
  store i8 %801, i8* %21, align 1
  store i8 0, i8* %26, align 1
  %802 = icmp eq i32 %792, 0
  %803 = zext i1 %802 to i8
  store i8 %803, i8* %29, align 1
  %804 = lshr i32 %791, 28
  %805 = trunc i32 %804 to i8
  %806 = and i8 %805, 1
  store i8 %806, i8* %32, align 1
  store i8 0, i8* %38, align 1
  store i32 %792, i32* bitcast (%G_0x609088_type* @G_0x609088 to i32*), align 8
  %807 = load i64, i64* bitcast (%G_0x6090a8_type* @G_0x6090a8 to i64*), align 8
  store i64 %807, i64* %RDI.i824, align 8
  %808 = load i64, i64* bitcast (%G_0x6090b0_type* @G_0x6090b0 to i64*), align 8
  store i64 %808, i64* %RSI.i832, align 8
  %809 = load i64, i64* bitcast (%G_0x609098_type* @G_0x609098 to i64*), align 8
  store i64 %809, i64* %RDX.i751, align 8
  %810 = load i64, i64* bitcast (%G_0x6090a0_type* @G_0x6090a0 to i64*), align 8
  store i64 %810, i64* %RCX.i793, align 8
  %811 = load i64, i64* %RBP.i, align 8
  %812 = add i64 %811, -24
  %813 = add i64 %790, 64
  store i64 %813, i64* %3, align 8
  %814 = inttoptr i64 %812 to i64*
  %815 = load i64, i64* %814, align 8
  store i64 %815, i64* %72, align 1
  store double 0.000000e+00, double* %240, align 1
  %816 = add i64 %790, 3717
  %817 = add i64 %790, 69
  %818 = load i64, i64* %6, align 8
  %819 = add i64 %818, -8
  %820 = inttoptr i64 %819 to i64*
  store i64 %817, i64* %820, align 8
  store i64 %819, i64* %6, align 8
  store i64 %816, i64* %3, align 8
  %call2_40177b = tail call %struct.Memory* @sub_4025c0._Z14test_quicksortIPddEvT_S1_S1_S1_T0_PKc(%struct.State* %0, i64 %816, %struct.Memory* %call2_401736)
  %821 = load i64, i64* %3, align 8
  store i64 ptrtoint (%G__0x406965_type* @G__0x406965 to i64), i64* %494, align 8
  %822 = load i64, i64* bitcast (%G_0x620840_type* @G_0x620840 to i64*), align 8
  %823 = load i64, i64* %RBP.i, align 8
  %824 = add i64 %823, -288
  %825 = add i64 %821, 25
  store i64 %825, i64* %3, align 8
  %826 = inttoptr i64 %824 to i64*
  store i64 %822, i64* %826, align 8
  %827 = load i64, i64* %3, align 8
  %828 = load i64, i64* bitcast (%G_0x620848_type* @G_0x620848 to i64*), align 8
  %829 = load i64, i64* %RBP.i, align 8
  %830 = add i64 %829, -296
  %831 = add i64 %827, 15
  store i64 %831, i64* %3, align 8
  %832 = inttoptr i64 %830 to i64*
  store i64 %828, i64* %832, align 8
  %833 = load i64, i64* %3, align 8
  %834 = load i64, i64* bitcast (%G_0x620830_type* @G_0x620830 to i64*), align 8
  %835 = load i64, i64* %RBP.i, align 8
  %836 = add i64 %835, -304
  %837 = add i64 %833, 15
  store i64 %837, i64* %3, align 8
  %838 = inttoptr i64 %836 to i64*
  store i64 %834, i64* %838, align 8
  %839 = load i64, i64* %3, align 8
  %840 = load i64, i64* bitcast (%G_0x620838_type* @G_0x620838 to i64*), align 8
  store i64 %840, i64* %RCX.i793, align 8
  %841 = load i64, i64* %RBP.i, align 8
  %842 = add i64 %841, -312
  %843 = add i64 %839, 15
  store i64 %843, i64* %3, align 8
  %844 = inttoptr i64 %842 to i64*
  store i64 %840, i64* %844, align 8
  %845 = load i64, i64* %RBP.i, align 8
  %846 = add i64 %845, -24
  %847 = load i64, i64* %3, align 8
  %848 = add i64 %847, 5
  store i64 %848, i64* %3, align 8
  %849 = inttoptr i64 %846 to i64*
  %850 = load i64, i64* %849, align 8
  store i64 %850, i64* %72, align 1
  store double 0.000000e+00, double* %240, align 1
  %851 = add i64 %845, -288
  %852 = add i64 %847, 12
  store i64 %852, i64* %3, align 8
  %853 = inttoptr i64 %851 to i64*
  %854 = load i64, i64* %853, align 8
  store i64 %854, i64* %RDI.i824, align 8
  %855 = add i64 %845, -296
  %856 = add i64 %847, 19
  store i64 %856, i64* %3, align 8
  %857 = inttoptr i64 %855 to i64*
  %858 = load i64, i64* %857, align 8
  store i64 %858, i64* %RSI.i832, align 8
  %859 = add i64 %845, -304
  %860 = add i64 %847, 26
  store i64 %860, i64* %3, align 8
  %861 = inttoptr i64 %859 to i64*
  %862 = load i64, i64* %861, align 8
  store i64 %862, i64* %RDX.i751, align 8
  %863 = add i64 %845, -312
  %864 = add i64 %847, 33
  store i64 %864, i64* %3, align 8
  %865 = inttoptr i64 %863 to i64*
  %866 = load i64, i64* %865, align 8
  store i64 %866, i64* %RCX.i793, align 8
  %867 = add i64 %847, 3706
  %868 = add i64 %847, 38
  %869 = load i64, i64* %6, align 8
  %870 = add i64 %869, -8
  %871 = inttoptr i64 %870 to i64*
  store i64 %868, i64* %871, align 8
  store i64 %870, i64* %6, align 8
  store i64 %867, i64* %3, align 8
  %call2_4017e7 = tail call %struct.Memory* @sub_402640._Z14test_quicksortI14PointerWrapperIdEdEvT_S2_S2_S2_T0_PKc(%struct.State* %0, i64 %867, %struct.Memory* %call2_40177b)
  %872 = load i64, i64* %3, align 8
  store i64 ptrtoint (%G__0x406984_type* @G__0x406984 to i64), i64* %494, align 8
  %873 = load i64, i64* bitcast (%G_0x6090c8_type* @G_0x6090c8 to i64*), align 8
  store i64 %873, i64* %RDI.i824, align 8
  %874 = load i64, i64* bitcast (%G_0x6090d0_type* @G_0x6090d0 to i64*), align 8
  store i64 %874, i64* %RSI.i832, align 8
  %875 = load i64, i64* bitcast (%G_0x6090b8_type* @G_0x6090b8 to i64*), align 8
  store i64 %875, i64* %RDX.i751, align 8
  %876 = load i64, i64* bitcast (%G_0x6090c0_type* @G_0x6090c0 to i64*), align 8
  store i64 %876, i64* %RCX.i793, align 8
  %877 = load i64, i64* %RBP.i, align 8
  %878 = add i64 %877, -32
  %879 = add i64 %872, 46
  store i64 %879, i64* %3, align 8
  %880 = inttoptr i64 %878 to i64*
  %881 = load i64, i64* %880, align 8
  store i64 %881, i64* %R9.i482, align 8
  %882 = add i64 %877, -320
  %883 = add i64 %872, 53
  store i64 %883, i64* %3, align 8
  %884 = inttoptr i64 %882 to i64*
  store i64 %881, i64* %884, align 8
  %885 = load i64, i64* %RBP.i, align 8
  %886 = add i64 %885, -320
  %887 = load i64, i64* %3, align 8
  %888 = add i64 %887, 8
  store i64 %888, i64* %3, align 8
  %889 = inttoptr i64 %886 to i64*
  %890 = load i64, i64* %889, align 8
  store i64 %890, i64* %72, align 1
  store double 0.000000e+00, double* %240, align 1
  %891 = add i64 %887, 3791
  %892 = add i64 %887, 13
  %893 = load i64, i64* %6, align 8
  %894 = add i64 %893, -8
  %895 = inttoptr i64 %894 to i64*
  store i64 %892, i64* %895, align 8
  store i64 %894, i64* %6, align 8
  store i64 %891, i64* %3, align 8
  %call2_401829 = tail call %struct.Memory* @sub_4026f0._Z14test_quicksortIP12ValueWrapperIdES1_EvT_S3_S3_S3_T0_PKc(%struct.State* %0, i64 %891, %struct.Memory* %call2_4017e7)
  %896 = load i64, i64* %3, align 8
  store i64 ptrtoint (%G__0x4069a9_type* @G__0x4069a9 to i64), i64* %494, align 8
  %897 = load i64, i64* bitcast (%G_0x620860_type* @G_0x620860 to i64*), align 8
  %898 = load i64, i64* %RBP.i, align 8
  %899 = add i64 %898, -328
  %900 = add i64 %896, 25
  store i64 %900, i64* %3, align 8
  %901 = inttoptr i64 %899 to i64*
  store i64 %897, i64* %901, align 8
  %902 = load i64, i64* %3, align 8
  %903 = load i64, i64* bitcast (%G_0x620868_type* @G_0x620868 to i64*), align 8
  %904 = load i64, i64* %RBP.i, align 8
  %905 = add i64 %904, -336
  %906 = add i64 %902, 15
  store i64 %906, i64* %3, align 8
  %907 = inttoptr i64 %905 to i64*
  store i64 %903, i64* %907, align 8
  %908 = load i64, i64* %3, align 8
  %909 = load i64, i64* bitcast (%G_0x620850_type* @G_0x620850 to i64*), align 8
  %910 = load i64, i64* %RBP.i, align 8
  %911 = add i64 %910, -344
  %912 = add i64 %908, 15
  store i64 %912, i64* %3, align 8
  %913 = inttoptr i64 %911 to i64*
  store i64 %909, i64* %913, align 8
  %914 = load i64, i64* %3, align 8
  %915 = load i64, i64* bitcast (%G_0x620858_type* @G_0x620858 to i64*), align 8
  store i64 %915, i64* %RCX.i793, align 8
  %916 = load i64, i64* %RBP.i, align 8
  %917 = add i64 %916, -352
  %918 = add i64 %914, 15
  store i64 %918, i64* %3, align 8
  %919 = inttoptr i64 %917 to i64*
  store i64 %915, i64* %919, align 8
  %920 = load i64, i64* %RBP.i, align 8
  %921 = add i64 %920, -32
  %922 = load i64, i64* %3, align 8
  %923 = add i64 %922, 4
  store i64 %923, i64* %3, align 8
  %924 = inttoptr i64 %921 to i64*
  %925 = load i64, i64* %924, align 8
  store i64 %925, i64* %RCX.i793, align 8
  %926 = add i64 %920, -360
  %927 = add i64 %922, 11
  store i64 %927, i64* %3, align 8
  %928 = inttoptr i64 %926 to i64*
  store i64 %925, i64* %928, align 8
  %929 = load i64, i64* %RBP.i, align 8
  %930 = add i64 %929, -328
  %931 = load i64, i64* %3, align 8
  %932 = add i64 %931, 7
  store i64 %932, i64* %3, align 8
  %933 = inttoptr i64 %930 to i64*
  %934 = load i64, i64* %933, align 8
  store i64 %934, i64* %RDI.i824, align 8
  %935 = add i64 %929, -336
  %936 = add i64 %931, 14
  store i64 %936, i64* %3, align 8
  %937 = inttoptr i64 %935 to i64*
  %938 = load i64, i64* %937, align 8
  store i64 %938, i64* %RSI.i832, align 8
  %939 = add i64 %929, -344
  %940 = add i64 %931, 21
  store i64 %940, i64* %3, align 8
  %941 = inttoptr i64 %939 to i64*
  %942 = load i64, i64* %941, align 8
  store i64 %942, i64* %RDX.i751, align 8
  %943 = add i64 %929, -352
  %944 = add i64 %931, 28
  store i64 %944, i64* %3, align 8
  %945 = inttoptr i64 %943 to i64*
  %946 = load i64, i64* %945, align 8
  store i64 %946, i64* %RCX.i793, align 8
  %947 = add i64 %929, -360
  %948 = add i64 %931, 36
  store i64 %948, i64* %3, align 8
  %949 = inttoptr i64 %947 to i64*
  %950 = load i64, i64* %949, align 8
  store i64 %950, i64* %72, align 1
  store double 0.000000e+00, double* %240, align 1
  %951 = add i64 %931, 3825
  %952 = add i64 %931, 41
  %953 = load i64, i64* %6, align 8
  %954 = add i64 %953, -8
  %955 = inttoptr i64 %954 to i64*
  store i64 %952, i64* %955, align 8
  store i64 %954, i64* %6, align 8
  store i64 %951, i64* %3, align 8
  %call2_4018a3 = tail call %struct.Memory* @sub_402770._Z14test_quicksortI14PointerWrapperI12ValueWrapperIdEES2_EvT_S4_S4_S4_T0_PKc(%struct.State* %0, i64 %951, %struct.Memory* %call2_401829)
  %956 = load i64, i64* %3, align 8
  store i64 ptrtoint (%G__0x4069d4_type* @G__0x4069d4 to i64), i64* %494, align 8
  %957 = load i64, i64* bitcast (%G_0x6090e8_type* @G_0x6090e8 to i64*), align 8
  store i64 %957, i64* %RDI.i824, align 8
  %958 = load i64, i64* bitcast (%G_0x6090f0_type* @G_0x6090f0 to i64*), align 8
  store i64 %958, i64* %RSI.i832, align 8
  %959 = load i64, i64* bitcast (%G_0x6090d8_type* @G_0x6090d8 to i64*), align 8
  store i64 %959, i64* %RDX.i751, align 8
  %960 = load i64, i64* bitcast (%G_0x6090e0_type* @G_0x6090e0 to i64*), align 8
  store i64 %960, i64* %RCX.i793, align 8
  %961 = load i64, i64* %RBP.i, align 8
  %962 = add i64 %961, -48
  %963 = add i64 %956, 46
  store i64 %963, i64* %3, align 8
  %964 = inttoptr i64 %962 to i64*
  %965 = load i64, i64* %964, align 8
  store i64 %965, i64* %R9.i482, align 8
  %966 = add i64 %961, -368
  %967 = add i64 %956, 53
  store i64 %967, i64* %3, align 8
  %968 = inttoptr i64 %966 to i64*
  store i64 %965, i64* %968, align 8
  %969 = load i64, i64* %RBP.i, align 8
  %970 = add i64 %969, -368
  %971 = load i64, i64* %3, align 8
  %972 = add i64 %971, 8
  store i64 %972, i64* %3, align 8
  %973 = inttoptr i64 %970 to i64*
  %974 = load i64, i64* %973, align 8
  store i64 %974, i64* %72, align 1
  store double 0.000000e+00, double* %240, align 1
  %975 = add i64 %971, 3907
  %976 = add i64 %971, 13
  %977 = load i64, i64* %6, align 8
  %978 = add i64 %977, -8
  %979 = inttoptr i64 %978 to i64*
  store i64 %976, i64* %979, align 8
  store i64 %978, i64* %6, align 8
  store i64 %975, i64* %3, align 8
  %call2_4018e5 = tail call %struct.Memory* @sub_402820._Z14test_quicksortIP12ValueWrapperIS0_IS0_IS0_IS0_IS0_IS0_IS0_IS0_IS0_IdEEEEEEEEEESA_EvT_SC_SC_SC_T0_PKc(%struct.State* %0, i64 %975, %struct.Memory* %call2_4018a3)
  %980 = load i64, i64* %3, align 8
  store i64 ptrtoint (%G__0x4069fb_type* @G__0x4069fb to i64), i64* %494, align 8
  %981 = load i64, i64* bitcast (%G_0x620880_type* @G_0x620880 to i64*), align 8
  %982 = load i64, i64* %RBP.i, align 8
  %983 = add i64 %982, -376
  %984 = add i64 %980, 25
  store i64 %984, i64* %3, align 8
  %985 = inttoptr i64 %983 to i64*
  store i64 %981, i64* %985, align 8
  %986 = load i64, i64* %3, align 8
  %987 = load i64, i64* bitcast (%G_0x620888_type* @G_0x620888 to i64*), align 8
  %988 = load i64, i64* %RBP.i, align 8
  %989 = add i64 %988, -384
  %990 = add i64 %986, 15
  store i64 %990, i64* %3, align 8
  %991 = inttoptr i64 %989 to i64*
  store i64 %987, i64* %991, align 8
  %992 = load i64, i64* %3, align 8
  %993 = load i64, i64* bitcast (%G_0x620870_type* @G_0x620870 to i64*), align 8
  %994 = load i64, i64* %RBP.i, align 8
  %995 = add i64 %994, -392
  %996 = add i64 %992, 15
  store i64 %996, i64* %3, align 8
  %997 = inttoptr i64 %995 to i64*
  store i64 %993, i64* %997, align 8
  %998 = load i64, i64* %3, align 8
  %999 = load i64, i64* bitcast (%G_0x620878_type* @G_0x620878 to i64*), align 8
  store i64 %999, i64* %RCX.i793, align 8
  %1000 = load i64, i64* %RBP.i, align 8
  %1001 = add i64 %1000, -400
  %1002 = add i64 %998, 15
  store i64 %1002, i64* %3, align 8
  %1003 = inttoptr i64 %1001 to i64*
  store i64 %999, i64* %1003, align 8
  %1004 = load i64, i64* %RBP.i, align 8
  %1005 = add i64 %1004, -48
  %1006 = load i64, i64* %3, align 8
  %1007 = add i64 %1006, 4
  store i64 %1007, i64* %3, align 8
  %1008 = inttoptr i64 %1005 to i64*
  %1009 = load i64, i64* %1008, align 8
  store i64 %1009, i64* %RCX.i793, align 8
  %1010 = add i64 %1004, -408
  %1011 = add i64 %1006, 11
  store i64 %1011, i64* %3, align 8
  %1012 = inttoptr i64 %1010 to i64*
  store i64 %1009, i64* %1012, align 8
  %1013 = load i64, i64* %RBP.i, align 8
  %1014 = add i64 %1013, -376
  %1015 = load i64, i64* %3, align 8
  %1016 = add i64 %1015, 7
  store i64 %1016, i64* %3, align 8
  %1017 = inttoptr i64 %1014 to i64*
  %1018 = load i64, i64* %1017, align 8
  store i64 %1018, i64* %RDI.i824, align 8
  %1019 = add i64 %1013, -384
  %1020 = add i64 %1015, 14
  store i64 %1020, i64* %3, align 8
  %1021 = inttoptr i64 %1019 to i64*
  %1022 = load i64, i64* %1021, align 8
  store i64 %1022, i64* %RSI.i832, align 8
  %1023 = add i64 %1013, -392
  %1024 = add i64 %1015, 21
  store i64 %1024, i64* %3, align 8
  %1025 = inttoptr i64 %1023 to i64*
  %1026 = load i64, i64* %1025, align 8
  store i64 %1026, i64* %RDX.i751, align 8
  %1027 = add i64 %1013, -400
  %1028 = add i64 %1015, 28
  store i64 %1028, i64* %3, align 8
  %1029 = inttoptr i64 %1027 to i64*
  %1030 = load i64, i64* %1029, align 8
  store i64 %1030, i64* %RCX.i793, align 8
  %1031 = add i64 %1013, -408
  %1032 = add i64 %1015, 36
  store i64 %1032, i64* %3, align 8
  %1033 = inttoptr i64 %1031 to i64*
  %1034 = load i64, i64* %1033, align 8
  store i64 %1034, i64* %72, align 1
  store double 0.000000e+00, double* %240, align 1
  %1035 = add i64 %1015, 3941
  %1036 = add i64 %1015, 41
  %1037 = load i64, i64* %6, align 8
  %1038 = add i64 %1037, -8
  %1039 = inttoptr i64 %1038 to i64*
  store i64 %1036, i64* %1039, align 8
  store i64 %1038, i64* %6, align 8
  store i64 %1035, i64* %3, align 8
  %call2_40195f = tail call %struct.Memory* @sub_4028a0._Z14test_quicksortI14PointerWrapperI12ValueWrapperIS1_IS1_IS1_IS1_IS1_IS1_IS1_IS1_IS1_IdEEEEEEEEEEESB_EvT_SD_SD_SD_T0_PKc(%struct.State* %0, i64 %1035, %struct.Memory* %call2_4018e5)
  %1040 = load i64, i64* %3, align 8
  store i64 ptrtoint (%G__0x406a28_type* @G__0x406a28 to i64), i64* %494, align 8
  %1041 = load i64, i64* bitcast (%G_0x6090a8_type* @G_0x6090a8 to i64*), align 8
  store i64 %1041, i64* %RDI.i824, align 8
  %1042 = load i64, i64* bitcast (%G_0x6090b0_type* @G_0x6090b0 to i64*), align 8
  store i64 %1042, i64* %RSI.i832, align 8
  %1043 = load i64, i64* bitcast (%G_0x609098_type* @G_0x609098 to i64*), align 8
  store i64 %1043, i64* %RDX.i751, align 8
  %1044 = load i64, i64* bitcast (%G_0x6090a0_type* @G_0x6090a0 to i64*), align 8
  store i64 %1044, i64* %RCX.i793, align 8
  %1045 = load i64, i64* %RBP.i, align 8
  %1046 = add i64 %1045, -24
  %1047 = add i64 %1040, 47
  store i64 %1047, i64* %3, align 8
  %1048 = inttoptr i64 %1046 to i64*
  %1049 = load i64, i64* %1048, align 8
  store i64 %1049, i64* %72, align 1
  store double 0.000000e+00, double* %240, align 1
  %1050 = add i64 %1040, 4076
  %1051 = add i64 %1040, 52
  %1052 = load i64, i64* %6, align 8
  %1053 = add i64 %1052, -8
  %1054 = inttoptr i64 %1053 to i64*
  store i64 %1051, i64* %1054, align 8
  store i64 %1053, i64* %6, align 8
  store i64 %1050, i64* %3, align 8
  %call2_401993 = tail call %struct.Memory* @sub_402950._Z14test_heap_sortIPddEvT_S1_S1_S1_T0_PKc(%struct.State* %0, i64 %1050, %struct.Memory* %call2_40195f)
  %1055 = load i64, i64* %3, align 8
  store i64 ptrtoint (%G__0x406a41_type* @G__0x406a41 to i64), i64* %494, align 8
  %1056 = load i64, i64* bitcast (%G_0x620840_type* @G_0x620840 to i64*), align 8
  %1057 = load i64, i64* %RBP.i, align 8
  %1058 = add i64 %1057, -416
  %1059 = add i64 %1055, 25
  store i64 %1059, i64* %3, align 8
  %1060 = inttoptr i64 %1058 to i64*
  store i64 %1056, i64* %1060, align 8
  %1061 = load i64, i64* %3, align 8
  %1062 = load i64, i64* bitcast (%G_0x620848_type* @G_0x620848 to i64*), align 8
  %1063 = load i64, i64* %RBP.i, align 8
  %1064 = add i64 %1063, -424
  %1065 = add i64 %1061, 15
  store i64 %1065, i64* %3, align 8
  %1066 = inttoptr i64 %1064 to i64*
  store i64 %1062, i64* %1066, align 8
  %1067 = load i64, i64* %3, align 8
  %1068 = load i64, i64* bitcast (%G_0x620830_type* @G_0x620830 to i64*), align 8
  %1069 = load i64, i64* %RBP.i, align 8
  %1070 = add i64 %1069, -432
  %1071 = add i64 %1067, 15
  store i64 %1071, i64* %3, align 8
  %1072 = inttoptr i64 %1070 to i64*
  store i64 %1068, i64* %1072, align 8
  %1073 = load i64, i64* %3, align 8
  %1074 = load i64, i64* bitcast (%G_0x620838_type* @G_0x620838 to i64*), align 8
  store i64 %1074, i64* %RCX.i793, align 8
  %1075 = load i64, i64* %RBP.i, align 8
  %1076 = add i64 %1075, -440
  %1077 = add i64 %1073, 15
  store i64 %1077, i64* %3, align 8
  %1078 = inttoptr i64 %1076 to i64*
  store i64 %1074, i64* %1078, align 8
  %1079 = load i64, i64* %RBP.i, align 8
  %1080 = add i64 %1079, -24
  %1081 = load i64, i64* %3, align 8
  %1082 = add i64 %1081, 5
  store i64 %1082, i64* %3, align 8
  %1083 = inttoptr i64 %1080 to i64*
  %1084 = load i64, i64* %1083, align 8
  store i64 %1084, i64* %72, align 1
  store double 0.000000e+00, double* %240, align 1
  %1085 = add i64 %1079, -416
  %1086 = add i64 %1081, 12
  store i64 %1086, i64* %3, align 8
  %1087 = inttoptr i64 %1085 to i64*
  %1088 = load i64, i64* %1087, align 8
  store i64 %1088, i64* %RDI.i824, align 8
  %1089 = add i64 %1079, -424
  %1090 = add i64 %1081, 19
  store i64 %1090, i64* %3, align 8
  %1091 = inttoptr i64 %1089 to i64*
  %1092 = load i64, i64* %1091, align 8
  store i64 %1092, i64* %RSI.i832, align 8
  %1093 = add i64 %1079, -432
  %1094 = add i64 %1081, 26
  store i64 %1094, i64* %3, align 8
  %1095 = inttoptr i64 %1093 to i64*
  %1096 = load i64, i64* %1095, align 8
  store i64 %1096, i64* %RDX.i751, align 8
  %1097 = add i64 %1079, -440
  %1098 = add i64 %1081, 33
  store i64 %1098, i64* %3, align 8
  %1099 = inttoptr i64 %1097 to i64*
  %1100 = load i64, i64* %1099, align 8
  store i64 %1100, i64* %RCX.i793, align 8
  %1101 = add i64 %1081, 4082
  %1102 = add i64 %1081, 38
  %1103 = load i64, i64* %6, align 8
  %1104 = add i64 %1103, -8
  %1105 = inttoptr i64 %1104 to i64*
  store i64 %1102, i64* %1105, align 8
  store i64 %1104, i64* %6, align 8
  store i64 %1101, i64* %3, align 8
  %call2_4019ff = tail call %struct.Memory* @sub_4029d0._Z14test_heap_sortI14PointerWrapperIdEdEvT_S2_S2_S2_T0_PKc(%struct.State* %0, i64 %1101, %struct.Memory* %call2_401993)
  %1106 = load i64, i64* %3, align 8
  store i64 ptrtoint (%G__0x406a60_type* @G__0x406a60 to i64), i64* %494, align 8
  %1107 = load i64, i64* bitcast (%G_0x6090c8_type* @G_0x6090c8 to i64*), align 8
  store i64 %1107, i64* %RDI.i824, align 8
  %1108 = load i64, i64* bitcast (%G_0x6090d0_type* @G_0x6090d0 to i64*), align 8
  store i64 %1108, i64* %RSI.i832, align 8
  %1109 = load i64, i64* bitcast (%G_0x6090b8_type* @G_0x6090b8 to i64*), align 8
  store i64 %1109, i64* %RDX.i751, align 8
  %1110 = load i64, i64* bitcast (%G_0x6090c0_type* @G_0x6090c0 to i64*), align 8
  store i64 %1110, i64* %RCX.i793, align 8
  %1111 = load i64, i64* %RBP.i, align 8
  %1112 = add i64 %1111, -32
  %1113 = add i64 %1106, 46
  store i64 %1113, i64* %3, align 8
  %1114 = inttoptr i64 %1112 to i64*
  %1115 = load i64, i64* %1114, align 8
  store i64 %1115, i64* %R9.i482, align 8
  %1116 = add i64 %1111, -448
  %1117 = add i64 %1106, 53
  store i64 %1117, i64* %3, align 8
  %1118 = inttoptr i64 %1116 to i64*
  store i64 %1115, i64* %1118, align 8
  %1119 = load i64, i64* %RBP.i, align 8
  %1120 = add i64 %1119, -448
  %1121 = load i64, i64* %3, align 8
  %1122 = add i64 %1121, 8
  store i64 %1122, i64* %3, align 8
  %1123 = inttoptr i64 %1120 to i64*
  %1124 = load i64, i64* %1123, align 8
  store i64 %1124, i64* %72, align 1
  store double 0.000000e+00, double* %240, align 1
  %1125 = add i64 %1121, 4167
  %1126 = add i64 %1121, 13
  %1127 = load i64, i64* %6, align 8
  %1128 = add i64 %1127, -8
  %1129 = inttoptr i64 %1128 to i64*
  store i64 %1126, i64* %1129, align 8
  store i64 %1128, i64* %6, align 8
  store i64 %1125, i64* %3, align 8
  %call2_401a41 = tail call %struct.Memory* @sub_402a80._Z14test_heap_sortIP12ValueWrapperIdES1_EvT_S3_S3_S3_T0_PKc(%struct.State* %0, i64 %1125, %struct.Memory* %call2_4019ff)
  %1130 = load i64, i64* %3, align 8
  store i64 ptrtoint (%G__0x406a85_type* @G__0x406a85 to i64), i64* %494, align 8
  %1131 = load i64, i64* bitcast (%G_0x620860_type* @G_0x620860 to i64*), align 8
  %1132 = load i64, i64* %RBP.i, align 8
  %1133 = add i64 %1132, -456
  %1134 = add i64 %1130, 25
  store i64 %1134, i64* %3, align 8
  %1135 = inttoptr i64 %1133 to i64*
  store i64 %1131, i64* %1135, align 8
  %1136 = load i64, i64* %3, align 8
  %1137 = load i64, i64* bitcast (%G_0x620868_type* @G_0x620868 to i64*), align 8
  %1138 = load i64, i64* %RBP.i, align 8
  %1139 = add i64 %1138, -464
  %1140 = add i64 %1136, 15
  store i64 %1140, i64* %3, align 8
  %1141 = inttoptr i64 %1139 to i64*
  store i64 %1137, i64* %1141, align 8
  %1142 = load i64, i64* %3, align 8
  %1143 = load i64, i64* bitcast (%G_0x620850_type* @G_0x620850 to i64*), align 8
  %1144 = load i64, i64* %RBP.i, align 8
  %1145 = add i64 %1144, -472
  %1146 = add i64 %1142, 15
  store i64 %1146, i64* %3, align 8
  %1147 = inttoptr i64 %1145 to i64*
  store i64 %1143, i64* %1147, align 8
  %1148 = load i64, i64* %3, align 8
  %1149 = load i64, i64* bitcast (%G_0x620858_type* @G_0x620858 to i64*), align 8
  store i64 %1149, i64* %RCX.i793, align 8
  %1150 = load i64, i64* %RBP.i, align 8
  %1151 = add i64 %1150, -480
  %1152 = add i64 %1148, 15
  store i64 %1152, i64* %3, align 8
  %1153 = inttoptr i64 %1151 to i64*
  store i64 %1149, i64* %1153, align 8
  %1154 = load i64, i64* %RBP.i, align 8
  %1155 = add i64 %1154, -32
  %1156 = load i64, i64* %3, align 8
  %1157 = add i64 %1156, 4
  store i64 %1157, i64* %3, align 8
  %1158 = inttoptr i64 %1155 to i64*
  %1159 = load i64, i64* %1158, align 8
  store i64 %1159, i64* %RCX.i793, align 8
  %1160 = add i64 %1154, -488
  %1161 = add i64 %1156, 11
  store i64 %1161, i64* %3, align 8
  %1162 = inttoptr i64 %1160 to i64*
  store i64 %1159, i64* %1162, align 8
  %1163 = load i64, i64* %RBP.i, align 8
  %1164 = add i64 %1163, -456
  %1165 = load i64, i64* %3, align 8
  %1166 = add i64 %1165, 7
  store i64 %1166, i64* %3, align 8
  %1167 = inttoptr i64 %1164 to i64*
  %1168 = load i64, i64* %1167, align 8
  store i64 %1168, i64* %RDI.i824, align 8
  %1169 = add i64 %1163, -464
  %1170 = add i64 %1165, 14
  store i64 %1170, i64* %3, align 8
  %1171 = inttoptr i64 %1169 to i64*
  %1172 = load i64, i64* %1171, align 8
  store i64 %1172, i64* %RSI.i832, align 8
  %1173 = add i64 %1163, -472
  %1174 = add i64 %1165, 21
  store i64 %1174, i64* %3, align 8
  %1175 = inttoptr i64 %1173 to i64*
  %1176 = load i64, i64* %1175, align 8
  store i64 %1176, i64* %RDX.i751, align 8
  %1177 = add i64 %1163, -480
  %1178 = add i64 %1165, 28
  store i64 %1178, i64* %3, align 8
  %1179 = inttoptr i64 %1177 to i64*
  %1180 = load i64, i64* %1179, align 8
  store i64 %1180, i64* %RCX.i793, align 8
  %1181 = add i64 %1163, -488
  %1182 = add i64 %1165, 36
  store i64 %1182, i64* %3, align 8
  %1183 = inttoptr i64 %1181 to i64*
  %1184 = load i64, i64* %1183, align 8
  store i64 %1184, i64* %72, align 1
  store double 0.000000e+00, double* %240, align 1
  %1185 = add i64 %1165, 4201
  %1186 = add i64 %1165, 41
  %1187 = load i64, i64* %6, align 8
  %1188 = add i64 %1187, -8
  %1189 = inttoptr i64 %1188 to i64*
  store i64 %1186, i64* %1189, align 8
  store i64 %1188, i64* %6, align 8
  store i64 %1185, i64* %3, align 8
  %call2_401abb = tail call %struct.Memory* @sub_402b00._Z14test_heap_sortI14PointerWrapperI12ValueWrapperIdEES2_EvT_S4_S4_S4_T0_PKc(%struct.State* %0, i64 %1185, %struct.Memory* %call2_401a41)
  %1190 = load i64, i64* %3, align 8
  store i64 ptrtoint (%G__0x406ab0_type* @G__0x406ab0 to i64), i64* %494, align 8
  %1191 = load i64, i64* bitcast (%G_0x6090e8_type* @G_0x6090e8 to i64*), align 8
  store i64 %1191, i64* %RDI.i824, align 8
  %1192 = load i64, i64* bitcast (%G_0x6090f0_type* @G_0x6090f0 to i64*), align 8
  store i64 %1192, i64* %RSI.i832, align 8
  %1193 = load i64, i64* bitcast (%G_0x6090d8_type* @G_0x6090d8 to i64*), align 8
  store i64 %1193, i64* %RDX.i751, align 8
  %1194 = load i64, i64* bitcast (%G_0x6090e0_type* @G_0x6090e0 to i64*), align 8
  store i64 %1194, i64* %RCX.i793, align 8
  %1195 = load i64, i64* %RBP.i, align 8
  %1196 = add i64 %1195, -48
  %1197 = add i64 %1190, 46
  store i64 %1197, i64* %3, align 8
  %1198 = inttoptr i64 %1196 to i64*
  %1199 = load i64, i64* %1198, align 8
  store i64 %1199, i64* %R9.i482, align 8
  %1200 = add i64 %1195, -496
  %1201 = add i64 %1190, 53
  store i64 %1201, i64* %3, align 8
  %1202 = inttoptr i64 %1200 to i64*
  store i64 %1199, i64* %1202, align 8
  %1203 = load i64, i64* %RBP.i, align 8
  %1204 = add i64 %1203, -496
  %1205 = load i64, i64* %3, align 8
  %1206 = add i64 %1205, 8
  store i64 %1206, i64* %3, align 8
  %1207 = inttoptr i64 %1204 to i64*
  %1208 = load i64, i64* %1207, align 8
  store i64 %1208, i64* %72, align 1
  store double 0.000000e+00, double* %240, align 1
  %1209 = add i64 %1205, 4283
  %1210 = add i64 %1205, 13
  %1211 = load i64, i64* %6, align 8
  %1212 = add i64 %1211, -8
  %1213 = inttoptr i64 %1212 to i64*
  store i64 %1210, i64* %1213, align 8
  store i64 %1212, i64* %6, align 8
  store i64 %1209, i64* %3, align 8
  %call2_401afd = tail call %struct.Memory* @sub_402bb0._Z14test_heap_sortIP12ValueWrapperIS0_IS0_IS0_IS0_IS0_IS0_IS0_IS0_IS0_IdEEEEEEEEEESA_EvT_SC_SC_SC_T0_PKc(%struct.State* %0, i64 %1209, %struct.Memory* %call2_401abb)
  %1214 = load i64, i64* %3, align 8
  store i64 ptrtoint (%G__0x406ad7_type* @G__0x406ad7 to i64), i64* %494, align 8
  %1215 = load i64, i64* bitcast (%G_0x620880_type* @G_0x620880 to i64*), align 8
  %1216 = load i64, i64* %RBP.i, align 8
  %1217 = add i64 %1216, -504
  %1218 = add i64 %1214, 25
  store i64 %1218, i64* %3, align 8
  %1219 = inttoptr i64 %1217 to i64*
  store i64 %1215, i64* %1219, align 8
  %1220 = load i64, i64* %3, align 8
  %1221 = load i64, i64* bitcast (%G_0x620888_type* @G_0x620888 to i64*), align 8
  %1222 = load i64, i64* %RBP.i, align 8
  %1223 = add i64 %1222, -512
  %1224 = add i64 %1220, 15
  store i64 %1224, i64* %3, align 8
  %1225 = inttoptr i64 %1223 to i64*
  store i64 %1221, i64* %1225, align 8
  %1226 = load i64, i64* %3, align 8
  %1227 = load i64, i64* bitcast (%G_0x620870_type* @G_0x620870 to i64*), align 8
  %1228 = load i64, i64* %RBP.i, align 8
  %1229 = add i64 %1228, -520
  %1230 = add i64 %1226, 15
  store i64 %1230, i64* %3, align 8
  %1231 = inttoptr i64 %1229 to i64*
  store i64 %1227, i64* %1231, align 8
  %1232 = load i64, i64* %3, align 8
  %1233 = load i64, i64* bitcast (%G_0x620878_type* @G_0x620878 to i64*), align 8
  store i64 %1233, i64* %RCX.i793, align 8
  %1234 = load i64, i64* %RBP.i, align 8
  %1235 = add i64 %1234, -528
  %1236 = add i64 %1232, 15
  store i64 %1236, i64* %3, align 8
  %1237 = inttoptr i64 %1235 to i64*
  store i64 %1233, i64* %1237, align 8
  %1238 = load i64, i64* %RBP.i, align 8
  %1239 = add i64 %1238, -48
  %1240 = load i64, i64* %3, align 8
  %1241 = add i64 %1240, 4
  store i64 %1241, i64* %3, align 8
  %1242 = inttoptr i64 %1239 to i64*
  %1243 = load i64, i64* %1242, align 8
  store i64 %1243, i64* %RCX.i793, align 8
  %1244 = add i64 %1238, -536
  %1245 = add i64 %1240, 11
  store i64 %1245, i64* %3, align 8
  %1246 = inttoptr i64 %1244 to i64*
  store i64 %1243, i64* %1246, align 8
  %1247 = load i64, i64* %RBP.i, align 8
  %1248 = add i64 %1247, -504
  %1249 = load i64, i64* %3, align 8
  %1250 = add i64 %1249, 7
  store i64 %1250, i64* %3, align 8
  %1251 = inttoptr i64 %1248 to i64*
  %1252 = load i64, i64* %1251, align 8
  store i64 %1252, i64* %RDI.i824, align 8
  %1253 = add i64 %1247, -512
  %1254 = add i64 %1249, 14
  store i64 %1254, i64* %3, align 8
  %1255 = inttoptr i64 %1253 to i64*
  %1256 = load i64, i64* %1255, align 8
  store i64 %1256, i64* %RSI.i832, align 8
  %1257 = add i64 %1247, -520
  %1258 = add i64 %1249, 21
  store i64 %1258, i64* %3, align 8
  %1259 = inttoptr i64 %1257 to i64*
  %1260 = load i64, i64* %1259, align 8
  store i64 %1260, i64* %RDX.i751, align 8
  %1261 = add i64 %1247, -528
  %1262 = add i64 %1249, 28
  store i64 %1262, i64* %3, align 8
  %1263 = inttoptr i64 %1261 to i64*
  %1264 = load i64, i64* %1263, align 8
  store i64 %1264, i64* %RCX.i793, align 8
  %1265 = add i64 %1247, -536
  %1266 = add i64 %1249, 36
  store i64 %1266, i64* %3, align 8
  %1267 = inttoptr i64 %1265 to i64*
  %1268 = load i64, i64* %1267, align 8
  store i64 %1268, i64* %72, align 1
  store double 0.000000e+00, double* %240, align 1
  %1269 = add i64 %1249, 4317
  %1270 = add i64 %1249, 41
  %1271 = load i64, i64* %6, align 8
  %1272 = add i64 %1271, -8
  %1273 = inttoptr i64 %1272 to i64*
  store i64 %1270, i64* %1273, align 8
  store i64 %1272, i64* %6, align 8
  store i64 %1269, i64* %3, align 8
  %call2_401b77 = tail call %struct.Memory* @sub_402c30._Z14test_heap_sortI14PointerWrapperI12ValueWrapperIS1_IS1_IS1_IS1_IS1_IS1_IS1_IS1_IS1_IdEEEEEEEEEEESB_EvT_SD_SD_SD_T0_PKc(%struct.State* %0, i64 %1269, %struct.Memory* %call2_401afd)
  %1274 = load i64, i64* %3, align 8
  store i64 0, i64* %RAX.i778, align 8
  %1275 = load i64, i64* %6, align 8
  %1276 = add i64 %1275, 576
  store i64 %1276, i64* %6, align 8
  %1277 = icmp ugt i64 %1275, -577
  %1278 = zext i1 %1277 to i8
  store i8 %1278, i8* %14, align 1
  %1279 = trunc i64 %1276 to i32
  %1280 = and i32 %1279, 255
  %1281 = tail call i32 @llvm.ctpop.i32(i32 %1280)
  %1282 = trunc i32 %1281 to i8
  %1283 = and i8 %1282, 1
  %1284 = xor i8 %1283, 1
  store i8 %1284, i8* %21, align 1
  %1285 = xor i64 %1275, %1276
  %1286 = lshr i64 %1285, 4
  %1287 = trunc i64 %1286 to i8
  %1288 = and i8 %1287, 1
  store i8 %1288, i8* %26, align 1
  %1289 = icmp eq i64 %1276, 0
  %1290 = zext i1 %1289 to i8
  store i8 %1290, i8* %29, align 1
  %1291 = lshr i64 %1276, 63
  %1292 = trunc i64 %1291 to i8
  store i8 %1292, i8* %32, align 1
  %1293 = lshr i64 %1275, 63
  %1294 = xor i64 %1291, %1293
  %1295 = add nuw nsw i64 %1294, %1291
  %1296 = icmp eq i64 %1295, 2
  %1297 = zext i1 %1296 to i8
  store i8 %1297, i8* %38, align 1
  %1298 = add i64 %1274, 10
  store i64 %1298, i64* %3, align 8
  %1299 = add i64 %1275, 584
  %1300 = inttoptr i64 %1276 to i64*
  %1301 = load i64, i64* %1300, align 8
  store i64 %1301, i64* %RBP.i, align 8
  store i64 %1299, i64* %6, align 8
  %1302 = add i64 %1274, 11
  store i64 %1302, i64* %3, align 8
  %1303 = inttoptr i64 %1299 to i64*
  %1304 = load i64, i64* %1303, align 8
  store i64 %1304, i64* %3, align 8
  %1305 = add i64 %1275, 592
  store i64 %1305, i64* %6, align 8
  ret %struct.Memory* %call2_401b77
}

define %struct.Memory* @routine_pushq__rbp(%struct.State* dereferenceable(3376), i64, %struct.Memory*) local_unnamed_addr {
block_400478:
  %PC = getelementptr inbounds %struct.State, %struct.State* %0, i64 0, i32 6, i32 33, i32 0, i32 0
  %RBP = getelementptr inbounds %struct.State, %struct.State* %0, i64 0, i32 6, i32 15, i32 0, i32 0
  %3 = load i64, i64* %RBP, align 8
  %4 = load i64, i64* %PC, align 8
  %5 = add i64 %4, 1
  store i64 %5, i64* %PC, align 8
  %6 = getelementptr inbounds %struct.State, %struct.State* %0, i64 0, i32 6, i32 13, i32 0, i32 0
  %7 = load i64, i64* %6, align 8
  %8 = add i64 %7, -8
  %9 = inttoptr i64 %8 to i64*
  store i64 %3, i64* %9, align 8
  store i64 %8, i64* %6, align 8
  ret %struct.Memory* %2
}

define %struct.Memory* @routine_movq__rsp___rbp(%struct.State* dereferenceable(3376), i64, %struct.Memory*) local_unnamed_addr {
block_400478:
  %PC = getelementptr inbounds %struct.State, %struct.State* %0, i64 0, i32 6, i32 33, i32 0, i32 0
  %RSP = getelementptr inbounds %struct.State, %struct.State* %0, i64 0, i32 6, i32 13, i32 0, i32 0
  %RBP = getelementptr inbounds %struct.State, %struct.State* %0, i64 0, i32 6, i32 15, i32 0, i32 0
  %3 = load i64, i64* %RSP, align 8
  %4 = load i64, i64* %PC, align 8
  %5 = add i64 %4, 3
  store i64 %5, i64* %PC, align 8
  store i64 %3, i64* %RBP, align 8
  ret %struct.Memory* %2
}

define %struct.Memory* @routine_subq__0x240___rsp(%struct.State* dereferenceable(3376), i64, %struct.Memory*) local_unnamed_addr {
block_400478:
  %PC = getelementptr inbounds %struct.State, %struct.State* %0, i64 0, i32 6, i32 33, i32 0, i32 0
  %RSP = getelementptr inbounds %struct.State, %struct.State* %0, i64 0, i32 6, i32 13, i32 0, i32 0
  %3 = load i64, i64* %RSP, align 8
  %4 = load i64, i64* %PC, align 8
  %5 = add i64 %4, 7
  store i64 %5, i64* %PC, align 8
  %6 = add i64 %3, -576
  store i64 %6, i64* %RSP, align 8
  %7 = icmp ult i64 %3, 576
  %8 = zext i1 %7 to i8
  %9 = getelementptr inbounds %struct.State, %struct.State* %0, i64 0, i32 2, i32 1
  store i8 %8, i8* %9, align 1
  %10 = trunc i64 %6 to i32
  %11 = and i32 %10, 255
  %12 = tail call i32 @llvm.ctpop.i32(i32 %11)
  %13 = trunc i32 %12 to i8
  %14 = and i8 %13, 1
  %15 = xor i8 %14, 1
  %16 = getelementptr inbounds %struct.State, %struct.State* %0, i64 0, i32 2, i32 3
  store i8 %15, i8* %16, align 1
  %17 = xor i64 %3, %6
  %18 = lshr i64 %17, 4
  %19 = trunc i64 %18 to i8
  %20 = and i8 %19, 1
  %21 = getelementptr inbounds %struct.State, %struct.State* %0, i64 0, i32 2, i32 5
  store i8 %20, i8* %21, align 1
  %22 = icmp eq i64 %6, 0
  %23 = zext i1 %22 to i8
  %24 = getelementptr inbounds %struct.State, %struct.State* %0, i64 0, i32 2, i32 7
  store i8 %23, i8* %24, align 1
  %25 = lshr i64 %6, 63
  %26 = trunc i64 %25 to i8
  %27 = getelementptr inbounds %struct.State, %struct.State* %0, i64 0, i32 2, i32 9
  store i8 %26, i8* %27, align 1
  %28 = lshr i64 %3, 63
  %29 = xor i64 %25, %28
  %30 = add nuw nsw i64 %29, %28
  %31 = icmp eq i64 %30, 2
  %32 = zext i1 %31 to i8
  %33 = getelementptr inbounds %struct.State, %struct.State* %0, i64 0, i32 2, i32 13
  store i8 %32, i8* %33, align 1
  ret %struct.Memory* %2
}

define %struct.Memory* @routine_leaq_MINUS0x20__rbp____rax(%struct.State* dereferenceable(3376), i64, %struct.Memory*) local_unnamed_addr {
block_400478:
  %PC = getelementptr inbounds %struct.State, %struct.State* %0, i64 0, i32 6, i32 33, i32 0, i32 0
  %RAX = getelementptr inbounds %struct.State, %struct.State* %0, i64 0, i32 6, i32 1, i32 0, i32 0
  %RBP = getelementptr inbounds %struct.State, %struct.State* %0, i64 0, i32 6, i32 15, i32 0, i32 0
  %3 = load i64, i64* %RBP, align 8
  %4 = add i64 %3, -32
  %5 = load i64, i64* %PC, align 8
  %6 = add i64 %5, 4
  store i64 %6, i64* %PC, align 8
  store i64 %4, i64* %RAX, align 8
  ret %struct.Memory* %2
}

define %struct.Memory* @routine_leaq_MINUS0x28__rbp____rcx(%struct.State* dereferenceable(3376), i64, %struct.Memory*) local_unnamed_addr {
block_400478:
  %PC = getelementptr inbounds %struct.State, %struct.State* %0, i64 0, i32 6, i32 33, i32 0, i32 0
  %RCX = getelementptr inbounds %struct.State, %struct.State* %0, i64 0, i32 6, i32 5, i32 0, i32 0
  %RBP = getelementptr inbounds %struct.State, %struct.State* %0, i64 0, i32 6, i32 15, i32 0, i32 0
  %3 = load i64, i64* %RBP, align 8
  %4 = add i64 %3, -40
  %5 = load i64, i64* %PC, align 8
  %6 = add i64 %5, 4
  store i64 %6, i64* %PC, align 8
  store i64 %4, i64* %RCX, align 8
  ret %struct.Memory* %2
}

define %struct.Memory* @routine_xorps__xmm0___xmm0(%struct.State* dereferenceable(3376), i64, %struct.Memory*) local_unnamed_addr {
block_400478:
  %PC = getelementptr inbounds %struct.State, %struct.State* %0, i64 0, i32 6, i32 33, i32 0, i32 0
  %3 = getelementptr inbounds %struct.State, %struct.State* %0, i64 0, i32 1, i64 0
  %4 = bitcast %union.VectorReg* %3 to i8*
  %5 = load i64, i64* %PC, align 8
  %6 = add i64 %5, 3
  store i64 %6, i64* %PC, align 8
  %7 = getelementptr inbounds %struct.State, %struct.State* %0, i64 0, i32 1, i64 0, i32 0, i32 0, i32 0, i64 1
  %8 = bitcast %union.VectorReg* %3 to i32*
  store i32 0, i32* %8, align 1
  %9 = getelementptr inbounds i8, i8* %4, i64 4
  %10 = bitcast i8* %9 to i32*
  store i32 0, i32* %10, align 1
  %11 = bitcast i64* %7 to i32*
  store i32 0, i32* %11, align 1
  %12 = getelementptr inbounds i8, i8* %4, i64 12
  %13 = bitcast i8* %12 to i32*
  store i32 0, i32* %13, align 1
  ret %struct.Memory* %2
}

define %struct.Memory* @routine_movl__0x0__MINUS0x4__rbp_(%struct.State* dereferenceable(3376), i64, %struct.Memory*) local_unnamed_addr {
block_400478:
  %PC = getelementptr inbounds %struct.State, %struct.State* %0, i64 0, i32 6, i32 33, i32 0, i32 0
  %RBP = getelementptr inbounds %struct.State, %struct.State* %0, i64 0, i32 6, i32 15, i32 0, i32 0
  %3 = load i64, i64* %RBP, align 8
  %4 = add i64 %3, -4
  %5 = load i64, i64* %PC, align 8
  %6 = add i64 %5, 7
  store i64 %6, i64* %PC, align 8
  %7 = inttoptr i64 %4 to i32*
  store i32 0, i32* %7, align 4
  ret %struct.Memory* %2
}

define %struct.Memory* @routine_movl__edi__MINUS0x8__rbp_(%struct.State* dereferenceable(3376), i64, %struct.Memory*) local_unnamed_addr {
block_400478:
  %PC = getelementptr inbounds %struct.State, %struct.State* %0, i64 0, i32 6, i32 33, i32 0, i32 0
  %3 = getelementptr inbounds %struct.State, %struct.State* %0, i64 0, i32 6, i32 11, i32 0
  %EDI = bitcast %union.anon* %3 to i32*
  %RBP = getelementptr inbounds %struct.State, %struct.State* %0, i64 0, i32 6, i32 15, i32 0, i32 0
  %4 = load i64, i64* %RBP, align 8
  %5 = add i64 %4, -8
  %6 = load i32, i32* %EDI, align 4
  %7 = load i64, i64* %PC, align 8
  %8 = add i64 %7, 3
  store i64 %8, i64* %PC, align 8
  %9 = inttoptr i64 %5 to i32*
  store i32 %6, i32* %9, align 4
  ret %struct.Memory* %2
}

define %struct.Memory* @routine_movq__rsi__MINUS0x10__rbp_(%struct.State* dereferenceable(3376), i64, %struct.Memory*) local_unnamed_addr {
block_400478:
  %PC = getelementptr inbounds %struct.State, %struct.State* %0, i64 0, i32 6, i32 33, i32 0, i32 0
  %RSI = getelementptr inbounds %struct.State, %struct.State* %0, i64 0, i32 6, i32 9, i32 0, i32 0
  %RBP = getelementptr inbounds %struct.State, %struct.State* %0, i64 0, i32 6, i32 15, i32 0, i32 0
  %3 = load i64, i64* %RBP, align 8
  %4 = add i64 %3, -16
  %5 = load i64, i64* %RSI, align 8
  %6 = load i64, i64* %PC, align 8
  %7 = add i64 %6, 4
  store i64 %7, i64* %PC, align 8
  %8 = inttoptr i64 %4 to i64*
  store i64 %5, i64* %8, align 8
  ret %struct.Memory* %2
}

define %struct.Memory* @routine_movsd__xmm0__MINUS0x18__rbp_(%struct.State* dereferenceable(3376), i64, %struct.Memory*) local_unnamed_addr {
block_400478:
  %PC = getelementptr inbounds %struct.State, %struct.State* %0, i64 0, i32 6, i32 33, i32 0, i32 0
  %RBP = getelementptr inbounds %struct.State, %struct.State* %0, i64 0, i32 6, i32 15, i32 0, i32 0
  %3 = load i64, i64* %RBP, align 8
  %4 = add i64 %3, -24
  %5 = load i64, i64* %PC, align 8
  %6 = add i64 %5, 5
  store i64 %6, i64* %PC, align 8
  %7 = getelementptr inbounds %struct.State, %struct.State* %0, i64 0, i32 1, i64 0, i32 0, i32 0, i32 0, i64 0
  %8 = load i64, i64* %7, align 1
  %9 = inttoptr i64 %4 to i64*
  store i64 %8, i64* %9, align 8
  ret %struct.Memory* %2
}

define %struct.Memory* @routine_movsd__xmm0__MINUS0x28__rbp_(%struct.State* dereferenceable(3376), i64, %struct.Memory*) local_unnamed_addr {
block_400478:
  %PC = getelementptr inbounds %struct.State, %struct.State* %0, i64 0, i32 6, i32 33, i32 0, i32 0
  %RBP = getelementptr inbounds %struct.State, %struct.State* %0, i64 0, i32 6, i32 15, i32 0, i32 0
  %3 = load i64, i64* %RBP, align 8
  %4 = add i64 %3, -40
  %5 = load i64, i64* %PC, align 8
  %6 = add i64 %5, 5
  store i64 %6, i64* %PC, align 8
  %7 = getelementptr inbounds %struct.State, %struct.State* %0, i64 0, i32 1, i64 0, i32 0, i32 0, i32 0, i64 0
  %8 = load i64, i64* %7, align 1
  %9 = inttoptr i64 %4 to i64*
  store i64 %8, i64* %9, align 8
  ret %struct.Memory* %2
}

define %struct.Memory* @routine_movq__rax___rdi(%struct.State* dereferenceable(3376), i64, %struct.Memory*) local_unnamed_addr {
block_400478:
  %PC = getelementptr inbounds %struct.State, %struct.State* %0, i64 0, i32 6, i32 33, i32 0, i32 0
  %RAX = getelementptr inbounds %struct.State, %struct.State* %0, i64 0, i32 6, i32 1, i32 0, i32 0
  %RDI = getelementptr inbounds %struct.State, %struct.State* %0, i64 0, i32 6, i32 11, i32 0, i32 0
  %3 = load i64, i64* %RAX, align 8
  %4 = load i64, i64* %PC, align 8
  %5 = add i64 %4, 3
  store i64 %5, i64* %PC, align 8
  store i64 %3, i64* %RDI, align 8
  ret %struct.Memory* %2
}

define %struct.Memory* @routine_movq__rcx___rsi(%struct.State* dereferenceable(3376), i64, %struct.Memory*) local_unnamed_addr {
block_400478:
  %PC = getelementptr inbounds %struct.State, %struct.State* %0, i64 0, i32 6, i32 33, i32 0, i32 0
  %RCX = getelementptr inbounds %struct.State, %struct.State* %0, i64 0, i32 6, i32 5, i32 0, i32 0
  %RSI = getelementptr inbounds %struct.State, %struct.State* %0, i64 0, i32 6, i32 9, i32 0, i32 0
  %3 = load i64, i64* %RCX, align 8
  %4 = load i64, i64* %PC, align 8
  %5 = add i64 %4, 3
  store i64 %5, i64* %PC, align 8
  store i64 %3, i64* %RSI, align 8
  ret %struct.Memory* %2
}

define %struct.Memory* @routine_callq_._ZN12ValueWrapperIdEC2IdEERKT_(%struct.State* dereferenceable(3376), i64, %struct.Memory*, i64 %rel_off1, i64 %rel_off2, i64 %rel_off3) local_unnamed_addr {
block_400478:
  %PC = getelementptr inbounds %struct.State, %struct.State* %0, i64 0, i32 6, i32 33, i32 0, i32 0
  %3 = load i64, i64* %PC, align 8
  %4 = add i64 %3, %rel_off1
  %5 = add i64 %3, %rel_off2
  %6 = getelementptr inbounds %struct.State, %struct.State* %0, i64 0, i32 6, i32 13, i32 0, i32 0
  %7 = load i64, i64* %6, align 8
  %8 = add i64 %7, -8
  %9 = inttoptr i64 %8 to i64*
  store i64 %5, i64* %9, align 8
  store i64 %8, i64* %6, align 8
  store i64 %4, i64* %PC, align 8
  ret %struct.Memory* %2
}

define %struct.Memory* @routine_leaq_MINUS0x30__rbp____rdi(%struct.State* dereferenceable(3376), i64, %struct.Memory*) local_unnamed_addr {
block_400478:
  %PC = getelementptr inbounds %struct.State, %struct.State* %0, i64 0, i32 6, i32 33, i32 0, i32 0
  %RDI = getelementptr inbounds %struct.State, %struct.State* %0, i64 0, i32 6, i32 11, i32 0, i32 0
  %RBP = getelementptr inbounds %struct.State, %struct.State* %0, i64 0, i32 6, i32 15, i32 0, i32 0
  %3 = load i64, i64* %RBP, align 8
  %4 = add i64 %3, -48
  %5 = load i64, i64* %PC, align 8
  %6 = add i64 %5, 4
  store i64 %6, i64* %PC, align 8
  store i64 %4, i64* %RDI, align 8
  ret %struct.Memory* %2
}

define %struct.Memory* @routine_leaq_MINUS0x38__rbp____rsi(%struct.State* dereferenceable(3376), i64, %struct.Memory*) local_unnamed_addr {
block_400478:
  %PC = getelementptr inbounds %struct.State, %struct.State* %0, i64 0, i32 6, i32 33, i32 0, i32 0
  %RSI = getelementptr inbounds %struct.State, %struct.State* %0, i64 0, i32 6, i32 9, i32 0, i32 0
  %RBP = getelementptr inbounds %struct.State, %struct.State* %0, i64 0, i32 6, i32 15, i32 0, i32 0
  %3 = load i64, i64* %RBP, align 8
  %4 = add i64 %3, -56
  %5 = load i64, i64* %PC, align 8
  %6 = add i64 %5, 4
  store i64 %6, i64* %PC, align 8
  store i64 %4, i64* %RSI, align 8
  ret %struct.Memory* %2
}

define %struct.Memory* @routine_movsd__xmm0__MINUS0x38__rbp_(%struct.State* dereferenceable(3376), i64, %struct.Memory*) local_unnamed_addr {
block_400478:
  %PC = getelementptr inbounds %struct.State, %struct.State* %0, i64 0, i32 6, i32 33, i32 0, i32 0
  %RBP = getelementptr inbounds %struct.State, %struct.State* %0, i64 0, i32 6, i32 15, i32 0, i32 0
  %3 = load i64, i64* %RBP, align 8
  %4 = add i64 %3, -56
  %5 = load i64, i64* %PC, align 8
  %6 = add i64 %5, 5
  store i64 %6, i64* %PC, align 8
  %7 = getelementptr inbounds %struct.State, %struct.State* %0, i64 0, i32 1, i64 0, i32 0, i32 0, i32 0, i64 0
  %8 = load i64, i64* %7, align 1
  %9 = inttoptr i64 %4 to i64*
  store i64 %8, i64* %9, align 8
  ret %struct.Memory* %2
}

define %struct.Memory* @routine_callq_._ZN12ValueWrapperIS_IS_IS_IS_IS_IS_IS_IS_IS_IdEEEEEEEEEEC2IdEERKT_(%struct.State* dereferenceable(3376), i64, %struct.Memory*, i64 %rel_off1, i64 %rel_off2, i64 %rel_off3) local_unnamed_addr {
block_400478:
  %PC = getelementptr inbounds %struct.State, %struct.State* %0, i64 0, i32 6, i32 33, i32 0, i32 0
  %3 = load i64, i64* %PC, align 8
  %4 = add i64 %3, %rel_off1
  %5 = add i64 %3, %rel_off2
  %6 = getelementptr inbounds %struct.State, %struct.State* %0, i64 0, i32 6, i32 13, i32 0, i32 0
  %7 = load i64, i64* %6, align 8
  %8 = add i64 %7, -8
  %9 = inttoptr i64 %8 to i64*
  store i64 %5, i64* %9, align 8
  store i64 %8, i64* %6, align 8
  store i64 %4, i64* %PC, align 8
  ret %struct.Memory* %2
}

define %struct.Memory* @routine_cmpl__0x1__MINUS0x8__rbp_(%struct.State* dereferenceable(3376), i64, %struct.Memory*) local_unnamed_addr {
block_400478:
  %PC = getelementptr inbounds %struct.State, %struct.State* %0, i64 0, i32 6, i32 33, i32 0, i32 0
  %RBP = getelementptr inbounds %struct.State, %struct.State* %0, i64 0, i32 6, i32 15, i32 0, i32 0
  %3 = load i64, i64* %RBP, align 8
  %4 = add i64 %3, -8
  %5 = load i64, i64* %PC, align 8
  %6 = add i64 %5, 4
  store i64 %6, i64* %PC, align 8
  %7 = inttoptr i64 %4 to i32*
  %8 = load i32, i32* %7, align 4
  %9 = add i32 %8, -1
  %10 = icmp eq i32 %8, 0
  %11 = zext i1 %10 to i8
  %12 = getelementptr inbounds %struct.State, %struct.State* %0, i64 0, i32 2, i32 1
  store i8 %11, i8* %12, align 1
  %13 = and i32 %9, 255
  %14 = tail call i32 @llvm.ctpop.i32(i32 %13)
  %15 = trunc i32 %14 to i8
  %16 = and i8 %15, 1
  %17 = xor i8 %16, 1
  %18 = getelementptr inbounds %struct.State, %struct.State* %0, i64 0, i32 2, i32 3
  store i8 %17, i8* %18, align 1
  %19 = xor i32 %8, %9
  %20 = lshr i32 %19, 4
  %21 = trunc i32 %20 to i8
  %22 = and i8 %21, 1
  %23 = getelementptr inbounds %struct.State, %struct.State* %0, i64 0, i32 2, i32 5
  store i8 %22, i8* %23, align 1
  %24 = icmp eq i32 %9, 0
  %25 = zext i1 %24 to i8
  %26 = getelementptr inbounds %struct.State, %struct.State* %0, i64 0, i32 2, i32 7
  store i8 %25, i8* %26, align 1
  %27 = lshr i32 %9, 31
  %28 = trunc i32 %27 to i8
  %29 = getelementptr inbounds %struct.State, %struct.State* %0, i64 0, i32 2, i32 9
  store i8 %28, i8* %29, align 1
  %30 = lshr i32 %8, 31
  %31 = xor i32 %27, %30
  %32 = add nuw nsw i32 %31, %30
  %33 = icmp eq i32 %32, 2
  %34 = zext i1 %33 to i8
  %35 = getelementptr inbounds %struct.State, %struct.State* %0, i64 0, i32 2, i32 13
  store i8 %34, i8* %35, align 1
  ret %struct.Memory* %2
}

define %struct.Memory* @routine_jle_.L_40128c(%struct.State* dereferenceable(3376), i64, %struct.Memory*, i8* %BRANCH_TAKEN, i64 %rel_off1, i64 %rel_off2, i64 %rel_off3) local_unnamed_addr {
block_400478:
  %PC = getelementptr inbounds %struct.State, %struct.State* %0, i64 0, i32 6, i32 33, i32 0, i32 0
  %3 = load i64, i64* %PC, align 8
  %4 = getelementptr inbounds %struct.State, %struct.State* %0, i64 0, i32 2, i32 7
  %5 = load i8, i8* %4, align 1
  %6 = icmp ne i8 %5, 0
  %7 = getelementptr inbounds %struct.State, %struct.State* %0, i64 0, i32 2, i32 9
  %8 = load i8, i8* %7, align 1
  %9 = icmp ne i8 %8, 0
  %10 = getelementptr inbounds %struct.State, %struct.State* %0, i64 0, i32 2, i32 13
  %11 = load i8, i8* %10, align 1
  %12 = icmp ne i8 %11, 0
  %13 = xor i1 %9, %12
  %14 = or i1 %6, %13
  %15 = zext i1 %14 to i8
  store i8 %15, i8* %BRANCH_TAKEN, align 1
  %.v = select i1 %14, i64 %rel_off1, i64 %rel_off2
  %16 = add i64 %3, %.v
  store i64 %16, i64* %PC, align 8
  ret %struct.Memory* %2
}

define %struct.Memory* @routine_movq_MINUS0x10__rbp____rax(%struct.State* dereferenceable(3376), i64, %struct.Memory*) local_unnamed_addr {
block_400478:
  %PC = getelementptr inbounds %struct.State, %struct.State* %0, i64 0, i32 6, i32 33, i32 0, i32 0
  %RAX = getelementptr inbounds %struct.State, %struct.State* %0, i64 0, i32 6, i32 1, i32 0, i32 0
  %RBP = getelementptr inbounds %struct.State, %struct.State* %0, i64 0, i32 6, i32 15, i32 0, i32 0
  %3 = load i64, i64* %RBP, align 8
  %4 = add i64 %3, -16
  %5 = load i64, i64* %PC, align 8
  %6 = add i64 %5, 4
  store i64 %6, i64* %PC, align 8
  %7 = inttoptr i64 %4 to i64*
  %8 = load i64, i64* %7, align 8
  store i64 %8, i64* %RAX, align 8
  ret %struct.Memory* %2
}

define %struct.Memory* @routine_movq_0x8__rax____rdi(%struct.State* dereferenceable(3376), i64, %struct.Memory*) local_unnamed_addr {
block_400478:
  %PC = getelementptr inbounds %struct.State, %struct.State* %0, i64 0, i32 6, i32 33, i32 0, i32 0
  %RAX = getelementptr inbounds %struct.State, %struct.State* %0, i64 0, i32 6, i32 1, i32 0, i32 0
  %RDI = getelementptr inbounds %struct.State, %struct.State* %0, i64 0, i32 6, i32 11, i32 0, i32 0
  %3 = load i64, i64* %RAX, align 8
  %4 = add i64 %3, 8
  %5 = load i64, i64* %PC, align 8
  %6 = add i64 %5, 4
  store i64 %6, i64* %PC, align 8
  %7 = inttoptr i64 %4 to i64*
  %8 = load i64, i64* %7, align 8
  store i64 %8, i64* %RDI, align 8
  ret %struct.Memory* %2
}

define %struct.Memory* @routine_callq_.atoi_plt(%struct.State* dereferenceable(3376), i64, %struct.Memory*, i64 %rel_off1, i64 %rel_off2, i64 %rel_off3) local_unnamed_addr {
block_400478:
  %PC = getelementptr inbounds %struct.State, %struct.State* %0, i64 0, i32 6, i32 33, i32 0, i32 0
  %3 = load i64, i64* %PC, align 8
  %4 = add i64 %3, %rel_off1
  %5 = add i64 %3, %rel_off2
  %6 = getelementptr inbounds %struct.State, %struct.State* %0, i64 0, i32 6, i32 13, i32 0, i32 0
  %7 = load i64, i64* %6, align 8
  %8 = add i64 %7, -8
  %9 = inttoptr i64 %8 to i64*
  store i64 %5, i64* %9, align 8
  store i64 %8, i64* %6, align 8
  store i64 %4, i64* %PC, align 8
  ret %struct.Memory* %2
}

define %struct.Memory* @routine_movl__eax__0x609088(%struct.State* dereferenceable(3376), i64, %struct.Memory*) local_unnamed_addr {
block_400478:
  %PC = getelementptr inbounds %struct.State, %struct.State* %0, i64 0, i32 6, i32 33, i32 0, i32 0
  %3 = getelementptr inbounds %struct.State, %struct.State* %0, i64 0, i32 6, i32 1, i32 0
  %EAX = bitcast %union.anon* %3 to i32*
  %4 = load i32, i32* %EAX, align 4
  %5 = load i64, i64* %PC, align 8
  %6 = add i64 %5, 7
  store i64 %6, i64* %PC, align 8
  store i32 %4, i32* bitcast (%G_0x609088_type* @G_0x609088 to i32*), align 8
  ret %struct.Memory* %2
}

define %struct.Memory* @routine_cmpl__0x2__MINUS0x8__rbp_(%struct.State* dereferenceable(3376), i64, %struct.Memory*) local_unnamed_addr {
block_400478:
  %PC = getelementptr inbounds %struct.State, %struct.State* %0, i64 0, i32 6, i32 33, i32 0, i32 0
  %RBP = getelementptr inbounds %struct.State, %struct.State* %0, i64 0, i32 6, i32 15, i32 0, i32 0
  %3 = load i64, i64* %RBP, align 8
  %4 = add i64 %3, -8
  %5 = load i64, i64* %PC, align 8
  %6 = add i64 %5, 4
  store i64 %6, i64* %PC, align 8
  %7 = inttoptr i64 %4 to i32*
  %8 = load i32, i32* %7, align 4
  %9 = add i32 %8, -2
  %10 = icmp ult i32 %8, 2
  %11 = zext i1 %10 to i8
  %12 = getelementptr inbounds %struct.State, %struct.State* %0, i64 0, i32 2, i32 1
  store i8 %11, i8* %12, align 1
  %13 = and i32 %9, 255
  %14 = tail call i32 @llvm.ctpop.i32(i32 %13)
  %15 = trunc i32 %14 to i8
  %16 = and i8 %15, 1
  %17 = xor i8 %16, 1
  %18 = getelementptr inbounds %struct.State, %struct.State* %0, i64 0, i32 2, i32 3
  store i8 %17, i8* %18, align 1
  %19 = xor i32 %8, %9
  %20 = lshr i32 %19, 4
  %21 = trunc i32 %20 to i8
  %22 = and i8 %21, 1
  %23 = getelementptr inbounds %struct.State, %struct.State* %0, i64 0, i32 2, i32 5
  store i8 %22, i8* %23, align 1
  %24 = icmp eq i32 %9, 0
  %25 = zext i1 %24 to i8
  %26 = getelementptr inbounds %struct.State, %struct.State* %0, i64 0, i32 2, i32 7
  store i8 %25, i8* %26, align 1
  %27 = lshr i32 %9, 31
  %28 = trunc i32 %27 to i8
  %29 = getelementptr inbounds %struct.State, %struct.State* %0, i64 0, i32 2, i32 9
  store i8 %28, i8* %29, align 1
  %30 = lshr i32 %8, 31
  %31 = xor i32 %27, %30
  %32 = add nuw nsw i32 %31, %30
  %33 = icmp eq i32 %32, 2
  %34 = zext i1 %33 to i8
  %35 = getelementptr inbounds %struct.State, %struct.State* %0, i64 0, i32 2, i32 13
  store i8 %34, i8* %35, align 1
  ret %struct.Memory* %2
}

define %struct.Memory* @routine_jle_.L_4012ac(%struct.State* dereferenceable(3376), i64, %struct.Memory*, i8* %BRANCH_TAKEN, i64 %rel_off1, i64 %rel_off2, i64 %rel_off3) local_unnamed_addr {
block_400478:
  %PC = getelementptr inbounds %struct.State, %struct.State* %0, i64 0, i32 6, i32 33, i32 0, i32 0
  %3 = load i64, i64* %PC, align 8
  %4 = getelementptr inbounds %struct.State, %struct.State* %0, i64 0, i32 2, i32 7
  %5 = load i8, i8* %4, align 1
  %6 = icmp ne i8 %5, 0
  %7 = getelementptr inbounds %struct.State, %struct.State* %0, i64 0, i32 2, i32 9
  %8 = load i8, i8* %7, align 1
  %9 = icmp ne i8 %8, 0
  %10 = getelementptr inbounds %struct.State, %struct.State* %0, i64 0, i32 2, i32 13
  %11 = load i8, i8* %10, align 1
  %12 = icmp ne i8 %11, 0
  %13 = xor i1 %9, %12
  %14 = or i1 %6, %13
  %15 = zext i1 %14 to i8
  store i8 %15, i8* %BRANCH_TAKEN, align 1
  %.v = select i1 %14, i64 %rel_off1, i64 %rel_off2
  %16 = add i64 %3, %.v
  store i64 %16, i64* %PC, align 8
  ret %struct.Memory* %2
}

define %struct.Memory* @routine_movq_0x10__rax____rdi(%struct.State* dereferenceable(3376), i64, %struct.Memory*) local_unnamed_addr {
block_400478:
  %PC = getelementptr inbounds %struct.State, %struct.State* %0, i64 0, i32 6, i32 33, i32 0, i32 0
  %RAX = getelementptr inbounds %struct.State, %struct.State* %0, i64 0, i32 6, i32 1, i32 0, i32 0
  %RDI = getelementptr inbounds %struct.State, %struct.State* %0, i64 0, i32 6, i32 11, i32 0, i32 0
  %3 = load i64, i64* %RAX, align 8
  %4 = add i64 %3, 16
  %5 = load i64, i64* %PC, align 8
  %6 = add i64 %5, 4
  store i64 %6, i64* %PC, align 8
  %7 = inttoptr i64 %4 to i64*
  %8 = load i64, i64* %7, align 8
  store i64 %8, i64* %RDI, align 8
  ret %struct.Memory* %2
}

define %struct.Memory* @routine_callq_.atof_plt(%struct.State* dereferenceable(3376), i64, %struct.Memory*, i64 %rel_off1, i64 %rel_off2, i64 %rel_off3) local_unnamed_addr {
block_400478:
  %PC = getelementptr inbounds %struct.State, %struct.State* %0, i64 0, i32 6, i32 33, i32 0, i32 0
  %3 = load i64, i64* %PC, align 8
  %4 = add i64 %3, %rel_off1
  %5 = add i64 %3, %rel_off2
  %6 = getelementptr inbounds %struct.State, %struct.State* %0, i64 0, i32 6, i32 13, i32 0, i32 0
  %7 = load i64, i64* %6, align 8
  %8 = add i64 %7, -8
  %9 = inttoptr i64 %8 to i64*
  store i64 %5, i64* %9, align 8
  store i64 %8, i64* %6, align 8
  store i64 %4, i64* %PC, align 8
  ret %struct.Memory* %2
}

define %struct.Memory* @routine_movsd__xmm0__0x609090(%struct.State* dereferenceable(3376), i64, %struct.Memory*) local_unnamed_addr {
block_400478:
  %PC = getelementptr inbounds %struct.State, %struct.State* %0, i64 0, i32 6, i32 33, i32 0, i32 0
  %3 = load i64, i64* %PC, align 8
  %4 = add i64 %3, 9
  store i64 %4, i64* %PC, align 8
  %5 = getelementptr inbounds %struct.State, %struct.State* %0, i64 0, i32 1, i64 0, i32 0, i32 0, i32 0, i64 0
  %6 = load i64, i64* %5, align 1
  store i64 %6, i64* bitcast (%G_0x609090_type* @G_0x609090 to i64*), align 8
  ret %struct.Memory* %2
}

define %struct.Memory* @routine_cvttsd2si_0x609090___eax(%struct.State* dereferenceable(3376), i64, %struct.Memory*) local_unnamed_addr {
block_400478:
  %PC = getelementptr inbounds %struct.State, %struct.State* %0, i64 0, i32 6, i32 33, i32 0, i32 0
  %RAX = getelementptr inbounds %struct.State, %struct.State* %0, i64 0, i32 6, i32 1, i32 0, i32 0
  %3 = load i64, i64* %PC, align 8
  %4 = add i64 %3, 9
  store i64 %4, i64* %PC, align 8
  %5 = load double, double* bitcast (%G_0x609090_type* @G_0x609090 to double*), align 8
  %6 = tail call double @llvm.trunc.f64(double %5)
  %7 = tail call double @llvm.fabs.f64(double %6)
  %8 = fcmp ogt double %7, 0x41DFFFFFFFC00000
  %9 = fptosi double %6 to i32
  %10 = zext i32 %9 to i64
  %11 = select i1 %8, i64 2147483648, i64 %10
  store i64 %11, i64* %RAX, align 8
  ret %struct.Memory* %2
}

define %struct.Memory* @routine_addl__0x7b___eax(%struct.State* dereferenceable(3376), i64, %struct.Memory*) local_unnamed_addr {
block_400478:
  %PC = getelementptr inbounds %struct.State, %struct.State* %0, i64 0, i32 6, i32 33, i32 0, i32 0
  %RAX = getelementptr inbounds %struct.State, %struct.State* %0, i64 0, i32 6, i32 1, i32 0, i32 0
  %3 = load i64, i64* %RAX, align 8
  %4 = load i64, i64* %PC, align 8
  %5 = add i64 %4, 3
  store i64 %5, i64* %PC, align 8
  %6 = trunc i64 %3 to i32
  %7 = add i32 %6, 123
  %8 = zext i32 %7 to i64
  store i64 %8, i64* %RAX, align 8
  %9 = icmp ugt i32 %6, -124
  %10 = zext i1 %9 to i8
  %11 = getelementptr inbounds %struct.State, %struct.State* %0, i64 0, i32 2, i32 1
  store i8 %10, i8* %11, align 1
  %12 = and i32 %7, 255
  %13 = tail call i32 @llvm.ctpop.i32(i32 %12)
  %14 = trunc i32 %13 to i8
  %15 = and i8 %14, 1
  %16 = xor i8 %15, 1
  %17 = getelementptr inbounds %struct.State, %struct.State* %0, i64 0, i32 2, i32 3
  store i8 %16, i8* %17, align 1
  %18 = xor i32 %6, 16
  %19 = xor i32 %18, %7
  %20 = lshr i32 %19, 4
  %21 = trunc i32 %20 to i8
  %22 = and i8 %21, 1
  %23 = getelementptr inbounds %struct.State, %struct.State* %0, i64 0, i32 2, i32 5
  store i8 %22, i8* %23, align 1
  %24 = icmp eq i32 %7, 0
  %25 = zext i1 %24 to i8
  %26 = getelementptr inbounds %struct.State, %struct.State* %0, i64 0, i32 2, i32 7
  store i8 %25, i8* %26, align 1
  %27 = lshr i32 %7, 31
  %28 = trunc i32 %27 to i8
  %29 = getelementptr inbounds %struct.State, %struct.State* %0, i64 0, i32 2, i32 9
  store i8 %28, i8* %29, align 1
  %30 = lshr i32 %6, 31
  %31 = xor i32 %27, %30
  %32 = add nuw nsw i32 %31, %27
  %33 = icmp eq i32 %32, 2
  %34 = zext i1 %33 to i8
  %35 = getelementptr inbounds %struct.State, %struct.State* %0, i64 0, i32 2, i32 13
  store i8 %34, i8* %35, align 1
  ret %struct.Memory* %2
}

define %struct.Memory* @routine_movl__eax___edi(%struct.State* dereferenceable(3376), i64, %struct.Memory*) local_unnamed_addr {
block_400478:
  %PC = getelementptr inbounds %struct.State, %struct.State* %0, i64 0, i32 6, i32 33, i32 0, i32 0
  %3 = getelementptr inbounds %struct.State, %struct.State* %0, i64 0, i32 6, i32 1, i32 0
  %EAX = bitcast %union.anon* %3 to i32*
  %RDI = getelementptr inbounds %struct.State, %struct.State* %0, i64 0, i32 6, i32 11, i32 0, i32 0
  %4 = load i32, i32* %EAX, align 4
  %5 = zext i32 %4 to i64
  %6 = load i64, i64* %PC, align 8
  %7 = add i64 %6, 2
  store i64 %7, i64* %PC, align 8
  store i64 %5, i64* %RDI, align 8
  ret %struct.Memory* %2
}

define %struct.Memory* @routine_callq_.srand_plt(%struct.State* dereferenceable(3376), i64, %struct.Memory*, i64 %rel_off1, i64 %rel_off2, i64 %rel_off3) local_unnamed_addr {
block_400478:
  %PC = getelementptr inbounds %struct.State, %struct.State* %0, i64 0, i32 6, i32 33, i32 0, i32 0
  %3 = load i64, i64* %PC, align 8
  %4 = add i64 %3, %rel_off1
  %5 = add i64 %3, %rel_off2
  %6 = getelementptr inbounds %struct.State, %struct.State* %0, i64 0, i32 6, i32 13, i32 0, i32 0
  %7 = load i64, i64* %6, align 8
  %8 = add i64 %7, -8
  %9 = inttoptr i64 %8 to i64*
  store i64 %5, i64* %9, align 8
  store i64 %8, i64* %6, align 8
  store i64 %4, i64* %PC, align 8
  ret %struct.Memory* %2
}

define %struct.Memory* @routine_movq_0x609098___rdi(%struct.State* dereferenceable(3376), i64, %struct.Memory*) local_unnamed_addr {
block_400478:
  %PC = getelementptr inbounds %struct.State, %struct.State* %0, i64 0, i32 6, i32 33, i32 0, i32 0
  %RDI = getelementptr inbounds %struct.State, %struct.State* %0, i64 0, i32 6, i32 11, i32 0, i32 0
  %3 = load i64, i64* %PC, align 8
  %4 = add i64 %3, 8
  store i64 %4, i64* %PC, align 8
  %5 = load i64, i64* bitcast (%G_0x609098_type* @G_0x609098 to i64*), align 8
  store i64 %5, i64* %RDI, align 8
  ret %struct.Memory* %2
}

define %struct.Memory* @routine_movq_0x6090a0___rsi(%struct.State* dereferenceable(3376), i64, %struct.Memory*) local_unnamed_addr {
block_400478:
  %PC = getelementptr inbounds %struct.State, %struct.State* %0, i64 0, i32 6, i32 33, i32 0, i32 0
  %RSI = getelementptr inbounds %struct.State, %struct.State* %0, i64 0, i32 6, i32 9, i32 0, i32 0
  %3 = load i64, i64* %PC, align 8
  %4 = add i64 %3, 8
  store i64 %4, i64* %PC, align 8
  %5 = load i64, i64* bitcast (%G_0x6090a0_type* @G_0x6090a0 to i64*), align 8
  store i64 %5, i64* %RSI, align 8
  ret %struct.Memory* %2
}

define %struct.Memory* @routine_movsd_0x609090___xmm0(%struct.State* dereferenceable(3376), i64, %struct.Memory*) local_unnamed_addr {
block_400478:
  %PC = getelementptr inbounds %struct.State, %struct.State* %0, i64 0, i32 6, i32 33, i32 0, i32 0
  %3 = load i64, i64* %PC, align 8
  %4 = add i64 %3, 9
  store i64 %4, i64* %PC, align 8
  %5 = load i64, i64* bitcast (%G_0x609090_type* @G_0x609090 to i64*), align 8
  %6 = getelementptr inbounds %struct.State, %struct.State* %0, i64 0, i32 1, i64 0, i32 0, i32 0, i32 0, i64 0
  store i64 %5, i64* %6, align 1
  %7 = getelementptr inbounds %struct.State, %struct.State* %0, i64 0, i32 1, i64 0, i32 0, i32 0, i32 0, i64 1
  %8 = bitcast i64* %7 to double*
  store double 0.000000e+00, double* %8, align 1
  ret %struct.Memory* %2
}

define %struct.Memory* @routine_callq_._ZN9benchmark4fillIPddEEvT_S2_T0_(%struct.State* dereferenceable(3376), i64, %struct.Memory*, i64 %rel_off1, i64 %rel_off2, i64 %rel_off3) local_unnamed_addr {
block_400478:
  %PC = getelementptr inbounds %struct.State, %struct.State* %0, i64 0, i32 6, i32 33, i32 0, i32 0
  %3 = load i64, i64* %PC, align 8
  %4 = add i64 %3, %rel_off1
  %5 = add i64 %3, %rel_off2
  %6 = getelementptr inbounds %struct.State, %struct.State* %0, i64 0, i32 6, i32 13, i32 0, i32 0
  %7 = load i64, i64* %6, align 8
  %8 = add i64 %7, -8
  %9 = inttoptr i64 %8 to i64*
  store i64 %5, i64* %9, align 8
  store i64 %8, i64* %6, align 8
  store i64 %4, i64* %PC, align 8
  ret %struct.Memory* %2
}

define %struct.Memory* @routine_leaq_MINUS0x40__rbp____rdi(%struct.State* dereferenceable(3376), i64, %struct.Memory*) local_unnamed_addr {
block_400478:
  %PC = getelementptr inbounds %struct.State, %struct.State* %0, i64 0, i32 6, i32 33, i32 0, i32 0
  %RDI = getelementptr inbounds %struct.State, %struct.State* %0, i64 0, i32 6, i32 11, i32 0, i32 0
  %RBP = getelementptr inbounds %struct.State, %struct.State* %0, i64 0, i32 6, i32 15, i32 0, i32 0
  %3 = load i64, i64* %RBP, align 8
  %4 = add i64 %3, -64
  %5 = load i64, i64* %PC, align 8
  %6 = add i64 %5, 4
  store i64 %6, i64* %PC, align 8
  store i64 %4, i64* %RDI, align 8
  ret %struct.Memory* %2
}

define %struct.Memory* @routine_movq__0x609090___rsi(%struct.State* dereferenceable(3376), i64, %struct.Memory*) local_unnamed_addr {
block_400478:
  %PC = getelementptr inbounds %struct.State, %struct.State* %0, i64 0, i32 6, i32 33, i32 0, i32 0
  %RSI = getelementptr inbounds %struct.State, %struct.State* %0, i64 0, i32 6, i32 9, i32 0, i32 0
  %3 = load i64, i64* %PC, align 8
  %4 = add i64 %3, 10
  store i64 %4, i64* %PC, align 8
  store i64 ptrtoint (%G__0x609090_type* @G__0x609090 to i64), i64* %RSI, align 8
  ret %struct.Memory* %2
}

define %struct.Memory* @routine_movq_0x6090b8___rcx(%struct.State* dereferenceable(3376), i64, %struct.Memory*) local_unnamed_addr {
block_400478:
  %PC = getelementptr inbounds %struct.State, %struct.State* %0, i64 0, i32 6, i32 33, i32 0, i32 0
  %RCX = getelementptr inbounds %struct.State, %struct.State* %0, i64 0, i32 6, i32 5, i32 0, i32 0
  %3 = load i64, i64* %PC, align 8
  %4 = add i64 %3, 8
  store i64 %4, i64* %PC, align 8
  %5 = load i64, i64* bitcast (%G_0x6090b8_type* @G_0x6090b8 to i64*), align 8
  store i64 %5, i64* %RCX, align 8
  ret %struct.Memory* %2
}

define %struct.Memory* @routine_movq_0x6090c0___rdx(%struct.State* dereferenceable(3376), i64, %struct.Memory*) local_unnamed_addr {
block_400478:
  %PC = getelementptr inbounds %struct.State, %struct.State* %0, i64 0, i32 6, i32 33, i32 0, i32 0
  %RDX = getelementptr inbounds %struct.State, %struct.State* %0, i64 0, i32 6, i32 7, i32 0, i32 0
  %3 = load i64, i64* %PC, align 8
  %4 = add i64 %3, 8
  store i64 %4, i64* %PC, align 8
  %5 = load i64, i64* bitcast (%G_0x6090c0_type* @G_0x6090c0 to i64*), align 8
  store i64 %5, i64* %RDX, align 8
  ret %struct.Memory* %2
}

define %struct.Memory* @routine_movq__rdx__MINUS0x220__rbp_(%struct.State* dereferenceable(3376), i64, %struct.Memory*) local_unnamed_addr {
block_400478:
  %PC = getelementptr inbounds %struct.State, %struct.State* %0, i64 0, i32 6, i32 33, i32 0, i32 0
  %RDX = getelementptr inbounds %struct.State, %struct.State* %0, i64 0, i32 6, i32 7, i32 0, i32 0
  %RBP = getelementptr inbounds %struct.State, %struct.State* %0, i64 0, i32 6, i32 15, i32 0, i32 0
  %3 = load i64, i64* %RBP, align 8
  %4 = add i64 %3, -544
  %5 = load i64, i64* %RDX, align 8
  %6 = load i64, i64* %PC, align 8
  %7 = add i64 %6, 7
  store i64 %7, i64* %PC, align 8
  %8 = inttoptr i64 %4 to i64*
  store i64 %5, i64* %8, align 8
  ret %struct.Memory* %2
}

define %struct.Memory* @routine_movq__rcx__MINUS0x228__rbp_(%struct.State* dereferenceable(3376), i64, %struct.Memory*) local_unnamed_addr {
block_400478:
  %PC = getelementptr inbounds %struct.State, %struct.State* %0, i64 0, i32 6, i32 33, i32 0, i32 0
  %RCX = getelementptr inbounds %struct.State, %struct.State* %0, i64 0, i32 6, i32 5, i32 0, i32 0
  %RBP = getelementptr inbounds %struct.State, %struct.State* %0, i64 0, i32 6, i32 15, i32 0, i32 0
  %3 = load i64, i64* %RBP, align 8
  %4 = add i64 %3, -552
  %5 = load i64, i64* %RCX, align 8
  %6 = load i64, i64* %PC, align 8
  %7 = add i64 %6, 7
  store i64 %7, i64* %PC, align 8
  %8 = inttoptr i64 %4 to i64*
  store i64 %5, i64* %8, align 8
  ret %struct.Memory* %2
}

define %struct.Memory* @routine_movsd_MINUS0x40__rbp____xmm0(%struct.State* dereferenceable(3376), i64, %struct.Memory*) local_unnamed_addr {
block_400478:
  %PC = getelementptr inbounds %struct.State, %struct.State* %0, i64 0, i32 6, i32 33, i32 0, i32 0
  %RBP = getelementptr inbounds %struct.State, %struct.State* %0, i64 0, i32 6, i32 15, i32 0, i32 0
  %3 = load i64, i64* %RBP, align 8
  %4 = add i64 %3, -64
  %5 = load i64, i64* %PC, align 8
  %6 = add i64 %5, 5
  store i64 %6, i64* %PC, align 8
  %7 = inttoptr i64 %4 to i64*
  %8 = load i64, i64* %7, align 8
  %9 = getelementptr inbounds %struct.State, %struct.State* %0, i64 0, i32 1, i64 0, i32 0, i32 0, i32 0, i64 0
  store i64 %8, i64* %9, align 1
  %10 = getelementptr inbounds %struct.State, %struct.State* %0, i64 0, i32 1, i64 0, i32 0, i32 0, i32 0, i64 1
  %11 = bitcast i64* %10 to double*
  store double 0.000000e+00, double* %11, align 1
  ret %struct.Memory* %2
}

define %struct.Memory* @routine_movq_MINUS0x228__rbp____rdi(%struct.State* dereferenceable(3376), i64, %struct.Memory*) local_unnamed_addr {
block_400478:
  %PC = getelementptr inbounds %struct.State, %struct.State* %0, i64 0, i32 6, i32 33, i32 0, i32 0
  %RDI = getelementptr inbounds %struct.State, %struct.State* %0, i64 0, i32 6, i32 11, i32 0, i32 0
  %RBP = getelementptr inbounds %struct.State, %struct.State* %0, i64 0, i32 6, i32 15, i32 0, i32 0
  %3 = load i64, i64* %RBP, align 8
  %4 = add i64 %3, -552
  %5 = load i64, i64* %PC, align 8
  %6 = add i64 %5, 7
  store i64 %6, i64* %PC, align 8
  %7 = inttoptr i64 %4 to i64*
  %8 = load i64, i64* %7, align 8
  store i64 %8, i64* %RDI, align 8
  ret %struct.Memory* %2
}

define %struct.Memory* @routine_movq_MINUS0x220__rbp____rsi(%struct.State* dereferenceable(3376), i64, %struct.Memory*) local_unnamed_addr {
block_400478:
  %PC = getelementptr inbounds %struct.State, %struct.State* %0, i64 0, i32 6, i32 33, i32 0, i32 0
  %RSI = getelementptr inbounds %struct.State, %struct.State* %0, i64 0, i32 6, i32 9, i32 0, i32 0
  %RBP = getelementptr inbounds %struct.State, %struct.State* %0, i64 0, i32 6, i32 15, i32 0, i32 0
  %3 = load i64, i64* %RBP, align 8
  %4 = add i64 %3, -544
  %5 = load i64, i64* %PC, align 8
  %6 = add i64 %5, 7
  store i64 %6, i64* %PC, align 8
  %7 = inttoptr i64 %4 to i64*
  %8 = load i64, i64* %7, align 8
  store i64 %8, i64* %RSI, align 8
  ret %struct.Memory* %2
}

define %struct.Memory* @routine_callq_._ZN9benchmark4fillIP12ValueWrapperIdES2_EEvT_S4_T0_(%struct.State* dereferenceable(3376), i64, %struct.Memory*, i64 %rel_off1, i64 %rel_off2, i64 %rel_off3) local_unnamed_addr {
block_400478:
  %PC = getelementptr inbounds %struct.State, %struct.State* %0, i64 0, i32 6, i32 33, i32 0, i32 0
  %3 = load i64, i64* %PC, align 8
  %4 = add i64 %3, %rel_off1
  %5 = add i64 %3, %rel_off2
  %6 = getelementptr inbounds %struct.State, %struct.State* %0, i64 0, i32 6, i32 13, i32 0, i32 0
  %7 = load i64, i64* %6, align 8
  %8 = add i64 %7, -8
  %9 = inttoptr i64 %8 to i64*
  store i64 %5, i64* %9, align 8
  store i64 %8, i64* %6, align 8
  store i64 %4, i64* %PC, align 8
  ret %struct.Memory* %2
}

define %struct.Memory* @routine_leaq_MINUS0x48__rbp____rdi(%struct.State* dereferenceable(3376), i64, %struct.Memory*) local_unnamed_addr {
block_400478:
  %PC = getelementptr inbounds %struct.State, %struct.State* %0, i64 0, i32 6, i32 33, i32 0, i32 0
  %RDI = getelementptr inbounds %struct.State, %struct.State* %0, i64 0, i32 6, i32 11, i32 0, i32 0
  %RBP = getelementptr inbounds %struct.State, %struct.State* %0, i64 0, i32 6, i32 15, i32 0, i32 0
  %3 = load i64, i64* %RBP, align 8
  %4 = add i64 %3, -72
  %5 = load i64, i64* %PC, align 8
  %6 = add i64 %5, 4
  store i64 %6, i64* %PC, align 8
  store i64 %4, i64* %RDI, align 8
  ret %struct.Memory* %2
}

define %struct.Memory* @routine_movq_0x6090d8___rcx(%struct.State* dereferenceable(3376), i64, %struct.Memory*) local_unnamed_addr {
block_400478:
  %PC = getelementptr inbounds %struct.State, %struct.State* %0, i64 0, i32 6, i32 33, i32 0, i32 0
  %RCX = getelementptr inbounds %struct.State, %struct.State* %0, i64 0, i32 6, i32 5, i32 0, i32 0
  %3 = load i64, i64* %PC, align 8
  %4 = add i64 %3, 8
  store i64 %4, i64* %PC, align 8
  %5 = load i64, i64* bitcast (%G_0x6090d8_type* @G_0x6090d8 to i64*), align 8
  store i64 %5, i64* %RCX, align 8
  ret %struct.Memory* %2
}

define %struct.Memory* @routine_movq_0x6090e0___rdx(%struct.State* dereferenceable(3376), i64, %struct.Memory*) local_unnamed_addr {
block_400478:
  %PC = getelementptr inbounds %struct.State, %struct.State* %0, i64 0, i32 6, i32 33, i32 0, i32 0
  %RDX = getelementptr inbounds %struct.State, %struct.State* %0, i64 0, i32 6, i32 7, i32 0, i32 0
  %3 = load i64, i64* %PC, align 8
  %4 = add i64 %3, 8
  store i64 %4, i64* %PC, align 8
  %5 = load i64, i64* bitcast (%G_0x6090e0_type* @G_0x6090e0 to i64*), align 8
  store i64 %5, i64* %RDX, align 8
  ret %struct.Memory* %2
}

define %struct.Memory* @routine_movq__rdx__MINUS0x230__rbp_(%struct.State* dereferenceable(3376), i64, %struct.Memory*) local_unnamed_addr {
block_400478:
  %PC = getelementptr inbounds %struct.State, %struct.State* %0, i64 0, i32 6, i32 33, i32 0, i32 0
  %RDX = getelementptr inbounds %struct.State, %struct.State* %0, i64 0, i32 6, i32 7, i32 0, i32 0
  %RBP = getelementptr inbounds %struct.State, %struct.State* %0, i64 0, i32 6, i32 15, i32 0, i32 0
  %3 = load i64, i64* %RBP, align 8
  %4 = add i64 %3, -560
  %5 = load i64, i64* %RDX, align 8
  %6 = load i64, i64* %PC, align 8
  %7 = add i64 %6, 7
  store i64 %7, i64* %PC, align 8
  %8 = inttoptr i64 %4 to i64*
  store i64 %5, i64* %8, align 8
  ret %struct.Memory* %2
}

define %struct.Memory* @routine_movq__rcx__MINUS0x238__rbp_(%struct.State* dereferenceable(3376), i64, %struct.Memory*) local_unnamed_addr {
block_400478:
  %PC = getelementptr inbounds %struct.State, %struct.State* %0, i64 0, i32 6, i32 33, i32 0, i32 0
  %RCX = getelementptr inbounds %struct.State, %struct.State* %0, i64 0, i32 6, i32 5, i32 0, i32 0
  %RBP = getelementptr inbounds %struct.State, %struct.State* %0, i64 0, i32 6, i32 15, i32 0, i32 0
  %3 = load i64, i64* %RBP, align 8
  %4 = add i64 %3, -568
  %5 = load i64, i64* %RCX, align 8
  %6 = load i64, i64* %PC, align 8
  %7 = add i64 %6, 7
  store i64 %7, i64* %PC, align 8
  %8 = inttoptr i64 %4 to i64*
  store i64 %5, i64* %8, align 8
  ret %struct.Memory* %2
}

define %struct.Memory* @routine_movsd_MINUS0x48__rbp____xmm0(%struct.State* dereferenceable(3376), i64, %struct.Memory*) local_unnamed_addr {
block_400478:
  %PC = getelementptr inbounds %struct.State, %struct.State* %0, i64 0, i32 6, i32 33, i32 0, i32 0
  %RBP = getelementptr inbounds %struct.State, %struct.State* %0, i64 0, i32 6, i32 15, i32 0, i32 0
  %3 = load i64, i64* %RBP, align 8
  %4 = add i64 %3, -72
  %5 = load i64, i64* %PC, align 8
  %6 = add i64 %5, 5
  store i64 %6, i64* %PC, align 8
  %7 = inttoptr i64 %4 to i64*
  %8 = load i64, i64* %7, align 8
  %9 = getelementptr inbounds %struct.State, %struct.State* %0, i64 0, i32 1, i64 0, i32 0, i32 0, i32 0, i64 0
  store i64 %8, i64* %9, align 1
  %10 = getelementptr inbounds %struct.State, %struct.State* %0, i64 0, i32 1, i64 0, i32 0, i32 0, i32 0, i64 1
  %11 = bitcast i64* %10 to double*
  store double 0.000000e+00, double* %11, align 1
  ret %struct.Memory* %2
}

define %struct.Memory* @routine_movq_MINUS0x238__rbp____rdi(%struct.State* dereferenceable(3376), i64, %struct.Memory*) local_unnamed_addr {
block_400478:
  %PC = getelementptr inbounds %struct.State, %struct.State* %0, i64 0, i32 6, i32 33, i32 0, i32 0
  %RDI = getelementptr inbounds %struct.State, %struct.State* %0, i64 0, i32 6, i32 11, i32 0, i32 0
  %RBP = getelementptr inbounds %struct.State, %struct.State* %0, i64 0, i32 6, i32 15, i32 0, i32 0
  %3 = load i64, i64* %RBP, align 8
  %4 = add i64 %3, -568
  %5 = load i64, i64* %PC, align 8
  %6 = add i64 %5, 7
  store i64 %6, i64* %PC, align 8
  %7 = inttoptr i64 %4 to i64*
  %8 = load i64, i64* %7, align 8
  store i64 %8, i64* %RDI, align 8
  ret %struct.Memory* %2
}

define %struct.Memory* @routine_movq_MINUS0x230__rbp____rsi(%struct.State* dereferenceable(3376), i64, %struct.Memory*) local_unnamed_addr {
block_400478:
  %PC = getelementptr inbounds %struct.State, %struct.State* %0, i64 0, i32 6, i32 33, i32 0, i32 0
  %RSI = getelementptr inbounds %struct.State, %struct.State* %0, i64 0, i32 6, i32 9, i32 0, i32 0
  %RBP = getelementptr inbounds %struct.State, %struct.State* %0, i64 0, i32 6, i32 15, i32 0, i32 0
  %3 = load i64, i64* %RBP, align 8
  %4 = add i64 %3, -560
  %5 = load i64, i64* %PC, align 8
  %6 = add i64 %5, 7
  store i64 %6, i64* %PC, align 8
  %7 = inttoptr i64 %4 to i64*
  %8 = load i64, i64* %7, align 8
  store i64 %8, i64* %RSI, align 8
  ret %struct.Memory* %2
}

define %struct.Memory* @routine_callq_._ZN9benchmark4fillIP12ValueWrapperIS1_IS1_IS1_IS1_IS1_IS1_IS1_IS1_IS1_IdEEEEEEEEEESB_EEvT_SD_T0_(%struct.State* dereferenceable(3376), i64, %struct.Memory*, i64 %rel_off1, i64 %rel_off2, i64 %rel_off3) local_unnamed_addr {
block_400478:
  %PC = getelementptr inbounds %struct.State, %struct.State* %0, i64 0, i32 6, i32 33, i32 0, i32 0
  %3 = load i64, i64* %PC, align 8
  %4 = add i64 %3, %rel_off1
  %5 = add i64 %3, %rel_off2
  %6 = getelementptr inbounds %struct.State, %struct.State* %0, i64 0, i32 6, i32 13, i32 0, i32 0
  %7 = load i64, i64* %6, align 8
  %8 = add i64 %7, -8
  %9 = inttoptr i64 %8 to i64*
  store i64 %5, i64* %9, align 8
  store i64 %8, i64* %6, align 8
  store i64 %4, i64* %PC, align 8
  ret %struct.Memory* %2
}

define %struct.Memory* @routine_movq__0x406861___rdx(%struct.State* dereferenceable(3376), i64, %struct.Memory*) local_unnamed_addr {
block_400478:
  %PC = getelementptr inbounds %struct.State, %struct.State* %0, i64 0, i32 6, i32 33, i32 0, i32 0
  %RDX = getelementptr inbounds %struct.State, %struct.State* %0, i64 0, i32 6, i32 7, i32 0, i32 0
  %3 = load i64, i64* %PC, align 8
  %4 = add i64 %3, 10
  store i64 %4, i64* %PC, align 8
  store i64 ptrtoint (%G__0x406861_type* @G__0x406861 to i64), i64* %RDX, align 8
  ret %struct.Memory* %2
}

define %struct.Memory* @routine_movsd_MINUS0x18__rbp____xmm0(%struct.State* dereferenceable(3376), i64, %struct.Memory*) local_unnamed_addr {
block_400478:
  %PC = getelementptr inbounds %struct.State, %struct.State* %0, i64 0, i32 6, i32 33, i32 0, i32 0
  %RBP = getelementptr inbounds %struct.State, %struct.State* %0, i64 0, i32 6, i32 15, i32 0, i32 0
  %3 = load i64, i64* %RBP, align 8
  %4 = add i64 %3, -24
  %5 = load i64, i64* %PC, align 8
  %6 = add i64 %5, 5
  store i64 %6, i64* %PC, align 8
  %7 = inttoptr i64 %4 to i64*
  %8 = load i64, i64* %7, align 8
  %9 = getelementptr inbounds %struct.State, %struct.State* %0, i64 0, i32 1, i64 0, i32 0, i32 0, i32 0, i64 0
  store i64 %8, i64* %9, align 1
  %10 = getelementptr inbounds %struct.State, %struct.State* %0, i64 0, i32 1, i64 0, i32 0, i32 0, i32 0, i64 1
  %11 = bitcast i64* %10 to double*
  store double 0.000000e+00, double* %11, align 1
  ret %struct.Memory* %2
}

define %struct.Memory* @routine_callq_._Z15test_accumulateIPddEvT_S1_T0_PKc(%struct.State* dereferenceable(3376), i64, %struct.Memory*, i64 %rel_off1, i64 %rel_off2, i64 %rel_off3) local_unnamed_addr {
block_400478:
  %PC = getelementptr inbounds %struct.State, %struct.State* %0, i64 0, i32 6, i32 33, i32 0, i32 0
  %3 = load i64, i64* %PC, align 8
  %4 = add i64 %3, %rel_off1
  %5 = add i64 %3, %rel_off2
  %6 = getelementptr inbounds %struct.State, %struct.State* %0, i64 0, i32 6, i32 13, i32 0, i32 0
  %7 = load i64, i64* %6, align 8
  %8 = add i64 %7, -8
  %9 = inttoptr i64 %8 to i64*
  store i64 %5, i64* %9, align 8
  store i64 %8, i64* %6, align 8
  store i64 %4, i64* %PC, align 8
  ret %struct.Memory* %2
}

define %struct.Memory* @routine_movq__0x40687f___rdx(%struct.State* dereferenceable(3376), i64, %struct.Memory*) local_unnamed_addr {
block_400478:
  %PC = getelementptr inbounds %struct.State, %struct.State* %0, i64 0, i32 6, i32 33, i32 0, i32 0
  %RDX = getelementptr inbounds %struct.State, %struct.State* %0, i64 0, i32 6, i32 7, i32 0, i32 0
  %3 = load i64, i64* %PC, align 8
  %4 = add i64 %3, 10
  store i64 %4, i64* %PC, align 8
  store i64 ptrtoint (%G__0x40687f_type* @G__0x40687f to i64), i64* %RDX, align 8
  ret %struct.Memory* %2
}

define %struct.Memory* @routine_movq_0x620830___rcx(%struct.State* dereferenceable(3376), i64, %struct.Memory*) local_unnamed_addr {
block_400478:
  %PC = getelementptr inbounds %struct.State, %struct.State* %0, i64 0, i32 6, i32 33, i32 0, i32 0
  %RCX = getelementptr inbounds %struct.State, %struct.State* %0, i64 0, i32 6, i32 5, i32 0, i32 0
  %3 = load i64, i64* %PC, align 8
  %4 = add i64 %3, 8
  store i64 %4, i64* %PC, align 8
  %5 = load i64, i64* bitcast (%G_0x620830_type* @G_0x620830 to i64*), align 8
  store i64 %5, i64* %RCX, align 8
  ret %struct.Memory* %2
}

define %struct.Memory* @routine_movq__rcx__MINUS0x50__rbp_(%struct.State* dereferenceable(3376), i64, %struct.Memory*) local_unnamed_addr {
block_400478:
  %PC = getelementptr inbounds %struct.State, %struct.State* %0, i64 0, i32 6, i32 33, i32 0, i32 0
  %RCX = getelementptr inbounds %struct.State, %struct.State* %0, i64 0, i32 6, i32 5, i32 0, i32 0
  %RBP = getelementptr inbounds %struct.State, %struct.State* %0, i64 0, i32 6, i32 15, i32 0, i32 0
  %3 = load i64, i64* %RBP, align 8
  %4 = add i64 %3, -80
  %5 = load i64, i64* %RCX, align 8
  %6 = load i64, i64* %PC, align 8
  %7 = add i64 %6, 4
  store i64 %7, i64* %PC, align 8
  %8 = inttoptr i64 %4 to i64*
  store i64 %5, i64* %8, align 8
  ret %struct.Memory* %2
}

define %struct.Memory* @routine_movq_0x620838___rcx(%struct.State* dereferenceable(3376), i64, %struct.Memory*) local_unnamed_addr {
block_400478:
  %PC = getelementptr inbounds %struct.State, %struct.State* %0, i64 0, i32 6, i32 33, i32 0, i32 0
  %RCX = getelementptr inbounds %struct.State, %struct.State* %0, i64 0, i32 6, i32 5, i32 0, i32 0
  %3 = load i64, i64* %PC, align 8
  %4 = add i64 %3, 8
  store i64 %4, i64* %PC, align 8
  %5 = load i64, i64* bitcast (%G_0x620838_type* @G_0x620838 to i64*), align 8
  store i64 %5, i64* %RCX, align 8
  ret %struct.Memory* %2
}

define %struct.Memory* @routine_movq__rcx__MINUS0x58__rbp_(%struct.State* dereferenceable(3376), i64, %struct.Memory*) local_unnamed_addr {
block_400478:
  %PC = getelementptr inbounds %struct.State, %struct.State* %0, i64 0, i32 6, i32 33, i32 0, i32 0
  %RCX = getelementptr inbounds %struct.State, %struct.State* %0, i64 0, i32 6, i32 5, i32 0, i32 0
  %RBP = getelementptr inbounds %struct.State, %struct.State* %0, i64 0, i32 6, i32 15, i32 0, i32 0
  %3 = load i64, i64* %RBP, align 8
  %4 = add i64 %3, -88
  %5 = load i64, i64* %RCX, align 8
  %6 = load i64, i64* %PC, align 8
  %7 = add i64 %6, 4
  store i64 %7, i64* %PC, align 8
  %8 = inttoptr i64 %4 to i64*
  store i64 %5, i64* %8, align 8
  ret %struct.Memory* %2
}

define %struct.Memory* @routine_movq_MINUS0x50__rbp____rdi(%struct.State* dereferenceable(3376), i64, %struct.Memory*) local_unnamed_addr {
block_400478:
  %PC = getelementptr inbounds %struct.State, %struct.State* %0, i64 0, i32 6, i32 33, i32 0, i32 0
  %RDI = getelementptr inbounds %struct.State, %struct.State* %0, i64 0, i32 6, i32 11, i32 0, i32 0
  %RBP = getelementptr inbounds %struct.State, %struct.State* %0, i64 0, i32 6, i32 15, i32 0, i32 0
  %3 = load i64, i64* %RBP, align 8
  %4 = add i64 %3, -80
  %5 = load i64, i64* %PC, align 8
  %6 = add i64 %5, 4
  store i64 %6, i64* %PC, align 8
  %7 = inttoptr i64 %4 to i64*
  %8 = load i64, i64* %7, align 8
  store i64 %8, i64* %RDI, align 8
  ret %struct.Memory* %2
}

define %struct.Memory* @routine_movq_MINUS0x58__rbp____rsi(%struct.State* dereferenceable(3376), i64, %struct.Memory*) local_unnamed_addr {
block_400478:
  %PC = getelementptr inbounds %struct.State, %struct.State* %0, i64 0, i32 6, i32 33, i32 0, i32 0
  %RSI = getelementptr inbounds %struct.State, %struct.State* %0, i64 0, i32 6, i32 9, i32 0, i32 0
  %RBP = getelementptr inbounds %struct.State, %struct.State* %0, i64 0, i32 6, i32 15, i32 0, i32 0
  %3 = load i64, i64* %RBP, align 8
  %4 = add i64 %3, -88
  %5 = load i64, i64* %PC, align 8
  %6 = add i64 %5, 4
  store i64 %6, i64* %PC, align 8
  %7 = inttoptr i64 %4 to i64*
  %8 = load i64, i64* %7, align 8
  store i64 %8, i64* %RSI, align 8
  ret %struct.Memory* %2
}

define %struct.Memory* @routine_callq_._Z15test_accumulateI14PointerWrapperIdEdEvT_S2_T0_PKc(%struct.State* dereferenceable(3376), i64, %struct.Memory*, i64 %rel_off1, i64 %rel_off2, i64 %rel_off3) local_unnamed_addr {
block_400478:
  %PC = getelementptr inbounds %struct.State, %struct.State* %0, i64 0, i32 6, i32 33, i32 0, i32 0
  %3 = load i64, i64* %PC, align 8
  %4 = add i64 %3, %rel_off1
  %5 = add i64 %3, %rel_off2
  %6 = getelementptr inbounds %struct.State, %struct.State* %0, i64 0, i32 6, i32 13, i32 0, i32 0
  %7 = load i64, i64* %6, align 8
  %8 = add i64 %7, -8
  %9 = inttoptr i64 %8 to i64*
  store i64 %5, i64* %9, align 8
  store i64 %8, i64* %6, align 8
  store i64 %4, i64* %PC, align 8
  ret %struct.Memory* %2
}

define %struct.Memory* @routine_movq__0x4068a3___rdx(%struct.State* dereferenceable(3376), i64, %struct.Memory*) local_unnamed_addr {
block_400478:
  %PC = getelementptr inbounds %struct.State, %struct.State* %0, i64 0, i32 6, i32 33, i32 0, i32 0
  %RDX = getelementptr inbounds %struct.State, %struct.State* %0, i64 0, i32 6, i32 7, i32 0, i32 0
  %3 = load i64, i64* %PC, align 8
  %4 = add i64 %3, 10
  store i64 %4, i64* %PC, align 8
  store i64 ptrtoint (%G__0x4068a3_type* @G__0x4068a3 to i64), i64* %RDX, align 8
  ret %struct.Memory* %2
}

define %struct.Memory* @routine_movq_0x6090b8___rdi(%struct.State* dereferenceable(3376), i64, %struct.Memory*) local_unnamed_addr {
block_400478:
  %PC = getelementptr inbounds %struct.State, %struct.State* %0, i64 0, i32 6, i32 33, i32 0, i32 0
  %RDI = getelementptr inbounds %struct.State, %struct.State* %0, i64 0, i32 6, i32 11, i32 0, i32 0
  %3 = load i64, i64* %PC, align 8
  %4 = add i64 %3, 8
  store i64 %4, i64* %PC, align 8
  %5 = load i64, i64* bitcast (%G_0x6090b8_type* @G_0x6090b8 to i64*), align 8
  store i64 %5, i64* %RDI, align 8
  ret %struct.Memory* %2
}

define %struct.Memory* @routine_movq_0x6090c0___rsi(%struct.State* dereferenceable(3376), i64, %struct.Memory*) local_unnamed_addr {
block_400478:
  %PC = getelementptr inbounds %struct.State, %struct.State* %0, i64 0, i32 6, i32 33, i32 0, i32 0
  %RSI = getelementptr inbounds %struct.State, %struct.State* %0, i64 0, i32 6, i32 9, i32 0, i32 0
  %3 = load i64, i64* %PC, align 8
  %4 = add i64 %3, 8
  store i64 %4, i64* %PC, align 8
  %5 = load i64, i64* bitcast (%G_0x6090c0_type* @G_0x6090c0 to i64*), align 8
  store i64 %5, i64* %RSI, align 8
  ret %struct.Memory* %2
}

define %struct.Memory* @routine_movq_MINUS0x20__rbp____rcx(%struct.State* dereferenceable(3376), i64, %struct.Memory*) local_unnamed_addr {
block_400478:
  %PC = getelementptr inbounds %struct.State, %struct.State* %0, i64 0, i32 6, i32 33, i32 0, i32 0
  %RCX = getelementptr inbounds %struct.State, %struct.State* %0, i64 0, i32 6, i32 5, i32 0, i32 0
  %RBP = getelementptr inbounds %struct.State, %struct.State* %0, i64 0, i32 6, i32 15, i32 0, i32 0
  %3 = load i64, i64* %RBP, align 8
  %4 = add i64 %3, -32
  %5 = load i64, i64* %PC, align 8
  %6 = add i64 %5, 4
  store i64 %6, i64* %PC, align 8
  %7 = inttoptr i64 %4 to i64*
  %8 = load i64, i64* %7, align 8
  store i64 %8, i64* %RCX, align 8
  ret %struct.Memory* %2
}

define %struct.Memory* @routine_movq__rcx__MINUS0x60__rbp_(%struct.State* dereferenceable(3376), i64, %struct.Memory*) local_unnamed_addr {
block_400478:
  %PC = getelementptr inbounds %struct.State, %struct.State* %0, i64 0, i32 6, i32 33, i32 0, i32 0
  %RCX = getelementptr inbounds %struct.State, %struct.State* %0, i64 0, i32 6, i32 5, i32 0, i32 0
  %RBP = getelementptr inbounds %struct.State, %struct.State* %0, i64 0, i32 6, i32 15, i32 0, i32 0
  %3 = load i64, i64* %RBP, align 8
  %4 = add i64 %3, -96
  %5 = load i64, i64* %RCX, align 8
  %6 = load i64, i64* %PC, align 8
  %7 = add i64 %6, 4
  store i64 %7, i64* %PC, align 8
  %8 = inttoptr i64 %4 to i64*
  store i64 %5, i64* %8, align 8
  ret %struct.Memory* %2
}

define %struct.Memory* @routine_movsd_MINUS0x60__rbp____xmm0(%struct.State* dereferenceable(3376), i64, %struct.Memory*) local_unnamed_addr {
block_400478:
  %PC = getelementptr inbounds %struct.State, %struct.State* %0, i64 0, i32 6, i32 33, i32 0, i32 0
  %RBP = getelementptr inbounds %struct.State, %struct.State* %0, i64 0, i32 6, i32 15, i32 0, i32 0
  %3 = load i64, i64* %RBP, align 8
  %4 = add i64 %3, -96
  %5 = load i64, i64* %PC, align 8
  %6 = add i64 %5, 5
  store i64 %6, i64* %PC, align 8
  %7 = inttoptr i64 %4 to i64*
  %8 = load i64, i64* %7, align 8
  %9 = getelementptr inbounds %struct.State, %struct.State* %0, i64 0, i32 1, i64 0, i32 0, i32 0, i32 0, i64 0
  store i64 %8, i64* %9, align 1
  %10 = getelementptr inbounds %struct.State, %struct.State* %0, i64 0, i32 1, i64 0, i32 0, i32 0, i32 0, i64 1
  %11 = bitcast i64* %10 to double*
  store double 0.000000e+00, double* %11, align 1
  ret %struct.Memory* %2
}

define %struct.Memory* @routine_callq_._Z15test_accumulateIP12ValueWrapperIdES1_EvT_S3_T0_PKc(%struct.State* dereferenceable(3376), i64, %struct.Memory*, i64 %rel_off1, i64 %rel_off2, i64 %rel_off3) local_unnamed_addr {
block_400478:
  %PC = getelementptr inbounds %struct.State, %struct.State* %0, i64 0, i32 6, i32 33, i32 0, i32 0
  %3 = load i64, i64* %PC, align 8
  %4 = add i64 %3, %rel_off1
  %5 = add i64 %3, %rel_off2
  %6 = getelementptr inbounds %struct.State, %struct.State* %0, i64 0, i32 6, i32 13, i32 0, i32 0
  %7 = load i64, i64* %6, align 8
  %8 = add i64 %7, -8
  %9 = inttoptr i64 %8 to i64*
  store i64 %5, i64* %9, align 8
  store i64 %8, i64* %6, align 8
  store i64 %4, i64* %PC, align 8
  ret %struct.Memory* %2
}

define %struct.Memory* @routine_movq__0x4068cd___rdx(%struct.State* dereferenceable(3376), i64, %struct.Memory*) local_unnamed_addr {
block_400478:
  %PC = getelementptr inbounds %struct.State, %struct.State* %0, i64 0, i32 6, i32 33, i32 0, i32 0
  %RDX = getelementptr inbounds %struct.State, %struct.State* %0, i64 0, i32 6, i32 7, i32 0, i32 0
  %3 = load i64, i64* %PC, align 8
  %4 = add i64 %3, 10
  store i64 %4, i64* %PC, align 8
  store i64 ptrtoint (%G__0x4068cd_type* @G__0x4068cd to i64), i64* %RDX, align 8
  ret %struct.Memory* %2
}

define %struct.Memory* @routine_movq_0x620850___rcx(%struct.State* dereferenceable(3376), i64, %struct.Memory*) local_unnamed_addr {
block_400478:
  %PC = getelementptr inbounds %struct.State, %struct.State* %0, i64 0, i32 6, i32 33, i32 0, i32 0
  %RCX = getelementptr inbounds %struct.State, %struct.State* %0, i64 0, i32 6, i32 5, i32 0, i32 0
  %3 = load i64, i64* %PC, align 8
  %4 = add i64 %3, 8
  store i64 %4, i64* %PC, align 8
  %5 = load i64, i64* bitcast (%G_0x620850_type* @G_0x620850 to i64*), align 8
  store i64 %5, i64* %RCX, align 8
  ret %struct.Memory* %2
}

define %struct.Memory* @routine_movq__rcx__MINUS0x68__rbp_(%struct.State* dereferenceable(3376), i64, %struct.Memory*) local_unnamed_addr {
block_400478:
  %PC = getelementptr inbounds %struct.State, %struct.State* %0, i64 0, i32 6, i32 33, i32 0, i32 0
  %RCX = getelementptr inbounds %struct.State, %struct.State* %0, i64 0, i32 6, i32 5, i32 0, i32 0
  %RBP = getelementptr inbounds %struct.State, %struct.State* %0, i64 0, i32 6, i32 15, i32 0, i32 0
  %3 = load i64, i64* %RBP, align 8
  %4 = add i64 %3, -104
  %5 = load i64, i64* %RCX, align 8
  %6 = load i64, i64* %PC, align 8
  %7 = add i64 %6, 4
  store i64 %7, i64* %PC, align 8
  %8 = inttoptr i64 %4 to i64*
  store i64 %5, i64* %8, align 8
  ret %struct.Memory* %2
}

define %struct.Memory* @routine_movq_0x620858___rcx(%struct.State* dereferenceable(3376), i64, %struct.Memory*) local_unnamed_addr {
block_400478:
  %PC = getelementptr inbounds %struct.State, %struct.State* %0, i64 0, i32 6, i32 33, i32 0, i32 0
  %RCX = getelementptr inbounds %struct.State, %struct.State* %0, i64 0, i32 6, i32 5, i32 0, i32 0
  %3 = load i64, i64* %PC, align 8
  %4 = add i64 %3, 8
  store i64 %4, i64* %PC, align 8
  %5 = load i64, i64* bitcast (%G_0x620858_type* @G_0x620858 to i64*), align 8
  store i64 %5, i64* %RCX, align 8
  ret %struct.Memory* %2
}

define %struct.Memory* @routine_movq__rcx__MINUS0x70__rbp_(%struct.State* dereferenceable(3376), i64, %struct.Memory*) local_unnamed_addr {
block_400478:
  %PC = getelementptr inbounds %struct.State, %struct.State* %0, i64 0, i32 6, i32 33, i32 0, i32 0
  %RCX = getelementptr inbounds %struct.State, %struct.State* %0, i64 0, i32 6, i32 5, i32 0, i32 0
  %RBP = getelementptr inbounds %struct.State, %struct.State* %0, i64 0, i32 6, i32 15, i32 0, i32 0
  %3 = load i64, i64* %RBP, align 8
  %4 = add i64 %3, -112
  %5 = load i64, i64* %RCX, align 8
  %6 = load i64, i64* %PC, align 8
  %7 = add i64 %6, 4
  store i64 %7, i64* %PC, align 8
  %8 = inttoptr i64 %4 to i64*
  store i64 %5, i64* %8, align 8
  ret %struct.Memory* %2
}

define %struct.Memory* @routine_movq__rcx__MINUS0x78__rbp_(%struct.State* dereferenceable(3376), i64, %struct.Memory*) local_unnamed_addr {
block_400478:
  %PC = getelementptr inbounds %struct.State, %struct.State* %0, i64 0, i32 6, i32 33, i32 0, i32 0
  %RCX = getelementptr inbounds %struct.State, %struct.State* %0, i64 0, i32 6, i32 5, i32 0, i32 0
  %RBP = getelementptr inbounds %struct.State, %struct.State* %0, i64 0, i32 6, i32 15, i32 0, i32 0
  %3 = load i64, i64* %RBP, align 8
  %4 = add i64 %3, -120
  %5 = load i64, i64* %RCX, align 8
  %6 = load i64, i64* %PC, align 8
  %7 = add i64 %6, 4
  store i64 %7, i64* %PC, align 8
  %8 = inttoptr i64 %4 to i64*
  store i64 %5, i64* %8, align 8
  ret %struct.Memory* %2
}

define %struct.Memory* @routine_movq_MINUS0x68__rbp____rdi(%struct.State* dereferenceable(3376), i64, %struct.Memory*) local_unnamed_addr {
block_400478:
  %PC = getelementptr inbounds %struct.State, %struct.State* %0, i64 0, i32 6, i32 33, i32 0, i32 0
  %RDI = getelementptr inbounds %struct.State, %struct.State* %0, i64 0, i32 6, i32 11, i32 0, i32 0
  %RBP = getelementptr inbounds %struct.State, %struct.State* %0, i64 0, i32 6, i32 15, i32 0, i32 0
  %3 = load i64, i64* %RBP, align 8
  %4 = add i64 %3, -104
  %5 = load i64, i64* %PC, align 8
  %6 = add i64 %5, 4
  store i64 %6, i64* %PC, align 8
  %7 = inttoptr i64 %4 to i64*
  %8 = load i64, i64* %7, align 8
  store i64 %8, i64* %RDI, align 8
  ret %struct.Memory* %2
}

define %struct.Memory* @routine_movq_MINUS0x70__rbp____rsi(%struct.State* dereferenceable(3376), i64, %struct.Memory*) local_unnamed_addr {
block_400478:
  %PC = getelementptr inbounds %struct.State, %struct.State* %0, i64 0, i32 6, i32 33, i32 0, i32 0
  %RSI = getelementptr inbounds %struct.State, %struct.State* %0, i64 0, i32 6, i32 9, i32 0, i32 0
  %RBP = getelementptr inbounds %struct.State, %struct.State* %0, i64 0, i32 6, i32 15, i32 0, i32 0
  %3 = load i64, i64* %RBP, align 8
  %4 = add i64 %3, -112
  %5 = load i64, i64* %PC, align 8
  %6 = add i64 %5, 4
  store i64 %6, i64* %PC, align 8
  %7 = inttoptr i64 %4 to i64*
  %8 = load i64, i64* %7, align 8
  store i64 %8, i64* %RSI, align 8
  ret %struct.Memory* %2
}

define %struct.Memory* @routine_movsd_MINUS0x78__rbp____xmm0(%struct.State* dereferenceable(3376), i64, %struct.Memory*) local_unnamed_addr {
block_400478:
  %PC = getelementptr inbounds %struct.State, %struct.State* %0, i64 0, i32 6, i32 33, i32 0, i32 0
  %RBP = getelementptr inbounds %struct.State, %struct.State* %0, i64 0, i32 6, i32 15, i32 0, i32 0
  %3 = load i64, i64* %RBP, align 8
  %4 = add i64 %3, -120
  %5 = load i64, i64* %PC, align 8
  %6 = add i64 %5, 5
  store i64 %6, i64* %PC, align 8
  %7 = inttoptr i64 %4 to i64*
  %8 = load i64, i64* %7, align 8
  %9 = getelementptr inbounds %struct.State, %struct.State* %0, i64 0, i32 1, i64 0, i32 0, i32 0, i32 0, i64 0
  store i64 %8, i64* %9, align 1
  %10 = getelementptr inbounds %struct.State, %struct.State* %0, i64 0, i32 1, i64 0, i32 0, i32 0, i32 0, i64 1
  %11 = bitcast i64* %10 to double*
  store double 0.000000e+00, double* %11, align 1
  ret %struct.Memory* %2
}

define %struct.Memory* @routine_callq_._Z15test_accumulateI14PointerWrapperI12ValueWrapperIdEES2_EvT_S4_T0_PKc(%struct.State* dereferenceable(3376), i64, %struct.Memory*, i64 %rel_off1, i64 %rel_off2, i64 %rel_off3) local_unnamed_addr {
block_400478:
  %PC = getelementptr inbounds %struct.State, %struct.State* %0, i64 0, i32 6, i32 33, i32 0, i32 0
  %3 = load i64, i64* %PC, align 8
  %4 = add i64 %3, %rel_off1
  %5 = add i64 %3, %rel_off2
  %6 = getelementptr inbounds %struct.State, %struct.State* %0, i64 0, i32 6, i32 13, i32 0, i32 0
  %7 = load i64, i64* %6, align 8
  %8 = add i64 %7, -8
  %9 = inttoptr i64 %8 to i64*
  store i64 %5, i64* %9, align 8
  store i64 %8, i64* %6, align 8
  store i64 %4, i64* %PC, align 8
  ret %struct.Memory* %2
}

define %struct.Memory* @routine_movq__0x4068fd___rdx(%struct.State* dereferenceable(3376), i64, %struct.Memory*) local_unnamed_addr {
block_400478:
  %PC = getelementptr inbounds %struct.State, %struct.State* %0, i64 0, i32 6, i32 33, i32 0, i32 0
  %RDX = getelementptr inbounds %struct.State, %struct.State* %0, i64 0, i32 6, i32 7, i32 0, i32 0
  %3 = load i64, i64* %PC, align 8
  %4 = add i64 %3, 10
  store i64 %4, i64* %PC, align 8
  store i64 ptrtoint (%G__0x4068fd_type* @G__0x4068fd to i64), i64* %RDX, align 8
  ret %struct.Memory* %2
}

define %struct.Memory* @routine_movq_0x6090d8___rdi(%struct.State* dereferenceable(3376), i64, %struct.Memory*) local_unnamed_addr {
block_400478:
  %PC = getelementptr inbounds %struct.State, %struct.State* %0, i64 0, i32 6, i32 33, i32 0, i32 0
  %RDI = getelementptr inbounds %struct.State, %struct.State* %0, i64 0, i32 6, i32 11, i32 0, i32 0
  %3 = load i64, i64* %PC, align 8
  %4 = add i64 %3, 8
  store i64 %4, i64* %PC, align 8
  %5 = load i64, i64* bitcast (%G_0x6090d8_type* @G_0x6090d8 to i64*), align 8
  store i64 %5, i64* %RDI, align 8
  ret %struct.Memory* %2
}

define %struct.Memory* @routine_movq_0x6090e0___rsi(%struct.State* dereferenceable(3376), i64, %struct.Memory*) local_unnamed_addr {
block_400478:
  %PC = getelementptr inbounds %struct.State, %struct.State* %0, i64 0, i32 6, i32 33, i32 0, i32 0
  %RSI = getelementptr inbounds %struct.State, %struct.State* %0, i64 0, i32 6, i32 9, i32 0, i32 0
  %3 = load i64, i64* %PC, align 8
  %4 = add i64 %3, 8
  store i64 %4, i64* %PC, align 8
  %5 = load i64, i64* bitcast (%G_0x6090e0_type* @G_0x6090e0 to i64*), align 8
  store i64 %5, i64* %RSI, align 8
  ret %struct.Memory* %2
}

define %struct.Memory* @routine_movq_MINUS0x30__rbp____rcx(%struct.State* dereferenceable(3376), i64, %struct.Memory*) local_unnamed_addr {
block_400478:
  %PC = getelementptr inbounds %struct.State, %struct.State* %0, i64 0, i32 6, i32 33, i32 0, i32 0
  %RCX = getelementptr inbounds %struct.State, %struct.State* %0, i64 0, i32 6, i32 5, i32 0, i32 0
  %RBP = getelementptr inbounds %struct.State, %struct.State* %0, i64 0, i32 6, i32 15, i32 0, i32 0
  %3 = load i64, i64* %RBP, align 8
  %4 = add i64 %3, -48
  %5 = load i64, i64* %PC, align 8
  %6 = add i64 %5, 4
  store i64 %6, i64* %PC, align 8
  %7 = inttoptr i64 %4 to i64*
  %8 = load i64, i64* %7, align 8
  store i64 %8, i64* %RCX, align 8
  ret %struct.Memory* %2
}

define %struct.Memory* @routine_movq__rcx__MINUS0x80__rbp_(%struct.State* dereferenceable(3376), i64, %struct.Memory*) local_unnamed_addr {
block_400478:
  %PC = getelementptr inbounds %struct.State, %struct.State* %0, i64 0, i32 6, i32 33, i32 0, i32 0
  %RCX = getelementptr inbounds %struct.State, %struct.State* %0, i64 0, i32 6, i32 5, i32 0, i32 0
  %RBP = getelementptr inbounds %struct.State, %struct.State* %0, i64 0, i32 6, i32 15, i32 0, i32 0
  %3 = load i64, i64* %RBP, align 8
  %4 = add i64 %3, -128
  %5 = load i64, i64* %RCX, align 8
  %6 = load i64, i64* %PC, align 8
  %7 = add i64 %6, 4
  store i64 %7, i64* %PC, align 8
  %8 = inttoptr i64 %4 to i64*
  store i64 %5, i64* %8, align 8
  ret %struct.Memory* %2
}

define %struct.Memory* @routine_movsd_MINUS0x80__rbp____xmm0(%struct.State* dereferenceable(3376), i64, %struct.Memory*) local_unnamed_addr {
block_400478:
  %PC = getelementptr inbounds %struct.State, %struct.State* %0, i64 0, i32 6, i32 33, i32 0, i32 0
  %RBP = getelementptr inbounds %struct.State, %struct.State* %0, i64 0, i32 6, i32 15, i32 0, i32 0
  %3 = load i64, i64* %RBP, align 8
  %4 = add i64 %3, -128
  %5 = load i64, i64* %PC, align 8
  %6 = add i64 %5, 5
  store i64 %6, i64* %PC, align 8
  %7 = inttoptr i64 %4 to i64*
  %8 = load i64, i64* %7, align 8
  %9 = getelementptr inbounds %struct.State, %struct.State* %0, i64 0, i32 1, i64 0, i32 0, i32 0, i32 0, i64 0
  store i64 %8, i64* %9, align 1
  %10 = getelementptr inbounds %struct.State, %struct.State* %0, i64 0, i32 1, i64 0, i32 0, i32 0, i32 0, i64 1
  %11 = bitcast i64* %10 to double*
  store double 0.000000e+00, double* %11, align 1
  ret %struct.Memory* %2
}

define %struct.Memory* @routine_callq_._Z15test_accumulateIP12ValueWrapperIS0_IS0_IS0_IS0_IS0_IS0_IS0_IS0_IS0_IdEEEEEEEEEESA_EvT_SC_T0_PKc(%struct.State* dereferenceable(3376), i64, %struct.Memory*, i64 %rel_off1, i64 %rel_off2, i64 %rel_off3) local_unnamed_addr {
block_400478:
  %PC = getelementptr inbounds %struct.State, %struct.State* %0, i64 0, i32 6, i32 33, i32 0, i32 0
  %3 = load i64, i64* %PC, align 8
  %4 = add i64 %3, %rel_off1
  %5 = add i64 %3, %rel_off2
  %6 = getelementptr inbounds %struct.State, %struct.State* %0, i64 0, i32 6, i32 13, i32 0, i32 0
  %7 = load i64, i64* %6, align 8
  %8 = add i64 %7, -8
  %9 = inttoptr i64 %8 to i64*
  store i64 %5, i64* %9, align 8
  store i64 %8, i64* %6, align 8
  store i64 %4, i64* %PC, align 8
  ret %struct.Memory* %2
}

define %struct.Memory* @routine_movq__0x406929___rdx(%struct.State* dereferenceable(3376), i64, %struct.Memory*) local_unnamed_addr {
block_400478:
  %PC = getelementptr inbounds %struct.State, %struct.State* %0, i64 0, i32 6, i32 33, i32 0, i32 0
  %RDX = getelementptr inbounds %struct.State, %struct.State* %0, i64 0, i32 6, i32 7, i32 0, i32 0
  %3 = load i64, i64* %PC, align 8
  %4 = add i64 %3, 10
  store i64 %4, i64* %PC, align 8
  store i64 ptrtoint (%G__0x406929_type* @G__0x406929 to i64), i64* %RDX, align 8
  ret %struct.Memory* %2
}

define %struct.Memory* @routine_movq_0x620870___rcx(%struct.State* dereferenceable(3376), i64, %struct.Memory*) local_unnamed_addr {
block_400478:
  %PC = getelementptr inbounds %struct.State, %struct.State* %0, i64 0, i32 6, i32 33, i32 0, i32 0
  %RCX = getelementptr inbounds %struct.State, %struct.State* %0, i64 0, i32 6, i32 5, i32 0, i32 0
  %3 = load i64, i64* %PC, align 8
  %4 = add i64 %3, 8
  store i64 %4, i64* %PC, align 8
  %5 = load i64, i64* bitcast (%G_0x620870_type* @G_0x620870 to i64*), align 8
  store i64 %5, i64* %RCX, align 8
  ret %struct.Memory* %2
}

define %struct.Memory* @routine_movq__rcx__MINUS0x88__rbp_(%struct.State* dereferenceable(3376), i64, %struct.Memory*) local_unnamed_addr {
block_400478:
  %PC = getelementptr inbounds %struct.State, %struct.State* %0, i64 0, i32 6, i32 33, i32 0, i32 0
  %RCX = getelementptr inbounds %struct.State, %struct.State* %0, i64 0, i32 6, i32 5, i32 0, i32 0
  %RBP = getelementptr inbounds %struct.State, %struct.State* %0, i64 0, i32 6, i32 15, i32 0, i32 0
  %3 = load i64, i64* %RBP, align 8
  %4 = add i64 %3, -136
  %5 = load i64, i64* %RCX, align 8
  %6 = load i64, i64* %PC, align 8
  %7 = add i64 %6, 7
  store i64 %7, i64* %PC, align 8
  %8 = inttoptr i64 %4 to i64*
  store i64 %5, i64* %8, align 8
  ret %struct.Memory* %2
}

define %struct.Memory* @routine_movq_0x620878___rcx(%struct.State* dereferenceable(3376), i64, %struct.Memory*) local_unnamed_addr {
block_400478:
  %PC = getelementptr inbounds %struct.State, %struct.State* %0, i64 0, i32 6, i32 33, i32 0, i32 0
  %RCX = getelementptr inbounds %struct.State, %struct.State* %0, i64 0, i32 6, i32 5, i32 0, i32 0
  %3 = load i64, i64* %PC, align 8
  %4 = add i64 %3, 8
  store i64 %4, i64* %PC, align 8
  %5 = load i64, i64* bitcast (%G_0x620878_type* @G_0x620878 to i64*), align 8
  store i64 %5, i64* %RCX, align 8
  ret %struct.Memory* %2
}

define %struct.Memory* @routine_movq__rcx__MINUS0x90__rbp_(%struct.State* dereferenceable(3376), i64, %struct.Memory*) local_unnamed_addr {
block_400478:
  %PC = getelementptr inbounds %struct.State, %struct.State* %0, i64 0, i32 6, i32 33, i32 0, i32 0
  %RCX = getelementptr inbounds %struct.State, %struct.State* %0, i64 0, i32 6, i32 5, i32 0, i32 0
  %RBP = getelementptr inbounds %struct.State, %struct.State* %0, i64 0, i32 6, i32 15, i32 0, i32 0
  %3 = load i64, i64* %RBP, align 8
  %4 = add i64 %3, -144
  %5 = load i64, i64* %RCX, align 8
  %6 = load i64, i64* %PC, align 8
  %7 = add i64 %6, 7
  store i64 %7, i64* %PC, align 8
  %8 = inttoptr i64 %4 to i64*
  store i64 %5, i64* %8, align 8
  ret %struct.Memory* %2
}

define %struct.Memory* @routine_movq__rcx__MINUS0x98__rbp_(%struct.State* dereferenceable(3376), i64, %struct.Memory*) local_unnamed_addr {
block_400478:
  %PC = getelementptr inbounds %struct.State, %struct.State* %0, i64 0, i32 6, i32 33, i32 0, i32 0
  %RCX = getelementptr inbounds %struct.State, %struct.State* %0, i64 0, i32 6, i32 5, i32 0, i32 0
  %RBP = getelementptr inbounds %struct.State, %struct.State* %0, i64 0, i32 6, i32 15, i32 0, i32 0
  %3 = load i64, i64* %RBP, align 8
  %4 = add i64 %3, -152
  %5 = load i64, i64* %RCX, align 8
  %6 = load i64, i64* %PC, align 8
  %7 = add i64 %6, 7
  store i64 %7, i64* %PC, align 8
  %8 = inttoptr i64 %4 to i64*
  store i64 %5, i64* %8, align 8
  ret %struct.Memory* %2
}

define %struct.Memory* @routine_movq_MINUS0x88__rbp____rdi(%struct.State* dereferenceable(3376), i64, %struct.Memory*) local_unnamed_addr {
block_400478:
  %PC = getelementptr inbounds %struct.State, %struct.State* %0, i64 0, i32 6, i32 33, i32 0, i32 0
  %RDI = getelementptr inbounds %struct.State, %struct.State* %0, i64 0, i32 6, i32 11, i32 0, i32 0
  %RBP = getelementptr inbounds %struct.State, %struct.State* %0, i64 0, i32 6, i32 15, i32 0, i32 0
  %3 = load i64, i64* %RBP, align 8
  %4 = add i64 %3, -136
  %5 = load i64, i64* %PC, align 8
  %6 = add i64 %5, 7
  store i64 %6, i64* %PC, align 8
  %7 = inttoptr i64 %4 to i64*
  %8 = load i64, i64* %7, align 8
  store i64 %8, i64* %RDI, align 8
  ret %struct.Memory* %2
}

define %struct.Memory* @routine_movq_MINUS0x90__rbp____rsi(%struct.State* dereferenceable(3376), i64, %struct.Memory*) local_unnamed_addr {
block_400478:
  %PC = getelementptr inbounds %struct.State, %struct.State* %0, i64 0, i32 6, i32 33, i32 0, i32 0
  %RSI = getelementptr inbounds %struct.State, %struct.State* %0, i64 0, i32 6, i32 9, i32 0, i32 0
  %RBP = getelementptr inbounds %struct.State, %struct.State* %0, i64 0, i32 6, i32 15, i32 0, i32 0
  %3 = load i64, i64* %RBP, align 8
  %4 = add i64 %3, -144
  %5 = load i64, i64* %PC, align 8
  %6 = add i64 %5, 7
  store i64 %6, i64* %PC, align 8
  %7 = inttoptr i64 %4 to i64*
  %8 = load i64, i64* %7, align 8
  store i64 %8, i64* %RSI, align 8
  ret %struct.Memory* %2
}

define %struct.Memory* @routine_movsd_MINUS0x98__rbp____xmm0(%struct.State* dereferenceable(3376), i64, %struct.Memory*) local_unnamed_addr {
block_400478:
  %PC = getelementptr inbounds %struct.State, %struct.State* %0, i64 0, i32 6, i32 33, i32 0, i32 0
  %RBP = getelementptr inbounds %struct.State, %struct.State* %0, i64 0, i32 6, i32 15, i32 0, i32 0
  %3 = load i64, i64* %RBP, align 8
  %4 = add i64 %3, -152
  %5 = load i64, i64* %PC, align 8
  %6 = add i64 %5, 8
  store i64 %6, i64* %PC, align 8
  %7 = inttoptr i64 %4 to i64*
  %8 = load i64, i64* %7, align 8
  %9 = getelementptr inbounds %struct.State, %struct.State* %0, i64 0, i32 1, i64 0, i32 0, i32 0, i32 0, i64 0
  store i64 %8, i64* %9, align 1
  %10 = getelementptr inbounds %struct.State, %struct.State* %0, i64 0, i32 1, i64 0, i32 0, i32 0, i32 0, i64 1
  %11 = bitcast i64* %10 to double*
  store double 0.000000e+00, double* %11, align 1
  ret %struct.Memory* %2
}

define %struct.Memory* @routine_callq_._Z15test_accumulateI14PointerWrapperI12ValueWrapperIS1_IS1_IS1_IS1_IS1_IS1_IS1_IS1_IS1_IdEEEEEEEEEEESB_EvT_SD_T0_PKc(%struct.State* dereferenceable(3376), i64, %struct.Memory*, i64 %rel_off1, i64 %rel_off2, i64 %rel_off3) local_unnamed_addr {
block_400478:
  %PC = getelementptr inbounds %struct.State, %struct.State* %0, i64 0, i32 6, i32 33, i32 0, i32 0
  %3 = load i64, i64* %PC, align 8
  %4 = add i64 %3, %rel_off1
  %5 = add i64 %3, %rel_off2
  %6 = getelementptr inbounds %struct.State, %struct.State* %0, i64 0, i32 6, i32 13, i32 0, i32 0
  %7 = load i64, i64* %6, align 8
  %8 = add i64 %7, -8
  %9 = inttoptr i64 %8 to i64*
  store i64 %5, i64* %9, align 8
  store i64 %8, i64* %6, align 8
  store i64 %4, i64* %PC, align 8
  ret %struct.Memory* %2
}

define %struct.Memory* @routine_movl__0x7d0___eax(%struct.State* dereferenceable(3376), i64, %struct.Memory*) local_unnamed_addr {
block_400478:
  %PC = getelementptr inbounds %struct.State, %struct.State* %0, i64 0, i32 6, i32 33, i32 0, i32 0
  %RAX = getelementptr inbounds %struct.State, %struct.State* %0, i64 0, i32 6, i32 1, i32 0, i32 0
  %3 = load i64, i64* %PC, align 8
  %4 = add i64 %3, 5
  store i64 %4, i64* %PC, align 8
  store i64 2000, i64* %RAX, align 8
  ret %struct.Memory* %2
}

define %struct.Memory* @routine_movl_0x609088___r8d(%struct.State* dereferenceable(3376), i64, %struct.Memory*) local_unnamed_addr {
block_400478:
  %PC = getelementptr inbounds %struct.State, %struct.State* %0, i64 0, i32 6, i32 33, i32 0, i32 0
  %3 = getelementptr inbounds %struct.State, %struct.State* %0, i64 0, i32 6, i32 17, i32 0, i32 0
  %4 = load i64, i64* %PC, align 8
  %5 = add i64 %4, 8
  store i64 %5, i64* %PC, align 8
  %6 = load i32, i32* bitcast (%G_0x609088_type* @G_0x609088 to i32*), align 8
  %7 = zext i32 %6 to i64
  store i64 %7, i64* %3, align 8
  ret %struct.Memory* %2
}

define %struct.Memory* @routine_movl__eax__MINUS0x23c__rbp_(%struct.State* dereferenceable(3376), i64, %struct.Memory*) local_unnamed_addr {
block_400478:
  %PC = getelementptr inbounds %struct.State, %struct.State* %0, i64 0, i32 6, i32 33, i32 0, i32 0
  %3 = getelementptr inbounds %struct.State, %struct.State* %0, i64 0, i32 6, i32 1, i32 0
  %EAX = bitcast %union.anon* %3 to i32*
  %RBP = getelementptr inbounds %struct.State, %struct.State* %0, i64 0, i32 6, i32 15, i32 0, i32 0
  %4 = load i64, i64* %RBP, align 8
  %5 = add i64 %4, -572
  %6 = load i32, i32* %EAX, align 4
  %7 = load i64, i64* %PC, align 8
  %8 = add i64 %7, 6
  store i64 %8, i64* %PC, align 8
  %9 = inttoptr i64 %5 to i32*
  store i32 %6, i32* %9, align 4
  ret %struct.Memory* %2
}

define %struct.Memory* @routine_movl__r8d___eax(%struct.State* dereferenceable(3376), i64, %struct.Memory*) local_unnamed_addr {
block_400478:
  %PC = getelementptr inbounds %struct.State, %struct.State* %0, i64 0, i32 6, i32 33, i32 0, i32 0
  %3 = getelementptr inbounds %struct.State, %struct.State* %0, i64 0, i32 6, i32 17, i32 0
  %R8D = bitcast %union.anon* %3 to i32*
  %RAX = getelementptr inbounds %struct.State, %struct.State* %0, i64 0, i32 6, i32 1, i32 0, i32 0
  %4 = load i32, i32* %R8D, align 4
  %5 = zext i32 %4 to i64
  %6 = load i64, i64* %PC, align 8
  %7 = add i64 %6, 3
  store i64 %7, i64* %PC, align 8
  store i64 %5, i64* %RAX, align 8
  ret %struct.Memory* %2
}

define %struct.Memory* @routine_cltd(%struct.State* dereferenceable(3376), i64, %struct.Memory*) local_unnamed_addr {
block_400478:
  %PC = getelementptr inbounds %struct.State, %struct.State* %0, i64 0, i32 6, i32 33, i32 0, i32 0
  %3 = load i64, i64* %PC, align 8
  %4 = add i64 %3, 1
  store i64 %4, i64* %PC, align 8
  %5 = getelementptr inbounds %struct.State, %struct.State* %0, i64 0, i32 6, i32 7, i32 0, i32 0
  %6 = getelementptr inbounds %struct.State, %struct.State* %0, i64 0, i32 6, i32 1, i32 0
  %7 = bitcast %union.anon* %6 to i32*
  %8 = load i32, i32* %7, align 8
  %9 = sext i32 %8 to i64
  %10 = lshr i64 %9, 32
  store i64 %10, i64* %5, align 8
  ret %struct.Memory* %2
}

define %struct.Memory* @routine_movl_MINUS0x23c__rbp____r8d(%struct.State* dereferenceable(3376), i64, %struct.Memory*) local_unnamed_addr {
block_400478:
  %PC = getelementptr inbounds %struct.State, %struct.State* %0, i64 0, i32 6, i32 33, i32 0, i32 0
  %RBP = getelementptr inbounds %struct.State, %struct.State* %0, i64 0, i32 6, i32 15, i32 0, i32 0
  %3 = getelementptr inbounds %struct.State, %struct.State* %0, i64 0, i32 6, i32 17, i32 0, i32 0
  %4 = load i64, i64* %RBP, align 8
  %5 = add i64 %4, -572
  %6 = load i64, i64* %PC, align 8
  %7 = add i64 %6, 7
  store i64 %7, i64* %PC, align 8
  %8 = inttoptr i64 %5 to i32*
  %9 = load i32, i32* %8, align 4
  %10 = zext i32 %9 to i64
  store i64 %10, i64* %3, align 8
  ret %struct.Memory* %2
}

define %struct.Memory* @routine_idivl__r8d(%struct.State* dereferenceable(3376), i64, %struct.Memory*) local_unnamed_addr {
block_400478:
  %PC = getelementptr inbounds %struct.State, %struct.State* %0, i64 0, i32 6, i32 33, i32 0, i32 0
  %3 = getelementptr inbounds %struct.State, %struct.State* %0, i64 0, i32 6, i32 17, i32 0
  %R8D = bitcast %union.anon* %3 to i32*
  %4 = load i32, i32* %R8D, align 4
  %5 = load i64, i64* %PC, align 8
  %6 = add i64 %5, 3
  store i64 %6, i64* %PC, align 8
  %7 = getelementptr inbounds %struct.State, %struct.State* %0, i64 0, i32 6, i32 1, i32 0
  %8 = bitcast %union.anon* %7 to i32*
  %9 = load i32, i32* %8, align 8
  %10 = zext i32 %9 to i64
  %11 = getelementptr inbounds %struct.State, %struct.State* %0, i64 0, i32 6, i32 7, i32 0
  %12 = bitcast %union.anon* %11 to i32*
  %13 = load i32, i32* %12, align 8
  %14 = zext i32 %13 to i64
  %15 = sext i32 %4 to i64
  %16 = shl nuw i64 %14, 32
  %17 = or i64 %16, %10
  %18 = sdiv i64 %17, %15
  %19 = shl i64 %18, 32
  %20 = ashr exact i64 %19, 32
  %21 = icmp eq i64 %18, %20
  br i1 %21, label %24, label %22

; <label>:22:                                     ; preds = %block_400478
  %23 = tail call %struct.Memory* @__remill_error(%struct.State* nonnull dereferenceable(3376) %0, i64 %6, %struct.Memory* %2)
  br label %_ZN12_GLOBAL__N_1L10IDIVedxeaxI2RnIjEEEP6MemoryS4_R5StateT_.exit

; <label>:24:                                     ; preds = %block_400478
  %25 = srem i64 %17, %15
  %26 = getelementptr inbounds %union.anon, %union.anon* %7, i64 0, i32 0
  %27 = and i64 %18, 4294967295
  store i64 %27, i64* %26, align 8
  %28 = getelementptr inbounds %union.anon, %union.anon* %11, i64 0, i32 0
  %29 = and i64 %25, 4294967295
  store i64 %29, i64* %28, align 8
  %30 = getelementptr inbounds %struct.State, %struct.State* %0, i64 0, i32 2, i32 1
  store i8 0, i8* %30, align 1
  %31 = getelementptr inbounds %struct.State, %struct.State* %0, i64 0, i32 2, i32 3
  store i8 0, i8* %31, align 1
  %32 = getelementptr inbounds %struct.State, %struct.State* %0, i64 0, i32 2, i32 5
  store i8 0, i8* %32, align 1
  %33 = getelementptr inbounds %struct.State, %struct.State* %0, i64 0, i32 2, i32 7
  store i8 0, i8* %33, align 1
  %34 = getelementptr inbounds %struct.State, %struct.State* %0, i64 0, i32 2, i32 9
  store i8 0, i8* %34, align 1
  %35 = getelementptr inbounds %struct.State, %struct.State* %0, i64 0, i32 2, i32 13
  store i8 0, i8* %35, align 1
  br label %_ZN12_GLOBAL__N_1L10IDIVedxeaxI2RnIjEEEP6MemoryS4_R5StateT_.exit

_ZN12_GLOBAL__N_1L10IDIVedxeaxI2RnIjEEEP6MemoryS4_R5StateT_.exit: ; preds = %24, %22
  %36 = phi %struct.Memory* [ %23, %22 ], [ %2, %24 ]
  ret %struct.Memory* %36
}

define %struct.Memory* @routine_movq_0x6090a8___rdi(%struct.State* dereferenceable(3376), i64, %struct.Memory*) local_unnamed_addr {
block_400478:
  %PC = getelementptr inbounds %struct.State, %struct.State* %0, i64 0, i32 6, i32 33, i32 0, i32 0
  %RDI = getelementptr inbounds %struct.State, %struct.State* %0, i64 0, i32 6, i32 11, i32 0, i32 0
  %3 = load i64, i64* %PC, align 8
  %4 = add i64 %3, 8
  store i64 %4, i64* %PC, align 8
  %5 = load i64, i64* bitcast (%G_0x6090a8_type* @G_0x6090a8 to i64*), align 8
  store i64 %5, i64* %RDI, align 8
  ret %struct.Memory* %2
}

define %struct.Memory* @routine_movq_0x6090b0___rsi(%struct.State* dereferenceable(3376), i64, %struct.Memory*) local_unnamed_addr {
block_400478:
  %PC = getelementptr inbounds %struct.State, %struct.State* %0, i64 0, i32 6, i32 33, i32 0, i32 0
  %RSI = getelementptr inbounds %struct.State, %struct.State* %0, i64 0, i32 6, i32 9, i32 0, i32 0
  %3 = load i64, i64* %PC, align 8
  %4 = add i64 %3, 8
  store i64 %4, i64* %PC, align 8
  %5 = load i64, i64* bitcast (%G_0x6090b0_type* @G_0x6090b0 to i64*), align 8
  store i64 %5, i64* %RSI, align 8
  ret %struct.Memory* %2
}

define %struct.Memory* @routine_callq_._ZN9benchmark11fill_randomIPddEEvT_S2_(%struct.State* dereferenceable(3376), i64, %struct.Memory*, i64 %rel_off1, i64 %rel_off2, i64 %rel_off3) local_unnamed_addr {
block_400478:
  %PC = getelementptr inbounds %struct.State, %struct.State* %0, i64 0, i32 6, i32 33, i32 0, i32 0
  %3 = load i64, i64* %PC, align 8
  %4 = add i64 %3, %rel_off1
  %5 = add i64 %3, %rel_off2
  %6 = getelementptr inbounds %struct.State, %struct.State* %0, i64 0, i32 6, i32 13, i32 0, i32 0
  %7 = load i64, i64* %6, align 8
  %8 = add i64 %7, -8
  %9 = inttoptr i64 %8 to i64*
  store i64 %5, i64* %9, align 8
  store i64 %8, i64* %6, align 8
  store i64 %4, i64* %PC, align 8
  ret %struct.Memory* %2
}

define %struct.Memory* @routine_movq_0x6090c8___rcx(%struct.State* dereferenceable(3376), i64, %struct.Memory*) local_unnamed_addr {
block_400478:
  %PC = getelementptr inbounds %struct.State, %struct.State* %0, i64 0, i32 6, i32 33, i32 0, i32 0
  %RCX = getelementptr inbounds %struct.State, %struct.State* %0, i64 0, i32 6, i32 5, i32 0, i32 0
  %3 = load i64, i64* %PC, align 8
  %4 = add i64 %3, 8
  store i64 %4, i64* %PC, align 8
  %5 = load i64, i64* bitcast (%G_0x6090c8_type* @G_0x6090c8 to i64*), align 8
  store i64 %5, i64* %RCX, align 8
  ret %struct.Memory* %2
}

define %struct.Memory* @routine_movq__rcx___rdx(%struct.State* dereferenceable(3376), i64, %struct.Memory*) local_unnamed_addr {
block_400478:
  %PC = getelementptr inbounds %struct.State, %struct.State* %0, i64 0, i32 6, i32 33, i32 0, i32 0
  %RCX = getelementptr inbounds %struct.State, %struct.State* %0, i64 0, i32 6, i32 5, i32 0, i32 0
  %RDX = getelementptr inbounds %struct.State, %struct.State* %0, i64 0, i32 6, i32 7, i32 0, i32 0
  %3 = load i64, i64* %RCX, align 8
  %4 = load i64, i64* %PC, align 8
  %5 = add i64 %4, 3
  store i64 %5, i64* %PC, align 8
  store i64 %3, i64* %RDX, align 8
  ret %struct.Memory* %2
}

define %struct.Memory* @routine_callq_._ZN9benchmark4copyIPdP12ValueWrapperIdEEEvT_S5_T0_(%struct.State* dereferenceable(3376), i64, %struct.Memory*, i64 %rel_off1, i64 %rel_off2, i64 %rel_off3) local_unnamed_addr {
block_400478:
  %PC = getelementptr inbounds %struct.State, %struct.State* %0, i64 0, i32 6, i32 33, i32 0, i32 0
  %3 = load i64, i64* %PC, align 8
  %4 = add i64 %3, %rel_off1
  %5 = add i64 %3, %rel_off2
  %6 = getelementptr inbounds %struct.State, %struct.State* %0, i64 0, i32 6, i32 13, i32 0, i32 0
  %7 = load i64, i64* %6, align 8
  %8 = add i64 %7, -8
  %9 = inttoptr i64 %8 to i64*
  store i64 %5, i64* %9, align 8
  store i64 %8, i64* %6, align 8
  store i64 %4, i64* %PC, align 8
  ret %struct.Memory* %2
}

define %struct.Memory* @routine_movq_0x6090e8___rdx(%struct.State* dereferenceable(3376), i64, %struct.Memory*) local_unnamed_addr {
block_400478:
  %PC = getelementptr inbounds %struct.State, %struct.State* %0, i64 0, i32 6, i32 33, i32 0, i32 0
  %RDX = getelementptr inbounds %struct.State, %struct.State* %0, i64 0, i32 6, i32 7, i32 0, i32 0
  %3 = load i64, i64* %PC, align 8
  %4 = add i64 %3, 8
  store i64 %4, i64* %PC, align 8
  %5 = load i64, i64* bitcast (%G_0x6090e8_type* @G_0x6090e8 to i64*), align 8
  store i64 %5, i64* %RDX, align 8
  ret %struct.Memory* %2
}

define %struct.Memory* @routine_callq_._ZN9benchmark4copyIPdP12ValueWrapperIS2_IS2_IS2_IS2_IS2_IS2_IS2_IS2_IS2_IdEEEEEEEEEEEEvT_SE_T0_(%struct.State* dereferenceable(3376), i64, %struct.Memory*, i64 %rel_off1, i64 %rel_off2, i64 %rel_off3) local_unnamed_addr {
block_400478:
  %PC = getelementptr inbounds %struct.State, %struct.State* %0, i64 0, i32 6, i32 33, i32 0, i32 0
  %3 = load i64, i64* %PC, align 8
  %4 = add i64 %3, %rel_off1
  %5 = add i64 %3, %rel_off2
  %6 = getelementptr inbounds %struct.State, %struct.State* %0, i64 0, i32 6, i32 13, i32 0, i32 0
  %7 = load i64, i64* %6, align 8
  %8 = add i64 %7, -8
  %9 = inttoptr i64 %8 to i64*
  store i64 %5, i64* %9, align 8
  store i64 %8, i64* %6, align 8
  store i64 %4, i64* %PC, align 8
  ret %struct.Memory* %2
}

define %struct.Memory* @routine_movq__0x406852___r8(%struct.State* dereferenceable(3376), i64, %struct.Memory*) local_unnamed_addr {
block_400478:
  %PC = getelementptr inbounds %struct.State, %struct.State* %0, i64 0, i32 6, i32 33, i32 0, i32 0
  %R8 = getelementptr inbounds %struct.State, %struct.State* %0, i64 0, i32 6, i32 17, i32 0, i32 0
  %3 = load i64, i64* %PC, align 8
  %4 = add i64 %3, 10
  store i64 %4, i64* %PC, align 8
  store i64 ptrtoint (%G__0x406852_type* @G__0x406852 to i64), i64* %R8, align 8
  ret %struct.Memory* %2
}

define %struct.Memory* @routine_movq_0x609098___rdx(%struct.State* dereferenceable(3376), i64, %struct.Memory*) local_unnamed_addr {
block_400478:
  %PC = getelementptr inbounds %struct.State, %struct.State* %0, i64 0, i32 6, i32 33, i32 0, i32 0
  %RDX = getelementptr inbounds %struct.State, %struct.State* %0, i64 0, i32 6, i32 7, i32 0, i32 0
  %3 = load i64, i64* %PC, align 8
  %4 = add i64 %3, 8
  store i64 %4, i64* %PC, align 8
  %5 = load i64, i64* bitcast (%G_0x609098_type* @G_0x609098 to i64*), align 8
  store i64 %5, i64* %RDX, align 8
  ret %struct.Memory* %2
}

define %struct.Memory* @routine_movq_0x6090a0___rcx(%struct.State* dereferenceable(3376), i64, %struct.Memory*) local_unnamed_addr {
block_400478:
  %PC = getelementptr inbounds %struct.State, %struct.State* %0, i64 0, i32 6, i32 33, i32 0, i32 0
  %RCX = getelementptr inbounds %struct.State, %struct.State* %0, i64 0, i32 6, i32 5, i32 0, i32 0
  %3 = load i64, i64* %PC, align 8
  %4 = add i64 %3, 8
  store i64 %4, i64* %PC, align 8
  %5 = load i64, i64* bitcast (%G_0x6090a0_type* @G_0x6090a0 to i64*), align 8
  store i64 %5, i64* %RCX, align 8
  ret %struct.Memory* %2
}

define %struct.Memory* @routine_callq_._Z19test_insertion_sortIPddEvT_S1_S1_S1_T0_PKc(%struct.State* dereferenceable(3376), i64, %struct.Memory*, i64 %rel_off1, i64 %rel_off2, i64 %rel_off3) local_unnamed_addr {
block_400478:
  %PC = getelementptr inbounds %struct.State, %struct.State* %0, i64 0, i32 6, i32 33, i32 0, i32 0
  %3 = load i64, i64* %PC, align 8
  %4 = add i64 %3, %rel_off1
  %5 = add i64 %3, %rel_off2
  %6 = getelementptr inbounds %struct.State, %struct.State* %0, i64 0, i32 6, i32 13, i32 0, i32 0
  %7 = load i64, i64* %6, align 8
  %8 = add i64 %7, -8
  %9 = inttoptr i64 %8 to i64*
  store i64 %5, i64* %9, align 8
  store i64 %8, i64* %6, align 8
  store i64 %4, i64* %PC, align 8
  ret %struct.Memory* %2
}

define %struct.Memory* @routine_movq__0x406870___r8(%struct.State* dereferenceable(3376), i64, %struct.Memory*) local_unnamed_addr {
block_400478:
  %PC = getelementptr inbounds %struct.State, %struct.State* %0, i64 0, i32 6, i32 33, i32 0, i32 0
  %R8 = getelementptr inbounds %struct.State, %struct.State* %0, i64 0, i32 6, i32 17, i32 0, i32 0
  %3 = load i64, i64* %PC, align 8
  %4 = add i64 %3, 10
  store i64 %4, i64* %PC, align 8
  store i64 ptrtoint (%G__0x406870_type* @G__0x406870 to i64), i64* %R8, align 8
  ret %struct.Memory* %2
}

define %struct.Memory* @routine_movq_0x620840___rcx(%struct.State* dereferenceable(3376), i64, %struct.Memory*) local_unnamed_addr {
block_400478:
  %PC = getelementptr inbounds %struct.State, %struct.State* %0, i64 0, i32 6, i32 33, i32 0, i32 0
  %RCX = getelementptr inbounds %struct.State, %struct.State* %0, i64 0, i32 6, i32 5, i32 0, i32 0
  %3 = load i64, i64* %PC, align 8
  %4 = add i64 %3, 8
  store i64 %4, i64* %PC, align 8
  %5 = load i64, i64* bitcast (%G_0x620840_type* @G_0x620840 to i64*), align 8
  store i64 %5, i64* %RCX, align 8
  ret %struct.Memory* %2
}

define %struct.Memory* @routine_movq__rcx__MINUS0xa0__rbp_(%struct.State* dereferenceable(3376), i64, %struct.Memory*) local_unnamed_addr {
block_400478:
  %PC = getelementptr inbounds %struct.State, %struct.State* %0, i64 0, i32 6, i32 33, i32 0, i32 0
  %RCX = getelementptr inbounds %struct.State, %struct.State* %0, i64 0, i32 6, i32 5, i32 0, i32 0
  %RBP = getelementptr inbounds %struct.State, %struct.State* %0, i64 0, i32 6, i32 15, i32 0, i32 0
  %3 = load i64, i64* %RBP, align 8
  %4 = add i64 %3, -160
  %5 = load i64, i64* %RCX, align 8
  %6 = load i64, i64* %PC, align 8
  %7 = add i64 %6, 7
  store i64 %7, i64* %PC, align 8
  %8 = inttoptr i64 %4 to i64*
  store i64 %5, i64* %8, align 8
  ret %struct.Memory* %2
}

define %struct.Memory* @routine_movq_0x620848___rcx(%struct.State* dereferenceable(3376), i64, %struct.Memory*) local_unnamed_addr {
block_400478:
  %PC = getelementptr inbounds %struct.State, %struct.State* %0, i64 0, i32 6, i32 33, i32 0, i32 0
  %RCX = getelementptr inbounds %struct.State, %struct.State* %0, i64 0, i32 6, i32 5, i32 0, i32 0
  %3 = load i64, i64* %PC, align 8
  %4 = add i64 %3, 8
  store i64 %4, i64* %PC, align 8
  %5 = load i64, i64* bitcast (%G_0x620848_type* @G_0x620848 to i64*), align 8
  store i64 %5, i64* %RCX, align 8
  ret %struct.Memory* %2
}

define %struct.Memory* @routine_movq__rcx__MINUS0xa8__rbp_(%struct.State* dereferenceable(3376), i64, %struct.Memory*) local_unnamed_addr {
block_400478:
  %PC = getelementptr inbounds %struct.State, %struct.State* %0, i64 0, i32 6, i32 33, i32 0, i32 0
  %RCX = getelementptr inbounds %struct.State, %struct.State* %0, i64 0, i32 6, i32 5, i32 0, i32 0
  %RBP = getelementptr inbounds %struct.State, %struct.State* %0, i64 0, i32 6, i32 15, i32 0, i32 0
  %3 = load i64, i64* %RBP, align 8
  %4 = add i64 %3, -168
  %5 = load i64, i64* %RCX, align 8
  %6 = load i64, i64* %PC, align 8
  %7 = add i64 %6, 7
  store i64 %7, i64* %PC, align 8
  %8 = inttoptr i64 %4 to i64*
  store i64 %5, i64* %8, align 8
  ret %struct.Memory* %2
}

define %struct.Memory* @routine_movq__rcx__MINUS0xb0__rbp_(%struct.State* dereferenceable(3376), i64, %struct.Memory*) local_unnamed_addr {
block_400478:
  %PC = getelementptr inbounds %struct.State, %struct.State* %0, i64 0, i32 6, i32 33, i32 0, i32 0
  %RCX = getelementptr inbounds %struct.State, %struct.State* %0, i64 0, i32 6, i32 5, i32 0, i32 0
  %RBP = getelementptr inbounds %struct.State, %struct.State* %0, i64 0, i32 6, i32 15, i32 0, i32 0
  %3 = load i64, i64* %RBP, align 8
  %4 = add i64 %3, -176
  %5 = load i64, i64* %RCX, align 8
  %6 = load i64, i64* %PC, align 8
  %7 = add i64 %6, 7
  store i64 %7, i64* %PC, align 8
  %8 = inttoptr i64 %4 to i64*
  store i64 %5, i64* %8, align 8
  ret %struct.Memory* %2
}

define %struct.Memory* @routine_movq__rcx__MINUS0xb8__rbp_(%struct.State* dereferenceable(3376), i64, %struct.Memory*) local_unnamed_addr {
block_400478:
  %PC = getelementptr inbounds %struct.State, %struct.State* %0, i64 0, i32 6, i32 33, i32 0, i32 0
  %RCX = getelementptr inbounds %struct.State, %struct.State* %0, i64 0, i32 6, i32 5, i32 0, i32 0
  %RBP = getelementptr inbounds %struct.State, %struct.State* %0, i64 0, i32 6, i32 15, i32 0, i32 0
  %3 = load i64, i64* %RBP, align 8
  %4 = add i64 %3, -184
  %5 = load i64, i64* %RCX, align 8
  %6 = load i64, i64* %PC, align 8
  %7 = add i64 %6, 7
  store i64 %7, i64* %PC, align 8
  %8 = inttoptr i64 %4 to i64*
  store i64 %5, i64* %8, align 8
  ret %struct.Memory* %2
}

define %struct.Memory* @routine_movq_MINUS0xa0__rbp____rdi(%struct.State* dereferenceable(3376), i64, %struct.Memory*) local_unnamed_addr {
block_400478:
  %PC = getelementptr inbounds %struct.State, %struct.State* %0, i64 0, i32 6, i32 33, i32 0, i32 0
  %RDI = getelementptr inbounds %struct.State, %struct.State* %0, i64 0, i32 6, i32 11, i32 0, i32 0
  %RBP = getelementptr inbounds %struct.State, %struct.State* %0, i64 0, i32 6, i32 15, i32 0, i32 0
  %3 = load i64, i64* %RBP, align 8
  %4 = add i64 %3, -160
  %5 = load i64, i64* %PC, align 8
  %6 = add i64 %5, 7
  store i64 %6, i64* %PC, align 8
  %7 = inttoptr i64 %4 to i64*
  %8 = load i64, i64* %7, align 8
  store i64 %8, i64* %RDI, align 8
  ret %struct.Memory* %2
}

define %struct.Memory* @routine_movq_MINUS0xa8__rbp____rsi(%struct.State* dereferenceable(3376), i64, %struct.Memory*) local_unnamed_addr {
block_400478:
  %PC = getelementptr inbounds %struct.State, %struct.State* %0, i64 0, i32 6, i32 33, i32 0, i32 0
  %RSI = getelementptr inbounds %struct.State, %struct.State* %0, i64 0, i32 6, i32 9, i32 0, i32 0
  %RBP = getelementptr inbounds %struct.State, %struct.State* %0, i64 0, i32 6, i32 15, i32 0, i32 0
  %3 = load i64, i64* %RBP, align 8
  %4 = add i64 %3, -168
  %5 = load i64, i64* %PC, align 8
  %6 = add i64 %5, 7
  store i64 %6, i64* %PC, align 8
  %7 = inttoptr i64 %4 to i64*
  %8 = load i64, i64* %7, align 8
  store i64 %8, i64* %RSI, align 8
  ret %struct.Memory* %2
}

define %struct.Memory* @routine_movq_MINUS0xb0__rbp____rdx(%struct.State* dereferenceable(3376), i64, %struct.Memory*) local_unnamed_addr {
block_400478:
  %PC = getelementptr inbounds %struct.State, %struct.State* %0, i64 0, i32 6, i32 33, i32 0, i32 0
  %RDX = getelementptr inbounds %struct.State, %struct.State* %0, i64 0, i32 6, i32 7, i32 0, i32 0
  %RBP = getelementptr inbounds %struct.State, %struct.State* %0, i64 0, i32 6, i32 15, i32 0, i32 0
  %3 = load i64, i64* %RBP, align 8
  %4 = add i64 %3, -176
  %5 = load i64, i64* %PC, align 8
  %6 = add i64 %5, 7
  store i64 %6, i64* %PC, align 8
  %7 = inttoptr i64 %4 to i64*
  %8 = load i64, i64* %7, align 8
  store i64 %8, i64* %RDX, align 8
  ret %struct.Memory* %2
}

define %struct.Memory* @routine_movq_MINUS0xb8__rbp____rcx(%struct.State* dereferenceable(3376), i64, %struct.Memory*) local_unnamed_addr {
block_400478:
  %PC = getelementptr inbounds %struct.State, %struct.State* %0, i64 0, i32 6, i32 33, i32 0, i32 0
  %RCX = getelementptr inbounds %struct.State, %struct.State* %0, i64 0, i32 6, i32 5, i32 0, i32 0
  %RBP = getelementptr inbounds %struct.State, %struct.State* %0, i64 0, i32 6, i32 15, i32 0, i32 0
  %3 = load i64, i64* %RBP, align 8
  %4 = add i64 %3, -184
  %5 = load i64, i64* %PC, align 8
  %6 = add i64 %5, 7
  store i64 %6, i64* %PC, align 8
  %7 = inttoptr i64 %4 to i64*
  %8 = load i64, i64* %7, align 8
  store i64 %8, i64* %RCX, align 8
  ret %struct.Memory* %2
}

define %struct.Memory* @routine_callq_._Z19test_insertion_sortI14PointerWrapperIdEdEvT_S2_S2_S2_T0_PKc(%struct.State* dereferenceable(3376), i64, %struct.Memory*, i64 %rel_off1, i64 %rel_off2, i64 %rel_off3) local_unnamed_addr {
block_400478:
  %PC = getelementptr inbounds %struct.State, %struct.State* %0, i64 0, i32 6, i32 33, i32 0, i32 0
  %3 = load i64, i64* %PC, align 8
  %4 = add i64 %3, %rel_off1
  %5 = add i64 %3, %rel_off2
  %6 = getelementptr inbounds %struct.State, %struct.State* %0, i64 0, i32 6, i32 13, i32 0, i32 0
  %7 = load i64, i64* %6, align 8
  %8 = add i64 %7, -8
  %9 = inttoptr i64 %8 to i64*
  store i64 %5, i64* %9, align 8
  store i64 %8, i64* %6, align 8
  store i64 %4, i64* %PC, align 8
  ret %struct.Memory* %2
}

define %struct.Memory* @routine_movq__0x406894___r8(%struct.State* dereferenceable(3376), i64, %struct.Memory*) local_unnamed_addr {
block_400478:
  %PC = getelementptr inbounds %struct.State, %struct.State* %0, i64 0, i32 6, i32 33, i32 0, i32 0
  %R8 = getelementptr inbounds %struct.State, %struct.State* %0, i64 0, i32 6, i32 17, i32 0, i32 0
  %3 = load i64, i64* %PC, align 8
  %4 = add i64 %3, 10
  store i64 %4, i64* %PC, align 8
  store i64 ptrtoint (%G__0x406894_type* @G__0x406894 to i64), i64* %R8, align 8
  ret %struct.Memory* %2
}

define %struct.Memory* @routine_movq_0x6090c8___rdi(%struct.State* dereferenceable(3376), i64, %struct.Memory*) local_unnamed_addr {
block_400478:
  %PC = getelementptr inbounds %struct.State, %struct.State* %0, i64 0, i32 6, i32 33, i32 0, i32 0
  %RDI = getelementptr inbounds %struct.State, %struct.State* %0, i64 0, i32 6, i32 11, i32 0, i32 0
  %3 = load i64, i64* %PC, align 8
  %4 = add i64 %3, 8
  store i64 %4, i64* %PC, align 8
  %5 = load i64, i64* bitcast (%G_0x6090c8_type* @G_0x6090c8 to i64*), align 8
  store i64 %5, i64* %RDI, align 8
  ret %struct.Memory* %2
}

define %struct.Memory* @routine_movq_0x6090d0___rsi(%struct.State* dereferenceable(3376), i64, %struct.Memory*) local_unnamed_addr {
block_400478:
  %PC = getelementptr inbounds %struct.State, %struct.State* %0, i64 0, i32 6, i32 33, i32 0, i32 0
  %RSI = getelementptr inbounds %struct.State, %struct.State* %0, i64 0, i32 6, i32 9, i32 0, i32 0
  %3 = load i64, i64* %PC, align 8
  %4 = add i64 %3, 8
  store i64 %4, i64* %PC, align 8
  %5 = load i64, i64* bitcast (%G_0x6090d0_type* @G_0x6090d0 to i64*), align 8
  store i64 %5, i64* %RSI, align 8
  ret %struct.Memory* %2
}

define %struct.Memory* @routine_movq_0x6090b8___rdx(%struct.State* dereferenceable(3376), i64, %struct.Memory*) local_unnamed_addr {
block_400478:
  %PC = getelementptr inbounds %struct.State, %struct.State* %0, i64 0, i32 6, i32 33, i32 0, i32 0
  %RDX = getelementptr inbounds %struct.State, %struct.State* %0, i64 0, i32 6, i32 7, i32 0, i32 0
  %3 = load i64, i64* %PC, align 8
  %4 = add i64 %3, 8
  store i64 %4, i64* %PC, align 8
  %5 = load i64, i64* bitcast (%G_0x6090b8_type* @G_0x6090b8 to i64*), align 8
  store i64 %5, i64* %RDX, align 8
  ret %struct.Memory* %2
}

define %struct.Memory* @routine_movq_0x6090c0___rcx(%struct.State* dereferenceable(3376), i64, %struct.Memory*) local_unnamed_addr {
block_400478:
  %PC = getelementptr inbounds %struct.State, %struct.State* %0, i64 0, i32 6, i32 33, i32 0, i32 0
  %RCX = getelementptr inbounds %struct.State, %struct.State* %0, i64 0, i32 6, i32 5, i32 0, i32 0
  %3 = load i64, i64* %PC, align 8
  %4 = add i64 %3, 8
  store i64 %4, i64* %PC, align 8
  %5 = load i64, i64* bitcast (%G_0x6090c0_type* @G_0x6090c0 to i64*), align 8
  store i64 %5, i64* %RCX, align 8
  ret %struct.Memory* %2
}

define %struct.Memory* @routine_movq_MINUS0x20__rbp____r9(%struct.State* dereferenceable(3376), i64, %struct.Memory*) local_unnamed_addr {
block_400478:
  %PC = getelementptr inbounds %struct.State, %struct.State* %0, i64 0, i32 6, i32 33, i32 0, i32 0
  %RBP = getelementptr inbounds %struct.State, %struct.State* %0, i64 0, i32 6, i32 15, i32 0, i32 0
  %R9 = getelementptr inbounds %struct.State, %struct.State* %0, i64 0, i32 6, i32 19, i32 0, i32 0
  %3 = load i64, i64* %RBP, align 8
  %4 = add i64 %3, -32
  %5 = load i64, i64* %PC, align 8
  %6 = add i64 %5, 4
  store i64 %6, i64* %PC, align 8
  %7 = inttoptr i64 %4 to i64*
  %8 = load i64, i64* %7, align 8
  store i64 %8, i64* %R9, align 8
  ret %struct.Memory* %2
}

define %struct.Memory* @routine_movq__r9__MINUS0xc0__rbp_(%struct.State* dereferenceable(3376), i64, %struct.Memory*) local_unnamed_addr {
block_400478:
  %PC = getelementptr inbounds %struct.State, %struct.State* %0, i64 0, i32 6, i32 33, i32 0, i32 0
  %RBP = getelementptr inbounds %struct.State, %struct.State* %0, i64 0, i32 6, i32 15, i32 0, i32 0
  %R9 = getelementptr inbounds %struct.State, %struct.State* %0, i64 0, i32 6, i32 19, i32 0, i32 0
  %3 = load i64, i64* %RBP, align 8
  %4 = add i64 %3, -192
  %5 = load i64, i64* %R9, align 8
  %6 = load i64, i64* %PC, align 8
  %7 = add i64 %6, 7
  store i64 %7, i64* %PC, align 8
  %8 = inttoptr i64 %4 to i64*
  store i64 %5, i64* %8, align 8
  ret %struct.Memory* %2
}

define %struct.Memory* @routine_movsd_MINUS0xc0__rbp____xmm0(%struct.State* dereferenceable(3376), i64, %struct.Memory*) local_unnamed_addr {
block_400478:
  %PC = getelementptr inbounds %struct.State, %struct.State* %0, i64 0, i32 6, i32 33, i32 0, i32 0
  %RBP = getelementptr inbounds %struct.State, %struct.State* %0, i64 0, i32 6, i32 15, i32 0, i32 0
  %3 = load i64, i64* %RBP, align 8
  %4 = add i64 %3, -192
  %5 = load i64, i64* %PC, align 8
  %6 = add i64 %5, 8
  store i64 %6, i64* %PC, align 8
  %7 = inttoptr i64 %4 to i64*
  %8 = load i64, i64* %7, align 8
  %9 = getelementptr inbounds %struct.State, %struct.State* %0, i64 0, i32 1, i64 0, i32 0, i32 0, i32 0, i64 0
  store i64 %8, i64* %9, align 1
  %10 = getelementptr inbounds %struct.State, %struct.State* %0, i64 0, i32 1, i64 0, i32 0, i32 0, i32 0, i64 1
  %11 = bitcast i64* %10 to double*
  store double 0.000000e+00, double* %11, align 1
  ret %struct.Memory* %2
}

define %struct.Memory* @routine_callq_._Z19test_insertion_sortIP12ValueWrapperIdES1_EvT_S3_S3_S3_T0_PKc(%struct.State* dereferenceable(3376), i64, %struct.Memory*, i64 %rel_off1, i64 %rel_off2, i64 %rel_off3) local_unnamed_addr {
block_400478:
  %PC = getelementptr inbounds %struct.State, %struct.State* %0, i64 0, i32 6, i32 33, i32 0, i32 0
  %3 = load i64, i64* %PC, align 8
  %4 = add i64 %3, %rel_off1
  %5 = add i64 %3, %rel_off2
  %6 = getelementptr inbounds %struct.State, %struct.State* %0, i64 0, i32 6, i32 13, i32 0, i32 0
  %7 = load i64, i64* %6, align 8
  %8 = add i64 %7, -8
  %9 = inttoptr i64 %8 to i64*
  store i64 %5, i64* %9, align 8
  store i64 %8, i64* %6, align 8
  store i64 %4, i64* %PC, align 8
  ret %struct.Memory* %2
}

define %struct.Memory* @routine_movq__0x4068be___r8(%struct.State* dereferenceable(3376), i64, %struct.Memory*) local_unnamed_addr {
block_400478:
  %PC = getelementptr inbounds %struct.State, %struct.State* %0, i64 0, i32 6, i32 33, i32 0, i32 0
  %R8 = getelementptr inbounds %struct.State, %struct.State* %0, i64 0, i32 6, i32 17, i32 0, i32 0
  %3 = load i64, i64* %PC, align 8
  %4 = add i64 %3, 10
  store i64 %4, i64* %PC, align 8
  store i64 ptrtoint (%G__0x4068be_type* @G__0x4068be to i64), i64* %R8, align 8
  ret %struct.Memory* %2
}

define %struct.Memory* @routine_movq_0x620860___rcx(%struct.State* dereferenceable(3376), i64, %struct.Memory*) local_unnamed_addr {
block_400478:
  %PC = getelementptr inbounds %struct.State, %struct.State* %0, i64 0, i32 6, i32 33, i32 0, i32 0
  %RCX = getelementptr inbounds %struct.State, %struct.State* %0, i64 0, i32 6, i32 5, i32 0, i32 0
  %3 = load i64, i64* %PC, align 8
  %4 = add i64 %3, 8
  store i64 %4, i64* %PC, align 8
  %5 = load i64, i64* bitcast (%G_0x620860_type* @G_0x620860 to i64*), align 8
  store i64 %5, i64* %RCX, align 8
  ret %struct.Memory* %2
}

define %struct.Memory* @routine_movq__rcx__MINUS0xc8__rbp_(%struct.State* dereferenceable(3376), i64, %struct.Memory*) local_unnamed_addr {
block_400478:
  %PC = getelementptr inbounds %struct.State, %struct.State* %0, i64 0, i32 6, i32 33, i32 0, i32 0
  %RCX = getelementptr inbounds %struct.State, %struct.State* %0, i64 0, i32 6, i32 5, i32 0, i32 0
  %RBP = getelementptr inbounds %struct.State, %struct.State* %0, i64 0, i32 6, i32 15, i32 0, i32 0
  %3 = load i64, i64* %RBP, align 8
  %4 = add i64 %3, -200
  %5 = load i64, i64* %RCX, align 8
  %6 = load i64, i64* %PC, align 8
  %7 = add i64 %6, 7
  store i64 %7, i64* %PC, align 8
  %8 = inttoptr i64 %4 to i64*
  store i64 %5, i64* %8, align 8
  ret %struct.Memory* %2
}

define %struct.Memory* @routine_movq_0x620868___rcx(%struct.State* dereferenceable(3376), i64, %struct.Memory*) local_unnamed_addr {
block_400478:
  %PC = getelementptr inbounds %struct.State, %struct.State* %0, i64 0, i32 6, i32 33, i32 0, i32 0
  %RCX = getelementptr inbounds %struct.State, %struct.State* %0, i64 0, i32 6, i32 5, i32 0, i32 0
  %3 = load i64, i64* %PC, align 8
  %4 = add i64 %3, 8
  store i64 %4, i64* %PC, align 8
  %5 = load i64, i64* bitcast (%G_0x620868_type* @G_0x620868 to i64*), align 8
  store i64 %5, i64* %RCX, align 8
  ret %struct.Memory* %2
}

define %struct.Memory* @routine_movq__rcx__MINUS0xd0__rbp_(%struct.State* dereferenceable(3376), i64, %struct.Memory*) local_unnamed_addr {
block_400478:
  %PC = getelementptr inbounds %struct.State, %struct.State* %0, i64 0, i32 6, i32 33, i32 0, i32 0
  %RCX = getelementptr inbounds %struct.State, %struct.State* %0, i64 0, i32 6, i32 5, i32 0, i32 0
  %RBP = getelementptr inbounds %struct.State, %struct.State* %0, i64 0, i32 6, i32 15, i32 0, i32 0
  %3 = load i64, i64* %RBP, align 8
  %4 = add i64 %3, -208
  %5 = load i64, i64* %RCX, align 8
  %6 = load i64, i64* %PC, align 8
  %7 = add i64 %6, 7
  store i64 %7, i64* %PC, align 8
  %8 = inttoptr i64 %4 to i64*
  store i64 %5, i64* %8, align 8
  ret %struct.Memory* %2
}

define %struct.Memory* @routine_movq__rcx__MINUS0xd8__rbp_(%struct.State* dereferenceable(3376), i64, %struct.Memory*) local_unnamed_addr {
block_400478:
  %PC = getelementptr inbounds %struct.State, %struct.State* %0, i64 0, i32 6, i32 33, i32 0, i32 0
  %RCX = getelementptr inbounds %struct.State, %struct.State* %0, i64 0, i32 6, i32 5, i32 0, i32 0
  %RBP = getelementptr inbounds %struct.State, %struct.State* %0, i64 0, i32 6, i32 15, i32 0, i32 0
  %3 = load i64, i64* %RBP, align 8
  %4 = add i64 %3, -216
  %5 = load i64, i64* %RCX, align 8
  %6 = load i64, i64* %PC, align 8
  %7 = add i64 %6, 7
  store i64 %7, i64* %PC, align 8
  %8 = inttoptr i64 %4 to i64*
  store i64 %5, i64* %8, align 8
  ret %struct.Memory* %2
}

define %struct.Memory* @routine_movq__rcx__MINUS0xe0__rbp_(%struct.State* dereferenceable(3376), i64, %struct.Memory*) local_unnamed_addr {
block_400478:
  %PC = getelementptr inbounds %struct.State, %struct.State* %0, i64 0, i32 6, i32 33, i32 0, i32 0
  %RCX = getelementptr inbounds %struct.State, %struct.State* %0, i64 0, i32 6, i32 5, i32 0, i32 0
  %RBP = getelementptr inbounds %struct.State, %struct.State* %0, i64 0, i32 6, i32 15, i32 0, i32 0
  %3 = load i64, i64* %RBP, align 8
  %4 = add i64 %3, -224
  %5 = load i64, i64* %RCX, align 8
  %6 = load i64, i64* %PC, align 8
  %7 = add i64 %6, 7
  store i64 %7, i64* %PC, align 8
  %8 = inttoptr i64 %4 to i64*
  store i64 %5, i64* %8, align 8
  ret %struct.Memory* %2
}

define %struct.Memory* @routine_movq__rcx__MINUS0xe8__rbp_(%struct.State* dereferenceable(3376), i64, %struct.Memory*) local_unnamed_addr {
block_400478:
  %PC = getelementptr inbounds %struct.State, %struct.State* %0, i64 0, i32 6, i32 33, i32 0, i32 0
  %RCX = getelementptr inbounds %struct.State, %struct.State* %0, i64 0, i32 6, i32 5, i32 0, i32 0
  %RBP = getelementptr inbounds %struct.State, %struct.State* %0, i64 0, i32 6, i32 15, i32 0, i32 0
  %3 = load i64, i64* %RBP, align 8
  %4 = add i64 %3, -232
  %5 = load i64, i64* %RCX, align 8
  %6 = load i64, i64* %PC, align 8
  %7 = add i64 %6, 7
  store i64 %7, i64* %PC, align 8
  %8 = inttoptr i64 %4 to i64*
  store i64 %5, i64* %8, align 8
  ret %struct.Memory* %2
}

define %struct.Memory* @routine_movq_MINUS0xc8__rbp____rdi(%struct.State* dereferenceable(3376), i64, %struct.Memory*) local_unnamed_addr {
block_400478:
  %PC = getelementptr inbounds %struct.State, %struct.State* %0, i64 0, i32 6, i32 33, i32 0, i32 0
  %RDI = getelementptr inbounds %struct.State, %struct.State* %0, i64 0, i32 6, i32 11, i32 0, i32 0
  %RBP = getelementptr inbounds %struct.State, %struct.State* %0, i64 0, i32 6, i32 15, i32 0, i32 0
  %3 = load i64, i64* %RBP, align 8
  %4 = add i64 %3, -200
  %5 = load i64, i64* %PC, align 8
  %6 = add i64 %5, 7
  store i64 %6, i64* %PC, align 8
  %7 = inttoptr i64 %4 to i64*
  %8 = load i64, i64* %7, align 8
  store i64 %8, i64* %RDI, align 8
  ret %struct.Memory* %2
}

define %struct.Memory* @routine_movq_MINUS0xd0__rbp____rsi(%struct.State* dereferenceable(3376), i64, %struct.Memory*) local_unnamed_addr {
block_400478:
  %PC = getelementptr inbounds %struct.State, %struct.State* %0, i64 0, i32 6, i32 33, i32 0, i32 0
  %RSI = getelementptr inbounds %struct.State, %struct.State* %0, i64 0, i32 6, i32 9, i32 0, i32 0
  %RBP = getelementptr inbounds %struct.State, %struct.State* %0, i64 0, i32 6, i32 15, i32 0, i32 0
  %3 = load i64, i64* %RBP, align 8
  %4 = add i64 %3, -208
  %5 = load i64, i64* %PC, align 8
  %6 = add i64 %5, 7
  store i64 %6, i64* %PC, align 8
  %7 = inttoptr i64 %4 to i64*
  %8 = load i64, i64* %7, align 8
  store i64 %8, i64* %RSI, align 8
  ret %struct.Memory* %2
}

define %struct.Memory* @routine_movq_MINUS0xd8__rbp____rdx(%struct.State* dereferenceable(3376), i64, %struct.Memory*) local_unnamed_addr {
block_400478:
  %PC = getelementptr inbounds %struct.State, %struct.State* %0, i64 0, i32 6, i32 33, i32 0, i32 0
  %RDX = getelementptr inbounds %struct.State, %struct.State* %0, i64 0, i32 6, i32 7, i32 0, i32 0
  %RBP = getelementptr inbounds %struct.State, %struct.State* %0, i64 0, i32 6, i32 15, i32 0, i32 0
  %3 = load i64, i64* %RBP, align 8
  %4 = add i64 %3, -216
  %5 = load i64, i64* %PC, align 8
  %6 = add i64 %5, 7
  store i64 %6, i64* %PC, align 8
  %7 = inttoptr i64 %4 to i64*
  %8 = load i64, i64* %7, align 8
  store i64 %8, i64* %RDX, align 8
  ret %struct.Memory* %2
}

define %struct.Memory* @routine_movq_MINUS0xe0__rbp____rcx(%struct.State* dereferenceable(3376), i64, %struct.Memory*) local_unnamed_addr {
block_400478:
  %PC = getelementptr inbounds %struct.State, %struct.State* %0, i64 0, i32 6, i32 33, i32 0, i32 0
  %RCX = getelementptr inbounds %struct.State, %struct.State* %0, i64 0, i32 6, i32 5, i32 0, i32 0
  %RBP = getelementptr inbounds %struct.State, %struct.State* %0, i64 0, i32 6, i32 15, i32 0, i32 0
  %3 = load i64, i64* %RBP, align 8
  %4 = add i64 %3, -224
  %5 = load i64, i64* %PC, align 8
  %6 = add i64 %5, 7
  store i64 %6, i64* %PC, align 8
  %7 = inttoptr i64 %4 to i64*
  %8 = load i64, i64* %7, align 8
  store i64 %8, i64* %RCX, align 8
  ret %struct.Memory* %2
}

define %struct.Memory* @routine_movsd_MINUS0xe8__rbp____xmm0(%struct.State* dereferenceable(3376), i64, %struct.Memory*) local_unnamed_addr {
block_400478:
  %PC = getelementptr inbounds %struct.State, %struct.State* %0, i64 0, i32 6, i32 33, i32 0, i32 0
  %RBP = getelementptr inbounds %struct.State, %struct.State* %0, i64 0, i32 6, i32 15, i32 0, i32 0
  %3 = load i64, i64* %RBP, align 8
  %4 = add i64 %3, -232
  %5 = load i64, i64* %PC, align 8
  %6 = add i64 %5, 8
  store i64 %6, i64* %PC, align 8
  %7 = inttoptr i64 %4 to i64*
  %8 = load i64, i64* %7, align 8
  %9 = getelementptr inbounds %struct.State, %struct.State* %0, i64 0, i32 1, i64 0, i32 0, i32 0, i32 0, i64 0
  store i64 %8, i64* %9, align 1
  %10 = getelementptr inbounds %struct.State, %struct.State* %0, i64 0, i32 1, i64 0, i32 0, i32 0, i32 0, i64 1
  %11 = bitcast i64* %10 to double*
  store double 0.000000e+00, double* %11, align 1
  ret %struct.Memory* %2
}

define %struct.Memory* @routine_callq_._Z19test_insertion_sortI14PointerWrapperI12ValueWrapperIdEES2_EvT_S4_S4_S4_T0_PKc(%struct.State* dereferenceable(3376), i64, %struct.Memory*, i64 %rel_off1, i64 %rel_off2, i64 %rel_off3) local_unnamed_addr {
block_400478:
  %PC = getelementptr inbounds %struct.State, %struct.State* %0, i64 0, i32 6, i32 33, i32 0, i32 0
  %3 = load i64, i64* %PC, align 8
  %4 = add i64 %3, %rel_off1
  %5 = add i64 %3, %rel_off2
  %6 = getelementptr inbounds %struct.State, %struct.State* %0, i64 0, i32 6, i32 13, i32 0, i32 0
  %7 = load i64, i64* %6, align 8
  %8 = add i64 %7, -8
  %9 = inttoptr i64 %8 to i64*
  store i64 %5, i64* %9, align 8
  store i64 %8, i64* %6, align 8
  store i64 %4, i64* %PC, align 8
  ret %struct.Memory* %2
}

define %struct.Memory* @routine_movq__0x4068ee___r8(%struct.State* dereferenceable(3376), i64, %struct.Memory*) local_unnamed_addr {
block_400478:
  %PC = getelementptr inbounds %struct.State, %struct.State* %0, i64 0, i32 6, i32 33, i32 0, i32 0
  %R8 = getelementptr inbounds %struct.State, %struct.State* %0, i64 0, i32 6, i32 17, i32 0, i32 0
  %3 = load i64, i64* %PC, align 8
  %4 = add i64 %3, 10
  store i64 %4, i64* %PC, align 8
  store i64 ptrtoint (%G__0x4068ee_type* @G__0x4068ee to i64), i64* %R8, align 8
  ret %struct.Memory* %2
}

define %struct.Memory* @routine_movq_0x6090e8___rdi(%struct.State* dereferenceable(3376), i64, %struct.Memory*) local_unnamed_addr {
block_400478:
  %PC = getelementptr inbounds %struct.State, %struct.State* %0, i64 0, i32 6, i32 33, i32 0, i32 0
  %RDI = getelementptr inbounds %struct.State, %struct.State* %0, i64 0, i32 6, i32 11, i32 0, i32 0
  %3 = load i64, i64* %PC, align 8
  %4 = add i64 %3, 8
  store i64 %4, i64* %PC, align 8
  %5 = load i64, i64* bitcast (%G_0x6090e8_type* @G_0x6090e8 to i64*), align 8
  store i64 %5, i64* %RDI, align 8
  ret %struct.Memory* %2
}

define %struct.Memory* @routine_movq_0x6090f0___rsi(%struct.State* dereferenceable(3376), i64, %struct.Memory*) local_unnamed_addr {
block_400478:
  %PC = getelementptr inbounds %struct.State, %struct.State* %0, i64 0, i32 6, i32 33, i32 0, i32 0
  %RSI = getelementptr inbounds %struct.State, %struct.State* %0, i64 0, i32 6, i32 9, i32 0, i32 0
  %3 = load i64, i64* %PC, align 8
  %4 = add i64 %3, 8
  store i64 %4, i64* %PC, align 8
  %5 = load i64, i64* bitcast (%G_0x6090f0_type* @G_0x6090f0 to i64*), align 8
  store i64 %5, i64* %RSI, align 8
  ret %struct.Memory* %2
}

define %struct.Memory* @routine_movq_0x6090d8___rdx(%struct.State* dereferenceable(3376), i64, %struct.Memory*) local_unnamed_addr {
block_400478:
  %PC = getelementptr inbounds %struct.State, %struct.State* %0, i64 0, i32 6, i32 33, i32 0, i32 0
  %RDX = getelementptr inbounds %struct.State, %struct.State* %0, i64 0, i32 6, i32 7, i32 0, i32 0
  %3 = load i64, i64* %PC, align 8
  %4 = add i64 %3, 8
  store i64 %4, i64* %PC, align 8
  %5 = load i64, i64* bitcast (%G_0x6090d8_type* @G_0x6090d8 to i64*), align 8
  store i64 %5, i64* %RDX, align 8
  ret %struct.Memory* %2
}

define %struct.Memory* @routine_movq_0x6090e0___rcx(%struct.State* dereferenceable(3376), i64, %struct.Memory*) local_unnamed_addr {
block_400478:
  %PC = getelementptr inbounds %struct.State, %struct.State* %0, i64 0, i32 6, i32 33, i32 0, i32 0
  %RCX = getelementptr inbounds %struct.State, %struct.State* %0, i64 0, i32 6, i32 5, i32 0, i32 0
  %3 = load i64, i64* %PC, align 8
  %4 = add i64 %3, 8
  store i64 %4, i64* %PC, align 8
  %5 = load i64, i64* bitcast (%G_0x6090e0_type* @G_0x6090e0 to i64*), align 8
  store i64 %5, i64* %RCX, align 8
  ret %struct.Memory* %2
}

define %struct.Memory* @routine_movq_MINUS0x30__rbp____r9(%struct.State* dereferenceable(3376), i64, %struct.Memory*) local_unnamed_addr {
block_400478:
  %PC = getelementptr inbounds %struct.State, %struct.State* %0, i64 0, i32 6, i32 33, i32 0, i32 0
  %RBP = getelementptr inbounds %struct.State, %struct.State* %0, i64 0, i32 6, i32 15, i32 0, i32 0
  %R9 = getelementptr inbounds %struct.State, %struct.State* %0, i64 0, i32 6, i32 19, i32 0, i32 0
  %3 = load i64, i64* %RBP, align 8
  %4 = add i64 %3, -48
  %5 = load i64, i64* %PC, align 8
  %6 = add i64 %5, 4
  store i64 %6, i64* %PC, align 8
  %7 = inttoptr i64 %4 to i64*
  %8 = load i64, i64* %7, align 8
  store i64 %8, i64* %R9, align 8
  ret %struct.Memory* %2
}

define %struct.Memory* @routine_movq__r9__MINUS0xf0__rbp_(%struct.State* dereferenceable(3376), i64, %struct.Memory*) local_unnamed_addr {
block_400478:
  %PC = getelementptr inbounds %struct.State, %struct.State* %0, i64 0, i32 6, i32 33, i32 0, i32 0
  %RBP = getelementptr inbounds %struct.State, %struct.State* %0, i64 0, i32 6, i32 15, i32 0, i32 0
  %R9 = getelementptr inbounds %struct.State, %struct.State* %0, i64 0, i32 6, i32 19, i32 0, i32 0
  %3 = load i64, i64* %RBP, align 8
  %4 = add i64 %3, -240
  %5 = load i64, i64* %R9, align 8
  %6 = load i64, i64* %PC, align 8
  %7 = add i64 %6, 7
  store i64 %7, i64* %PC, align 8
  %8 = inttoptr i64 %4 to i64*
  store i64 %5, i64* %8, align 8
  ret %struct.Memory* %2
}

define %struct.Memory* @routine_movsd_MINUS0xf0__rbp____xmm0(%struct.State* dereferenceable(3376), i64, %struct.Memory*) local_unnamed_addr {
block_400478:
  %PC = getelementptr inbounds %struct.State, %struct.State* %0, i64 0, i32 6, i32 33, i32 0, i32 0
  %RBP = getelementptr inbounds %struct.State, %struct.State* %0, i64 0, i32 6, i32 15, i32 0, i32 0
  %3 = load i64, i64* %RBP, align 8
  %4 = add i64 %3, -240
  %5 = load i64, i64* %PC, align 8
  %6 = add i64 %5, 8
  store i64 %6, i64* %PC, align 8
  %7 = inttoptr i64 %4 to i64*
  %8 = load i64, i64* %7, align 8
  %9 = getelementptr inbounds %struct.State, %struct.State* %0, i64 0, i32 1, i64 0, i32 0, i32 0, i32 0, i64 0
  store i64 %8, i64* %9, align 1
  %10 = getelementptr inbounds %struct.State, %struct.State* %0, i64 0, i32 1, i64 0, i32 0, i32 0, i32 0, i64 1
  %11 = bitcast i64* %10 to double*
  store double 0.000000e+00, double* %11, align 1
  ret %struct.Memory* %2
}

define %struct.Memory* @routine_callq_._Z19test_insertion_sortIP12ValueWrapperIS0_IS0_IS0_IS0_IS0_IS0_IS0_IS0_IS0_IdEEEEEEEEEESA_EvT_SC_SC_SC_T0_PKc(%struct.State* dereferenceable(3376), i64, %struct.Memory*, i64 %rel_off1, i64 %rel_off2, i64 %rel_off3) local_unnamed_addr {
block_400478:
  %PC = getelementptr inbounds %struct.State, %struct.State* %0, i64 0, i32 6, i32 33, i32 0, i32 0
  %3 = load i64, i64* %PC, align 8
  %4 = add i64 %3, %rel_off1
  %5 = add i64 %3, %rel_off2
  %6 = getelementptr inbounds %struct.State, %struct.State* %0, i64 0, i32 6, i32 13, i32 0, i32 0
  %7 = load i64, i64* %6, align 8
  %8 = add i64 %7, -8
  %9 = inttoptr i64 %8 to i64*
  store i64 %5, i64* %9, align 8
  store i64 %8, i64* %6, align 8
  store i64 %4, i64* %PC, align 8
  ret %struct.Memory* %2
}

define %struct.Memory* @routine_movq__0x40691a___r8(%struct.State* dereferenceable(3376), i64, %struct.Memory*) local_unnamed_addr {
block_400478:
  %PC = getelementptr inbounds %struct.State, %struct.State* %0, i64 0, i32 6, i32 33, i32 0, i32 0
  %R8 = getelementptr inbounds %struct.State, %struct.State* %0, i64 0, i32 6, i32 17, i32 0, i32 0
  %3 = load i64, i64* %PC, align 8
  %4 = add i64 %3, 10
  store i64 %4, i64* %PC, align 8
  store i64 ptrtoint (%G__0x40691a_type* @G__0x40691a to i64), i64* %R8, align 8
  ret %struct.Memory* %2
}

define %struct.Memory* @routine_movq_0x620880___rcx(%struct.State* dereferenceable(3376), i64, %struct.Memory*) local_unnamed_addr {
block_400478:
  %PC = getelementptr inbounds %struct.State, %struct.State* %0, i64 0, i32 6, i32 33, i32 0, i32 0
  %RCX = getelementptr inbounds %struct.State, %struct.State* %0, i64 0, i32 6, i32 5, i32 0, i32 0
  %3 = load i64, i64* %PC, align 8
  %4 = add i64 %3, 8
  store i64 %4, i64* %PC, align 8
  %5 = load i64, i64* bitcast (%G_0x620880_type* @G_0x620880 to i64*), align 8
  store i64 %5, i64* %RCX, align 8
  ret %struct.Memory* %2
}

define %struct.Memory* @routine_movq__rcx__MINUS0xf8__rbp_(%struct.State* dereferenceable(3376), i64, %struct.Memory*) local_unnamed_addr {
block_400478:
  %PC = getelementptr inbounds %struct.State, %struct.State* %0, i64 0, i32 6, i32 33, i32 0, i32 0
  %RCX = getelementptr inbounds %struct.State, %struct.State* %0, i64 0, i32 6, i32 5, i32 0, i32 0
  %RBP = getelementptr inbounds %struct.State, %struct.State* %0, i64 0, i32 6, i32 15, i32 0, i32 0
  %3 = load i64, i64* %RBP, align 8
  %4 = add i64 %3, -248
  %5 = load i64, i64* %RCX, align 8
  %6 = load i64, i64* %PC, align 8
  %7 = add i64 %6, 7
  store i64 %7, i64* %PC, align 8
  %8 = inttoptr i64 %4 to i64*
  store i64 %5, i64* %8, align 8
  ret %struct.Memory* %2
}

define %struct.Memory* @routine_movq_0x620888___rcx(%struct.State* dereferenceable(3376), i64, %struct.Memory*) local_unnamed_addr {
block_400478:
  %PC = getelementptr inbounds %struct.State, %struct.State* %0, i64 0, i32 6, i32 33, i32 0, i32 0
  %RCX = getelementptr inbounds %struct.State, %struct.State* %0, i64 0, i32 6, i32 5, i32 0, i32 0
  %3 = load i64, i64* %PC, align 8
  %4 = add i64 %3, 8
  store i64 %4, i64* %PC, align 8
  %5 = load i64, i64* bitcast (%G_0x620888_type* @G_0x620888 to i64*), align 8
  store i64 %5, i64* %RCX, align 8
  ret %struct.Memory* %2
}

define %struct.Memory* @routine_movq__rcx__MINUS0x100__rbp_(%struct.State* dereferenceable(3376), i64, %struct.Memory*) local_unnamed_addr {
block_400478:
  %PC = getelementptr inbounds %struct.State, %struct.State* %0, i64 0, i32 6, i32 33, i32 0, i32 0
  %RCX = getelementptr inbounds %struct.State, %struct.State* %0, i64 0, i32 6, i32 5, i32 0, i32 0
  %RBP = getelementptr inbounds %struct.State, %struct.State* %0, i64 0, i32 6, i32 15, i32 0, i32 0
  %3 = load i64, i64* %RBP, align 8
  %4 = add i64 %3, -256
  %5 = load i64, i64* %RCX, align 8
  %6 = load i64, i64* %PC, align 8
  %7 = add i64 %6, 7
  store i64 %7, i64* %PC, align 8
  %8 = inttoptr i64 %4 to i64*
  store i64 %5, i64* %8, align 8
  ret %struct.Memory* %2
}

define %struct.Memory* @routine_movq__rcx__MINUS0x108__rbp_(%struct.State* dereferenceable(3376), i64, %struct.Memory*) local_unnamed_addr {
block_400478:
  %PC = getelementptr inbounds %struct.State, %struct.State* %0, i64 0, i32 6, i32 33, i32 0, i32 0
  %RCX = getelementptr inbounds %struct.State, %struct.State* %0, i64 0, i32 6, i32 5, i32 0, i32 0
  %RBP = getelementptr inbounds %struct.State, %struct.State* %0, i64 0, i32 6, i32 15, i32 0, i32 0
  %3 = load i64, i64* %RBP, align 8
  %4 = add i64 %3, -264
  %5 = load i64, i64* %RCX, align 8
  %6 = load i64, i64* %PC, align 8
  %7 = add i64 %6, 7
  store i64 %7, i64* %PC, align 8
  %8 = inttoptr i64 %4 to i64*
  store i64 %5, i64* %8, align 8
  ret %struct.Memory* %2
}

define %struct.Memory* @routine_movq__rcx__MINUS0x110__rbp_(%struct.State* dereferenceable(3376), i64, %struct.Memory*) local_unnamed_addr {
block_400478:
  %PC = getelementptr inbounds %struct.State, %struct.State* %0, i64 0, i32 6, i32 33, i32 0, i32 0
  %RCX = getelementptr inbounds %struct.State, %struct.State* %0, i64 0, i32 6, i32 5, i32 0, i32 0
  %RBP = getelementptr inbounds %struct.State, %struct.State* %0, i64 0, i32 6, i32 15, i32 0, i32 0
  %3 = load i64, i64* %RBP, align 8
  %4 = add i64 %3, -272
  %5 = load i64, i64* %RCX, align 8
  %6 = load i64, i64* %PC, align 8
  %7 = add i64 %6, 7
  store i64 %7, i64* %PC, align 8
  %8 = inttoptr i64 %4 to i64*
  store i64 %5, i64* %8, align 8
  ret %struct.Memory* %2
}

define %struct.Memory* @routine_movq__rcx__MINUS0x118__rbp_(%struct.State* dereferenceable(3376), i64, %struct.Memory*) local_unnamed_addr {
block_400478:
  %PC = getelementptr inbounds %struct.State, %struct.State* %0, i64 0, i32 6, i32 33, i32 0, i32 0
  %RCX = getelementptr inbounds %struct.State, %struct.State* %0, i64 0, i32 6, i32 5, i32 0, i32 0
  %RBP = getelementptr inbounds %struct.State, %struct.State* %0, i64 0, i32 6, i32 15, i32 0, i32 0
  %3 = load i64, i64* %RBP, align 8
  %4 = add i64 %3, -280
  %5 = load i64, i64* %RCX, align 8
  %6 = load i64, i64* %PC, align 8
  %7 = add i64 %6, 7
  store i64 %7, i64* %PC, align 8
  %8 = inttoptr i64 %4 to i64*
  store i64 %5, i64* %8, align 8
  ret %struct.Memory* %2
}

define %struct.Memory* @routine_movq_MINUS0xf8__rbp____rdi(%struct.State* dereferenceable(3376), i64, %struct.Memory*) local_unnamed_addr {
block_400478:
  %PC = getelementptr inbounds %struct.State, %struct.State* %0, i64 0, i32 6, i32 33, i32 0, i32 0
  %RDI = getelementptr inbounds %struct.State, %struct.State* %0, i64 0, i32 6, i32 11, i32 0, i32 0
  %RBP = getelementptr inbounds %struct.State, %struct.State* %0, i64 0, i32 6, i32 15, i32 0, i32 0
  %3 = load i64, i64* %RBP, align 8
  %4 = add i64 %3, -248
  %5 = load i64, i64* %PC, align 8
  %6 = add i64 %5, 7
  store i64 %6, i64* %PC, align 8
  %7 = inttoptr i64 %4 to i64*
  %8 = load i64, i64* %7, align 8
  store i64 %8, i64* %RDI, align 8
  ret %struct.Memory* %2
}

define %struct.Memory* @routine_movq_MINUS0x100__rbp____rsi(%struct.State* dereferenceable(3376), i64, %struct.Memory*) local_unnamed_addr {
block_400478:
  %PC = getelementptr inbounds %struct.State, %struct.State* %0, i64 0, i32 6, i32 33, i32 0, i32 0
  %RSI = getelementptr inbounds %struct.State, %struct.State* %0, i64 0, i32 6, i32 9, i32 0, i32 0
  %RBP = getelementptr inbounds %struct.State, %struct.State* %0, i64 0, i32 6, i32 15, i32 0, i32 0
  %3 = load i64, i64* %RBP, align 8
  %4 = add i64 %3, -256
  %5 = load i64, i64* %PC, align 8
  %6 = add i64 %5, 7
  store i64 %6, i64* %PC, align 8
  %7 = inttoptr i64 %4 to i64*
  %8 = load i64, i64* %7, align 8
  store i64 %8, i64* %RSI, align 8
  ret %struct.Memory* %2
}

define %struct.Memory* @routine_movq_MINUS0x108__rbp____rdx(%struct.State* dereferenceable(3376), i64, %struct.Memory*) local_unnamed_addr {
block_400478:
  %PC = getelementptr inbounds %struct.State, %struct.State* %0, i64 0, i32 6, i32 33, i32 0, i32 0
  %RDX = getelementptr inbounds %struct.State, %struct.State* %0, i64 0, i32 6, i32 7, i32 0, i32 0
  %RBP = getelementptr inbounds %struct.State, %struct.State* %0, i64 0, i32 6, i32 15, i32 0, i32 0
  %3 = load i64, i64* %RBP, align 8
  %4 = add i64 %3, -264
  %5 = load i64, i64* %PC, align 8
  %6 = add i64 %5, 7
  store i64 %6, i64* %PC, align 8
  %7 = inttoptr i64 %4 to i64*
  %8 = load i64, i64* %7, align 8
  store i64 %8, i64* %RDX, align 8
  ret %struct.Memory* %2
}

define %struct.Memory* @routine_movq_MINUS0x110__rbp____rcx(%struct.State* dereferenceable(3376), i64, %struct.Memory*) local_unnamed_addr {
block_400478:
  %PC = getelementptr inbounds %struct.State, %struct.State* %0, i64 0, i32 6, i32 33, i32 0, i32 0
  %RCX = getelementptr inbounds %struct.State, %struct.State* %0, i64 0, i32 6, i32 5, i32 0, i32 0
  %RBP = getelementptr inbounds %struct.State, %struct.State* %0, i64 0, i32 6, i32 15, i32 0, i32 0
  %3 = load i64, i64* %RBP, align 8
  %4 = add i64 %3, -272
  %5 = load i64, i64* %PC, align 8
  %6 = add i64 %5, 7
  store i64 %6, i64* %PC, align 8
  %7 = inttoptr i64 %4 to i64*
  %8 = load i64, i64* %7, align 8
  store i64 %8, i64* %RCX, align 8
  ret %struct.Memory* %2
}

define %struct.Memory* @routine_movsd_MINUS0x118__rbp____xmm0(%struct.State* dereferenceable(3376), i64, %struct.Memory*) local_unnamed_addr {
block_400478:
  %PC = getelementptr inbounds %struct.State, %struct.State* %0, i64 0, i32 6, i32 33, i32 0, i32 0
  %RBP = getelementptr inbounds %struct.State, %struct.State* %0, i64 0, i32 6, i32 15, i32 0, i32 0
  %3 = load i64, i64* %RBP, align 8
  %4 = add i64 %3, -280
  %5 = load i64, i64* %PC, align 8
  %6 = add i64 %5, 8
  store i64 %6, i64* %PC, align 8
  %7 = inttoptr i64 %4 to i64*
  %8 = load i64, i64* %7, align 8
  %9 = getelementptr inbounds %struct.State, %struct.State* %0, i64 0, i32 1, i64 0, i32 0, i32 0, i32 0, i64 0
  store i64 %8, i64* %9, align 1
  %10 = getelementptr inbounds %struct.State, %struct.State* %0, i64 0, i32 1, i64 0, i32 0, i32 0, i32 0, i64 1
  %11 = bitcast i64* %10 to double*
  store double 0.000000e+00, double* %11, align 1
  ret %struct.Memory* %2
}

define %struct.Memory* @routine_callq_._Z19test_insertion_sortI14PointerWrapperI12ValueWrapperIS1_IS1_IS1_IS1_IS1_IS1_IS1_IS1_IS1_IdEEEEEEEEEEESB_EvT_SD_SD_SD_T0_PKc(%struct.State* dereferenceable(3376), i64, %struct.Memory*, i64 %rel_off1, i64 %rel_off2, i64 %rel_off3) local_unnamed_addr {
block_400478:
  %PC = getelementptr inbounds %struct.State, %struct.State* %0, i64 0, i32 6, i32 33, i32 0, i32 0
  %3 = load i64, i64* %PC, align 8
  %4 = add i64 %3, %rel_off1
  %5 = add i64 %3, %rel_off2
  %6 = getelementptr inbounds %struct.State, %struct.State* %0, i64 0, i32 6, i32 13, i32 0, i32 0
  %7 = load i64, i64* %6, align 8
  %8 = add i64 %7, -8
  %9 = inttoptr i64 %8 to i64*
  store i64 %5, i64* %9, align 8
  store i64 %8, i64* %6, align 8
  store i64 %4, i64* %PC, align 8
  ret %struct.Memory* %2
}

define %struct.Memory* @routine_movq__0x40694c___r8(%struct.State* dereferenceable(3376), i64, %struct.Memory*) local_unnamed_addr {
block_400478:
  %PC = getelementptr inbounds %struct.State, %struct.State* %0, i64 0, i32 6, i32 33, i32 0, i32 0
  %R8 = getelementptr inbounds %struct.State, %struct.State* %0, i64 0, i32 6, i32 17, i32 0, i32 0
  %3 = load i64, i64* %PC, align 8
  %4 = add i64 %3, 10
  store i64 %4, i64* %PC, align 8
  store i64 ptrtoint (%G__0x40694c_type* @G__0x40694c to i64), i64* %R8, align 8
  ret %struct.Memory* %2
}

define %struct.Memory* @routine_movl_0x609088___eax(%struct.State* dereferenceable(3376), i64, %struct.Memory*) local_unnamed_addr {
block_400478:
  %PC = getelementptr inbounds %struct.State, %struct.State* %0, i64 0, i32 6, i32 33, i32 0, i32 0
  %RAX = getelementptr inbounds %struct.State, %struct.State* %0, i64 0, i32 6, i32 1, i32 0, i32 0
  %3 = load i64, i64* %PC, align 8
  %4 = add i64 %3, 7
  store i64 %4, i64* %PC, align 8
  %5 = load i32, i32* bitcast (%G_0x609088_type* @G_0x609088 to i32*), align 8
  %6 = zext i32 %5 to i64
  store i64 %6, i64* %RAX, align 8
  ret %struct.Memory* %2
}

define %struct.Memory* @routine_shll__0x3___eax(%struct.State* dereferenceable(3376), i64, %struct.Memory*) local_unnamed_addr {
block_400478:
  %PC = getelementptr inbounds %struct.State, %struct.State* %0, i64 0, i32 6, i32 33, i32 0, i32 0
  %RAX = getelementptr inbounds %struct.State, %struct.State* %0, i64 0, i32 6, i32 1, i32 0, i32 0
  %3 = load i64, i64* %RAX, align 8
  %4 = load i64, i64* %PC, align 8
  %5 = add i64 %4, 3
  store i64 %5, i64* %PC, align 8
  %.tr = trunc i64 %3 to i32
  %6 = shl i32 %.tr, 3
  %7 = zext i32 %6 to i64
  store i64 %7, i64* %RAX, align 8
  %8 = getelementptr inbounds %struct.State, %struct.State* %0, i64 0, i32 2, i32 1
  %9 = lshr i64 %3, 29
  %10 = trunc i64 %9 to i8
  %11 = and i8 %10, 1
  store i8 %11, i8* %8, align 1
  %12 = getelementptr inbounds %struct.State, %struct.State* %0, i64 0, i32 2, i32 3
  %13 = and i32 %6, 248
  %14 = tail call i32 @llvm.ctpop.i32(i32 %13)
  %15 = trunc i32 %14 to i8
  %16 = and i8 %15, 1
  %17 = xor i8 %16, 1
  store i8 %17, i8* %12, align 1
  %18 = getelementptr inbounds %struct.State, %struct.State* %0, i64 0, i32 2, i32 5
  store i8 0, i8* %18, align 1
  %19 = getelementptr inbounds %struct.State, %struct.State* %0, i64 0, i32 2, i32 7
  %20 = icmp eq i32 %6, 0
  %21 = zext i1 %20 to i8
  store i8 %21, i8* %19, align 1
  %22 = getelementptr inbounds %struct.State, %struct.State* %0, i64 0, i32 2, i32 9
  %23 = lshr i32 %.tr, 28
  %24 = trunc i32 %23 to i8
  %25 = and i8 %24, 1
  store i8 %25, i8* %22, align 1
  %26 = getelementptr inbounds %struct.State, %struct.State* %0, i64 0, i32 2, i32 13
  store i8 0, i8* %26, align 1
  ret %struct.Memory* %2
}

define %struct.Memory* @routine_callq_._Z14test_quicksortIPddEvT_S1_S1_S1_T0_PKc(%struct.State* dereferenceable(3376), i64, %struct.Memory*, i64 %rel_off1, i64 %rel_off2, i64 %rel_off3) local_unnamed_addr {
block_400478:
  %PC = getelementptr inbounds %struct.State, %struct.State* %0, i64 0, i32 6, i32 33, i32 0, i32 0
  %3 = load i64, i64* %PC, align 8
  %4 = add i64 %3, %rel_off1
  %5 = add i64 %3, %rel_off2
  %6 = getelementptr inbounds %struct.State, %struct.State* %0, i64 0, i32 6, i32 13, i32 0, i32 0
  %7 = load i64, i64* %6, align 8
  %8 = add i64 %7, -8
  %9 = inttoptr i64 %8 to i64*
  store i64 %5, i64* %9, align 8
  store i64 %8, i64* %6, align 8
  store i64 %4, i64* %PC, align 8
  ret %struct.Memory* %2
}

define %struct.Memory* @routine_movq__0x406965___r8(%struct.State* dereferenceable(3376), i64, %struct.Memory*) local_unnamed_addr {
block_400478:
  %PC = getelementptr inbounds %struct.State, %struct.State* %0, i64 0, i32 6, i32 33, i32 0, i32 0
  %R8 = getelementptr inbounds %struct.State, %struct.State* %0, i64 0, i32 6, i32 17, i32 0, i32 0
  %3 = load i64, i64* %PC, align 8
  %4 = add i64 %3, 10
  store i64 %4, i64* %PC, align 8
  store i64 ptrtoint (%G__0x406965_type* @G__0x406965 to i64), i64* %R8, align 8
  ret %struct.Memory* %2
}

define %struct.Memory* @routine_movq__rcx__MINUS0x120__rbp_(%struct.State* dereferenceable(3376), i64, %struct.Memory*) local_unnamed_addr {
block_400478:
  %PC = getelementptr inbounds %struct.State, %struct.State* %0, i64 0, i32 6, i32 33, i32 0, i32 0
  %RCX = getelementptr inbounds %struct.State, %struct.State* %0, i64 0, i32 6, i32 5, i32 0, i32 0
  %RBP = getelementptr inbounds %struct.State, %struct.State* %0, i64 0, i32 6, i32 15, i32 0, i32 0
  %3 = load i64, i64* %RBP, align 8
  %4 = add i64 %3, -288
  %5 = load i64, i64* %RCX, align 8
  %6 = load i64, i64* %PC, align 8
  %7 = add i64 %6, 7
  store i64 %7, i64* %PC, align 8
  %8 = inttoptr i64 %4 to i64*
  store i64 %5, i64* %8, align 8
  ret %struct.Memory* %2
}

define %struct.Memory* @routine_movq__rcx__MINUS0x128__rbp_(%struct.State* dereferenceable(3376), i64, %struct.Memory*) local_unnamed_addr {
block_400478:
  %PC = getelementptr inbounds %struct.State, %struct.State* %0, i64 0, i32 6, i32 33, i32 0, i32 0
  %RCX = getelementptr inbounds %struct.State, %struct.State* %0, i64 0, i32 6, i32 5, i32 0, i32 0
  %RBP = getelementptr inbounds %struct.State, %struct.State* %0, i64 0, i32 6, i32 15, i32 0, i32 0
  %3 = load i64, i64* %RBP, align 8
  %4 = add i64 %3, -296
  %5 = load i64, i64* %RCX, align 8
  %6 = load i64, i64* %PC, align 8
  %7 = add i64 %6, 7
  store i64 %7, i64* %PC, align 8
  %8 = inttoptr i64 %4 to i64*
  store i64 %5, i64* %8, align 8
  ret %struct.Memory* %2
}

define %struct.Memory* @routine_movq__rcx__MINUS0x130__rbp_(%struct.State* dereferenceable(3376), i64, %struct.Memory*) local_unnamed_addr {
block_400478:
  %PC = getelementptr inbounds %struct.State, %struct.State* %0, i64 0, i32 6, i32 33, i32 0, i32 0
  %RCX = getelementptr inbounds %struct.State, %struct.State* %0, i64 0, i32 6, i32 5, i32 0, i32 0
  %RBP = getelementptr inbounds %struct.State, %struct.State* %0, i64 0, i32 6, i32 15, i32 0, i32 0
  %3 = load i64, i64* %RBP, align 8
  %4 = add i64 %3, -304
  %5 = load i64, i64* %RCX, align 8
  %6 = load i64, i64* %PC, align 8
  %7 = add i64 %6, 7
  store i64 %7, i64* %PC, align 8
  %8 = inttoptr i64 %4 to i64*
  store i64 %5, i64* %8, align 8
  ret %struct.Memory* %2
}

define %struct.Memory* @routine_movq__rcx__MINUS0x138__rbp_(%struct.State* dereferenceable(3376), i64, %struct.Memory*) local_unnamed_addr {
block_400478:
  %PC = getelementptr inbounds %struct.State, %struct.State* %0, i64 0, i32 6, i32 33, i32 0, i32 0
  %RCX = getelementptr inbounds %struct.State, %struct.State* %0, i64 0, i32 6, i32 5, i32 0, i32 0
  %RBP = getelementptr inbounds %struct.State, %struct.State* %0, i64 0, i32 6, i32 15, i32 0, i32 0
  %3 = load i64, i64* %RBP, align 8
  %4 = add i64 %3, -312
  %5 = load i64, i64* %RCX, align 8
  %6 = load i64, i64* %PC, align 8
  %7 = add i64 %6, 7
  store i64 %7, i64* %PC, align 8
  %8 = inttoptr i64 %4 to i64*
  store i64 %5, i64* %8, align 8
  ret %struct.Memory* %2
}

define %struct.Memory* @routine_movq_MINUS0x120__rbp____rdi(%struct.State* dereferenceable(3376), i64, %struct.Memory*) local_unnamed_addr {
block_400478:
  %PC = getelementptr inbounds %struct.State, %struct.State* %0, i64 0, i32 6, i32 33, i32 0, i32 0
  %RDI = getelementptr inbounds %struct.State, %struct.State* %0, i64 0, i32 6, i32 11, i32 0, i32 0
  %RBP = getelementptr inbounds %struct.State, %struct.State* %0, i64 0, i32 6, i32 15, i32 0, i32 0
  %3 = load i64, i64* %RBP, align 8
  %4 = add i64 %3, -288
  %5 = load i64, i64* %PC, align 8
  %6 = add i64 %5, 7
  store i64 %6, i64* %PC, align 8
  %7 = inttoptr i64 %4 to i64*
  %8 = load i64, i64* %7, align 8
  store i64 %8, i64* %RDI, align 8
  ret %struct.Memory* %2
}

define %struct.Memory* @routine_movq_MINUS0x128__rbp____rsi(%struct.State* dereferenceable(3376), i64, %struct.Memory*) local_unnamed_addr {
block_400478:
  %PC = getelementptr inbounds %struct.State, %struct.State* %0, i64 0, i32 6, i32 33, i32 0, i32 0
  %RSI = getelementptr inbounds %struct.State, %struct.State* %0, i64 0, i32 6, i32 9, i32 0, i32 0
  %RBP = getelementptr inbounds %struct.State, %struct.State* %0, i64 0, i32 6, i32 15, i32 0, i32 0
  %3 = load i64, i64* %RBP, align 8
  %4 = add i64 %3, -296
  %5 = load i64, i64* %PC, align 8
  %6 = add i64 %5, 7
  store i64 %6, i64* %PC, align 8
  %7 = inttoptr i64 %4 to i64*
  %8 = load i64, i64* %7, align 8
  store i64 %8, i64* %RSI, align 8
  ret %struct.Memory* %2
}

define %struct.Memory* @routine_movq_MINUS0x130__rbp____rdx(%struct.State* dereferenceable(3376), i64, %struct.Memory*) local_unnamed_addr {
block_400478:
  %PC = getelementptr inbounds %struct.State, %struct.State* %0, i64 0, i32 6, i32 33, i32 0, i32 0
  %RDX = getelementptr inbounds %struct.State, %struct.State* %0, i64 0, i32 6, i32 7, i32 0, i32 0
  %RBP = getelementptr inbounds %struct.State, %struct.State* %0, i64 0, i32 6, i32 15, i32 0, i32 0
  %3 = load i64, i64* %RBP, align 8
  %4 = add i64 %3, -304
  %5 = load i64, i64* %PC, align 8
  %6 = add i64 %5, 7
  store i64 %6, i64* %PC, align 8
  %7 = inttoptr i64 %4 to i64*
  %8 = load i64, i64* %7, align 8
  store i64 %8, i64* %RDX, align 8
  ret %struct.Memory* %2
}

define %struct.Memory* @routine_movq_MINUS0x138__rbp____rcx(%struct.State* dereferenceable(3376), i64, %struct.Memory*) local_unnamed_addr {
block_400478:
  %PC = getelementptr inbounds %struct.State, %struct.State* %0, i64 0, i32 6, i32 33, i32 0, i32 0
  %RCX = getelementptr inbounds %struct.State, %struct.State* %0, i64 0, i32 6, i32 5, i32 0, i32 0
  %RBP = getelementptr inbounds %struct.State, %struct.State* %0, i64 0, i32 6, i32 15, i32 0, i32 0
  %3 = load i64, i64* %RBP, align 8
  %4 = add i64 %3, -312
  %5 = load i64, i64* %PC, align 8
  %6 = add i64 %5, 7
  store i64 %6, i64* %PC, align 8
  %7 = inttoptr i64 %4 to i64*
  %8 = load i64, i64* %7, align 8
  store i64 %8, i64* %RCX, align 8
  ret %struct.Memory* %2
}

define %struct.Memory* @routine_callq_._Z14test_quicksortI14PointerWrapperIdEdEvT_S2_S2_S2_T0_PKc(%struct.State* dereferenceable(3376), i64, %struct.Memory*, i64 %rel_off1, i64 %rel_off2, i64 %rel_off3) local_unnamed_addr {
block_400478:
  %PC = getelementptr inbounds %struct.State, %struct.State* %0, i64 0, i32 6, i32 33, i32 0, i32 0
  %3 = load i64, i64* %PC, align 8
  %4 = add i64 %3, %rel_off1
  %5 = add i64 %3, %rel_off2
  %6 = getelementptr inbounds %struct.State, %struct.State* %0, i64 0, i32 6, i32 13, i32 0, i32 0
  %7 = load i64, i64* %6, align 8
  %8 = add i64 %7, -8
  %9 = inttoptr i64 %8 to i64*
  store i64 %5, i64* %9, align 8
  store i64 %8, i64* %6, align 8
  store i64 %4, i64* %PC, align 8
  ret %struct.Memory* %2
}

define %struct.Memory* @routine_movq__0x406984___r8(%struct.State* dereferenceable(3376), i64, %struct.Memory*) local_unnamed_addr {
block_400478:
  %PC = getelementptr inbounds %struct.State, %struct.State* %0, i64 0, i32 6, i32 33, i32 0, i32 0
  %R8 = getelementptr inbounds %struct.State, %struct.State* %0, i64 0, i32 6, i32 17, i32 0, i32 0
  %3 = load i64, i64* %PC, align 8
  %4 = add i64 %3, 10
  store i64 %4, i64* %PC, align 8
  store i64 ptrtoint (%G__0x406984_type* @G__0x406984 to i64), i64* %R8, align 8
  ret %struct.Memory* %2
}

define %struct.Memory* @routine_movq__r9__MINUS0x140__rbp_(%struct.State* dereferenceable(3376), i64, %struct.Memory*) local_unnamed_addr {
block_400478:
  %PC = getelementptr inbounds %struct.State, %struct.State* %0, i64 0, i32 6, i32 33, i32 0, i32 0
  %RBP = getelementptr inbounds %struct.State, %struct.State* %0, i64 0, i32 6, i32 15, i32 0, i32 0
  %R9 = getelementptr inbounds %struct.State, %struct.State* %0, i64 0, i32 6, i32 19, i32 0, i32 0
  %3 = load i64, i64* %RBP, align 8
  %4 = add i64 %3, -320
  %5 = load i64, i64* %R9, align 8
  %6 = load i64, i64* %PC, align 8
  %7 = add i64 %6, 7
  store i64 %7, i64* %PC, align 8
  %8 = inttoptr i64 %4 to i64*
  store i64 %5, i64* %8, align 8
  ret %struct.Memory* %2
}

define %struct.Memory* @routine_movsd_MINUS0x140__rbp____xmm0(%struct.State* dereferenceable(3376), i64, %struct.Memory*) local_unnamed_addr {
block_400478:
  %PC = getelementptr inbounds %struct.State, %struct.State* %0, i64 0, i32 6, i32 33, i32 0, i32 0
  %RBP = getelementptr inbounds %struct.State, %struct.State* %0, i64 0, i32 6, i32 15, i32 0, i32 0
  %3 = load i64, i64* %RBP, align 8
  %4 = add i64 %3, -320
  %5 = load i64, i64* %PC, align 8
  %6 = add i64 %5, 8
  store i64 %6, i64* %PC, align 8
  %7 = inttoptr i64 %4 to i64*
  %8 = load i64, i64* %7, align 8
  %9 = getelementptr inbounds %struct.State, %struct.State* %0, i64 0, i32 1, i64 0, i32 0, i32 0, i32 0, i64 0
  store i64 %8, i64* %9, align 1
  %10 = getelementptr inbounds %struct.State, %struct.State* %0, i64 0, i32 1, i64 0, i32 0, i32 0, i32 0, i64 1
  %11 = bitcast i64* %10 to double*
  store double 0.000000e+00, double* %11, align 1
  ret %struct.Memory* %2
}

define %struct.Memory* @routine_callq_._Z14test_quicksortIP12ValueWrapperIdES1_EvT_S3_S3_S3_T0_PKc(%struct.State* dereferenceable(3376), i64, %struct.Memory*, i64 %rel_off1, i64 %rel_off2, i64 %rel_off3) local_unnamed_addr {
block_400478:
  %PC = getelementptr inbounds %struct.State, %struct.State* %0, i64 0, i32 6, i32 33, i32 0, i32 0
  %3 = load i64, i64* %PC, align 8
  %4 = add i64 %3, %rel_off1
  %5 = add i64 %3, %rel_off2
  %6 = getelementptr inbounds %struct.State, %struct.State* %0, i64 0, i32 6, i32 13, i32 0, i32 0
  %7 = load i64, i64* %6, align 8
  %8 = add i64 %7, -8
  %9 = inttoptr i64 %8 to i64*
  store i64 %5, i64* %9, align 8
  store i64 %8, i64* %6, align 8
  store i64 %4, i64* %PC, align 8
  ret %struct.Memory* %2
}

define %struct.Memory* @routine_movq__0x4069a9___r8(%struct.State* dereferenceable(3376), i64, %struct.Memory*) local_unnamed_addr {
block_400478:
  %PC = getelementptr inbounds %struct.State, %struct.State* %0, i64 0, i32 6, i32 33, i32 0, i32 0
  %R8 = getelementptr inbounds %struct.State, %struct.State* %0, i64 0, i32 6, i32 17, i32 0, i32 0
  %3 = load i64, i64* %PC, align 8
  %4 = add i64 %3, 10
  store i64 %4, i64* %PC, align 8
  store i64 ptrtoint (%G__0x4069a9_type* @G__0x4069a9 to i64), i64* %R8, align 8
  ret %struct.Memory* %2
}

define %struct.Memory* @routine_movq__rcx__MINUS0x148__rbp_(%struct.State* dereferenceable(3376), i64, %struct.Memory*) local_unnamed_addr {
block_400478:
  %PC = getelementptr inbounds %struct.State, %struct.State* %0, i64 0, i32 6, i32 33, i32 0, i32 0
  %RCX = getelementptr inbounds %struct.State, %struct.State* %0, i64 0, i32 6, i32 5, i32 0, i32 0
  %RBP = getelementptr inbounds %struct.State, %struct.State* %0, i64 0, i32 6, i32 15, i32 0, i32 0
  %3 = load i64, i64* %RBP, align 8
  %4 = add i64 %3, -328
  %5 = load i64, i64* %RCX, align 8
  %6 = load i64, i64* %PC, align 8
  %7 = add i64 %6, 7
  store i64 %7, i64* %PC, align 8
  %8 = inttoptr i64 %4 to i64*
  store i64 %5, i64* %8, align 8
  ret %struct.Memory* %2
}

define %struct.Memory* @routine_movq__rcx__MINUS0x150__rbp_(%struct.State* dereferenceable(3376), i64, %struct.Memory*) local_unnamed_addr {
block_400478:
  %PC = getelementptr inbounds %struct.State, %struct.State* %0, i64 0, i32 6, i32 33, i32 0, i32 0
  %RCX = getelementptr inbounds %struct.State, %struct.State* %0, i64 0, i32 6, i32 5, i32 0, i32 0
  %RBP = getelementptr inbounds %struct.State, %struct.State* %0, i64 0, i32 6, i32 15, i32 0, i32 0
  %3 = load i64, i64* %RBP, align 8
  %4 = add i64 %3, -336
  %5 = load i64, i64* %RCX, align 8
  %6 = load i64, i64* %PC, align 8
  %7 = add i64 %6, 7
  store i64 %7, i64* %PC, align 8
  %8 = inttoptr i64 %4 to i64*
  store i64 %5, i64* %8, align 8
  ret %struct.Memory* %2
}

define %struct.Memory* @routine_movq__rcx__MINUS0x158__rbp_(%struct.State* dereferenceable(3376), i64, %struct.Memory*) local_unnamed_addr {
block_400478:
  %PC = getelementptr inbounds %struct.State, %struct.State* %0, i64 0, i32 6, i32 33, i32 0, i32 0
  %RCX = getelementptr inbounds %struct.State, %struct.State* %0, i64 0, i32 6, i32 5, i32 0, i32 0
  %RBP = getelementptr inbounds %struct.State, %struct.State* %0, i64 0, i32 6, i32 15, i32 0, i32 0
  %3 = load i64, i64* %RBP, align 8
  %4 = add i64 %3, -344
  %5 = load i64, i64* %RCX, align 8
  %6 = load i64, i64* %PC, align 8
  %7 = add i64 %6, 7
  store i64 %7, i64* %PC, align 8
  %8 = inttoptr i64 %4 to i64*
  store i64 %5, i64* %8, align 8
  ret %struct.Memory* %2
}

define %struct.Memory* @routine_movq__rcx__MINUS0x160__rbp_(%struct.State* dereferenceable(3376), i64, %struct.Memory*) local_unnamed_addr {
block_400478:
  %PC = getelementptr inbounds %struct.State, %struct.State* %0, i64 0, i32 6, i32 33, i32 0, i32 0
  %RCX = getelementptr inbounds %struct.State, %struct.State* %0, i64 0, i32 6, i32 5, i32 0, i32 0
  %RBP = getelementptr inbounds %struct.State, %struct.State* %0, i64 0, i32 6, i32 15, i32 0, i32 0
  %3 = load i64, i64* %RBP, align 8
  %4 = add i64 %3, -352
  %5 = load i64, i64* %RCX, align 8
  %6 = load i64, i64* %PC, align 8
  %7 = add i64 %6, 7
  store i64 %7, i64* %PC, align 8
  %8 = inttoptr i64 %4 to i64*
  store i64 %5, i64* %8, align 8
  ret %struct.Memory* %2
}

define %struct.Memory* @routine_movq__rcx__MINUS0x168__rbp_(%struct.State* dereferenceable(3376), i64, %struct.Memory*) local_unnamed_addr {
block_400478:
  %PC = getelementptr inbounds %struct.State, %struct.State* %0, i64 0, i32 6, i32 33, i32 0, i32 0
  %RCX = getelementptr inbounds %struct.State, %struct.State* %0, i64 0, i32 6, i32 5, i32 0, i32 0
  %RBP = getelementptr inbounds %struct.State, %struct.State* %0, i64 0, i32 6, i32 15, i32 0, i32 0
  %3 = load i64, i64* %RBP, align 8
  %4 = add i64 %3, -360
  %5 = load i64, i64* %RCX, align 8
  %6 = load i64, i64* %PC, align 8
  %7 = add i64 %6, 7
  store i64 %7, i64* %PC, align 8
  %8 = inttoptr i64 %4 to i64*
  store i64 %5, i64* %8, align 8
  ret %struct.Memory* %2
}

define %struct.Memory* @routine_movq_MINUS0x148__rbp____rdi(%struct.State* dereferenceable(3376), i64, %struct.Memory*) local_unnamed_addr {
block_400478:
  %PC = getelementptr inbounds %struct.State, %struct.State* %0, i64 0, i32 6, i32 33, i32 0, i32 0
  %RDI = getelementptr inbounds %struct.State, %struct.State* %0, i64 0, i32 6, i32 11, i32 0, i32 0
  %RBP = getelementptr inbounds %struct.State, %struct.State* %0, i64 0, i32 6, i32 15, i32 0, i32 0
  %3 = load i64, i64* %RBP, align 8
  %4 = add i64 %3, -328
  %5 = load i64, i64* %PC, align 8
  %6 = add i64 %5, 7
  store i64 %6, i64* %PC, align 8
  %7 = inttoptr i64 %4 to i64*
  %8 = load i64, i64* %7, align 8
  store i64 %8, i64* %RDI, align 8
  ret %struct.Memory* %2
}

define %struct.Memory* @routine_movq_MINUS0x150__rbp____rsi(%struct.State* dereferenceable(3376), i64, %struct.Memory*) local_unnamed_addr {
block_400478:
  %PC = getelementptr inbounds %struct.State, %struct.State* %0, i64 0, i32 6, i32 33, i32 0, i32 0
  %RSI = getelementptr inbounds %struct.State, %struct.State* %0, i64 0, i32 6, i32 9, i32 0, i32 0
  %RBP = getelementptr inbounds %struct.State, %struct.State* %0, i64 0, i32 6, i32 15, i32 0, i32 0
  %3 = load i64, i64* %RBP, align 8
  %4 = add i64 %3, -336
  %5 = load i64, i64* %PC, align 8
  %6 = add i64 %5, 7
  store i64 %6, i64* %PC, align 8
  %7 = inttoptr i64 %4 to i64*
  %8 = load i64, i64* %7, align 8
  store i64 %8, i64* %RSI, align 8
  ret %struct.Memory* %2
}

define %struct.Memory* @routine_movq_MINUS0x158__rbp____rdx(%struct.State* dereferenceable(3376), i64, %struct.Memory*) local_unnamed_addr {
block_400478:
