; ModuleID = 'test.bc'
source_filename = "llvm-link"
target datalayout = "e-m:e-i64:64-f80:128-n8:16:32:64-S128"
target triple = "x86_64-pc-linux-gnu-elf"
%union.anon = type { i64 }
%seg_400388__init_type = type <{ [23 x i8] }>
%seg_4003a0__text_type = type <{ [354 x i8] }>
%seg_400504__fini_type = type <{ [9 x i8] }>
%seg_400510__rodata_type = type <{ [4 x i8] }>
%seg_400514__eh_frame_hdr_type = type <{ [52 x i8] }>
%seg_400548__eh_frame_type = type <{ [208 x i8] }>
%seg_600e40__init_array_type = type <{ i64, i64 }>
%seg_601018__data_type = type <{ [16 x i8] }>
%__bss_start_type = type <{ [8 x i8] }>
%struct.State = type { %struct.ArchState, [32 x %union.VectorReg], %struct.ArithFlags, %union.anon, %struct.Segments, %struct.AddressSpace, %struct.GPR, %struct.X87Stack, %struct.MMX, %struct.FPUStatusFlags, %union.anon, %union.FPU, %struct.SegmentCaches }
%struct.ArchState = type { i32, i32, %union.anon }
%union.VectorReg = type { %union.vec512_t }
%union.vec512_t = type { %struct.uint64v8_t }
%struct.uint64v8_t = type { [8 x i64] }
%struct.ArithFlags = type { i8, i8, i8, i8, i8, i8, i8, i8, i8, i8, i8, i8, i8, i8, i8, i8 }
%struct.Segments = type { i16, %union.SegmentSelector, i16, %union.SegmentSelector, i16, %union.SegmentSelector, i16, %union.SegmentSelector, i16, %union.SegmentSelector, i16, %union.SegmentSelector }
%union.SegmentSelector = type { i16 }
%struct.AddressSpace = type { i64, %struct.Reg, i64, %struct.Reg, i64, %struct.Reg, i64, %struct.Reg, i64, %struct.Reg, i64, %struct.Reg }
%struct.Reg = type { %union.anon }
%struct.GPR = type { i64, %struct.Reg, i64, %struct.Reg, i64, %struct.Reg, i64, %struct.Reg, i64, %struct.Reg, i64, %struct.Reg, i64, %struct.Reg, i64, %struct.Reg, i64, %struct.Reg, i64, %struct.Reg, i64, %struct.Reg, i64, %struct.Reg, i64, %struct.Reg, i64, %struct.Reg, i64, %struct.Reg, i64, %struct.Reg, i64, %struct.Reg }
%struct.X87Stack = type { [8 x %struct.anon.3] }
%struct.anon.3 = type { i64, double }
%struct.MMX = type { [8 x %struct.anon.4] }
%struct.anon.4 = type { i64, %union.vec64_t }
%union.vec64_t = type { %struct.uint64v1_t }
%struct.uint64v1_t = type { [1 x i64] }
%struct.FPUStatusFlags = type { i8, i8, i8, i8, i8, i8, i8, i8, i8, i8, i8, i8, i8, i8, i8, i8, i8, i8, i8, i8, [4 x i8] }
%union.FPU = type { %struct.anon.13 }
%struct.anon.13 = type { %struct.FpuFXSAVE, [96 x i8] }
%struct.FpuFXSAVE = type { %union.SegmentSelector, %union.SegmentSelector, %union.FPUAbridgedTagWord, i8, i16, i32, %union.SegmentSelector, i16, i32, %union.SegmentSelector, i16, %union.FPUControlStatus, %union.FPUControlStatus, [8 x %struct.FPUStackElem], [16 x %union.vec128_t] }
%union.FPUAbridgedTagWord = type { i8 }
%union.FPUControlStatus = type { i32 }
%struct.FPUStackElem = type { %union.anon.11, [6 x i8] }
%union.anon.11 = type { %struct.float80_t }
%struct.float80_t = type { [10 x i8] }
%union.vec128_t = type { %struct.uint128v1_t }
%struct.uint128v1_t = type { [1 x i128] }
%struct.SegmentCaches = type { %struct.SegmentShadow, %struct.SegmentShadow, %struct.SegmentShadow, %struct.SegmentShadow, %struct.SegmentShadow, %struct.SegmentShadow }
%struct.SegmentShadow = type { %union.anon, i32, i32 }
%struct.Memory = type opaque
%struct.uint8v32_t = type { [32 x i8] }
%struct.anon.2 = type { i8, i8 }
%struct.int32v8_t = type { [8 x i32] }
%struct.float32v8_t = type { [8 x float] }
%struct.uint8v8_t = type { [8 x i8] }
%struct.uint8v16_t = type { [16 x i8] }
%struct.uint16v8_t = type { [8 x i16] }
%struct.uint8v4_t = type { [4 x i8] }
%struct.int16v4_t = type { [4 x i16] }
%struct.int32v4_t = type { [4 x i32] }
%struct.uint64v2_t = type { [2 x i64] }
%struct.uint64v4_t = type { [4 x i64] }
%struct.uint128v2_t = type { [2 x i128] }
%struct.uint16v16_t = type { [16 x i16] }
%struct.float64v4_t = type { [4 x double] }
%"class.(anonymous namespace)::BitMatrix" = type { %"class.std::bitset", [16 x [16 x i8]] }
%"class.std::bitset" = type { %struct.uint64v4_t }
%struct.bcd80_t = type { [9 x %union.FPUAbridgedTagWord], %union.FPUAbridgedTagWord }
%struct.FpuFSAVE = type { %union.SegmentSelector, i16, %union.SegmentSelector, i16, %union.SegmentSelector, i16, i32, %union.SegmentSelector, i16, i32, %union.SegmentSelector, i16, [8 x %struct.FPUStackElem] }
%struct.anon.5 = type { i32, i32 }
@switch.table = private unnamed_addr constant [4 x i32] [i32 2048, i32 3072, i32 0, i32 1024]
@DR0 = external global i64, align 8
@DR1 = external global i64, align 8
@DR2 = external global i64, align 8
@DR3 = external global i64, align 8
@DR4 = external global i64, align 8
@DR5 = external global i64, align 8
@DR6 = external global i64, align 8
@DR7 = external global i64, align 8
@gCR0 = external global %union.anon, align 1
@gCR1 = external global %union.anon, align 1
@gCR2 = external global %union.anon, align 1
@gCR3 = external global %union.anon, align 1
@gCR4 = external global %union.anon, align 1
@gCR8 = external global %union.anon, align 1
@seg_400388__init = internal constant %seg_400388__init_type <{ [23 x i8] c"H\83\EC\08H\8B\05e\0C \00H\85\C0t\02\FF\D0H\83\C4\08\C3" }>
@seg_4003a0__text = internal constant %seg_4003a0__text_type <{ [354 x i8] c"1\EDI\89\D1^H\89\E2H\83\E4\F0PTI\C7\C0\00\05@\00H\C7\C1\90\04@\00H\C7\C7\88\04@\00\FF\15&\0C \00\F4\0F\1FD\00\00\F3\C3f.\0F\1F\84\00\00\00\00\00\0F\1F@\00U\B8(\10`\00H=(\10`\00H\89\E5t\17\B8\00\00\00\00H\85\C0t\0D]\BF(\10`\00\FF\E0\0F\1FD\00\00]\C3f\0F\1FD\00\00\BE(\10`\00UH\81\EE(\10`\00H\89\E5H\C1\FE\03H\89\F0H\C1\E8?H\01\C6H\D1\FEt\15\B8\00\00\00\00H\85\C0t\0B]\BF(\10`\00\FF\E0\0F\1F\00]\C3f\0F\1FD\00\00\80=\D1\0B \00\00u\17UH\89\E5\E8~\FF\FF\FF\C6\05\BF\0B \00\01]\C3\0F\1FD\00\00\F3\C3\0F\1F@\00f.\0F\1F\84\00\00\00\00\00UH\89\E5]\EB\89\90U\C3f\0F\1FD\00\00AWAVI\89\D7AUATL\8D%\9E\09 \00UH\8D-\9E\09 \00SA\89\FDI\89\F6L)\E5H\83\EC\08H\C1\FD\03\E8\C7\FE\FF\FFH\85\EDt 1\DB\0F\1F\84\00\00\00\00\00L\89\FAL\89\F6D\89\EFA\FF\14\DCH\83\C3\01H9\DDu\EAH\83\C4\08[]A\5CA]A^A_\C3\90f.\0F\1F\84\00\00\00\00\00\F3\C3" }>
@seg_400504__fini = internal constant %seg_400504__fini_type <{ [9 x i8] c"H\83\EC\08H\83\C4\08\C3" }>
@seg_400510__rodata = internal constant %seg_400510__rodata_type <{ [4 x i8] c"\01\00\02\00" }>
@seg_400514__eh_frame_hdr = internal constant %seg_400514__eh_frame_hdr_type <{ [52 x i8] c"\01\1B\03;0\00\00\00\05\00\00\00\8C\FE\FF\FFL\00\00\00\BC\FE\FF\FFx\00\00\00t\FF\FF\FF\8C\00\00\00|\FF\FF\FF\A4\00\00\00\EC\FF\FF\FF\EC\00\00\00" }>
@seg_400548__eh_frame = internal constant %seg_400548__eh_frame_type <{ [208 x i8] c"\14\00\00\00\00\00\00\00\01zR\00\01x\10\01\1B\0C\07\08\90\01\07\10\10\00\00\00\1C\00\00\008\FE\FF\FF+\00\00\00\00\00\00\00\14\00\00\00\00\00\00\00\01zR\00\01x\10\01\1B\0C\07\08\90\01\00\00\10\00\00\00\1C\00\00\00<\FE\FF\FF\02\00\00\00\00\00\00\00\14\00\00\000\00\00\00\E0\FE\FF\FF\02\00\00\00\00\00\00\00\00\00\00\00D\00\00\00H\00\00\00\D0\FE\FF\FFe\00\00\00\00B\0E\10\8F\02B\0E\18\8E\03E\0E \8D\04B\0E(\8C\05H\0E0\86\06H\0E8\83\07M\0E@r\0E8A\0E0A\0E(B\0E B\0E\18B\0E\10B\0E\08\00\10\00\00\00\90\00\00\00\F8\FE\FF\FF\02\00\00\00\00\00\00\00\00\00\00\00" }>
@seg_601018__data = internal global %seg_601018__data_type zeroinitializer
@__bss_start = global %__bss_start_type zeroinitializer
@0 = internal global i1 false

; Function Declaraions
declare i32 @llvm.ctpop.i32(i32) #2
declare %struct.Memory* @__remill_error(%struct.State* dereferenceable(3376), i64, %struct.Memory*)


; Data Access Globals


define %struct.Memory* @Fft(%struct.State* noalias , i64, %struct.Memory* noalias) alwaysinline  {
entry:
  %3 = getelementptr inbounds %struct.State, %struct.State* %0, i64 0, i32 6, i32 33, i32 0, i32 0
  store i64 %1, i64* %3, align 8
  %BRANCH_TAKEN = alloca i8, align 1
  store i8 0, i8* %BRANCH_TAKEN, align 1
  %MEMORY = alloca %struct.Memory*, align 8
  store %struct.Memory* %2, %struct.Memory** %MEMORY, align 8

  ; Code: .Fft:	 RIP: 400a30	 Bytes: 0
  ; Code: pushq %rbp	 RIP: 400a30	 Bytes: 1
  %loadMem_400a30 = load %struct.Memory*, %struct.Memory** %MEMORY
  %call_400a30 = call %struct.Memory* @routine_pushq__rbp(%struct.State* %0, i64  0, %struct.Memory* %loadMem_400a30)
  store %struct.Memory* %call_400a30, %struct.Memory** %MEMORY

  ; Code: movq %rsp, %rbp	 RIP: 400a31	 Bytes: 3
  %loadMem_400a31 = load %struct.Memory*, %struct.Memory** %MEMORY
  %call_400a31 = call %struct.Memory* @routine_movq__rsp___rbp(%struct.State* %0, i64  0, %struct.Memory* %loadMem_400a31)
  store %struct.Memory* %call_400a31, %struct.Memory** %MEMORY

  ; Code: movl $0x2, %eax	 RIP: 400a34	 Bytes: 5
  %loadMem_400a34 = load %struct.Memory*, %struct.Memory** %MEMORY
  %call_400a34 = call %struct.Memory* @routine_movl__0x2___eax(%struct.State* %0, i64  0, %struct.Memory* %loadMem_400a34)
  store %struct.Memory* %call_400a34, %struct.Memory** %MEMORY

  ; Code: movl %edi, -0x4(%rbp)	 RIP: 400a39	 Bytes: 3
  %loadMem_400a39 = load %struct.Memory*, %struct.Memory** %MEMORY
  %call_400a39 = call %struct.Memory* @routine_movl__edi__MINUS0x4__rbp_(%struct.State* %0, i64  0, %struct.Memory* %loadMem_400a39)
  store %struct.Memory* %call_400a39, %struct.Memory** %MEMORY

  ; Code: movq %rsi, -0x10(%rbp)	 RIP: 400a3c	 Bytes: 4
  %loadMem_400a3c = load %struct.Memory*, %struct.Memory** %MEMORY
  %call_400a3c = call %struct.Memory* @routine_movq__rsi__MINUS0x10__rbp_(%struct.State* %0, i64  0, %struct.Memory* %loadMem_400a3c)
  store %struct.Memory* %call_400a3c, %struct.Memory** %MEMORY

  ; Code: movq %rdx, -0x18(%rbp)	 RIP: 400a40	 Bytes: 4
  %loadMem_400a40 = load %struct.Memory*, %struct.Memory** %MEMORY
  %call_400a40 = call %struct.Memory* @routine_movq__rdx__MINUS0x18__rbp_(%struct.State* %0, i64  0, %struct.Memory* %loadMem_400a40)
  store %struct.Memory* %call_400a40, %struct.Memory** %MEMORY

  ; Code: movq %rcx, -0x20(%rbp)	 RIP: 400a44	 Bytes: 4
  %loadMem_400a44 = load %struct.Memory*, %struct.Memory** %MEMORY
  %call_400a44 = call %struct.Memory* @routine_movq__rcx__MINUS0x20__rbp_(%struct.State* %0, i64  0, %struct.Memory* %loadMem_400a44)
  store %struct.Memory* %call_400a44, %struct.Memory** %MEMORY

  ; Code: movss %xmm0, -0x24(%rbp)	 RIP: 400a48	 Bytes: 5
  %loadMem_400a48 = load %struct.Memory*, %struct.Memory** %MEMORY
  %call_400a48 = call %struct.Memory* @routine_movss__xmm0__MINUS0x24__rbp_(%struct.State* %0, i64  0, %struct.Memory* %loadMem_400a48)
  store %struct.Memory* %call_400a48, %struct.Memory** %MEMORY

  ; Code: movl -0x4(%rbp), %edi	 RIP: 400a4d	 Bytes: 3
  %loadMem_400a4d = load %struct.Memory*, %struct.Memory** %MEMORY
  %call_400a4d = call %struct.Memory* @routine_movl_MINUS0x4__rbp____edi(%struct.State* %0, i64  0, %struct.Memory* %loadMem_400a4d)
  store %struct.Memory* %call_400a4d, %struct.Memory** %MEMORY

  ; Code: movl %eax, -0x40(%rbp)	 RIP: 400a50	 Bytes: 3
  %loadMem_400a50 = load %struct.Memory*, %struct.Memory** %MEMORY
  %call_400a50 = call %struct.Memory* @routine_movl__eax__MINUS0x40__rbp_(%struct.State* %0, i64  0, %struct.Memory* %loadMem_400a50)
  store %struct.Memory* %call_400a50, %struct.Memory** %MEMORY

  ; Code: movl %edi, %eax	 RIP: 400a53	 Bytes: 2
  %loadMem_400a53 = load %struct.Memory*, %struct.Memory** %MEMORY
  %call_400a53 = call %struct.Memory* @routine_movl__edi___eax(%struct.State* %0, i64  0, %struct.Memory* %loadMem_400a53)
  store %struct.Memory* %call_400a53, %struct.Memory** %MEMORY

  ; Code: cltd	 RIP: 400a55	 Bytes: 1
  %loadMem_400a55 = load %struct.Memory*, %struct.Memory** %MEMORY
  %call_400a55 = call %struct.Memory* @routine_cltd(%struct.State* %0, i64  0, %struct.Memory* %loadMem_400a55)
  store %struct.Memory* %call_400a55, %struct.Memory** %MEMORY

  ; Code: movl -0x40(%rbp), %edi	 RIP: 400a56	 Bytes: 3
  %loadMem_400a56 = load %struct.Memory*, %struct.Memory** %MEMORY
  %call_400a56 = call %struct.Memory* @routine_movl_MINUS0x40__rbp____edi(%struct.State* %0, i64  0, %struct.Memory* %loadMem_400a56)
  store %struct.Memory* %call_400a56, %struct.Memory** %MEMORY

  ; Code: idivl %edi	 RIP: 400a59	 Bytes: 2
  %loadMem_400a59 = load %struct.Memory*, %struct.Memory** %MEMORY
  %call_400a59 = call %struct.Memory* @routine_idivl__edi(%struct.State* %0, i64  0, %struct.Memory* %loadMem_400a59)
  store %struct.Memory* %call_400a59, %struct.Memory** %MEMORY

  ; Code: movl %eax, -0x38(%rbp)	 RIP: 400a5b	 Bytes: 3
  %loadMem_400a5b = load %struct.Memory*, %struct.Memory** %MEMORY
  %call_400a5b = call %struct.Memory* @routine_movl__eax__MINUS0x38__rbp_(%struct.State* %0, i64  0, %struct.Memory* %loadMem_400a5b)
  store %struct.Memory* %call_400a5b, %struct.Memory** %MEMORY

  ; Code: movl $0x1, -0x34(%rbp)	 RIP: 400a5e	 Bytes: 7
  %loadMem_400a5e = load %struct.Memory*, %struct.Memory** %MEMORY
  %call_400a5e = call %struct.Memory* @routine_movl__0x1__MINUS0x34__rbp_(%struct.State* %0, i64  0, %struct.Memory* %loadMem_400a5e)
  store %struct.Memory* %call_400a5e, %struct.Memory** %MEMORY

  ; Code: .L_400a65:	 RIP: 400a65	 Bytes: 0
  br label %block_.L_400a65
block_.L_400a65:

  ; Code: movl $0x0, -0x30(%rbp)	 RIP: 400a65	 Bytes: 7
  %loadMem_400a65 = load %struct.Memory*, %struct.Memory** %MEMORY
  %call_400a65 = call %struct.Memory* @routine_movl__0x0__MINUS0x30__rbp_(%struct.State* %0, i64  0, %struct.Memory* %loadMem_400a65)
  store %struct.Memory* %call_400a65, %struct.Memory** %MEMORY

  ; Code: movl -0x34(%rbp), %eax	 RIP: 400a6c	 Bytes: 3
  %loadMem_400a6c = load %struct.Memory*, %struct.Memory** %MEMORY
  %call_400a6c = call %struct.Memory* @routine_movl_MINUS0x34__rbp____eax(%struct.State* %0, i64  0, %struct.Memory* %loadMem_400a6c)
  store %struct.Memory* %call_400a6c, %struct.Memory** %MEMORY

  ; Code: movl %eax, -0x2c(%rbp)	 RIP: 400a6f	 Bytes: 3
  %loadMem_400a6f = load %struct.Memory*, %struct.Memory** %MEMORY
  %call_400a6f = call %struct.Memory* @routine_movl__eax__MINUS0x2c__rbp_(%struct.State* %0, i64  0, %struct.Memory* %loadMem_400a6f)
  store %struct.Memory* %call_400a6f, %struct.Memory** %MEMORY

  ; Code: movl $0x1, -0x28(%rbp)	 RIP: 400a72	 Bytes: 7
  %loadMem_400a72 = load %struct.Memory*, %struct.Memory** %MEMORY
  %call_400a72 = call %struct.Memory* @routine_movl__0x1__MINUS0x28__rbp_(%struct.State* %0, i64  0, %struct.Memory* %loadMem_400a72)
  store %struct.Memory* %call_400a72, %struct.Memory** %MEMORY

  ; Code: .L_400a79:	 RIP: 400a79	 Bytes: 0
  br label %block_.L_400a79
block_.L_400a79:

  ; Code: jmpq .L_400a7e	 RIP: 400a79	 Bytes: 5
  %loadMem_400a79 = load %struct.Memory*, %struct.Memory** %MEMORY
  %call_400a79 = call %struct.Memory* @routine_jmpq_.L_400a7e(%struct.State* %0, i64  0, %struct.Memory* %loadMem_400a79, i64 5, i64 5)
  store %struct.Memory* %call_400a79, %struct.Memory** %MEMORY

  br label %block_.L_400a7e

  ; Code: .L_400a7e:	 RIP: 400a7e	 Bytes: 0
block_.L_400a7e:

  ; Code: movq -0x10(%rbp), %rax	 RIP: 400a7e	 Bytes: 4
  %loadMem_400a7e = load %struct.Memory*, %struct.Memory** %MEMORY
  %call_400a7e = call %struct.Memory* @routine_movq_MINUS0x10__rbp____rax(%struct.State* %0, i64  0, %struct.Memory* %loadMem_400a7e)
  store %struct.Memory* %call_400a7e, %struct.Memory** %MEMORY

  ; Code: movslq -0x28(%rbp), %rcx	 RIP: 400a82	 Bytes: 4
  %loadMem_400a82 = load %struct.Memory*, %struct.Memory** %MEMORY
  %call_400a82 = call %struct.Memory* @routine_movslq_MINUS0x28__rbp____rcx(%struct.State* %0, i64  0, %struct.Memory* %loadMem_400a82)
  store %struct.Memory* %call_400a82, %struct.Memory** %MEMORY

  ; Code: movss (%rax,%rcx,8), %xmm0	 RIP: 400a86	 Bytes: 5
  %loadMem_400a86 = load %struct.Memory*, %struct.Memory** %MEMORY
  %call_400a86 = call %struct.Memory* @routine_movss___rax__rcx_8____xmm0(%struct.State* %0, i64  0, %struct.Memory* %loadMem_400a86)
  store %struct.Memory* %call_400a86, %struct.Memory** %MEMORY

  ; Code: movq -0x10(%rbp), %rax	 RIP: 400a8b	 Bytes: 4
  %loadMem_400a8b = load %struct.Memory*, %struct.Memory** %MEMORY
  %call_400a8b = call %struct.Memory* @routine_movq_MINUS0x10__rbp____rax(%struct.State* %0, i64  0, %struct.Memory* %loadMem_400a8b)
  store %struct.Memory* %call_400a8b, %struct.Memory** %MEMORY

  ; Code: movl -0x38(%rbp), %edx	 RIP: 400a8f	 Bytes: 3
  %loadMem_400a8f = load %struct.Memory*, %struct.Memory** %MEMORY
  %call_400a8f = call %struct.Memory* @routine_movl_MINUS0x38__rbp____edx(%struct.State* %0, i64  0, %struct.Memory* %loadMem_400a8f)
  store %struct.Memory* %call_400a8f, %struct.Memory** %MEMORY

  ; Code: addl -0x28(%rbp), %edx	 RIP: 400a92	 Bytes: 3
  %loadMem_400a92 = load %struct.Memory*, %struct.Memory** %MEMORY
  %call_400a92 = call %struct.Memory* @routine_addl_MINUS0x28__rbp____edx(%struct.State* %0, i64  0, %struct.Memory* %loadMem_400a92)
  store %struct.Memory* %call_400a92, %struct.Memory** %MEMORY

  ; Code: movslq %edx, %rcx	 RIP: 400a95	 Bytes: 3
  %loadMem_400a95 = load %struct.Memory*, %struct.Memory** %MEMORY
  %call_400a95 = call %struct.Memory* @routine_movslq__edx___rcx(%struct.State* %0, i64  0, %struct.Memory* %loadMem_400a95)
  store %struct.Memory* %call_400a95, %struct.Memory** %MEMORY

  ; Code: addss (%rax,%rcx,8), %xmm0	 RIP: 400a98	 Bytes: 5
  %loadMem_400a98 = load %struct.Memory*, %struct.Memory** %MEMORY
  %call_400a98 = call %struct.Memory* @routine_addss___rax__rcx_8____xmm0(%struct.State* %0, i64  0, %struct.Memory* %loadMem_400a98)
  store %struct.Memory* %call_400a98, %struct.Memory** %MEMORY

  ; Code: movq -0x18(%rbp), %rax	 RIP: 400a9d	 Bytes: 4
  %loadMem_400a9d = load %struct.Memory*, %struct.Memory** %MEMORY
  %call_400a9d = call %struct.Memory* @routine_movq_MINUS0x18__rbp____rax(%struct.State* %0, i64  0, %struct.Memory* %loadMem_400a9d)
  store %struct.Memory* %call_400a9d, %struct.Memory** %MEMORY

  ; Code: movl -0x28(%rbp), %edx	 RIP: 400aa1	 Bytes: 3
  %loadMem_400aa1 = load %struct.Memory*, %struct.Memory** %MEMORY
  %call_400aa1 = call %struct.Memory* @routine_movl_MINUS0x28__rbp____edx(%struct.State* %0, i64  0, %struct.Memory* %loadMem_400aa1)
  store %struct.Memory* %call_400aa1, %struct.Memory** %MEMORY

  ; Code: addl -0x30(%rbp), %edx	 RIP: 400aa4	 Bytes: 3
  %loadMem_400aa4 = load %struct.Memory*, %struct.Memory** %MEMORY
  %call_400aa4 = call %struct.Memory* @routine_addl_MINUS0x30__rbp____edx(%struct.State* %0, i64  0, %struct.Memory* %loadMem_400aa4)
  store %struct.Memory* %call_400aa4, %struct.Memory** %MEMORY

  ; Code: movslq %edx, %rcx	 RIP: 400aa7	 Bytes: 3
  %loadMem_400aa7 = load %struct.Memory*, %struct.Memory** %MEMORY
  %call_400aa7 = call %struct.Memory* @routine_movslq__edx___rcx(%struct.State* %0, i64  0, %struct.Memory* %loadMem_400aa7)
  store %struct.Memory* %call_400aa7, %struct.Memory** %MEMORY

  ; Code: movss %xmm0, (%rax,%rcx,8)	 RIP: 400aaa	 Bytes: 5
  %loadMem_400aaa = load %struct.Memory*, %struct.Memory** %MEMORY
  %call_400aaa = call %struct.Memory* @routine_movss__xmm0____rax__rcx_8_(%struct.State* %0, i64  0, %struct.Memory* %loadMem_400aaa)
  store %struct.Memory* %call_400aaa, %struct.Memory** %MEMORY

  ; Code: movq -0x10(%rbp), %rax	 RIP: 400aaf	 Bytes: 4
  %loadMem_400aaf = load %struct.Memory*, %struct.Memory** %MEMORY
  %call_400aaf = call %struct.Memory* @routine_movq_MINUS0x10__rbp____rax(%struct.State* %0, i64  0, %struct.Memory* %loadMem_400aaf)
  store %struct.Memory* %call_400aaf, %struct.Memory** %MEMORY

  ; Code: movslq -0x28(%rbp), %rcx	 RIP: 400ab3	 Bytes: 4
  %loadMem_400ab3 = load %struct.Memory*, %struct.Memory** %MEMORY
  %call_400ab3 = call %struct.Memory* @routine_movslq_MINUS0x28__rbp____rcx(%struct.State* %0, i64  0, %struct.Memory* %loadMem_400ab3)
  store %struct.Memory* %call_400ab3, %struct.Memory** %MEMORY

  ; Code: movss 0x4(%rax,%rcx,8), %xmm0	 RIP: 400ab7	 Bytes: 6
  %loadMem_400ab7 = load %struct.Memory*, %struct.Memory** %MEMORY
  %call_400ab7 = call %struct.Memory* @routine_movss_0x4__rax__rcx_8____xmm0(%struct.State* %0, i64  0, %struct.Memory* %loadMem_400ab7)
  store %struct.Memory* %call_400ab7, %struct.Memory** %MEMORY

  ; Code: movq -0x10(%rbp), %rax	 RIP: 400abd	 Bytes: 4
  %loadMem_400abd = load %struct.Memory*, %struct.Memory** %MEMORY
  %call_400abd = call %struct.Memory* @routine_movq_MINUS0x10__rbp____rax(%struct.State* %0, i64  0, %struct.Memory* %loadMem_400abd)
  store %struct.Memory* %call_400abd, %struct.Memory** %MEMORY

  ; Code: movl -0x38(%rbp), %edx	 RIP: 400ac1	 Bytes: 3
  %loadMem_400ac1 = load %struct.Memory*, %struct.Memory** %MEMORY
  %call_400ac1 = call %struct.Memory* @routine_movl_MINUS0x38__rbp____edx(%struct.State* %0, i64  0, %struct.Memory* %loadMem_400ac1)
  store %struct.Memory* %call_400ac1, %struct.Memory** %MEMORY

  ; Code: addl -0x28(%rbp), %edx	 RIP: 400ac4	 Bytes: 3
  %loadMem_400ac4 = load %struct.Memory*, %struct.Memory** %MEMORY
  %call_400ac4 = call %struct.Memory* @routine_addl_MINUS0x28__rbp____edx(%struct.State* %0, i64  0, %struct.Memory* %loadMem_400ac4)
  store %struct.Memory* %call_400ac4, %struct.Memory** %MEMORY

  ; Code: movslq %edx, %rcx	 RIP: 400ac7	 Bytes: 3
  %loadMem_400ac7 = load %struct.Memory*, %struct.Memory** %MEMORY
  %call_400ac7 = call %struct.Memory* @routine_movslq__edx___rcx(%struct.State* %0, i64  0, %struct.Memory* %loadMem_400ac7)
  store %struct.Memory* %call_400ac7, %struct.Memory** %MEMORY

  ; Code: addss 0x4(%rax,%rcx,8), %xmm0	 RIP: 400aca	 Bytes: 6
  %loadMem_400aca = load %struct.Memory*, %struct.Memory** %MEMORY
  %call_400aca = call %struct.Memory* @routine_addss_0x4__rax__rcx_8____xmm0(%struct.State* %0, i64  0, %struct.Memory* %loadMem_400aca)
  store %struct.Memory* %call_400aca, %struct.Memory** %MEMORY

  ; Code: movq -0x18(%rbp), %rax	 RIP: 400ad0	 Bytes: 4
  %loadMem_400ad0 = load %struct.Memory*, %struct.Memory** %MEMORY
  %call_400ad0 = call %struct.Memory* @routine_movq_MINUS0x18__rbp____rax(%struct.State* %0, i64  0, %struct.Memory* %loadMem_400ad0)
  store %struct.Memory* %call_400ad0, %struct.Memory** %MEMORY

  ; Code: movl -0x28(%rbp), %edx	 RIP: 400ad4	 Bytes: 3
  %loadMem_400ad4 = load %struct.Memory*, %struct.Memory** %MEMORY
  %call_400ad4 = call %struct.Memory* @routine_movl_MINUS0x28__rbp____edx(%struct.State* %0, i64  0, %struct.Memory* %loadMem_400ad4)
  store %struct.Memory* %call_400ad4, %struct.Memory** %MEMORY

  ; Code: addl -0x30(%rbp), %edx	 RIP: 400ad7	 Bytes: 3
  %loadMem_400ad7 = load %struct.Memory*, %struct.Memory** %MEMORY
  %call_400ad7 = call %struct.Memory* @routine_addl_MINUS0x30__rbp____edx(%struct.State* %0, i64  0, %struct.Memory* %loadMem_400ad7)
  store %struct.Memory* %call_400ad7, %struct.Memory** %MEMORY

  ; Code: movslq %edx, %rcx	 RIP: 400ada	 Bytes: 3
  %loadMem_400ada = load %struct.Memory*, %struct.Memory** %MEMORY
  %call_400ada = call %struct.Memory* @routine_movslq__edx___rcx(%struct.State* %0, i64  0, %struct.Memory* %loadMem_400ada)
  store %struct.Memory* %call_400ada, %struct.Memory** %MEMORY

  ; Code: movss %xmm0, 0x4(%rax,%rcx,8)	 RIP: 400add	 Bytes: 6
  %loadMem_400add = load %struct.Memory*, %struct.Memory** %MEMORY
  %call_400add = call %struct.Memory* @routine_movss__xmm0__0x4__rax__rcx_8_(%struct.State* %0, i64  0, %struct.Memory* %loadMem_400add)
  store %struct.Memory* %call_400add, %struct.Memory** %MEMORY

  ; Code: movq -0x20(%rbp), %rax	 RIP: 400ae3	 Bytes: 4
  %loadMem_400ae3 = load %struct.Memory*, %struct.Memory** %MEMORY
  %call_400ae3 = call %struct.Memory* @routine_movq_MINUS0x20__rbp____rax(%struct.State* %0, i64  0, %struct.Memory* %loadMem_400ae3)
  store %struct.Memory* %call_400ae3, %struct.Memory** %MEMORY

  ; Code: movl -0x30(%rbp), %edx	 RIP: 400ae7	 Bytes: 3
  %loadMem_400ae7 = load %struct.Memory*, %struct.Memory** %MEMORY
  %call_400ae7 = call %struct.Memory* @routine_movl_MINUS0x30__rbp____edx(%struct.State* %0, i64  0, %struct.Memory* %loadMem_400ae7)
  store %struct.Memory* %call_400ae7, %struct.Memory** %MEMORY

  ; Code: addl $0x1, %edx	 RIP: 400aea	 Bytes: 3
  %loadMem_400aea = load %struct.Memory*, %struct.Memory** %MEMORY
  %call_400aea = call %struct.Memory* @routine_addl__0x1___edx(%struct.State* %0, i64  0, %struct.Memory* %loadMem_400aea)
  store %struct.Memory* %call_400aea, %struct.Memory** %MEMORY

  ; Code: movslq %edx, %rcx	 RIP: 400aed	 Bytes: 3
  %loadMem_400aed = load %struct.Memory*, %struct.Memory** %MEMORY
  %call_400aed = call %struct.Memory* @routine_movslq__edx___rcx(%struct.State* %0, i64  0, %struct.Memory* %loadMem_400aed)
  store %struct.Memory* %call_400aed, %struct.Memory** %MEMORY

  ; Code: movss (%rax,%rcx,8), %xmm0	 RIP: 400af0	 Bytes: 5
  %loadMem_400af0 = load %struct.Memory*, %struct.Memory** %MEMORY
  %call_400af0 = call %struct.Memory* @routine_movss___rax__rcx_8____xmm0(%struct.State* %0, i64  0, %struct.Memory* %loadMem_400af0)
  store %struct.Memory* %call_400af0, %struct.Memory** %MEMORY

  ; Code: movq -0x10(%rbp), %rax	 RIP: 400af5	 Bytes: 4
  %loadMem_400af5 = load %struct.Memory*, %struct.Memory** %MEMORY
  %call_400af5 = call %struct.Memory* @routine_movq_MINUS0x10__rbp____rax(%struct.State* %0, i64  0, %struct.Memory* %loadMem_400af5)
  store %struct.Memory* %call_400af5, %struct.Memory** %MEMORY

  ; Code: movslq -0x28(%rbp), %rcx	 RIP: 400af9	 Bytes: 4
  %loadMem_400af9 = load %struct.Memory*, %struct.Memory** %MEMORY
  %call_400af9 = call %struct.Memory* @routine_movslq_MINUS0x28__rbp____rcx(%struct.State* %0, i64  0, %struct.Memory* %loadMem_400af9)
  store %struct.Memory* %call_400af9, %struct.Memory** %MEMORY

  ; Code: movss (%rax,%rcx,8), %xmm1	 RIP: 400afd	 Bytes: 5
  %loadMem_400afd = load %struct.Memory*, %struct.Memory** %MEMORY
  %call_400afd = call %struct.Memory* @routine_movss___rax__rcx_8____xmm1(%struct.State* %0, i64  0, %struct.Memory* %loadMem_400afd)
  store %struct.Memory* %call_400afd, %struct.Memory** %MEMORY

  ; Code: movq -0x10(%rbp), %rax	 RIP: 400b02	 Bytes: 4
  %loadMem_400b02 = load %struct.Memory*, %struct.Memory** %MEMORY
  %call_400b02 = call %struct.Memory* @routine_movq_MINUS0x10__rbp____rax(%struct.State* %0, i64  0, %struct.Memory* %loadMem_400b02)
  store %struct.Memory* %call_400b02, %struct.Memory** %MEMORY

  ; Code: movl -0x28(%rbp), %edx	 RIP: 400b06	 Bytes: 3
  %loadMem_400b06 = load %struct.Memory*, %struct.Memory** %MEMORY
  %call_400b06 = call %struct.Memory* @routine_movl_MINUS0x28__rbp____edx(%struct.State* %0, i64  0, %struct.Memory* %loadMem_400b06)
  store %struct.Memory* %call_400b06, %struct.Memory** %MEMORY

  ; Code: addl -0x38(%rbp), %edx	 RIP: 400b09	 Bytes: 3
  %loadMem_400b09 = load %struct.Memory*, %struct.Memory** %MEMORY
  %call_400b09 = call %struct.Memory* @routine_addl_MINUS0x38__rbp____edx(%struct.State* %0, i64  0, %struct.Memory* %loadMem_400b09)
  store %struct.Memory* %call_400b09, %struct.Memory** %MEMORY

  ; Code: movslq %edx, %rcx	 RIP: 400b0c	 Bytes: 3
  %loadMem_400b0c = load %struct.Memory*, %struct.Memory** %MEMORY
  %call_400b0c = call %struct.Memory* @routine_movslq__edx___rcx(%struct.State* %0, i64  0, %struct.Memory* %loadMem_400b0c)
  store %struct.Memory* %call_400b0c, %struct.Memory** %MEMORY

  ; Code: subss (%rax,%rcx,8), %xmm1	 RIP: 400b0f	 Bytes: 5
  %loadMem_400b0f = load %struct.Memory*, %struct.Memory** %MEMORY
  %call_400b0f = call %struct.Memory* @routine_subss___rax__rcx_8____xmm1(%struct.State* %0, i64  0, %struct.Memory* %loadMem_400b0f)
  store %struct.Memory* %call_400b0f, %struct.Memory** %MEMORY

  ; Code: mulss %xmm1, %xmm0	 RIP: 400b14	 Bytes: 4
  %loadMem_400b14 = load %struct.Memory*, %struct.Memory** %MEMORY
  %call_400b14 = call %struct.Memory* @routine_mulss__xmm1___xmm0(%struct.State* %0, i64  0, %struct.Memory* %loadMem_400b14)
  store %struct.Memory* %call_400b14, %struct.Memory** %MEMORY

  ; Code: movq -0x20(%rbp), %rax	 RIP: 400b18	 Bytes: 4
  %loadMem_400b18 = load %struct.Memory*, %struct.Memory** %MEMORY
  %call_400b18 = call %struct.Memory* @routine_movq_MINUS0x20__rbp____rax(%struct.State* %0, i64  0, %struct.Memory* %loadMem_400b18)
  store %struct.Memory* %call_400b18, %struct.Memory** %MEMORY

  ; Code: movl -0x30(%rbp), %edx	 RIP: 400b1c	 Bytes: 3
  %loadMem_400b1c = load %struct.Memory*, %struct.Memory** %MEMORY
  %call_400b1c = call %struct.Memory* @routine_movl_MINUS0x30__rbp____edx(%struct.State* %0, i64  0, %struct.Memory* %loadMem_400b1c)
  store %struct.Memory* %call_400b1c, %struct.Memory** %MEMORY

  ; Code: addl $0x1, %edx	 RIP: 400b1f	 Bytes: 3
  %loadMem_400b1f = load %struct.Memory*, %struct.Memory** %MEMORY
  %call_400b1f = call %struct.Memory* @routine_addl__0x1___edx(%struct.State* %0, i64  0, %struct.Memory* %loadMem_400b1f)
  store %struct.Memory* %call_400b1f, %struct.Memory** %MEMORY

  ; Code: movslq %edx, %rcx	 RIP: 400b22	 Bytes: 3
  %loadMem_400b22 = load %struct.Memory*, %struct.Memory** %MEMORY
  %call_400b22 = call %struct.Memory* @routine_movslq__edx___rcx(%struct.State* %0, i64  0, %struct.Memory* %loadMem_400b22)
  store %struct.Memory* %call_400b22, %struct.Memory** %MEMORY

  ; Code: movss 0x4(%rax,%rcx,8), %xmm1	 RIP: 400b25	 Bytes: 6
  %loadMem_400b25 = load %struct.Memory*, %struct.Memory** %MEMORY
  %call_400b25 = call %struct.Memory* @routine_movss_0x4__rax__rcx_8____xmm1(%struct.State* %0, i64  0, %struct.Memory* %loadMem_400b25)
  store %struct.Memory* %call_400b25, %struct.Memory** %MEMORY

  ; Code: movq -0x10(%rbp), %rax	 RIP: 400b2b	 Bytes: 4
  %loadMem_400b2b = load %struct.Memory*, %struct.Memory** %MEMORY
  %call_400b2b = call %struct.Memory* @routine_movq_MINUS0x10__rbp____rax(%struct.State* %0, i64  0, %struct.Memory* %loadMem_400b2b)
  store %struct.Memory* %call_400b2b, %struct.Memory** %MEMORY

  ; Code: movslq -0x28(%rbp), %rcx	 RIP: 400b2f	 Bytes: 4
  %loadMem_400b2f = load %struct.Memory*, %struct.Memory** %MEMORY
  %call_400b2f = call %struct.Memory* @routine_movslq_MINUS0x28__rbp____rcx(%struct.State* %0, i64  0, %struct.Memory* %loadMem_400b2f)
  store %struct.Memory* %call_400b2f, %struct.Memory** %MEMORY

  ; Code: movss 0x4(%rax,%rcx,8), %xmm2	 RIP: 400b33	 Bytes: 6
  %loadMem_400b33 = load %struct.Memory*, %struct.Memory** %MEMORY
  %call_400b33 = call %struct.Memory* @routine_movss_0x4__rax__rcx_8____xmm2(%struct.State* %0, i64  0, %struct.Memory* %loadMem_400b33)
  store %struct.Memory* %call_400b33, %struct.Memory** %MEMORY

  ; Code: movq -0x10(%rbp), %rax	 RIP: 400b39	 Bytes: 4
  %loadMem_400b39 = load %struct.Memory*, %struct.Memory** %MEMORY
  %call_400b39 = call %struct.Memory* @routine_movq_MINUS0x10__rbp____rax(%struct.State* %0, i64  0, %struct.Memory* %loadMem_400b39)
  store %struct.Memory* %call_400b39, %struct.Memory** %MEMORY

  ; Code: movl -0x28(%rbp), %edx	 RIP: 400b3d	 Bytes: 3
  %loadMem_400b3d = load %struct.Memory*, %struct.Memory** %MEMORY
  %call_400b3d = call %struct.Memory* @routine_movl_MINUS0x28__rbp____edx(%struct.State* %0, i64  0, %struct.Memory* %loadMem_400b3d)
  store %struct.Memory* %call_400b3d, %struct.Memory** %MEMORY

  ; Code: addl -0x38(%rbp), %edx	 RIP: 400b40	 Bytes: 3
  %loadMem_400b40 = load %struct.Memory*, %struct.Memory** %MEMORY
  %call_400b40 = call %struct.Memory* @routine_addl_MINUS0x38__rbp____edx(%struct.State* %0, i64  0, %struct.Memory* %loadMem_400b40)
  store %struct.Memory* %call_400b40, %struct.Memory** %MEMORY

  ; Code: movslq %edx, %rcx	 RIP: 400b43	 Bytes: 3
  %loadMem_400b43 = load %struct.Memory*, %struct.Memory** %MEMORY
  %call_400b43 = call %struct.Memory* @routine_movslq__edx___rcx(%struct.State* %0, i64  0, %struct.Memory* %loadMem_400b43)
  store %struct.Memory* %call_400b43, %struct.Memory** %MEMORY

  ; Code: subss 0x4(%rax,%rcx,8), %xmm2	 RIP: 400b46	 Bytes: 6
  %loadMem_400b46 = load %struct.Memory*, %struct.Memory** %MEMORY
  %call_400b46 = call %struct.Memory* @routine_subss_0x4__rax__rcx_8____xmm2(%struct.State* %0, i64  0, %struct.Memory* %loadMem_400b46)
  store %struct.Memory* %call_400b46, %struct.Memory** %MEMORY

  ; Code: mulss %xmm2, %xmm1	 RIP: 400b4c	 Bytes: 4
  %loadMem_400b4c = load %struct.Memory*, %struct.Memory** %MEMORY
  %call_400b4c = call %struct.Memory* @routine_mulss__xmm2___xmm1(%struct.State* %0, i64  0, %struct.Memory* %loadMem_400b4c)
  store %struct.Memory* %call_400b4c, %struct.Memory** %MEMORY

  ; Code: subss %xmm1, %xmm0	 RIP: 400b50	 Bytes: 4
  %loadMem_400b50 = load %struct.Memory*, %struct.Memory** %MEMORY
  %call_400b50 = call %struct.Memory* @routine_subss__xmm1___xmm0(%struct.State* %0, i64  0, %struct.Memory* %loadMem_400b50)
  store %struct.Memory* %call_400b50, %struct.Memory** %MEMORY

  ; Code: movq -0x18(%rbp), %rax	 RIP: 400b54	 Bytes: 4
  %loadMem_400b54 = load %struct.Memory*, %struct.Memory** %MEMORY
  %call_400b54 = call %struct.Memory* @routine_movq_MINUS0x18__rbp____rax(%struct.State* %0, i64  0, %struct.Memory* %loadMem_400b54)
  store %struct.Memory* %call_400b54, %struct.Memory** %MEMORY

  ; Code: movl -0x28(%rbp), %edx	 RIP: 400b58	 Bytes: 3
  %loadMem_400b58 = load %struct.Memory*, %struct.Memory** %MEMORY
  %call_400b58 = call %struct.Memory* @routine_movl_MINUS0x28__rbp____edx(%struct.State* %0, i64  0, %struct.Memory* %loadMem_400b58)
  store %struct.Memory* %call_400b58, %struct.Memory** %MEMORY

  ; Code: addl -0x2c(%rbp), %edx	 RIP: 400b5b	 Bytes: 3
  %loadMem_400b5b = load %struct.Memory*, %struct.Memory** %MEMORY
  %call_400b5b = call %struct.Memory* @routine_addl_MINUS0x2c__rbp____edx(%struct.State* %0, i64  0, %struct.Memory* %loadMem_400b5b)
  store %struct.Memory* %call_400b5b, %struct.Memory** %MEMORY

  ; Code: movslq %edx, %rcx	 RIP: 400b5e	 Bytes: 3
  %loadMem_400b5e = load %struct.Memory*, %struct.Memory** %MEMORY
  %call_400b5e = call %struct.Memory* @routine_movslq__edx___rcx(%struct.State* %0, i64  0, %struct.Memory* %loadMem_400b5e)
  store %struct.Memory* %call_400b5e, %struct.Memory** %MEMORY

  ; Code: movss %xmm0, (%rax,%rcx,8)	 RIP: 400b61	 Bytes: 5
  %loadMem_400b61 = load %struct.Memory*, %struct.Memory** %MEMORY
  %call_400b61 = call %struct.Memory* @routine_movss__xmm0____rax__rcx_8_(%struct.State* %0, i64  0, %struct.Memory* %loadMem_400b61)
  store %struct.Memory* %call_400b61, %struct.Memory** %MEMORY

  ; Code: movq -0x20(%rbp), %rax	 RIP: 400b66	 Bytes: 4
  %loadMem_400b66 = load %struct.Memory*, %struct.Memory** %MEMORY
  %call_400b66 = call %struct.Memory* @routine_movq_MINUS0x20__rbp____rax(%struct.State* %0, i64  0, %struct.Memory* %loadMem_400b66)
  store %struct.Memory* %call_400b66, %struct.Memory** %MEMORY

  ; Code: movl -0x30(%rbp), %edx	 RIP: 400b6a	 Bytes: 3
  %loadMem_400b6a = load %struct.Memory*, %struct.Memory** %MEMORY
  %call_400b6a = call %struct.Memory* @routine_movl_MINUS0x30__rbp____edx(%struct.State* %0, i64  0, %struct.Memory* %loadMem_400b6a)
  store %struct.Memory* %call_400b6a, %struct.Memory** %MEMORY

  ; Code: addl $0x1, %edx	 RIP: 400b6d	 Bytes: 3
  %loadMem_400b6d = load %struct.Memory*, %struct.Memory** %MEMORY
  %call_400b6d = call %struct.Memory* @routine_addl__0x1___edx(%struct.State* %0, i64  0, %struct.Memory* %loadMem_400b6d)
  store %struct.Memory* %call_400b6d, %struct.Memory** %MEMORY

  ; Code: movslq %edx, %rcx	 RIP: 400b70	 Bytes: 3
  %loadMem_400b70 = load %struct.Memory*, %struct.Memory** %MEMORY
  %call_400b70 = call %struct.Memory* @routine_movslq__edx___rcx(%struct.State* %0, i64  0, %struct.Memory* %loadMem_400b70)
  store %struct.Memory* %call_400b70, %struct.Memory** %MEMORY

  ; Code: movss (%rax,%rcx,8), %xmm0	 RIP: 400b73	 Bytes: 5
  %loadMem_400b73 = load %struct.Memory*, %struct.Memory** %MEMORY
  %call_400b73 = call %struct.Memory* @routine_movss___rax__rcx_8____xmm0(%struct.State* %0, i64  0, %struct.Memory* %loadMem_400b73)
  store %struct.Memory* %call_400b73, %struct.Memory** %MEMORY

  ; Code: movq -0x10(%rbp), %rax	 RIP: 400b78	 Bytes: 4
  %loadMem_400b78 = load %struct.Memory*, %struct.Memory** %MEMORY
  %call_400b78 = call %struct.Memory* @routine_movq_MINUS0x10__rbp____rax(%struct.State* %0, i64  0, %struct.Memory* %loadMem_400b78)
  store %struct.Memory* %call_400b78, %struct.Memory** %MEMORY

  ; Code: movslq -0x28(%rbp), %rcx	 RIP: 400b7c	 Bytes: 4
  %loadMem_400b7c = load %struct.Memory*, %struct.Memory** %MEMORY
  %call_400b7c = call %struct.Memory* @routine_movslq_MINUS0x28__rbp____rcx(%struct.State* %0, i64  0, %struct.Memory* %loadMem_400b7c)
  store %struct.Memory* %call_400b7c, %struct.Memory** %MEMORY

  ; Code: movss 0x4(%rax,%rcx,8), %xmm1	 RIP: 400b80	 Bytes: 6
  %loadMem_400b80 = load %struct.Memory*, %struct.Memory** %MEMORY
  %call_400b80 = call %struct.Memory* @routine_movss_0x4__rax__rcx_8____xmm1(%struct.State* %0, i64  0, %struct.Memory* %loadMem_400b80)
  store %struct.Memory* %call_400b80, %struct.Memory** %MEMORY

  ; Code: movq -0x10(%rbp), %rax	 RIP: 400b86	 Bytes: 4
  %loadMem_400b86 = load %struct.Memory*, %struct.Memory** %MEMORY
  %call_400b86 = call %struct.Memory* @routine_movq_MINUS0x10__rbp____rax(%struct.State* %0, i64  0, %struct.Memory* %loadMem_400b86)
  store %struct.Memory* %call_400b86, %struct.Memory** %MEMORY

  ; Code: movl -0x28(%rbp), %edx	 RIP: 400b8a	 Bytes: 3
  %loadMem_400b8a = load %struct.Memory*, %struct.Memory** %MEMORY
  %call_400b8a = call %struct.Memory* @routine_movl_MINUS0x28__rbp____edx(%struct.State* %0, i64  0, %struct.Memory* %loadMem_400b8a)
  store %struct.Memory* %call_400b8a, %struct.Memory** %MEMORY

  ; Code: addl -0x38(%rbp), %edx	 RIP: 400b8d	 Bytes: 3
  %loadMem_400b8d = load %struct.Memory*, %struct.Memory** %MEMORY
  %call_400b8d = call %struct.Memory* @routine_addl_MINUS0x38__rbp____edx(%struct.State* %0, i64  0, %struct.Memory* %loadMem_400b8d)
  store %struct.Memory* %call_400b8d, %struct.Memory** %MEMORY

  ; Code: movslq %edx, %rcx	 RIP: 400b90	 Bytes: 3
  %loadMem_400b90 = load %struct.Memory*, %struct.Memory** %MEMORY
  %call_400b90 = call %struct.Memory* @routine_movslq__edx___rcx(%struct.State* %0, i64  0, %struct.Memory* %loadMem_400b90)
  store %struct.Memory* %call_400b90, %struct.Memory** %MEMORY

  ; Code: subss 0x4(%rax,%rcx,8), %xmm1	 RIP: 400b93	 Bytes: 6
  %loadMem_400b93 = load %struct.Memory*, %struct.Memory** %MEMORY
  %call_400b93 = call %struct.Memory* @routine_subss_0x4__rax__rcx_8____xmm1(%struct.State* %0, i64  0, %struct.Memory* %loadMem_400b93)
  store %struct.Memory* %call_400b93, %struct.Memory** %MEMORY

  ; Code: mulss %xmm1, %xmm0	 RIP: 400b99	 Bytes: 4
  %loadMem_400b99 = load %struct.Memory*, %struct.Memory** %MEMORY
  %call_400b99 = call %struct.Memory* @routine_mulss__xmm1___xmm0(%struct.State* %0, i64  0, %struct.Memory* %loadMem_400b99)
  store %struct.Memory* %call_400b99, %struct.Memory** %MEMORY

  ; Code: movq -0x20(%rbp), %rax	 RIP: 400b9d	 Bytes: 4
  %loadMem_400b9d = load %struct.Memory*, %struct.Memory** %MEMORY
  %call_400b9d = call %struct.Memory* @routine_movq_MINUS0x20__rbp____rax(%struct.State* %0, i64  0, %struct.Memory* %loadMem_400b9d)
  store %struct.Memory* %call_400b9d, %struct.Memory** %MEMORY

  ; Code: movl -0x30(%rbp), %edx	 RIP: 400ba1	 Bytes: 3
  %loadMem_400ba1 = load %struct.Memory*, %struct.Memory** %MEMORY
  %call_400ba1 = call %struct.Memory* @routine_movl_MINUS0x30__rbp____edx(%struct.State* %0, i64  0, %struct.Memory* %loadMem_400ba1)
  store %struct.Memory* %call_400ba1, %struct.Memory** %MEMORY

  ; Code: addl $0x1, %edx	 RIP: 400ba4	 Bytes: 3
  %loadMem_400ba4 = load %struct.Memory*, %struct.Memory** %MEMORY
  %call_400ba4 = call %struct.Memory* @routine_addl__0x1___edx(%struct.State* %0, i64  0, %struct.Memory* %loadMem_400ba4)
  store %struct.Memory* %call_400ba4, %struct.Memory** %MEMORY

  ; Code: movslq %edx, %rcx	 RIP: 400ba7	 Bytes: 3
  %loadMem_400ba7 = load %struct.Memory*, %struct.Memory** %MEMORY
  %call_400ba7 = call %struct.Memory* @routine_movslq__edx___rcx(%struct.State* %0, i64  0, %struct.Memory* %loadMem_400ba7)
  store %struct.Memory* %call_400ba7, %struct.Memory** %MEMORY

  ; Code: movss 0x4(%rax,%rcx,8), %xmm1	 RIP: 400baa	 Bytes: 6
  %loadMem_400baa = load %struct.Memory*, %struct.Memory** %MEMORY
  %call_400baa = call %struct.Memory* @routine_movss_0x4__rax__rcx_8____xmm1(%struct.State* %0, i64  0, %struct.Memory* %loadMem_400baa)
  store %struct.Memory* %call_400baa, %struct.Memory** %MEMORY

  ; Code: movq -0x10(%rbp), %rax	 RIP: 400bb0	 Bytes: 4
  %loadMem_400bb0 = load %struct.Memory*, %struct.Memory** %MEMORY
  %call_400bb0 = call %struct.Memory* @routine_movq_MINUS0x10__rbp____rax(%struct.State* %0, i64  0, %struct.Memory* %loadMem_400bb0)
  store %struct.Memory* %call_400bb0, %struct.Memory** %MEMORY

  ; Code: movslq -0x28(%rbp), %rcx	 RIP: 400bb4	 Bytes: 4
  %loadMem_400bb4 = load %struct.Memory*, %struct.Memory** %MEMORY
  %call_400bb4 = call %struct.Memory* @routine_movslq_MINUS0x28__rbp____rcx(%struct.State* %0, i64  0, %struct.Memory* %loadMem_400bb4)
  store %struct.Memory* %call_400bb4, %struct.Memory** %MEMORY

  ; Code: movss (%rax,%rcx,8), %xmm2	 RIP: 400bb8	 Bytes: 5
  %loadMem_400bb8 = load %struct.Memory*, %struct.Memory** %MEMORY
  %call_400bb8 = call %struct.Memory* @routine_movss___rax__rcx_8____xmm2(%struct.State* %0, i64  0, %struct.Memory* %loadMem_400bb8)
  store %struct.Memory* %call_400bb8, %struct.Memory** %MEMORY

  ; Code: movq -0x10(%rbp), %rax	 RIP: 400bbd	 Bytes: 4
  %loadMem_400bbd = load %struct.Memory*, %struct.Memory** %MEMORY
  %call_400bbd = call %struct.Memory* @routine_movq_MINUS0x10__rbp____rax(%struct.State* %0, i64  0, %struct.Memory* %loadMem_400bbd)
  store %struct.Memory* %call_400bbd, %struct.Memory** %MEMORY

  ; Code: movl -0x28(%rbp), %edx	 RIP: 400bc1	 Bytes: 3
  %loadMem_400bc1 = load %struct.Memory*, %struct.Memory** %MEMORY
  %call_400bc1 = call %struct.Memory* @routine_movl_MINUS0x28__rbp____edx(%struct.State* %0, i64  0, %struct.Memory* %loadMem_400bc1)
  store %struct.Memory* %call_400bc1, %struct.Memory** %MEMORY

  ; Code: addl -0x38(%rbp), %edx	 RIP: 400bc4	 Bytes: 3
  %loadMem_400bc4 = load %struct.Memory*, %struct.Memory** %MEMORY
  %call_400bc4 = call %struct.Memory* @routine_addl_MINUS0x38__rbp____edx(%struct.State* %0, i64  0, %struct.Memory* %loadMem_400bc4)
  store %struct.Memory* %call_400bc4, %struct.Memory** %MEMORY

  ; Code: movslq %edx, %rcx	 RIP: 400bc7	 Bytes: 3
  %loadMem_400bc7 = load %struct.Memory*, %struct.Memory** %MEMORY
  %call_400bc7 = call %struct.Memory* @routine_movslq__edx___rcx(%struct.State* %0, i64  0, %struct.Memory* %loadMem_400bc7)
  store %struct.Memory* %call_400bc7, %struct.Memory** %MEMORY

  ; Code: subss (%rax,%rcx,8), %xmm2	 RIP: 400bca	 Bytes: 5
  %loadMem_400bca = load %struct.Memory*, %struct.Memory** %MEMORY
  %call_400bca = call %struct.Memory* @routine_subss___rax__rcx_8____xmm2(%struct.State* %0, i64  0, %struct.Memory* %loadMem_400bca)
  store %struct.Memory* %call_400bca, %struct.Memory** %MEMORY

  ; Code: mulss %xmm2, %xmm1	 RIP: 400bcf	 Bytes: 4
  %loadMem_400bcf = load %struct.Memory*, %struct.Memory** %MEMORY
  %call_400bcf = call %struct.Memory* @routine_mulss__xmm2___xmm1(%struct.State* %0, i64  0, %struct.Memory* %loadMem_400bcf)
  store %struct.Memory* %call_400bcf, %struct.Memory** %MEMORY

  ; Code: addss %xmm1, %xmm0	 RIP: 400bd3	 Bytes: 4
  %loadMem_400bd3 = load %struct.Memory*, %struct.Memory** %MEMORY
  %call_400bd3 = call %struct.Memory* @routine_addss__xmm1___xmm0(%struct.State* %0, i64  0, %struct.Memory* %loadMem_400bd3)
  store %struct.Memory* %call_400bd3, %struct.Memory** %MEMORY

  ; Code: movq -0x18(%rbp), %rax	 RIP: 400bd7	 Bytes: 4
  %loadMem_400bd7 = load %struct.Memory*, %struct.Memory** %MEMORY
  %call_400bd7 = call %struct.Memory* @routine_movq_MINUS0x18__rbp____rax(%struct.State* %0, i64  0, %struct.Memory* %loadMem_400bd7)
  store %struct.Memory* %call_400bd7, %struct.Memory** %MEMORY

  ; Code: movl -0x28(%rbp), %edx	 RIP: 400bdb	 Bytes: 3
  %loadMem_400bdb = load %struct.Memory*, %struct.Memory** %MEMORY
  %call_400bdb = call %struct.Memory* @routine_movl_MINUS0x28__rbp____edx(%struct.State* %0, i64  0, %struct.Memory* %loadMem_400bdb)
  store %struct.Memory* %call_400bdb, %struct.Memory** %MEMORY

  ; Code: addl -0x2c(%rbp), %edx	 RIP: 400bde	 Bytes: 3
  %loadMem_400bde = load %struct.Memory*, %struct.Memory** %MEMORY
  %call_400bde = call %struct.Memory* @routine_addl_MINUS0x2c__rbp____edx(%struct.State* %0, i64  0, %struct.Memory* %loadMem_400bde)
  store %struct.Memory* %call_400bde, %struct.Memory** %MEMORY

  ; Code: movslq %edx, %rcx	 RIP: 400be1	 Bytes: 3
  %loadMem_400be1 = load %struct.Memory*, %struct.Memory** %MEMORY
  %call_400be1 = call %struct.Memory* @routine_movslq__edx___rcx(%struct.State* %0, i64  0, %struct.Memory* %loadMem_400be1)
  store %struct.Memory* %call_400be1, %struct.Memory** %MEMORY

  ; Code: movss %xmm0, 0x4(%rax,%rcx,8)	 RIP: 400be4	 Bytes: 6
  %loadMem_400be4 = load %struct.Memory*, %struct.Memory** %MEMORY
  %call_400be4 = call %struct.Memory* @routine_movss__xmm0__0x4__rax__rcx_8_(%struct.State* %0, i64  0, %struct.Memory* %loadMem_400be4)
  store %struct.Memory* %call_400be4, %struct.Memory** %MEMORY

  ; Code: movl -0x28(%rbp), %edx	 RIP: 400bea	 Bytes: 3
  %loadMem_400bea = load %struct.Memory*, %struct.Memory** %MEMORY
  %call_400bea = call %struct.Memory* @routine_movl_MINUS0x28__rbp____edx(%struct.State* %0, i64  0, %struct.Memory* %loadMem_400bea)
  store %struct.Memory* %call_400bea, %struct.Memory** %MEMORY

  ; Code: addl $0x1, %edx	 RIP: 400bed	 Bytes: 3
  %loadMem_400bed = load %struct.Memory*, %struct.Memory** %MEMORY
  %call_400bed = call %struct.Memory* @routine_addl__0x1___edx(%struct.State* %0, i64  0, %struct.Memory* %loadMem_400bed)
  store %struct.Memory* %call_400bed, %struct.Memory** %MEMORY

  ; Code: movl %edx, -0x28(%rbp)	 RIP: 400bf0	 Bytes: 3
  %loadMem_400bf0 = load %struct.Memory*, %struct.Memory** %MEMORY
  %call_400bf0 = call %struct.Memory* @routine_movl__edx__MINUS0x28__rbp_(%struct.State* %0, i64  0, %struct.Memory* %loadMem_400bf0)
  store %struct.Memory* %call_400bf0, %struct.Memory** %MEMORY

  ; Code: movl -0x28(%rbp), %eax	 RIP: 400bf3	 Bytes: 3
  %loadMem_400bf3 = load %struct.Memory*, %struct.Memory** %MEMORY
  %call_400bf3 = call %struct.Memory* @routine_movl_MINUS0x28__rbp____eax(%struct.State* %0, i64  0, %struct.Memory* %loadMem_400bf3)
  store %struct.Memory* %call_400bf3, %struct.Memory** %MEMORY

  ; Code: cmpl -0x2c(%rbp), %eax	 RIP: 400bf6	 Bytes: 3
  %loadMem_400bf6 = load %struct.Memory*, %struct.Memory** %MEMORY
  %call_400bf6 = call %struct.Memory* @routine_cmpl_MINUS0x2c__rbp____eax(%struct.State* %0, i64  0, %struct.Memory* %loadMem_400bf6)
  store %struct.Memory* %call_400bf6, %struct.Memory** %MEMORY

  ; Code: jle .L_400a7e	 RIP: 400bf9	 Bytes: 6
  %loadMem_400bf9 = load %struct.Memory*, %struct.Memory** %MEMORY
  %call_400bf9 = call %struct.Memory* @routine_jle_.L_400a7e(%struct.State* %0, i64  0, %struct.Memory* %loadMem_400bf9, i8* %BRANCH_TAKEN, i64 -379, i64 6, i64 6)
  store %struct.Memory* %call_400bf9, %struct.Memory** %MEMORY

  %loadBr_400bf9 = load i8, i8* %BRANCH_TAKEN
  %cmpBr_400bf9 = icmp eq i8 %loadBr_400bf9, 1
  br i1 %cmpBr_400bf9, label %block_.L_400a7e, label %block_400bff

block_400bff:
  ; Code: movl -0x2c(%rbp), %eax	 RIP: 400bff	 Bytes: 3
  %loadMem_400bff = load %struct.Memory*, %struct.Memory** %MEMORY
  %call_400bff = call %struct.Memory* @routine_movl_MINUS0x2c__rbp____eax(%struct.State* %0, i64  0, %struct.Memory* %loadMem_400bff)
  store %struct.Memory* %call_400bff, %struct.Memory** %MEMORY

  ; Code: movl %eax, -0x30(%rbp)	 RIP: 400c02	 Bytes: 3
  %loadMem_400c02 = load %struct.Memory*, %struct.Memory** %MEMORY
  %call_400c02 = call %struct.Memory* @routine_movl__eax__MINUS0x30__rbp_(%struct.State* %0, i64  0, %struct.Memory* %loadMem_400c02)
  store %struct.Memory* %call_400c02, %struct.Memory** %MEMORY

  ; Code: movl -0x30(%rbp), %eax	 RIP: 400c05	 Bytes: 3
  %loadMem_400c05 = load %struct.Memory*, %struct.Memory** %MEMORY
  %call_400c05 = call %struct.Memory* @routine_movl_MINUS0x30__rbp____eax(%struct.State* %0, i64  0, %struct.Memory* %loadMem_400c05)
  store %struct.Memory* %call_400c05, %struct.Memory** %MEMORY

  ; Code: addl -0x34(%rbp), %eax	 RIP: 400c08	 Bytes: 3
  %loadMem_400c08 = load %struct.Memory*, %struct.Memory** %MEMORY
  %call_400c08 = call %struct.Memory* @routine_addl_MINUS0x34__rbp____eax(%struct.State* %0, i64  0, %struct.Memory* %loadMem_400c08)
  store %struct.Memory* %call_400c08, %struct.Memory** %MEMORY

  ; Code: movl %eax, -0x2c(%rbp)	 RIP: 400c0b	 Bytes: 3
  %loadMem_400c0b = load %struct.Memory*, %struct.Memory** %MEMORY
  %call_400c0b = call %struct.Memory* @routine_movl__eax__MINUS0x2c__rbp_(%struct.State* %0, i64  0, %struct.Memory* %loadMem_400c0b)
  store %struct.Memory* %call_400c0b, %struct.Memory** %MEMORY

  ; Code: movl -0x2c(%rbp), %eax	 RIP: 400c0e	 Bytes: 3
  %loadMem_400c0e = load %struct.Memory*, %struct.Memory** %MEMORY
  %call_400c0e = call %struct.Memory* @routine_movl_MINUS0x2c__rbp____eax(%struct.State* %0, i64  0, %struct.Memory* %loadMem_400c0e)
  store %struct.Memory* %call_400c0e, %struct.Memory** %MEMORY

  ; Code: cmpl -0x38(%rbp), %eax	 RIP: 400c11	 Bytes: 3
  %loadMem_400c11 = load %struct.Memory*, %struct.Memory** %MEMORY
  %call_400c11 = call %struct.Memory* @routine_cmpl_MINUS0x38__rbp____eax(%struct.State* %0, i64  0, %struct.Memory* %loadMem_400c11)
  store %struct.Memory* %call_400c11, %struct.Memory** %MEMORY

  ; Code: jle .L_400a79	 RIP: 400c14	 Bytes: 6
  %loadMem_400c14 = load %struct.Memory*, %struct.Memory** %MEMORY
  %call_400c14 = call %struct.Memory* @routine_jle_.L_400a79(%struct.State* %0, i64  0, %struct.Memory* %loadMem_400c14, i8* %BRANCH_TAKEN, i64 -411, i64 6, i64 6)
  store %struct.Memory* %call_400c14, %struct.Memory** %MEMORY

  %loadBr_400c14 = load i8, i8* %BRANCH_TAKEN
  %cmpBr_400c14 = icmp eq i8 %loadBr_400c14, 1
  br i1 %cmpBr_400c14, label %block_.L_400a79, label %block_400c1a

block_400c1a:
  ; Code: movl $0x1, -0x3c(%rbp)	 RIP: 400c1a	 Bytes: 7
  %loadMem_400c1a = load %struct.Memory*, %struct.Memory** %MEMORY
  %call_400c1a = call %struct.Memory* @routine_movl__0x1__MINUS0x3c__rbp_(%struct.State* %0, i64  0, %struct.Memory* %loadMem_400c1a)
  store %struct.Memory* %call_400c1a, %struct.Memory** %MEMORY

  ; Code: .L_400c21:	 RIP: 400c21	 Bytes: 0
  br label %block_.L_400c21
block_.L_400c21:

  ; Code: movq -0x10(%rbp), %rax	 RIP: 400c21	 Bytes: 4
  %loadMem_400c21 = load %struct.Memory*, %struct.Memory** %MEMORY
  %call_400c21 = call %struct.Memory* @routine_movq_MINUS0x10__rbp____rax(%struct.State* %0, i64  0, %struct.Memory* %loadMem_400c21)
  store %struct.Memory* %call_400c21, %struct.Memory** %MEMORY

  ; Code: movslq -0x3c(%rbp), %rcx	 RIP: 400c25	 Bytes: 4
  %loadMem_400c25 = load %struct.Memory*, %struct.Memory** %MEMORY
  %call_400c25 = call %struct.Memory* @routine_movslq_MINUS0x3c__rbp____rcx(%struct.State* %0, i64  0, %struct.Memory* %loadMem_400c25)
  store %struct.Memory* %call_400c25, %struct.Memory** %MEMORY

  ; Code: movq -0x18(%rbp), %rdx	 RIP: 400c29	 Bytes: 4
  %loadMem_400c29 = load %struct.Memory*, %struct.Memory** %MEMORY
  %call_400c29 = call %struct.Memory* @routine_movq_MINUS0x18__rbp____rdx(%struct.State* %0, i64  0, %struct.Memory* %loadMem_400c29)
  store %struct.Memory* %call_400c29, %struct.Memory** %MEMORY

  ; Code: movslq -0x3c(%rbp), %rsi	 RIP: 400c2d	 Bytes: 4
  %loadMem_400c2d = load %struct.Memory*, %struct.Memory** %MEMORY
  %call_400c2d = call %struct.Memory* @routine_movslq_MINUS0x3c__rbp____rsi(%struct.State* %0, i64  0, %struct.Memory* %loadMem_400c2d)
  store %struct.Memory* %call_400c2d, %struct.Memory** %MEMORY

  ; Code: movq (%rdx,%rsi,8), %rdx	 RIP: 400c31	 Bytes: 4
  %loadMem_400c31 = load %struct.Memory*, %struct.Memory** %MEMORY
  %call_400c31 = call %struct.Memory* @routine_movq___rdx__rsi_8____rdx(%struct.State* %0, i64  0, %struct.Memory* %loadMem_400c31)
  store %struct.Memory* %call_400c31, %struct.Memory** %MEMORY

  ; Code: movq %rdx, (%rax,%rcx,8)	 RIP: 400c35	 Bytes: 4
  %loadMem_400c35 = load %struct.Memory*, %struct.Memory** %MEMORY
  %call_400c35 = call %struct.Memory* @routine_movq__rdx____rax__rcx_8_(%struct.State* %0, i64  0, %struct.Memory* %loadMem_400c35)
  store %struct.Memory* %call_400c35, %struct.Memory** %MEMORY

  ; Code: movl -0x3c(%rbp), %edi	 RIP: 400c39	 Bytes: 3
  %loadMem_400c39 = load %struct.Memory*, %struct.Memory** %MEMORY
  %call_400c39 = call %struct.Memory* @routine_movl_MINUS0x3c__rbp____edi(%struct.State* %0, i64  0, %struct.Memory* %loadMem_400c39)
  store %struct.Memory* %call_400c39, %struct.Memory** %MEMORY

  ; Code: addl $0x1, %edi	 RIP: 400c3c	 Bytes: 3
  %loadMem_400c3c = load %struct.Memory*, %struct.Memory** %MEMORY
  %call_400c3c = call %struct.Memory* @routine_addl__0x1___edi(%struct.State* %0, i64  0, %struct.Memory* %loadMem_400c3c)
  store %struct.Memory* %call_400c3c, %struct.Memory** %MEMORY

  ; Code: movl %edi, -0x3c(%rbp)	 RIP: 400c3f	 Bytes: 3
  %loadMem_400c3f = load %struct.Memory*, %struct.Memory** %MEMORY
  %call_400c3f = call %struct.Memory* @routine_movl__edi__MINUS0x3c__rbp_(%struct.State* %0, i64  0, %struct.Memory* %loadMem_400c3f)
  store %struct.Memory* %call_400c3f, %struct.Memory** %MEMORY

  ; Code: movl -0x3c(%rbp), %eax	 RIP: 400c42	 Bytes: 3
  %loadMem_400c42 = load %struct.Memory*, %struct.Memory** %MEMORY
  %call_400c42 = call %struct.Memory* @routine_movl_MINUS0x3c__rbp____eax(%struct.State* %0, i64  0, %struct.Memory* %loadMem_400c42)
  store %struct.Memory* %call_400c42, %struct.Memory** %MEMORY

  ; Code: cmpl -0x4(%rbp), %eax	 RIP: 400c45	 Bytes: 3
  %loadMem_400c45 = load %struct.Memory*, %struct.Memory** %MEMORY
  %call_400c45 = call %struct.Memory* @routine_cmpl_MINUS0x4__rbp____eax(%struct.State* %0, i64  0, %struct.Memory* %loadMem_400c45)
  store %struct.Memory* %call_400c45, %struct.Memory** %MEMORY

  ; Code: jle .L_400c21	 RIP: 400c48	 Bytes: 6
  %loadMem_400c48 = load %struct.Memory*, %struct.Memory** %MEMORY
  %call_400c48 = call %struct.Memory* @routine_jle_.L_400c21(%struct.State* %0, i64  0, %struct.Memory* %loadMem_400c48, i8* %BRANCH_TAKEN, i64 -39, i64 6, i64 6)
  store %struct.Memory* %call_400c48, %struct.Memory** %MEMORY

  %loadBr_400c48 = load i8, i8* %BRANCH_TAKEN
  %cmpBr_400c48 = icmp eq i8 %loadBr_400c48, 1
  br i1 %cmpBr_400c48, label %block_.L_400c21, label %block_400c4e

block_400c4e:
  ; Code: movl -0x34(%rbp), %eax	 RIP: 400c4e	 Bytes: 3
  %loadMem_400c4e = load %struct.Memory*, %struct.Memory** %MEMORY
  %call_400c4e = call %struct.Memory* @routine_movl_MINUS0x34__rbp____eax(%struct.State* %0, i64  0, %struct.Memory* %loadMem_400c4e)
  store %struct.Memory* %call_400c4e, %struct.Memory** %MEMORY

  ; Code: addl -0x34(%rbp), %eax	 RIP: 400c51	 Bytes: 3
  %loadMem_400c51 = load %struct.Memory*, %struct.Memory** %MEMORY
  %call_400c51 = call %struct.Memory* @routine_addl_MINUS0x34__rbp____eax(%struct.State* %0, i64  0, %struct.Memory* %loadMem_400c51)
  store %struct.Memory* %call_400c51, %struct.Memory** %MEMORY

  ; Code: movl %eax, -0x34(%rbp)	 RIP: 400c54	 Bytes: 3
  %loadMem_400c54 = load %struct.Memory*, %struct.Memory** %MEMORY
  %call_400c54 = call %struct.Memory* @routine_movl__eax__MINUS0x34__rbp_(%struct.State* %0, i64  0, %struct.Memory* %loadMem_400c54)
  store %struct.Memory* %call_400c54, %struct.Memory** %MEMORY

  ; Code: movl -0x34(%rbp), %eax	 RIP: 400c57	 Bytes: 3
  %loadMem_400c57 = load %struct.Memory*, %struct.Memory** %MEMORY
  %call_400c57 = call %struct.Memory* @routine_movl_MINUS0x34__rbp____eax(%struct.State* %0, i64  0, %struct.Memory* %loadMem_400c57)
  store %struct.Memory* %call_400c57, %struct.Memory** %MEMORY

  ; Code: cmpl -0x38(%rbp), %eax	 RIP: 400c5a	 Bytes: 3
  %loadMem_400c5a = load %struct.Memory*, %struct.Memory** %MEMORY
  %call_400c5a = call %struct.Memory* @routine_cmpl_MINUS0x38__rbp____eax(%struct.State* %0, i64  0, %struct.Memory* %loadMem_400c5a)
  store %struct.Memory* %call_400c5a, %struct.Memory** %MEMORY

  ; Code: jle .L_400a65	 RIP: 400c5d	 Bytes: 6
  %loadMem_400c5d = load %struct.Memory*, %struct.Memory** %MEMORY
  %call_400c5d = call %struct.Memory* @routine_jle_.L_400a65(%struct.State* %0, i64  0, %struct.Memory* %loadMem_400c5d, i8* %BRANCH_TAKEN, i64 -504, i64 6, i64 6)
  store %struct.Memory* %call_400c5d, %struct.Memory** %MEMORY

  %loadBr_400c5d = load i8, i8* %BRANCH_TAKEN
  %cmpBr_400c5d = icmp eq i8 %loadBr_400c5d, 1
  br i1 %cmpBr_400c5d, label %block_.L_400a65, label %block_400c63

block_400c63:
  ; Code: movl $0x1, -0x28(%rbp)	 RIP: 400c63	 Bytes: 7
  %loadMem_400c63 = load %struct.Memory*, %struct.Memory** %MEMORY
  %call_400c63 = call %struct.Memory* @routine_movl__0x1__MINUS0x28__rbp_(%struct.State* %0, i64  0, %struct.Memory* %loadMem_400c63)
  store %struct.Memory* %call_400c63, %struct.Memory** %MEMORY

  ; Code: .L_400c6a:	 RIP: 400c6a	 Bytes: 0
  br label %block_.L_400c6a
block_.L_400c6a:

  ; Code: movl -0x28(%rbp), %eax	 RIP: 400c6a	 Bytes: 3
  %loadMem_400c6a = load %struct.Memory*, %struct.Memory** %MEMORY
  %call_400c6a = call %struct.Memory* @routine_movl_MINUS0x28__rbp____eax(%struct.State* %0, i64  0, %struct.Memory* %loadMem_400c6a)
  store %struct.Memory* %call_400c6a, %struct.Memory** %MEMORY

  ; Code: cmpl -0x4(%rbp), %eax	 RIP: 400c6d	 Bytes: 3
  %loadMem_400c6d = load %struct.Memory*, %struct.Memory** %MEMORY
  %call_400c6d = call %struct.Memory* @routine_cmpl_MINUS0x4__rbp____eax(%struct.State* %0, i64  0, %struct.Memory* %loadMem_400c6d)
  store %struct.Memory* %call_400c6d, %struct.Memory** %MEMORY

  ; Code: jg .L_400cd2	 RIP: 400c70	 Bytes: 6
  %loadMem_400c70 = load %struct.Memory*, %struct.Memory** %MEMORY
  %call_400c70 = call %struct.Memory* @routine_jg_.L_400cd2(%struct.State* %0, i64  0, %struct.Memory* %loadMem_400c70, i8* %BRANCH_TAKEN, i64 98, i64 6, i64 6)
  store %struct.Memory* %call_400c70, %struct.Memory** %MEMORY

  %loadBr_400c70 = load i8, i8* %BRANCH_TAKEN
  %cmpBr_400c70 = icmp eq i8 %loadBr_400c70, 1
  br i1 %cmpBr_400c70, label %block_.L_400cd2, label %block_400c76

block_400c76:
  ; Code: movss -0x24(%rbp), %xmm0	 RIP: 400c76	 Bytes: 5
  %loadMem_400c76 = load %struct.Memory*, %struct.Memory** %MEMORY
  %call_400c76 = call %struct.Memory* @routine_movss_MINUS0x24__rbp____xmm0(%struct.State* %0, i64  0, %struct.Memory* %loadMem_400c76)
  store %struct.Memory* %call_400c76, %struct.Memory** %MEMORY

  ; Code: movq -0x10(%rbp), %rax	 RIP: 400c7b	 Bytes: 4
  %loadMem_400c7b = load %struct.Memory*, %struct.Memory** %MEMORY
  %call_400c7b = call %struct.Memory* @routine_movq_MINUS0x10__rbp____rax(%struct.State* %0, i64  0, %struct.Memory* %loadMem_400c7b)
  store %struct.Memory* %call_400c7b, %struct.Memory** %MEMORY

  ; Code: movslq -0x28(%rbp), %rcx	 RIP: 400c7f	 Bytes: 4
  %loadMem_400c7f = load %struct.Memory*, %struct.Memory** %MEMORY
  %call_400c7f = call %struct.Memory* @routine_movslq_MINUS0x28__rbp____rcx(%struct.State* %0, i64  0, %struct.Memory* %loadMem_400c7f)
  store %struct.Memory* %call_400c7f, %struct.Memory** %MEMORY

  ; Code: mulss (%rax,%rcx,8), %xmm0	 RIP: 400c83	 Bytes: 5
  %loadMem_400c83 = load %struct.Memory*, %struct.Memory** %MEMORY
  %call_400c83 = call %struct.Memory* @routine_mulss___rax__rcx_8____xmm0(%struct.State* %0, i64  0, %struct.Memory* %loadMem_400c83)
  store %struct.Memory* %call_400c83, %struct.Memory** %MEMORY

  ; Code: movq -0x10(%rbp), %rax	 RIP: 400c88	 Bytes: 4
  %loadMem_400c88 = load %struct.Memory*, %struct.Memory** %MEMORY
  %call_400c88 = call %struct.Memory* @routine_movq_MINUS0x10__rbp____rax(%struct.State* %0, i64  0, %struct.Memory* %loadMem_400c88)
  store %struct.Memory* %call_400c88, %struct.Memory** %MEMORY

  ; Code: movslq -0x28(%rbp), %rcx	 RIP: 400c8c	 Bytes: 4
  %loadMem_400c8c = load %struct.Memory*, %struct.Memory** %MEMORY
  %call_400c8c = call %struct.Memory* @routine_movslq_MINUS0x28__rbp____rcx(%struct.State* %0, i64  0, %struct.Memory* %loadMem_400c8c)
  store %struct.Memory* %call_400c8c, %struct.Memory** %MEMORY

  ; Code: movss %xmm0, (%rax,%rcx,8)	 RIP: 400c90	 Bytes: 5
  %loadMem_400c90 = load %struct.Memory*, %struct.Memory** %MEMORY
  %call_400c90 = call %struct.Memory* @routine_movss__xmm0____rax__rcx_8_(%struct.State* %0, i64  0, %struct.Memory* %loadMem_400c90)
  store %struct.Memory* %call_400c90, %struct.Memory** %MEMORY

  ; Code: movss -0x24(%rbp), %xmm0	 RIP: 400c95	 Bytes: 5
  %loadMem_400c95 = load %struct.Memory*, %struct.Memory** %MEMORY
  %call_400c95 = call %struct.Memory* @routine_movss_MINUS0x24__rbp____xmm0(%struct.State* %0, i64  0, %struct.Memory* %loadMem_400c95)
  store %struct.Memory* %call_400c95, %struct.Memory** %MEMORY

  ; Code: movd %xmm0, %edx	 RIP: 400c9a	 Bytes: 4
  %loadMem_400c9a = load %struct.Memory*, %struct.Memory** %MEMORY
  %call_400c9a = call %struct.Memory* @routine_movd__xmm0___edx(%struct.State* %0, i64  0, %struct.Memory* %loadMem_400c9a)
  store %struct.Memory* %call_400c9a, %struct.Memory** %MEMORY

  ; Code: xorl $0x80000000, %edx	 RIP: 400c9e	 Bytes: 6
  %loadMem_400c9e = load %struct.Memory*, %struct.Memory** %MEMORY
  %call_400c9e = call %struct.Memory* @routine_xorl__0x80000000___edx(%struct.State* %0, i64  0, %struct.Memory* %loadMem_400c9e)
  store %struct.Memory* %call_400c9e, %struct.Memory** %MEMORY

  ; Code: movd %edx, %xmm0	 RIP: 400ca4	 Bytes: 4
  %loadMem_400ca4 = load %struct.Memory*, %struct.Memory** %MEMORY
  %call_400ca4 = call %struct.Memory* @routine_movd__edx___xmm0(%struct.State* %0, i64  0, %struct.Memory* %loadMem_400ca4)
  store %struct.Memory* %call_400ca4, %struct.Memory** %MEMORY

  ; Code: movq -0x10(%rbp), %rax	 RIP: 400ca8	 Bytes: 4
  %loadMem_400ca8 = load %struct.Memory*, %struct.Memory** %MEMORY
  %call_400ca8 = call %struct.Memory* @routine_movq_MINUS0x10__rbp____rax(%struct.State* %0, i64  0, %struct.Memory* %loadMem_400ca8)
  store %struct.Memory* %call_400ca8, %struct.Memory** %MEMORY

  ; Code: movslq -0x28(%rbp), %rcx	 RIP: 400cac	 Bytes: 4
  %loadMem_400cac = load %struct.Memory*, %struct.Memory** %MEMORY
  %call_400cac = call %struct.Memory* @routine_movslq_MINUS0x28__rbp____rcx(%struct.State* %0, i64  0, %struct.Memory* %loadMem_400cac)
  store %struct.Memory* %call_400cac, %struct.Memory** %MEMORY

  ; Code: mulss 0x4(%rax,%rcx,8), %xmm0	 RIP: 400cb0	 Bytes: 6
  %loadMem_400cb0 = load %struct.Memory*, %struct.Memory** %MEMORY
  %call_400cb0 = call %struct.Memory* @routine_mulss_0x4__rax__rcx_8____xmm0(%struct.State* %0, i64  0, %struct.Memory* %loadMem_400cb0)
  store %struct.Memory* %call_400cb0, %struct.Memory** %MEMORY

  ; Code: movq -0x10(%rbp), %rax	 RIP: 400cb6	 Bytes: 4
  %loadMem_400cb6 = load %struct.Memory*, %struct.Memory** %MEMORY
  %call_400cb6 = call %struct.Memory* @routine_movq_MINUS0x10__rbp____rax(%struct.State* %0, i64  0, %struct.Memory* %loadMem_400cb6)
  store %struct.Memory* %call_400cb6, %struct.Memory** %MEMORY

  ; Code: movslq -0x28(%rbp), %rcx	 RIP: 400cba	 Bytes: 4
  %loadMem_400cba = load %struct.Memory*, %struct.Memory** %MEMORY
  %call_400cba = call %struct.Memory* @routine_movslq_MINUS0x28__rbp____rcx(%struct.State* %0, i64  0, %struct.Memory* %loadMem_400cba)
  store %struct.Memory* %call_400cba, %struct.Memory** %MEMORY

  ; Code: movss %xmm0, 0x4(%rax,%rcx,8)	 RIP: 400cbe	 Bytes: 6
  %loadMem_400cbe = load %struct.Memory*, %struct.Memory** %MEMORY
  %call_400cbe = call %struct.Memory* @routine_movss__xmm0__0x4__rax__rcx_8_(%struct.State* %0, i64  0, %struct.Memory* %loadMem_400cbe)
  store %struct.Memory* %call_400cbe, %struct.Memory** %MEMORY

  ; Code: movl -0x28(%rbp), %eax	 RIP: 400cc4	 Bytes: 3
  %loadMem_400cc4 = load %struct.Memory*, %struct.Memory** %MEMORY
  %call_400cc4 = call %struct.Memory* @routine_movl_MINUS0x28__rbp____eax(%struct.State* %0, i64  0, %struct.Memory* %loadMem_400cc4)
  store %struct.Memory* %call_400cc4, %struct.Memory** %MEMORY

  ; Code: addl $0x1, %eax	 RIP: 400cc7	 Bytes: 3
  %loadMem_400cc7 = load %struct.Memory*, %struct.Memory** %MEMORY
  %call_400cc7 = call %struct.Memory* @routine_addl__0x1___eax(%struct.State* %0, i64  0, %struct.Memory* %loadMem_400cc7)
  store %struct.Memory* %call_400cc7, %struct.Memory** %MEMORY

  ; Code: movl %eax, -0x28(%rbp)	 RIP: 400cca	 Bytes: 3
  %loadMem_400cca = load %struct.Memory*, %struct.Memory** %MEMORY
  %call_400cca = call %struct.Memory* @routine_movl__eax__MINUS0x28__rbp_(%struct.State* %0, i64  0, %struct.Memory* %loadMem_400cca)
  store %struct.Memory* %call_400cca, %struct.Memory** %MEMORY

  ; Code: jmpq .L_400c6a	 RIP: 400ccd	 Bytes: 5
  %loadMem_400ccd = load %struct.Memory*, %struct.Memory** %MEMORY
  %call_400ccd = call %struct.Memory* @routine_jmpq_.L_400c6a(%struct.State* %0, i64  0, %struct.Memory* %loadMem_400ccd, i64 -99, i64 5)
  store %struct.Memory* %call_400ccd, %struct.Memory** %MEMORY

  br label %block_.L_400c6a

  ; Code: .L_400cd2:	 RIP: 400cd2	 Bytes: 0
block_.L_400cd2:

  ; Code: popq %rbp	 RIP: 400cd2	 Bytes: 1
  %loadMem_400cd2 = load %struct.Memory*, %struct.Memory** %MEMORY
  %call_400cd2 = call %struct.Memory* @routine_popq__rbp(%struct.State* %0, i64  0, %struct.Memory* %loadMem_400cd2)
  store %struct.Memory* %call_400cd2, %struct.Memory** %MEMORY

  ; Code: retq	 RIP: 400cd3	 Bytes: 1
  %loadMem_400cd3 = load %struct.Memory*, %struct.Memory** %MEMORY
  %call_400cd3 = call %struct.Memory* @routine_retq(%struct.State* %0, i64  0, %struct.Memory* %loadMem_400cd3)
  store %struct.Memory* %call_400cd3, %struct.Memory** %MEMORY

  ret %struct.Memory* %call_400cd3
}

define internal %struct.Memory* @_ZN12_GLOBAL__N_1L4PUSHI2InImEEEP6MemoryS4_R5StateT_(%struct.Memory*, %struct.State* nocapture dereferenceable(3376), i64) #0 {
  %4 = getelementptr inbounds %struct.State, %struct.State* %1, i64 0, i32 6, i32 13, i32 0, i32 0
  %5 = load i64, i64* %4, align 8
  %6 = add i64 %5, -8
  %7 = inttoptr i64 %6 to i64*
  store i64 %2, i64* %7
  store i64 %6, i64* %4, align 8
  ret %struct.Memory* %0
}

define %struct.Memory* @routine_pushq__rbp(%struct.State*  dereferenceable(3376), i64, %struct.Memory* ) #19 {
block_400488:
  %3 = getelementptr inbounds %struct.State, %struct.State* %0, i32 0, i32 6
  %4 = getelementptr inbounds %struct.GPR, %struct.GPR* %3, i32 0, i32 33
  %5 = getelementptr inbounds %struct.Reg, %struct.Reg* %4, i32 0, i32 0
  %PC = bitcast %union.anon* %5 to i64*
  %6 = getelementptr inbounds %struct.State, %struct.State* %0, i32 0, i32 6
  %7 = getelementptr inbounds %struct.GPR, %struct.GPR* %6, i32 0, i32 15
  %8 = getelementptr inbounds %struct.Reg, %struct.Reg* %7, i32 0, i32 0
  %RBP = bitcast %union.anon* %8 to i64*
  %9 = load i64, i64* %RBP
  %10 = load i64, i64* %PC
  %11 = add i64 %10, 1
  store i64 %11, i64* %PC
  %12 = call %struct.Memory* @_ZN12_GLOBAL__N_1L4PUSHI2InImEEEP6MemoryS4_R5StateT_(%struct.Memory* %2, %struct.State* %0, i64 %9)
  ret %struct.Memory* %12
}

define internal %struct.Memory* @_ZN12_GLOBAL__N_1L3MOVI3RnWImE2RnImEEEP6MemoryS6_R5StateT_T0_(%struct.Memory* readnone returned, %struct.State* nocapture readnone dereferenceable(3376), i64* nocapture, i64) #2 {
  store i64 %3, i64* %2, align 8
  ret %struct.Memory* %0
}

define %struct.Memory* @routine_movq__rsp___rbp(%struct.State*  dereferenceable(3376), i64, %struct.Memory* ) #19 {
block_400488:
  %3 = getelementptr inbounds %struct.State, %struct.State* %0, i32 0, i32 6
  %4 = getelementptr inbounds %struct.GPR, %struct.GPR* %3, i32 0, i32 33
  %5 = getelementptr inbounds %struct.Reg, %struct.Reg* %4, i32 0, i32 0
  %PC = bitcast %union.anon* %5 to i64*
  %6 = getelementptr inbounds %struct.State, %struct.State* %0, i32 0, i32 6
  %7 = getelementptr inbounds %struct.GPR, %struct.GPR* %6, i32 0, i32 13
  %8 = getelementptr inbounds %struct.Reg, %struct.Reg* %7, i32 0, i32 0
  %RSP = bitcast %union.anon* %8 to i64*
  %9 = getelementptr inbounds %struct.State, %struct.State* %0, i32 0, i32 6
  %10 = getelementptr inbounds %struct.GPR, %struct.GPR* %9, i32 0, i32 15
  %11 = getelementptr inbounds %struct.Reg, %struct.Reg* %10, i32 0, i32 0
  %RBP = bitcast %union.anon* %11 to i64*
  %12 = load i64, i64* %RSP
  %13 = load i64, i64* %PC
  %14 = add i64 %13, 3
  store i64 %14, i64* %PC
  %15 = call %struct.Memory* @_ZN12_GLOBAL__N_1L3MOVI3RnWImE2RnImEEEP6MemoryS6_R5StateT_T0_(%struct.Memory* %2, %struct.State* %0, i64* %RBP, i64 %12)
  ret %struct.Memory* %15
}

define internal %struct.Memory* @_ZN12_GLOBAL__N_1L3MOVI3RnWImE2InIjEEEP6MemoryS6_R5StateT_T0_(%struct.Memory* readnone returned, %struct.State* nocapture readnone dereferenceable(3376), i64* nocapture, i64) #2 {
  %5 = and i64 %3, 4294967295
  store i64 %5, i64* %2, align 8
  ret %struct.Memory* %0
}

define %struct.Memory* @routine_movl__0x2___eax(%struct.State*  dereferenceable(3376), i64, %struct.Memory* ) #19 {
block_400488:
  %3 = getelementptr inbounds %struct.State, %struct.State* %0, i32 0, i32 6
  %4 = getelementptr inbounds %struct.GPR, %struct.GPR* %3, i32 0, i32 33
  %5 = getelementptr inbounds %struct.Reg, %struct.Reg* %4, i32 0, i32 0
  %PC = bitcast %union.anon* %5 to i64*
  %6 = getelementptr inbounds %struct.State, %struct.State* %0, i32 0, i32 6
  %7 = getelementptr inbounds %struct.GPR, %struct.GPR* %6, i32 0, i32 1
  %8 = getelementptr inbounds %struct.Reg, %struct.Reg* %7, i32 0, i32 0
  %RAX = bitcast %union.anon* %8 to i64*
  %9 = load i64, i64* %PC
  %10 = add i64 %9, 5
  store i64 %10, i64* %PC
  %11 = call %struct.Memory* @_ZN12_GLOBAL__N_1L3MOVI3RnWImE2InIjEEEP6MemoryS6_R5StateT_T0_(%struct.Memory* %2, %struct.State* %0, i64* %RAX, i64 2)
  ret %struct.Memory* %11
}

define internal %struct.Memory* @_ZN12_GLOBAL__N_1L3MOVI3MnWIjE2RnIjEEEP6MemoryS6_R5StateT_T0_(%struct.Memory* readnone, %struct.State* nocapture readnone dereferenceable(3376), i64, i64) #8 {
  %5 = trunc i64 %3 to i32
  %6 = inttoptr i64 %2 to i32*
  store i32 %5, i32* %6
  ret %struct.Memory* %0
}

define %struct.Memory* @routine_movl__edi__MINUS0x4__rbp_(%struct.State*  dereferenceable(3376), i64, %struct.Memory* ) #19 {
block_400488:
  %3 = getelementptr inbounds %struct.State, %struct.State* %0, i32 0, i32 6
  %4 = getelementptr inbounds %struct.GPR, %struct.GPR* %3, i32 0, i32 33
  %5 = getelementptr inbounds %struct.Reg, %struct.Reg* %4, i32 0, i32 0
  %PC = bitcast %union.anon* %5 to i64*
  %6 = getelementptr inbounds %struct.State, %struct.State* %0, i32 0, i32 6
  %7 = getelementptr inbounds %struct.GPR, %struct.GPR* %6, i32 0, i32 11
  %8 = getelementptr inbounds %struct.Reg, %struct.Reg* %7, i32 0, i32 0
  %EDI = bitcast %union.anon* %8 to i32*
  %9 = getelementptr inbounds %struct.State, %struct.State* %0, i32 0, i32 6
  %10 = getelementptr inbounds %struct.GPR, %struct.GPR* %9, i32 0, i32 15
  %11 = getelementptr inbounds %struct.Reg, %struct.Reg* %10, i32 0, i32 0
  %RBP = bitcast %union.anon* %11 to i64*
  %12 = load i64, i64* %RBP
  %13 = sub i64 %12, 4
  %14 = load i32, i32* %EDI
  %15 = zext i32 %14 to i64
  %16 = load i64, i64* %PC
  %17 = add i64 %16, 3
  store i64 %17, i64* %PC
  %18 = call %struct.Memory* @_ZN12_GLOBAL__N_1L3MOVI3MnWIjE2RnIjEEEP6MemoryS6_R5StateT_T0_(%struct.Memory* %2, %struct.State* %0, i64 %13, i64 %15)
  ret %struct.Memory* %18
}

define internal %struct.Memory* @_ZN12_GLOBAL__N_1L3MOVI3MnWImE2RnImEEEP6MemoryS6_R5StateT_T0_(%struct.Memory* readnone, %struct.State* nocapture readnone dereferenceable(3376), i64, i64) #8 {
  %5 = inttoptr i64 %2 to i64*
  store i64 %3, i64* %5
  ret %struct.Memory* %0
}

define %struct.Memory* @routine_movq__rsi__MINUS0x10__rbp_(%struct.State*  dereferenceable(3376), i64, %struct.Memory* ) #19 {
block_400488:
  %3 = getelementptr inbounds %struct.State, %struct.State* %0, i32 0, i32 6
  %4 = getelementptr inbounds %struct.GPR, %struct.GPR* %3, i32 0, i32 33
  %5 = getelementptr inbounds %struct.Reg, %struct.Reg* %4, i32 0, i32 0
  %PC = bitcast %union.anon* %5 to i64*
  %6 = getelementptr inbounds %struct.State, %struct.State* %0, i32 0, i32 6
  %7 = getelementptr inbounds %struct.GPR, %struct.GPR* %6, i32 0, i32 9
  %8 = getelementptr inbounds %struct.Reg, %struct.Reg* %7, i32 0, i32 0
  %RSI = bitcast %union.anon* %8 to i64*
  %9 = getelementptr inbounds %struct.State, %struct.State* %0, i32 0, i32 6
  %10 = getelementptr inbounds %struct.GPR, %struct.GPR* %9, i32 0, i32 15
  %11 = getelementptr inbounds %struct.Reg, %struct.Reg* %10, i32 0, i32 0
  %RBP = bitcast %union.anon* %11 to i64*
  %12 = load i64, i64* %RBP
  %13 = sub i64 %12, 16
  %14 = load i64, i64* %RSI
  %15 = load i64, i64* %PC
  %16 = add i64 %15, 4
  store i64 %16, i64* %PC
  %17 = call %struct.Memory* @_ZN12_GLOBAL__N_1L3MOVI3MnWImE2RnImEEEP6MemoryS6_R5StateT_T0_(%struct.Memory* %2, %struct.State* %0, i64 %13, i64 %14)
  ret %struct.Memory* %17
}


define %struct.Memory* @routine_movq__rdx__MINUS0x18__rbp_(%struct.State*  dereferenceable(3376), i64, %struct.Memory* ) #19 {
block_400488:
  %3 = getelementptr inbounds %struct.State, %struct.State* %0, i32 0, i32 6
  %4 = getelementptr inbounds %struct.GPR, %struct.GPR* %3, i32 0, i32 33
  %5 = getelementptr inbounds %struct.Reg, %struct.Reg* %4, i32 0, i32 0
  %PC = bitcast %union.anon* %5 to i64*
  %6 = getelementptr inbounds %struct.State, %struct.State* %0, i32 0, i32 6
  %7 = getelementptr inbounds %struct.GPR, %struct.GPR* %6, i32 0, i32 7
  %8 = getelementptr inbounds %struct.Reg, %struct.Reg* %7, i32 0, i32 0
  %RDX = bitcast %union.anon* %8 to i64*
  %9 = getelementptr inbounds %struct.State, %struct.State* %0, i32 0, i32 6
  %10 = getelementptr inbounds %struct.GPR, %struct.GPR* %9, i32 0, i32 15
  %11 = getelementptr inbounds %struct.Reg, %struct.Reg* %10, i32 0, i32 0
  %RBP = bitcast %union.anon* %11 to i64*
  %12 = load i64, i64* %RBP
  %13 = sub i64 %12, 24
  %14 = load i64, i64* %RDX
  %15 = load i64, i64* %PC
  %16 = add i64 %15, 4
  store i64 %16, i64* %PC
  %17 = call %struct.Memory* @_ZN12_GLOBAL__N_1L3MOVI3MnWImE2RnImEEEP6MemoryS6_R5StateT_T0_(%struct.Memory* %2, %struct.State* %0, i64 %13, i64 %14)
  ret %struct.Memory* %17
}


define %struct.Memory* @routine_movq__rcx__MINUS0x20__rbp_(%struct.State*  dereferenceable(3376), i64, %struct.Memory* ) #19 {
block_400488:
  %3 = getelementptr inbounds %struct.State, %struct.State* %0, i32 0, i32 6
  %4 = getelementptr inbounds %struct.GPR, %struct.GPR* %3, i32 0, i32 33
  %5 = getelementptr inbounds %struct.Reg, %struct.Reg* %4, i32 0, i32 0
  %PC = bitcast %union.anon* %5 to i64*
  %6 = getelementptr inbounds %struct.State, %struct.State* %0, i32 0, i32 6
  %7 = getelementptr inbounds %struct.GPR, %struct.GPR* %6, i32 0, i32 5
  %8 = getelementptr inbounds %struct.Reg, %struct.Reg* %7, i32 0, i32 0
  %RCX = bitcast %union.anon* %8 to i64*
  %9 = getelementptr inbounds %struct.State, %struct.State* %0, i32 0, i32 6
  %10 = getelementptr inbounds %struct.GPR, %struct.GPR* %9, i32 0, i32 15
  %11 = getelementptr inbounds %struct.Reg, %struct.Reg* %10, i32 0, i32 0
  %RBP = bitcast %union.anon* %11 to i64*
  %12 = load i64, i64* %RBP
  %13 = sub i64 %12, 32
  %14 = load i64, i64* %RCX
  %15 = load i64, i64* %PC
  %16 = add i64 %15, 4
  store i64 %16, i64* %PC
  %17 = call %struct.Memory* @_ZN12_GLOBAL__N_1L3MOVI3MnWImE2RnImEEEP6MemoryS6_R5StateT_T0_(%struct.Memory* %2, %struct.State* %0, i64 %13, i64 %14)
  ret %struct.Memory* %17
}

define internal %struct.Memory* @_ZN12_GLOBAL__N_1L9MOVSS_MEMI4MVnWI7vec32_tE2VnI8vec128_tEEEP6MemoryS8_R5StateT_T0_(%struct.Memory* readnone, %struct.State* nocapture readnone dereferenceable(3376), i64, i8* nocapture readonly) #7 {
  %5 = bitcast i8* %3 to <2 x float>*
  %6 = load <2 x float>, <2 x float>* %5, align 1
  %7 = extractelement <2 x float> %6, i32 0
  %8 = inttoptr i64 %2 to float*
  store float %7, float* %8
  ret %struct.Memory* %0
}

define %struct.Memory* @routine_movss__xmm0__MINUS0x24__rbp_(%struct.State*  dereferenceable(3376), i64, %struct.Memory* ) #19 {
block_400488:
  %3 = getelementptr inbounds %struct.State, %struct.State* %0, i32 0, i32 6
  %4 = getelementptr inbounds %struct.GPR, %struct.GPR* %3, i32 0, i32 33
  %5 = getelementptr inbounds %struct.Reg, %struct.Reg* %4, i32 0, i32 0
  %PC = bitcast %union.anon* %5 to i64*
  %6 = getelementptr inbounds %struct.State, %struct.State* %0, i32 0, i32 6
  %7 = getelementptr inbounds %struct.GPR, %struct.GPR* %6, i32 0, i32 15
  %8 = getelementptr inbounds %struct.Reg, %struct.Reg* %7, i32 0, i32 0
  %RBP = bitcast %union.anon* %8 to i64*
  %9 = getelementptr inbounds %struct.State, %struct.State* %0, i32 0, i32 1
  %10 = getelementptr inbounds [32 x %union.VectorReg], [32 x %union.VectorReg]* %9, i64 0, i64 0
  %XMM0 = bitcast %union.VectorReg* %10 to %union.vec128_t*
  %11 = load i64, i64* %RBP
  %12 = sub i64 %11, 36
  %13 = bitcast %union.vec128_t* %XMM0 to i8*
  %14 = load i64, i64* %PC
  %15 = add i64 %14, 5
  store i64 %15, i64* %PC
  %16 = call %struct.Memory* @_ZN12_GLOBAL__N_1L9MOVSS_MEMI4MVnWI7vec32_tE2VnI8vec128_tEEEP6MemoryS8_R5StateT_T0_(%struct.Memory* %2, %struct.State* %0, i64 %12, i8* %13)
  ret %struct.Memory* %16
}

define internal %struct.Memory* @_ZN12_GLOBAL__N_1L3MOVI3RnWImE2MnIjEEEP6MemoryS6_R5StateT_T0_(%struct.Memory* returned, %struct.State* nocapture readnone dereferenceable(3376), i64* nocapture, i64) #0 {
  %5 = inttoptr i64 %3 to i32*
  %6 = load i32, i32* %5
  %7 = zext i32 %6 to i64
  store i64 %7, i64* %2, align 8
  ret %struct.Memory* %0
}

define %struct.Memory* @routine_movl_MINUS0x4__rbp____edi(%struct.State*  dereferenceable(3376), i64, %struct.Memory* ) #19 {
block_400488:
  %3 = getelementptr inbounds %struct.State, %struct.State* %0, i32 0, i32 6
  %4 = getelementptr inbounds %struct.GPR, %struct.GPR* %3, i32 0, i32 33
  %5 = getelementptr inbounds %struct.Reg, %struct.Reg* %4, i32 0, i32 0
  %PC = bitcast %union.anon* %5 to i64*
  %6 = getelementptr inbounds %struct.State, %struct.State* %0, i32 0, i32 6
  %7 = getelementptr inbounds %struct.GPR, %struct.GPR* %6, i32 0, i32 11
  %8 = getelementptr inbounds %struct.Reg, %struct.Reg* %7, i32 0, i32 0
  %RDI = bitcast %union.anon* %8 to i64*
  %9 = getelementptr inbounds %struct.State, %struct.State* %0, i32 0, i32 6
  %10 = getelementptr inbounds %struct.GPR, %struct.GPR* %9, i32 0, i32 15
  %11 = getelementptr inbounds %struct.Reg, %struct.Reg* %10, i32 0, i32 0
  %RBP = bitcast %union.anon* %11 to i64*
  %12 = load i64, i64* %RBP
  %13 = sub i64 %12, 4
  %14 = load i64, i64* %PC
  %15 = add i64 %14, 3
  store i64 %15, i64* %PC
  %16 = call %struct.Memory* @_ZN12_GLOBAL__N_1L3MOVI3RnWImE2MnIjEEEP6MemoryS6_R5StateT_T0_(%struct.Memory* %2, %struct.State* %0, i64* %RDI, i64 %13)
  ret %struct.Memory* %16
}


define %struct.Memory* @routine_movl__eax__MINUS0x40__rbp_(%struct.State*  dereferenceable(3376), i64, %struct.Memory* ) #19 {
block_400488:
  %3 = getelementptr inbounds %struct.State, %struct.State* %0, i32 0, i32 6
  %4 = getelementptr inbounds %struct.GPR, %struct.GPR* %3, i32 0, i32 33
  %5 = getelementptr inbounds %struct.Reg, %struct.Reg* %4, i32 0, i32 0
  %PC = bitcast %union.anon* %5 to i64*
  %6 = getelementptr inbounds %struct.State, %struct.State* %0, i32 0, i32 6
  %7 = getelementptr inbounds %struct.GPR, %struct.GPR* %6, i32 0, i32 1
  %8 = getelementptr inbounds %struct.Reg, %struct.Reg* %7, i32 0, i32 0
  %EAX = bitcast %union.anon* %8 to i32*
  %9 = getelementptr inbounds %struct.State, %struct.State* %0, i32 0, i32 6
  %10 = getelementptr inbounds %struct.GPR, %struct.GPR* %9, i32 0, i32 15
  %11 = getelementptr inbounds %struct.Reg, %struct.Reg* %10, i32 0, i32 0
  %RBP = bitcast %union.anon* %11 to i64*
  %12 = load i64, i64* %RBP
  %13 = sub i64 %12, 64
  %14 = load i32, i32* %EAX
  %15 = zext i32 %14 to i64
  %16 = load i64, i64* %PC
  %17 = add i64 %16, 3
  store i64 %17, i64* %PC
  %18 = call %struct.Memory* @_ZN12_GLOBAL__N_1L3MOVI3MnWIjE2RnIjEEEP6MemoryS6_R5StateT_T0_(%struct.Memory* %2, %struct.State* %0, i64 %13, i64 %15)
  ret %struct.Memory* %18
}

define internal %struct.Memory* @_ZN12_GLOBAL__N_1L3MOVI3RnWImE2RnIjEEEP6MemoryS6_R5StateT_T0_(%struct.Memory* readnone returned, %struct.State* nocapture readnone dereferenceable(3376), i64* nocapture, i64) #2 {
  %5 = and i64 %3, 4294967295
  store i64 %5, i64* %2, align 8
  ret %struct.Memory* %0
}

define %struct.Memory* @routine_movl__edi___eax(%struct.State*  dereferenceable(3376), i64, %struct.Memory* ) #19 {
block_400488:
  %3 = getelementptr inbounds %struct.State, %struct.State* %0, i32 0, i32 6
  %4 = getelementptr inbounds %struct.GPR, %struct.GPR* %3, i32 0, i32 33
  %5 = getelementptr inbounds %struct.Reg, %struct.Reg* %4, i32 0, i32 0
  %PC = bitcast %union.anon* %5 to i64*
  %6 = getelementptr inbounds %struct.State, %struct.State* %0, i32 0, i32 6
  %7 = getelementptr inbounds %struct.GPR, %struct.GPR* %6, i32 0, i32 11
  %8 = getelementptr inbounds %struct.Reg, %struct.Reg* %7, i32 0, i32 0
  %EDI = bitcast %union.anon* %8 to i32*
  %9 = getelementptr inbounds %struct.State, %struct.State* %0, i32 0, i32 6
  %10 = getelementptr inbounds %struct.GPR, %struct.GPR* %9, i32 0, i32 1
  %11 = getelementptr inbounds %struct.Reg, %struct.Reg* %10, i32 0, i32 0
  %RAX = bitcast %union.anon* %11 to i64*
  %12 = load i32, i32* %EDI
  %13 = zext i32 %12 to i64
  %14 = load i64, i64* %PC
  %15 = add i64 %14, 2
  store i64 %15, i64* %PC
  %16 = call %struct.Memory* @_ZN12_GLOBAL__N_1L3MOVI3RnWImE2RnIjEEEP6MemoryS6_R5StateT_T0_(%struct.Memory* %2, %struct.State* %0, i64* %RAX, i64 %13)
  ret %struct.Memory* %16
}

define internal %struct.Memory* @_ZN12_GLOBAL__N_1L7CDQ_EAXEP6MemoryR5State(%struct.Memory* readnone returned, %struct.State* nocapture dereferenceable(3376)) #2 {
  %3 = getelementptr inbounds %struct.State, %struct.State* %1, i64 0, i32 6, i32 7, i32 0, i32 0
  %4 = getelementptr inbounds %struct.State, %struct.State* %1, i64 0, i32 6, i32 1, i32 0
  %5 = bitcast %union.anon* %4 to i32*
  %6 = load i32, i32* %5, align 8
  %7 = sext i32 %6 to i64
  %8 = lshr i64 %7, 32
  store i64 %8, i64* %3, align 8
  ret %struct.Memory* %0
}

define %struct.Memory* @routine_cltd(%struct.State*  dereferenceable(3376), i64, %struct.Memory* ) #19 {
block_400488:
  %3 = getelementptr inbounds %struct.State, %struct.State* %0, i32 0, i32 6
  %4 = getelementptr inbounds %struct.GPR, %struct.GPR* %3, i32 0, i32 33
  %5 = getelementptr inbounds %struct.Reg, %struct.Reg* %4, i32 0, i32 0
  %PC = bitcast %union.anon* %5 to i64*
  %6 = load i64, i64* %PC
  %7 = add i64 %6, 1
  store i64 %7, i64* %PC
  %8 = call %struct.Memory* @_ZN12_GLOBAL__N_1L7CDQ_EAXEP6MemoryR5State(%struct.Memory* %2, %struct.State* %0)
  ret %struct.Memory* %8
}


define %struct.Memory* @routine_movl_MINUS0x40__rbp____edi(%struct.State*  dereferenceable(3376), i64, %struct.Memory* ) #19 {
block_400488:
  %3 = getelementptr inbounds %struct.State, %struct.State* %0, i32 0, i32 6
  %4 = getelementptr inbounds %struct.GPR, %struct.GPR* %3, i32 0, i32 33
  %5 = getelementptr inbounds %struct.Reg, %struct.Reg* %4, i32 0, i32 0
  %PC = bitcast %union.anon* %5 to i64*
  %6 = getelementptr inbounds %struct.State, %struct.State* %0, i32 0, i32 6
  %7 = getelementptr inbounds %struct.GPR, %struct.GPR* %6, i32 0, i32 11
  %8 = getelementptr inbounds %struct.Reg, %struct.Reg* %7, i32 0, i32 0
  %RDI = bitcast %union.anon* %8 to i64*
  %9 = getelementptr inbounds %struct.State, %struct.State* %0, i32 0, i32 6
  %10 = getelementptr inbounds %struct.GPR, %struct.GPR* %9, i32 0, i32 15
  %11 = getelementptr inbounds %struct.Reg, %struct.Reg* %10, i32 0, i32 0
  %RBP = bitcast %union.anon* %11 to i64*
  %12 = load i64, i64* %RBP
  %13 = sub i64 %12, 64
  %14 = load i64, i64* %PC
  %15 = add i64 %14, 3
  store i64 %15, i64* %PC
  %16 = call %struct.Memory* @_ZN12_GLOBAL__N_1L3MOVI3RnWImE2MnIjEEEP6MemoryS6_R5StateT_T0_(%struct.Memory* %2, %struct.State* %0, i64* %RDI, i64 %13)
  ret %struct.Memory* %16
}

define internal %struct.Memory* @_ZN12_GLOBAL__N_1L10IDIVedxeaxI2RnIjEEEP6MemoryS4_R5StateT_(%struct.Memory*, %struct.State* dereferenceable(3376), i64) #0 {
  %4 = getelementptr inbounds %struct.State, %struct.State* %1, i64 0, i32 6, i32 1, i32 0
  %5 = bitcast %union.anon* %4 to i32*
  %6 = load i32, i32* %5, align 8
  %7 = zext i32 %6 to i64
  %8 = getelementptr inbounds %struct.State, %struct.State* %1, i64 0, i32 6, i32 7, i32 0
  %9 = bitcast %union.anon* %8 to i32*
  %10 = load i32, i32* %9, align 8
  %11 = zext i32 %10 to i64
  %12 = shl i64 %2, 32
  %13 = ashr exact i64 %12, 32
  %14 = shl  i64 %11, 32
  %15 = or i64 %14, %7
  %16 = sdiv i64 %15, %13
  %17 = shl i64 %16, 32
  %18 = ashr exact i64 %17, 32
  %19 = icmp eq i64 %16, %18
  br i1 %19, label %24, label %20

; <label>:20:                                     ; preds = %3
  %21 = getelementptr inbounds %struct.State, %struct.State* %1, i64 0, i32 6, i32 33, i32 0, i32 0
  %22 = load i64, i64* %21, align 8
  %23 = tail call %struct.Memory* @__remill_error(%struct.State* nonnull dereferenceable(3376) %1, i64 %22, %struct.Memory* %0) #21
  br label %36

; <label>:24:                                     ; preds = %3
  %25 = srem i64 %15, %13
  %26 = getelementptr inbounds %union.anon, %union.anon* %4, i64 0, i32 0
  %27 = and i64 %16, 4294967295
  store i64 %27, i64* %26, align 8
  %28 = getelementptr inbounds %union.anon, %union.anon* %8, i64 0, i32 0
  %29 = and i64 %25, 4294967295
  store i64 %29, i64* %28, align 8
  %30 = getelementptr inbounds %struct.State, %struct.State* %1, i64 0, i32 2, i32 1
  store i8 0, i8* %30, align 1
  %31 = getelementptr inbounds %struct.State, %struct.State* %1, i64 0, i32 2, i32 3
  store i8 0, i8* %31, align 1
  %32 = getelementptr inbounds %struct.State, %struct.State* %1, i64 0, i32 2, i32 5
  store i8 0, i8* %32, align 1
  %33 = getelementptr inbounds %struct.State, %struct.State* %1, i64 0, i32 2, i32 7
  store i8 0, i8* %33, align 1
  %34 = getelementptr inbounds %struct.State, %struct.State* %1, i64 0, i32 2, i32 9
  store i8 0, i8* %34, align 1
  %35 = getelementptr inbounds %struct.State, %struct.State* %1, i64 0, i32 2, i32 13
  store i8 0, i8* %35, align 1
  br label %36

; <label>:36:                                     ; preds = %24, %20
  %37 = phi %struct.Memory* [ %23, %20 ], [ %0, %24 ]
  ret %struct.Memory* %37
}

define %struct.Memory* @routine_idivl__edi(%struct.State*  dereferenceable(3376), i64, %struct.Memory* ) #19 {
block_400488:
  %3 = getelementptr inbounds %struct.State, %struct.State* %0, i32 0, i32 6
  %4 = getelementptr inbounds %struct.GPR, %struct.GPR* %3, i32 0, i32 33
  %5 = getelementptr inbounds %struct.Reg, %struct.Reg* %4, i32 0, i32 0
  %PC = bitcast %union.anon* %5 to i64*
  %6 = getelementptr inbounds %struct.State, %struct.State* %0, i32 0, i32 6
  %7 = getelementptr inbounds %struct.GPR, %struct.GPR* %6, i32 0, i32 11
  %8 = getelementptr inbounds %struct.Reg, %struct.Reg* %7, i32 0, i32 0
  %EDI = bitcast %union.anon* %8 to i32*
  %9 = load i32, i32* %EDI
  %10 = zext i32 %9 to i64
  %11 = load i64, i64* %PC
  %12 = add i64 %11, 2
  store i64 %12, i64* %PC
  %13 = call %struct.Memory* @_ZN12_GLOBAL__N_1L10IDIVedxeaxI2RnIjEEEP6MemoryS4_R5StateT_(%struct.Memory* %2, %struct.State* %0, i64 %10)
  ret %struct.Memory* %13
}


define %struct.Memory* @routine_movl__eax__MINUS0x38__rbp_(%struct.State*  dereferenceable(3376), i64, %struct.Memory* ) #19 {
block_400488:
  %3 = getelementptr inbounds %struct.State, %struct.State* %0, i32 0, i32 6
  %4 = getelementptr inbounds %struct.GPR, %struct.GPR* %3, i32 0, i32 33
  %5 = getelementptr inbounds %struct.Reg, %struct.Reg* %4, i32 0, i32 0
  %PC = bitcast %union.anon* %5 to i64*
  %6 = getelementptr inbounds %struct.State, %struct.State* %0, i32 0, i32 6
  %7 = getelementptr inbounds %struct.GPR, %struct.GPR* %6, i32 0, i32 1
  %8 = getelementptr inbounds %struct.Reg, %struct.Reg* %7, i32 0, i32 0
  %EAX = bitcast %union.anon* %8 to i32*
  %9 = getelementptr inbounds %struct.State, %struct.State* %0, i32 0, i32 6
  %10 = getelementptr inbounds %struct.GPR, %struct.GPR* %9, i32 0, i32 15
  %11 = getelementptr inbounds %struct.Reg, %struct.Reg* %10, i32 0, i32 0
  %RBP = bitcast %union.anon* %11 to i64*
  %12 = load i64, i64* %RBP
  %13 = sub i64 %12, 56
  %14 = load i32, i32* %EAX
  %15 = zext i32 %14 to i64
  %16 = load i64, i64* %PC
  %17 = add i64 %16, 3
  store i64 %17, i64* %PC
  %18 = call %struct.Memory* @_ZN12_GLOBAL__N_1L3MOVI3MnWIjE2RnIjEEEP6MemoryS6_R5StateT_T0_(%struct.Memory* %2, %struct.State* %0, i64 %13, i64 %15)
  ret %struct.Memory* %18
}

define internal %struct.Memory* @_ZN12_GLOBAL__N_1L3MOVI3MnWIjE2InIjEEEP6MemoryS6_R5StateT_T0_(%struct.Memory* readnone, %struct.State* nocapture readnone dereferenceable(3376), i64, i64) #8 {
  %5 = trunc i64 %3 to i32
  %6 = inttoptr i64 %2 to i32*
  store i32 %5, i32* %6
  ret %struct.Memory* %0
}

define %struct.Memory* @routine_movl__0x1__MINUS0x34__rbp_(%struct.State*  dereferenceable(3376), i64, %struct.Memory* ) #19 {
block_400488:
  %3 = getelementptr inbounds %struct.State, %struct.State* %0, i32 0, i32 6
  %4 = getelementptr inbounds %struct.GPR, %struct.GPR* %3, i32 0, i32 33
  %5 = getelementptr inbounds %struct.Reg, %struct.Reg* %4, i32 0, i32 0
  %PC = bitcast %union.anon* %5 to i64*
  %6 = getelementptr inbounds %struct.State, %struct.State* %0, i32 0, i32 6
  %7 = getelementptr inbounds %struct.GPR, %struct.GPR* %6, i32 0, i32 15
  %8 = getelementptr inbounds %struct.Reg, %struct.Reg* %7, i32 0, i32 0
  %RBP = bitcast %union.anon* %8 to i64*
  %9 = load i64, i64* %RBP
  %10 = sub i64 %9, 52
  %11 = load i64, i64* %PC
  %12 = add i64 %11, 7
  store i64 %12, i64* %PC
  %13 = call %struct.Memory* @_ZN12_GLOBAL__N_1L3MOVI3MnWIjE2InIjEEEP6MemoryS6_R5StateT_T0_(%struct.Memory* %2, %struct.State* %0, i64 %10, i64 1)
  ret %struct.Memory* %13
}


define %struct.Memory* @routine_movl__0x0__MINUS0x30__rbp_(%struct.State*  dereferenceable(3376), i64, %struct.Memory* ) #19 {
block_400488:
  %3 = getelementptr inbounds %struct.State, %struct.State* %0, i32 0, i32 6
  %4 = getelementptr inbounds %struct.GPR, %struct.GPR* %3, i32 0, i32 33
  %5 = getelementptr inbounds %struct.Reg, %struct.Reg* %4, i32 0, i32 0
  %PC = bitcast %union.anon* %5 to i64*
  %6 = getelementptr inbounds %struct.State, %struct.State* %0, i32 0, i32 6
  %7 = getelementptr inbounds %struct.GPR, %struct.GPR* %6, i32 0, i32 15
  %8 = getelementptr inbounds %struct.Reg, %struct.Reg* %7, i32 0, i32 0
  %RBP = bitcast %union.anon* %8 to i64*
  %9 = load i64, i64* %RBP
  %10 = sub i64 %9, 48
  %11 = load i64, i64* %PC
  %12 = add i64 %11, 7
  store i64 %12, i64* %PC
  %13 = call %struct.Memory* @_ZN12_GLOBAL__N_1L3MOVI3MnWIjE2InIjEEEP6MemoryS6_R5StateT_T0_(%struct.Memory* %2, %struct.State* %0, i64 %10, i64 0)
  ret %struct.Memory* %13
}


define %struct.Memory* @routine_movl_MINUS0x34__rbp____eax(%struct.State*  dereferenceable(3376), i64, %struct.Memory* ) #19 {
block_400488:
  %3 = getelementptr inbounds %struct.State, %struct.State* %0, i32 0, i32 6
  %4 = getelementptr inbounds %struct.GPR, %struct.GPR* %3, i32 0, i32 33
  %5 = getelementptr inbounds %struct.Reg, %struct.Reg* %4, i32 0, i32 0
  %PC = bitcast %union.anon* %5 to i64*
  %6 = getelementptr inbounds %struct.State, %struct.State* %0, i32 0, i32 6
  %7 = getelementptr inbounds %struct.GPR, %struct.GPR* %6, i32 0, i32 1
  %8 = getelementptr inbounds %struct.Reg, %struct.Reg* %7, i32 0, i32 0
  %RAX = bitcast %union.anon* %8 to i64*
  %9 = getelementptr inbounds %struct.State, %struct.State* %0, i32 0, i32 6
  %10 = getelementptr inbounds %struct.GPR, %struct.GPR* %9, i32 0, i32 15
  %11 = getelementptr inbounds %struct.Reg, %struct.Reg* %10, i32 0, i32 0
  %RBP = bitcast %union.anon* %11 to i64*
  %12 = load i64, i64* %RBP
  %13 = sub i64 %12, 52
  %14 = load i64, i64* %PC
  %15 = add i64 %14, 3
  store i64 %15, i64* %PC
  %16 = call %struct.Memory* @_ZN12_GLOBAL__N_1L3MOVI3RnWImE2MnIjEEEP6MemoryS6_R5StateT_T0_(%struct.Memory* %2, %struct.State* %0, i64* %RAX, i64 %13)
  ret %struct.Memory* %16
}


define %struct.Memory* @routine_movl__eax__MINUS0x2c__rbp_(%struct.State*  dereferenceable(3376), i64, %struct.Memory* ) #19 {
block_400488:
  %3 = getelementptr inbounds %struct.State, %struct.State* %0, i32 0, i32 6
  %4 = getelementptr inbounds %struct.GPR, %struct.GPR* %3, i32 0, i32 33
  %5 = getelementptr inbounds %struct.Reg, %struct.Reg* %4, i32 0, i32 0
  %PC = bitcast %union.anon* %5 to i64*
  %6 = getelementptr inbounds %struct.State, %struct.State* %0, i32 0, i32 6
  %7 = getelementptr inbounds %struct.GPR, %struct.GPR* %6, i32 0, i32 1
  %8 = getelementptr inbounds %struct.Reg, %struct.Reg* %7, i32 0, i32 0
  %EAX = bitcast %union.anon* %8 to i32*
  %9 = getelementptr inbounds %struct.State, %struct.State* %0, i32 0, i32 6
  %10 = getelementptr inbounds %struct.GPR, %struct.GPR* %9, i32 0, i32 15
  %11 = getelementptr inbounds %struct.Reg, %struct.Reg* %10, i32 0, i32 0
  %RBP = bitcast %union.anon* %11 to i64*
  %12 = load i64, i64* %RBP
  %13 = sub i64 %12, 44
  %14 = load i32, i32* %EAX
  %15 = zext i32 %14 to i64
  %16 = load i64, i64* %PC
  %17 = add i64 %16, 3
  store i64 %17, i64* %PC
  %18 = call %struct.Memory* @_ZN12_GLOBAL__N_1L3MOVI3MnWIjE2RnIjEEEP6MemoryS6_R5StateT_T0_(%struct.Memory* %2, %struct.State* %0, i64 %13, i64 %15)
  ret %struct.Memory* %18
}


define %struct.Memory* @routine_movl__0x1__MINUS0x28__rbp_(%struct.State*  dereferenceable(3376), i64, %struct.Memory* ) #19 {
block_400488:
  %3 = getelementptr inbounds %struct.State, %struct.State* %0, i32 0, i32 6
  %4 = getelementptr inbounds %struct.GPR, %struct.GPR* %3, i32 0, i32 33
  %5 = getelementptr inbounds %struct.Reg, %struct.Reg* %4, i32 0, i32 0
  %PC = bitcast %union.anon* %5 to i64*
  %6 = getelementptr inbounds %struct.State, %struct.State* %0, i32 0, i32 6
  %7 = getelementptr inbounds %struct.GPR, %struct.GPR* %6, i32 0, i32 15
  %8 = getelementptr inbounds %struct.Reg, %struct.Reg* %7, i32 0, i32 0
  %RBP = bitcast %union.anon* %8 to i64*
  %9 = load i64, i64* %RBP
  %10 = sub i64 %9, 40
  %11 = load i64, i64* %PC
  %12 = add i64 %11, 7
  store i64 %12, i64* %PC
  %13 = call %struct.Memory* @_ZN12_GLOBAL__N_1L3MOVI3MnWIjE2InIjEEEP6MemoryS6_R5StateT_T0_(%struct.Memory* %2, %struct.State* %0, i64 %10, i64 1)
  ret %struct.Memory* %13
}

define internal %struct.Memory* @_ZN12_GLOBAL__N_1L3JMPI2InImEEEP6MemoryS4_R5StateT_(%struct.Memory* readnone returned, %struct.State* nocapture dereferenceable(3376), i64) #2 {
  %4 = getelementptr inbounds %struct.State, %struct.State* %1, i64 0, i32 6, i32 33, i32 0, i32 0
  store i64 %2, i64* %4, align 8
  ret %struct.Memory* %0
}

define %struct.Memory* @routine_jmpq_.L_400a7e(%struct.State*  dereferenceable(3376), i64, %struct.Memory*, i64 %rel_off1, i64 %rel_off2) {
block_400488:
  %3 = getelementptr inbounds %struct.State, %struct.State* %0, i32 0, i32 6
  %4 = getelementptr inbounds %struct.GPR, %struct.GPR* %3, i32 0, i32 33
  %5 = getelementptr inbounds %struct.Reg, %struct.Reg* %4, i32 0, i32 0
  %PC = bitcast %union.anon* %5 to i64*
  %6 = load i64, i64* %PC
  %7 = add i64 %6, %rel_off1
  %8 = load i64, i64* %PC
  %9 = add i64 %8, %rel_off2
  store i64 %9, i64* %PC
  %10 = call %struct.Memory* @_ZN12_GLOBAL__N_1L3JMPI2InImEEEP6MemoryS4_R5StateT_(%struct.Memory* %2, %struct.State* %0, i64 %7)
  ret %struct.Memory* %10
}

define internal %struct.Memory* @_ZN12_GLOBAL__N_1L3MOVI3RnWImE2MnImEEEP6MemoryS6_R5StateT_T0_(%struct.Memory* returned, %struct.State* nocapture readnone dereferenceable(3376), i64* nocapture, i64) #0 {
  %5 = inttoptr i64 %3 to i64*
  %6 = load i64, i64* %5
  store i64 %6, i64* %2, align 8
  ret %struct.Memory* %0
}

define %struct.Memory* @routine_movq_MINUS0x10__rbp____rax(%struct.State*  dereferenceable(3376), i64, %struct.Memory* ) #19 {
block_400488:
  %3 = getelementptr inbounds %struct.State, %struct.State* %0, i32 0, i32 6
  %4 = getelementptr inbounds %struct.GPR, %struct.GPR* %3, i32 0, i32 33
  %5 = getelementptr inbounds %struct.Reg, %struct.Reg* %4, i32 0, i32 0
  %PC = bitcast %union.anon* %5 to i64*
  %6 = getelementptr inbounds %struct.State, %struct.State* %0, i32 0, i32 6
  %7 = getelementptr inbounds %struct.GPR, %struct.GPR* %6, i32 0, i32 1
  %8 = getelementptr inbounds %struct.Reg, %struct.Reg* %7, i32 0, i32 0
  %RAX = bitcast %union.anon* %8 to i64*
  %9 = getelementptr inbounds %struct.State, %struct.State* %0, i32 0, i32 6
  %10 = getelementptr inbounds %struct.GPR, %struct.GPR* %9, i32 0, i32 15
  %11 = getelementptr inbounds %struct.Reg, %struct.Reg* %10, i32 0, i32 0
  %RBP = bitcast %union.anon* %11 to i64*
  %12 = load i64, i64* %RBP
  %13 = sub i64 %12, 16
  %14 = load i64, i64* %PC
  %15 = add i64 %14, 4
  store i64 %15, i64* %PC
  %16 = call %struct.Memory* @_ZN12_GLOBAL__N_1L3MOVI3RnWImE2MnImEEEP6MemoryS6_R5StateT_T0_(%struct.Memory* %2, %struct.State* %0, i64* %RAX, i64 %13)
  ret %struct.Memory* %16
}

define internal %struct.Memory* @_ZN12_GLOBAL__N_1L5MOVSXI3RnWImE2MnIjElEEP6MemoryS6_R5StateT_T0_(%struct.Memory* returned, %struct.State* nocapture readnone dereferenceable(3376), i64* nocapture, i64) #0 {
  %5 = inttoptr i64 %3 to i32*
  %6 = load i32, i32* %5
  %7 = sext i32 %6 to i64
  store i64 %7, i64* %2, align 8
  ret %struct.Memory* %0
}

define %struct.Memory* @routine_movslq_MINUS0x28__rbp____rcx(%struct.State*  dereferenceable(3376), i64, %struct.Memory* ) #19 {
block_400488:
  %3 = getelementptr inbounds %struct.State, %struct.State* %0, i32 0, i32 6
  %4 = getelementptr inbounds %struct.GPR, %struct.GPR* %3, i32 0, i32 33
  %5 = getelementptr inbounds %struct.Reg, %struct.Reg* %4, i32 0, i32 0
  %PC = bitcast %union.anon* %5 to i64*
  %6 = getelementptr inbounds %struct.State, %struct.State* %0, i32 0, i32 6
  %7 = getelementptr inbounds %struct.GPR, %struct.GPR* %6, i32 0, i32 5
  %8 = getelementptr inbounds %struct.Reg, %struct.Reg* %7, i32 0, i32 0
  %RCX = bitcast %union.anon* %8 to i64*
  %9 = getelementptr inbounds %struct.State, %struct.State* %0, i32 0, i32 6
  %10 = getelementptr inbounds %struct.GPR, %struct.GPR* %9, i32 0, i32 15
  %11 = getelementptr inbounds %struct.Reg, %struct.Reg* %10, i32 0, i32 0
  %RBP = bitcast %union.anon* %11 to i64*
  %12 = load i64, i64* %RBP
  %13 = sub i64 %12, 40
  %14 = load i64, i64* %PC
  %15 = add i64 %14, 4
  store i64 %15, i64* %PC
  %16 = call %struct.Memory* @_ZN12_GLOBAL__N_1L5MOVSXI3RnWImE2MnIjElEEP6MemoryS6_R5StateT_T0_(%struct.Memory* %2, %struct.State* %0, i64* %RCX, i64 %13)
  ret %struct.Memory* %16
}

define internal %struct.Memory* @_ZN12_GLOBAL__N_1L9MOVSS_MEMI3VnWI8vec128_tE3MVnI7vec32_tEEEP6MemoryS8_R5StateT_T0_(%struct.Memory* returned, %struct.State* nocapture readnone dereferenceable(3376), i8* nocapture, i64) #0 {
  %5 = inttoptr i64 %3 to float*
  %6 = load float, float* %5
  %7 = bitcast i8* %2 to float*
  store float %6, float* %7, align 1
  %8 = getelementptr inbounds i8, i8* %2, i64 4
  %9 = bitcast i8* %8 to float*
  store float 0.000000e+00, float* %9, align 1
  %10 = getelementptr inbounds i8, i8* %2, i64 8
  %11 = bitcast i8* %10 to float*
  store float 0.000000e+00, float* %11, align 1
  %12 = getelementptr inbounds i8, i8* %2, i64 12
  %13 = bitcast i8* %12 to float*
  store float 0.000000e+00, float* %13, align 1
  ret %struct.Memory* %0
}

define %struct.Memory* @routine_movss___rax__rcx_8____xmm0(%struct.State*  dereferenceable(3376), i64, %struct.Memory* ) #19 {
block_400488:
  %3 = getelementptr inbounds %struct.State, %struct.State* %0, i32 0, i32 6
  %4 = getelementptr inbounds %struct.GPR, %struct.GPR* %3, i32 0, i32 33
  %5 = getelementptr inbounds %struct.Reg, %struct.Reg* %4, i32 0, i32 0
  %PC = bitcast %union.anon* %5 to i64*
  %6 = getelementptr inbounds %struct.State, %struct.State* %0, i32 0, i32 6
  %7 = getelementptr inbounds %struct.GPR, %struct.GPR* %6, i32 0, i32 1
  %8 = getelementptr inbounds %struct.Reg, %struct.Reg* %7, i32 0, i32 0
  %RAX = bitcast %union.anon* %8 to i64*
  %9 = getelementptr inbounds %struct.State, %struct.State* %0, i32 0, i32 6
  %10 = getelementptr inbounds %struct.GPR, %struct.GPR* %9, i32 0, i32 5
  %11 = getelementptr inbounds %struct.Reg, %struct.Reg* %10, i32 0, i32 0
  %RCX = bitcast %union.anon* %11 to i64*
  %12 = getelementptr inbounds %struct.State, %struct.State* %0, i32 0, i32 1
  %13 = getelementptr inbounds [32 x %union.VectorReg], [32 x %union.VectorReg]* %12, i64 0, i64 0
  %YMM0 = bitcast %union.VectorReg* %13 to %"class.std::bitset"*
  %14 = bitcast %"class.std::bitset"* %YMM0 to i8*
  %15 = load i64, i64* %RAX
  %16 = load i64, i64* %RCX
  %17 = mul i64 %16, 8
  %18 = add i64 %17, %15
  %19 = load i64, i64* %PC
  %20 = add i64 %19, 5
  store i64 %20, i64* %PC
  %21 = call %struct.Memory* @_ZN12_GLOBAL__N_1L9MOVSS_MEMI3VnWI8vec128_tE3MVnI7vec32_tEEEP6MemoryS8_R5StateT_T0_(%struct.Memory* %2, %struct.State* %0, i8* %14, i64 %18)
  ret %struct.Memory* %21
}




define %struct.Memory* @routine_movl_MINUS0x38__rbp____edx(%struct.State*  dereferenceable(3376), i64, %struct.Memory* ) #19 {
block_400488:
  %3 = getelementptr inbounds %struct.State, %struct.State* %0, i32 0, i32 6
  %4 = getelementptr inbounds %struct.GPR, %struct.GPR* %3, i32 0, i32 33
  %5 = getelementptr inbounds %struct.Reg, %struct.Reg* %4, i32 0, i32 0
  %PC = bitcast %union.anon* %5 to i64*
  %6 = getelementptr inbounds %struct.State, %struct.State* %0, i32 0, i32 6
  %7 = getelementptr inbounds %struct.GPR, %struct.GPR* %6, i32 0, i32 7
  %8 = getelementptr inbounds %struct.Reg, %struct.Reg* %7, i32 0, i32 0
  %RDX = bitcast %union.anon* %8 to i64*
  %9 = getelementptr inbounds %struct.State, %struct.State* %0, i32 0, i32 6
  %10 = getelementptr inbounds %struct.GPR, %struct.GPR* %9, i32 0, i32 15
  %11 = getelementptr inbounds %struct.Reg, %struct.Reg* %10, i32 0, i32 0
  %RBP = bitcast %union.anon* %11 to i64*
  %12 = load i64, i64* %RBP
  %13 = sub i64 %12, 56
  %14 = load i64, i64* %PC
  %15 = add i64 %14, 3
  store i64 %15, i64* %PC
  %16 = call %struct.Memory* @_ZN12_GLOBAL__N_1L3MOVI3RnWImE2MnIjEEEP6MemoryS6_R5StateT_T0_(%struct.Memory* %2, %struct.State* %0, i64* %RDX, i64 %13)
  ret %struct.Memory* %16
}

define internal %struct.Memory* @_ZN12_GLOBAL__N_1L3ADDI3RnWImE2RnIjE2MnIjEEEP6MemoryS8_R5StateT_T0_T1_(%struct.Memory*, %struct.State* nocapture dereferenceable(3376), i64* nocapture, i64, i64) #0 {
  %6 = trunc i64 %3 to i32
  %7 = inttoptr i64 %4 to i32*
  %8 = load i32, i32* %7
  %9 = add i32 %8, %6
  %10 = zext i32 %9 to i64
  store i64 %10, i64* %2, align 8
  %11 = icmp ult i32 %9, %6
  %12 = icmp ult i32 %9, %8
  %13 = or i1 %11, %12
  %14 = zext i1 %13 to i8
  %15 = getelementptr inbounds %struct.State, %struct.State* %1, i64 0, i32 2, i32 1
  store i8 %14, i8* %15, align 1
  %16 = and i32 %9, 255
  %17 = tail call i32 @llvm.ctpop.i32(i32 %16) #22
  %18 = trunc i32 %17 to i8
  %19 = and i8 %18, 1
  %20 = xor i8 %19, 1
  %21 = getelementptr inbounds %struct.State, %struct.State* %1, i64 0, i32 2, i32 3
  store i8 %20, i8* %21, align 1
  %22 = xor i32 %8, %6
  %23 = xor i32 %22, %9
  %24 = lshr i32 %23, 4
  %25 = trunc i32 %24 to i8
  %26 = and i8 %25, 1
  %27 = getelementptr inbounds %struct.State, %struct.State* %1, i64 0, i32 2, i32 5
  store i8 %26, i8* %27, align 1
  %28 = icmp eq i32 %9, 0
  %29 = zext i1 %28 to i8
  %30 = getelementptr inbounds %struct.State, %struct.State* %1, i64 0, i32 2, i32 7
  store i8 %29, i8* %30, align 1
  %31 = lshr i32 %9, 31
  %32 = trunc i32 %31 to i8
  %33 = getelementptr inbounds %struct.State, %struct.State* %1, i64 0, i32 2, i32 9
  store i8 %32, i8* %33, align 1
  %34 = lshr i32 %6, 31
  %35 = lshr i32 %8, 31
  %36 = xor i32 %31, %34
  %37 = xor i32 %31, %35
  %38 = add   i32 %36, %37
  %39 = icmp eq i32 %38, 2
  %40 = zext i1 %39 to i8
  %41 = getelementptr inbounds %struct.State, %struct.State* %1, i64 0, i32 2, i32 13
  store i8 %40, i8* %41, align 1
  ret %struct.Memory* %0
}

define %struct.Memory* @routine_addl_MINUS0x28__rbp____edx(%struct.State*  dereferenceable(3376), i64, %struct.Memory* ) #19 {
block_400488:
  %3 = getelementptr inbounds %struct.State, %struct.State* %0, i32 0, i32 6
  %4 = getelementptr inbounds %struct.GPR, %struct.GPR* %3, i32 0, i32 33
  %5 = getelementptr inbounds %struct.Reg, %struct.Reg* %4, i32 0, i32 0
  %PC = bitcast %union.anon* %5 to i64*
  %6 = getelementptr inbounds %struct.State, %struct.State* %0, i32 0, i32 6
  %7 = getelementptr inbounds %struct.GPR, %struct.GPR* %6, i32 0, i32 7
  %8 = getelementptr inbounds %struct.Reg, %struct.Reg* %7, i32 0, i32 0
  %RDX = bitcast %union.anon* %8 to i64*
  %9 = getelementptr inbounds %struct.State, %struct.State* %0, i32 0, i32 6
  %10 = getelementptr inbounds %struct.GPR, %struct.GPR* %9, i32 0, i32 15
  %11 = getelementptr inbounds %struct.Reg, %struct.Reg* %10, i32 0, i32 0
  %RBP = bitcast %union.anon* %11 to i64*
  %12 = load i64, i64* %RDX
  %13 = load i64, i64* %RBP
  %14 = sub i64 %13, 40
  %15 = load i64, i64* %PC
  %16 = add i64 %15, 3
  store i64 %16, i64* %PC
  %17 = call %struct.Memory* @_ZN12_GLOBAL__N_1L3ADDI3RnWImE2RnIjE2MnIjEEEP6MemoryS8_R5StateT_T0_T1_(%struct.Memory* %2, %struct.State* %0, i64* %RDX, i64 %12, i64 %14)
  ret %struct.Memory* %17
}

define internal %struct.Memory* @_ZN12_GLOBAL__N_1L5MOVSXI3RnWImE2RnIjElEEP6MemoryS6_R5StateT_T0_(%struct.Memory* readnone returned, %struct.State* nocapture readnone dereferenceable(3376), i64* nocapture, i64) #2 {
  %5 = shl i64 %3, 32
  %6 = ashr exact i64 %5, 32
  store i64 %6, i64* %2, align 8
  ret %struct.Memory* %0
}

define %struct.Memory* @routine_movslq__edx___rcx(%struct.State*  dereferenceable(3376), i64, %struct.Memory* ) #19 {
block_400488:
  %3 = getelementptr inbounds %struct.State, %struct.State* %0, i32 0, i32 6
  %4 = getelementptr inbounds %struct.GPR, %struct.GPR* %3, i32 0, i32 33
  %5 = getelementptr inbounds %struct.Reg, %struct.Reg* %4, i32 0, i32 0
  %PC = bitcast %union.anon* %5 to i64*
  %6 = getelementptr inbounds %struct.State, %struct.State* %0, i32 0, i32 6
  %7 = getelementptr inbounds %struct.GPR, %struct.GPR* %6, i32 0, i32 7
  %8 = getelementptr inbounds %struct.Reg, %struct.Reg* %7, i32 0, i32 0
  %EDX = bitcast %union.anon* %8 to i32*
  %9 = getelementptr inbounds %struct.State, %struct.State* %0, i32 0, i32 6
  %10 = getelementptr inbounds %struct.GPR, %struct.GPR* %9, i32 0, i32 5
  %11 = getelementptr inbounds %struct.Reg, %struct.Reg* %10, i32 0, i32 0
  %RCX = bitcast %union.anon* %11 to i64*
  %12 = load i32, i32* %EDX
  %13 = zext i32 %12 to i64
  %14 = load i64, i64* %PC
  %15 = add i64 %14, 3
  store i64 %15, i64* %PC
  %16 = call %struct.Memory* @_ZN12_GLOBAL__N_1L5MOVSXI3RnWImE2RnIjElEEP6MemoryS6_R5StateT_T0_(%struct.Memory* %2, %struct.State* %0, i64* %RCX, i64 %13)
  ret %struct.Memory* %16
}

define internal %struct.Memory* @_ZN12_GLOBAL__N_1L5ADDSSI3VnWI8vec128_tE2VnIS2_E3MVnI7vec32_tEEEP6MemorySA_R5StateT_T0_T1_(%struct.Memory* returned, %struct.State* nocapture readnone dereferenceable(3376), i8* nocapture, i8* nocapture readonly, i64) #0 {
  %6 = bitcast i8* %3 to <2 x float>*
  %7 = load <2 x float>, <2 x float>* %6, align 1
  %8 = getelementptr inbounds i8, i8* %3, i64 8
  %9 = bitcast i8* %8 to <2 x i32>*
  %10 = load <2 x i32>, <2 x i32>* %9, align 1
  %11 = inttoptr i64 %4 to float*
  %12 = load float, float* %11
  %13 = extractelement <2 x float> %7, i32 0
  %14 = fadd float %13, %12
  %15 = bitcast i8* %2 to float*
  store float %14, float* %15, align 1
  %16 = bitcast <2 x float> %7 to <2 x i32>
  %17 = extractelement <2 x i32> %16, i32 1
  %18 = getelementptr inbounds i8, i8* %2, i64 4
  %19 = bitcast i8* %18 to i32*
  store i32 %17, i32* %19, align 1
  %20 = extractelement <2 x i32> %10, i32 0
  %21 = getelementptr inbounds i8, i8* %2, i64 8
  %22 = bitcast i8* %21 to i32*
  store i32 %20, i32* %22, align 1
  %23 = extractelement <2 x i32> %10, i32 1
  %24 = getelementptr inbounds i8, i8* %2, i64 12
  %25 = bitcast i8* %24 to i32*
  store i32 %23, i32* %25, align 1
  ret %struct.Memory* %0
}

define %struct.Memory* @routine_addss___rax__rcx_8____xmm0(%struct.State*  dereferenceable(3376), i64, %struct.Memory* ) #19 {
block_400488:
  %3 = getelementptr inbounds %struct.State, %struct.State* %0, i32 0, i32 6
  %4 = getelementptr inbounds %struct.GPR, %struct.GPR* %3, i32 0, i32 33
  %5 = getelementptr inbounds %struct.Reg, %struct.Reg* %4, i32 0, i32 0
  %PC = bitcast %union.anon* %5 to i64*
  %6 = getelementptr inbounds %struct.State, %struct.State* %0, i32 0, i32 6
  %7 = getelementptr inbounds %struct.GPR, %struct.GPR* %6, i32 0, i32 1
  %8 = getelementptr inbounds %struct.Reg, %struct.Reg* %7, i32 0, i32 0
  %RAX = bitcast %union.anon* %8 to i64*
  %9 = getelementptr inbounds %struct.State, %struct.State* %0, i32 0, i32 6
  %10 = getelementptr inbounds %struct.GPR, %struct.GPR* %9, i32 0, i32 5
  %11 = getelementptr inbounds %struct.Reg, %struct.Reg* %10, i32 0, i32 0
  %RCX = bitcast %union.anon* %11 to i64*
  %12 = getelementptr inbounds %struct.State, %struct.State* %0, i32 0, i32 1
  %13 = getelementptr inbounds [32 x %union.VectorReg], [32 x %union.VectorReg]* %12, i64 0, i64 0
  %YMM0 = bitcast %union.VectorReg* %13 to %"class.std::bitset"*
  %14 = bitcast %"class.std::bitset"* %YMM0 to i8*
  %15 = bitcast %"class.std::bitset"* %YMM0 to i8*
  %16 = load i64, i64* %RAX
  %17 = load i64, i64* %RCX
  %18 = mul i64 %17, 8
  %19 = add i64 %18, %16
  %20 = load i64, i64* %PC
  %21 = add i64 %20, 5
  store i64 %21, i64* %PC
  %22 = call %struct.Memory* @_ZN12_GLOBAL__N_1L5ADDSSI3VnWI8vec128_tE2VnIS2_E3MVnI7vec32_tEEEP6MemorySA_R5StateT_T0_T1_(%struct.Memory* %2, %struct.State* %0, i8* %14, i8* %15, i64 %19)
  ret %struct.Memory* %22
}


define %struct.Memory* @routine_movq_MINUS0x18__rbp____rax(%struct.State*  dereferenceable(3376), i64, %struct.Memory* ) #19 {
block_400488:
  %3 = getelementptr inbounds %struct.State, %struct.State* %0, i32 0, i32 6
  %4 = getelementptr inbounds %struct.GPR, %struct.GPR* %3, i32 0, i32 33
  %5 = getelementptr inbounds %struct.Reg, %struct.Reg* %4, i32 0, i32 0
  %PC = bitcast %union.anon* %5 to i64*
  %6 = getelementptr inbounds %struct.State, %struct.State* %0, i32 0, i32 6
  %7 = getelementptr inbounds %struct.GPR, %struct.GPR* %6, i32 0, i32 1
  %8 = getelementptr inbounds %struct.Reg, %struct.Reg* %7, i32 0, i32 0
  %RAX = bitcast %union.anon* %8 to i64*
  %9 = getelementptr inbounds %struct.State, %struct.State* %0, i32 0, i32 6
  %10 = getelementptr inbounds %struct.GPR, %struct.GPR* %9, i32 0, i32 15
  %11 = getelementptr inbounds %struct.Reg, %struct.Reg* %10, i32 0, i32 0
  %RBP = bitcast %union.anon* %11 to i64*
  %12 = load i64, i64* %RBP
  %13 = sub i64 %12, 24
  %14 = load i64, i64* %PC
  %15 = add i64 %14, 4
  store i64 %15, i64* %PC
  %16 = call %struct.Memory* @_ZN12_GLOBAL__N_1L3MOVI3RnWImE2MnImEEEP6MemoryS6_R5StateT_T0_(%struct.Memory* %2, %struct.State* %0, i64* %RAX, i64 %13)
  ret %struct.Memory* %16
}


define %struct.Memory* @routine_movl_MINUS0x28__rbp____edx(%struct.State*  dereferenceable(3376), i64, %struct.Memory* ) #19 {
block_400488:
  %3 = getelementptr inbounds %struct.State, %struct.State* %0, i32 0, i32 6
  %4 = getelementptr inbounds %struct.GPR, %struct.GPR* %3, i32 0, i32 33
  %5 = getelementptr inbounds %struct.Reg, %struct.Reg* %4, i32 0, i32 0
  %PC = bitcast %union.anon* %5 to i64*
  %6 = getelementptr inbounds %struct.State, %struct.State* %0, i32 0, i32 6
  %7 = getelementptr inbounds %struct.GPR, %struct.GPR* %6, i32 0, i32 7
  %8 = getelementptr inbounds %struct.Reg, %struct.Reg* %7, i32 0, i32 0
  %RDX = bitcast %union.anon* %8 to i64*
  %9 = getelementptr inbounds %struct.State, %struct.State* %0, i32 0, i32 6
  %10 = getelementptr inbounds %struct.GPR, %struct.GPR* %9, i32 0, i32 15
  %11 = getelementptr inbounds %struct.Reg, %struct.Reg* %10, i32 0, i32 0
  %RBP = bitcast %union.anon* %11 to i64*
  %12 = load i64, i64* %RBP
  %13 = sub i64 %12, 40
  %14 = load i64, i64* %PC
  %15 = add i64 %14, 3
  store i64 %15, i64* %PC
  %16 = call %struct.Memory* @_ZN12_GLOBAL__N_1L3MOVI3RnWImE2MnIjEEEP6MemoryS6_R5StateT_T0_(%struct.Memory* %2, %struct.State* %0, i64* %RDX, i64 %13)
  ret %struct.Memory* %16
}


define %struct.Memory* @routine_addl_MINUS0x30__rbp____edx(%struct.State*  dereferenceable(3376), i64, %struct.Memory* ) #19 {
block_400488:
  %3 = getelementptr inbounds %struct.State, %struct.State* %0, i32 0, i32 6
  %4 = getelementptr inbounds %struct.GPR, %struct.GPR* %3, i32 0, i32 33
  %5 = getelementptr inbounds %struct.Reg, %struct.Reg* %4, i32 0, i32 0
  %PC = bitcast %union.anon* %5 to i64*
  %6 = getelementptr inbounds %struct.State, %struct.State* %0, i32 0, i32 6
  %7 = getelementptr inbounds %struct.GPR, %struct.GPR* %6, i32 0, i32 7
  %8 = getelementptr inbounds %struct.Reg, %struct.Reg* %7, i32 0, i32 0
  %RDX = bitcast %union.anon* %8 to i64*
  %9 = getelementptr inbounds %struct.State, %struct.State* %0, i32 0, i32 6
  %10 = getelementptr inbounds %struct.GPR, %struct.GPR* %9, i32 0, i32 15
  %11 = getelementptr inbounds %struct.Reg, %struct.Reg* %10, i32 0, i32 0
  %RBP = bitcast %union.anon* %11 to i64*
  %12 = load i64, i64* %RDX
  %13 = load i64, i64* %RBP
  %14 = sub i64 %13, 48
  %15 = load i64, i64* %PC
  %16 = add i64 %15, 3
  store i64 %16, i64* %PC
  %17 = call %struct.Memory* @_ZN12_GLOBAL__N_1L3ADDI3RnWImE2RnIjE2MnIjEEEP6MemoryS8_R5StateT_T0_T1_(%struct.Memory* %2, %struct.State* %0, i64* %RDX, i64 %12, i64 %14)
  ret %struct.Memory* %17
}




define %struct.Memory* @routine_movss__xmm0____rax__rcx_8_(%struct.State*  dereferenceable(3376), i64, %struct.Memory* ) #19 {
block_400488:
  %3 = getelementptr inbounds %struct.State, %struct.State* %0, i32 0, i32 6
  %4 = getelementptr inbounds %struct.GPR, %struct.GPR* %3, i32 0, i32 33
  %5 = getelementptr inbounds %struct.Reg, %struct.Reg* %4, i32 0, i32 0
  %PC = bitcast %union.anon* %5 to i64*
  %6 = getelementptr inbounds %struct.State, %struct.State* %0, i32 0, i32 6
  %7 = getelementptr inbounds %struct.GPR, %struct.GPR* %6, i32 0, i32 1
  %8 = getelementptr inbounds %struct.Reg, %struct.Reg* %7, i32 0, i32 0
  %RAX = bitcast %union.anon* %8 to i64*
  %9 = getelementptr inbounds %struct.State, %struct.State* %0, i32 0, i32 6
  %10 = getelementptr inbounds %struct.GPR, %struct.GPR* %9, i32 0, i32 5
  %11 = getelementptr inbounds %struct.Reg, %struct.Reg* %10, i32 0, i32 0
  %RCX = bitcast %union.anon* %11 to i64*
  %12 = getelementptr inbounds %struct.State, %struct.State* %0, i32 0, i32 1
  %13 = getelementptr inbounds [32 x %union.VectorReg], [32 x %union.VectorReg]* %12, i64 0, i64 0
  %XMM0 = bitcast %union.VectorReg* %13 to %union.vec128_t*
  %14 = load i64, i64* %RAX
  %15 = load i64, i64* %RCX
  %16 = mul i64 %15, 8
  %17 = add i64 %16, %14
  %18 = bitcast %union.vec128_t* %XMM0 to i8*
  %19 = load i64, i64* %PC
  %20 = add i64 %19, 5
  store i64 %20, i64* %PC
  %21 = call %struct.Memory* @_ZN12_GLOBAL__N_1L9MOVSS_MEMI4MVnWI7vec32_tE2VnI8vec128_tEEEP6MemoryS8_R5StateT_T0_(%struct.Memory* %2, %struct.State* %0, i64 %17, i8* %18)
  ret %struct.Memory* %21
}






define %struct.Memory* @routine_movss_0x4__rax__rcx_8____xmm0(%struct.State*  dereferenceable(3376), i64, %struct.Memory* ) #19 {
block_400488:
  %3 = getelementptr inbounds %struct.State, %struct.State* %0, i32 0, i32 6
  %4 = getelementptr inbounds %struct.GPR, %struct.GPR* %3, i32 0, i32 33
  %5 = getelementptr inbounds %struct.Reg, %struct.Reg* %4, i32 0, i32 0
  %PC = bitcast %union.anon* %5 to i64*
  %6 = getelementptr inbounds %struct.State, %struct.State* %0, i32 0, i32 6
  %7 = getelementptr inbounds %struct.GPR, %struct.GPR* %6, i32 0, i32 1
  %8 = getelementptr inbounds %struct.Reg, %struct.Reg* %7, i32 0, i32 0
  %RAX = bitcast %union.anon* %8 to i64*
  %9 = getelementptr inbounds %struct.State, %struct.State* %0, i32 0, i32 6
  %10 = getelementptr inbounds %struct.GPR, %struct.GPR* %9, i32 0, i32 5
  %11 = getelementptr inbounds %struct.Reg, %struct.Reg* %10, i32 0, i32 0
  %RCX = bitcast %union.anon* %11 to i64*
  %12 = getelementptr inbounds %struct.State, %struct.State* %0, i32 0, i32 1
  %13 = getelementptr inbounds [32 x %union.VectorReg], [32 x %union.VectorReg]* %12, i64 0, i64 0
  %YMM0 = bitcast %union.VectorReg* %13 to %"class.std::bitset"*
  %14 = bitcast %"class.std::bitset"* %YMM0 to i8*
  %15 = load i64, i64* %RAX
  %16 = load i64, i64* %RCX
  %17 = mul i64 %16, 8
  %18 = add i64 %15, 4
  %19 = add i64 %18, %17
  %20 = load i64, i64* %PC
  %21 = add i64 %20, 6
  store i64 %21, i64* %PC
  %22 = call %struct.Memory* @_ZN12_GLOBAL__N_1L9MOVSS_MEMI3VnWI8vec128_tE3MVnI7vec32_tEEEP6MemoryS8_R5StateT_T0_(%struct.Memory* %2, %struct.State* %0, i8* %14, i64 %19)
  ret %struct.Memory* %22
}










define %struct.Memory* @routine_addss_0x4__rax__rcx_8____xmm0(%struct.State*  dereferenceable(3376), i64, %struct.Memory* ) #19 {
block_400488:
  %3 = getelementptr inbounds %struct.State, %struct.State* %0, i32 0, i32 6
  %4 = getelementptr inbounds %struct.GPR, %struct.GPR* %3, i32 0, i32 33
  %5 = getelementptr inbounds %struct.Reg, %struct.Reg* %4, i32 0, i32 0
  %PC = bitcast %union.anon* %5 to i64*
  %6 = getelementptr inbounds %struct.State, %struct.State* %0, i32 0, i32 6
  %7 = getelementptr inbounds %struct.GPR, %struct.GPR* %6, i32 0, i32 1
  %8 = getelementptr inbounds %struct.Reg, %struct.Reg* %7, i32 0, i32 0
  %RAX = bitcast %union.anon* %8 to i64*
  %9 = getelementptr inbounds %struct.State, %struct.State* %0, i32 0, i32 6
  %10 = getelementptr inbounds %struct.GPR, %struct.GPR* %9, i32 0, i32 5
  %11 = getelementptr inbounds %struct.Reg, %struct.Reg* %10, i32 0, i32 0
  %RCX = bitcast %union.anon* %11 to i64*
  %12 = getelementptr inbounds %struct.State, %struct.State* %0, i32 0, i32 1
  %13 = getelementptr inbounds [32 x %union.VectorReg], [32 x %union.VectorReg]* %12, i64 0, i64 0
  %YMM0 = bitcast %union.VectorReg* %13 to %"class.std::bitset"*
  %14 = bitcast %"class.std::bitset"* %YMM0 to i8*
  %15 = bitcast %"class.std::bitset"* %YMM0 to i8*
  %16 = load i64, i64* %RAX
  %17 = load i64, i64* %RCX
  %18 = mul i64 %17, 8
  %19 = add i64 %16, 4
  %20 = add i64 %19, %18
  %21 = load i64, i64* %PC
  %22 = add i64 %21, 6
  store i64 %22, i64* %PC
  %23 = call %struct.Memory* @_ZN12_GLOBAL__N_1L5ADDSSI3VnWI8vec128_tE2VnIS2_E3MVnI7vec32_tEEEP6MemorySA_R5StateT_T0_T1_(%struct.Memory* %2, %struct.State* %0, i8* %14, i8* %15, i64 %20)
  ret %struct.Memory* %23
}










define %struct.Memory* @routine_movss__xmm0__0x4__rax__rcx_8_(%struct.State*  dereferenceable(3376), i64, %struct.Memory* ) #19 {
block_400488:
  %3 = getelementptr inbounds %struct.State, %struct.State* %0, i32 0, i32 6
  %4 = getelementptr inbounds %struct.GPR, %struct.GPR* %3, i32 0, i32 33
  %5 = getelementptr inbounds %struct.Reg, %struct.Reg* %4, i32 0, i32 0
  %PC = bitcast %union.anon* %5 to i64*
  %6 = getelementptr inbounds %struct.State, %struct.State* %0, i32 0, i32 6
  %7 = getelementptr inbounds %struct.GPR, %struct.GPR* %6, i32 0, i32 1
  %8 = getelementptr inbounds %struct.Reg, %struct.Reg* %7, i32 0, i32 0
  %RAX = bitcast %union.anon* %8 to i64*
  %9 = getelementptr inbounds %struct.State, %struct.State* %0, i32 0, i32 6
  %10 = getelementptr inbounds %struct.GPR, %struct.GPR* %9, i32 0, i32 5
  %11 = getelementptr inbounds %struct.Reg, %struct.Reg* %10, i32 0, i32 0
  %RCX = bitcast %union.anon* %11 to i64*
  %12 = getelementptr inbounds %struct.State, %struct.State* %0, i32 0, i32 1
  %13 = getelementptr inbounds [32 x %union.VectorReg], [32 x %union.VectorReg]* %12, i64 0, i64 0
  %XMM0 = bitcast %union.VectorReg* %13 to %union.vec128_t*
  %14 = load i64, i64* %RAX
  %15 = load i64, i64* %RCX
  %16 = mul i64 %15, 8
  %17 = add i64 %14, 4
  %18 = add i64 %17, %16
  %19 = bitcast %union.vec128_t* %XMM0 to i8*
  %20 = load i64, i64* %PC
  %21 = add i64 %20, 6
  store i64 %21, i64* %PC
  %22 = call %struct.Memory* @_ZN12_GLOBAL__N_1L9MOVSS_MEMI4MVnWI7vec32_tE2VnI8vec128_tEEEP6MemoryS8_R5StateT_T0_(%struct.Memory* %2, %struct.State* %0, i64 %18, i8* %19)
  ret %struct.Memory* %22
}


define %struct.Memory* @routine_movq_MINUS0x20__rbp____rax(%struct.State*  dereferenceable(3376), i64, %struct.Memory* ) #19 {
block_400488:
  %3 = getelementptr inbounds %struct.State, %struct.State* %0, i32 0, i32 6
  %4 = getelementptr inbounds %struct.GPR, %struct.GPR* %3, i32 0, i32 33
  %5 = getelementptr inbounds %struct.Reg, %struct.Reg* %4, i32 0, i32 0
  %PC = bitcast %union.anon* %5 to i64*
  %6 = getelementptr inbounds %struct.State, %struct.State* %0, i32 0, i32 6
  %7 = getelementptr inbounds %struct.GPR, %struct.GPR* %6, i32 0, i32 1
  %8 = getelementptr inbounds %struct.Reg, %struct.Reg* %7, i32 0, i32 0
  %RAX = bitcast %union.anon* %8 to i64*
  %9 = getelementptr inbounds %struct.State, %struct.State* %0, i32 0, i32 6
  %10 = getelementptr inbounds %struct.GPR, %struct.GPR* %9, i32 0, i32 15
  %11 = getelementptr inbounds %struct.Reg, %struct.Reg* %10, i32 0, i32 0
  %RBP = bitcast %union.anon* %11 to i64*
  %12 = load i64, i64* %RBP
  %13 = sub i64 %12, 32
  %14 = load i64, i64* %PC
  %15 = add i64 %14, 4
  store i64 %15, i64* %PC
  %16 = call %struct.Memory* @_ZN12_GLOBAL__N_1L3MOVI3RnWImE2MnImEEEP6MemoryS6_R5StateT_T0_(%struct.Memory* %2, %struct.State* %0, i64* %RAX, i64 %13)
  ret %struct.Memory* %16
}


define %struct.Memory* @routine_movl_MINUS0x30__rbp____edx(%struct.State*  dereferenceable(3376), i64, %struct.Memory* ) #19 {
block_400488:
  %3 = getelementptr inbounds %struct.State, %struct.State* %0, i32 0, i32 6
  %4 = getelementptr inbounds %struct.GPR, %struct.GPR* %3, i32 0, i32 33
  %5 = getelementptr inbounds %struct.Reg, %struct.Reg* %4, i32 0, i32 0
  %PC = bitcast %union.anon* %5 to i64*
  %6 = getelementptr inbounds %struct.State, %struct.State* %0, i32 0, i32 6
  %7 = getelementptr inbounds %struct.GPR, %struct.GPR* %6, i32 0, i32 7
  %8 = getelementptr inbounds %struct.Reg, %struct.Reg* %7, i32 0, i32 0
  %RDX = bitcast %union.anon* %8 to i64*
  %9 = getelementptr inbounds %struct.State, %struct.State* %0, i32 0, i32 6
  %10 = getelementptr inbounds %struct.GPR, %struct.GPR* %9, i32 0, i32 15
  %11 = getelementptr inbounds %struct.Reg, %struct.Reg* %10, i32 0, i32 0
  %RBP = bitcast %union.anon* %11 to i64*
  %12 = load i64, i64* %RBP
  %13 = sub i64 %12, 48
  %14 = load i64, i64* %PC
  %15 = add i64 %14, 3
  store i64 %15, i64* %PC
  %16 = call %struct.Memory* @_ZN12_GLOBAL__N_1L3MOVI3RnWImE2MnIjEEEP6MemoryS6_R5StateT_T0_(%struct.Memory* %2, %struct.State* %0, i64* %RDX, i64 %13)
  ret %struct.Memory* %16
}

define internal %struct.Memory* @_ZN12_GLOBAL__N_1L3ADDI3RnWImE2RnIjE2InIjEEEP6MemoryS8_R5StateT_T0_T1_(%struct.Memory* readnone returned, %struct.State* nocapture dereferenceable(3376), i64* nocapture, i64, i64) #0 {
  %6 = trunc i64 %3 to i32
  %7 = trunc i64 %4 to i32
  %8 = add i32 %7, %6
  %9 = zext i32 %8 to i64
  store i64 %9, i64* %2, align 8
  %10 = icmp ult i32 %8, %6
  %11 = icmp ult i32 %8, %7
  %12 = or i1 %10, %11
  %13 = zext i1 %12 to i8
  %14 = getelementptr inbounds %struct.State, %struct.State* %1, i64 0, i32 2, i32 1
  store i8 %13, i8* %14, align 1
  %15 = and i32 %8, 255
  %16 = tail call i32 @llvm.ctpop.i32(i32 %15) #22
  %17 = trunc i32 %16 to i8
  %18 = and i8 %17, 1
  %19 = xor i8 %18, 1
  %20 = getelementptr inbounds %struct.State, %struct.State* %1, i64 0, i32 2, i32 3
  store i8 %19, i8* %20, align 1
  %21 = xor i64 %4, %3
  %22 = trunc i64 %21 to i32
  %23 = xor i32 %22, %8
  %24 = lshr i32 %23, 4
  %25 = trunc i32 %24 to i8
  %26 = and i8 %25, 1
  %27 = getelementptr inbounds %struct.State, %struct.State* %1, i64 0, i32 2, i32 5
  store i8 %26, i8* %27, align 1
  %28 = icmp eq i32 %8, 0
  %29 = zext i1 %28 to i8
  %30 = getelementptr inbounds %struct.State, %struct.State* %1, i64 0, i32 2, i32 7
  store i8 %29, i8* %30, align 1
  %31 = lshr i32 %8, 31
  %32 = trunc i32 %31 to i8
  %33 = getelementptr inbounds %struct.State, %struct.State* %1, i64 0, i32 2, i32 9
  store i8 %32, i8* %33, align 1
  %34 = lshr i32 %6, 31
  %35 = lshr i32 %7, 31
  %36 = xor i32 %31, %34
  %37 = xor i32 %31, %35
  %38 = add   i32 %36, %37
  %39 = icmp eq i32 %38, 2
  %40 = zext i1 %39 to i8
  %41 = getelementptr inbounds %struct.State, %struct.State* %1, i64 0, i32 2, i32 13
  store i8 %40, i8* %41, align 1
  ret %struct.Memory* %0
}

define %struct.Memory* @routine_addl__0x1___edx(%struct.State*  dereferenceable(3376), i64, %struct.Memory* ) #19 {
block_400488:
  %3 = getelementptr inbounds %struct.State, %struct.State* %0, i32 0, i32 6
  %4 = getelementptr inbounds %struct.GPR, %struct.GPR* %3, i32 0, i32 33
  %5 = getelementptr inbounds %struct.Reg, %struct.Reg* %4, i32 0, i32 0
  %PC = bitcast %union.anon* %5 to i64*
  %6 = getelementptr inbounds %struct.State, %struct.State* %0, i32 0, i32 6
  %7 = getelementptr inbounds %struct.GPR, %struct.GPR* %6, i32 0, i32 7
  %8 = getelementptr inbounds %struct.Reg, %struct.Reg* %7, i32 0, i32 0
  %RDX = bitcast %union.anon* %8 to i64*
  %9 = load i64, i64* %RDX
  %10 = load i64, i64* %PC
  %11 = add i64 %10, 3
  store i64 %11, i64* %PC
  %12 = call %struct.Memory* @_ZN12_GLOBAL__N_1L3ADDI3RnWImE2RnIjE2InIjEEEP6MemoryS8_R5StateT_T0_T1_(%struct.Memory* %2, %struct.State* %0, i64* %RDX, i64 %9, i64 1)
  ret %struct.Memory* %12
}










define %struct.Memory* @routine_movss___rax__rcx_8____xmm1(%struct.State*  dereferenceable(3376), i64, %struct.Memory* ) #19 {
block_400488:
  %3 = getelementptr inbounds %struct.State, %struct.State* %0, i32 0, i32 6
  %4 = getelementptr inbounds %struct.GPR, %struct.GPR* %3, i32 0, i32 33
  %5 = getelementptr inbounds %struct.Reg, %struct.Reg* %4, i32 0, i32 0
  %PC = bitcast %union.anon* %5 to i64*
  %6 = getelementptr inbounds %struct.State, %struct.State* %0, i32 0, i32 6
  %7 = getelementptr inbounds %struct.GPR, %struct.GPR* %6, i32 0, i32 1
  %8 = getelementptr inbounds %struct.Reg, %struct.Reg* %7, i32 0, i32 0
  %RAX = bitcast %union.anon* %8 to i64*
  %9 = getelementptr inbounds %struct.State, %struct.State* %0, i32 0, i32 6
  %10 = getelementptr inbounds %struct.GPR, %struct.GPR* %9, i32 0, i32 5
  %11 = getelementptr inbounds %struct.Reg, %struct.Reg* %10, i32 0, i32 0
  %RCX = bitcast %union.anon* %11 to i64*
  %12 = getelementptr inbounds %struct.State, %struct.State* %0, i32 0, i32 1
  %13 = getelementptr inbounds [32 x %union.VectorReg], [32 x %union.VectorReg]* %12, i64 0, i64 1
  %YMM1 = bitcast %union.VectorReg* %13 to %"class.std::bitset"*
  %14 = bitcast %"class.std::bitset"* %YMM1 to i8*
  %15 = load i64, i64* %RAX
  %16 = load i64, i64* %RCX
  %17 = mul i64 %16, 8
  %18 = add i64 %17, %15
  %19 = load i64, i64* %PC
  %20 = add i64 %19, 5
  store i64 %20, i64* %PC
  %21 = call %struct.Memory* @_ZN12_GLOBAL__N_1L9MOVSS_MEMI3VnWI8vec128_tE3MVnI7vec32_tEEEP6MemoryS8_R5StateT_T0_(%struct.Memory* %2, %struct.State* %0, i8* %14, i64 %18)
  ret %struct.Memory* %21
}






define %struct.Memory* @routine_addl_MINUS0x38__rbp____edx(%struct.State*  dereferenceable(3376), i64, %struct.Memory* ) #19 {
block_400488:
  %3 = getelementptr inbounds %struct.State, %struct.State* %0, i32 0, i32 6
  %4 = getelementptr inbounds %struct.GPR, %struct.GPR* %3, i32 0, i32 33
  %5 = getelementptr inbounds %struct.Reg, %struct.Reg* %4, i32 0, i32 0
  %PC = bitcast %union.anon* %5 to i64*
  %6 = getelementptr inbounds %struct.State, %struct.State* %0, i32 0, i32 6
  %7 = getelementptr inbounds %struct.GPR, %struct.GPR* %6, i32 0, i32 7
  %8 = getelementptr inbounds %struct.Reg, %struct.Reg* %7, i32 0, i32 0
  %RDX = bitcast %union.anon* %8 to i64*
  %9 = getelementptr inbounds %struct.State, %struct.State* %0, i32 0, i32 6
  %10 = getelementptr inbounds %struct.GPR, %struct.GPR* %9, i32 0, i32 15
  %11 = getelementptr inbounds %struct.Reg, %struct.Reg* %10, i32 0, i32 0
  %RBP = bitcast %union.anon* %11 to i64*
  %12 = load i64, i64* %RDX
  %13 = load i64, i64* %RBP
  %14 = sub i64 %13, 56
  %15 = load i64, i64* %PC
  %16 = add i64 %15, 3
  store i64 %16, i64* %PC
  %17 = call %struct.Memory* @_ZN12_GLOBAL__N_1L3ADDI3RnWImE2RnIjE2MnIjEEEP6MemoryS8_R5StateT_T0_T1_(%struct.Memory* %2, %struct.State* %0, i64* %RDX, i64 %12, i64 %14)
  ret %struct.Memory* %17
}



define internal %struct.Memory* @_ZN12_GLOBAL__N_1L5SUBSSI3VnWI8vec128_tE2VnIS2_E3MVnI7vec32_tEEEP6MemorySA_R5StateT_T0_T1_(%struct.Memory* returned, %struct.State* nocapture readnone dereferenceable(3376), i8* nocapture, i8* nocapture readonly, i64) #0 {
  %6 = bitcast i8* %3 to <2 x float>*
  %7 = load <2 x float>, <2 x float>* %6, align 1
  %8 = getelementptr inbounds i8, i8* %3, i64 8
  %9 = bitcast i8* %8 to <2 x i32>*
  %10 = load <2 x i32>, <2 x i32>* %9, align 1
  %11 = inttoptr i64 %4 to float*
  %12 = load float, float* %11
  %13 = extractelement <2 x float> %7, i32 0
  %14 = fsub float %13, %12
  %15 = bitcast i8* %2 to float*
  store float %14, float* %15, align 1
  %16 = bitcast <2 x float> %7 to <2 x i32>
  %17 = extractelement <2 x i32> %16, i32 1
  %18 = getelementptr inbounds i8, i8* %2, i64 4
  %19 = bitcast i8* %18 to i32*
  store i32 %17, i32* %19, align 1
  %20 = extractelement <2 x i32> %10, i32 0
  %21 = getelementptr inbounds i8, i8* %2, i64 8
  %22 = bitcast i8* %21 to i32*
  store i32 %20, i32* %22, align 1
  %23 = extractelement <2 x i32> %10, i32 1
  %24 = getelementptr inbounds i8, i8* %2, i64 12
  %25 = bitcast i8* %24 to i32*
  store i32 %23, i32* %25, align 1
  ret %struct.Memory* %0
}

define %struct.Memory* @routine_subss___rax__rcx_8____xmm1(%struct.State*  dereferenceable(3376), i64, %struct.Memory* ) #19 {
block_400488:
  %3 = getelementptr inbounds %struct.State, %struct.State* %0, i32 0, i32 6
  %4 = getelementptr inbounds %struct.GPR, %struct.GPR* %3, i32 0, i32 33
  %5 = getelementptr inbounds %struct.Reg, %struct.Reg* %4, i32 0, i32 0
  %PC = bitcast %union.anon* %5 to i64*
  %6 = getelementptr inbounds %struct.State, %struct.State* %0, i32 0, i32 6
  %7 = getelementptr inbounds %struct.GPR, %struct.GPR* %6, i32 0, i32 1
  %8 = getelementptr inbounds %struct.Reg, %struct.Reg* %7, i32 0, i32 0
  %RAX = bitcast %union.anon* %8 to i64*
  %9 = getelementptr inbounds %struct.State, %struct.State* %0, i32 0, i32 6
  %10 = getelementptr inbounds %struct.GPR, %struct.GPR* %9, i32 0, i32 5
  %11 = getelementptr inbounds %struct.Reg, %struct.Reg* %10, i32 0, i32 0
  %RCX = bitcast %union.anon* %11 to i64*
  %12 = getelementptr inbounds %struct.State, %struct.State* %0, i32 0, i32 1
  %13 = getelementptr inbounds [32 x %union.VectorReg], [32 x %union.VectorReg]* %12, i64 0, i64 1
  %YMM1 = bitcast %union.VectorReg* %13 to %"class.std::bitset"*
  %14 = bitcast %"class.std::bitset"* %YMM1 to i8*
  %15 = bitcast %"class.std::bitset"* %YMM1 to i8*
  %16 = load i64, i64* %RAX
  %17 = load i64, i64* %RCX
  %18 = mul i64 %17, 8
  %19 = add i64 %18, %16
  %20 = load i64, i64* %PC
  %21 = add i64 %20, 5
  store i64 %21, i64* %PC
  %22 = call %struct.Memory* @_ZN12_GLOBAL__N_1L5SUBSSI3VnWI8vec128_tE2VnIS2_E3MVnI7vec32_tEEEP6MemorySA_R5StateT_T0_T1_(%struct.Memory* %2, %struct.State* %0, i8* %14, i8* %15, i64 %19)
  ret %struct.Memory* %22
}

define internal %struct.Memory* @_ZN12_GLOBAL__N_1L5MULSSI3VnWI8vec128_tE2VnIS2_ES5_EEP6MemoryS7_R5StateT_T0_T1_(%struct.Memory* readnone returned, %struct.State* nocapture readnone dereferenceable(3376), i8* nocapture, i8* nocapture readonly, i8* nocapture readonly) #0 {
  %6 = bitcast i8* %3 to <2 x float>*
  %7 = load <2 x float>, <2 x float>* %6, align 1
  %8 = getelementptr inbounds i8, i8* %3, i64 8
  %9 = bitcast i8* %8 to <2 x i32>*
  %10 = load <2 x i32>, <2 x i32>* %9, align 1
  %11 = bitcast i8* %4 to <2 x float>*
  %12 = load <2 x float>, <2 x float>* %11, align 1
  %13 = extractelement <2 x float> %7, i32 0
  %14 = extractelement <2 x float> %12, i32 0
  %15 = fmul float %13, %14
  %16 = bitcast i8* %2 to float*
  store float %15, float* %16, align 1
  %17 = bitcast <2 x float> %7 to <2 x i32>
  %18 = extractelement <2 x i32> %17, i32 1
  %19 = getelementptr inbounds i8, i8* %2, i64 4
  %20 = bitcast i8* %19 to i32*
  store i32 %18, i32* %20, align 1
  %21 = extractelement <2 x i32> %10, i32 0
  %22 = getelementptr inbounds i8, i8* %2, i64 8
  %23 = bitcast i8* %22 to i32*
  store i32 %21, i32* %23, align 1
  %24 = extractelement <2 x i32> %10, i32 1
  %25 = getelementptr inbounds i8, i8* %2, i64 12
  %26 = bitcast i8* %25 to i32*
  store i32 %24, i32* %26, align 1
  ret %struct.Memory* %0
}

define %struct.Memory* @routine_mulss__xmm1___xmm0(%struct.State*  dereferenceable(3376), i64, %struct.Memory* ) #19 {
block_400488:
  %3 = getelementptr inbounds %struct.State, %struct.State* %0, i32 0, i32 6
  %4 = getelementptr inbounds %struct.GPR, %struct.GPR* %3, i32 0, i32 33
  %5 = getelementptr inbounds %struct.Reg, %struct.Reg* %4, i32 0, i32 0
  %PC = bitcast %union.anon* %5 to i64*
  %6 = getelementptr inbounds %struct.State, %struct.State* %0, i32 0, i32 1
  %7 = getelementptr inbounds [32 x %union.VectorReg], [32 x %union.VectorReg]* %6, i64 0, i64 0
  %YMM0 = bitcast %union.VectorReg* %7 to %"class.std::bitset"*
  %8 = getelementptr inbounds %struct.State, %struct.State* %0, i32 0, i32 1
  %9 = getelementptr inbounds [32 x %union.VectorReg], [32 x %union.VectorReg]* %8, i64 0, i64 1
  %XMM1 = bitcast %union.VectorReg* %9 to %union.vec128_t*
  %10 = bitcast %"class.std::bitset"* %YMM0 to i8*
  %11 = bitcast %"class.std::bitset"* %YMM0 to i8*
  %12 = bitcast %union.vec128_t* %XMM1 to i8*
  %13 = load i64, i64* %PC
  %14 = add i64 %13, 4
  store i64 %14, i64* %PC
  %15 = call %struct.Memory* @_ZN12_GLOBAL__N_1L5MULSSI3VnWI8vec128_tE2VnIS2_ES5_EEP6MemoryS7_R5StateT_T0_T1_(%struct.Memory* %2, %struct.State* %0, i8* %10, i8* %11, i8* %12)
  ret %struct.Memory* %15
}










define %struct.Memory* @routine_movss_0x4__rax__rcx_8____xmm1(%struct.State*  dereferenceable(3376), i64, %struct.Memory* ) #19 {
block_400488:
  %3 = getelementptr inbounds %struct.State, %struct.State* %0, i32 0, i32 6
  %4 = getelementptr inbounds %struct.GPR, %struct.GPR* %3, i32 0, i32 33
  %5 = getelementptr inbounds %struct.Reg, %struct.Reg* %4, i32 0, i32 0
  %PC = bitcast %union.anon* %5 to i64*
  %6 = getelementptr inbounds %struct.State, %struct.State* %0, i32 0, i32 6
  %7 = getelementptr inbounds %struct.GPR, %struct.GPR* %6, i32 0, i32 1
  %8 = getelementptr inbounds %struct.Reg, %struct.Reg* %7, i32 0, i32 0
  %RAX = bitcast %union.anon* %8 to i64*
  %9 = getelementptr inbounds %struct.State, %struct.State* %0, i32 0, i32 6
  %10 = getelementptr inbounds %struct.GPR, %struct.GPR* %9, i32 0, i32 5
  %11 = getelementptr inbounds %struct.Reg, %struct.Reg* %10, i32 0, i32 0
  %RCX = bitcast %union.anon* %11 to i64*
  %12 = getelementptr inbounds %struct.State, %struct.State* %0, i32 0, i32 1
  %13 = getelementptr inbounds [32 x %union.VectorReg], [32 x %union.VectorReg]* %12, i64 0, i64 1
  %YMM1 = bitcast %union.VectorReg* %13 to %"class.std::bitset"*
  %14 = bitcast %"class.std::bitset"* %YMM1 to i8*
  %15 = load i64, i64* %RAX
  %16 = load i64, i64* %RCX
  %17 = mul i64 %16, 8
  %18 = add i64 %15, 4
  %19 = add i64 %18, %17
  %20 = load i64, i64* %PC
  %21 = add i64 %20, 6
  store i64 %21, i64* %PC
  %22 = call %struct.Memory* @_ZN12_GLOBAL__N_1L9MOVSS_MEMI3VnWI8vec128_tE3MVnI7vec32_tEEEP6MemoryS8_R5StateT_T0_(%struct.Memory* %2, %struct.State* %0, i8* %14, i64 %19)
  ret %struct.Memory* %22
}






define %struct.Memory* @routine_movss_0x4__rax__rcx_8____xmm2(%struct.State*  dereferenceable(3376), i64, %struct.Memory* ) #19 {
block_400488:
  %3 = getelementptr inbounds %struct.State, %struct.State* %0, i32 0, i32 6
  %4 = getelementptr inbounds %struct.GPR, %struct.GPR* %3, i32 0, i32 33
  %5 = getelementptr inbounds %struct.Reg, %struct.Reg* %4, i32 0, i32 0
  %PC = bitcast %union.anon* %5 to i64*
  %6 = getelementptr inbounds %struct.State, %struct.State* %0, i32 0, i32 6
  %7 = getelementptr inbounds %struct.GPR, %struct.GPR* %6, i32 0, i32 1
  %8 = getelementptr inbounds %struct.Reg, %struct.Reg* %7, i32 0, i32 0
  %RAX = bitcast %union.anon* %8 to i64*
  %9 = getelementptr inbounds %struct.State, %struct.State* %0, i32 0, i32 6
  %10 = getelementptr inbounds %struct.GPR, %struct.GPR* %9, i32 0, i32 5
  %11 = getelementptr inbounds %struct.Reg, %struct.Reg* %10, i32 0, i32 0
  %RCX = bitcast %union.anon* %11 to i64*
  %12 = getelementptr inbounds %struct.State, %struct.State* %0, i32 0, i32 1
  %13 = getelementptr inbounds [32 x %union.VectorReg], [32 x %union.VectorReg]* %12, i64 0, i64 2
  %YMM2 = bitcast %union.VectorReg* %13 to %"class.std::bitset"*
  %14 = bitcast %"class.std::bitset"* %YMM2 to i8*
  %15 = load i64, i64* %RAX
  %16 = load i64, i64* %RCX
  %17 = mul i64 %16, 8
  %18 = add i64 %15, 4
  %19 = add i64 %18, %17
  %20 = load i64, i64* %PC
  %21 = add i64 %20, 6
  store i64 %21, i64* %PC
  %22 = call %struct.Memory* @_ZN12_GLOBAL__N_1L9MOVSS_MEMI3VnWI8vec128_tE3MVnI7vec32_tEEEP6MemoryS8_R5StateT_T0_(%struct.Memory* %2, %struct.State* %0, i8* %14, i64 %19)
  ret %struct.Memory* %22
}










define %struct.Memory* @routine_subss_0x4__rax__rcx_8____xmm2(%struct.State*  dereferenceable(3376), i64, %struct.Memory* ) #19 {
block_400488:
  %3 = getelementptr inbounds %struct.State, %struct.State* %0, i32 0, i32 6
  %4 = getelementptr inbounds %struct.GPR, %struct.GPR* %3, i32 0, i32 33
  %5 = getelementptr inbounds %struct.Reg, %struct.Reg* %4, i32 0, i32 0
  %PC = bitcast %union.anon* %5 to i64*
  %6 = getelementptr inbounds %struct.State, %struct.State* %0, i32 0, i32 6
  %7 = getelementptr inbounds %struct.GPR, %struct.GPR* %6, i32 0, i32 1
  %8 = getelementptr inbounds %struct.Reg, %struct.Reg* %7, i32 0, i32 0
  %RAX = bitcast %union.anon* %8 to i64*
  %9 = getelementptr inbounds %struct.State, %struct.State* %0, i32 0, i32 6
  %10 = getelementptr inbounds %struct.GPR, %struct.GPR* %9, i32 0, i32 5
  %11 = getelementptr inbounds %struct.Reg, %struct.Reg* %10, i32 0, i32 0
  %RCX = bitcast %union.anon* %11 to i64*
  %12 = getelementptr inbounds %struct.State, %struct.State* %0, i32 0, i32 1
  %13 = getelementptr inbounds [32 x %union.VectorReg], [32 x %union.VectorReg]* %12, i64 0, i64 2
  %YMM2 = bitcast %union.VectorReg* %13 to %"class.std::bitset"*
  %14 = bitcast %"class.std::bitset"* %YMM2 to i8*
  %15 = bitcast %"class.std::bitset"* %YMM2 to i8*
  %16 = load i64, i64* %RAX
  %17 = load i64, i64* %RCX
  %18 = mul i64 %17, 8
  %19 = add i64 %16, 4
  %20 = add i64 %19, %18
  %21 = load i64, i64* %PC
  %22 = add i64 %21, 6
  store i64 %22, i64* %PC
  %23 = call %struct.Memory* @_ZN12_GLOBAL__N_1L5SUBSSI3VnWI8vec128_tE2VnIS2_E3MVnI7vec32_tEEEP6MemorySA_R5StateT_T0_T1_(%struct.Memory* %2, %struct.State* %0, i8* %14, i8* %15, i64 %20)
  ret %struct.Memory* %23
}


define %struct.Memory* @routine_mulss__xmm2___xmm1(%struct.State*  dereferenceable(3376), i64, %struct.Memory* ) #19 {
block_400488:
  %3 = getelementptr inbounds %struct.State, %struct.State* %0, i32 0, i32 6
  %4 = getelementptr inbounds %struct.GPR, %struct.GPR* %3, i32 0, i32 33
  %5 = getelementptr inbounds %struct.Reg, %struct.Reg* %4, i32 0, i32 0
  %PC = bitcast %union.anon* %5 to i64*
  %6 = getelementptr inbounds %struct.State, %struct.State* %0, i32 0, i32 1
  %7 = getelementptr inbounds [32 x %union.VectorReg], [32 x %union.VectorReg]* %6, i64 0, i64 1
  %YMM1 = bitcast %union.VectorReg* %7 to %"class.std::bitset"*
  %8 = getelementptr inbounds %struct.State, %struct.State* %0, i32 0, i32 1
  %9 = getelementptr inbounds [32 x %union.VectorReg], [32 x %union.VectorReg]* %8, i64 0, i64 2
  %XMM2 = bitcast %union.VectorReg* %9 to %union.vec128_t*
  %10 = bitcast %"class.std::bitset"* %YMM1 to i8*
  %11 = bitcast %"class.std::bitset"* %YMM1 to i8*
  %12 = bitcast %union.vec128_t* %XMM2 to i8*
  %13 = load i64, i64* %PC
  %14 = add i64 %13, 4
  store i64 %14, i64* %PC
  %15 = call %struct.Memory* @_ZN12_GLOBAL__N_1L5MULSSI3VnWI8vec128_tE2VnIS2_ES5_EEP6MemoryS7_R5StateT_T0_T1_(%struct.Memory* %2, %struct.State* %0, i8* %10, i8* %11, i8* %12)
  ret %struct.Memory* %15
}

define internal %struct.Memory* @_ZN12_GLOBAL__N_1L5SUBSSI3VnWI8vec128_tE2VnIS2_ES5_EEP6MemoryS7_R5StateT_T0_T1_(%struct.Memory* readnone returned, %struct.State* nocapture readnone dereferenceable(3376), i8* nocapture, i8* nocapture readonly, i8* nocapture readonly) #0 {
  %6 = bitcast i8* %3 to <2 x float>*
  %7 = load <2 x float>, <2 x float>* %6, align 1
  %8 = getelementptr inbounds i8, i8* %3, i64 8
  %9 = bitcast i8* %8 to <2 x i32>*
  %10 = load <2 x i32>, <2 x i32>* %9, align 1
  %11 = bitcast i8* %4 to <2 x float>*
  %12 = load <2 x float>, <2 x float>* %11, align 1
  %13 = extractelement <2 x float> %7, i32 0
  %14 = extractelement <2 x float> %12, i32 0
  %15 = fsub float %13, %14
  %16 = bitcast i8* %2 to float*
  store float %15, float* %16, align 1
  %17 = bitcast <2 x float> %7 to <2 x i32>
  %18 = extractelement <2 x i32> %17, i32 1
  %19 = getelementptr inbounds i8, i8* %2, i64 4
  %20 = bitcast i8* %19 to i32*
  store i32 %18, i32* %20, align 1
  %21 = extractelement <2 x i32> %10, i32 0
  %22 = getelementptr inbounds i8, i8* %2, i64 8
  %23 = bitcast i8* %22 to i32*
  store i32 %21, i32* %23, align 1
  %24 = extractelement <2 x i32> %10, i32 1
  %25 = getelementptr inbounds i8, i8* %2, i64 12
  %26 = bitcast i8* %25 to i32*
  store i32 %24, i32* %26, align 1
  ret %struct.Memory* %0
}

define %struct.Memory* @routine_subss__xmm1___xmm0(%struct.State*  dereferenceable(3376), i64, %struct.Memory* ) #19 {
block_400488:
  %3 = getelementptr inbounds %struct.State, %struct.State* %0, i32 0, i32 6
  %4 = getelementptr inbounds %struct.GPR, %struct.GPR* %3, i32 0, i32 33
  %5 = getelementptr inbounds %struct.Reg, %struct.Reg* %4, i32 0, i32 0
  %PC = bitcast %union.anon* %5 to i64*
  %6 = getelementptr inbounds %struct.State, %struct.State* %0, i32 0, i32 1
  %7 = getelementptr inbounds [32 x %union.VectorReg], [32 x %union.VectorReg]* %6, i64 0, i64 0
  %YMM0 = bitcast %union.VectorReg* %7 to %"class.std::bitset"*
  %8 = getelementptr inbounds %struct.State, %struct.State* %0, i32 0, i32 1
  %9 = getelementptr inbounds [32 x %union.VectorReg], [32 x %union.VectorReg]* %8, i64 0, i64 1
  %XMM1 = bitcast %union.VectorReg* %9 to %union.vec128_t*
  %10 = bitcast %"class.std::bitset"* %YMM0 to i8*
  %11 = bitcast %"class.std::bitset"* %YMM0 to i8*
  %12 = bitcast %union.vec128_t* %XMM1 to i8*
  %13 = load i64, i64* %PC
  %14 = add i64 %13, 4
  store i64 %14, i64* %PC
  %15 = call %struct.Memory* @_ZN12_GLOBAL__N_1L5SUBSSI3VnWI8vec128_tE2VnIS2_ES5_EEP6MemoryS7_R5StateT_T0_T1_(%struct.Memory* %2, %struct.State* %0, i8* %10, i8* %11, i8* %12)
  ret %struct.Memory* %15
}






define %struct.Memory* @routine_addl_MINUS0x2c__rbp____edx(%struct.State*  dereferenceable(3376), i64, %struct.Memory* ) #19 {
block_400488:
  %3 = getelementptr inbounds %struct.State, %struct.State* %0, i32 0, i32 6
  %4 = getelementptr inbounds %struct.GPR, %struct.GPR* %3, i32 0, i32 33
  %5 = getelementptr inbounds %struct.Reg, %struct.Reg* %4, i32 0, i32 0
  %PC = bitcast %union.anon* %5 to i64*
  %6 = getelementptr inbounds %struct.State, %struct.State* %0, i32 0, i32 6
  %7 = getelementptr inbounds %struct.GPR, %struct.GPR* %6, i32 0, i32 7
  %8 = getelementptr inbounds %struct.Reg, %struct.Reg* %7, i32 0, i32 0
  %RDX = bitcast %union.anon* %8 to i64*
  %9 = getelementptr inbounds %struct.State, %struct.State* %0, i32 0, i32 6
  %10 = getelementptr inbounds %struct.GPR, %struct.GPR* %9, i32 0, i32 15
  %11 = getelementptr inbounds %struct.Reg, %struct.Reg* %10, i32 0, i32 0
  %RBP = bitcast %union.anon* %11 to i64*
  %12 = load i64, i64* %RDX
  %13 = load i64, i64* %RBP
  %14 = sub i64 %13, 44
  %15 = load i64, i64* %PC
  %16 = add i64 %15, 3
  store i64 %16, i64* %PC
  %17 = call %struct.Memory* @_ZN12_GLOBAL__N_1L3ADDI3RnWImE2RnIjE2MnIjEEEP6MemoryS8_R5StateT_T0_T1_(%struct.Memory* %2, %struct.State* %0, i64* %RDX, i64 %12, i64 %14)
  ret %struct.Memory* %17
}






























define %struct.Memory* @routine_subss_0x4__rax__rcx_8____xmm1(%struct.State*  dereferenceable(3376), i64, %struct.Memory* ) #19 {
block_400488:
  %3 = getelementptr inbounds %struct.State, %struct.State* %0, i32 0, i32 6
  %4 = getelementptr inbounds %struct.GPR, %struct.GPR* %3, i32 0, i32 33
  %5 = getelementptr inbounds %struct.Reg, %struct.Reg* %4, i32 0, i32 0
  %PC = bitcast %union.anon* %5 to i64*
  %6 = getelementptr inbounds %struct.State, %struct.State* %0, i32 0, i32 6
  %7 = getelementptr inbounds %struct.GPR, %struct.GPR* %6, i32 0, i32 1
  %8 = getelementptr inbounds %struct.Reg, %struct.Reg* %7, i32 0, i32 0
  %RAX = bitcast %union.anon* %8 to i64*
  %9 = getelementptr inbounds %struct.State, %struct.State* %0, i32 0, i32 6
  %10 = getelementptr inbounds %struct.GPR, %struct.GPR* %9, i32 0, i32 5
  %11 = getelementptr inbounds %struct.Reg, %struct.Reg* %10, i32 0, i32 0
  %RCX = bitcast %union.anon* %11 to i64*
  %12 = getelementptr inbounds %struct.State, %struct.State* %0, i32 0, i32 1
  %13 = getelementptr inbounds [32 x %union.VectorReg], [32 x %union.VectorReg]* %12, i64 0, i64 1
  %YMM1 = bitcast %union.VectorReg* %13 to %"class.std::bitset"*
  %14 = bitcast %"class.std::bitset"* %YMM1 to i8*
  %15 = bitcast %"class.std::bitset"* %YMM1 to i8*
  %16 = load i64, i64* %RAX
  %17 = load i64, i64* %RCX
  %18 = mul i64 %17, 8
  %19 = add i64 %16, 4
  %20 = add i64 %19, %18
  %21 = load i64, i64* %PC
  %22 = add i64 %21, 6
  store i64 %22, i64* %PC
  %23 = call %struct.Memory* @_ZN12_GLOBAL__N_1L5SUBSSI3VnWI8vec128_tE2VnIS2_E3MVnI7vec32_tEEEP6MemorySA_R5StateT_T0_T1_(%struct.Memory* %2, %struct.State* %0, i8* %14, i8* %15, i64 %20)
  ret %struct.Memory* %23
}


















define %struct.Memory* @routine_movss___rax__rcx_8____xmm2(%struct.State*  dereferenceable(3376), i64, %struct.Memory* ) #19 {
block_400488:
  %3 = getelementptr inbounds %struct.State, %struct.State* %0, i32 0, i32 6
  %4 = getelementptr inbounds %struct.GPR, %struct.GPR* %3, i32 0, i32 33
  %5 = getelementptr inbounds %struct.Reg, %struct.Reg* %4, i32 0, i32 0
  %PC = bitcast %union.anon* %5 to i64*
  %6 = getelementptr inbounds %struct.State, %struct.State* %0, i32 0, i32 6
  %7 = getelementptr inbounds %struct.GPR, %struct.GPR* %6, i32 0, i32 1
  %8 = getelementptr inbounds %struct.Reg, %struct.Reg* %7, i32 0, i32 0
  %RAX = bitcast %union.anon* %8 to i64*
  %9 = getelementptr inbounds %struct.State, %struct.State* %0, i32 0, i32 6
  %10 = getelementptr inbounds %struct.GPR, %struct.GPR* %9, i32 0, i32 5
  %11 = getelementptr inbounds %struct.Reg, %struct.Reg* %10, i32 0, i32 0
  %RCX = bitcast %union.anon* %11 to i64*
  %12 = getelementptr inbounds %struct.State, %struct.State* %0, i32 0, i32 1
  %13 = getelementptr inbounds [32 x %union.VectorReg], [32 x %union.VectorReg]* %12, i64 0, i64 2
  %YMM2 = bitcast %union.VectorReg* %13 to %"class.std::bitset"*
  %14 = bitcast %"class.std::bitset"* %YMM2 to i8*
  %15 = load i64, i64* %RAX
  %16 = load i64, i64* %RCX
  %17 = mul i64 %16, 8
  %18 = add i64 %17, %15
  %19 = load i64, i64* %PC
  %20 = add i64 %19, 5
  store i64 %20, i64* %PC
  %21 = call %struct.Memory* @_ZN12_GLOBAL__N_1L9MOVSS_MEMI3VnWI8vec128_tE3MVnI7vec32_tEEEP6MemoryS8_R5StateT_T0_(%struct.Memory* %2, %struct.State* %0, i8* %14, i64 %18)
  ret %struct.Memory* %21
}










define %struct.Memory* @routine_subss___rax__rcx_8____xmm2(%struct.State*  dereferenceable(3376), i64, %struct.Memory* ) #19 {
block_400488:
  %3 = getelementptr inbounds %struct.State, %struct.State* %0, i32 0, i32 6
  %4 = getelementptr inbounds %struct.GPR, %struct.GPR* %3, i32 0, i32 33
  %5 = getelementptr inbounds %struct.Reg, %struct.Reg* %4, i32 0, i32 0
  %PC = bitcast %union.anon* %5 to i64*
  %6 = getelementptr inbounds %struct.State, %struct.State* %0, i32 0, i32 6
  %7 = getelementptr inbounds %struct.GPR, %struct.GPR* %6, i32 0, i32 1
  %8 = getelementptr inbounds %struct.Reg, %struct.Reg* %7, i32 0, i32 0
  %RAX = bitcast %union.anon* %8 to i64*
  %9 = getelementptr inbounds %struct.State, %struct.State* %0, i32 0, i32 6
  %10 = getelementptr inbounds %struct.GPR, %struct.GPR* %9, i32 0, i32 5
  %11 = getelementptr inbounds %struct.Reg, %struct.Reg* %10, i32 0, i32 0
  %RCX = bitcast %union.anon* %11 to i64*
  %12 = getelementptr inbounds %struct.State, %struct.State* %0, i32 0, i32 1
  %13 = getelementptr inbounds [32 x %union.VectorReg], [32 x %union.VectorReg]* %12, i64 0, i64 2
  %YMM2 = bitcast %union.VectorReg* %13 to %"class.std::bitset"*
  %14 = bitcast %"class.std::bitset"* %YMM2 to i8*
  %15 = bitcast %"class.std::bitset"* %YMM2 to i8*
  %16 = load i64, i64* %RAX
  %17 = load i64, i64* %RCX
  %18 = mul i64 %17, 8
  %19 = add i64 %18, %16
  %20 = load i64, i64* %PC
  %21 = add i64 %20, 5
  store i64 %21, i64* %PC
  %22 = call %struct.Memory* @_ZN12_GLOBAL__N_1L5SUBSSI3VnWI8vec128_tE2VnIS2_E3MVnI7vec32_tEEEP6MemorySA_R5StateT_T0_T1_(%struct.Memory* %2, %struct.State* %0, i8* %14, i8* %15, i64 %19)
  ret %struct.Memory* %22
}



define internal %struct.Memory* @_ZN12_GLOBAL__N_1L5ADDSSI3VnWI8vec128_tE2VnIS2_ES5_EEP6MemoryS7_R5StateT_T0_T1_(%struct.Memory* readnone returned, %struct.State* nocapture readnone dereferenceable(3376), i8* nocapture, i8* nocapture readonly, i8* nocapture readonly) #0 {
  %6 = bitcast i8* %3 to <2 x float>*
  %7 = load <2 x float>, <2 x float>* %6, align 1
  %8 = getelementptr inbounds i8, i8* %3, i64 8
  %9 = bitcast i8* %8 to <2 x i32>*
  %10 = load <2 x i32>, <2 x i32>* %9, align 1
  %11 = bitcast i8* %4 to <2 x float>*
  %12 = load <2 x float>, <2 x float>* %11, align 1
  %13 = extractelement <2 x float> %7, i32 0
  %14 = extractelement <2 x float> %12, i32 0
  %15 = fadd float %13, %14
  %16 = bitcast i8* %2 to float*
  store float %15, float* %16, align 1
  %17 = bitcast <2 x float> %7 to <2 x i32>
  %18 = extractelement <2 x i32> %17, i32 1
  %19 = getelementptr inbounds i8, i8* %2, i64 4
  %20 = bitcast i8* %19 to i32*
  store i32 %18, i32* %20, align 1
  %21 = extractelement <2 x i32> %10, i32 0
  %22 = getelementptr inbounds i8, i8* %2, i64 8
  %23 = bitcast i8* %22 to i32*
  store i32 %21, i32* %23, align 1
  %24 = extractelement <2 x i32> %10, i32 1
  %25 = getelementptr inbounds i8, i8* %2, i64 12
  %26 = bitcast i8* %25 to i32*
  store i32 %24, i32* %26, align 1
  ret %struct.Memory* %0
}

define %struct.Memory* @routine_addss__xmm1___xmm0(%struct.State*  dereferenceable(3376), i64, %struct.Memory* ) #19 {
block_400488:
  %3 = getelementptr inbounds %struct.State, %struct.State* %0, i32 0, i32 6
  %4 = getelementptr inbounds %struct.GPR, %struct.GPR* %3, i32 0, i32 33
  %5 = getelementptr inbounds %struct.Reg, %struct.Reg* %4, i32 0, i32 0
  %PC = bitcast %union.anon* %5 to i64*
  %6 = getelementptr inbounds %struct.State, %struct.State* %0, i32 0, i32 1
  %7 = getelementptr inbounds [32 x %union.VectorReg], [32 x %union.VectorReg]* %6, i64 0, i64 0
  %YMM0 = bitcast %union.VectorReg* %7 to %"class.std::bitset"*
  %8 = getelementptr inbounds %struct.State, %struct.State* %0, i32 0, i32 1
  %9 = getelementptr inbounds [32 x %union.VectorReg], [32 x %union.VectorReg]* %8, i64 0, i64 1
  %XMM1 = bitcast %union.VectorReg* %9 to %union.vec128_t*
  %10 = bitcast %"class.std::bitset"* %YMM0 to i8*
  %11 = bitcast %"class.std::bitset"* %YMM0 to i8*
  %12 = bitcast %union.vec128_t* %XMM1 to i8*
  %13 = load i64, i64* %PC
  %14 = add i64 %13, 4
  store i64 %14, i64* %PC
  %15 = call %struct.Memory* @_ZN12_GLOBAL__N_1L5ADDSSI3VnWI8vec128_tE2VnIS2_ES5_EEP6MemoryS7_R5StateT_T0_T1_(%struct.Memory* %2, %struct.State* %0, i8* %10, i8* %11, i8* %12)
  ret %struct.Memory* %15
}
















define %struct.Memory* @routine_movl__edx__MINUS0x28__rbp_(%struct.State*  dereferenceable(3376), i64, %struct.Memory* ) #19 {
block_400488:
  %3 = getelementptr inbounds %struct.State, %struct.State* %0, i32 0, i32 6
  %4 = getelementptr inbounds %struct.GPR, %struct.GPR* %3, i32 0, i32 33
  %5 = getelementptr inbounds %struct.Reg, %struct.Reg* %4, i32 0, i32 0
  %PC = bitcast %union.anon* %5 to i64*
  %6 = getelementptr inbounds %struct.State, %struct.State* %0, i32 0, i32 6
  %7 = getelementptr inbounds %struct.GPR, %struct.GPR* %6, i32 0, i32 7
  %8 = getelementptr inbounds %struct.Reg, %struct.Reg* %7, i32 0, i32 0
  %EDX = bitcast %union.anon* %8 to i32*
  %9 = getelementptr inbounds %struct.State, %struct.State* %0, i32 0, i32 6
  %10 = getelementptr inbounds %struct.GPR, %struct.GPR* %9, i32 0, i32 15
  %11 = getelementptr inbounds %struct.Reg, %struct.Reg* %10, i32 0, i32 0
  %RBP = bitcast %union.anon* %11 to i64*
  %12 = load i64, i64* %RBP
  %13 = sub i64 %12, 40
  %14 = load i32, i32* %EDX
  %15 = zext i32 %14 to i64
  %16 = load i64, i64* %PC
  %17 = add i64 %16, 3
  store i64 %17, i64* %PC
  %18 = call %struct.Memory* @_ZN12_GLOBAL__N_1L3MOVI3MnWIjE2RnIjEEEP6MemoryS6_R5StateT_T0_(%struct.Memory* %2, %struct.State* %0, i64 %13, i64 %15)
  ret %struct.Memory* %18
}


define %struct.Memory* @routine_movl_MINUS0x28__rbp____eax(%struct.State*  dereferenceable(3376), i64, %struct.Memory* ) #19 {
block_400488:
  %3 = getelementptr inbounds %struct.State, %struct.State* %0, i32 0, i32 6
  %4 = getelementptr inbounds %struct.GPR, %struct.GPR* %3, i32 0, i32 33
  %5 = getelementptr inbounds %struct.Reg, %struct.Reg* %4, i32 0, i32 0
  %PC = bitcast %union.anon* %5 to i64*
  %6 = getelementptr inbounds %struct.State, %struct.State* %0, i32 0, i32 6
  %7 = getelementptr inbounds %struct.GPR, %struct.GPR* %6, i32 0, i32 1
  %8 = getelementptr inbounds %struct.Reg, %struct.Reg* %7, i32 0, i32 0
  %RAX = bitcast %union.anon* %8 to i64*
  %9 = getelementptr inbounds %struct.State, %struct.State* %0, i32 0, i32 6
  %10 = getelementptr inbounds %struct.GPR, %struct.GPR* %9, i32 0, i32 15
  %11 = getelementptr inbounds %struct.Reg, %struct.Reg* %10, i32 0, i32 0
  %RBP = bitcast %union.anon* %11 to i64*
  %12 = load i64, i64* %RBP
  %13 = sub i64 %12, 40
  %14 = load i64, i64* %PC
  %15 = add i64 %14, 3
  store i64 %15, i64* %PC
  %16 = call %struct.Memory* @_ZN12_GLOBAL__N_1L3MOVI3RnWImE2MnIjEEEP6MemoryS6_R5StateT_T0_(%struct.Memory* %2, %struct.State* %0, i64* %RAX, i64 %13)
  ret %struct.Memory* %16
}

define internal %struct.Memory* @_ZN12_GLOBAL__N_1L3CMPI2RnIjE2MnIjEEEP6MemoryS6_R5StateT_T0_(%struct.Memory*, %struct.State* nocapture dereferenceable(3376), i64, i64) #0 {
  %5 = trunc i64 %2 to i32
  %6 = inttoptr i64 %3 to i32*
  %7 = load i32, i32* %6
  %8 = sub i32 %5, %7
  %9 = icmp ult i32 %5, %7
  %10 = zext i1 %9 to i8
  %11 = getelementptr inbounds %struct.State, %struct.State* %1, i64 0, i32 2, i32 1
  store i8 %10, i8* %11, align 1
  %12 = and i32 %8, 255
  %13 = tail call i32 @llvm.ctpop.i32(i32 %12) #22
  %14 = trunc i32 %13 to i8
  %15 = and i8 %14, 1
  %16 = xor i8 %15, 1
  %17 = getelementptr inbounds %struct.State, %struct.State* %1, i64 0, i32 2, i32 3
  store i8 %16, i8* %17, align 1
  %18 = xor i32 %7, %5
  %19 = xor i32 %18, %8
  %20 = lshr i32 %19, 4
  %21 = trunc i32 %20 to i8
  %22 = and i8 %21, 1
  %23 = getelementptr inbounds %struct.State, %struct.State* %1, i64 0, i32 2, i32 5
  store i8 %22, i8* %23, align 1
  %24 = icmp eq i32 %8, 0
  %25 = zext i1 %24 to i8
  %26 = getelementptr inbounds %struct.State, %struct.State* %1, i64 0, i32 2, i32 7
  store i8 %25, i8* %26, align 1
  %27 = lshr i32 %8, 31
  %28 = trunc i32 %27 to i8
  %29 = getelementptr inbounds %struct.State, %struct.State* %1, i64 0, i32 2, i32 9
  store i8 %28, i8* %29, align 1
  %30 = lshr i32 %5, 31
  %31 = lshr i32 %7, 31
  %32 = xor i32 %31, %30
  %33 = xor i32 %27, %30
  %34 = add   i32 %33, %32
  %35 = icmp eq i32 %34, 2
  %36 = zext i1 %35 to i8
  %37 = getelementptr inbounds %struct.State, %struct.State* %1, i64 0, i32 2, i32 13
  store i8 %36, i8* %37, align 1
  ret %struct.Memory* %0
}

define %struct.Memory* @routine_cmpl_MINUS0x2c__rbp____eax(%struct.State*  dereferenceable(3376), i64, %struct.Memory* ) #19 {
block_400488:
  %3 = getelementptr inbounds %struct.State, %struct.State* %0, i32 0, i32 6
  %4 = getelementptr inbounds %struct.GPR, %struct.GPR* %3, i32 0, i32 33
  %5 = getelementptr inbounds %struct.Reg, %struct.Reg* %4, i32 0, i32 0
  %PC = bitcast %union.anon* %5 to i64*
  %6 = getelementptr inbounds %struct.State, %struct.State* %0, i32 0, i32 6
  %7 = getelementptr inbounds %struct.GPR, %struct.GPR* %6, i32 0, i32 1
  %8 = getelementptr inbounds %struct.Reg, %struct.Reg* %7, i32 0, i32 0
  %EAX = bitcast %union.anon* %8 to i32*
  %9 = getelementptr inbounds %struct.State, %struct.State* %0, i32 0, i32 6
  %10 = getelementptr inbounds %struct.GPR, %struct.GPR* %9, i32 0, i32 15
  %11 = getelementptr inbounds %struct.Reg, %struct.Reg* %10, i32 0, i32 0
  %RBP = bitcast %union.anon* %11 to i64*
  %12 = load i32, i32* %EAX
  %13 = zext i32 %12 to i64
  %14 = load i64, i64* %RBP
  %15 = sub i64 %14, 44
  %16 = load i64, i64* %PC
  %17 = add i64 %16, 3
  store i64 %17, i64* %PC
  %18 = call %struct.Memory* @_ZN12_GLOBAL__N_1L3CMPI2RnIjE2MnIjEEEP6MemoryS6_R5StateT_T0_(%struct.Memory* %2, %struct.State* %0, i64 %13, i64 %15)
  ret %struct.Memory* %18
}

define internal %struct.Memory* @_ZN12_GLOBAL__N_1L3JLEEP6MemoryR5State3RnWIhE2InImES7_(%struct.Memory* readnone returned, %struct.State* nocapture dereferenceable(3376), i8* nocapture, i64, i64) #2 {
  %6 = getelementptr inbounds %struct.State, %struct.State* %1, i64 0, i32 2, i32 7
  %7 = load i8, i8* %6, align 1
  %8 = icmp ne i8 %7, 0
  %9 = getelementptr inbounds %struct.State, %struct.State* %1, i64 0, i32 2, i32 9
  %10 = load i8, i8* %9, align 1
  %11 = icmp ne i8 %10, 0
  %12 = getelementptr inbounds %struct.State, %struct.State* %1, i64 0, i32 2, i32 13
  %13 = load i8, i8* %12, align 1
  %14 = icmp ne i8 %13, 0
  %15 = xor i1 %11, %14
  %16 = or i1 %8, %15
  %17 = zext i1 %16 to i8
  store i8 %17, i8* %2, align 1
  %18 = getelementptr inbounds %struct.State, %struct.State* %1, i64 0, i32 6, i32 33, i32 0, i32 0
  %19 = select i1 %16, i64 %3, i64 %4
  store i64 %19, i64* %18, align 8
  ret %struct.Memory* %0
}

define %struct.Memory* @routine_jle_.L_400a7e(%struct.State*  dereferenceable(3376), i64, %struct.Memory*, i8* %BRANCH_TAKEN, i64 %rel_off1, i64 %rel_off2, i64 %rel_off3) {
block_400488:
  %3 = getelementptr inbounds %struct.State, %struct.State* %0, i32 0, i32 6
  %4 = getelementptr inbounds %struct.GPR, %struct.GPR* %3, i32 0, i32 33
  %5 = getelementptr inbounds %struct.Reg, %struct.Reg* %4, i32 0, i32 0
  %PC = bitcast %union.anon* %5 to i64*
  %6 = load i64, i64* %PC
  %7 = add i64 %6, %rel_off1
  %8 = load i64, i64* %PC
  %9 = add i64 %8, %rel_off2
  %10 = load i64, i64* %PC
  %11 = add i64 %10, %rel_off3
  store i64 %11, i64* %PC
  %12 = call %struct.Memory* @_ZN12_GLOBAL__N_1L3JLEEP6MemoryR5State3RnWIhE2InImES7_(%struct.Memory* %2, %struct.State* %0, i8* %BRANCH_TAKEN, i64 %7, i64 %9)
  ret %struct.Memory* %12
}


define %struct.Memory* @routine_movl_MINUS0x2c__rbp____eax(%struct.State*  dereferenceable(3376), i64, %struct.Memory* ) #19 {
block_400488:
  %3 = getelementptr inbounds %struct.State, %struct.State* %0, i32 0, i32 6
  %4 = getelementptr inbounds %struct.GPR, %struct.GPR* %3, i32 0, i32 33
  %5 = getelementptr inbounds %struct.Reg, %struct.Reg* %4, i32 0, i32 0
  %PC = bitcast %union.anon* %5 to i64*
  %6 = getelementptr inbounds %struct.State, %struct.State* %0, i32 0, i32 6
  %7 = getelementptr inbounds %struct.GPR, %struct.GPR* %6, i32 0, i32 1
  %8 = getelementptr inbounds %struct.Reg, %struct.Reg* %7, i32 0, i32 0
  %RAX = bitcast %union.anon* %8 to i64*
  %9 = getelementptr inbounds %struct.State, %struct.State* %0, i32 0, i32 6
  %10 = getelementptr inbounds %struct.GPR, %struct.GPR* %9, i32 0, i32 15
  %11 = getelementptr inbounds %struct.Reg, %struct.Reg* %10, i32 0, i32 0
  %RBP = bitcast %union.anon* %11 to i64*
  %12 = load i64, i64* %RBP
  %13 = sub i64 %12, 44
  %14 = load i64, i64* %PC
  %15 = add i64 %14, 3
  store i64 %15, i64* %PC
  %16 = call %struct.Memory* @_ZN12_GLOBAL__N_1L3MOVI3RnWImE2MnIjEEEP6MemoryS6_R5StateT_T0_(%struct.Memory* %2, %struct.State* %0, i64* %RAX, i64 %13)
  ret %struct.Memory* %16
}


define %struct.Memory* @routine_movl__eax__MINUS0x30__rbp_(%struct.State*  dereferenceable(3376), i64, %struct.Memory* ) #19 {
block_400488:
  %3 = getelementptr inbounds %struct.State, %struct.State* %0, i32 0, i32 6
  %4 = getelementptr inbounds %struct.GPR, %struct.GPR* %3, i32 0, i32 33
  %5 = getelementptr inbounds %struct.Reg, %struct.Reg* %4, i32 0, i32 0
  %PC = bitcast %union.anon* %5 to i64*
  %6 = getelementptr inbounds %struct.State, %struct.State* %0, i32 0, i32 6
  %7 = getelementptr inbounds %struct.GPR, %struct.GPR* %6, i32 0, i32 1
  %8 = getelementptr inbounds %struct.Reg, %struct.Reg* %7, i32 0, i32 0
  %EAX = bitcast %union.anon* %8 to i32*
  %9 = getelementptr inbounds %struct.State, %struct.State* %0, i32 0, i32 6
  %10 = getelementptr inbounds %struct.GPR, %struct.GPR* %9, i32 0, i32 15
  %11 = getelementptr inbounds %struct.Reg, %struct.Reg* %10, i32 0, i32 0
  %RBP = bitcast %union.anon* %11 to i64*
  %12 = load i64, i64* %RBP
  %13 = sub i64 %12, 48
  %14 = load i32, i32* %EAX
  %15 = zext i32 %14 to i64
  %16 = load i64, i64* %PC
  %17 = add i64 %16, 3
  store i64 %17, i64* %PC
  %18 = call %struct.Memory* @_ZN12_GLOBAL__N_1L3MOVI3MnWIjE2RnIjEEEP6MemoryS6_R5StateT_T0_(%struct.Memory* %2, %struct.State* %0, i64 %13, i64 %15)
  ret %struct.Memory* %18
}


define %struct.Memory* @routine_movl_MINUS0x30__rbp____eax(%struct.State*  dereferenceable(3376), i64, %struct.Memory* ) #19 {
block_400488:
  %3 = getelementptr inbounds %struct.State, %struct.State* %0, i32 0, i32 6
  %4 = getelementptr inbounds %struct.GPR, %struct.GPR* %3, i32 0, i32 33
  %5 = getelementptr inbounds %struct.Reg, %struct.Reg* %4, i32 0, i32 0
  %PC = bitcast %union.anon* %5 to i64*
  %6 = getelementptr inbounds %struct.State, %struct.State* %0, i32 0, i32 6
  %7 = getelementptr inbounds %struct.GPR, %struct.GPR* %6, i32 0, i32 1
  %8 = getelementptr inbounds %struct.Reg, %struct.Reg* %7, i32 0, i32 0
  %RAX = bitcast %union.anon* %8 to i64*
  %9 = getelementptr inbounds %struct.State, %struct.State* %0, i32 0, i32 6
  %10 = getelementptr inbounds %struct.GPR, %struct.GPR* %9, i32 0, i32 15
  %11 = getelementptr inbounds %struct.Reg, %struct.Reg* %10, i32 0, i32 0
  %RBP = bitcast %union.anon* %11 to i64*
  %12 = load i64, i64* %RBP
  %13 = sub i64 %12, 48
  %14 = load i64, i64* %PC
  %15 = add i64 %14, 3
  store i64 %15, i64* %PC
  %16 = call %struct.Memory* @_ZN12_GLOBAL__N_1L3MOVI3RnWImE2MnIjEEEP6MemoryS6_R5StateT_T0_(%struct.Memory* %2, %struct.State* %0, i64* %RAX, i64 %13)
  ret %struct.Memory* %16
}


define %struct.Memory* @routine_addl_MINUS0x34__rbp____eax(%struct.State*  dereferenceable(3376), i64, %struct.Memory* ) #19 {
block_400488:
  %3 = getelementptr inbounds %struct.State, %struct.State* %0, i32 0, i32 6
  %4 = getelementptr inbounds %struct.GPR, %struct.GPR* %3, i32 0, i32 33
  %5 = getelementptr inbounds %struct.Reg, %struct.Reg* %4, i32 0, i32 0
  %PC = bitcast %union.anon* %5 to i64*
  %6 = getelementptr inbounds %struct.State, %struct.State* %0, i32 0, i32 6
  %7 = getelementptr inbounds %struct.GPR, %struct.GPR* %6, i32 0, i32 1
  %8 = getelementptr inbounds %struct.Reg, %struct.Reg* %7, i32 0, i32 0
  %RAX = bitcast %union.anon* %8 to i64*
  %9 = getelementptr inbounds %struct.State, %struct.State* %0, i32 0, i32 6
  %10 = getelementptr inbounds %struct.GPR, %struct.GPR* %9, i32 0, i32 15
  %11 = getelementptr inbounds %struct.Reg, %struct.Reg* %10, i32 0, i32 0
  %RBP = bitcast %union.anon* %11 to i64*
  %12 = load i64, i64* %RAX
  %13 = load i64, i64* %RBP
  %14 = sub i64 %13, 52
  %15 = load i64, i64* %PC
  %16 = add i64 %15, 3
  store i64 %16, i64* %PC
  %17 = call %struct.Memory* @_ZN12_GLOBAL__N_1L3ADDI3RnWImE2RnIjE2MnIjEEEP6MemoryS8_R5StateT_T0_T1_(%struct.Memory* %2, %struct.State* %0, i64* %RAX, i64 %12, i64 %14)
  ret %struct.Memory* %17
}






define %struct.Memory* @routine_cmpl_MINUS0x38__rbp____eax(%struct.State*  dereferenceable(3376), i64, %struct.Memory* ) #19 {
block_400488:
  %3 = getelementptr inbounds %struct.State, %struct.State* %0, i32 0, i32 6
  %4 = getelementptr inbounds %struct.GPR, %struct.GPR* %3, i32 0, i32 33
  %5 = getelementptr inbounds %struct.Reg, %struct.Reg* %4, i32 0, i32 0
  %PC = bitcast %union.anon* %5 to i64*
  %6 = getelementptr inbounds %struct.State, %struct.State* %0, i32 0, i32 6
  %7 = getelementptr inbounds %struct.GPR, %struct.GPR* %6, i32 0, i32 1
  %8 = getelementptr inbounds %struct.Reg, %struct.Reg* %7, i32 0, i32 0
  %EAX = bitcast %union.anon* %8 to i32*
  %9 = getelementptr inbounds %struct.State, %struct.State* %0, i32 0, i32 6
  %10 = getelementptr inbounds %struct.GPR, %struct.GPR* %9, i32 0, i32 15
  %11 = getelementptr inbounds %struct.Reg, %struct.Reg* %10, i32 0, i32 0
  %RBP = bitcast %union.anon* %11 to i64*
  %12 = load i32, i32* %EAX
  %13 = zext i32 %12 to i64
  %14 = load i64, i64* %RBP
  %15 = sub i64 %14, 56
  %16 = load i64, i64* %PC
  %17 = add i64 %16, 3
  store i64 %17, i64* %PC
  %18 = call %struct.Memory* @_ZN12_GLOBAL__N_1L3CMPI2RnIjE2MnIjEEEP6MemoryS6_R5StateT_T0_(%struct.Memory* %2, %struct.State* %0, i64 %13, i64 %15)
  ret %struct.Memory* %18
}


define %struct.Memory* @routine_jle_.L_400a79(%struct.State*  dereferenceable(3376), i64, %struct.Memory*, i8* %BRANCH_TAKEN, i64 %rel_off1, i64 %rel_off2, i64 %rel_off3) {
block_400488:
  %3 = getelementptr inbounds %struct.State, %struct.State* %0, i32 0, i32 6
  %4 = getelementptr inbounds %struct.GPR, %struct.GPR* %3, i32 0, i32 33
  %5 = getelementptr inbounds %struct.Reg, %struct.Reg* %4, i32 0, i32 0
  %PC = bitcast %union.anon* %5 to i64*
  %6 = load i64, i64* %PC
  %7 = add i64 %6, %rel_off1
  %8 = load i64, i64* %PC
  %9 = add i64 %8, %rel_off2
  %10 = load i64, i64* %PC
  %11 = add i64 %10, %rel_off3
  store i64 %11, i64* %PC
  %12 = call %struct.Memory* @_ZN12_GLOBAL__N_1L3JLEEP6MemoryR5State3RnWIhE2InImES7_(%struct.Memory* %2, %struct.State* %0, i8* %BRANCH_TAKEN, i64 %7, i64 %9)
  ret %struct.Memory* %12
}


define %struct.Memory* @routine_movl__0x1__MINUS0x3c__rbp_(%struct.State*  dereferenceable(3376), i64, %struct.Memory* ) #19 {
block_400488:
  %3 = getelementptr inbounds %struct.State, %struct.State* %0, i32 0, i32 6
  %4 = getelementptr inbounds %struct.GPR, %struct.GPR* %3, i32 0, i32 33
  %5 = getelementptr inbounds %struct.Reg, %struct.Reg* %4, i32 0, i32 0
  %PC = bitcast %union.anon* %5 to i64*
  %6 = getelementptr inbounds %struct.State, %struct.State* %0, i32 0, i32 6
  %7 = getelementptr inbounds %struct.GPR, %struct.GPR* %6, i32 0, i32 15
  %8 = getelementptr inbounds %struct.Reg, %struct.Reg* %7, i32 0, i32 0
  %RBP = bitcast %union.anon* %8 to i64*
  %9 = load i64, i64* %RBP
  %10 = sub i64 %9, 60
  %11 = load i64, i64* %PC
  %12 = add i64 %11, 7
  store i64 %12, i64* %PC
  %13 = call %struct.Memory* @_ZN12_GLOBAL__N_1L3MOVI3MnWIjE2InIjEEEP6MemoryS6_R5StateT_T0_(%struct.Memory* %2, %struct.State* %0, i64 %10, i64 1)
  ret %struct.Memory* %13
}




define %struct.Memory* @routine_movslq_MINUS0x3c__rbp____rcx(%struct.State*  dereferenceable(3376), i64, %struct.Memory* ) #19 {
block_400488:
  %3 = getelementptr inbounds %struct.State, %struct.State* %0, i32 0, i32 6
  %4 = getelementptr inbounds %struct.GPR, %struct.GPR* %3, i32 0, i32 33
  %5 = getelementptr inbounds %struct.Reg, %struct.Reg* %4, i32 0, i32 0
  %PC = bitcast %union.anon* %5 to i64*
  %6 = getelementptr inbounds %struct.State, %struct.State* %0, i32 0, i32 6
  %7 = getelementptr inbounds %struct.GPR, %struct.GPR* %6, i32 0, i32 5
  %8 = getelementptr inbounds %struct.Reg, %struct.Reg* %7, i32 0, i32 0
  %RCX = bitcast %union.anon* %8 to i64*
  %9 = getelementptr inbounds %struct.State, %struct.State* %0, i32 0, i32 6
  %10 = getelementptr inbounds %struct.GPR, %struct.GPR* %9, i32 0, i32 15
  %11 = getelementptr inbounds %struct.Reg, %struct.Reg* %10, i32 0, i32 0
  %RBP = bitcast %union.anon* %11 to i64*
  %12 = load i64, i64* %RBP
  %13 = sub i64 %12, 60
  %14 = load i64, i64* %PC
  %15 = add i64 %14, 4
  store i64 %15, i64* %PC
  %16 = call %struct.Memory* @_ZN12_GLOBAL__N_1L5MOVSXI3RnWImE2MnIjElEEP6MemoryS6_R5StateT_T0_(%struct.Memory* %2, %struct.State* %0, i64* %RCX, i64 %13)
  ret %struct.Memory* %16
}


define %struct.Memory* @routine_movq_MINUS0x18__rbp____rdx(%struct.State*  dereferenceable(3376), i64, %struct.Memory* ) #19 {
block_400488:
  %3 = getelementptr inbounds %struct.State, %struct.State* %0, i32 0, i32 6
  %4 = getelementptr inbounds %struct.GPR, %struct.GPR* %3, i32 0, i32 33
  %5 = getelementptr inbounds %struct.Reg, %struct.Reg* %4, i32 0, i32 0
  %PC = bitcast %union.anon* %5 to i64*
  %6 = getelementptr inbounds %struct.State, %struct.State* %0, i32 0, i32 6
  %7 = getelementptr inbounds %struct.GPR, %struct.GPR* %6, i32 0, i32 7
  %8 = getelementptr inbounds %struct.Reg, %struct.Reg* %7, i32 0, i32 0
  %RDX = bitcast %union.anon* %8 to i64*
  %9 = getelementptr inbounds %struct.State, %struct.State* %0, i32 0, i32 6
  %10 = getelementptr inbounds %struct.GPR, %struct.GPR* %9, i32 0, i32 15
  %11 = getelementptr inbounds %struct.Reg, %struct.Reg* %10, i32 0, i32 0
  %RBP = bitcast %union.anon* %11 to i64*
  %12 = load i64, i64* %RBP
  %13 = sub i64 %12, 24
  %14 = load i64, i64* %PC
  %15 = add i64 %14, 4
  store i64 %15, i64* %PC
  %16 = call %struct.Memory* @_ZN12_GLOBAL__N_1L3MOVI3RnWImE2MnImEEEP6MemoryS6_R5StateT_T0_(%struct.Memory* %2, %struct.State* %0, i64* %RDX, i64 %13)
  ret %struct.Memory* %16
}


define %struct.Memory* @routine_movslq_MINUS0x3c__rbp____rsi(%struct.State*  dereferenceable(3376), i64, %struct.Memory* ) #19 {
block_400488:
  %3 = getelementptr inbounds %struct.State, %struct.State* %0, i32 0, i32 6
  %4 = getelementptr inbounds %struct.GPR, %struct.GPR* %3, i32 0, i32 33
  %5 = getelementptr inbounds %struct.Reg, %struct.Reg* %4, i32 0, i32 0
  %PC = bitcast %union.anon* %5 to i64*
  %6 = getelementptr inbounds %struct.State, %struct.State* %0, i32 0, i32 6
  %7 = getelementptr inbounds %struct.GPR, %struct.GPR* %6, i32 0, i32 9
  %8 = getelementptr inbounds %struct.Reg, %struct.Reg* %7, i32 0, i32 0
  %RSI = bitcast %union.anon* %8 to i64*
  %9 = getelementptr inbounds %struct.State, %struct.State* %0, i32 0, i32 6
  %10 = getelementptr inbounds %struct.GPR, %struct.GPR* %9, i32 0, i32 15
  %11 = getelementptr inbounds %struct.Reg, %struct.Reg* %10, i32 0, i32 0
  %RBP = bitcast %union.anon* %11 to i64*
  %12 = load i64, i64* %RBP
  %13 = sub i64 %12, 60
  %14 = load i64, i64* %PC
  %15 = add i64 %14, 4
  store i64 %15, i64* %PC
  %16 = call %struct.Memory* @_ZN12_GLOBAL__N_1L5MOVSXI3RnWImE2MnIjElEEP6MemoryS6_R5StateT_T0_(%struct.Memory* %2, %struct.State* %0, i64* %RSI, i64 %13)
  ret %struct.Memory* %16
}


define %struct.Memory* @routine_movq___rdx__rsi_8____rdx(%struct.State*  dereferenceable(3376), i64, %struct.Memory* ) #19 {
block_400488:
  %3 = getelementptr inbounds %struct.State, %struct.State* %0, i32 0, i32 6
  %4 = getelementptr inbounds %struct.GPR, %struct.GPR* %3, i32 0, i32 33
  %5 = getelementptr inbounds %struct.Reg, %struct.Reg* %4, i32 0, i32 0
  %PC = bitcast %union.anon* %5 to i64*
  %6 = getelementptr inbounds %struct.State, %struct.State* %0, i32 0, i32 6
  %7 = getelementptr inbounds %struct.GPR, %struct.GPR* %6, i32 0, i32 7
  %8 = getelementptr inbounds %struct.Reg, %struct.Reg* %7, i32 0, i32 0
  %RDX = bitcast %union.anon* %8 to i64*
  %9 = getelementptr inbounds %struct.State, %struct.State* %0, i32 0, i32 6
  %10 = getelementptr inbounds %struct.GPR, %struct.GPR* %9, i32 0, i32 9
  %11 = getelementptr inbounds %struct.Reg, %struct.Reg* %10, i32 0, i32 0
  %RSI = bitcast %union.anon* %11 to i64*
  %12 = load i64, i64* %RDX
  %13 = load i64, i64* %RSI
  %14 = mul i64 %13, 8
  %15 = add i64 %14, %12
  %16 = load i64, i64* %PC
  %17 = add i64 %16, 4
  store i64 %17, i64* %PC
  %18 = call %struct.Memory* @_ZN12_GLOBAL__N_1L3MOVI3RnWImE2MnImEEEP6MemoryS6_R5StateT_T0_(%struct.Memory* %2, %struct.State* %0, i64* %RDX, i64 %15)
  ret %struct.Memory* %18
}


define %struct.Memory* @routine_movq__rdx____rax__rcx_8_(%struct.State*  dereferenceable(3376), i64, %struct.Memory* ) #19 {
block_400488:
  %3 = getelementptr inbounds %struct.State, %struct.State* %0, i32 0, i32 6
  %4 = getelementptr inbounds %struct.GPR, %struct.GPR* %3, i32 0, i32 33
  %5 = getelementptr inbounds %struct.Reg, %struct.Reg* %4, i32 0, i32 0
  %PC = bitcast %union.anon* %5 to i64*
  %6 = getelementptr inbounds %struct.State, %struct.State* %0, i32 0, i32 6
  %7 = getelementptr inbounds %struct.GPR, %struct.GPR* %6, i32 0, i32 1
  %8 = getelementptr inbounds %struct.Reg, %struct.Reg* %7, i32 0, i32 0
  %RAX = bitcast %union.anon* %8 to i64*
  %9 = getelementptr inbounds %struct.State, %struct.State* %0, i32 0, i32 6
  %10 = getelementptr inbounds %struct.GPR, %struct.GPR* %9, i32 0, i32 5
  %11 = getelementptr inbounds %struct.Reg, %struct.Reg* %10, i32 0, i32 0
  %RCX = bitcast %union.anon* %11 to i64*
  %12 = getelementptr inbounds %struct.State, %struct.State* %0, i32 0, i32 6
  %13 = getelementptr inbounds %struct.GPR, %struct.GPR* %12, i32 0, i32 7
  %14 = getelementptr inbounds %struct.Reg, %struct.Reg* %13, i32 0, i32 0
  %RDX = bitcast %union.anon* %14 to i64*
  %15 = load i64, i64* %RAX
  %16 = load i64, i64* %RCX
  %17 = mul i64 %16, 8
  %18 = add i64 %17, %15
  %19 = load i64, i64* %RDX
  %20 = load i64, i64* %PC
  %21 = add i64 %20, 4
  store i64 %21, i64* %PC
  %22 = call %struct.Memory* @_ZN12_GLOBAL__N_1L3MOVI3MnWImE2RnImEEEP6MemoryS6_R5StateT_T0_(%struct.Memory* %2, %struct.State* %0, i64 %18, i64 %19)
  ret %struct.Memory* %22
}


define %struct.Memory* @routine_movl_MINUS0x3c__rbp____edi(%struct.State*  dereferenceable(3376), i64, %struct.Memory* ) #19 {
block_400488:
  %3 = getelementptr inbounds %struct.State, %struct.State* %0, i32 0, i32 6
  %4 = getelementptr inbounds %struct.GPR, %struct.GPR* %3, i32 0, i32 33
  %5 = getelementptr inbounds %struct.Reg, %struct.Reg* %4, i32 0, i32 0
  %PC = bitcast %union.anon* %5 to i64*
  %6 = getelementptr inbounds %struct.State, %struct.State* %0, i32 0, i32 6
  %7 = getelementptr inbounds %struct.GPR, %struct.GPR* %6, i32 0, i32 11
  %8 = getelementptr inbounds %struct.Reg, %struct.Reg* %7, i32 0, i32 0
  %RDI = bitcast %union.anon* %8 to i64*
  %9 = getelementptr inbounds %struct.State, %struct.State* %0, i32 0, i32 6
  %10 = getelementptr inbounds %struct.GPR, %struct.GPR* %9, i32 0, i32 15
  %11 = getelementptr inbounds %struct.Reg, %struct.Reg* %10, i32 0, i32 0
  %RBP = bitcast %union.anon* %11 to i64*
  %12 = load i64, i64* %RBP
  %13 = sub i64 %12, 60
  %14 = load i64, i64* %PC
  %15 = add i64 %14, 3
  store i64 %15, i64* %PC
  %16 = call %struct.Memory* @_ZN12_GLOBAL__N_1L3MOVI3RnWImE2MnIjEEEP6MemoryS6_R5StateT_T0_(%struct.Memory* %2, %struct.State* %0, i64* %RDI, i64 %13)
  ret %struct.Memory* %16
}


define %struct.Memory* @routine_addl__0x1___edi(%struct.State*  dereferenceable(3376), i64, %struct.Memory* ) #19 {
block_400488:
  %3 = getelementptr inbounds %struct.State, %struct.State* %0, i32 0, i32 6
  %4 = getelementptr inbounds %struct.GPR, %struct.GPR* %3, i32 0, i32 33
  %5 = getelementptr inbounds %struct.Reg, %struct.Reg* %4, i32 0, i32 0
  %PC = bitcast %union.anon* %5 to i64*
  %6 = getelementptr inbounds %struct.State, %struct.State* %0, i32 0, i32 6
  %7 = getelementptr inbounds %struct.GPR, %struct.GPR* %6, i32 0, i32 11
  %8 = getelementptr inbounds %struct.Reg, %struct.Reg* %7, i32 0, i32 0
  %RDI = bitcast %union.anon* %8 to i64*
  %9 = load i64, i64* %RDI
  %10 = load i64, i64* %PC
  %11 = add i64 %10, 3
  store i64 %11, i64* %PC
  %12 = call %struct.Memory* @_ZN12_GLOBAL__N_1L3ADDI3RnWImE2RnIjE2InIjEEEP6MemoryS8_R5StateT_T0_T1_(%struct.Memory* %2, %struct.State* %0, i64* %RDI, i64 %9, i64 1)
  ret %struct.Memory* %12
}


define %struct.Memory* @routine_movl__edi__MINUS0x3c__rbp_(%struct.State*  dereferenceable(3376), i64, %struct.Memory* ) #19 {
block_400488:
  %3 = getelementptr inbounds %struct.State, %struct.State* %0, i32 0, i32 6
  %4 = getelementptr inbounds %struct.GPR, %struct.GPR* %3, i32 0, i32 33
  %5 = getelementptr inbounds %struct.Reg, %struct.Reg* %4, i32 0, i32 0
  %PC = bitcast %union.anon* %5 to i64*
  %6 = getelementptr inbounds %struct.State, %struct.State* %0, i32 0, i32 6
  %7 = getelementptr inbounds %struct.GPR, %struct.GPR* %6, i32 0, i32 11
  %8 = getelementptr inbounds %struct.Reg, %struct.Reg* %7, i32 0, i32 0
  %EDI = bitcast %union.anon* %8 to i32*
  %9 = getelementptr inbounds %struct.State, %struct.State* %0, i32 0, i32 6
  %10 = getelementptr inbounds %struct.GPR, %struct.GPR* %9, i32 0, i32 15
  %11 = getelementptr inbounds %struct.Reg, %struct.Reg* %10, i32 0, i32 0
  %RBP = bitcast %union.anon* %11 to i64*
  %12 = load i64, i64* %RBP
  %13 = sub i64 %12, 60
  %14 = load i32, i32* %EDI
  %15 = zext i32 %14 to i64
  %16 = load i64, i64* %PC
  %17 = add i64 %16, 3
  store i64 %17, i64* %PC
  %18 = call %struct.Memory* @_ZN12_GLOBAL__N_1L3MOVI3MnWIjE2RnIjEEEP6MemoryS6_R5StateT_T0_(%struct.Memory* %2, %struct.State* %0, i64 %13, i64 %15)
  ret %struct.Memory* %18
}


define %struct.Memory* @routine_movl_MINUS0x3c__rbp____eax(%struct.State*  dereferenceable(3376), i64, %struct.Memory* ) #19 {
block_400488:
  %3 = getelementptr inbounds %struct.State, %struct.State* %0, i32 0, i32 6
  %4 = getelementptr inbounds %struct.GPR, %struct.GPR* %3, i32 0, i32 33
  %5 = getelementptr inbounds %struct.Reg, %struct.Reg* %4, i32 0, i32 0
  %PC = bitcast %union.anon* %5 to i64*
  %6 = getelementptr inbounds %struct.State, %struct.State* %0, i32 0, i32 6
  %7 = getelementptr inbounds %struct.GPR, %struct.GPR* %6, i32 0, i32 1
  %8 = getelementptr inbounds %struct.Reg, %struct.Reg* %7, i32 0, i32 0
  %RAX = bitcast %union.anon* %8 to i64*
  %9 = getelementptr inbounds %struct.State, %struct.State* %0, i32 0, i32 6
  %10 = getelementptr inbounds %struct.GPR, %struct.GPR* %9, i32 0, i32 15
  %11 = getelementptr inbounds %struct.Reg, %struct.Reg* %10, i32 0, i32 0
  %RBP = bitcast %union.anon* %11 to i64*
  %12 = load i64, i64* %RBP
  %13 = sub i64 %12, 60
  %14 = load i64, i64* %PC
  %15 = add i64 %14, 3
  store i64 %15, i64* %PC
  %16 = call %struct.Memory* @_ZN12_GLOBAL__N_1L3MOVI3RnWImE2MnIjEEEP6MemoryS6_R5StateT_T0_(%struct.Memory* %2, %struct.State* %0, i64* %RAX, i64 %13)
  ret %struct.Memory* %16
}


define %struct.Memory* @routine_cmpl_MINUS0x4__rbp____eax(%struct.State*  dereferenceable(3376), i64, %struct.Memory* ) #19 {
block_400488:
  %3 = getelementptr inbounds %struct.State, %struct.State* %0, i32 0, i32 6
  %4 = getelementptr inbounds %struct.GPR, %struct.GPR* %3, i32 0, i32 33
  %5 = getelementptr inbounds %struct.Reg, %struct.Reg* %4, i32 0, i32 0
  %PC = bitcast %union.anon* %5 to i64*
  %6 = getelementptr inbounds %struct.State, %struct.State* %0, i32 0, i32 6
  %7 = getelementptr inbounds %struct.GPR, %struct.GPR* %6, i32 0, i32 1
  %8 = getelementptr inbounds %struct.Reg, %struct.Reg* %7, i32 0, i32 0
  %EAX = bitcast %union.anon* %8 to i32*
  %9 = getelementptr inbounds %struct.State, %struct.State* %0, i32 0, i32 6
  %10 = getelementptr inbounds %struct.GPR, %struct.GPR* %9, i32 0, i32 15
  %11 = getelementptr inbounds %struct.Reg, %struct.Reg* %10, i32 0, i32 0
  %RBP = bitcast %union.anon* %11 to i64*
  %12 = load i32, i32* %EAX
  %13 = zext i32 %12 to i64
  %14 = load i64, i64* %RBP
  %15 = sub i64 %14, 4
  %16 = load i64, i64* %PC
  %17 = add i64 %16, 3
  store i64 %17, i64* %PC
  %18 = call %struct.Memory* @_ZN12_GLOBAL__N_1L3CMPI2RnIjE2MnIjEEEP6MemoryS6_R5StateT_T0_(%struct.Memory* %2, %struct.State* %0, i64 %13, i64 %15)
  ret %struct.Memory* %18
}


define %struct.Memory* @routine_jle_.L_400c21(%struct.State*  dereferenceable(3376), i64, %struct.Memory*, i8* %BRANCH_TAKEN, i64 %rel_off1, i64 %rel_off2, i64 %rel_off3) {
block_400488:
  %3 = getelementptr inbounds %struct.State, %struct.State* %0, i32 0, i32 6
  %4 = getelementptr inbounds %struct.GPR, %struct.GPR* %3, i32 0, i32 33
  %5 = getelementptr inbounds %struct.Reg, %struct.Reg* %4, i32 0, i32 0
  %PC = bitcast %union.anon* %5 to i64*
  %6 = load i64, i64* %PC
  %7 = add i64 %6, %rel_off1
  %8 = load i64, i64* %PC
  %9 = add i64 %8, %rel_off2
  %10 = load i64, i64* %PC
  %11 = add i64 %10, %rel_off3
  store i64 %11, i64* %PC
  %12 = call %struct.Memory* @_ZN12_GLOBAL__N_1L3JLEEP6MemoryR5State3RnWIhE2InImES7_(%struct.Memory* %2, %struct.State* %0, i8* %BRANCH_TAKEN, i64 %7, i64 %9)
  ret %struct.Memory* %12
}






define %struct.Memory* @routine_movl__eax__MINUS0x34__rbp_(%struct.State*  dereferenceable(3376), i64, %struct.Memory* ) #19 {
block_400488:
  %3 = getelementptr inbounds %struct.State, %struct.State* %0, i32 0, i32 6
  %4 = getelementptr inbounds %struct.GPR, %struct.GPR* %3, i32 0, i32 33
  %5 = getelementptr inbounds %struct.Reg, %struct.Reg* %4, i32 0, i32 0
  %PC = bitcast %union.anon* %5 to i64*
  %6 = getelementptr inbounds %struct.State, %struct.State* %0, i32 0, i32 6
  %7 = getelementptr inbounds %struct.GPR, %struct.GPR* %6, i32 0, i32 1
  %8 = getelementptr inbounds %struct.Reg, %struct.Reg* %7, i32 0, i32 0
  %EAX = bitcast %union.anon* %8 to i32*
  %9 = getelementptr inbounds %struct.State, %struct.State* %0, i32 0, i32 6
  %10 = getelementptr inbounds %struct.GPR, %struct.GPR* %9, i32 0, i32 15
  %11 = getelementptr inbounds %struct.Reg, %struct.Reg* %10, i32 0, i32 0
  %RBP = bitcast %union.anon* %11 to i64*
  %12 = load i64, i64* %RBP
  %13 = sub i64 %12, 52
  %14 = load i32, i32* %EAX
  %15 = zext i32 %14 to i64
  %16 = load i64, i64* %PC
  %17 = add i64 %16, 3
  store i64 %17, i64* %PC
  %18 = call %struct.Memory* @_ZN12_GLOBAL__N_1L3MOVI3MnWIjE2RnIjEEEP6MemoryS6_R5StateT_T0_(%struct.Memory* %2, %struct.State* %0, i64 %13, i64 %15)
  ret %struct.Memory* %18
}






define %struct.Memory* @routine_jle_.L_400a65(%struct.State*  dereferenceable(3376), i64, %struct.Memory*, i8* %BRANCH_TAKEN, i64 %rel_off1, i64 %rel_off2, i64 %rel_off3) {
block_400488:
  %3 = getelementptr inbounds %struct.State, %struct.State* %0, i32 0, i32 6
  %4 = getelementptr inbounds %struct.GPR, %struct.GPR* %3, i32 0, i32 33
  %5 = getelementptr inbounds %struct.Reg, %struct.Reg* %4, i32 0, i32 0
  %PC = bitcast %union.anon* %5 to i64*
  %6 = load i64, i64* %PC
  %7 = add i64 %6, %rel_off1
  %8 = load i64, i64* %PC
  %9 = add i64 %8, %rel_off2
  %10 = load i64, i64* %PC
  %11 = add i64 %10, %rel_off3
  store i64 %11, i64* %PC
  %12 = call %struct.Memory* @_ZN12_GLOBAL__N_1L3JLEEP6MemoryR5State3RnWIhE2InImES7_(%struct.Memory* %2, %struct.State* %0, i8* %BRANCH_TAKEN, i64 %7, i64 %9)
  ret %struct.Memory* %12
}







define internal %struct.Memory* @_ZN12_GLOBAL__N_1L4JNLEEP6MemoryR5State3RnWIhE2InImES7_(%struct.Memory* readnone returned, %struct.State* nocapture dereferenceable(3376), i8* nocapture, i64, i64) #2 {
  %6 = getelementptr inbounds %struct.State, %struct.State* %1, i64 0, i32 2, i32 7
  %7 = load i8, i8* %6, align 1
  %8 = icmp eq i8 %7, 0
  %9 = getelementptr inbounds %struct.State, %struct.State* %1, i64 0, i32 2, i32 9
  %10 = load i8, i8* %9, align 1
  %11 = icmp ne i8 %10, 0
  %12 = getelementptr inbounds %struct.State, %struct.State* %1, i64 0, i32 2, i32 13
  %13 = load i8, i8* %12, align 1
  %14 = icmp ne i8 %13, 0
  %15 = xor i1 %11, %14
  %16 = xor i1 %15, true
  %17 = and i1 %8, %16
  %18 = zext i1 %17 to i8
  store i8 %18, i8* %2, align 1
  %19 = getelementptr inbounds %struct.State, %struct.State* %1, i64 0, i32 6, i32 33, i32 0, i32 0
  %20 = select i1 %17, i64 %3, i64 %4
  store i64 %20, i64* %19, align 8
  ret %struct.Memory* %0
}

define %struct.Memory* @routine_jg_.L_400cd2(%struct.State*  dereferenceable(3376), i64, %struct.Memory*, i8* %BRANCH_TAKEN, i64 %rel_off1, i64 %rel_off2, i64 %rel_off3) {
block_400488:
  %3 = getelementptr inbounds %struct.State, %struct.State* %0, i32 0, i32 6
  %4 = getelementptr inbounds %struct.GPR, %struct.GPR* %3, i32 0, i32 33
  %5 = getelementptr inbounds %struct.Reg, %struct.Reg* %4, i32 0, i32 0
  %PC = bitcast %union.anon* %5 to i64*
  %6 = load i64, i64* %PC
  %7 = add i64 %6, %rel_off1
  %8 = load i64, i64* %PC
  %9 = add i64 %8, %rel_off2
  %10 = load i64, i64* %PC
  %11 = add i64 %10, %rel_off3
  store i64 %11, i64* %PC
  %12 = call %struct.Memory* @_ZN12_GLOBAL__N_1L4JNLEEP6MemoryR5State3RnWIhE2InImES7_(%struct.Memory* %2, %struct.State* %0, i8* %BRANCH_TAKEN, i64 %7, i64 %9)
  ret %struct.Memory* %12
}


define %struct.Memory* @routine_movss_MINUS0x24__rbp____xmm0(%struct.State*  dereferenceable(3376), i64, %struct.Memory* ) #19 {
block_400488:
  %3 = getelementptr inbounds %struct.State, %struct.State* %0, i32 0, i32 6
  %4 = getelementptr inbounds %struct.GPR, %struct.GPR* %3, i32 0, i32 33
  %5 = getelementptr inbounds %struct.Reg, %struct.Reg* %4, i32 0, i32 0
  %PC = bitcast %union.anon* %5 to i64*
  %6 = getelementptr inbounds %struct.State, %struct.State* %0, i32 0, i32 6
  %7 = getelementptr inbounds %struct.GPR, %struct.GPR* %6, i32 0, i32 15
  %8 = getelementptr inbounds %struct.Reg, %struct.Reg* %7, i32 0, i32 0
  %RBP = bitcast %union.anon* %8 to i64*
  %9 = getelementptr inbounds %struct.State, %struct.State* %0, i32 0, i32 1
  %10 = getelementptr inbounds [32 x %union.VectorReg], [32 x %union.VectorReg]* %9, i64 0, i64 0
  %YMM0 = bitcast %union.VectorReg* %10 to %"class.std::bitset"*
  %11 = bitcast %"class.std::bitset"* %YMM0 to i8*
  %12 = load i64, i64* %RBP
  %13 = sub i64 %12, 36
  %14 = load i64, i64* %PC
  %15 = add i64 %14, 5
  store i64 %15, i64* %PC
  %16 = call %struct.Memory* @_ZN12_GLOBAL__N_1L9MOVSS_MEMI3VnWI8vec128_tE3MVnI7vec32_tEEEP6MemoryS8_R5StateT_T0_(%struct.Memory* %2, %struct.State* %0, i8* %11, i64 %13)
  ret %struct.Memory* %16
}





define internal %struct.Memory* @_ZN12_GLOBAL__N_1L5MULSSI3VnWI8vec128_tE2VnIS2_E3MVnIS2_EEEP6MemoryS9_R5StateT_T0_T1_(%struct.Memory* returned, %struct.State* nocapture readnone dereferenceable(3376), i8* nocapture, i8* nocapture readonly, i64) #0 {
  %6 = bitcast i8* %3 to <2 x float>*
  %7 = load <2 x float>, <2 x float>* %6, align 1
  %8 = getelementptr inbounds i8, i8* %3, i64 8
  %9 = bitcast i8* %8 to <2 x i32>*
  %10 = load <2 x i32>, <2 x i32>* %9, align 1
  %11 = inttoptr i64 %4 to float*
  %12 = load float, float* %11
  %13 = extractelement <2 x float> %7, i32 0
  %14 = fmul float %13, %12
  %15 = bitcast i8* %2 to float*
  store float %14, float* %15, align 1
  %16 = bitcast <2 x float> %7 to <2 x i32>
  %17 = extractelement <2 x i32> %16, i32 1
  %18 = getelementptr inbounds i8, i8* %2, i64 4
  %19 = bitcast i8* %18 to i32*
  store i32 %17, i32* %19, align 1
  %20 = extractelement <2 x i32> %10, i32 0
  %21 = getelementptr inbounds i8, i8* %2, i64 8
  %22 = bitcast i8* %21 to i32*
  store i32 %20, i32* %22, align 1
  %23 = extractelement <2 x i32> %10, i32 1
  %24 = getelementptr inbounds i8, i8* %2, i64 12
  %25 = bitcast i8* %24 to i32*
  store i32 %23, i32* %25, align 1
  ret %struct.Memory* %0
}

define %struct.Memory* @routine_mulss___rax__rcx_8____xmm0(%struct.State*  dereferenceable(3376), i64, %struct.Memory* ) #19 {
block_400488:
  %3 = getelementptr inbounds %struct.State, %struct.State* %0, i32 0, i32 6
  %4 = getelementptr inbounds %struct.GPR, %struct.GPR* %3, i32 0, i32 33
  %5 = getelementptr inbounds %struct.Reg, %struct.Reg* %4, i32 0, i32 0
  %PC = bitcast %union.anon* %5 to i64*
  %6 = getelementptr inbounds %struct.State, %struct.State* %0, i32 0, i32 6
  %7 = getelementptr inbounds %struct.GPR, %struct.GPR* %6, i32 0, i32 1
  %8 = getelementptr inbounds %struct.Reg, %struct.Reg* %7, i32 0, i32 0
  %RAX = bitcast %union.anon* %8 to i64*
  %9 = getelementptr inbounds %struct.State, %struct.State* %0, i32 0, i32 6
  %10 = getelementptr inbounds %struct.GPR, %struct.GPR* %9, i32 0, i32 5
  %11 = getelementptr inbounds %struct.Reg, %struct.Reg* %10, i32 0, i32 0
  %RCX = bitcast %union.anon* %11 to i64*
  %12 = getelementptr inbounds %struct.State, %struct.State* %0, i32 0, i32 1
  %13 = getelementptr inbounds [32 x %union.VectorReg], [32 x %union.VectorReg]* %12, i64 0, i64 0
  %YMM0 = bitcast %union.VectorReg* %13 to %"class.std::bitset"*
  %14 = bitcast %"class.std::bitset"* %YMM0 to i8*
  %15 = bitcast %"class.std::bitset"* %YMM0 to i8*
  %16 = load i64, i64* %RAX
  %17 = load i64, i64* %RCX
  %18 = mul i64 %17, 8
  %19 = add i64 %18, %16
  %20 = load i64, i64* %PC
  %21 = add i64 %20, 5
  store i64 %21, i64* %PC
  %22 = call %struct.Memory* @_ZN12_GLOBAL__N_1L5MULSSI3VnWI8vec128_tE2VnIS2_E3MVnIS2_EEEP6MemoryS9_R5StateT_T0_T1_(%struct.Memory* %2, %struct.State* %0, i8* %14, i8* %15, i64 %19)
  ret %struct.Memory* %22
}









define internal %struct.Memory* @_ZN12_GLOBAL__N_1L4MOVDI4RVnWI7vec64_tE2VnI8vec128_tEEEP6MemoryS8_R5StateT_T0_(%struct.Memory* readnone returned, %struct.State* nocapture readnone dereferenceable(3376), i64* nocapture, i8* nocapture readonly) #0 {
  %5 = bitcast i8* %3 to i64*
  %6 = load i64, i64* %5, align 1
  %7 = trunc i64 %6 to i32
  %8 = bitcast i64* %2 to [2 x i32]*
  %9 = bitcast i64* %2 to i32*
  store i32 %7, i32* %9, align 1
  %10 = getelementptr inbounds [2 x i32], [2 x i32]* %8, i64 0, i64 1
  store i32 0, i32* %10, align 1
  ret %struct.Memory* %0
}

define %struct.Memory* @routine_movd__xmm0___edx(%struct.State*  dereferenceable(3376), i64, %struct.Memory* ) #19 {
block_400488:
  %3 = getelementptr inbounds %struct.State, %struct.State* %0, i32 0, i32 6
  %4 = getelementptr inbounds %struct.GPR, %struct.GPR* %3, i32 0, i32 33
  %5 = getelementptr inbounds %struct.Reg, %struct.Reg* %4, i32 0, i32 0
  %PC = bitcast %union.anon* %5 to i64*
  %6 = getelementptr inbounds %struct.State, %struct.State* %0, i32 0, i32 6
  %7 = getelementptr inbounds %struct.GPR, %struct.GPR* %6, i32 0, i32 7
  %8 = getelementptr inbounds %struct.Reg, %struct.Reg* %7, i32 0, i32 0
  %RDX = bitcast %union.anon* %8 to i64*
  %9 = getelementptr inbounds %struct.State, %struct.State* %0, i32 0, i32 1
  %10 = getelementptr inbounds [32 x %union.VectorReg], [32 x %union.VectorReg]* %9, i64 0, i64 0
  %XMM0 = bitcast %union.VectorReg* %10 to %union.vec128_t*
  %11 = bitcast %union.vec128_t* %XMM0 to i8*
  %12 = load i64, i64* %PC
  %13 = add i64 %12, 4
  store i64 %13, i64* %PC
  %14 = call %struct.Memory* @_ZN12_GLOBAL__N_1L4MOVDI4RVnWI7vec64_tE2VnI8vec128_tEEEP6MemoryS8_R5StateT_T0_(%struct.Memory* %2, %struct.State* %0, i64* %RDX, i8* %11)
  ret %struct.Memory* %14
}

define internal %struct.Memory* @_ZN12_GLOBAL__N_1L3XORI3RnWImE2RnIjE2InIjEEEP6MemoryS8_R5StateT_T0_T1_(%struct.Memory* readnone returned, %struct.State* nocapture dereferenceable(3376), i64* nocapture, i64, i64) #0 {
  %6 = xor i64 %4, %3
  %7 = trunc i64 %6 to i32
  %8 = and i64 %6, 4294967295
  store i64 %8, i64* %2, align 8
  %9 = getelementptr inbounds %struct.State, %struct.State* %1, i64 0, i32 2, i32 1
  store i8 0, i8* %9, align 1
  %10 = and i32 %7, 255
  %11 = tail call i32 @llvm.ctpop.i32(i32 %10) #22
  %12 = trunc i32 %11 to i8
  %13 = and i8 %12, 1
  %14 = xor i8 %13, 1
  %15 = getelementptr inbounds %struct.State, %struct.State* %1, i64 0, i32 2, i32 3
  store i8 %14, i8* %15, align 1
  %16 = icmp eq i32 %7, 0
  %17 = zext i1 %16 to i8
  %18 = getelementptr inbounds %struct.State, %struct.State* %1, i64 0, i32 2, i32 7
  store i8 %17, i8* %18, align 1
  %19 = lshr i32 %7, 31
  %20 = trunc i32 %19 to i8
  %21 = getelementptr inbounds %struct.State, %struct.State* %1, i64 0, i32 2, i32 9
  store i8 %20, i8* %21, align 1
  %22 = getelementptr inbounds %struct.State, %struct.State* %1, i64 0, i32 2, i32 13
  store i8 0, i8* %22, align 1
  %23 = getelementptr inbounds %struct.State, %struct.State* %1, i64 0, i32 2, i32 5
  store i8 0, i8* %23, align 1
  ret %struct.Memory* %0
}

define %struct.Memory* @routine_xorl__0x80000000___edx(%struct.State*  dereferenceable(3376), i64, %struct.Memory* ) #19 {
block_400488:
  %3 = getelementptr inbounds %struct.State, %struct.State* %0, i32 0, i32 6
  %4 = getelementptr inbounds %struct.GPR, %struct.GPR* %3, i32 0, i32 33
  %5 = getelementptr inbounds %struct.Reg, %struct.Reg* %4, i32 0, i32 0
  %PC = bitcast %union.anon* %5 to i64*
  %6 = getelementptr inbounds %struct.State, %struct.State* %0, i32 0, i32 6
  %7 = getelementptr inbounds %struct.GPR, %struct.GPR* %6, i32 0, i32 7
  %8 = getelementptr inbounds %struct.Reg, %struct.Reg* %7, i32 0, i32 0
  %RDX = bitcast %union.anon* %8 to i64*
  %9 = load i64, i64* %RDX
  %10 = load i64, i64* %PC
  %11 = add i64 %10, 6
  store i64 %11, i64* %PC
  %12 = call %struct.Memory* @_ZN12_GLOBAL__N_1L3XORI3RnWImE2RnIjE2InIjEEEP6MemoryS8_R5StateT_T0_T1_(%struct.Memory* %2, %struct.State* %0, i64* %RDX, i64 %9, i64 -2147483648)
  ret %struct.Memory* %12
}

define internal %struct.Memory* @_ZN12_GLOBAL__N_1L4MOVDI3VnWI8vec128_tE3RVnI7vec32_tEEEP6MemoryS8_R5StateT_T0_(%struct.Memory* readnone returned, %struct.State* nocapture readnone dereferenceable(3376), i8* nocapture, i64) #0 {
  %5 = trunc i64 %3 to i32
  %6 = bitcast i8* %2 to i32*
  store i32 %5, i32* %6, align 1
  %7 = getelementptr inbounds i8, i8* %2, i64 4
  %8 = bitcast i8* %7 to i32*
  store i32 0, i32* %8, align 1
  %9 = getelementptr inbounds i8, i8* %2, i64 8
  %10 = bitcast i8* %9 to i32*
  store i32 0, i32* %10, align 1
  %11 = getelementptr inbounds i8, i8* %2, i64 12
  %12 = bitcast i8* %11 to i32*
  store i32 0, i32* %12, align 1
  ret %struct.Memory* %0
}

define %struct.Memory* @routine_movd__edx___xmm0(%struct.State*  dereferenceable(3376), i64, %struct.Memory* ) #19 {
block_400488:
  %3 = getelementptr inbounds %struct.State, %struct.State* %0, i32 0, i32 6
  %4 = getelementptr inbounds %struct.GPR, %struct.GPR* %3, i32 0, i32 33
  %5 = getelementptr inbounds %struct.Reg, %struct.Reg* %4, i32 0, i32 0
  %PC = bitcast %union.anon* %5 to i64*
  %6 = getelementptr inbounds %struct.State, %struct.State* %0, i32 0, i32 6
  %7 = getelementptr inbounds %struct.GPR, %struct.GPR* %6, i32 0, i32 7
  %8 = getelementptr inbounds %struct.Reg, %struct.Reg* %7, i32 0, i32 0
  %EDX = bitcast %union.anon* %8 to i32*
  %9 = getelementptr inbounds %struct.State, %struct.State* %0, i32 0, i32 1
  %10 = getelementptr inbounds [32 x %union.VectorReg], [32 x %union.VectorReg]* %9, i64 0, i64 0
  %YMM0 = bitcast %union.VectorReg* %10 to %"class.std::bitset"*
  %11 = bitcast %"class.std::bitset"* %YMM0 to i8*
  %12 = load i32, i32* %EDX
  %13 = zext i32 %12 to i64
  %14 = load i64, i64* %PC
  %15 = add i64 %14, 4
  store i64 %15, i64* %PC
  %16 = call %struct.Memory* @_ZN12_GLOBAL__N_1L4MOVDI3VnWI8vec128_tE3RVnI7vec32_tEEEP6MemoryS8_R5StateT_T0_(%struct.Memory* %2, %struct.State* %0, i8* %11, i64 %13)
  ret %struct.Memory* %16
}






define %struct.Memory* @routine_mulss_0x4__rax__rcx_8____xmm0(%struct.State*  dereferenceable(3376), i64, %struct.Memory* ) #19 {
block_400488:
  %3 = getelementptr inbounds %struct.State, %struct.State* %0, i32 0, i32 6
  %4 = getelementptr inbounds %struct.GPR, %struct.GPR* %3, i32 0, i32 33
  %5 = getelementptr inbounds %struct.Reg, %struct.Reg* %4, i32 0, i32 0
  %PC = bitcast %union.anon* %5 to i64*
  %6 = getelementptr inbounds %struct.State, %struct.State* %0, i32 0, i32 6
  %7 = getelementptr inbounds %struct.GPR, %struct.GPR* %6, i32 0, i32 1
  %8 = getelementptr inbounds %struct.Reg, %struct.Reg* %7, i32 0, i32 0
  %RAX = bitcast %union.anon* %8 to i64*
  %9 = getelementptr inbounds %struct.State, %struct.State* %0, i32 0, i32 6
  %10 = getelementptr inbounds %struct.GPR, %struct.GPR* %9, i32 0, i32 5
  %11 = getelementptr inbounds %struct.Reg, %struct.Reg* %10, i32 0, i32 0
  %RCX = bitcast %union.anon* %11 to i64*
  %12 = getelementptr inbounds %struct.State, %struct.State* %0, i32 0, i32 1
  %13 = getelementptr inbounds [32 x %union.VectorReg], [32 x %union.VectorReg]* %12, i64 0, i64 0
  %YMM0 = bitcast %union.VectorReg* %13 to %"class.std::bitset"*
  %14 = bitcast %"class.std::bitset"* %YMM0 to i8*
  %15 = bitcast %"class.std::bitset"* %YMM0 to i8*
  %16 = load i64, i64* %RAX
  %17 = load i64, i64* %RCX
  %18 = mul i64 %17, 8
  %19 = add i64 %16, 4
  %20 = add i64 %19, %18
  %21 = load i64, i64* %PC
  %22 = add i64 %21, 6
  store i64 %22, i64* %PC
  %23 = call %struct.Memory* @_ZN12_GLOBAL__N_1L5MULSSI3VnWI8vec128_tE2VnIS2_E3MVnIS2_EEEP6MemoryS9_R5StateT_T0_T1_(%struct.Memory* %2, %struct.State* %0, i8* %14, i8* %15, i64 %20)
  ret %struct.Memory* %23
}










define %struct.Memory* @routine_addl__0x1___eax(%struct.State*  dereferenceable(3376), i64, %struct.Memory* ) #19 {
block_400488:
  %3 = getelementptr inbounds %struct.State, %struct.State* %0, i32 0, i32 6
  %4 = getelementptr inbounds %struct.GPR, %struct.GPR* %3, i32 0, i32 33
  %5 = getelementptr inbounds %struct.Reg, %struct.Reg* %4, i32 0, i32 0
  %PC = bitcast %union.anon* %5 to i64*
  %6 = getelementptr inbounds %struct.State, %struct.State* %0, i32 0, i32 6
  %7 = getelementptr inbounds %struct.GPR, %struct.GPR* %6, i32 0, i32 1
  %8 = getelementptr inbounds %struct.Reg, %struct.Reg* %7, i32 0, i32 0
  %RAX = bitcast %union.anon* %8 to i64*
  %9 = load i64, i64* %RAX
  %10 = load i64, i64* %PC
  %11 = add i64 %10, 3
  store i64 %11, i64* %PC
  %12 = call %struct.Memory* @_ZN12_GLOBAL__N_1L3ADDI3RnWImE2RnIjE2InIjEEEP6MemoryS8_R5StateT_T0_T1_(%struct.Memory* %2, %struct.State* %0, i64* %RAX, i64 %9, i64 1)
  ret %struct.Memory* %12
}


define %struct.Memory* @routine_movl__eax__MINUS0x28__rbp_(%struct.State*  dereferenceable(3376), i64, %struct.Memory* ) #19 {
block_400488:
  %3 = getelementptr inbounds %struct.State, %struct.State* %0, i32 0, i32 6
  %4 = getelementptr inbounds %struct.GPR, %struct.GPR* %3, i32 0, i32 33
  %5 = getelementptr inbounds %struct.Reg, %struct.Reg* %4, i32 0, i32 0
  %PC = bitcast %union.anon* %5 to i64*
  %6 = getelementptr inbounds %struct.State, %struct.State* %0, i32 0, i32 6
  %7 = getelementptr inbounds %struct.GPR, %struct.GPR* %6, i32 0, i32 1
  %8 = getelementptr inbounds %struct.Reg, %struct.Reg* %7, i32 0, i32 0
  %EAX = bitcast %union.anon* %8 to i32*
  %9 = getelementptr inbounds %struct.State, %struct.State* %0, i32 0, i32 6
  %10 = getelementptr inbounds %struct.GPR, %struct.GPR* %9, i32 0, i32 15
  %11 = getelementptr inbounds %struct.Reg, %struct.Reg* %10, i32 0, i32 0
  %RBP = bitcast %union.anon* %11 to i64*
  %12 = load i64, i64* %RBP
  %13 = sub i64 %12, 40
  %14 = load i32, i32* %EAX
  %15 = zext i32 %14 to i64
  %16 = load i64, i64* %PC
  %17 = add i64 %16, 3
  store i64 %17, i64* %PC
  %18 = call %struct.Memory* @_ZN12_GLOBAL__N_1L3MOVI3MnWIjE2RnIjEEEP6MemoryS6_R5StateT_T0_(%struct.Memory* %2, %struct.State* %0, i64 %13, i64 %15)
  ret %struct.Memory* %18
}


define %struct.Memory* @routine_jmpq_.L_400c6a(%struct.State*  dereferenceable(3376), i64, %struct.Memory*, i64 %rel_off1, i64 %rel_off2) {
block_400488:
  %3 = getelementptr inbounds %struct.State, %struct.State* %0, i32 0, i32 6
  %4 = getelementptr inbounds %struct.GPR, %struct.GPR* %3, i32 0, i32 33
  %5 = getelementptr inbounds %struct.Reg, %struct.Reg* %4, i32 0, i32 0
  %PC = bitcast %union.anon* %5 to i64*
  %6 = load i64, i64* %PC
  %7 = add i64 %6, %rel_off1
  %8 = load i64, i64* %PC
  %9 = add i64 %8, %rel_off2
  store i64 %9, i64* %PC
  %10 = call %struct.Memory* @_ZN12_GLOBAL__N_1L3JMPI2InImEEEP6MemoryS4_R5StateT_(%struct.Memory* %2, %struct.State* %0, i64 %7)
  ret %struct.Memory* %10
}

define internal %struct.Memory* @_ZN12_GLOBAL__N_1L3POPI3RnWImEEEP6MemoryS4_R5StateT_(%struct.Memory*, %struct.State* nocapture dereferenceable(3376), i64* nocapture) #0 {
  %4 = getelementptr inbounds %struct.State, %struct.State* %1, i64 0, i32 6, i32 13, i32 0, i32 0
  %5 = load i64, i64* %4, align 8
  %6 = add i64 %5, 8
  %7 = inttoptr i64 %5 to i64*
  %8 = load i64, i64* %7
  store i64 %8, i64* %2, align 8
  store i64 %6, i64* %4, align 8
  ret %struct.Memory* %0
}

define %struct.Memory* @routine_popq__rbp(%struct.State*  dereferenceable(3376), i64, %struct.Memory* ) #19 {
block_400488:
  %3 = getelementptr inbounds %struct.State, %struct.State* %0, i32 0, i32 6
  %4 = getelementptr inbounds %struct.GPR, %struct.GPR* %3, i32 0, i32 33
  %5 = getelementptr inbounds %struct.Reg, %struct.Reg* %4, i32 0, i32 0
  %PC = bitcast %union.anon* %5 to i64*
  %6 = getelementptr inbounds %struct.State, %struct.State* %0, i32 0, i32 6
  %7 = getelementptr inbounds %struct.GPR, %struct.GPR* %6, i32 0, i32 15
  %8 = getelementptr inbounds %struct.Reg, %struct.Reg* %7, i32 0, i32 0
  %RBP = bitcast %union.anon* %8 to i64*
  %9 = load i64, i64* %PC
  %10 = add i64 %9, 1
  store i64 %10, i64* %PC
  %11 = call %struct.Memory* @_ZN12_GLOBAL__N_1L3POPI3RnWImEEEP6MemoryS4_R5StateT_(%struct.Memory* %2, %struct.State* %0, i64* %RBP)
  ret %struct.Memory* %11
}

define internal %struct.Memory* @_ZN12_GLOBAL__N_1L3RETEP6MemoryR5State(%struct.Memory* returned, %struct.State* nocapture dereferenceable(3376)) #0 {
  %3 = getelementptr inbounds %struct.State, %struct.State* %1, i64 0, i32 6, i32 33, i32 0, i32 0
  %4 = getelementptr inbounds %struct.State, %struct.State* %1, i64 0, i32 6, i32 13, i32 0, i32 0
  %5 = load i64, i64* %4, align 8
  %6 = inttoptr i64 %5 to i64*
  %7 = load i64, i64* %6
  store i64 %7, i64* %3, align 8
  %8 = add i64 %5, 8
  store i64 %8, i64* %4, align 8
  ret %struct.Memory* %0
}

define %struct.Memory* @routine_retq(%struct.State*  dereferenceable(3376), i64, %struct.Memory* ) #19 {
block_400488:
  %3 = getelementptr inbounds %struct.State, %struct.State* %0, i32 0, i32 6
  %4 = getelementptr inbounds %struct.GPR, %struct.GPR* %3, i32 0, i32 33
  %5 = getelementptr inbounds %struct.Reg, %struct.Reg* %4, i32 0, i32 0
  %PC = bitcast %union.anon* %5 to i64*
  %6 = load i64, i64* %PC
  %7 = add i64 %6, 1
  store i64 %7, i64* %PC
  %8 = call %struct.Memory* @_ZN12_GLOBAL__N_1L3RETEP6MemoryR5State(%struct.Memory* %2, %struct.State* %0)
  ret %struct.Memory* %8
}

