; ModuleID = 'test.bc'
source_filename = "llvm-link"
target datalayout = "e-m:e-i64:64-f80:128-n8:16:32:64-S128"
target triple = "x86_64-pc-linux-gnu-elf"
%union.anon = type { i64 }
%seg_400388__init_type = type <{ [23 x i8] }>
%seg_4003a0__text_type = type <{ [354 x i8] }>
%seg_400504__fini_type = type <{ [9 x i8] }>
%seg_400510__rodata_type = type <{ [4 x i8] }>
%seg_400514__eh_frame_hdr_type = type <{ [52 x i8] }>
%seg_400548__eh_frame_type = type <{ [208 x i8] }>
%seg_600e40__init_array_type = type <{ i64, i64 }>
%seg_601018__data_type = type <{ [16 x i8] }>
%__bss_start_type = type <{ [8 x i8] }>
%struct.State = type { %struct.ArchState, [32 x %union.VectorReg], %struct.ArithFlags, %union.anon, %struct.Segments, %struct.AddressSpace, %struct.GPR, %struct.X87Stack, %struct.MMX, %struct.FPUStatusFlags, %union.anon, %union.FPU, %struct.SegmentCaches }
%struct.ArchState = type { i32, i32, %union.anon }
%union.VectorReg = type { %union.vec512_t }
%union.vec512_t = type { %struct.uint64v8_t }
%struct.uint64v8_t = type { [8 x i64] }
%struct.ArithFlags = type { i8, i8, i8, i8, i8, i8, i8, i8, i8, i8, i8, i8, i8, i8, i8, i8 }
%struct.Segments = type { i16, %union.SegmentSelector, i16, %union.SegmentSelector, i16, %union.SegmentSelector, i16, %union.SegmentSelector, i16, %union.SegmentSelector, i16, %union.SegmentSelector }
%union.SegmentSelector = type { i16 }
%struct.AddressSpace = type { i64, %struct.Reg, i64, %struct.Reg, i64, %struct.Reg, i64, %struct.Reg, i64, %struct.Reg, i64, %struct.Reg }
%struct.Reg = type { %union.anon }
%struct.GPR = type { i64, %struct.Reg, i64, %struct.Reg, i64, %struct.Reg, i64, %struct.Reg, i64, %struct.Reg, i64, %struct.Reg, i64, %struct.Reg, i64, %struct.Reg, i64, %struct.Reg, i64, %struct.Reg, i64, %struct.Reg, i64, %struct.Reg, i64, %struct.Reg, i64, %struct.Reg, i64, %struct.Reg, i64, %struct.Reg, i64, %struct.Reg }
%struct.X87Stack = type { [8 x %struct.anon.3] }
%struct.anon.3 = type { i64, double }
%struct.MMX = type { [8 x %struct.anon.4] }
%struct.anon.4 = type { i64, %union.vec64_t }
%union.vec64_t = type { %struct.uint64v1_t }
%struct.uint64v1_t = type { [1 x i64] }
%struct.FPUStatusFlags = type { i8, i8, i8, i8, i8, i8, i8, i8, i8, i8, i8, i8, i8, i8, i8, i8, i8, i8, i8, i8, [4 x i8] }
%union.FPU = type { %struct.anon.13 }
%struct.anon.13 = type { %struct.FpuFXSAVE, [96 x i8] }
%struct.FpuFXSAVE = type { %union.SegmentSelector, %union.SegmentSelector, %union.FPUAbridgedTagWord, i8, i16, i32, %union.SegmentSelector, i16, i32, %union.SegmentSelector, i16, %union.FPUControlStatus, %union.FPUControlStatus, [8 x %struct.FPUStackElem], [16 x %union.vec128_t] }
%union.FPUAbridgedTagWord = type { i8 }
%union.FPUControlStatus = type { i32 }
%struct.FPUStackElem = type { %union.anon.11, [6 x i8] }
%union.anon.11 = type { %struct.float80_t }
%struct.float80_t = type { [10 x i8] }
%union.vec128_t = type { %struct.uint128v1_t }
%struct.uint128v1_t = type { [1 x i128] }
%struct.SegmentCaches = type { %struct.SegmentShadow, %struct.SegmentShadow, %struct.SegmentShadow, %struct.SegmentShadow, %struct.SegmentShadow, %struct.SegmentShadow }
%struct.SegmentShadow = type { %union.anon, i32, i32 }
%struct.Memory = type opaque
%struct.uint8v32_t = type { [32 x i8] }
%struct.anon.2 = type { i8, i8 }
%struct.int32v8_t = type { [8 x i32] }
%struct.float32v8_t = type { [8 x float] }
%struct.uint8v8_t = type { [8 x i8] }
%struct.uint8v16_t = type { [16 x i8] }
%struct.uint16v8_t = type { [8 x i16] }
%struct.uint8v4_t = type { [4 x i8] }
%struct.int16v4_t = type { [4 x i16] }
%struct.int32v4_t = type { [4 x i32] }
%struct.uint64v2_t = type { [2 x i64] }
%struct.uint64v4_t = type { [4 x i64] }
%struct.uint128v2_t = type { [2 x i128] }
%struct.uint16v16_t = type { [16 x i16] }
%struct.float64v4_t = type { [4 x double] }
%"class.(anonymous namespace)::BitMatrix" = type { %"class.std::bitset", [16 x [16 x i8]] }
%"class.std::bitset" = type { %struct.uint64v4_t }
%struct.bcd80_t = type { [9 x %union.FPUAbridgedTagWord], %union.FPUAbridgedTagWord }
%struct.FpuFSAVE = type { %union.SegmentSelector, i16, %union.SegmentSelector, i16, %union.SegmentSelector, i16, i32, %union.SegmentSelector, i16, i32, %union.SegmentSelector, i16, [8 x %struct.FPUStackElem] }
%struct.anon.5 = type { i32, i32 }
@switch.table = private unnamed_addr constant [4 x i32] [i32 2048, i32 3072, i32 0, i32 1024]
@DR0 = external global i64, align 8
@DR1 = external global i64, align 8
@DR2 = external global i64, align 8
@DR3 = external global i64, align 8
@DR4 = external global i64, align 8
@DR5 = external global i64, align 8
@DR6 = external global i64, align 8
@DR7 = external global i64, align 8
@gCR0 = external global %union.anon, align 1
@gCR1 = external global %union.anon, align 1
@gCR2 = external global %union.anon, align 1
@gCR3 = external global %union.anon, align 1
@gCR4 = external global %union.anon, align 1
@gCR8 = external global %union.anon, align 1
@seg_400388__init = internal constant %seg_400388__init_type <{ [23 x i8] c"H\83\EC\08H\8B\05e\0C \00H\85\C0t\02\FF\D0H\83\C4\08\C3" }>
@seg_4003a0__text = internal constant %seg_4003a0__text_type <{ [354 x i8] c"1\EDI\89\D1^H\89\E2H\83\E4\F0PTI\C7\C0\00\05@\00H\C7\C1\90\04@\00H\C7\C7\88\04@\00\FF\15&\0C \00\F4\0F\1FD\00\00\F3\C3f.\0F\1F\84\00\00\00\00\00\0F\1F@\00U\B8(\10`\00H=(\10`\00H\89\E5t\17\B8\00\00\00\00H\85\C0t\0D]\BF(\10`\00\FF\E0\0F\1FD\00\00]\C3f\0F\1FD\00\00\BE(\10`\00UH\81\EE(\10`\00H\89\E5H\C1\FE\03H\89\F0H\C1\E8?H\01\C6H\D1\FEt\15\B8\00\00\00\00H\85\C0t\0B]\BF(\10`\00\FF\E0\0F\1F\00]\C3f\0F\1FD\00\00\80=\D1\0B \00\00u\17UH\89\E5\E8~\FF\FF\FF\C6\05\BF\0B \00\01]\C3\0F\1FD\00\00\F3\C3\0F\1F@\00f.\0F\1F\84\00\00\00\00\00UH\89\E5]\EB\89\90U\C3f\0F\1FD\00\00AWAVI\89\D7AUATL\8D%\9E\09 \00UH\8D-\9E\09 \00SA\89\FDI\89\F6L)\E5H\83\EC\08H\C1\FD\03\E8\C7\FE\FF\FFH\85\EDt 1\DB\0F\1F\84\00\00\00\00\00L\89\FAL\89\F6D\89\EFA\FF\14\DCH\83\C3\01H9\DDu\EAH\83\C4\08[]A\5CA]A^A_\C3\90f.\0F\1F\84\00\00\00\00\00\F3\C3" }>
@seg_400504__fini = internal constant %seg_400504__fini_type <{ [9 x i8] c"H\83\EC\08H\83\C4\08\C3" }>
@seg_400510__rodata = internal constant %seg_400510__rodata_type <{ [4 x i8] c"\01\00\02\00" }>
@seg_400514__eh_frame_hdr = internal constant %seg_400514__eh_frame_hdr_type <{ [52 x i8] c"\01\1B\03;0\00\00\00\05\00\00\00\8C\FE\FF\FFL\00\00\00\BC\FE\FF\FFx\00\00\00t\FF\FF\FF\8C\00\00\00|\FF\FF\FF\A4\00\00\00\EC\FF\FF\FF\EC\00\00\00" }>
@seg_400548__eh_frame = internal constant %seg_400548__eh_frame_type <{ [208 x i8] c"\14\00\00\00\00\00\00\00\01zR\00\01x\10\01\1B\0C\07\08\90\01\07\10\10\00\00\00\1C\00\00\008\FE\FF\FF+\00\00\00\00\00\00\00\14\00\00\00\00\00\00\00\01zR\00\01x\10\01\1B\0C\07\08\90\01\00\00\10\00\00\00\1C\00\00\00<\FE\FF\FF\02\00\00\00\00\00\00\00\14\00\00\000\00\00\00\E0\FE\FF\FF\02\00\00\00\00\00\00\00\00\00\00\00D\00\00\00H\00\00\00\D0\FE\FF\FFe\00\00\00\00B\0E\10\8F\02B\0E\18\8E\03E\0E \8D\04B\0E(\8C\05H\0E0\86\06H\0E8\83\07M\0E@r\0E8A\0E0A\0E(B\0E B\0E\18B\0E\10B\0E\08\00\10\00\00\00\90\00\00\00\F8\FE\FF\FF\02\00\00\00\00\00\00\00\00\00\00\00" }>
@seg_601018__data = internal global %seg_601018__data_type zeroinitializer
@__bss_start = global %__bss_start_type zeroinitializer
@0 = internal global i1 false

; Function Declaraions
declare i32 @llvm.ctpop.i32(i32) #2
declare %struct.Memory* @__remill_error(%struct.State* dereferenceable(3376), i64, %struct.Memory*)


; Data Access Globals


define %struct.Memory* @kernel_gemver_StrictFP(%struct.State* noalias , i64, %struct.Memory* noalias) alwaysinline  {
entry:
  %3 = getelementptr inbounds %struct.State, %struct.State* %0, i64 0, i32 6, i32 33, i32 0, i32 0
  store i64 %1, i64* %3, align 8
  %BRANCH_TAKEN = alloca i8, align 1
  store i8 0, i8* %BRANCH_TAKEN, align 1
  %MEMORY = alloca %struct.Memory*, align 8
  store %struct.Memory* %2, %struct.Memory** %MEMORY, align 8

  ; Code: .kernel_gemver_StrictFP:	 RIP: 401030	 Bytes: 0
  ; Code: pushq %rbp	 RIP: 401030	 Bytes: 1
  %loadMem_401030 = load %struct.Memory*, %struct.Memory** %MEMORY
  %call_401030 = call %struct.Memory* @routine_pushq__rbp(%struct.State* %0, i64  0, %struct.Memory* %loadMem_401030)
  store %struct.Memory* %call_401030, %struct.Memory** %MEMORY

  ; Code: movq %rsp, %rbp	 RIP: 401031	 Bytes: 3
  %loadMem_401031 = load %struct.Memory*, %struct.Memory** %MEMORY
  %call_401031 = call %struct.Memory* @routine_movq__rsp___rbp(%struct.State* %0, i64  0, %struct.Memory* %loadMem_401031)
  store %struct.Memory* %call_401031, %struct.Memory** %MEMORY

  ; Code: pushq %r14	 RIP: 401034	 Bytes: 2
  %loadMem_401034 = load %struct.Memory*, %struct.Memory** %MEMORY
  %call_401034 = call %struct.Memory* @routine_pushq__r14(%struct.State* %0, i64  0, %struct.Memory* %loadMem_401034)
  store %struct.Memory* %call_401034, %struct.Memory** %MEMORY

  ; Code: pushq %rbx	 RIP: 401036	 Bytes: 1
  %loadMem_401036 = load %struct.Memory*, %struct.Memory** %MEMORY
  %call_401036 = call %struct.Memory* @routine_pushq__rbx(%struct.State* %0, i64  0, %struct.Memory* %loadMem_401036)
  store %struct.Memory* %call_401036, %struct.Memory** %MEMORY

  ; Code: movq 0x30(%rbp), %rax	 RIP: 401037	 Bytes: 4
  %loadMem_401037 = load %struct.Memory*, %struct.Memory** %MEMORY
  %call_401037 = call %struct.Memory* @routine_movq_0x30__rbp____rax(%struct.State* %0, i64  0, %struct.Memory* %loadMem_401037)
  store %struct.Memory* %call_401037, %struct.Memory** %MEMORY

  ; Code: movq 0x28(%rbp), %r10	 RIP: 40103b	 Bytes: 4
  %loadMem_40103b = load %struct.Memory*, %struct.Memory** %MEMORY
  %call_40103b = call %struct.Memory* @routine_movq_0x28__rbp____r10(%struct.State* %0, i64  0, %struct.Memory* %loadMem_40103b)
  store %struct.Memory* %call_40103b, %struct.Memory** %MEMORY

  ; Code: movq 0x20(%rbp), %r11	 RIP: 40103f	 Bytes: 4
  %loadMem_40103f = load %struct.Memory*, %struct.Memory** %MEMORY
  %call_40103f = call %struct.Memory* @routine_movq_0x20__rbp____r11(%struct.State* %0, i64  0, %struct.Memory* %loadMem_40103f)
  store %struct.Memory* %call_40103f, %struct.Memory** %MEMORY

  ; Code: movq 0x18(%rbp), %rbx	 RIP: 401043	 Bytes: 4
  %loadMem_401043 = load %struct.Memory*, %struct.Memory** %MEMORY
  %call_401043 = call %struct.Memory* @routine_movq_0x18__rbp____rbx(%struct.State* %0, i64  0, %struct.Memory* %loadMem_401043)
  store %struct.Memory* %call_401043, %struct.Memory** %MEMORY

  ; Code: movq 0x10(%rbp), %r14	 RIP: 401047	 Bytes: 4
  %loadMem_401047 = load %struct.Memory*, %struct.Memory** %MEMORY
  %call_401047 = call %struct.Memory* @routine_movq_0x10__rbp____r14(%struct.State* %0, i64  0, %struct.Memory* %loadMem_401047)
  store %struct.Memory* %call_401047, %struct.Memory** %MEMORY

  ; Code: movl %edi, -0x14(%rbp)	 RIP: 40104b	 Bytes: 3
  %loadMem_40104b = load %struct.Memory*, %struct.Memory** %MEMORY
  %call_40104b = call %struct.Memory* @routine_movl__edi__MINUS0x14__rbp_(%struct.State* %0, i64  0, %struct.Memory* %loadMem_40104b)
  store %struct.Memory* %call_40104b, %struct.Memory** %MEMORY

  ; Code: movsd %xmm0, -0x20(%rbp)	 RIP: 40104e	 Bytes: 5
  %loadMem_40104e = load %struct.Memory*, %struct.Memory** %MEMORY
  %call_40104e = call %struct.Memory* @routine_movsd__xmm0__MINUS0x20__rbp_(%struct.State* %0, i64  0, %struct.Memory* %loadMem_40104e)
  store %struct.Memory* %call_40104e, %struct.Memory** %MEMORY

  ; Code: movsd %xmm1, -0x28(%rbp)	 RIP: 401053	 Bytes: 5
  %loadMem_401053 = load %struct.Memory*, %struct.Memory** %MEMORY
  %call_401053 = call %struct.Memory* @routine_movsd__xmm1__MINUS0x28__rbp_(%struct.State* %0, i64  0, %struct.Memory* %loadMem_401053)
  store %struct.Memory* %call_401053, %struct.Memory** %MEMORY

  ; Code: movq %rsi, -0x30(%rbp)	 RIP: 401058	 Bytes: 4
  %loadMem_401058 = load %struct.Memory*, %struct.Memory** %MEMORY
  %call_401058 = call %struct.Memory* @routine_movq__rsi__MINUS0x30__rbp_(%struct.State* %0, i64  0, %struct.Memory* %loadMem_401058)
  store %struct.Memory* %call_401058, %struct.Memory** %MEMORY

  ; Code: movq %rdx, -0x38(%rbp)	 RIP: 40105c	 Bytes: 4
  %loadMem_40105c = load %struct.Memory*, %struct.Memory** %MEMORY
  %call_40105c = call %struct.Memory* @routine_movq__rdx__MINUS0x38__rbp_(%struct.State* %0, i64  0, %struct.Memory* %loadMem_40105c)
  store %struct.Memory* %call_40105c, %struct.Memory** %MEMORY

  ; Code: movq %rcx, -0x40(%rbp)	 RIP: 401060	 Bytes: 4
  %loadMem_401060 = load %struct.Memory*, %struct.Memory** %MEMORY
  %call_401060 = call %struct.Memory* @routine_movq__rcx__MINUS0x40__rbp_(%struct.State* %0, i64  0, %struct.Memory* %loadMem_401060)
  store %struct.Memory* %call_401060, %struct.Memory** %MEMORY

  ; Code: movq %r8, -0x48(%rbp)	 RIP: 401064	 Bytes: 4
  %loadMem_401064 = load %struct.Memory*, %struct.Memory** %MEMORY
  %call_401064 = call %struct.Memory* @routine_movq__r8__MINUS0x48__rbp_(%struct.State* %0, i64  0, %struct.Memory* %loadMem_401064)
  store %struct.Memory* %call_401064, %struct.Memory** %MEMORY

  ; Code: movq %r9, -0x50(%rbp)	 RIP: 401068	 Bytes: 4
  %loadMem_401068 = load %struct.Memory*, %struct.Memory** %MEMORY
  %call_401068 = call %struct.Memory* @routine_movq__r9__MINUS0x50__rbp_(%struct.State* %0, i64  0, %struct.Memory* %loadMem_401068)
  store %struct.Memory* %call_401068, %struct.Memory** %MEMORY

  ; Code: movq %r14, -0x58(%rbp)	 RIP: 40106c	 Bytes: 4
  %loadMem_40106c = load %struct.Memory*, %struct.Memory** %MEMORY
  %call_40106c = call %struct.Memory* @routine_movq__r14__MINUS0x58__rbp_(%struct.State* %0, i64  0, %struct.Memory* %loadMem_40106c)
  store %struct.Memory* %call_40106c, %struct.Memory** %MEMORY

  ; Code: movq %rbx, -0x60(%rbp)	 RIP: 401070	 Bytes: 4
  %loadMem_401070 = load %struct.Memory*, %struct.Memory** %MEMORY
  %call_401070 = call %struct.Memory* @routine_movq__rbx__MINUS0x60__rbp_(%struct.State* %0, i64  0, %struct.Memory* %loadMem_401070)
  store %struct.Memory* %call_401070, %struct.Memory** %MEMORY

  ; Code: movq %r11, -0x68(%rbp)	 RIP: 401074	 Bytes: 4
  %loadMem_401074 = load %struct.Memory*, %struct.Memory** %MEMORY
  %call_401074 = call %struct.Memory* @routine_movq__r11__MINUS0x68__rbp_(%struct.State* %0, i64  0, %struct.Memory* %loadMem_401074)
  store %struct.Memory* %call_401074, %struct.Memory** %MEMORY

  ; Code: movq %r10, -0x70(%rbp)	 RIP: 401078	 Bytes: 4
  %loadMem_401078 = load %struct.Memory*, %struct.Memory** %MEMORY
  %call_401078 = call %struct.Memory* @routine_movq__r10__MINUS0x70__rbp_(%struct.State* %0, i64  0, %struct.Memory* %loadMem_401078)
  store %struct.Memory* %call_401078, %struct.Memory** %MEMORY

  ; Code: movq %rax, -0x78(%rbp)	 RIP: 40107c	 Bytes: 4
  %loadMem_40107c = load %struct.Memory*, %struct.Memory** %MEMORY
  %call_40107c = call %struct.Memory* @routine_movq__rax__MINUS0x78__rbp_(%struct.State* %0, i64  0, %struct.Memory* %loadMem_40107c)
  store %struct.Memory* %call_40107c, %struct.Memory** %MEMORY

  ; Code: movl $0x0, -0x7c(%rbp)	 RIP: 401080	 Bytes: 7
  %loadMem_401080 = load %struct.Memory*, %struct.Memory** %MEMORY
  %call_401080 = call %struct.Memory* @routine_movl__0x0__MINUS0x7c__rbp_(%struct.State* %0, i64  0, %struct.Memory* %loadMem_401080)
  store %struct.Memory* %call_401080, %struct.Memory** %MEMORY

  ; Code: .L_401087:	 RIP: 401087	 Bytes: 0
  br label %block_.L_401087
block_.L_401087:

  ; Code: movl -0x7c(%rbp), %eax	 RIP: 401087	 Bytes: 3
  %loadMem_401087 = load %struct.Memory*, %struct.Memory** %MEMORY
  %call_401087 = call %struct.Memory* @routine_movl_MINUS0x7c__rbp____eax(%struct.State* %0, i64  0, %struct.Memory* %loadMem_401087)
  store %struct.Memory* %call_401087, %struct.Memory** %MEMORY

  ; Code: cmpl -0x14(%rbp), %eax	 RIP: 40108a	 Bytes: 3
  %loadMem_40108a = load %struct.Memory*, %struct.Memory** %MEMORY
  %call_40108a = call %struct.Memory* @routine_cmpl_MINUS0x14__rbp____eax(%struct.State* %0, i64  0, %struct.Memory* %loadMem_40108a)
  store %struct.Memory* %call_40108a, %struct.Memory** %MEMORY

  ; Code: jge .L_401139	 RIP: 40108d	 Bytes: 6
  %loadMem_40108d = load %struct.Memory*, %struct.Memory** %MEMORY
  %call_40108d = call %struct.Memory* @routine_jge_.L_401139(%struct.State* %0, i64  0, %struct.Memory* %loadMem_40108d, i8* %BRANCH_TAKEN, i64 172, i64 6, i64 6)
  store %struct.Memory* %call_40108d, %struct.Memory** %MEMORY

  %loadBr_40108d = load i8, i8* %BRANCH_TAKEN
  %cmpBr_40108d = icmp eq i8 %loadBr_40108d, 1
  br i1 %cmpBr_40108d, label %block_.L_401139, label %block_401093

block_401093:
  ; Code: movl $0x0, -0x80(%rbp)	 RIP: 401093	 Bytes: 7
  %loadMem_401093 = load %struct.Memory*, %struct.Memory** %MEMORY
  %call_401093 = call %struct.Memory* @routine_movl__0x0__MINUS0x80__rbp_(%struct.State* %0, i64  0, %struct.Memory* %loadMem_401093)
  store %struct.Memory* %call_401093, %struct.Memory** %MEMORY

  ; Code: .L_40109a:	 RIP: 40109a	 Bytes: 0
  br label %block_.L_40109a
block_.L_40109a:

  ; Code: movl -0x80(%rbp), %eax	 RIP: 40109a	 Bytes: 3
  %loadMem_40109a = load %struct.Memory*, %struct.Memory** %MEMORY
  %call_40109a = call %struct.Memory* @routine_movl_MINUS0x80__rbp____eax(%struct.State* %0, i64  0, %struct.Memory* %loadMem_40109a)
  store %struct.Memory* %call_40109a, %struct.Memory** %MEMORY

  ; Code: cmpl -0x14(%rbp), %eax	 RIP: 40109d	 Bytes: 3
  %loadMem_40109d = load %struct.Memory*, %struct.Memory** %MEMORY
  %call_40109d = call %struct.Memory* @routine_cmpl_MINUS0x14__rbp____eax(%struct.State* %0, i64  0, %struct.Memory* %loadMem_40109d)
  store %struct.Memory* %call_40109d, %struct.Memory** %MEMORY

  ; Code: jge .L_401126	 RIP: 4010a0	 Bytes: 6
  %loadMem_4010a0 = load %struct.Memory*, %struct.Memory** %MEMORY
  %call_4010a0 = call %struct.Memory* @routine_jge_.L_401126(%struct.State* %0, i64  0, %struct.Memory* %loadMem_4010a0, i8* %BRANCH_TAKEN, i64 134, i64 6, i64 6)
  store %struct.Memory* %call_4010a0, %struct.Memory** %MEMORY

  %loadBr_4010a0 = load i8, i8* %BRANCH_TAKEN
  %cmpBr_4010a0 = icmp eq i8 %loadBr_4010a0, 1
  br i1 %cmpBr_4010a0, label %block_.L_401126, label %block_4010a6

block_4010a6:
  ; Code: movq -0x30(%rbp), %rax	 RIP: 4010a6	 Bytes: 4
  %loadMem_4010a6 = load %struct.Memory*, %struct.Memory** %MEMORY
  %call_4010a6 = call %struct.Memory* @routine_movq_MINUS0x30__rbp____rax(%struct.State* %0, i64  0, %struct.Memory* %loadMem_4010a6)
  store %struct.Memory* %call_4010a6, %struct.Memory** %MEMORY

  ; Code: movslq -0x7c(%rbp), %rcx	 RIP: 4010aa	 Bytes: 4
  %loadMem_4010aa = load %struct.Memory*, %struct.Memory** %MEMORY
  %call_4010aa = call %struct.Memory* @routine_movslq_MINUS0x7c__rbp____rcx(%struct.State* %0, i64  0, %struct.Memory* %loadMem_4010aa)
  store %struct.Memory* %call_4010aa, %struct.Memory** %MEMORY

  ; Code: imulq $0x7d00, %rcx, %rcx	 RIP: 4010ae	 Bytes: 7
  %loadMem_4010ae = load %struct.Memory*, %struct.Memory** %MEMORY
  %call_4010ae = call %struct.Memory* @routine_imulq__0x7d00___rcx___rcx(%struct.State* %0, i64  0, %struct.Memory* %loadMem_4010ae)
  store %struct.Memory* %call_4010ae, %struct.Memory** %MEMORY

  ; Code: addq %rcx, %rax	 RIP: 4010b5	 Bytes: 3
  %loadMem_4010b5 = load %struct.Memory*, %struct.Memory** %MEMORY
  %call_4010b5 = call %struct.Memory* @routine_addq__rcx___rax(%struct.State* %0, i64  0, %struct.Memory* %loadMem_4010b5)
  store %struct.Memory* %call_4010b5, %struct.Memory** %MEMORY

  ; Code: movslq -0x80(%rbp), %rcx	 RIP: 4010b8	 Bytes: 4
  %loadMem_4010b8 = load %struct.Memory*, %struct.Memory** %MEMORY
  %call_4010b8 = call %struct.Memory* @routine_movslq_MINUS0x80__rbp____rcx(%struct.State* %0, i64  0, %struct.Memory* %loadMem_4010b8)
  store %struct.Memory* %call_4010b8, %struct.Memory** %MEMORY

  ; Code: movsd (%rax,%rcx,8), %xmm0	 RIP: 4010bc	 Bytes: 5
  %loadMem_4010bc = load %struct.Memory*, %struct.Memory** %MEMORY
  %call_4010bc = call %struct.Memory* @routine_movsd___rax__rcx_8____xmm0(%struct.State* %0, i64  0, %struct.Memory* %loadMem_4010bc)
  store %struct.Memory* %call_4010bc, %struct.Memory** %MEMORY

  ; Code: movq -0x40(%rbp), %rax	 RIP: 4010c1	 Bytes: 4
  %loadMem_4010c1 = load %struct.Memory*, %struct.Memory** %MEMORY
  %call_4010c1 = call %struct.Memory* @routine_movq_MINUS0x40__rbp____rax(%struct.State* %0, i64  0, %struct.Memory* %loadMem_4010c1)
  store %struct.Memory* %call_4010c1, %struct.Memory** %MEMORY

  ; Code: movslq -0x7c(%rbp), %rcx	 RIP: 4010c5	 Bytes: 4
  %loadMem_4010c5 = load %struct.Memory*, %struct.Memory** %MEMORY
  %call_4010c5 = call %struct.Memory* @routine_movslq_MINUS0x7c__rbp____rcx(%struct.State* %0, i64  0, %struct.Memory* %loadMem_4010c5)
  store %struct.Memory* %call_4010c5, %struct.Memory** %MEMORY

  ; Code: movsd (%rax,%rcx,8), %xmm1	 RIP: 4010c9	 Bytes: 5
  %loadMem_4010c9 = load %struct.Memory*, %struct.Memory** %MEMORY
  %call_4010c9 = call %struct.Memory* @routine_movsd___rax__rcx_8____xmm1(%struct.State* %0, i64  0, %struct.Memory* %loadMem_4010c9)
  store %struct.Memory* %call_4010c9, %struct.Memory** %MEMORY

  ; Code: movq -0x48(%rbp), %rax	 RIP: 4010ce	 Bytes: 4
  %loadMem_4010ce = load %struct.Memory*, %struct.Memory** %MEMORY
  %call_4010ce = call %struct.Memory* @routine_movq_MINUS0x48__rbp____rax(%struct.State* %0, i64  0, %struct.Memory* %loadMem_4010ce)
  store %struct.Memory* %call_4010ce, %struct.Memory** %MEMORY

  ; Code: movslq -0x80(%rbp), %rcx	 RIP: 4010d2	 Bytes: 4
  %loadMem_4010d2 = load %struct.Memory*, %struct.Memory** %MEMORY
  %call_4010d2 = call %struct.Memory* @routine_movslq_MINUS0x80__rbp____rcx(%struct.State* %0, i64  0, %struct.Memory* %loadMem_4010d2)
  store %struct.Memory* %call_4010d2, %struct.Memory** %MEMORY

  ; Code: mulsd (%rax,%rcx,8), %xmm1	 RIP: 4010d6	 Bytes: 5
  %loadMem_4010d6 = load %struct.Memory*, %struct.Memory** %MEMORY
  %call_4010d6 = call %struct.Memory* @routine_mulsd___rax__rcx_8____xmm1(%struct.State* %0, i64  0, %struct.Memory* %loadMem_4010d6)
  store %struct.Memory* %call_4010d6, %struct.Memory** %MEMORY

  ; Code: addsd %xmm1, %xmm0	 RIP: 4010db	 Bytes: 4
  %loadMem_4010db = load %struct.Memory*, %struct.Memory** %MEMORY
  %call_4010db = call %struct.Memory* @routine_addsd__xmm1___xmm0(%struct.State* %0, i64  0, %struct.Memory* %loadMem_4010db)
  store %struct.Memory* %call_4010db, %struct.Memory** %MEMORY

  ; Code: movq -0x50(%rbp), %rax	 RIP: 4010df	 Bytes: 4
  %loadMem_4010df = load %struct.Memory*, %struct.Memory** %MEMORY
  %call_4010df = call %struct.Memory* @routine_movq_MINUS0x50__rbp____rax(%struct.State* %0, i64  0, %struct.Memory* %loadMem_4010df)
  store %struct.Memory* %call_4010df, %struct.Memory** %MEMORY

  ; Code: movslq -0x7c(%rbp), %rcx	 RIP: 4010e3	 Bytes: 4
  %loadMem_4010e3 = load %struct.Memory*, %struct.Memory** %MEMORY
  %call_4010e3 = call %struct.Memory* @routine_movslq_MINUS0x7c__rbp____rcx(%struct.State* %0, i64  0, %struct.Memory* %loadMem_4010e3)
  store %struct.Memory* %call_4010e3, %struct.Memory** %MEMORY

  ; Code: movsd (%rax,%rcx,8), %xmm1	 RIP: 4010e7	 Bytes: 5
  %loadMem_4010e7 = load %struct.Memory*, %struct.Memory** %MEMORY
  %call_4010e7 = call %struct.Memory* @routine_movsd___rax__rcx_8____xmm1(%struct.State* %0, i64  0, %struct.Memory* %loadMem_4010e7)
  store %struct.Memory* %call_4010e7, %struct.Memory** %MEMORY

  ; Code: movq -0x58(%rbp), %rax	 RIP: 4010ec	 Bytes: 4
  %loadMem_4010ec = load %struct.Memory*, %struct.Memory** %MEMORY
  %call_4010ec = call %struct.Memory* @routine_movq_MINUS0x58__rbp____rax(%struct.State* %0, i64  0, %struct.Memory* %loadMem_4010ec)
  store %struct.Memory* %call_4010ec, %struct.Memory** %MEMORY

  ; Code: movslq -0x80(%rbp), %rcx	 RIP: 4010f0	 Bytes: 4
  %loadMem_4010f0 = load %struct.Memory*, %struct.Memory** %MEMORY
  %call_4010f0 = call %struct.Memory* @routine_movslq_MINUS0x80__rbp____rcx(%struct.State* %0, i64  0, %struct.Memory* %loadMem_4010f0)
  store %struct.Memory* %call_4010f0, %struct.Memory** %MEMORY

  ; Code: mulsd (%rax,%rcx,8), %xmm1	 RIP: 4010f4	 Bytes: 5
  %loadMem_4010f4 = load %struct.Memory*, %struct.Memory** %MEMORY
  %call_4010f4 = call %struct.Memory* @routine_mulsd___rax__rcx_8____xmm1(%struct.State* %0, i64  0, %struct.Memory* %loadMem_4010f4)
  store %struct.Memory* %call_4010f4, %struct.Memory** %MEMORY

  ; Code: addsd %xmm1, %xmm0	 RIP: 4010f9	 Bytes: 4
  %loadMem_4010f9 = load %struct.Memory*, %struct.Memory** %MEMORY
  %call_4010f9 = call %struct.Memory* @routine_addsd__xmm1___xmm0(%struct.State* %0, i64  0, %struct.Memory* %loadMem_4010f9)
  store %struct.Memory* %call_4010f9, %struct.Memory** %MEMORY

  ; Code: movq -0x38(%rbp), %rax	 RIP: 4010fd	 Bytes: 4
  %loadMem_4010fd = load %struct.Memory*, %struct.Memory** %MEMORY
  %call_4010fd = call %struct.Memory* @routine_movq_MINUS0x38__rbp____rax(%struct.State* %0, i64  0, %struct.Memory* %loadMem_4010fd)
  store %struct.Memory* %call_4010fd, %struct.Memory** %MEMORY

  ; Code: movslq -0x7c(%rbp), %rcx	 RIP: 401101	 Bytes: 4
  %loadMem_401101 = load %struct.Memory*, %struct.Memory** %MEMORY
  %call_401101 = call %struct.Memory* @routine_movslq_MINUS0x7c__rbp____rcx(%struct.State* %0, i64  0, %struct.Memory* %loadMem_401101)
  store %struct.Memory* %call_401101, %struct.Memory** %MEMORY

  ; Code: imulq $0x7d00, %rcx, %rcx	 RIP: 401105	 Bytes: 7
  %loadMem_401105 = load %struct.Memory*, %struct.Memory** %MEMORY
  %call_401105 = call %struct.Memory* @routine_imulq__0x7d00___rcx___rcx(%struct.State* %0, i64  0, %struct.Memory* %loadMem_401105)
  store %struct.Memory* %call_401105, %struct.Memory** %MEMORY

  ; Code: addq %rcx, %rax	 RIP: 40110c	 Bytes: 3
  %loadMem_40110c = load %struct.Memory*, %struct.Memory** %MEMORY
  %call_40110c = call %struct.Memory* @routine_addq__rcx___rax(%struct.State* %0, i64  0, %struct.Memory* %loadMem_40110c)
  store %struct.Memory* %call_40110c, %struct.Memory** %MEMORY

  ; Code: movslq -0x80(%rbp), %rcx	 RIP: 40110f	 Bytes: 4
  %loadMem_40110f = load %struct.Memory*, %struct.Memory** %MEMORY
  %call_40110f = call %struct.Memory* @routine_movslq_MINUS0x80__rbp____rcx(%struct.State* %0, i64  0, %struct.Memory* %loadMem_40110f)
  store %struct.Memory* %call_40110f, %struct.Memory** %MEMORY

  ; Code: movsd %xmm0, (%rax,%rcx,8)	 RIP: 401113	 Bytes: 5
  %loadMem_401113 = load %struct.Memory*, %struct.Memory** %MEMORY
  %call_401113 = call %struct.Memory* @routine_movsd__xmm0____rax__rcx_8_(%struct.State* %0, i64  0, %struct.Memory* %loadMem_401113)
  store %struct.Memory* %call_401113, %struct.Memory** %MEMORY

  ; Code: movl -0x80(%rbp), %eax	 RIP: 401118	 Bytes: 3
  %loadMem_401118 = load %struct.Memory*, %struct.Memory** %MEMORY
  %call_401118 = call %struct.Memory* @routine_movl_MINUS0x80__rbp____eax(%struct.State* %0, i64  0, %struct.Memory* %loadMem_401118)
  store %struct.Memory* %call_401118, %struct.Memory** %MEMORY

  ; Code: addl $0x1, %eax	 RIP: 40111b	 Bytes: 3
  %loadMem_40111b = load %struct.Memory*, %struct.Memory** %MEMORY
  %call_40111b = call %struct.Memory* @routine_addl__0x1___eax(%struct.State* %0, i64  0, %struct.Memory* %loadMem_40111b)
  store %struct.Memory* %call_40111b, %struct.Memory** %MEMORY

  ; Code: movl %eax, -0x80(%rbp)	 RIP: 40111e	 Bytes: 3
  %loadMem_40111e = load %struct.Memory*, %struct.Memory** %MEMORY
  %call_40111e = call %struct.Memory* @routine_movl__eax__MINUS0x80__rbp_(%struct.State* %0, i64  0, %struct.Memory* %loadMem_40111e)
  store %struct.Memory* %call_40111e, %struct.Memory** %MEMORY

  ; Code: jmpq .L_40109a	 RIP: 401121	 Bytes: 5
  %loadMem_401121 = load %struct.Memory*, %struct.Memory** %MEMORY
  %call_401121 = call %struct.Memory* @routine_jmpq_.L_40109a(%struct.State* %0, i64  0, %struct.Memory* %loadMem_401121, i64 -135, i64 5)
  store %struct.Memory* %call_401121, %struct.Memory** %MEMORY

  br label %block_.L_40109a

  ; Code: .L_401126:	 RIP: 401126	 Bytes: 0
block_.L_401126:

  ; Code: jmpq .L_40112b	 RIP: 401126	 Bytes: 5
  %loadMem_401126 = load %struct.Memory*, %struct.Memory** %MEMORY
  %call_401126 = call %struct.Memory* @routine_jmpq_.L_40112b(%struct.State* %0, i64  0, %struct.Memory* %loadMem_401126, i64 5, i64 5)
  store %struct.Memory* %call_401126, %struct.Memory** %MEMORY

  br label %block_.L_40112b

  ; Code: .L_40112b:	 RIP: 40112b	 Bytes: 0
block_.L_40112b:

  ; Code: movl -0x7c(%rbp), %eax	 RIP: 40112b	 Bytes: 3
  %loadMem_40112b = load %struct.Memory*, %struct.Memory** %MEMORY
  %call_40112b = call %struct.Memory* @routine_movl_MINUS0x7c__rbp____eax(%struct.State* %0, i64  0, %struct.Memory* %loadMem_40112b)
  store %struct.Memory* %call_40112b, %struct.Memory** %MEMORY

  ; Code: addl $0x1, %eax	 RIP: 40112e	 Bytes: 3
  %loadMem_40112e = load %struct.Memory*, %struct.Memory** %MEMORY
  %call_40112e = call %struct.Memory* @routine_addl__0x1___eax(%struct.State* %0, i64  0, %struct.Memory* %loadMem_40112e)
  store %struct.Memory* %call_40112e, %struct.Memory** %MEMORY

  ; Code: movl %eax, -0x7c(%rbp)	 RIP: 401131	 Bytes: 3
  %loadMem_401131 = load %struct.Memory*, %struct.Memory** %MEMORY
  %call_401131 = call %struct.Memory* @routine_movl__eax__MINUS0x7c__rbp_(%struct.State* %0, i64  0, %struct.Memory* %loadMem_401131)
  store %struct.Memory* %call_401131, %struct.Memory** %MEMORY

  ; Code: jmpq .L_401087	 RIP: 401134	 Bytes: 5
  %loadMem_401134 = load %struct.Memory*, %struct.Memory** %MEMORY
  %call_401134 = call %struct.Memory* @routine_jmpq_.L_401087(%struct.State* %0, i64  0, %struct.Memory* %loadMem_401134, i64 -173, i64 5)
  store %struct.Memory* %call_401134, %struct.Memory** %MEMORY

  br label %block_.L_401087

  ; Code: .L_401139:	 RIP: 401139	 Bytes: 0
block_.L_401139:

  ; Code: movl $0x0, -0x7c(%rbp)	 RIP: 401139	 Bytes: 7
  %loadMem_401139 = load %struct.Memory*, %struct.Memory** %MEMORY
  %call_401139 = call %struct.Memory* @routine_movl__0x0__MINUS0x7c__rbp_(%struct.State* %0, i64  0, %struct.Memory* %loadMem_401139)
  store %struct.Memory* %call_401139, %struct.Memory** %MEMORY

  ; Code: .L_401140:	 RIP: 401140	 Bytes: 0
  br label %block_.L_401140
block_.L_401140:

  ; Code: movl -0x7c(%rbp), %eax	 RIP: 401140	 Bytes: 3
  %loadMem_401140 = load %struct.Memory*, %struct.Memory** %MEMORY
  %call_401140 = call %struct.Memory* @routine_movl_MINUS0x7c__rbp____eax(%struct.State* %0, i64  0, %struct.Memory* %loadMem_401140)
  store %struct.Memory* %call_401140, %struct.Memory** %MEMORY

  ; Code: cmpl -0x14(%rbp), %eax	 RIP: 401143	 Bytes: 3
  %loadMem_401143 = load %struct.Memory*, %struct.Memory** %MEMORY
  %call_401143 = call %struct.Memory* @routine_cmpl_MINUS0x14__rbp____eax(%struct.State* %0, i64  0, %struct.Memory* %loadMem_401143)
  store %struct.Memory* %call_401143, %struct.Memory** %MEMORY

  ; Code: jge .L_4011db	 RIP: 401146	 Bytes: 6
  %loadMem_401146 = load %struct.Memory*, %struct.Memory** %MEMORY
  %call_401146 = call %struct.Memory* @routine_jge_.L_4011db(%struct.State* %0, i64  0, %struct.Memory* %loadMem_401146, i8* %BRANCH_TAKEN, i64 149, i64 6, i64 6)
  store %struct.Memory* %call_401146, %struct.Memory** %MEMORY

  %loadBr_401146 = load i8, i8* %BRANCH_TAKEN
  %cmpBr_401146 = icmp eq i8 %loadBr_401146, 1
  br i1 %cmpBr_401146, label %block_.L_4011db, label %block_40114c

block_40114c:
  ; Code: xorps %xmm0, %xmm0	 RIP: 40114c	 Bytes: 3
  %loadMem_40114c = load %struct.Memory*, %struct.Memory** %MEMORY
  %call_40114c = call %struct.Memory* @routine_xorps__xmm0___xmm0(%struct.State* %0, i64  0, %struct.Memory* %loadMem_40114c)
  store %struct.Memory* %call_40114c, %struct.Memory** %MEMORY

  ; Code: movq -0x68(%rbp), %rax	 RIP: 40114f	 Bytes: 4
  %loadMem_40114f = load %struct.Memory*, %struct.Memory** %MEMORY
  %call_40114f = call %struct.Memory* @routine_movq_MINUS0x68__rbp____rax(%struct.State* %0, i64  0, %struct.Memory* %loadMem_40114f)
  store %struct.Memory* %call_40114f, %struct.Memory** %MEMORY

  ; Code: movslq -0x7c(%rbp), %rcx	 RIP: 401153	 Bytes: 4
  %loadMem_401153 = load %struct.Memory*, %struct.Memory** %MEMORY
  %call_401153 = call %struct.Memory* @routine_movslq_MINUS0x7c__rbp____rcx(%struct.State* %0, i64  0, %struct.Memory* %loadMem_401153)
  store %struct.Memory* %call_401153, %struct.Memory** %MEMORY

  ; Code: movsd %xmm0, (%rax,%rcx,8)	 RIP: 401157	 Bytes: 5
  %loadMem_401157 = load %struct.Memory*, %struct.Memory** %MEMORY
  %call_401157 = call %struct.Memory* @routine_movsd__xmm0____rax__rcx_8_(%struct.State* %0, i64  0, %struct.Memory* %loadMem_401157)
  store %struct.Memory* %call_401157, %struct.Memory** %MEMORY

  ; Code: movl $0x0, -0x80(%rbp)	 RIP: 40115c	 Bytes: 7
  %loadMem_40115c = load %struct.Memory*, %struct.Memory** %MEMORY
  %call_40115c = call %struct.Memory* @routine_movl__0x0__MINUS0x80__rbp_(%struct.State* %0, i64  0, %struct.Memory* %loadMem_40115c)
  store %struct.Memory* %call_40115c, %struct.Memory** %MEMORY

  ; Code: .L_401163:	 RIP: 401163	 Bytes: 0
  br label %block_.L_401163
block_.L_401163:

  ; Code: movl -0x80(%rbp), %eax	 RIP: 401163	 Bytes: 3
  %loadMem_401163 = load %struct.Memory*, %struct.Memory** %MEMORY
  %call_401163 = call %struct.Memory* @routine_movl_MINUS0x80__rbp____eax(%struct.State* %0, i64  0, %struct.Memory* %loadMem_401163)
  store %struct.Memory* %call_401163, %struct.Memory** %MEMORY

  ; Code: cmpl -0x14(%rbp), %eax	 RIP: 401166	 Bytes: 3
  %loadMem_401166 = load %struct.Memory*, %struct.Memory** %MEMORY
  %call_401166 = call %struct.Memory* @routine_cmpl_MINUS0x14__rbp____eax(%struct.State* %0, i64  0, %struct.Memory* %loadMem_401166)
  store %struct.Memory* %call_401166, %struct.Memory** %MEMORY

  ; Code: jge .L_4011c8	 RIP: 401169	 Bytes: 6
  %loadMem_401169 = load %struct.Memory*, %struct.Memory** %MEMORY
  %call_401169 = call %struct.Memory* @routine_jge_.L_4011c8(%struct.State* %0, i64  0, %struct.Memory* %loadMem_401169, i8* %BRANCH_TAKEN, i64 95, i64 6, i64 6)
  store %struct.Memory* %call_401169, %struct.Memory** %MEMORY

  %loadBr_401169 = load i8, i8* %BRANCH_TAKEN
  %cmpBr_401169 = icmp eq i8 %loadBr_401169, 1
  br i1 %cmpBr_401169, label %block_.L_4011c8, label %block_40116f

block_40116f:
  ; Code: movq -0x68(%rbp), %rax	 RIP: 40116f	 Bytes: 4
  %loadMem_40116f = load %struct.Memory*, %struct.Memory** %MEMORY
  %call_40116f = call %struct.Memory* @routine_movq_MINUS0x68__rbp____rax(%struct.State* %0, i64  0, %struct.Memory* %loadMem_40116f)
  store %struct.Memory* %call_40116f, %struct.Memory** %MEMORY

  ; Code: movslq -0x7c(%rbp), %rcx	 RIP: 401173	 Bytes: 4
  %loadMem_401173 = load %struct.Memory*, %struct.Memory** %MEMORY
  %call_401173 = call %struct.Memory* @routine_movslq_MINUS0x7c__rbp____rcx(%struct.State* %0, i64  0, %struct.Memory* %loadMem_401173)
  store %struct.Memory* %call_401173, %struct.Memory** %MEMORY

  ; Code: movsd (%rax,%rcx,8), %xmm0	 RIP: 401177	 Bytes: 5
  %loadMem_401177 = load %struct.Memory*, %struct.Memory** %MEMORY
  %call_401177 = call %struct.Memory* @routine_movsd___rax__rcx_8____xmm0(%struct.State* %0, i64  0, %struct.Memory* %loadMem_401177)
  store %struct.Memory* %call_401177, %struct.Memory** %MEMORY

  ; Code: movsd -0x28(%rbp), %xmm1	 RIP: 40117c	 Bytes: 5
  %loadMem_40117c = load %struct.Memory*, %struct.Memory** %MEMORY
  %call_40117c = call %struct.Memory* @routine_movsd_MINUS0x28__rbp____xmm1(%struct.State* %0, i64  0, %struct.Memory* %loadMem_40117c)
  store %struct.Memory* %call_40117c, %struct.Memory** %MEMORY

  ; Code: movq -0x38(%rbp), %rax	 RIP: 401181	 Bytes: 4
  %loadMem_401181 = load %struct.Memory*, %struct.Memory** %MEMORY
  %call_401181 = call %struct.Memory* @routine_movq_MINUS0x38__rbp____rax(%struct.State* %0, i64  0, %struct.Memory* %loadMem_401181)
  store %struct.Memory* %call_401181, %struct.Memory** %MEMORY

  ; Code: movslq -0x80(%rbp), %rcx	 RIP: 401185	 Bytes: 4
  %loadMem_401185 = load %struct.Memory*, %struct.Memory** %MEMORY
  %call_401185 = call %struct.Memory* @routine_movslq_MINUS0x80__rbp____rcx(%struct.State* %0, i64  0, %struct.Memory* %loadMem_401185)
  store %struct.Memory* %call_401185, %struct.Memory** %MEMORY

  ; Code: imulq $0x7d00, %rcx, %rcx	 RIP: 401189	 Bytes: 7
  %loadMem_401189 = load %struct.Memory*, %struct.Memory** %MEMORY
  %call_401189 = call %struct.Memory* @routine_imulq__0x7d00___rcx___rcx(%struct.State* %0, i64  0, %struct.Memory* %loadMem_401189)
  store %struct.Memory* %call_401189, %struct.Memory** %MEMORY

  ; Code: addq %rcx, %rax	 RIP: 401190	 Bytes: 3
  %loadMem_401190 = load %struct.Memory*, %struct.Memory** %MEMORY
  %call_401190 = call %struct.Memory* @routine_addq__rcx___rax(%struct.State* %0, i64  0, %struct.Memory* %loadMem_401190)
  store %struct.Memory* %call_401190, %struct.Memory** %MEMORY

  ; Code: movslq -0x7c(%rbp), %rcx	 RIP: 401193	 Bytes: 4
  %loadMem_401193 = load %struct.Memory*, %struct.Memory** %MEMORY
  %call_401193 = call %struct.Memory* @routine_movslq_MINUS0x7c__rbp____rcx(%struct.State* %0, i64  0, %struct.Memory* %loadMem_401193)
  store %struct.Memory* %call_401193, %struct.Memory** %MEMORY

  ; Code: mulsd (%rax,%rcx,8), %xmm1	 RIP: 401197	 Bytes: 5
  %loadMem_401197 = load %struct.Memory*, %struct.Memory** %MEMORY
  %call_401197 = call %struct.Memory* @routine_mulsd___rax__rcx_8____xmm1(%struct.State* %0, i64  0, %struct.Memory* %loadMem_401197)
  store %struct.Memory* %call_401197, %struct.Memory** %MEMORY

  ; Code: movq -0x70(%rbp), %rax	 RIP: 40119c	 Bytes: 4
  %loadMem_40119c = load %struct.Memory*, %struct.Memory** %MEMORY
  %call_40119c = call %struct.Memory* @routine_movq_MINUS0x70__rbp____rax(%struct.State* %0, i64  0, %struct.Memory* %loadMem_40119c)
  store %struct.Memory* %call_40119c, %struct.Memory** %MEMORY

  ; Code: movslq -0x80(%rbp), %rcx	 RIP: 4011a0	 Bytes: 4
  %loadMem_4011a0 = load %struct.Memory*, %struct.Memory** %MEMORY
  %call_4011a0 = call %struct.Memory* @routine_movslq_MINUS0x80__rbp____rcx(%struct.State* %0, i64  0, %struct.Memory* %loadMem_4011a0)
  store %struct.Memory* %call_4011a0, %struct.Memory** %MEMORY

  ; Code: mulsd (%rax,%rcx,8), %xmm1	 RIP: 4011a4	 Bytes: 5
  %loadMem_4011a4 = load %struct.Memory*, %struct.Memory** %MEMORY
  %call_4011a4 = call %struct.Memory* @routine_mulsd___rax__rcx_8____xmm1(%struct.State* %0, i64  0, %struct.Memory* %loadMem_4011a4)
  store %struct.Memory* %call_4011a4, %struct.Memory** %MEMORY

  ; Code: addsd %xmm1, %xmm0	 RIP: 4011a9	 Bytes: 4
  %loadMem_4011a9 = load %struct.Memory*, %struct.Memory** %MEMORY
  %call_4011a9 = call %struct.Memory* @routine_addsd__xmm1___xmm0(%struct.State* %0, i64  0, %struct.Memory* %loadMem_4011a9)
  store %struct.Memory* %call_4011a9, %struct.Memory** %MEMORY

  ; Code: movq -0x68(%rbp), %rax	 RIP: 4011ad	 Bytes: 4
  %loadMem_4011ad = load %struct.Memory*, %struct.Memory** %MEMORY
  %call_4011ad = call %struct.Memory* @routine_movq_MINUS0x68__rbp____rax(%struct.State* %0, i64  0, %struct.Memory* %loadMem_4011ad)
  store %struct.Memory* %call_4011ad, %struct.Memory** %MEMORY

  ; Code: movslq -0x7c(%rbp), %rcx	 RIP: 4011b1	 Bytes: 4
  %loadMem_4011b1 = load %struct.Memory*, %struct.Memory** %MEMORY
  %call_4011b1 = call %struct.Memory* @routine_movslq_MINUS0x7c__rbp____rcx(%struct.State* %0, i64  0, %struct.Memory* %loadMem_4011b1)
  store %struct.Memory* %call_4011b1, %struct.Memory** %MEMORY

  ; Code: movsd %xmm0, (%rax,%rcx,8)	 RIP: 4011b5	 Bytes: 5
  %loadMem_4011b5 = load %struct.Memory*, %struct.Memory** %MEMORY
  %call_4011b5 = call %struct.Memory* @routine_movsd__xmm0____rax__rcx_8_(%struct.State* %0, i64  0, %struct.Memory* %loadMem_4011b5)
  store %struct.Memory* %call_4011b5, %struct.Memory** %MEMORY

  ; Code: movl -0x80(%rbp), %eax	 RIP: 4011ba	 Bytes: 3
  %loadMem_4011ba = load %struct.Memory*, %struct.Memory** %MEMORY
  %call_4011ba = call %struct.Memory* @routine_movl_MINUS0x80__rbp____eax(%struct.State* %0, i64  0, %struct.Memory* %loadMem_4011ba)
  store %struct.Memory* %call_4011ba, %struct.Memory** %MEMORY

  ; Code: addl $0x1, %eax	 RIP: 4011bd	 Bytes: 3
  %loadMem_4011bd = load %struct.Memory*, %struct.Memory** %MEMORY
  %call_4011bd = call %struct.Memory* @routine_addl__0x1___eax(%struct.State* %0, i64  0, %struct.Memory* %loadMem_4011bd)
  store %struct.Memory* %call_4011bd, %struct.Memory** %MEMORY

  ; Code: movl %eax, -0x80(%rbp)	 RIP: 4011c0	 Bytes: 3
  %loadMem_4011c0 = load %struct.Memory*, %struct.Memory** %MEMORY
  %call_4011c0 = call %struct.Memory* @routine_movl__eax__MINUS0x80__rbp_(%struct.State* %0, i64  0, %struct.Memory* %loadMem_4011c0)
  store %struct.Memory* %call_4011c0, %struct.Memory** %MEMORY

  ; Code: jmpq .L_401163	 RIP: 4011c3	 Bytes: 5
  %loadMem_4011c3 = load %struct.Memory*, %struct.Memory** %MEMORY
  %call_4011c3 = call %struct.Memory* @routine_jmpq_.L_401163(%struct.State* %0, i64  0, %struct.Memory* %loadMem_4011c3, i64 -96, i64 5)
  store %struct.Memory* %call_4011c3, %struct.Memory** %MEMORY

  br label %block_.L_401163

  ; Code: .L_4011c8:	 RIP: 4011c8	 Bytes: 0
block_.L_4011c8:

  ; Code: jmpq .L_4011cd	 RIP: 4011c8	 Bytes: 5
  %loadMem_4011c8 = load %struct.Memory*, %struct.Memory** %MEMORY
  %call_4011c8 = call %struct.Memory* @routine_jmpq_.L_4011cd(%struct.State* %0, i64  0, %struct.Memory* %loadMem_4011c8, i64 5, i64 5)
  store %struct.Memory* %call_4011c8, %struct.Memory** %MEMORY

  br label %block_.L_4011cd

  ; Code: .L_4011cd:	 RIP: 4011cd	 Bytes: 0
block_.L_4011cd:

  ; Code: movl -0x7c(%rbp), %eax	 RIP: 4011cd	 Bytes: 3
  %loadMem_4011cd = load %struct.Memory*, %struct.Memory** %MEMORY
  %call_4011cd = call %struct.Memory* @routine_movl_MINUS0x7c__rbp____eax(%struct.State* %0, i64  0, %struct.Memory* %loadMem_4011cd)
  store %struct.Memory* %call_4011cd, %struct.Memory** %MEMORY

  ; Code: addl $0x1, %eax	 RIP: 4011d0	 Bytes: 3
  %loadMem_4011d0 = load %struct.Memory*, %struct.Memory** %MEMORY
  %call_4011d0 = call %struct.Memory* @routine_addl__0x1___eax(%struct.State* %0, i64  0, %struct.Memory* %loadMem_4011d0)
  store %struct.Memory* %call_4011d0, %struct.Memory** %MEMORY

  ; Code: movl %eax, -0x7c(%rbp)	 RIP: 4011d3	 Bytes: 3
  %loadMem_4011d3 = load %struct.Memory*, %struct.Memory** %MEMORY
  %call_4011d3 = call %struct.Memory* @routine_movl__eax__MINUS0x7c__rbp_(%struct.State* %0, i64  0, %struct.Memory* %loadMem_4011d3)
  store %struct.Memory* %call_4011d3, %struct.Memory** %MEMORY

  ; Code: jmpq .L_401140	 RIP: 4011d6	 Bytes: 5
  %loadMem_4011d6 = load %struct.Memory*, %struct.Memory** %MEMORY
  %call_4011d6 = call %struct.Memory* @routine_jmpq_.L_401140(%struct.State* %0, i64  0, %struct.Memory* %loadMem_4011d6, i64 -150, i64 5)
  store %struct.Memory* %call_4011d6, %struct.Memory** %MEMORY

  br label %block_.L_401140

  ; Code: .L_4011db:	 RIP: 4011db	 Bytes: 0
block_.L_4011db:

  ; Code: movl $0x0, -0x7c(%rbp)	 RIP: 4011db	 Bytes: 7
  %loadMem_4011db = load %struct.Memory*, %struct.Memory** %MEMORY
  %call_4011db = call %struct.Memory* @routine_movl__0x0__MINUS0x7c__rbp_(%struct.State* %0, i64  0, %struct.Memory* %loadMem_4011db)
  store %struct.Memory* %call_4011db, %struct.Memory** %MEMORY

  ; Code: .L_4011e2:	 RIP: 4011e2	 Bytes: 0
  br label %block_.L_4011e2
block_.L_4011e2:

  ; Code: movl -0x7c(%rbp), %eax	 RIP: 4011e2	 Bytes: 3
  %loadMem_4011e2 = load %struct.Memory*, %struct.Memory** %MEMORY
  %call_4011e2 = call %struct.Memory* @routine_movl_MINUS0x7c__rbp____eax(%struct.State* %0, i64  0, %struct.Memory* %loadMem_4011e2)
  store %struct.Memory* %call_4011e2, %struct.Memory** %MEMORY

  ; Code: cmpl -0x14(%rbp), %eax	 RIP: 4011e5	 Bytes: 3
  %loadMem_4011e5 = load %struct.Memory*, %struct.Memory** %MEMORY
  %call_4011e5 = call %struct.Memory* @routine_cmpl_MINUS0x14__rbp____eax(%struct.State* %0, i64  0, %struct.Memory* %loadMem_4011e5)
  store %struct.Memory* %call_4011e5, %struct.Memory** %MEMORY

  ; Code: jge .L_401223	 RIP: 4011e8	 Bytes: 6
  %loadMem_4011e8 = load %struct.Memory*, %struct.Memory** %MEMORY
  %call_4011e8 = call %struct.Memory* @routine_jge_.L_401223(%struct.State* %0, i64  0, %struct.Memory* %loadMem_4011e8, i8* %BRANCH_TAKEN, i64 59, i64 6, i64 6)
  store %struct.Memory* %call_4011e8, %struct.Memory** %MEMORY

  %loadBr_4011e8 = load i8, i8* %BRANCH_TAKEN
  %cmpBr_4011e8 = icmp eq i8 %loadBr_4011e8, 1
  br i1 %cmpBr_4011e8, label %block_.L_401223, label %block_4011ee

block_4011ee:
  ; Code: movq -0x68(%rbp), %rax	 RIP: 4011ee	 Bytes: 4
  %loadMem_4011ee = load %struct.Memory*, %struct.Memory** %MEMORY
  %call_4011ee = call %struct.Memory* @routine_movq_MINUS0x68__rbp____rax(%struct.State* %0, i64  0, %struct.Memory* %loadMem_4011ee)
  store %struct.Memory* %call_4011ee, %struct.Memory** %MEMORY

  ; Code: movslq -0x7c(%rbp), %rcx	 RIP: 4011f2	 Bytes: 4
  %loadMem_4011f2 = load %struct.Memory*, %struct.Memory** %MEMORY
  %call_4011f2 = call %struct.Memory* @routine_movslq_MINUS0x7c__rbp____rcx(%struct.State* %0, i64  0, %struct.Memory* %loadMem_4011f2)
  store %struct.Memory* %call_4011f2, %struct.Memory** %MEMORY

  ; Code: movsd (%rax,%rcx,8), %xmm0	 RIP: 4011f6	 Bytes: 5
  %loadMem_4011f6 = load %struct.Memory*, %struct.Memory** %MEMORY
  %call_4011f6 = call %struct.Memory* @routine_movsd___rax__rcx_8____xmm0(%struct.State* %0, i64  0, %struct.Memory* %loadMem_4011f6)
  store %struct.Memory* %call_4011f6, %struct.Memory** %MEMORY

  ; Code: movq -0x78(%rbp), %rax	 RIP: 4011fb	 Bytes: 4
  %loadMem_4011fb = load %struct.Memory*, %struct.Memory** %MEMORY
  %call_4011fb = call %struct.Memory* @routine_movq_MINUS0x78__rbp____rax(%struct.State* %0, i64  0, %struct.Memory* %loadMem_4011fb)
  store %struct.Memory* %call_4011fb, %struct.Memory** %MEMORY

  ; Code: movslq -0x7c(%rbp), %rcx	 RIP: 4011ff	 Bytes: 4
  %loadMem_4011ff = load %struct.Memory*, %struct.Memory** %MEMORY
  %call_4011ff = call %struct.Memory* @routine_movslq_MINUS0x7c__rbp____rcx(%struct.State* %0, i64  0, %struct.Memory* %loadMem_4011ff)
  store %struct.Memory* %call_4011ff, %struct.Memory** %MEMORY

  ; Code: addsd (%rax,%rcx,8), %xmm0	 RIP: 401203	 Bytes: 5
  %loadMem_401203 = load %struct.Memory*, %struct.Memory** %MEMORY
  %call_401203 = call %struct.Memory* @routine_addsd___rax__rcx_8____xmm0(%struct.State* %0, i64  0, %struct.Memory* %loadMem_401203)
  store %struct.Memory* %call_401203, %struct.Memory** %MEMORY

  ; Code: movq -0x68(%rbp), %rax	 RIP: 401208	 Bytes: 4
  %loadMem_401208 = load %struct.Memory*, %struct.Memory** %MEMORY
  %call_401208 = call %struct.Memory* @routine_movq_MINUS0x68__rbp____rax(%struct.State* %0, i64  0, %struct.Memory* %loadMem_401208)
  store %struct.Memory* %call_401208, %struct.Memory** %MEMORY

  ; Code: movslq -0x7c(%rbp), %rcx	 RIP: 40120c	 Bytes: 4
  %loadMem_40120c = load %struct.Memory*, %struct.Memory** %MEMORY
  %call_40120c = call %struct.Memory* @routine_movslq_MINUS0x7c__rbp____rcx(%struct.State* %0, i64  0, %struct.Memory* %loadMem_40120c)
  store %struct.Memory* %call_40120c, %struct.Memory** %MEMORY

  ; Code: movsd %xmm0, (%rax,%rcx,8)	 RIP: 401210	 Bytes: 5
  %loadMem_401210 = load %struct.Memory*, %struct.Memory** %MEMORY
  %call_401210 = call %struct.Memory* @routine_movsd__xmm0____rax__rcx_8_(%struct.State* %0, i64  0, %struct.Memory* %loadMem_401210)
  store %struct.Memory* %call_401210, %struct.Memory** %MEMORY

  ; Code: movl -0x7c(%rbp), %eax	 RIP: 401215	 Bytes: 3
  %loadMem_401215 = load %struct.Memory*, %struct.Memory** %MEMORY
  %call_401215 = call %struct.Memory* @routine_movl_MINUS0x7c__rbp____eax(%struct.State* %0, i64  0, %struct.Memory* %loadMem_401215)
  store %struct.Memory* %call_401215, %struct.Memory** %MEMORY

  ; Code: addl $0x1, %eax	 RIP: 401218	 Bytes: 3
  %loadMem_401218 = load %struct.Memory*, %struct.Memory** %MEMORY
  %call_401218 = call %struct.Memory* @routine_addl__0x1___eax(%struct.State* %0, i64  0, %struct.Memory* %loadMem_401218)
  store %struct.Memory* %call_401218, %struct.Memory** %MEMORY

  ; Code: movl %eax, -0x7c(%rbp)	 RIP: 40121b	 Bytes: 3
  %loadMem_40121b = load %struct.Memory*, %struct.Memory** %MEMORY
  %call_40121b = call %struct.Memory* @routine_movl__eax__MINUS0x7c__rbp_(%struct.State* %0, i64  0, %struct.Memory* %loadMem_40121b)
  store %struct.Memory* %call_40121b, %struct.Memory** %MEMORY

  ; Code: jmpq .L_4011e2	 RIP: 40121e	 Bytes: 5
  %loadMem_40121e = load %struct.Memory*, %struct.Memory** %MEMORY
  %call_40121e = call %struct.Memory* @routine_jmpq_.L_4011e2(%struct.State* %0, i64  0, %struct.Memory* %loadMem_40121e, i64 -60, i64 5)
  store %struct.Memory* %call_40121e, %struct.Memory** %MEMORY

  br label %block_.L_4011e2

  ; Code: .L_401223:	 RIP: 401223	 Bytes: 0
block_.L_401223:

  ; Code: movl $0x0, -0x7c(%rbp)	 RIP: 401223	 Bytes: 7
  %loadMem_401223 = load %struct.Memory*, %struct.Memory** %MEMORY
  %call_401223 = call %struct.Memory* @routine_movl__0x0__MINUS0x7c__rbp_(%struct.State* %0, i64  0, %struct.Memory* %loadMem_401223)
  store %struct.Memory* %call_401223, %struct.Memory** %MEMORY

  ; Code: .L_40122a:	 RIP: 40122a	 Bytes: 0
  br label %block_.L_40122a
block_.L_40122a:

  ; Code: movl -0x7c(%rbp), %eax	 RIP: 40122a	 Bytes: 3
  %loadMem_40122a = load %struct.Memory*, %struct.Memory** %MEMORY
  %call_40122a = call %struct.Memory* @routine_movl_MINUS0x7c__rbp____eax(%struct.State* %0, i64  0, %struct.Memory* %loadMem_40122a)
  store %struct.Memory* %call_40122a, %struct.Memory** %MEMORY

  ; Code: cmpl -0x14(%rbp), %eax	 RIP: 40122d	 Bytes: 3
  %loadMem_40122d = load %struct.Memory*, %struct.Memory** %MEMORY
  %call_40122d = call %struct.Memory* @routine_cmpl_MINUS0x14__rbp____eax(%struct.State* %0, i64  0, %struct.Memory* %loadMem_40122d)
  store %struct.Memory* %call_40122d, %struct.Memory** %MEMORY

  ; Code: jge .L_4012b5	 RIP: 401230	 Bytes: 6
  %loadMem_401230 = load %struct.Memory*, %struct.Memory** %MEMORY
  %call_401230 = call %struct.Memory* @routine_jge_.L_4012b5(%struct.State* %0, i64  0, %struct.Memory* %loadMem_401230, i8* %BRANCH_TAKEN, i64 133, i64 6, i64 6)
  store %struct.Memory* %call_401230, %struct.Memory** %MEMORY

  %loadBr_401230 = load i8, i8* %BRANCH_TAKEN
  %cmpBr_401230 = icmp eq i8 %loadBr_401230, 1
  br i1 %cmpBr_401230, label %block_.L_4012b5, label %block_401236

block_401236:
  ; Code: movl $0x0, -0x80(%rbp)	 RIP: 401236	 Bytes: 7
  %loadMem_401236 = load %struct.Memory*, %struct.Memory** %MEMORY
  %call_401236 = call %struct.Memory* @routine_movl__0x0__MINUS0x80__rbp_(%struct.State* %0, i64  0, %struct.Memory* %loadMem_401236)
  store %struct.Memory* %call_401236, %struct.Memory** %MEMORY

  ; Code: .L_40123d:	 RIP: 40123d	 Bytes: 0
  br label %block_.L_40123d
block_.L_40123d:

  ; Code: movl -0x80(%rbp), %eax	 RIP: 40123d	 Bytes: 3
  %loadMem_40123d = load %struct.Memory*, %struct.Memory** %MEMORY
  %call_40123d = call %struct.Memory* @routine_movl_MINUS0x80__rbp____eax(%struct.State* %0, i64  0, %struct.Memory* %loadMem_40123d)
  store %struct.Memory* %call_40123d, %struct.Memory** %MEMORY

  ; Code: cmpl -0x14(%rbp), %eax	 RIP: 401240	 Bytes: 3
  %loadMem_401240 = load %struct.Memory*, %struct.Memory** %MEMORY
  %call_401240 = call %struct.Memory* @routine_cmpl_MINUS0x14__rbp____eax(%struct.State* %0, i64  0, %struct.Memory* %loadMem_401240)
  store %struct.Memory* %call_401240, %struct.Memory** %MEMORY

  ; Code: jge .L_4012a2	 RIP: 401243	 Bytes: 6
  %loadMem_401243 = load %struct.Memory*, %struct.Memory** %MEMORY
  %call_401243 = call %struct.Memory* @routine_jge_.L_4012a2(%struct.State* %0, i64  0, %struct.Memory* %loadMem_401243, i8* %BRANCH_TAKEN, i64 95, i64 6, i64 6)
  store %struct.Memory* %call_401243, %struct.Memory** %MEMORY

  %loadBr_401243 = load i8, i8* %BRANCH_TAKEN
  %cmpBr_401243 = icmp eq i8 %loadBr_401243, 1
  br i1 %cmpBr_401243, label %block_.L_4012a2, label %block_401249

block_401249:
  ; Code: movq -0x60(%rbp), %rax	 RIP: 401249	 Bytes: 4
  %loadMem_401249 = load %struct.Memory*, %struct.Memory** %MEMORY
  %call_401249 = call %struct.Memory* @routine_movq_MINUS0x60__rbp____rax(%struct.State* %0, i64  0, %struct.Memory* %loadMem_401249)
  store %struct.Memory* %call_401249, %struct.Memory** %MEMORY

  ; Code: movslq -0x7c(%rbp), %rcx	 RIP: 40124d	 Bytes: 4
  %loadMem_40124d = load %struct.Memory*, %struct.Memory** %MEMORY
  %call_40124d = call %struct.Memory* @routine_movslq_MINUS0x7c__rbp____rcx(%struct.State* %0, i64  0, %struct.Memory* %loadMem_40124d)
  store %struct.Memory* %call_40124d, %struct.Memory** %MEMORY

  ; Code: movsd (%rax,%rcx,8), %xmm0	 RIP: 401251	 Bytes: 5
  %loadMem_401251 = load %struct.Memory*, %struct.Memory** %MEMORY
  %call_401251 = call %struct.Memory* @routine_movsd___rax__rcx_8____xmm0(%struct.State* %0, i64  0, %struct.Memory* %loadMem_401251)
  store %struct.Memory* %call_401251, %struct.Memory** %MEMORY

  ; Code: movsd -0x20(%rbp), %xmm1	 RIP: 401256	 Bytes: 5
  %loadMem_401256 = load %struct.Memory*, %struct.Memory** %MEMORY
  %call_401256 = call %struct.Memory* @routine_movsd_MINUS0x20__rbp____xmm1(%struct.State* %0, i64  0, %struct.Memory* %loadMem_401256)
  store %struct.Memory* %call_401256, %struct.Memory** %MEMORY

  ; Code: movq -0x38(%rbp), %rax	 RIP: 40125b	 Bytes: 4
  %loadMem_40125b = load %struct.Memory*, %struct.Memory** %MEMORY
  %call_40125b = call %struct.Memory* @routine_movq_MINUS0x38__rbp____rax(%struct.State* %0, i64  0, %struct.Memory* %loadMem_40125b)
  store %struct.Memory* %call_40125b, %struct.Memory** %MEMORY

  ; Code: movslq -0x7c(%rbp), %rcx	 RIP: 40125f	 Bytes: 4
  %loadMem_40125f = load %struct.Memory*, %struct.Memory** %MEMORY
  %call_40125f = call %struct.Memory* @routine_movslq_MINUS0x7c__rbp____rcx(%struct.State* %0, i64  0, %struct.Memory* %loadMem_40125f)
  store %struct.Memory* %call_40125f, %struct.Memory** %MEMORY

  ; Code: imulq $0x7d00, %rcx, %rcx	 RIP: 401263	 Bytes: 7
  %loadMem_401263 = load %struct.Memory*, %struct.Memory** %MEMORY
  %call_401263 = call %struct.Memory* @routine_imulq__0x7d00___rcx___rcx(%struct.State* %0, i64  0, %struct.Memory* %loadMem_401263)
  store %struct.Memory* %call_401263, %struct.Memory** %MEMORY

  ; Code: addq %rcx, %rax	 RIP: 40126a	 Bytes: 3
  %loadMem_40126a = load %struct.Memory*, %struct.Memory** %MEMORY
  %call_40126a = call %struct.Memory* @routine_addq__rcx___rax(%struct.State* %0, i64  0, %struct.Memory* %loadMem_40126a)
  store %struct.Memory* %call_40126a, %struct.Memory** %MEMORY

  ; Code: movslq -0x80(%rbp), %rcx	 RIP: 40126d	 Bytes: 4
  %loadMem_40126d = load %struct.Memory*, %struct.Memory** %MEMORY
  %call_40126d = call %struct.Memory* @routine_movslq_MINUS0x80__rbp____rcx(%struct.State* %0, i64  0, %struct.Memory* %loadMem_40126d)
  store %struct.Memory* %call_40126d, %struct.Memory** %MEMORY

  ; Code: mulsd (%rax,%rcx,8), %xmm1	 RIP: 401271	 Bytes: 5
  %loadMem_401271 = load %struct.Memory*, %struct.Memory** %MEMORY
  %call_401271 = call %struct.Memory* @routine_mulsd___rax__rcx_8____xmm1(%struct.State* %0, i64  0, %struct.Memory* %loadMem_401271)
  store %struct.Memory* %call_401271, %struct.Memory** %MEMORY

  ; Code: movq -0x68(%rbp), %rax	 RIP: 401276	 Bytes: 4
  %loadMem_401276 = load %struct.Memory*, %struct.Memory** %MEMORY
  %call_401276 = call %struct.Memory* @routine_movq_MINUS0x68__rbp____rax(%struct.State* %0, i64  0, %struct.Memory* %loadMem_401276)
  store %struct.Memory* %call_401276, %struct.Memory** %MEMORY

  ; Code: movslq -0x80(%rbp), %rcx	 RIP: 40127a	 Bytes: 4
  %loadMem_40127a = load %struct.Memory*, %struct.Memory** %MEMORY
  %call_40127a = call %struct.Memory* @routine_movslq_MINUS0x80__rbp____rcx(%struct.State* %0, i64  0, %struct.Memory* %loadMem_40127a)
  store %struct.Memory* %call_40127a, %struct.Memory** %MEMORY

  ; Code: mulsd (%rax,%rcx,8), %xmm1	 RIP: 40127e	 Bytes: 5
  %loadMem_40127e = load %struct.Memory*, %struct.Memory** %MEMORY
  %call_40127e = call %struct.Memory* @routine_mulsd___rax__rcx_8____xmm1(%struct.State* %0, i64  0, %struct.Memory* %loadMem_40127e)
  store %struct.Memory* %call_40127e, %struct.Memory** %MEMORY

  ; Code: addsd %xmm1, %xmm0	 RIP: 401283	 Bytes: 4
  %loadMem_401283 = load %struct.Memory*, %struct.Memory** %MEMORY
  %call_401283 = call %struct.Memory* @routine_addsd__xmm1___xmm0(%struct.State* %0, i64  0, %struct.Memory* %loadMem_401283)
  store %struct.Memory* %call_401283, %struct.Memory** %MEMORY

  ; Code: movq -0x60(%rbp), %rax	 RIP: 401287	 Bytes: 4
  %loadMem_401287 = load %struct.Memory*, %struct.Memory** %MEMORY
  %call_401287 = call %struct.Memory* @routine_movq_MINUS0x60__rbp____rax(%struct.State* %0, i64  0, %struct.Memory* %loadMem_401287)
  store %struct.Memory* %call_401287, %struct.Memory** %MEMORY

  ; Code: movslq -0x7c(%rbp), %rcx	 RIP: 40128b	 Bytes: 4
  %loadMem_40128b = load %struct.Memory*, %struct.Memory** %MEMORY
  %call_40128b = call %struct.Memory* @routine_movslq_MINUS0x7c__rbp____rcx(%struct.State* %0, i64  0, %struct.Memory* %loadMem_40128b)
  store %struct.Memory* %call_40128b, %struct.Memory** %MEMORY

  ; Code: movsd %xmm0, (%rax,%rcx,8)	 RIP: 40128f	 Bytes: 5
  %loadMem_40128f = load %struct.Memory*, %struct.Memory** %MEMORY
  %call_40128f = call %struct.Memory* @routine_movsd__xmm0____rax__rcx_8_(%struct.State* %0, i64  0, %struct.Memory* %loadMem_40128f)
  store %struct.Memory* %call_40128f, %struct.Memory** %MEMORY

  ; Code: movl -0x80(%rbp), %eax	 RIP: 401294	 Bytes: 3
  %loadMem_401294 = load %struct.Memory*, %struct.Memory** %MEMORY
  %call_401294 = call %struct.Memory* @routine_movl_MINUS0x80__rbp____eax(%struct.State* %0, i64  0, %struct.Memory* %loadMem_401294)
  store %struct.Memory* %call_401294, %struct.Memory** %MEMORY

  ; Code: addl $0x1, %eax	 RIP: 401297	 Bytes: 3
  %loadMem_401297 = load %struct.Memory*, %struct.Memory** %MEMORY
  %call_401297 = call %struct.Memory* @routine_addl__0x1___eax(%struct.State* %0, i64  0, %struct.Memory* %loadMem_401297)
  store %struct.Memory* %call_401297, %struct.Memory** %MEMORY

  ; Code: movl %eax, -0x80(%rbp)	 RIP: 40129a	 Bytes: 3
  %loadMem_40129a = load %struct.Memory*, %struct.Memory** %MEMORY
  %call_40129a = call %struct.Memory* @routine_movl__eax__MINUS0x80__rbp_(%struct.State* %0, i64  0, %struct.Memory* %loadMem_40129a)
  store %struct.Memory* %call_40129a, %struct.Memory** %MEMORY

  ; Code: jmpq .L_40123d	 RIP: 40129d	 Bytes: 5
  %loadMem_40129d = load %struct.Memory*, %struct.Memory** %MEMORY
  %call_40129d = call %struct.Memory* @routine_jmpq_.L_40123d(%struct.State* %0, i64  0, %struct.Memory* %loadMem_40129d, i64 -96, i64 5)
  store %struct.Memory* %call_40129d, %struct.Memory** %MEMORY

  br label %block_.L_40123d

  ; Code: .L_4012a2:	 RIP: 4012a2	 Bytes: 0
block_.L_4012a2:

  ; Code: jmpq .L_4012a7	 RIP: 4012a2	 Bytes: 5
  %loadMem_4012a2 = load %struct.Memory*, %struct.Memory** %MEMORY
  %call_4012a2 = call %struct.Memory* @routine_jmpq_.L_4012a7(%struct.State* %0, i64  0, %struct.Memory* %loadMem_4012a2, i64 5, i64 5)
  store %struct.Memory* %call_4012a2, %struct.Memory** %MEMORY

  br label %block_.L_4012a7

  ; Code: .L_4012a7:	 RIP: 4012a7	 Bytes: 0
block_.L_4012a7:

  ; Code: movl -0x7c(%rbp), %eax	 RIP: 4012a7	 Bytes: 3
  %loadMem_4012a7 = load %struct.Memory*, %struct.Memory** %MEMORY
  %call_4012a7 = call %struct.Memory* @routine_movl_MINUS0x7c__rbp____eax(%struct.State* %0, i64  0, %struct.Memory* %loadMem_4012a7)
  store %struct.Memory* %call_4012a7, %struct.Memory** %MEMORY

  ; Code: addl $0x1, %eax	 RIP: 4012aa	 Bytes: 3
  %loadMem_4012aa = load %struct.Memory*, %struct.Memory** %MEMORY
  %call_4012aa = call %struct.Memory* @routine_addl__0x1___eax(%struct.State* %0, i64  0, %struct.Memory* %loadMem_4012aa)
  store %struct.Memory* %call_4012aa, %struct.Memory** %MEMORY

  ; Code: movl %eax, -0x7c(%rbp)	 RIP: 4012ad	 Bytes: 3
  %loadMem_4012ad = load %struct.Memory*, %struct.Memory** %MEMORY
  %call_4012ad = call %struct.Memory* @routine_movl__eax__MINUS0x7c__rbp_(%struct.State* %0, i64  0, %struct.Memory* %loadMem_4012ad)
  store %struct.Memory* %call_4012ad, %struct.Memory** %MEMORY

  ; Code: jmpq .L_40122a	 RIP: 4012b0	 Bytes: 5
  %loadMem_4012b0 = load %struct.Memory*, %struct.Memory** %MEMORY
  %call_4012b0 = call %struct.Memory* @routine_jmpq_.L_40122a(%struct.State* %0, i64  0, %struct.Memory* %loadMem_4012b0, i64 -134, i64 5)
  store %struct.Memory* %call_4012b0, %struct.Memory** %MEMORY

  br label %block_.L_40122a

  ; Code: .L_4012b5:	 RIP: 4012b5	 Bytes: 0
block_.L_4012b5:

  ; Code: popq %rbx	 RIP: 4012b5	 Bytes: 1
  %loadMem_4012b5 = load %struct.Memory*, %struct.Memory** %MEMORY
  %call_4012b5 = call %struct.Memory* @routine_popq__rbx(%struct.State* %0, i64  0, %struct.Memory* %loadMem_4012b5)
  store %struct.Memory* %call_4012b5, %struct.Memory** %MEMORY

  ; Code: popq %r14	 RIP: 4012b6	 Bytes: 2
  %loadMem_4012b6 = load %struct.Memory*, %struct.Memory** %MEMORY
  %call_4012b6 = call %struct.Memory* @routine_popq__r14(%struct.State* %0, i64  0, %struct.Memory* %loadMem_4012b6)
  store %struct.Memory* %call_4012b6, %struct.Memory** %MEMORY

  ; Code: popq %rbp	 RIP: 4012b8	 Bytes: 1
  %loadMem_4012b8 = load %struct.Memory*, %struct.Memory** %MEMORY
  %call_4012b8 = call %struct.Memory* @routine_popq__rbp(%struct.State* %0, i64  0, %struct.Memory* %loadMem_4012b8)
  store %struct.Memory* %call_4012b8, %struct.Memory** %MEMORY

  ; Code: retq	 RIP: 4012b9	 Bytes: 1
  %loadMem_4012b9 = load %struct.Memory*, %struct.Memory** %MEMORY
  %call_4012b9 = call %struct.Memory* @routine_retq(%struct.State* %0, i64  0, %struct.Memory* %loadMem_4012b9)
  store %struct.Memory* %call_4012b9, %struct.Memory** %MEMORY

  ret %struct.Memory* %call_4012b9
}

define internal %struct.Memory* @_ZN12_GLOBAL__N_1L4PUSHI2InImEEEP6MemoryS4_R5StateT_(%struct.Memory*, %struct.State* nocapture dereferenceable(3376), i64) #0 {
  %4 = getelementptr inbounds %struct.State, %struct.State* %1, i64 0, i32 6, i32 13, i32 0, i32 0
  %5 = load i64, i64* %4, align 8
  %6 = add i64 %5, -8
  %7 = inttoptr i64 %6 to i64*
  store i64 %2, i64* %7
  store i64 %6, i64* %4, align 8
  ret %struct.Memory* %0
}

define %struct.Memory* @routine_pushq__rbp(%struct.State*  dereferenceable(3376), i64, %struct.Memory* ) #19 {
block_400488:
  %3 = getelementptr inbounds %struct.State, %struct.State* %0, i32 0, i32 6
  %4 = getelementptr inbounds %struct.GPR, %struct.GPR* %3, i32 0, i32 33
  %5 = getelementptr inbounds %struct.Reg, %struct.Reg* %4, i32 0, i32 0
  %PC = bitcast %union.anon* %5 to i64*
  %6 = getelementptr inbounds %struct.State, %struct.State* %0, i32 0, i32 6
  %7 = getelementptr inbounds %struct.GPR, %struct.GPR* %6, i32 0, i32 15
  %8 = getelementptr inbounds %struct.Reg, %struct.Reg* %7, i32 0, i32 0
  %RBP = bitcast %union.anon* %8 to i64*
  %9 = load i64, i64* %RBP
  %10 = load i64, i64* %PC
  %11 = add i64 %10, 1
  store i64 %11, i64* %PC
  %12 = call %struct.Memory* @_ZN12_GLOBAL__N_1L4PUSHI2InImEEEP6MemoryS4_R5StateT_(%struct.Memory* %2, %struct.State* %0, i64 %9)
  ret %struct.Memory* %12
}

define internal %struct.Memory* @_ZN12_GLOBAL__N_1L3MOVI3RnWImE2RnImEEEP6MemoryS6_R5StateT_T0_(%struct.Memory* readnone returned, %struct.State* nocapture readnone dereferenceable(3376), i64* nocapture, i64) #2 {
  store i64 %3, i64* %2, align 8
  ret %struct.Memory* %0
}

define %struct.Memory* @routine_movq__rsp___rbp(%struct.State*  dereferenceable(3376), i64, %struct.Memory* ) #19 {
block_400488:
  %3 = getelementptr inbounds %struct.State, %struct.State* %0, i32 0, i32 6
  %4 = getelementptr inbounds %struct.GPR, %struct.GPR* %3, i32 0, i32 33
  %5 = getelementptr inbounds %struct.Reg, %struct.Reg* %4, i32 0, i32 0
  %PC = bitcast %union.anon* %5 to i64*
  %6 = getelementptr inbounds %struct.State, %struct.State* %0, i32 0, i32 6
  %7 = getelementptr inbounds %struct.GPR, %struct.GPR* %6, i32 0, i32 13
  %8 = getelementptr inbounds %struct.Reg, %struct.Reg* %7, i32 0, i32 0
  %RSP = bitcast %union.anon* %8 to i64*
  %9 = getelementptr inbounds %struct.State, %struct.State* %0, i32 0, i32 6
  %10 = getelementptr inbounds %struct.GPR, %struct.GPR* %9, i32 0, i32 15
  %11 = getelementptr inbounds %struct.Reg, %struct.Reg* %10, i32 0, i32 0
  %RBP = bitcast %union.anon* %11 to i64*
  %12 = load i64, i64* %RSP
  %13 = load i64, i64* %PC
  %14 = add i64 %13, 3
  store i64 %14, i64* %PC
  %15 = call %struct.Memory* @_ZN12_GLOBAL__N_1L3MOVI3RnWImE2RnImEEEP6MemoryS6_R5StateT_T0_(%struct.Memory* %2, %struct.State* %0, i64* %RBP, i64 %12)
  ret %struct.Memory* %15
}


define %struct.Memory* @routine_pushq__r14(%struct.State*  dereferenceable(3376), i64, %struct.Memory* ) #19 {
block_400488:
  %3 = getelementptr inbounds %struct.State, %struct.State* %0, i32 0, i32 6
  %4 = getelementptr inbounds %struct.GPR, %struct.GPR* %3, i32 0, i32 33
  %5 = getelementptr inbounds %struct.Reg, %struct.Reg* %4, i32 0, i32 0
  %PC = bitcast %union.anon* %5 to i64*
  %6 = getelementptr inbounds %struct.State, %struct.State* %0, i32 0, i32 6
  %7 = getelementptr inbounds %struct.GPR, %struct.GPR* %6, i32 0, i32 29
  %8 = getelementptr inbounds %struct.Reg, %struct.Reg* %7, i32 0, i32 0
  %R14 = bitcast %union.anon* %8 to i64*
  %9 = load i64, i64* %R14
  %10 = load i64, i64* %PC
  %11 = add i64 %10, 2
  store i64 %11, i64* %PC
  %12 = call %struct.Memory* @_ZN12_GLOBAL__N_1L4PUSHI2InImEEEP6MemoryS4_R5StateT_(%struct.Memory* %2, %struct.State* %0, i64 %9)
  ret %struct.Memory* %12
}


define %struct.Memory* @routine_pushq__rbx(%struct.State*  dereferenceable(3376), i64, %struct.Memory* ) #19 {
block_400488:
  %3 = getelementptr inbounds %struct.State, %struct.State* %0, i32 0, i32 6
  %4 = getelementptr inbounds %struct.GPR, %struct.GPR* %3, i32 0, i32 33
  %5 = getelementptr inbounds %struct.Reg, %struct.Reg* %4, i32 0, i32 0
  %PC = bitcast %union.anon* %5 to i64*
  %6 = getelementptr inbounds %struct.State, %struct.State* %0, i32 0, i32 6
  %7 = getelementptr inbounds %struct.GPR, %struct.GPR* %6, i32 0, i32 3
  %8 = getelementptr inbounds %struct.Reg, %struct.Reg* %7, i32 0, i32 0
  %RBX = bitcast %union.anon* %8 to i64*
  %9 = load i64, i64* %RBX
  %10 = load i64, i64* %PC
  %11 = add i64 %10, 1
  store i64 %11, i64* %PC
  %12 = call %struct.Memory* @_ZN12_GLOBAL__N_1L4PUSHI2InImEEEP6MemoryS4_R5StateT_(%struct.Memory* %2, %struct.State* %0, i64 %9)
  ret %struct.Memory* %12
}

define internal %struct.Memory* @_ZN12_GLOBAL__N_1L3MOVI3RnWImE2MnImEEEP6MemoryS6_R5StateT_T0_(%struct.Memory* returned, %struct.State* nocapture readnone dereferenceable(3376), i64* nocapture, i64) #0 {
  %5 = inttoptr i64 %3 to i64*
  %6 = load i64, i64* %5
  store i64 %6, i64* %2, align 8
  ret %struct.Memory* %0
}

define %struct.Memory* @routine_movq_0x30__rbp____rax(%struct.State*  dereferenceable(3376), i64, %struct.Memory* ) #19 {
block_400488:
  %3 = getelementptr inbounds %struct.State, %struct.State* %0, i32 0, i32 6
  %4 = getelementptr inbounds %struct.GPR, %struct.GPR* %3, i32 0, i32 33
  %5 = getelementptr inbounds %struct.Reg, %struct.Reg* %4, i32 0, i32 0
  %PC = bitcast %union.anon* %5 to i64*
  %6 = getelementptr inbounds %struct.State, %struct.State* %0, i32 0, i32 6
  %7 = getelementptr inbounds %struct.GPR, %struct.GPR* %6, i32 0, i32 1
  %8 = getelementptr inbounds %struct.Reg, %struct.Reg* %7, i32 0, i32 0
  %RAX = bitcast %union.anon* %8 to i64*
  %9 = getelementptr inbounds %struct.State, %struct.State* %0, i32 0, i32 6
  %10 = getelementptr inbounds %struct.GPR, %struct.GPR* %9, i32 0, i32 15
  %11 = getelementptr inbounds %struct.Reg, %struct.Reg* %10, i32 0, i32 0
  %RBP = bitcast %union.anon* %11 to i64*
  %12 = load i64, i64* %RBP
  %13 = add i64 %12, 48
  %14 = load i64, i64* %PC
  %15 = add i64 %14, 4
  store i64 %15, i64* %PC
  %16 = call %struct.Memory* @_ZN12_GLOBAL__N_1L3MOVI3RnWImE2MnImEEEP6MemoryS6_R5StateT_T0_(%struct.Memory* %2, %struct.State* %0, i64* %RAX, i64 %13)
  ret %struct.Memory* %16
}


define %struct.Memory* @routine_movq_0x28__rbp____r10(%struct.State*  dereferenceable(3376), i64, %struct.Memory* ) #19 {
block_400488:
  %3 = getelementptr inbounds %struct.State, %struct.State* %0, i32 0, i32 6
  %4 = getelementptr inbounds %struct.GPR, %struct.GPR* %3, i32 0, i32 33
  %5 = getelementptr inbounds %struct.Reg, %struct.Reg* %4, i32 0, i32 0
  %PC = bitcast %union.anon* %5 to i64*
  %6 = getelementptr inbounds %struct.State, %struct.State* %0, i32 0, i32 6
  %7 = getelementptr inbounds %struct.GPR, %struct.GPR* %6, i32 0, i32 15
  %8 = getelementptr inbounds %struct.Reg, %struct.Reg* %7, i32 0, i32 0
  %RBP = bitcast %union.anon* %8 to i64*
  %9 = getelementptr inbounds %struct.State, %struct.State* %0, i32 0, i32 6
  %10 = getelementptr inbounds %struct.GPR, %struct.GPR* %9, i32 0, i32 21
  %11 = getelementptr inbounds %struct.Reg, %struct.Reg* %10, i32 0, i32 0
  %R10 = bitcast %union.anon* %11 to i64*
  %12 = load i64, i64* %RBP
  %13 = add i64 %12, 40
  %14 = load i64, i64* %PC
  %15 = add i64 %14, 4
  store i64 %15, i64* %PC
  %16 = call %struct.Memory* @_ZN12_GLOBAL__N_1L3MOVI3RnWImE2MnImEEEP6MemoryS6_R5StateT_T0_(%struct.Memory* %2, %struct.State* %0, i64* %R10, i64 %13)
  ret %struct.Memory* %16
}


define %struct.Memory* @routine_movq_0x20__rbp____r11(%struct.State*  dereferenceable(3376), i64, %struct.Memory* ) #19 {
block_400488:
  %3 = getelementptr inbounds %struct.State, %struct.State* %0, i32 0, i32 6
  %4 = getelementptr inbounds %struct.GPR, %struct.GPR* %3, i32 0, i32 33
  %5 = getelementptr inbounds %struct.Reg, %struct.Reg* %4, i32 0, i32 0
  %PC = bitcast %union.anon* %5 to i64*
  %6 = getelementptr inbounds %struct.State, %struct.State* %0, i32 0, i32 6
  %7 = getelementptr inbounds %struct.GPR, %struct.GPR* %6, i32 0, i32 15
  %8 = getelementptr inbounds %struct.Reg, %struct.Reg* %7, i32 0, i32 0
  %RBP = bitcast %union.anon* %8 to i64*
  %9 = getelementptr inbounds %struct.State, %struct.State* %0, i32 0, i32 6
  %10 = getelementptr inbounds %struct.GPR, %struct.GPR* %9, i32 0, i32 23
  %11 = getelementptr inbounds %struct.Reg, %struct.Reg* %10, i32 0, i32 0
  %R11 = bitcast %union.anon* %11 to i64*
  %12 = load i64, i64* %RBP
  %13 = add i64 %12, 32
  %14 = load i64, i64* %PC
  %15 = add i64 %14, 4
  store i64 %15, i64* %PC
  %16 = call %struct.Memory* @_ZN12_GLOBAL__N_1L3MOVI3RnWImE2MnImEEEP6MemoryS6_R5StateT_T0_(%struct.Memory* %2, %struct.State* %0, i64* %R11, i64 %13)
  ret %struct.Memory* %16
}


define %struct.Memory* @routine_movq_0x18__rbp____rbx(%struct.State*  dereferenceable(3376), i64, %struct.Memory* ) #19 {
block_400488:
  %3 = getelementptr inbounds %struct.State, %struct.State* %0, i32 0, i32 6
  %4 = getelementptr inbounds %struct.GPR, %struct.GPR* %3, i32 0, i32 33
  %5 = getelementptr inbounds %struct.Reg, %struct.Reg* %4, i32 0, i32 0
  %PC = bitcast %union.anon* %5 to i64*
  %6 = getelementptr inbounds %struct.State, %struct.State* %0, i32 0, i32 6
  %7 = getelementptr inbounds %struct.GPR, %struct.GPR* %6, i32 0, i32 3
  %8 = getelementptr inbounds %struct.Reg, %struct.Reg* %7, i32 0, i32 0
  %RBX = bitcast %union.anon* %8 to i64*
  %9 = getelementptr inbounds %struct.State, %struct.State* %0, i32 0, i32 6
  %10 = getelementptr inbounds %struct.GPR, %struct.GPR* %9, i32 0, i32 15
  %11 = getelementptr inbounds %struct.Reg, %struct.Reg* %10, i32 0, i32 0
  %RBP = bitcast %union.anon* %11 to i64*
  %12 = load i64, i64* %RBP
  %13 = add i64 %12, 24
  %14 = load i64, i64* %PC
  %15 = add i64 %14, 4
  store i64 %15, i64* %PC
  %16 = call %struct.Memory* @_ZN12_GLOBAL__N_1L3MOVI3RnWImE2MnImEEEP6MemoryS6_R5StateT_T0_(%struct.Memory* %2, %struct.State* %0, i64* %RBX, i64 %13)
  ret %struct.Memory* %16
}


define %struct.Memory* @routine_movq_0x10__rbp____r14(%struct.State*  dereferenceable(3376), i64, %struct.Memory* ) #19 {
block_400488:
  %3 = getelementptr inbounds %struct.State, %struct.State* %0, i32 0, i32 6
  %4 = getelementptr inbounds %struct.GPR, %struct.GPR* %3, i32 0, i32 33
  %5 = getelementptr inbounds %struct.Reg, %struct.Reg* %4, i32 0, i32 0
  %PC = bitcast %union.anon* %5 to i64*
  %6 = getelementptr inbounds %struct.State, %struct.State* %0, i32 0, i32 6
  %7 = getelementptr inbounds %struct.GPR, %struct.GPR* %6, i32 0, i32 15
  %8 = getelementptr inbounds %struct.Reg, %struct.Reg* %7, i32 0, i32 0
  %RBP = bitcast %union.anon* %8 to i64*
  %9 = getelementptr inbounds %struct.State, %struct.State* %0, i32 0, i32 6
  %10 = getelementptr inbounds %struct.GPR, %struct.GPR* %9, i32 0, i32 29
  %11 = getelementptr inbounds %struct.Reg, %struct.Reg* %10, i32 0, i32 0
  %R14 = bitcast %union.anon* %11 to i64*
  %12 = load i64, i64* %RBP
  %13 = add i64 %12, 16
  %14 = load i64, i64* %PC
  %15 = add i64 %14, 4
  store i64 %15, i64* %PC
  %16 = call %struct.Memory* @_ZN12_GLOBAL__N_1L3MOVI3RnWImE2MnImEEEP6MemoryS6_R5StateT_T0_(%struct.Memory* %2, %struct.State* %0, i64* %R14, i64 %13)
  ret %struct.Memory* %16
}

define internal %struct.Memory* @_ZN12_GLOBAL__N_1L3MOVI3MnWIjE2RnIjEEEP6MemoryS6_R5StateT_T0_(%struct.Memory* readnone, %struct.State* nocapture readnone dereferenceable(3376), i64, i64) #8 {
  %5 = trunc i64 %3 to i32
  %6 = inttoptr i64 %2 to i32*
  store i32 %5, i32* %6
  ret %struct.Memory* %0
}

define %struct.Memory* @routine_movl__edi__MINUS0x14__rbp_(%struct.State*  dereferenceable(3376), i64, %struct.Memory* ) #19 {
block_400488:
  %3 = getelementptr inbounds %struct.State, %struct.State* %0, i32 0, i32 6
  %4 = getelementptr inbounds %struct.GPR, %struct.GPR* %3, i32 0, i32 33
  %5 = getelementptr inbounds %struct.Reg, %struct.Reg* %4, i32 0, i32 0
  %PC = bitcast %union.anon* %5 to i64*
  %6 = getelementptr inbounds %struct.State, %struct.State* %0, i32 0, i32 6
  %7 = getelementptr inbounds %struct.GPR, %struct.GPR* %6, i32 0, i32 11
  %8 = getelementptr inbounds %struct.Reg, %struct.Reg* %7, i32 0, i32 0
  %EDI = bitcast %union.anon* %8 to i32*
  %9 = getelementptr inbounds %struct.State, %struct.State* %0, i32 0, i32 6
  %10 = getelementptr inbounds %struct.GPR, %struct.GPR* %9, i32 0, i32 15
  %11 = getelementptr inbounds %struct.Reg, %struct.Reg* %10, i32 0, i32 0
  %RBP = bitcast %union.anon* %11 to i64*
  %12 = load i64, i64* %RBP
  %13 = sub i64 %12, 20
  %14 = load i32, i32* %EDI
  %15 = zext i32 %14 to i64
  %16 = load i64, i64* %PC
  %17 = add i64 %16, 3
  store i64 %17, i64* %PC
  %18 = call %struct.Memory* @_ZN12_GLOBAL__N_1L3MOVI3MnWIjE2RnIjEEEP6MemoryS6_R5StateT_T0_(%struct.Memory* %2, %struct.State* %0, i64 %13, i64 %15)
  ret %struct.Memory* %18
}

define internal %struct.Memory* @_ZN12_GLOBAL__N_1L9MOVSD_MEMI4MVnWI7vec64_tE2VnI8vec128_tEEEP6MemoryS8_R5StateT_T0_(%struct.Memory* readnone, %struct.State* nocapture readnone dereferenceable(3376), i64, i8* nocapture readonly) #7 {
  %5 = bitcast i8* %3 to double*
  %6 = load double, double* %5, align 1
  %7 = inttoptr i64 %2 to double*
  store double %6, double* %7
  ret %struct.Memory* %0
}

define %struct.Memory* @routine_movsd__xmm0__MINUS0x20__rbp_(%struct.State*  dereferenceable(3376), i64, %struct.Memory* ) #19 {
block_400488:
  %3 = getelementptr inbounds %struct.State, %struct.State* %0, i32 0, i32 6
  %4 = getelementptr inbounds %struct.GPR, %struct.GPR* %3, i32 0, i32 33
  %5 = getelementptr inbounds %struct.Reg, %struct.Reg* %4, i32 0, i32 0
  %PC = bitcast %union.anon* %5 to i64*
  %6 = getelementptr inbounds %struct.State, %struct.State* %0, i32 0, i32 6
  %7 = getelementptr inbounds %struct.GPR, %struct.GPR* %6, i32 0, i32 15
  %8 = getelementptr inbounds %struct.Reg, %struct.Reg* %7, i32 0, i32 0
  %RBP = bitcast %union.anon* %8 to i64*
  %9 = getelementptr inbounds %struct.State, %struct.State* %0, i32 0, i32 1
  %10 = getelementptr inbounds [32 x %union.VectorReg], [32 x %union.VectorReg]* %9, i64 0, i64 0
  %XMM0 = bitcast %union.VectorReg* %10 to %union.vec128_t*
  %11 = load i64, i64* %RBP
  %12 = sub i64 %11, 32
  %13 = bitcast %union.vec128_t* %XMM0 to i8*
  %14 = load i64, i64* %PC
  %15 = add i64 %14, 5
  store i64 %15, i64* %PC
  %16 = call %struct.Memory* @_ZN12_GLOBAL__N_1L9MOVSD_MEMI4MVnWI7vec64_tE2VnI8vec128_tEEEP6MemoryS8_R5StateT_T0_(%struct.Memory* %2, %struct.State* %0, i64 %12, i8* %13)
  ret %struct.Memory* %16
}


define %struct.Memory* @routine_movsd__xmm1__MINUS0x28__rbp_(%struct.State*  dereferenceable(3376), i64, %struct.Memory* ) #19 {
block_400488:
  %3 = getelementptr inbounds %struct.State, %struct.State* %0, i32 0, i32 6
  %4 = getelementptr inbounds %struct.GPR, %struct.GPR* %3, i32 0, i32 33
  %5 = getelementptr inbounds %struct.Reg, %struct.Reg* %4, i32 0, i32 0
  %PC = bitcast %union.anon* %5 to i64*
  %6 = getelementptr inbounds %struct.State, %struct.State* %0, i32 0, i32 6
  %7 = getelementptr inbounds %struct.GPR, %struct.GPR* %6, i32 0, i32 15
  %8 = getelementptr inbounds %struct.Reg, %struct.Reg* %7, i32 0, i32 0
  %RBP = bitcast %union.anon* %8 to i64*
  %9 = getelementptr inbounds %struct.State, %struct.State* %0, i32 0, i32 1
  %10 = getelementptr inbounds [32 x %union.VectorReg], [32 x %union.VectorReg]* %9, i64 0, i64 1
  %XMM1 = bitcast %union.VectorReg* %10 to %union.vec128_t*
  %11 = load i64, i64* %RBP
  %12 = sub i64 %11, 40
  %13 = bitcast %union.vec128_t* %XMM1 to i8*
  %14 = load i64, i64* %PC
  %15 = add i64 %14, 5
  store i64 %15, i64* %PC
  %16 = call %struct.Memory* @_ZN12_GLOBAL__N_1L9MOVSD_MEMI4MVnWI7vec64_tE2VnI8vec128_tEEEP6MemoryS8_R5StateT_T0_(%struct.Memory* %2, %struct.State* %0, i64 %12, i8* %13)
  ret %struct.Memory* %16
}

define internal %struct.Memory* @_ZN12_GLOBAL__N_1L3MOVI3MnWImE2RnImEEEP6MemoryS6_R5StateT_T0_(%struct.Memory* readnone, %struct.State* nocapture readnone dereferenceable(3376), i64, i64) #8 {
  %5 = inttoptr i64 %2 to i64*
  store i64 %3, i64* %5
  ret %struct.Memory* %0
}

define %struct.Memory* @routine_movq__rsi__MINUS0x30__rbp_(%struct.State*  dereferenceable(3376), i64, %struct.Memory* ) #19 {
block_400488:
  %3 = getelementptr inbounds %struct.State, %struct.State* %0, i32 0, i32 6
  %4 = getelementptr inbounds %struct.GPR, %struct.GPR* %3, i32 0, i32 33
  %5 = getelementptr inbounds %struct.Reg, %struct.Reg* %4, i32 0, i32 0
  %PC = bitcast %union.anon* %5 to i64*
  %6 = getelementptr inbounds %struct.State, %struct.State* %0, i32 0, i32 6
  %7 = getelementptr inbounds %struct.GPR, %struct.GPR* %6, i32 0, i32 9
  %8 = getelementptr inbounds %struct.Reg, %struct.Reg* %7, i32 0, i32 0
  %RSI = bitcast %union.anon* %8 to i64*
  %9 = getelementptr inbounds %struct.State, %struct.State* %0, i32 0, i32 6
  %10 = getelementptr inbounds %struct.GPR, %struct.GPR* %9, i32 0, i32 15
  %11 = getelementptr inbounds %struct.Reg, %struct.Reg* %10, i32 0, i32 0
  %RBP = bitcast %union.anon* %11 to i64*
  %12 = load i64, i64* %RBP
  %13 = sub i64 %12, 48
  %14 = load i64, i64* %RSI
  %15 = load i64, i64* %PC
  %16 = add i64 %15, 4
  store i64 %16, i64* %PC
  %17 = call %struct.Memory* @_ZN12_GLOBAL__N_1L3MOVI3MnWImE2RnImEEEP6MemoryS6_R5StateT_T0_(%struct.Memory* %2, %struct.State* %0, i64 %13, i64 %14)
  ret %struct.Memory* %17
}


define %struct.Memory* @routine_movq__rdx__MINUS0x38__rbp_(%struct.State*  dereferenceable(3376), i64, %struct.Memory* ) #19 {
block_400488:
  %3 = getelementptr inbounds %struct.State, %struct.State* %0, i32 0, i32 6
  %4 = getelementptr inbounds %struct.GPR, %struct.GPR* %3, i32 0, i32 33
  %5 = getelementptr inbounds %struct.Reg, %struct.Reg* %4, i32 0, i32 0
  %PC = bitcast %union.anon* %5 to i64*
  %6 = getelementptr inbounds %struct.State, %struct.State* %0, i32 0, i32 6
  %7 = getelementptr inbounds %struct.GPR, %struct.GPR* %6, i32 0, i32 7
  %8 = getelementptr inbounds %struct.Reg, %struct.Reg* %7, i32 0, i32 0
  %RDX = bitcast %union.anon* %8 to i64*
  %9 = getelementptr inbounds %struct.State, %struct.State* %0, i32 0, i32 6
  %10 = getelementptr inbounds %struct.GPR, %struct.GPR* %9, i32 0, i32 15
  %11 = getelementptr inbounds %struct.Reg, %struct.Reg* %10, i32 0, i32 0
  %RBP = bitcast %union.anon* %11 to i64*
  %12 = load i64, i64* %RBP
  %13 = sub i64 %12, 56
  %14 = load i64, i64* %RDX
  %15 = load i64, i64* %PC
  %16 = add i64 %15, 4
  store i64 %16, i64* %PC
  %17 = call %struct.Memory* @_ZN12_GLOBAL__N_1L3MOVI3MnWImE2RnImEEEP6MemoryS6_R5StateT_T0_(%struct.Memory* %2, %struct.State* %0, i64 %13, i64 %14)
  ret %struct.Memory* %17
}


define %struct.Memory* @routine_movq__rcx__MINUS0x40__rbp_(%struct.State*  dereferenceable(3376), i64, %struct.Memory* ) #19 {
block_400488:
  %3 = getelementptr inbounds %struct.State, %struct.State* %0, i32 0, i32 6
  %4 = getelementptr inbounds %struct.GPR, %struct.GPR* %3, i32 0, i32 33
  %5 = getelementptr inbounds %struct.Reg, %struct.Reg* %4, i32 0, i32 0
  %PC = bitcast %union.anon* %5 to i64*
  %6 = getelementptr inbounds %struct.State, %struct.State* %0, i32 0, i32 6
  %7 = getelementptr inbounds %struct.GPR, %struct.GPR* %6, i32 0, i32 5
  %8 = getelementptr inbounds %struct.Reg, %struct.Reg* %7, i32 0, i32 0
  %RCX = bitcast %union.anon* %8 to i64*
  %9 = getelementptr inbounds %struct.State, %struct.State* %0, i32 0, i32 6
  %10 = getelementptr inbounds %struct.GPR, %struct.GPR* %9, i32 0, i32 15
  %11 = getelementptr inbounds %struct.Reg, %struct.Reg* %10, i32 0, i32 0
  %RBP = bitcast %union.anon* %11 to i64*
  %12 = load i64, i64* %RBP
  %13 = sub i64 %12, 64
  %14 = load i64, i64* %RCX
  %15 = load i64, i64* %PC
  %16 = add i64 %15, 4
  store i64 %16, i64* %PC
  %17 = call %struct.Memory* @_ZN12_GLOBAL__N_1L3MOVI3MnWImE2RnImEEEP6MemoryS6_R5StateT_T0_(%struct.Memory* %2, %struct.State* %0, i64 %13, i64 %14)
  ret %struct.Memory* %17
}


define %struct.Memory* @routine_movq__r8__MINUS0x48__rbp_(%struct.State*  dereferenceable(3376), i64, %struct.Memory* ) #19 {
block_400488:
  %3 = getelementptr inbounds %struct.State, %struct.State* %0, i32 0, i32 6
  %4 = getelementptr inbounds %struct.GPR, %struct.GPR* %3, i32 0, i32 33
  %5 = getelementptr inbounds %struct.Reg, %struct.Reg* %4, i32 0, i32 0
  %PC = bitcast %union.anon* %5 to i64*
  %6 = getelementptr inbounds %struct.State, %struct.State* %0, i32 0, i32 6
  %7 = getelementptr inbounds %struct.GPR, %struct.GPR* %6, i32 0, i32 15
  %8 = getelementptr inbounds %struct.Reg, %struct.Reg* %7, i32 0, i32 0
  %RBP = bitcast %union.anon* %8 to i64*
  %9 = getelementptr inbounds %struct.State, %struct.State* %0, i32 0, i32 6
  %10 = getelementptr inbounds %struct.GPR, %struct.GPR* %9, i32 0, i32 17
  %11 = getelementptr inbounds %struct.Reg, %struct.Reg* %10, i32 0, i32 0
  %R8 = bitcast %union.anon* %11 to i64*
  %12 = load i64, i64* %RBP
  %13 = sub i64 %12, 72
  %14 = load i64, i64* %R8
  %15 = load i64, i64* %PC
  %16 = add i64 %15, 4
  store i64 %16, i64* %PC
  %17 = call %struct.Memory* @_ZN12_GLOBAL__N_1L3MOVI3MnWImE2RnImEEEP6MemoryS6_R5StateT_T0_(%struct.Memory* %2, %struct.State* %0, i64 %13, i64 %14)
  ret %struct.Memory* %17
}


define %struct.Memory* @routine_movq__r9__MINUS0x50__rbp_(%struct.State*  dereferenceable(3376), i64, %struct.Memory* ) #19 {
block_400488:
  %3 = getelementptr inbounds %struct.State, %struct.State* %0, i32 0, i32 6
  %4 = getelementptr inbounds %struct.GPR, %struct.GPR* %3, i32 0, i32 33
  %5 = getelementptr inbounds %struct.Reg, %struct.Reg* %4, i32 0, i32 0
  %PC = bitcast %union.anon* %5 to i64*
  %6 = getelementptr inbounds %struct.State, %struct.State* %0, i32 0, i32 6
  %7 = getelementptr inbounds %struct.GPR, %struct.GPR* %6, i32 0, i32 15
  %8 = getelementptr inbounds %struct.Reg, %struct.Reg* %7, i32 0, i32 0
  %RBP = bitcast %union.anon* %8 to i64*
  %9 = getelementptr inbounds %struct.State, %struct.State* %0, i32 0, i32 6
  %10 = getelementptr inbounds %struct.GPR, %struct.GPR* %9, i32 0, i32 19
  %11 = getelementptr inbounds %struct.Reg, %struct.Reg* %10, i32 0, i32 0
  %R9 = bitcast %union.anon* %11 to i64*
  %12 = load i64, i64* %RBP
  %13 = sub i64 %12, 80
  %14 = load i64, i64* %R9
  %15 = load i64, i64* %PC
  %16 = add i64 %15, 4
  store i64 %16, i64* %PC
  %17 = call %struct.Memory* @_ZN12_GLOBAL__N_1L3MOVI3MnWImE2RnImEEEP6MemoryS6_R5StateT_T0_(%struct.Memory* %2, %struct.State* %0, i64 %13, i64 %14)
  ret %struct.Memory* %17
}


define %struct.Memory* @routine_movq__r14__MINUS0x58__rbp_(%struct.State*  dereferenceable(3376), i64, %struct.Memory* ) #19 {
block_400488:
  %3 = getelementptr inbounds %struct.State, %struct.State* %0, i32 0, i32 6
  %4 = getelementptr inbounds %struct.GPR, %struct.GPR* %3, i32 0, i32 33
  %5 = getelementptr inbounds %struct.Reg, %struct.Reg* %4, i32 0, i32 0
  %PC = bitcast %union.anon* %5 to i64*
  %6 = getelementptr inbounds %struct.State, %struct.State* %0, i32 0, i32 6
  %7 = getelementptr inbounds %struct.GPR, %struct.GPR* %6, i32 0, i32 15
  %8 = getelementptr inbounds %struct.Reg, %struct.Reg* %7, i32 0, i32 0
  %RBP = bitcast %union.anon* %8 to i64*
  %9 = getelementptr inbounds %struct.State, %struct.State* %0, i32 0, i32 6
  %10 = getelementptr inbounds %struct.GPR, %struct.GPR* %9, i32 0, i32 29
  %11 = getelementptr inbounds %struct.Reg, %struct.Reg* %10, i32 0, i32 0
  %R14 = bitcast %union.anon* %11 to i64*
  %12 = load i64, i64* %RBP
  %13 = sub i64 %12, 88
  %14 = load i64, i64* %R14
  %15 = load i64, i64* %PC
  %16 = add i64 %15, 4
  store i64 %16, i64* %PC
  %17 = call %struct.Memory* @_ZN12_GLOBAL__N_1L3MOVI3MnWImE2RnImEEEP6MemoryS6_R5StateT_T0_(%struct.Memory* %2, %struct.State* %0, i64 %13, i64 %14)
  ret %struct.Memory* %17
}


define %struct.Memory* @routine_movq__rbx__MINUS0x60__rbp_(%struct.State*  dereferenceable(3376), i64, %struct.Memory* ) #19 {
block_400488:
  %3 = getelementptr inbounds %struct.State, %struct.State* %0, i32 0, i32 6
  %4 = getelementptr inbounds %struct.GPR, %struct.GPR* %3, i32 0, i32 33
  %5 = getelementptr inbounds %struct.Reg, %struct.Reg* %4, i32 0, i32 0
  %PC = bitcast %union.anon* %5 to i64*
  %6 = getelementptr inbounds %struct.State, %struct.State* %0, i32 0, i32 6
  %7 = getelementptr inbounds %struct.GPR, %struct.GPR* %6, i32 0, i32 3
  %8 = getelementptr inbounds %struct.Reg, %struct.Reg* %7, i32 0, i32 0
  %RBX = bitcast %union.anon* %8 to i64*
  %9 = getelementptr inbounds %struct.State, %struct.State* %0, i32 0, i32 6
  %10 = getelementptr inbounds %struct.GPR, %struct.GPR* %9, i32 0, i32 15
  %11 = getelementptr inbounds %struct.Reg, %struct.Reg* %10, i32 0, i32 0
  %RBP = bitcast %union.anon* %11 to i64*
  %12 = load i64, i64* %RBP
  %13 = sub i64 %12, 96
  %14 = load i64, i64* %RBX
  %15 = load i64, i64* %PC
  %16 = add i64 %15, 4
  store i64 %16, i64* %PC
  %17 = call %struct.Memory* @_ZN12_GLOBAL__N_1L3MOVI3MnWImE2RnImEEEP6MemoryS6_R5StateT_T0_(%struct.Memory* %2, %struct.State* %0, i64 %13, i64 %14)
  ret %struct.Memory* %17
}


define %struct.Memory* @routine_movq__r11__MINUS0x68__rbp_(%struct.State*  dereferenceable(3376), i64, %struct.Memory* ) #19 {
block_400488:
  %3 = getelementptr inbounds %struct.State, %struct.State* %0, i32 0, i32 6
  %4 = getelementptr inbounds %struct.GPR, %struct.GPR* %3, i32 0, i32 33
  %5 = getelementptr inbounds %struct.Reg, %struct.Reg* %4, i32 0, i32 0
  %PC = bitcast %union.anon* %5 to i64*
  %6 = getelementptr inbounds %struct.State, %struct.State* %0, i32 0, i32 6
  %7 = getelementptr inbounds %struct.GPR, %struct.GPR* %6, i32 0, i32 15
  %8 = getelementptr inbounds %struct.Reg, %struct.Reg* %7, i32 0, i32 0
  %RBP = bitcast %union.anon* %8 to i64*
  %9 = getelementptr inbounds %struct.State, %struct.State* %0, i32 0, i32 6
  %10 = getelementptr inbounds %struct.GPR, %struct.GPR* %9, i32 0, i32 23
  %11 = getelementptr inbounds %struct.Reg, %struct.Reg* %10, i32 0, i32 0
  %R11 = bitcast %union.anon* %11 to i64*
  %12 = load i64, i64* %RBP
  %13 = sub i64 %12, 104
  %14 = load i64, i64* %R11
  %15 = load i64, i64* %PC
  %16 = add i64 %15, 4
  store i64 %16, i64* %PC
  %17 = call %struct.Memory* @_ZN12_GLOBAL__N_1L3MOVI3MnWImE2RnImEEEP6MemoryS6_R5StateT_T0_(%struct.Memory* %2, %struct.State* %0, i64 %13, i64 %14)
  ret %struct.Memory* %17
}


define %struct.Memory* @routine_movq__r10__MINUS0x70__rbp_(%struct.State*  dereferenceable(3376), i64, %struct.Memory* ) #19 {
block_400488:
  %3 = getelementptr inbounds %struct.State, %struct.State* %0, i32 0, i32 6
  %4 = getelementptr inbounds %struct.GPR, %struct.GPR* %3, i32 0, i32 33
  %5 = getelementptr inbounds %struct.Reg, %struct.Reg* %4, i32 0, i32 0
  %PC = bitcast %union.anon* %5 to i64*
  %6 = getelementptr inbounds %struct.State, %struct.State* %0, i32 0, i32 6
  %7 = getelementptr inbounds %struct.GPR, %struct.GPR* %6, i32 0, i32 15
  %8 = getelementptr inbounds %struct.Reg, %struct.Reg* %7, i32 0, i32 0
  %RBP = bitcast %union.anon* %8 to i64*
  %9 = getelementptr inbounds %struct.State, %struct.State* %0, i32 0, i32 6
  %10 = getelementptr inbounds %struct.GPR, %struct.GPR* %9, i32 0, i32 21
  %11 = getelementptr inbounds %struct.Reg, %struct.Reg* %10, i32 0, i32 0
  %R10 = bitcast %union.anon* %11 to i64*
  %12 = load i64, i64* %RBP
  %13 = sub i64 %12, 112
  %14 = load i64, i64* %R10
  %15 = load i64, i64* %PC
  %16 = add i64 %15, 4
  store i64 %16, i64* %PC
  %17 = call %struct.Memory* @_ZN12_GLOBAL__N_1L3MOVI3MnWImE2RnImEEEP6MemoryS6_R5StateT_T0_(%struct.Memory* %2, %struct.State* %0, i64 %13, i64 %14)
  ret %struct.Memory* %17
}


define %struct.Memory* @routine_movq__rax__MINUS0x78__rbp_(%struct.State*  dereferenceable(3376), i64, %struct.Memory* ) #19 {
block_400488:
  %3 = getelementptr inbounds %struct.State, %struct.State* %0, i32 0, i32 6
  %4 = getelementptr inbounds %struct.GPR, %struct.GPR* %3, i32 0, i32 33
  %5 = getelementptr inbounds %struct.Reg, %struct.Reg* %4, i32 0, i32 0
  %PC = bitcast %union.anon* %5 to i64*
  %6 = getelementptr inbounds %struct.State, %struct.State* %0, i32 0, i32 6
  %7 = getelementptr inbounds %struct.GPR, %struct.GPR* %6, i32 0, i32 1
  %8 = getelementptr inbounds %struct.Reg, %struct.Reg* %7, i32 0, i32 0
  %RAX = bitcast %union.anon* %8 to i64*
  %9 = getelementptr inbounds %struct.State, %struct.State* %0, i32 0, i32 6
  %10 = getelementptr inbounds %struct.GPR, %struct.GPR* %9, i32 0, i32 15
  %11 = getelementptr inbounds %struct.Reg, %struct.Reg* %10, i32 0, i32 0
  %RBP = bitcast %union.anon* %11 to i64*
  %12 = load i64, i64* %RBP
  %13 = sub i64 %12, 120
  %14 = load i64, i64* %RAX
  %15 = load i64, i64* %PC
  %16 = add i64 %15, 4
  store i64 %16, i64* %PC
  %17 = call %struct.Memory* @_ZN12_GLOBAL__N_1L3MOVI3MnWImE2RnImEEEP6MemoryS6_R5StateT_T0_(%struct.Memory* %2, %struct.State* %0, i64 %13, i64 %14)
  ret %struct.Memory* %17
}

define internal %struct.Memory* @_ZN12_GLOBAL__N_1L3MOVI3MnWIjE2InIjEEEP6MemoryS6_R5StateT_T0_(%struct.Memory* readnone, %struct.State* nocapture readnone dereferenceable(3376), i64, i64) #8 {
  %5 = trunc i64 %3 to i32
  %6 = inttoptr i64 %2 to i32*
  store i32 %5, i32* %6
  ret %struct.Memory* %0
}

define %struct.Memory* @routine_movl__0x0__MINUS0x7c__rbp_(%struct.State*  dereferenceable(3376), i64, %struct.Memory* ) #19 {
block_400488:
  %3 = getelementptr inbounds %struct.State, %struct.State* %0, i32 0, i32 6
  %4 = getelementptr inbounds %struct.GPR, %struct.GPR* %3, i32 0, i32 33
  %5 = getelementptr inbounds %struct.Reg, %struct.Reg* %4, i32 0, i32 0
  %PC = bitcast %union.anon* %5 to i64*
  %6 = getelementptr inbounds %struct.State, %struct.State* %0, i32 0, i32 6
  %7 = getelementptr inbounds %struct.GPR, %struct.GPR* %6, i32 0, i32 15
  %8 = getelementptr inbounds %struct.Reg, %struct.Reg* %7, i32 0, i32 0
  %RBP = bitcast %union.anon* %8 to i64*
  %9 = load i64, i64* %RBP
  %10 = sub i64 %9, 124
  %11 = load i64, i64* %PC
  %12 = add i64 %11, 7
  store i64 %12, i64* %PC
  %13 = call %struct.Memory* @_ZN12_GLOBAL__N_1L3MOVI3MnWIjE2InIjEEEP6MemoryS6_R5StateT_T0_(%struct.Memory* %2, %struct.State* %0, i64 %10, i64 0)
  ret %struct.Memory* %13
}

define internal %struct.Memory* @_ZN12_GLOBAL__N_1L3MOVI3RnWImE2MnIjEEEP6MemoryS6_R5StateT_T0_(%struct.Memory* returned, %struct.State* nocapture readnone dereferenceable(3376), i64* nocapture, i64) #0 {
  %5 = inttoptr i64 %3 to i32*
  %6 = load i32, i32* %5
  %7 = zext i32 %6 to i64
  store i64 %7, i64* %2, align 8
  ret %struct.Memory* %0
}

define %struct.Memory* @routine_movl_MINUS0x7c__rbp____eax(%struct.State*  dereferenceable(3376), i64, %struct.Memory* ) #19 {
block_400488:
  %3 = getelementptr inbounds %struct.State, %struct.State* %0, i32 0, i32 6
  %4 = getelementptr inbounds %struct.GPR, %struct.GPR* %3, i32 0, i32 33
  %5 = getelementptr inbounds %struct.Reg, %struct.Reg* %4, i32 0, i32 0
  %PC = bitcast %union.anon* %5 to i64*
  %6 = getelementptr inbounds %struct.State, %struct.State* %0, i32 0, i32 6
  %7 = getelementptr inbounds %struct.GPR, %struct.GPR* %6, i32 0, i32 1
  %8 = getelementptr inbounds %struct.Reg, %struct.Reg* %7, i32 0, i32 0
  %RAX = bitcast %union.anon* %8 to i64*
  %9 = getelementptr inbounds %struct.State, %struct.State* %0, i32 0, i32 6
  %10 = getelementptr inbounds %struct.GPR, %struct.GPR* %9, i32 0, i32 15
  %11 = getelementptr inbounds %struct.Reg, %struct.Reg* %10, i32 0, i32 0
  %RBP = bitcast %union.anon* %11 to i64*
  %12 = load i64, i64* %RBP
  %13 = sub i64 %12, 124
  %14 = load i64, i64* %PC
  %15 = add i64 %14, 3
  store i64 %15, i64* %PC
  %16 = call %struct.Memory* @_ZN12_GLOBAL__N_1L3MOVI3RnWImE2MnIjEEEP6MemoryS6_R5StateT_T0_(%struct.Memory* %2, %struct.State* %0, i64* %RAX, i64 %13)
  ret %struct.Memory* %16
}

define internal %struct.Memory* @_ZN12_GLOBAL__N_1L3CMPI2RnIjE2MnIjEEEP6MemoryS6_R5StateT_T0_(%struct.Memory*, %struct.State* nocapture dereferenceable(3376), i64, i64) #0 {
  %5 = trunc i64 %2 to i32
  %6 = inttoptr i64 %3 to i32*
  %7 = load i32, i32* %6
  %8 = sub i32 %5, %7
  %9 = icmp ult i32 %5, %7
  %10 = zext i1 %9 to i8
  %11 = getelementptr inbounds %struct.State, %struct.State* %1, i64 0, i32 2, i32 1
  store i8 %10, i8* %11, align 1
  %12 = and i32 %8, 255
  %13 = tail call i32 @llvm.ctpop.i32(i32 %12) #22
  %14 = trunc i32 %13 to i8
  %15 = and i8 %14, 1
  %16 = xor i8 %15, 1
  %17 = getelementptr inbounds %struct.State, %struct.State* %1, i64 0, i32 2, i32 3
  store i8 %16, i8* %17, align 1
  %18 = xor i32 %7, %5
  %19 = xor i32 %18, %8
  %20 = lshr i32 %19, 4
  %21 = trunc i32 %20 to i8
  %22 = and i8 %21, 1
  %23 = getelementptr inbounds %struct.State, %struct.State* %1, i64 0, i32 2, i32 5
  store i8 %22, i8* %23, align 1
  %24 = icmp eq i32 %8, 0
  %25 = zext i1 %24 to i8
  %26 = getelementptr inbounds %struct.State, %struct.State* %1, i64 0, i32 2, i32 7
  store i8 %25, i8* %26, align 1
  %27 = lshr i32 %8, 31
  %28 = trunc i32 %27 to i8
  %29 = getelementptr inbounds %struct.State, %struct.State* %1, i64 0, i32 2, i32 9
  store i8 %28, i8* %29, align 1
  %30 = lshr i32 %5, 31
  %31 = lshr i32 %7, 31
  %32 = xor i32 %31, %30
  %33 = xor i32 %27, %30
  %34 = add   i32 %33, %32
  %35 = icmp eq i32 %34, 2
  %36 = zext i1 %35 to i8
  %37 = getelementptr inbounds %struct.State, %struct.State* %1, i64 0, i32 2, i32 13
  store i8 %36, i8* %37, align 1
  ret %struct.Memory* %0
}

define %struct.Memory* @routine_cmpl_MINUS0x14__rbp____eax(%struct.State*  dereferenceable(3376), i64, %struct.Memory* ) #19 {
block_400488:
  %3 = getelementptr inbounds %struct.State, %struct.State* %0, i32 0, i32 6
  %4 = getelementptr inbounds %struct.GPR, %struct.GPR* %3, i32 0, i32 33
  %5 = getelementptr inbounds %struct.Reg, %struct.Reg* %4, i32 0, i32 0
  %PC = bitcast %union.anon* %5 to i64*
  %6 = getelementptr inbounds %struct.State, %struct.State* %0, i32 0, i32 6
  %7 = getelementptr inbounds %struct.GPR, %struct.GPR* %6, i32 0, i32 1
  %8 = getelementptr inbounds %struct.Reg, %struct.Reg* %7, i32 0, i32 0
  %EAX = bitcast %union.anon* %8 to i32*
  %9 = getelementptr inbounds %struct.State, %struct.State* %0, i32 0, i32 6
  %10 = getelementptr inbounds %struct.GPR, %struct.GPR* %9, i32 0, i32 15
  %11 = getelementptr inbounds %struct.Reg, %struct.Reg* %10, i32 0, i32 0
  %RBP = bitcast %union.anon* %11 to i64*
  %12 = load i32, i32* %EAX
  %13 = zext i32 %12 to i64
  %14 = load i64, i64* %RBP
  %15 = sub i64 %14, 20
  %16 = load i64, i64* %PC
  %17 = add i64 %16, 3
  store i64 %17, i64* %PC
  %18 = call %struct.Memory* @_ZN12_GLOBAL__N_1L3CMPI2RnIjE2MnIjEEEP6MemoryS6_R5StateT_T0_(%struct.Memory* %2, %struct.State* %0, i64 %13, i64 %15)
  ret %struct.Memory* %18
}

define internal %struct.Memory* @_ZN12_GLOBAL__N_1L3JNLEP6MemoryR5State3RnWIhE2InImES7_(%struct.Memory* readnone returned, %struct.State* nocapture dereferenceable(3376), i8* nocapture, i64, i64) #2 {
  %6 = getelementptr inbounds %struct.State, %struct.State* %1, i64 0, i32 2, i32 9
  %7 = load i8, i8* %6, align 1
  %8 = icmp ne i8 %7, 0
  %9 = getelementptr inbounds %struct.State, %struct.State* %1, i64 0, i32 2, i32 13
  %10 = load i8, i8* %9, align 1
  %11 = icmp ne i8 %10, 0
  %12 = xor i1 %8, %11
  %13 = xor i1 %12, true
  %14 = zext i1 %13 to i8
  store i8 %14, i8* %2, align 1
  %15 = getelementptr inbounds %struct.State, %struct.State* %1, i64 0, i32 6, i32 33, i32 0, i32 0
  %16 = select i1 %12, i64 %4, i64 %3
  store i64 %16, i64* %15, align 8
  ret %struct.Memory* %0
}

define %struct.Memory* @routine_jge_.L_401139(%struct.State*  dereferenceable(3376), i64, %struct.Memory*, i8* %BRANCH_TAKEN, i64 %rel_off1, i64 %rel_off2, i64 %rel_off3) {
block_400488:
  %3 = getelementptr inbounds %struct.State, %struct.State* %0, i32 0, i32 6
  %4 = getelementptr inbounds %struct.GPR, %struct.GPR* %3, i32 0, i32 33
  %5 = getelementptr inbounds %struct.Reg, %struct.Reg* %4, i32 0, i32 0
  %PC = bitcast %union.anon* %5 to i64*
  %6 = load i64, i64* %PC
  %7 = add i64 %6, %rel_off1
  %8 = load i64, i64* %PC
  %9 = add i64 %8, %rel_off2
  %10 = load i64, i64* %PC
  %11 = add i64 %10, %rel_off3
  store i64 %11, i64* %PC
  %12 = call %struct.Memory* @_ZN12_GLOBAL__N_1L3JNLEP6MemoryR5State3RnWIhE2InImES7_(%struct.Memory* %2, %struct.State* %0, i8* %BRANCH_TAKEN, i64 %7, i64 %9)
  ret %struct.Memory* %12
}


define %struct.Memory* @routine_movl__0x0__MINUS0x80__rbp_(%struct.State*  dereferenceable(3376), i64, %struct.Memory* ) #19 {
block_400488:
  %3 = getelementptr inbounds %struct.State, %struct.State* %0, i32 0, i32 6
  %4 = getelementptr inbounds %struct.GPR, %struct.GPR* %3, i32 0, i32 33
  %5 = getelementptr inbounds %struct.Reg, %struct.Reg* %4, i32 0, i32 0
  %PC = bitcast %union.anon* %5 to i64*
  %6 = getelementptr inbounds %struct.State, %struct.State* %0, i32 0, i32 6
  %7 = getelementptr inbounds %struct.GPR, %struct.GPR* %6, i32 0, i32 15
  %8 = getelementptr inbounds %struct.Reg, %struct.Reg* %7, i32 0, i32 0
  %RBP = bitcast %union.anon* %8 to i64*
  %9 = load i64, i64* %RBP
  %10 = sub i64 %9, 128
  %11 = load i64, i64* %PC
  %12 = add i64 %11, 7
  store i64 %12, i64* %PC
  %13 = call %struct.Memory* @_ZN12_GLOBAL__N_1L3MOVI3MnWIjE2InIjEEEP6MemoryS6_R5StateT_T0_(%struct.Memory* %2, %struct.State* %0, i64 %10, i64 0)
  ret %struct.Memory* %13
}


define %struct.Memory* @routine_movl_MINUS0x80__rbp____eax(%struct.State*  dereferenceable(3376), i64, %struct.Memory* ) #19 {
block_400488:
  %3 = getelementptr inbounds %struct.State, %struct.State* %0, i32 0, i32 6
  %4 = getelementptr inbounds %struct.GPR, %struct.GPR* %3, i32 0, i32 33
  %5 = getelementptr inbounds %struct.Reg, %struct.Reg* %4, i32 0, i32 0
  %PC = bitcast %union.anon* %5 to i64*
  %6 = getelementptr inbounds %struct.State, %struct.State* %0, i32 0, i32 6
  %7 = getelementptr inbounds %struct.GPR, %struct.GPR* %6, i32 0, i32 1
  %8 = getelementptr inbounds %struct.Reg, %struct.Reg* %7, i32 0, i32 0
  %RAX = bitcast %union.anon* %8 to i64*
  %9 = getelementptr inbounds %struct.State, %struct.State* %0, i32 0, i32 6
  %10 = getelementptr inbounds %struct.GPR, %struct.GPR* %9, i32 0, i32 15
  %11 = getelementptr inbounds %struct.Reg, %struct.Reg* %10, i32 0, i32 0
  %RBP = bitcast %union.anon* %11 to i64*
  %12 = load i64, i64* %RBP
  %13 = sub i64 %12, 128
  %14 = load i64, i64* %PC
  %15 = add i64 %14, 3
  store i64 %15, i64* %PC
  %16 = call %struct.Memory* @_ZN12_GLOBAL__N_1L3MOVI3RnWImE2MnIjEEEP6MemoryS6_R5StateT_T0_(%struct.Memory* %2, %struct.State* %0, i64* %RAX, i64 %13)
  ret %struct.Memory* %16
}




define %struct.Memory* @routine_jge_.L_401126(%struct.State*  dereferenceable(3376), i64, %struct.Memory*, i8* %BRANCH_TAKEN, i64 %rel_off1, i64 %rel_off2, i64 %rel_off3) {
block_400488:
  %3 = getelementptr inbounds %struct.State, %struct.State* %0, i32 0, i32 6
  %4 = getelementptr inbounds %struct.GPR, %struct.GPR* %3, i32 0, i32 33
  %5 = getelementptr inbounds %struct.Reg, %struct.Reg* %4, i32 0, i32 0
  %PC = bitcast %union.anon* %5 to i64*
  %6 = load i64, i64* %PC
  %7 = add i64 %6, %rel_off1
  %8 = load i64, i64* %PC
  %9 = add i64 %8, %rel_off2
  %10 = load i64, i64* %PC
  %11 = add i64 %10, %rel_off3
  store i64 %11, i64* %PC
  %12 = call %struct.Memory* @_ZN12_GLOBAL__N_1L3JNLEP6MemoryR5State3RnWIhE2InImES7_(%struct.Memory* %2, %struct.State* %0, i8* %BRANCH_TAKEN, i64 %7, i64 %9)
  ret %struct.Memory* %12
}


define %struct.Memory* @routine_movq_MINUS0x30__rbp____rax(%struct.State*  dereferenceable(3376), i64, %struct.Memory* ) #19 {
block_400488:
  %3 = getelementptr inbounds %struct.State, %struct.State* %0, i32 0, i32 6
  %4 = getelementptr inbounds %struct.GPR, %struct.GPR* %3, i32 0, i32 33
  %5 = getelementptr inbounds %struct.Reg, %struct.Reg* %4, i32 0, i32 0
  %PC = bitcast %union.anon* %5 to i64*
  %6 = getelementptr inbounds %struct.State, %struct.State* %0, i32 0, i32 6
  %7 = getelementptr inbounds %struct.GPR, %struct.GPR* %6, i32 0, i32 1
  %8 = getelementptr inbounds %struct.Reg, %struct.Reg* %7, i32 0, i32 0
  %RAX = bitcast %union.anon* %8 to i64*
  %9 = getelementptr inbounds %struct.State, %struct.State* %0, i32 0, i32 6
  %10 = getelementptr inbounds %struct.GPR, %struct.GPR* %9, i32 0, i32 15
  %11 = getelementptr inbounds %struct.Reg, %struct.Reg* %10, i32 0, i32 0
  %RBP = bitcast %union.anon* %11 to i64*
  %12 = load i64, i64* %RBP
  %13 = sub i64 %12, 48
  %14 = load i64, i64* %PC
  %15 = add i64 %14, 4
  store i64 %15, i64* %PC
  %16 = call %struct.Memory* @_ZN12_GLOBAL__N_1L3MOVI3RnWImE2MnImEEEP6MemoryS6_R5StateT_T0_(%struct.Memory* %2, %struct.State* %0, i64* %RAX, i64 %13)
  ret %struct.Memory* %16
}

define internal %struct.Memory* @_ZN12_GLOBAL__N_1L5MOVSXI3RnWImE2MnIjElEEP6MemoryS6_R5StateT_T0_(%struct.Memory* returned, %struct.State* nocapture readnone dereferenceable(3376), i64* nocapture, i64) #0 {
  %5 = inttoptr i64 %3 to i32*
  %6 = load i32, i32* %5
  %7 = sext i32 %6 to i64
  store i64 %7, i64* %2, align 8
  ret %struct.Memory* %0
}

define %struct.Memory* @routine_movslq_MINUS0x7c__rbp____rcx(%struct.State*  dereferenceable(3376), i64, %struct.Memory* ) #19 {
block_400488:
  %3 = getelementptr inbounds %struct.State, %struct.State* %0, i32 0, i32 6
  %4 = getelementptr inbounds %struct.GPR, %struct.GPR* %3, i32 0, i32 33
  %5 = getelementptr inbounds %struct.Reg, %struct.Reg* %4, i32 0, i32 0
  %PC = bitcast %union.anon* %5 to i64*
  %6 = getelementptr inbounds %struct.State, %struct.State* %0, i32 0, i32 6
  %7 = getelementptr inbounds %struct.GPR, %struct.GPR* %6, i32 0, i32 5
  %8 = getelementptr inbounds %struct.Reg, %struct.Reg* %7, i32 0, i32 0
  %RCX = bitcast %union.anon* %8 to i64*
  %9 = getelementptr inbounds %struct.State, %struct.State* %0, i32 0, i32 6
  %10 = getelementptr inbounds %struct.GPR, %struct.GPR* %9, i32 0, i32 15
  %11 = getelementptr inbounds %struct.Reg, %struct.Reg* %10, i32 0, i32 0
  %RBP = bitcast %union.anon* %11 to i64*
  %12 = load i64, i64* %RBP
  %13 = sub i64 %12, 124
  %14 = load i64, i64* %PC
  %15 = add i64 %14, 4
  store i64 %15, i64* %PC
  %16 = call %struct.Memory* @_ZN12_GLOBAL__N_1L5MOVSXI3RnWImE2MnIjElEEP6MemoryS6_R5StateT_T0_(%struct.Memory* %2, %struct.State* %0, i64* %RCX, i64 %13)
  ret %struct.Memory* %16
}

define internal %struct.Memory* @_ZN12_GLOBAL__N_1L4IMULI3RnWImE2RnImE2InImEEEP6MemoryS8_R5StateT_T0_T1_(%struct.Memory* readnone returned, %struct.State* nocapture dereferenceable(3376), i64* nocapture, i64, i64) #0 {
  %6 = sext i64 %3 to i128
  %7 = and i128 %6, -18446744073709551616
  %8 = sext i64 %4 to i128
  %9 = and i128 %8, -18446744073709551616
  %10 = zext i64 %3 to i128
  %11 = or i128 %7, %10
  %12 = zext i64 %4 to i128
  %13 = or i128 %9, %12
  %14 = mul  i128 %13, %11
  %15 = trunc i128 %14 to i64
  store i64 %15, i64* %2, align 8
  %16 = sext i64 %15 to i128
  %17 = icmp ne i128 %16, %14
  %18 = zext i1 %17 to i8
  %19 = getelementptr inbounds %struct.State, %struct.State* %1, i64 0, i32 2, i32 1
  store i8 %18, i8* %19, align 1
  %20 = trunc i128 %14 to i32
  %21 = and i32 %20, 255
  %22 = tail call i32 @llvm.ctpop.i32(i32 %21) #22
  %23 = trunc i32 %22 to i8
  %24 = and i8 %23, 1
  %25 = xor i8 %24, 1
  %26 = getelementptr inbounds %struct.State, %struct.State* %1, i64 0, i32 2, i32 3
  store i8 %25, i8* %26, align 1
  %27 = getelementptr inbounds %struct.State, %struct.State* %1, i64 0, i32 2, i32 5
  store i8 0, i8* %27, align 1
  %28 = getelementptr inbounds %struct.State, %struct.State* %1, i64 0, i32 2, i32 7
  store i8 0, i8* %28, align 1
  %29 = lshr i64 %15, 63
  %30 = trunc i64 %29 to i8
  %31 = getelementptr inbounds %struct.State, %struct.State* %1, i64 0, i32 2, i32 9
  store i8 %30, i8* %31, align 1
  %32 = getelementptr inbounds %struct.State, %struct.State* %1, i64 0, i32 2, i32 13
  store i8 %18, i8* %32, align 1
  ret %struct.Memory* %0
}

define %struct.Memory* @routine_imulq__0x7d00___rcx___rcx(%struct.State*  dereferenceable(3376), i64, %struct.Memory* ) #19 {
block_400488:
  %3 = getelementptr inbounds %struct.State, %struct.State* %0, i32 0, i32 6
  %4 = getelementptr inbounds %struct.GPR, %struct.GPR* %3, i32 0, i32 33
  %5 = getelementptr inbounds %struct.Reg, %struct.Reg* %4, i32 0, i32 0
  %PC = bitcast %union.anon* %5 to i64*
  %6 = getelementptr inbounds %struct.State, %struct.State* %0, i32 0, i32 6
  %7 = getelementptr inbounds %struct.GPR, %struct.GPR* %6, i32 0, i32 5
  %8 = getelementptr inbounds %struct.Reg, %struct.Reg* %7, i32 0, i32 0
  %RCX = bitcast %union.anon* %8 to i64*
  %9 = load i64, i64* %RCX
  %10 = load i64, i64* %PC
  %11 = add i64 %10, 7
  store i64 %11, i64* %PC
  %12 = call %struct.Memory* @_ZN12_GLOBAL__N_1L4IMULI3RnWImE2RnImE2InImEEEP6MemoryS8_R5StateT_T0_T1_(%struct.Memory* %2, %struct.State* %0, i64* %RCX, i64 %9, i64 32000)
  ret %struct.Memory* %12
}

define internal %struct.Memory* @_ZN12_GLOBAL__N_1L3ADDI3RnWImE2RnImES4_EEP6MemoryS6_R5StateT_T0_T1_(%struct.Memory* readnone returned, %struct.State* nocapture dereferenceable(3376), i64* nocapture, i64, i64) #0 {
  %6 = add i64 %4, %3
  store i64 %6, i64* %2, align 8
  %7 = icmp ult i64 %6, %3
  %8 = icmp ult i64 %6, %4
  %9 = or i1 %7, %8
  %10 = zext i1 %9 to i8
  %11 = getelementptr inbounds %struct.State, %struct.State* %1, i64 0, i32 2, i32 1
  store i8 %10, i8* %11, align 1
  %12 = trunc i64 %6 to i32
  %13 = and i32 %12, 255
  %14 = tail call i32 @llvm.ctpop.i32(i32 %13) #22
  %15 = trunc i32 %14 to i8
  %16 = and i8 %15, 1
  %17 = xor i8 %16, 1
  %18 = getelementptr inbounds %struct.State, %struct.State* %1, i64 0, i32 2, i32 3
  store i8 %17, i8* %18, align 1
  %19 = xor i64 %4, %3
  %20 = xor i64 %19, %6
  %21 = lshr i64 %20, 4
  %22 = trunc i64 %21 to i8
  %23 = and i8 %22, 1
  %24 = getelementptr inbounds %struct.State, %struct.State* %1, i64 0, i32 2, i32 5
  store i8 %23, i8* %24, align 1
  %25 = icmp eq i64 %6, 0
  %26 = zext i1 %25 to i8
  %27 = getelementptr inbounds %struct.State, %struct.State* %1, i64 0, i32 2, i32 7
  store i8 %26, i8* %27, align 1
  %28 = lshr i64 %6, 63
  %29 = trunc i64 %28 to i8
  %30 = getelementptr inbounds %struct.State, %struct.State* %1, i64 0, i32 2, i32 9
  store i8 %29, i8* %30, align 1
  %31 = lshr i64 %3, 63
  %32 = lshr i64 %4, 63
  %33 = xor i64 %28, %31
  %34 = xor i64 %28, %32
  %35 = add   i64 %33, %34
  %36 = icmp eq i64 %35, 2
  %37 = zext i1 %36 to i8
  %38 = getelementptr inbounds %struct.State, %struct.State* %1, i64 0, i32 2, i32 13
  store i8 %37, i8* %38, align 1
  ret %struct.Memory* %0
}

define %struct.Memory* @routine_addq__rcx___rax(%struct.State*  dereferenceable(3376), i64, %struct.Memory* ) #19 {
block_400488:
  %3 = getelementptr inbounds %struct.State, %struct.State* %0, i32 0, i32 6
  %4 = getelementptr inbounds %struct.GPR, %struct.GPR* %3, i32 0, i32 33
  %5 = getelementptr inbounds %struct.Reg, %struct.Reg* %4, i32 0, i32 0
  %PC = bitcast %union.anon* %5 to i64*
  %6 = getelementptr inbounds %struct.State, %struct.State* %0, i32 0, i32 6
  %7 = getelementptr inbounds %struct.GPR, %struct.GPR* %6, i32 0, i32 1
  %8 = getelementptr inbounds %struct.Reg, %struct.Reg* %7, i32 0, i32 0
  %RAX = bitcast %union.anon* %8 to i64*
  %9 = getelementptr inbounds %struct.State, %struct.State* %0, i32 0, i32 6
  %10 = getelementptr inbounds %struct.GPR, %struct.GPR* %9, i32 0, i32 5
  %11 = getelementptr inbounds %struct.Reg, %struct.Reg* %10, i32 0, i32 0
  %RCX = bitcast %union.anon* %11 to i64*
  %12 = load i64, i64* %RAX
  %13 = load i64, i64* %RCX
  %14 = load i64, i64* %PC
  %15 = add i64 %14, 3
  store i64 %15, i64* %PC
  %16 = call %struct.Memory* @_ZN12_GLOBAL__N_1L3ADDI3RnWImE2RnImES4_EEP6MemoryS6_R5StateT_T0_T1_(%struct.Memory* %2, %struct.State* %0, i64* %RAX, i64 %12, i64 %13)
  ret %struct.Memory* %16
}


define %struct.Memory* @routine_movslq_MINUS0x80__rbp____rcx(%struct.State*  dereferenceable(3376), i64, %struct.Memory* ) #19 {
block_400488:
  %3 = getelementptr inbounds %struct.State, %struct.State* %0, i32 0, i32 6
  %4 = getelementptr inbounds %struct.GPR, %struct.GPR* %3, i32 0, i32 33
  %5 = getelementptr inbounds %struct.Reg, %struct.Reg* %4, i32 0, i32 0
  %PC = bitcast %union.anon* %5 to i64*
  %6 = getelementptr inbounds %struct.State, %struct.State* %0, i32 0, i32 6
  %7 = getelementptr inbounds %struct.GPR, %struct.GPR* %6, i32 0, i32 5
  %8 = getelementptr inbounds %struct.Reg, %struct.Reg* %7, i32 0, i32 0
  %RCX = bitcast %union.anon* %8 to i64*
  %9 = getelementptr inbounds %struct.State, %struct.State* %0, i32 0, i32 6
  %10 = getelementptr inbounds %struct.GPR, %struct.GPR* %9, i32 0, i32 15
  %11 = getelementptr inbounds %struct.Reg, %struct.Reg* %10, i32 0, i32 0
  %RBP = bitcast %union.anon* %11 to i64*
  %12 = load i64, i64* %RBP
  %13 = sub i64 %12, 128
  %14 = load i64, i64* %PC
  %15 = add i64 %14, 4
  store i64 %15, i64* %PC
  %16 = call %struct.Memory* @_ZN12_GLOBAL__N_1L5MOVSXI3RnWImE2MnIjElEEP6MemoryS6_R5StateT_T0_(%struct.Memory* %2, %struct.State* %0, i64* %RCX, i64 %13)
  ret %struct.Memory* %16
}

define internal %struct.Memory* @_ZN12_GLOBAL__N_1L9MOVSD_MEMI3VnWI8vec128_tE3MVnI7vec64_tEEEP6MemoryS8_R5StateT_T0_(%struct.Memory* returned, %struct.State* nocapture readnone dereferenceable(3376), i8* nocapture, i64) #0 {
  %5 = inttoptr i64 %3 to double*
  %6 = load double, double* %5
  %7 = bitcast i8* %2 to double*
  store double %6, double* %7, align 1
  %8 = getelementptr inbounds i8, i8* %2, i64 8
  %9 = bitcast i8* %8 to double*
  store double 0.000000e+00, double* %9, align 1
  ret %struct.Memory* %0
}

define %struct.Memory* @routine_movsd___rax__rcx_8____xmm0(%struct.State*  dereferenceable(3376), i64, %struct.Memory* ) #19 {
block_400488:
  %3 = getelementptr inbounds %struct.State, %struct.State* %0, i32 0, i32 6
  %4 = getelementptr inbounds %struct.GPR, %struct.GPR* %3, i32 0, i32 33
  %5 = getelementptr inbounds %struct.Reg, %struct.Reg* %4, i32 0, i32 0
  %PC = bitcast %union.anon* %5 to i64*
  %6 = getelementptr inbounds %struct.State, %struct.State* %0, i32 0, i32 6
  %7 = getelementptr inbounds %struct.GPR, %struct.GPR* %6, i32 0, i32 1
  %8 = getelementptr inbounds %struct.Reg, %struct.Reg* %7, i32 0, i32 0
  %RAX = bitcast %union.anon* %8 to i64*
  %9 = getelementptr inbounds %struct.State, %struct.State* %0, i32 0, i32 6
  %10 = getelementptr inbounds %struct.GPR, %struct.GPR* %9, i32 0, i32 5
  %11 = getelementptr inbounds %struct.Reg, %struct.Reg* %10, i32 0, i32 0
  %RCX = bitcast %union.anon* %11 to i64*
  %12 = getelementptr inbounds %struct.State, %struct.State* %0, i32 0, i32 1
  %13 = getelementptr inbounds [32 x %union.VectorReg], [32 x %union.VectorReg]* %12, i64 0, i64 0
  %YMM0 = bitcast %union.VectorReg* %13 to %"class.std::bitset"*
  %14 = bitcast %"class.std::bitset"* %YMM0 to i8*
  %15 = load i64, i64* %RAX
  %16 = load i64, i64* %RCX
  %17 = mul i64 %16, 8
  %18 = add i64 %17, %15
  %19 = load i64, i64* %PC
  %20 = add i64 %19, 5
  store i64 %20, i64* %PC
  %21 = call %struct.Memory* @_ZN12_GLOBAL__N_1L9MOVSD_MEMI3VnWI8vec128_tE3MVnI7vec64_tEEEP6MemoryS8_R5StateT_T0_(%struct.Memory* %2, %struct.State* %0, i8* %14, i64 %18)
  ret %struct.Memory* %21
}


define %struct.Memory* @routine_movq_MINUS0x40__rbp____rax(%struct.State*  dereferenceable(3376), i64, %struct.Memory* ) #19 {
block_400488:
  %3 = getelementptr inbounds %struct.State, %struct.State* %0, i32 0, i32 6
  %4 = getelementptr inbounds %struct.GPR, %struct.GPR* %3, i32 0, i32 33
  %5 = getelementptr inbounds %struct.Reg, %struct.Reg* %4, i32 0, i32 0
  %PC = bitcast %union.anon* %5 to i64*
  %6 = getelementptr inbounds %struct.State, %struct.State* %0, i32 0, i32 6
  %7 = getelementptr inbounds %struct.GPR, %struct.GPR* %6, i32 0, i32 1
  %8 = getelementptr inbounds %struct.Reg, %struct.Reg* %7, i32 0, i32 0
  %RAX = bitcast %union.anon* %8 to i64*
  %9 = getelementptr inbounds %struct.State, %struct.State* %0, i32 0, i32 6
  %10 = getelementptr inbounds %struct.GPR, %struct.GPR* %9, i32 0, i32 15
  %11 = getelementptr inbounds %struct.Reg, %struct.Reg* %10, i32 0, i32 0
  %RBP = bitcast %union.anon* %11 to i64*
  %12 = load i64, i64* %RBP
  %13 = sub i64 %12, 64
  %14 = load i64, i64* %PC
  %15 = add i64 %14, 4
  store i64 %15, i64* %PC
  %16 = call %struct.Memory* @_ZN12_GLOBAL__N_1L3MOVI3RnWImE2MnImEEEP6MemoryS6_R5StateT_T0_(%struct.Memory* %2, %struct.State* %0, i64* %RAX, i64 %13)
  ret %struct.Memory* %16
}




define %struct.Memory* @routine_movsd___rax__rcx_8____xmm1(%struct.State*  dereferenceable(3376), i64, %struct.Memory* ) #19 {
block_400488:
  %3 = getelementptr inbounds %struct.State, %struct.State* %0, i32 0, i32 6
  %4 = getelementptr inbounds %struct.GPR, %struct.GPR* %3, i32 0, i32 33
  %5 = getelementptr inbounds %struct.Reg, %struct.Reg* %4, i32 0, i32 0
  %PC = bitcast %union.anon* %5 to i64*
  %6 = getelementptr inbounds %struct.State, %struct.State* %0, i32 0, i32 6
  %7 = getelementptr inbounds %struct.GPR, %struct.GPR* %6, i32 0, i32 1
  %8 = getelementptr inbounds %struct.Reg, %struct.Reg* %7, i32 0, i32 0
  %RAX = bitcast %union.anon* %8 to i64*
  %9 = getelementptr inbounds %struct.State, %struct.State* %0, i32 0, i32 6
  %10 = getelementptr inbounds %struct.GPR, %struct.GPR* %9, i32 0, i32 5
  %11 = getelementptr inbounds %struct.Reg, %struct.Reg* %10, i32 0, i32 0
  %RCX = bitcast %union.anon* %11 to i64*
  %12 = getelementptr inbounds %struct.State, %struct.State* %0, i32 0, i32 1
  %13 = getelementptr inbounds [32 x %union.VectorReg], [32 x %union.VectorReg]* %12, i64 0, i64 1
  %YMM1 = bitcast %union.VectorReg* %13 to %"class.std::bitset"*
  %14 = bitcast %"class.std::bitset"* %YMM1 to i8*
  %15 = load i64, i64* %RAX
  %16 = load i64, i64* %RCX
  %17 = mul i64 %16, 8
  %18 = add i64 %17, %15
  %19 = load i64, i64* %PC
  %20 = add i64 %19, 5
  store i64 %20, i64* %PC
  %21 = call %struct.Memory* @_ZN12_GLOBAL__N_1L9MOVSD_MEMI3VnWI8vec128_tE3MVnI7vec64_tEEEP6MemoryS8_R5StateT_T0_(%struct.Memory* %2, %struct.State* %0, i8* %14, i64 %18)
  ret %struct.Memory* %21
}


define %struct.Memory* @routine_movq_MINUS0x48__rbp____rax(%struct.State*  dereferenceable(3376), i64, %struct.Memory* ) #19 {
block_400488:
  %3 = getelementptr inbounds %struct.State, %struct.State* %0, i32 0, i32 6
  %4 = getelementptr inbounds %struct.GPR, %struct.GPR* %3, i32 0, i32 33
  %5 = getelementptr inbounds %struct.Reg, %struct.Reg* %4, i32 0, i32 0
  %PC = bitcast %union.anon* %5 to i64*
  %6 = getelementptr inbounds %struct.State, %struct.State* %0, i32 0, i32 6
  %7 = getelementptr inbounds %struct.GPR, %struct.GPR* %6, i32 0, i32 1
  %8 = getelementptr inbounds %struct.Reg, %struct.Reg* %7, i32 0, i32 0
  %RAX = bitcast %union.anon* %8 to i64*
  %9 = getelementptr inbounds %struct.State, %struct.State* %0, i32 0, i32 6
  %10 = getelementptr inbounds %struct.GPR, %struct.GPR* %9, i32 0, i32 15
  %11 = getelementptr inbounds %struct.Reg, %struct.Reg* %10, i32 0, i32 0
  %RBP = bitcast %union.anon* %11 to i64*
  %12 = load i64, i64* %RBP
  %13 = sub i64 %12, 72
  %14 = load i64, i64* %PC
  %15 = add i64 %14, 4
  store i64 %15, i64* %PC
  %16 = call %struct.Memory* @_ZN12_GLOBAL__N_1L3MOVI3RnWImE2MnImEEEP6MemoryS6_R5StateT_T0_(%struct.Memory* %2, %struct.State* %0, i64* %RAX, i64 %13)
  ret %struct.Memory* %16
}



define internal %struct.Memory* @_ZN12_GLOBAL__N_1L5MULSDI3VnWI8vec128_tE2VnIS2_E3MVnIS2_EEEP6MemoryS9_R5StateT_T0_T1_(%struct.Memory* returned, %struct.State* nocapture readnone dereferenceable(3376), i8* nocapture, i8* nocapture readonly, i64) #0 {
  %6 = bitcast i8* %3 to double*
  %7 = load double, double* %6, align 1
  %8 = getelementptr inbounds i8, i8* %3, i64 8
  %9 = bitcast i8* %8 to i64*
  %10 = load i64, i64* %9, align 1
  %11 = inttoptr i64 %4 to double*
  %12 = load double, double* %11
  %13 = fmul double %7, %12
  %14 = bitcast i8* %2 to double*
  store double %13, double* %14, align 1
  %15 = getelementptr inbounds i8, i8* %2, i64 8
  %16 = bitcast i8* %15 to i64*
  store i64 %10, i64* %16, align 1
  ret %struct.Memory* %0
}

define %struct.Memory* @routine_mulsd___rax__rcx_8____xmm1(%struct.State*  dereferenceable(3376), i64, %struct.Memory* ) #19 {
block_400488:
  %3 = getelementptr inbounds %struct.State, %struct.State* %0, i32 0, i32 6
  %4 = getelementptr inbounds %struct.GPR, %struct.GPR* %3, i32 0, i32 33
  %5 = getelementptr inbounds %struct.Reg, %struct.Reg* %4, i32 0, i32 0
  %PC = bitcast %union.anon* %5 to i64*
  %6 = getelementptr inbounds %struct.State, %struct.State* %0, i32 0, i32 6
  %7 = getelementptr inbounds %struct.GPR, %struct.GPR* %6, i32 0, i32 1
  %8 = getelementptr inbounds %struct.Reg, %struct.Reg* %7, i32 0, i32 0
  %RAX = bitcast %union.anon* %8 to i64*
  %9 = getelementptr inbounds %struct.State, %struct.State* %0, i32 0, i32 6
  %10 = getelementptr inbounds %struct.GPR, %struct.GPR* %9, i32 0, i32 5
  %11 = getelementptr inbounds %struct.Reg, %struct.Reg* %10, i32 0, i32 0
  %RCX = bitcast %union.anon* %11 to i64*
  %12 = getelementptr inbounds %struct.State, %struct.State* %0, i32 0, i32 1
  %13 = getelementptr inbounds [32 x %union.VectorReg], [32 x %union.VectorReg]* %12, i64 0, i64 1
  %YMM1 = bitcast %union.VectorReg* %13 to %"class.std::bitset"*
  %14 = bitcast %"class.std::bitset"* %YMM1 to i8*
  %15 = bitcast %"class.std::bitset"* %YMM1 to i8*
  %16 = load i64, i64* %RAX
  %17 = load i64, i64* %RCX
  %18 = mul i64 %17, 8
  %19 = add i64 %18, %16
  %20 = load i64, i64* %PC
  %21 = add i64 %20, 5
  store i64 %21, i64* %PC
  %22 = call %struct.Memory* @_ZN12_GLOBAL__N_1L5MULSDI3VnWI8vec128_tE2VnIS2_E3MVnIS2_EEEP6MemoryS9_R5StateT_T0_T1_(%struct.Memory* %2, %struct.State* %0, i8* %14, i8* %15, i64 %19)
  ret %struct.Memory* %22
}

define internal %struct.Memory* @_ZN12_GLOBAL__N_1L5ADDSDI3VnWI8vec128_tE2VnIS2_ES5_EEP6MemoryS7_R5StateT_T0_T1_(%struct.Memory* readnone returned, %struct.State* nocapture readnone dereferenceable(3376), i8* nocapture, i8* nocapture readonly, i8* nocapture readonly) #0 {
  %6 = bitcast i8* %3 to double*
  %7 = load double, double* %6, align 1
  %8 = getelementptr inbounds i8, i8* %3, i64 8
  %9 = bitcast i8* %8 to i64*
  %10 = load i64, i64* %9, align 1
  %11 = bitcast i8* %4 to double*
  %12 = load double, double* %11, align 1
  %13 = fadd double %7, %12
  %14 = bitcast i8* %2 to double*
  store double %13, double* %14, align 1
  %15 = getelementptr inbounds i8, i8* %2, i64 8
  %16 = bitcast i8* %15 to i64*
  store i64 %10, i64* %16, align 1
  ret %struct.Memory* %0
}

define %struct.Memory* @routine_addsd__xmm1___xmm0(%struct.State*  dereferenceable(3376), i64, %struct.Memory* ) #19 {
block_400488:
  %3 = getelementptr inbounds %struct.State, %struct.State* %0, i32 0, i32 6
  %4 = getelementptr inbounds %struct.GPR, %struct.GPR* %3, i32 0, i32 33
  %5 = getelementptr inbounds %struct.Reg, %struct.Reg* %4, i32 0, i32 0
  %PC = bitcast %union.anon* %5 to i64*
  %6 = getelementptr inbounds %struct.State, %struct.State* %0, i32 0, i32 1
  %7 = getelementptr inbounds [32 x %union.VectorReg], [32 x %union.VectorReg]* %6, i64 0, i64 0
  %YMM0 = bitcast %union.VectorReg* %7 to %"class.std::bitset"*
  %8 = getelementptr inbounds %struct.State, %struct.State* %0, i32 0, i32 1
  %9 = getelementptr inbounds [32 x %union.VectorReg], [32 x %union.VectorReg]* %8, i64 0, i64 1
  %XMM1 = bitcast %union.VectorReg* %9 to %union.vec128_t*
  %10 = bitcast %"class.std::bitset"* %YMM0 to i8*
  %11 = bitcast %"class.std::bitset"* %YMM0 to i8*
  %12 = bitcast %union.vec128_t* %XMM1 to i8*
  %13 = load i64, i64* %PC
  %14 = add i64 %13, 4
  store i64 %14, i64* %PC
  %15 = call %struct.Memory* @_ZN12_GLOBAL__N_1L5ADDSDI3VnWI8vec128_tE2VnIS2_ES5_EEP6MemoryS7_R5StateT_T0_T1_(%struct.Memory* %2, %struct.State* %0, i8* %10, i8* %11, i8* %12)
  ret %struct.Memory* %15
}


define %struct.Memory* @routine_movq_MINUS0x50__rbp____rax(%struct.State*  dereferenceable(3376), i64, %struct.Memory* ) #19 {
block_400488:
  %3 = getelementptr inbounds %struct.State, %struct.State* %0, i32 0, i32 6
  %4 = getelementptr inbounds %struct.GPR, %struct.GPR* %3, i32 0, i32 33
  %5 = getelementptr inbounds %struct.Reg, %struct.Reg* %4, i32 0, i32 0
  %PC = bitcast %union.anon* %5 to i64*
  %6 = getelementptr inbounds %struct.State, %struct.State* %0, i32 0, i32 6
  %7 = getelementptr inbounds %struct.GPR, %struct.GPR* %6, i32 0, i32 1
  %8 = getelementptr inbounds %struct.Reg, %struct.Reg* %7, i32 0, i32 0
  %RAX = bitcast %union.anon* %8 to i64*
  %9 = getelementptr inbounds %struct.State, %struct.State* %0, i32 0, i32 6
  %10 = getelementptr inbounds %struct.GPR, %struct.GPR* %9, i32 0, i32 15
  %11 = getelementptr inbounds %struct.Reg, %struct.Reg* %10, i32 0, i32 0
  %RBP = bitcast %union.anon* %11 to i64*
  %12 = load i64, i64* %RBP
  %13 = sub i64 %12, 80
  %14 = load i64, i64* %PC
  %15 = add i64 %14, 4
  store i64 %15, i64* %PC
  %16 = call %struct.Memory* @_ZN12_GLOBAL__N_1L3MOVI3RnWImE2MnImEEEP6MemoryS6_R5StateT_T0_(%struct.Memory* %2, %struct.State* %0, i64* %RAX, i64 %13)
  ret %struct.Memory* %16
}






define %struct.Memory* @routine_movq_MINUS0x58__rbp____rax(%struct.State*  dereferenceable(3376), i64, %struct.Memory* ) #19 {
block_400488:
  %3 = getelementptr inbounds %struct.State, %struct.State* %0, i32 0, i32 6
  %4 = getelementptr inbounds %struct.GPR, %struct.GPR* %3, i32 0, i32 33
  %5 = getelementptr inbounds %struct.Reg, %struct.Reg* %4, i32 0, i32 0
  %PC = bitcast %union.anon* %5 to i64*
  %6 = getelementptr inbounds %struct.State, %struct.State* %0, i32 0, i32 6
  %7 = getelementptr inbounds %struct.GPR, %struct.GPR* %6, i32 0, i32 1
  %8 = getelementptr inbounds %struct.Reg, %struct.Reg* %7, i32 0, i32 0
  %RAX = bitcast %union.anon* %8 to i64*
  %9 = getelementptr inbounds %struct.State, %struct.State* %0, i32 0, i32 6
  %10 = getelementptr inbounds %struct.GPR, %struct.GPR* %9, i32 0, i32 15
  %11 = getelementptr inbounds %struct.Reg, %struct.Reg* %10, i32 0, i32 0
  %RBP = bitcast %union.anon* %11 to i64*
  %12 = load i64, i64* %RBP
  %13 = sub i64 %12, 88
  %14 = load i64, i64* %PC
  %15 = add i64 %14, 4
  store i64 %15, i64* %PC
  %16 = call %struct.Memory* @_ZN12_GLOBAL__N_1L3MOVI3RnWImE2MnImEEEP6MemoryS6_R5StateT_T0_(%struct.Memory* %2, %struct.State* %0, i64* %RAX, i64 %13)
  ret %struct.Memory* %16
}








define %struct.Memory* @routine_movq_MINUS0x38__rbp____rax(%struct.State*  dereferenceable(3376), i64, %struct.Memory* ) #19 {
block_400488:
  %3 = getelementptr inbounds %struct.State, %struct.State* %0, i32 0, i32 6
  %4 = getelementptr inbounds %struct.GPR, %struct.GPR* %3, i32 0, i32 33
  %5 = getelementptr inbounds %struct.Reg, %struct.Reg* %4, i32 0, i32 0
  %PC = bitcast %union.anon* %5 to i64*
  %6 = getelementptr inbounds %struct.State, %struct.State* %0, i32 0, i32 6
  %7 = getelementptr inbounds %struct.GPR, %struct.GPR* %6, i32 0, i32 1
  %8 = getelementptr inbounds %struct.Reg, %struct.Reg* %7, i32 0, i32 0
  %RAX = bitcast %union.anon* %8 to i64*
  %9 = getelementptr inbounds %struct.State, %struct.State* %0, i32 0, i32 6
  %10 = getelementptr inbounds %struct.GPR, %struct.GPR* %9, i32 0, i32 15
  %11 = getelementptr inbounds %struct.Reg, %struct.Reg* %10, i32 0, i32 0
  %RBP = bitcast %union.anon* %11 to i64*
  %12 = load i64, i64* %RBP
  %13 = sub i64 %12, 56
  %14 = load i64, i64* %PC
  %15 = add i64 %14, 4
  store i64 %15, i64* %PC
  %16 = call %struct.Memory* @_ZN12_GLOBAL__N_1L3MOVI3RnWImE2MnImEEEP6MemoryS6_R5StateT_T0_(%struct.Memory* %2, %struct.State* %0, i64* %RAX, i64 %13)
  ret %struct.Memory* %16
}










define %struct.Memory* @routine_movsd__xmm0____rax__rcx_8_(%struct.State*  dereferenceable(3376), i64, %struct.Memory* ) #19 {
block_400488:
  %3 = getelementptr inbounds %struct.State, %struct.State* %0, i32 0, i32 6
  %4 = getelementptr inbounds %struct.GPR, %struct.GPR* %3, i32 0, i32 33
  %5 = getelementptr inbounds %struct.Reg, %struct.Reg* %4, i32 0, i32 0
  %PC = bitcast %union.anon* %5 to i64*
  %6 = getelementptr inbounds %struct.State, %struct.State* %0, i32 0, i32 6
  %7 = getelementptr inbounds %struct.GPR, %struct.GPR* %6, i32 0, i32 1
  %8 = getelementptr inbounds %struct.Reg, %struct.Reg* %7, i32 0, i32 0
  %RAX = bitcast %union.anon* %8 to i64*
  %9 = getelementptr inbounds %struct.State, %struct.State* %0, i32 0, i32 6
  %10 = getelementptr inbounds %struct.GPR, %struct.GPR* %9, i32 0, i32 5
  %11 = getelementptr inbounds %struct.Reg, %struct.Reg* %10, i32 0, i32 0
  %RCX = bitcast %union.anon* %11 to i64*
  %12 = getelementptr inbounds %struct.State, %struct.State* %0, i32 0, i32 1
  %13 = getelementptr inbounds [32 x %union.VectorReg], [32 x %union.VectorReg]* %12, i64 0, i64 0
  %XMM0 = bitcast %union.VectorReg* %13 to %union.vec128_t*
  %14 = load i64, i64* %RAX
  %15 = load i64, i64* %RCX
  %16 = mul i64 %15, 8
  %17 = add i64 %16, %14
  %18 = bitcast %union.vec128_t* %XMM0 to i8*
  %19 = load i64, i64* %PC
  %20 = add i64 %19, 5
  store i64 %20, i64* %PC
  %21 = call %struct.Memory* @_ZN12_GLOBAL__N_1L9MOVSD_MEMI4MVnWI7vec64_tE2VnI8vec128_tEEEP6MemoryS8_R5StateT_T0_(%struct.Memory* %2, %struct.State* %0, i64 %17, i8* %18)
  ret %struct.Memory* %21
}



define internal %struct.Memory* @_ZN12_GLOBAL__N_1L3ADDI3RnWImE2RnIjE2InIjEEEP6MemoryS8_R5StateT_T0_T1_(%struct.Memory* readnone returned, %struct.State* nocapture dereferenceable(3376), i64* nocapture, i64, i64) #0 {
  %6 = trunc i64 %3 to i32
  %7 = trunc i64 %4 to i32
  %8 = add i32 %7, %6
  %9 = zext i32 %8 to i64
  store i64 %9, i64* %2, align 8
  %10 = icmp ult i32 %8, %6
  %11 = icmp ult i32 %8, %7
  %12 = or i1 %10, %11
  %13 = zext i1 %12 to i8
  %14 = getelementptr inbounds %struct.State, %struct.State* %1, i64 0, i32 2, i32 1
  store i8 %13, i8* %14, align 1
  %15 = and i32 %8, 255
  %16 = tail call i32 @llvm.ctpop.i32(i32 %15) #22
  %17 = trunc i32 %16 to i8
  %18 = and i8 %17, 1
  %19 = xor i8 %18, 1
  %20 = getelementptr inbounds %struct.State, %struct.State* %1, i64 0, i32 2, i32 3
  store i8 %19, i8* %20, align 1
  %21 = xor i64 %4, %3
  %22 = trunc i64 %21 to i32
  %23 = xor i32 %22, %8
  %24 = lshr i32 %23, 4
  %25 = trunc i32 %24 to i8
  %26 = and i8 %25, 1
  %27 = getelementptr inbounds %struct.State, %struct.State* %1, i64 0, i32 2, i32 5
  store i8 %26, i8* %27, align 1
  %28 = icmp eq i32 %8, 0
  %29 = zext i1 %28 to i8
  %30 = getelementptr inbounds %struct.State, %struct.State* %1, i64 0, i32 2, i32 7
  store i8 %29, i8* %30, align 1
  %31 = lshr i32 %8, 31
  %32 = trunc i32 %31 to i8
  %33 = getelementptr inbounds %struct.State, %struct.State* %1, i64 0, i32 2, i32 9
  store i8 %32, i8* %33, align 1
  %34 = lshr i32 %6, 31
  %35 = lshr i32 %7, 31
  %36 = xor i32 %31, %34
  %37 = xor i32 %31, %35
  %38 = add   i32 %36, %37
  %39 = icmp eq i32 %38, 2
  %40 = zext i1 %39 to i8
  %41 = getelementptr inbounds %struct.State, %struct.State* %1, i64 0, i32 2, i32 13
  store i8 %40, i8* %41, align 1
  ret %struct.Memory* %0
}

define %struct.Memory* @routine_addl__0x1___eax(%struct.State*  dereferenceable(3376), i64, %struct.Memory* ) #19 {
block_400488:
  %3 = getelementptr inbounds %struct.State, %struct.State* %0, i32 0, i32 6
  %4 = getelementptr inbounds %struct.GPR, %struct.GPR* %3, i32 0, i32 33
  %5 = getelementptr inbounds %struct.Reg, %struct.Reg* %4, i32 0, i32 0
  %PC = bitcast %union.anon* %5 to i64*
  %6 = getelementptr inbounds %struct.State, %struct.State* %0, i32 0, i32 6
  %7 = getelementptr inbounds %struct.GPR, %struct.GPR* %6, i32 0, i32 1
  %8 = getelementptr inbounds %struct.Reg, %struct.Reg* %7, i32 0, i32 0
  %RAX = bitcast %union.anon* %8 to i64*
  %9 = load i64, i64* %RAX
  %10 = load i64, i64* %PC
  %11 = add i64 %10, 3
  store i64 %11, i64* %PC
  %12 = call %struct.Memory* @_ZN12_GLOBAL__N_1L3ADDI3RnWImE2RnIjE2InIjEEEP6MemoryS8_R5StateT_T0_T1_(%struct.Memory* %2, %struct.State* %0, i64* %RAX, i64 %9, i64 1)
  ret %struct.Memory* %12
}


define %struct.Memory* @routine_movl__eax__MINUS0x80__rbp_(%struct.State*  dereferenceable(3376), i64, %struct.Memory* ) #19 {
block_400488:
  %3 = getelementptr inbounds %struct.State, %struct.State* %0, i32 0, i32 6
  %4 = getelementptr inbounds %struct.GPR, %struct.GPR* %3, i32 0, i32 33
  %5 = getelementptr inbounds %struct.Reg, %struct.Reg* %4, i32 0, i32 0
  %PC = bitcast %union.anon* %5 to i64*
  %6 = getelementptr inbounds %struct.State, %struct.State* %0, i32 0, i32 6
  %7 = getelementptr inbounds %struct.GPR, %struct.GPR* %6, i32 0, i32 1
  %8 = getelementptr inbounds %struct.Reg, %struct.Reg* %7, i32 0, i32 0
  %EAX = bitcast %union.anon* %8 to i32*
  %9 = getelementptr inbounds %struct.State, %struct.State* %0, i32 0, i32 6
  %10 = getelementptr inbounds %struct.GPR, %struct.GPR* %9, i32 0, i32 15
  %11 = getelementptr inbounds %struct.Reg, %struct.Reg* %10, i32 0, i32 0
  %RBP = bitcast %union.anon* %11 to i64*
  %12 = load i64, i64* %RBP
  %13 = sub i64 %12, 128
  %14 = load i32, i32* %EAX
  %15 = zext i32 %14 to i64
  %16 = load i64, i64* %PC
  %17 = add i64 %16, 3
  store i64 %17, i64* %PC
  %18 = call %struct.Memory* @_ZN12_GLOBAL__N_1L3MOVI3MnWIjE2RnIjEEEP6MemoryS6_R5StateT_T0_(%struct.Memory* %2, %struct.State* %0, i64 %13, i64 %15)
  ret %struct.Memory* %18
}

define internal %struct.Memory* @_ZN12_GLOBAL__N_1L3JMPI2InImEEEP6MemoryS4_R5StateT_(%struct.Memory* readnone returned, %struct.State* nocapture dereferenceable(3376), i64) #2 {
  %4 = getelementptr inbounds %struct.State, %struct.State* %1, i64 0, i32 6, i32 33, i32 0, i32 0
  store i64 %2, i64* %4, align 8
  ret %struct.Memory* %0
}

define %struct.Memory* @routine_jmpq_.L_40109a(%struct.State*  dereferenceable(3376), i64, %struct.Memory*, i64 %rel_off1, i64 %rel_off2) {
block_400488:
  %3 = getelementptr inbounds %struct.State, %struct.State* %0, i32 0, i32 6
  %4 = getelementptr inbounds %struct.GPR, %struct.GPR* %3, i32 0, i32 33
  %5 = getelementptr inbounds %struct.Reg, %struct.Reg* %4, i32 0, i32 0
  %PC = bitcast %union.anon* %5 to i64*
  %6 = load i64, i64* %PC
  %7 = add i64 %6, %rel_off1
  %8 = load i64, i64* %PC
  %9 = add i64 %8, %rel_off2
  store i64 %9, i64* %PC
  %10 = call %struct.Memory* @_ZN12_GLOBAL__N_1L3JMPI2InImEEEP6MemoryS4_R5StateT_(%struct.Memory* %2, %struct.State* %0, i64 %7)
  ret %struct.Memory* %10
}


define %struct.Memory* @routine_jmpq_.L_40112b(%struct.State*  dereferenceable(3376), i64, %struct.Memory*, i64 %rel_off1, i64 %rel_off2) {
block_400488:
  %3 = getelementptr inbounds %struct.State, %struct.State* %0, i32 0, i32 6
  %4 = getelementptr inbounds %struct.GPR, %struct.GPR* %3, i32 0, i32 33
  %5 = getelementptr inbounds %struct.Reg, %struct.Reg* %4, i32 0, i32 0
  %PC = bitcast %union.anon* %5 to i64*
  %6 = load i64, i64* %PC
  %7 = add i64 %6, %rel_off1
  %8 = load i64, i64* %PC
  %9 = add i64 %8, %rel_off2
  store i64 %9, i64* %PC
  %10 = call %struct.Memory* @_ZN12_GLOBAL__N_1L3JMPI2InImEEEP6MemoryS4_R5StateT_(%struct.Memory* %2, %struct.State* %0, i64 %7)
  ret %struct.Memory* %10
}






define %struct.Memory* @routine_movl__eax__MINUS0x7c__rbp_(%struct.State*  dereferenceable(3376), i64, %struct.Memory* ) #19 {
block_400488:
  %3 = getelementptr inbounds %struct.State, %struct.State* %0, i32 0, i32 6
  %4 = getelementptr inbounds %struct.GPR, %struct.GPR* %3, i32 0, i32 33
  %5 = getelementptr inbounds %struct.Reg, %struct.Reg* %4, i32 0, i32 0
  %PC = bitcast %union.anon* %5 to i64*
  %6 = getelementptr inbounds %struct.State, %struct.State* %0, i32 0, i32 6
  %7 = getelementptr inbounds %struct.GPR, %struct.GPR* %6, i32 0, i32 1
  %8 = getelementptr inbounds %struct.Reg, %struct.Reg* %7, i32 0, i32 0
  %EAX = bitcast %union.anon* %8 to i32*
  %9 = getelementptr inbounds %struct.State, %struct.State* %0, i32 0, i32 6
  %10 = getelementptr inbounds %struct.GPR, %struct.GPR* %9, i32 0, i32 15
  %11 = getelementptr inbounds %struct.Reg, %struct.Reg* %10, i32 0, i32 0
  %RBP = bitcast %union.anon* %11 to i64*
  %12 = load i64, i64* %RBP
  %13 = sub i64 %12, 124
  %14 = load i32, i32* %EAX
  %15 = zext i32 %14 to i64
  %16 = load i64, i64* %PC
  %17 = add i64 %16, 3
  store i64 %17, i64* %PC
  %18 = call %struct.Memory* @_ZN12_GLOBAL__N_1L3MOVI3MnWIjE2RnIjEEEP6MemoryS6_R5StateT_T0_(%struct.Memory* %2, %struct.State* %0, i64 %13, i64 %15)
  ret %struct.Memory* %18
}


define %struct.Memory* @routine_jmpq_.L_401087(%struct.State*  dereferenceable(3376), i64, %struct.Memory*, i64 %rel_off1, i64 %rel_off2) {
block_400488:
  %3 = getelementptr inbounds %struct.State, %struct.State* %0, i32 0, i32 6
  %4 = getelementptr inbounds %struct.GPR, %struct.GPR* %3, i32 0, i32 33
  %5 = getelementptr inbounds %struct.Reg, %struct.Reg* %4, i32 0, i32 0
  %PC = bitcast %union.anon* %5 to i64*
  %6 = load i64, i64* %PC
  %7 = add i64 %6, %rel_off1
  %8 = load i64, i64* %PC
  %9 = add i64 %8, %rel_off2
  store i64 %9, i64* %PC
  %10 = call %struct.Memory* @_ZN12_GLOBAL__N_1L3JMPI2InImEEEP6MemoryS4_R5StateT_(%struct.Memory* %2, %struct.State* %0, i64 %7)
  ret %struct.Memory* %10
}








define %struct.Memory* @routine_jge_.L_4011db(%struct.State*  dereferenceable(3376), i64, %struct.Memory*, i8* %BRANCH_TAKEN, i64 %rel_off1, i64 %rel_off2, i64 %rel_off3) {
block_400488:
  %3 = getelementptr inbounds %struct.State, %struct.State* %0, i32 0, i32 6
  %4 = getelementptr inbounds %struct.GPR, %struct.GPR* %3, i32 0, i32 33
  %5 = getelementptr inbounds %struct.Reg, %struct.Reg* %4, i32 0, i32 0
  %PC = bitcast %union.anon* %5 to i64*
  %6 = load i64, i64* %PC
  %7 = add i64 %6, %rel_off1
  %8 = load i64, i64* %PC
  %9 = add i64 %8, %rel_off2
  %10 = load i64, i64* %PC
  %11 = add i64 %10, %rel_off3
  store i64 %11, i64* %PC
  %12 = call %struct.Memory* @_ZN12_GLOBAL__N_1L3JNLEP6MemoryR5State3RnWIhE2InImES7_(%struct.Memory* %2, %struct.State* %0, i8* %BRANCH_TAKEN, i64 %7, i64 %9)
  ret %struct.Memory* %12
}

define internal %struct.Memory* @_ZN12_GLOBAL__N_1L4PXORI3VnWI8vec128_tE2VnIS2_ES5_EEP6MemoryS7_R5StateT_T0_T1_(%struct.Memory* readnone returned, %struct.State* nocapture readnone dereferenceable(3376), i8* nocapture, i8* nocapture readonly, i8* nocapture readonly) #0 {
  %6 = bitcast i8* %3 to i64*
  %7 = load i64, i64* %6, align 1
  %8 = getelementptr inbounds i8, i8* %3, i64 8
  %9 = bitcast i8* %8 to i64*
  %10 = load i64, i64* %9, align 1
  %11 = bitcast i8* %4 to i64*
  %12 = load i64, i64* %11, align 1
  %13 = getelementptr inbounds i8, i8* %4, i64 8
  %14 = bitcast i8* %13 to i64*
  %15 = load i64, i64* %14, align 1
  %16 = xor i64 %12, %7
  %17 = xor i64 %15, %10
  %18 = trunc i64 %16 to i32
  %19 = lshr i64 %16, 32
  %20 = trunc i64 %19 to i32
  %21 = bitcast i8* %2 to i32*
  store i32 %18, i32* %21, align 1
  %22 = getelementptr inbounds i8, i8* %2, i64 4
  %23 = bitcast i8* %22 to i32*
  store i32 %20, i32* %23, align 1
  %24 = trunc i64 %17 to i32
  %25 = getelementptr inbounds i8, i8* %2, i64 8
  %26 = bitcast i8* %25 to i32*
  store i32 %24, i32* %26, align 1
  %27 = lshr i64 %17, 32
  %28 = trunc i64 %27 to i32
  %29 = getelementptr inbounds i8, i8* %2, i64 12
  %30 = bitcast i8* %29 to i32*
  store i32 %28, i32* %30, align 1
  ret %struct.Memory* %0
}

define %struct.Memory* @routine_xorps__xmm0___xmm0(%struct.State*  dereferenceable(3376), i64, %struct.Memory* ) #19 {
block_400488:
  %3 = getelementptr inbounds %struct.State, %struct.State* %0, i32 0, i32 6
  %4 = getelementptr inbounds %struct.GPR, %struct.GPR* %3, i32 0, i32 33
  %5 = getelementptr inbounds %struct.Reg, %struct.Reg* %4, i32 0, i32 0
  %PC = bitcast %union.anon* %5 to i64*
  %6 = getelementptr inbounds %struct.State, %struct.State* %0, i32 0, i32 1
  %7 = getelementptr inbounds [32 x %union.VectorReg], [32 x %union.VectorReg]* %6, i64 0, i64 0
  %YMM0 = bitcast %union.VectorReg* %7 to %"class.std::bitset"*
  %8 = getelementptr inbounds %struct.State, %struct.State* %0, i32 0, i32 1
  %9 = getelementptr inbounds [32 x %union.VectorReg], [32 x %union.VectorReg]* %8, i64 0, i64 0
  %XMM0 = bitcast %union.VectorReg* %9 to %union.vec128_t*
  %10 = bitcast %"class.std::bitset"* %YMM0 to i8*
  %11 = bitcast %"class.std::bitset"* %YMM0 to i8*
  %12 = bitcast %union.vec128_t* %XMM0 to i8*
  %13 = load i64, i64* %PC
  %14 = add i64 %13, 3
  store i64 %14, i64* %PC
  %15 = call %struct.Memory* @_ZN12_GLOBAL__N_1L4PXORI3VnWI8vec128_tE2VnIS2_ES5_EEP6MemoryS7_R5StateT_T0_T1_(%struct.Memory* %2, %struct.State* %0, i8* %10, i8* %11, i8* %12)
  ret %struct.Memory* %15
}


define %struct.Memory* @routine_movq_MINUS0x68__rbp____rax(%struct.State*  dereferenceable(3376), i64, %struct.Memory* ) #19 {
block_400488:
  %3 = getelementptr inbounds %struct.State, %struct.State* %0, i32 0, i32 6
  %4 = getelementptr inbounds %struct.GPR, %struct.GPR* %3, i32 0, i32 33
  %5 = getelementptr inbounds %struct.Reg, %struct.Reg* %4, i32 0, i32 0
  %PC = bitcast %union.anon* %5 to i64*
  %6 = getelementptr inbounds %struct.State, %struct.State* %0, i32 0, i32 6
  %7 = getelementptr inbounds %struct.GPR, %struct.GPR* %6, i32 0, i32 1
  %8 = getelementptr inbounds %struct.Reg, %struct.Reg* %7, i32 0, i32 0
  %RAX = bitcast %union.anon* %8 to i64*
  %9 = getelementptr inbounds %struct.State, %struct.State* %0, i32 0, i32 6
  %10 = getelementptr inbounds %struct.GPR, %struct.GPR* %9, i32 0, i32 15
  %11 = getelementptr inbounds %struct.Reg, %struct.Reg* %10, i32 0, i32 0
  %RBP = bitcast %union.anon* %11 to i64*
  %12 = load i64, i64* %RBP
  %13 = sub i64 %12, 104
  %14 = load i64, i64* %PC
  %15 = add i64 %14, 4
  store i64 %15, i64* %PC
  %16 = call %struct.Memory* @_ZN12_GLOBAL__N_1L3MOVI3RnWImE2MnImEEEP6MemoryS6_R5StateT_T0_(%struct.Memory* %2, %struct.State* %0, i64* %RAX, i64 %13)
  ret %struct.Memory* %16
}












define %struct.Memory* @routine_jge_.L_4011c8(%struct.State*  dereferenceable(3376), i64, %struct.Memory*, i8* %BRANCH_TAKEN, i64 %rel_off1, i64 %rel_off2, i64 %rel_off3) {
block_400488:
  %3 = getelementptr inbounds %struct.State, %struct.State* %0, i32 0, i32 6
  %4 = getelementptr inbounds %struct.GPR, %struct.GPR* %3, i32 0, i32 33
  %5 = getelementptr inbounds %struct.Reg, %struct.Reg* %4, i32 0, i32 0
  %PC = bitcast %union.anon* %5 to i64*
  %6 = load i64, i64* %PC
  %7 = add i64 %6, %rel_off1
  %8 = load i64, i64* %PC
  %9 = add i64 %8, %rel_off2
  %10 = load i64, i64* %PC
  %11 = add i64 %10, %rel_off3
  store i64 %11, i64* %PC
  %12 = call %struct.Memory* @_ZN12_GLOBAL__N_1L3JNLEP6MemoryR5State3RnWIhE2InImES7_(%struct.Memory* %2, %struct.State* %0, i8* %BRANCH_TAKEN, i64 %7, i64 %9)
  ret %struct.Memory* %12
}








define %struct.Memory* @routine_movsd_MINUS0x28__rbp____xmm1(%struct.State*  dereferenceable(3376), i64, %struct.Memory* ) #19 {
block_400488:
  %3 = getelementptr inbounds %struct.State, %struct.State* %0, i32 0, i32 6
  %4 = getelementptr inbounds %struct.GPR, %struct.GPR* %3, i32 0, i32 33
  %5 = getelementptr inbounds %struct.Reg, %struct.Reg* %4, i32 0, i32 0
  %PC = bitcast %union.anon* %5 to i64*
  %6 = getelementptr inbounds %struct.State, %struct.State* %0, i32 0, i32 6
  %7 = getelementptr inbounds %struct.GPR, %struct.GPR* %6, i32 0, i32 15
  %8 = getelementptr inbounds %struct.Reg, %struct.Reg* %7, i32 0, i32 0
  %RBP = bitcast %union.anon* %8 to i64*
  %9 = getelementptr inbounds %struct.State, %struct.State* %0, i32 0, i32 1
  %10 = getelementptr inbounds [32 x %union.VectorReg], [32 x %union.VectorReg]* %9, i64 0, i64 1
  %YMM1 = bitcast %union.VectorReg* %10 to %"class.std::bitset"*
  %11 = bitcast %"class.std::bitset"* %YMM1 to i8*
  %12 = load i64, i64* %RBP
  %13 = sub i64 %12, 40
  %14 = load i64, i64* %PC
  %15 = add i64 %14, 5
  store i64 %15, i64* %PC
  %16 = call %struct.Memory* @_ZN12_GLOBAL__N_1L9MOVSD_MEMI3VnWI8vec128_tE3MVnI7vec64_tEEEP6MemoryS8_R5StateT_T0_(%struct.Memory* %2, %struct.State* %0, i8* %11, i64 %13)
  ret %struct.Memory* %16
}














define %struct.Memory* @routine_movq_MINUS0x70__rbp____rax(%struct.State*  dereferenceable(3376), i64, %struct.Memory* ) #19 {
block_400488:
  %3 = getelementptr inbounds %struct.State, %struct.State* %0, i32 0, i32 6
  %4 = getelementptr inbounds %struct.GPR, %struct.GPR* %3, i32 0, i32 33
  %5 = getelementptr inbounds %struct.Reg, %struct.Reg* %4, i32 0, i32 0
  %PC = bitcast %union.anon* %5 to i64*
  %6 = getelementptr inbounds %struct.State, %struct.State* %0, i32 0, i32 6
  %7 = getelementptr inbounds %struct.GPR, %struct.GPR* %6, i32 0, i32 1
  %8 = getelementptr inbounds %struct.Reg, %struct.Reg* %7, i32 0, i32 0
  %RAX = bitcast %union.anon* %8 to i64*
  %9 = getelementptr inbounds %struct.State, %struct.State* %0, i32 0, i32 6
  %10 = getelementptr inbounds %struct.GPR, %struct.GPR* %9, i32 0, i32 15
  %11 = getelementptr inbounds %struct.Reg, %struct.Reg* %10, i32 0, i32 0
  %RBP = bitcast %union.anon* %11 to i64*
  %12 = load i64, i64* %RBP
  %13 = sub i64 %12, 112
  %14 = load i64, i64* %PC
  %15 = add i64 %14, 4
  store i64 %15, i64* %PC
  %16 = call %struct.Memory* @_ZN12_GLOBAL__N_1L3MOVI3RnWImE2MnImEEEP6MemoryS6_R5StateT_T0_(%struct.Memory* %2, %struct.State* %0, i64* %RAX, i64 %13)
  ret %struct.Memory* %16
}




















define %struct.Memory* @routine_jmpq_.L_401163(%struct.State*  dereferenceable(3376), i64, %struct.Memory*, i64 %rel_off1, i64 %rel_off2) {
block_400488:
  %3 = getelementptr inbounds %struct.State, %struct.State* %0, i32 0, i32 6
  %4 = getelementptr inbounds %struct.GPR, %struct.GPR* %3, i32 0, i32 33
  %5 = getelementptr inbounds %struct.Reg, %struct.Reg* %4, i32 0, i32 0
  %PC = bitcast %union.anon* %5 to i64*
  %6 = load i64, i64* %PC
  %7 = add i64 %6, %rel_off1
  %8 = load i64, i64* %PC
  %9 = add i64 %8, %rel_off2
  store i64 %9, i64* %PC
  %10 = call %struct.Memory* @_ZN12_GLOBAL__N_1L3JMPI2InImEEEP6MemoryS4_R5StateT_(%struct.Memory* %2, %struct.State* %0, i64 %7)
  ret %struct.Memory* %10
}


define %struct.Memory* @routine_jmpq_.L_4011cd(%struct.State*  dereferenceable(3376), i64, %struct.Memory*, i64 %rel_off1, i64 %rel_off2) {
block_400488:
  %3 = getelementptr inbounds %struct.State, %struct.State* %0, i32 0, i32 6
  %4 = getelementptr inbounds %struct.GPR, %struct.GPR* %3, i32 0, i32 33
  %5 = getelementptr inbounds %struct.Reg, %struct.Reg* %4, i32 0, i32 0
  %PC = bitcast %union.anon* %5 to i64*
  %6 = load i64, i64* %PC
  %7 = add i64 %6, %rel_off1
  %8 = load i64, i64* %PC
  %9 = add i64 %8, %rel_off2
  store i64 %9, i64* %PC
  %10 = call %struct.Memory* @_ZN12_GLOBAL__N_1L3JMPI2InImEEEP6MemoryS4_R5StateT_(%struct.Memory* %2, %struct.State* %0, i64 %7)
  ret %struct.Memory* %10
}








define %struct.Memory* @routine_jmpq_.L_401140(%struct.State*  dereferenceable(3376), i64, %struct.Memory*, i64 %rel_off1, i64 %rel_off2) {
block_400488:
  %3 = getelementptr inbounds %struct.State, %struct.State* %0, i32 0, i32 6
  %4 = getelementptr inbounds %struct.GPR, %struct.GPR* %3, i32 0, i32 33
  %5 = getelementptr inbounds %struct.Reg, %struct.Reg* %4, i32 0, i32 0
  %PC = bitcast %union.anon* %5 to i64*
  %6 = load i64, i64* %PC
  %7 = add i64 %6, %rel_off1
  %8 = load i64, i64* %PC
  %9 = add i64 %8, %rel_off2
  store i64 %9, i64* %PC
  %10 = call %struct.Memory* @_ZN12_GLOBAL__N_1L3JMPI2InImEEEP6MemoryS4_R5StateT_(%struct.Memory* %2, %struct.State* %0, i64 %7)
  ret %struct.Memory* %10
}








define %struct.Memory* @routine_jge_.L_401223(%struct.State*  dereferenceable(3376), i64, %struct.Memory*, i8* %BRANCH_TAKEN, i64 %rel_off1, i64 %rel_off2, i64 %rel_off3) {
block_400488:
  %3 = getelementptr inbounds %struct.State, %struct.State* %0, i32 0, i32 6
  %4 = getelementptr inbounds %struct.GPR, %struct.GPR* %3, i32 0, i32 33
  %5 = getelementptr inbounds %struct.Reg, %struct.Reg* %4, i32 0, i32 0
  %PC = bitcast %union.anon* %5 to i64*
  %6 = load i64, i64* %PC
  %7 = add i64 %6, %rel_off1
  %8 = load i64, i64* %PC
  %9 = add i64 %8, %rel_off2
  %10 = load i64, i64* %PC
  %11 = add i64 %10, %rel_off3
  store i64 %11, i64* %PC
  %12 = call %struct.Memory* @_ZN12_GLOBAL__N_1L3JNLEP6MemoryR5State3RnWIhE2InImES7_(%struct.Memory* %2, %struct.State* %0, i8* %BRANCH_TAKEN, i64 %7, i64 %9)
  ret %struct.Memory* %12
}








define %struct.Memory* @routine_movq_MINUS0x78__rbp____rax(%struct.State*  dereferenceable(3376), i64, %struct.Memory* ) #19 {
block_400488:
  %3 = getelementptr inbounds %struct.State, %struct.State* %0, i32 0, i32 6
  %4 = getelementptr inbounds %struct.GPR, %struct.GPR* %3, i32 0, i32 33
  %5 = getelementptr inbounds %struct.Reg, %struct.Reg* %4, i32 0, i32 0
  %PC = bitcast %union.anon* %5 to i64*
  %6 = getelementptr inbounds %struct.State, %struct.State* %0, i32 0, i32 6
  %7 = getelementptr inbounds %struct.GPR, %struct.GPR* %6, i32 0, i32 1
  %8 = getelementptr inbounds %struct.Reg, %struct.Reg* %7, i32 0, i32 0
  %RAX = bitcast %union.anon* %8 to i64*
  %9 = getelementptr inbounds %struct.State, %struct.State* %0, i32 0, i32 6
  %10 = getelementptr inbounds %struct.GPR, %struct.GPR* %9, i32 0, i32 15
  %11 = getelementptr inbounds %struct.Reg, %struct.Reg* %10, i32 0, i32 0
  %RBP = bitcast %union.anon* %11 to i64*
  %12 = load i64, i64* %RBP
  %13 = sub i64 %12, 120
  %14 = load i64, i64* %PC
  %15 = add i64 %14, 4
  store i64 %15, i64* %PC
  %16 = call %struct.Memory* @_ZN12_GLOBAL__N_1L3MOVI3RnWImE2MnImEEEP6MemoryS6_R5StateT_T0_(%struct.Memory* %2, %struct.State* %0, i64* %RAX, i64 %13)
  ret %struct.Memory* %16
}



define internal %struct.Memory* @_ZN12_GLOBAL__N_1L5ADDSDI3VnWI8vec128_tE2VnIS2_E3MVnI7vec64_tEEEP6MemorySA_R5StateT_T0_T1_(%struct.Memory* returned, %struct.State* nocapture readnone dereferenceable(3376), i8* nocapture, i8* nocapture readonly, i64) #0 {
  %6 = bitcast i8* %3 to double*
  %7 = load double, double* %6, align 1
  %8 = getelementptr inbounds i8, i8* %3, i64 8
  %9 = bitcast i8* %8 to i64*
  %10 = load i64, i64* %9, align 1
  %11 = inttoptr i64 %4 to double*
  %12 = load double, double* %11
  %13 = fadd double %7, %12
  %14 = bitcast i8* %2 to double*
  store double %13, double* %14, align 1
  %15 = getelementptr inbounds i8, i8* %2, i64 8
  %16 = bitcast i8* %15 to i64*
  store i64 %10, i64* %16, align 1
  ret %struct.Memory* %0
}

define %struct.Memory* @routine_addsd___rax__rcx_8____xmm0(%struct.State*  dereferenceable(3376), i64, %struct.Memory* ) #19 {
block_400488:
  %3 = getelementptr inbounds %struct.State, %struct.State* %0, i32 0, i32 6
  %4 = getelementptr inbounds %struct.GPR, %struct.GPR* %3, i32 0, i32 33
  %5 = getelementptr inbounds %struct.Reg, %struct.Reg* %4, i32 0, i32 0
  %PC = bitcast %union.anon* %5 to i64*
  %6 = getelementptr inbounds %struct.State, %struct.State* %0, i32 0, i32 6
  %7 = getelementptr inbounds %struct.GPR, %struct.GPR* %6, i32 0, i32 1
  %8 = getelementptr inbounds %struct.Reg, %struct.Reg* %7, i32 0, i32 0
  %RAX = bitcast %union.anon* %8 to i64*
  %9 = getelementptr inbounds %struct.State, %struct.State* %0, i32 0, i32 6
  %10 = getelementptr inbounds %struct.GPR, %struct.GPR* %9, i32 0, i32 5
  %11 = getelementptr inbounds %struct.Reg, %struct.Reg* %10, i32 0, i32 0
  %RCX = bitcast %union.anon* %11 to i64*
  %12 = getelementptr inbounds %struct.State, %struct.State* %0, i32 0, i32 1
  %13 = getelementptr inbounds [32 x %union.VectorReg], [32 x %union.VectorReg]* %12, i64 0, i64 0
  %YMM0 = bitcast %union.VectorReg* %13 to %"class.std::bitset"*
  %14 = bitcast %"class.std::bitset"* %YMM0 to i8*
  %15 = bitcast %"class.std::bitset"* %YMM0 to i8*
  %16 = load i64, i64* %RAX
  %17 = load i64, i64* %RCX
  %18 = mul i64 %17, 8
  %19 = add i64 %18, %16
  %20 = load i64, i64* %PC
  %21 = add i64 %20, 5
  store i64 %21, i64* %PC
  %22 = call %struct.Memory* @_ZN12_GLOBAL__N_1L5ADDSDI3VnWI8vec128_tE2VnIS2_E3MVnI7vec64_tEEEP6MemorySA_R5StateT_T0_T1_(%struct.Memory* %2, %struct.State* %0, i8* %14, i8* %15, i64 %19)
  ret %struct.Memory* %22
}














define %struct.Memory* @routine_jmpq_.L_4011e2(%struct.State*  dereferenceable(3376), i64, %struct.Memory*, i64 %rel_off1, i64 %rel_off2) {
block_400488:
  %3 = getelementptr inbounds %struct.State, %struct.State* %0, i32 0, i32 6
  %4 = getelementptr inbounds %struct.GPR, %struct.GPR* %3, i32 0, i32 33
  %5 = getelementptr inbounds %struct.Reg, %struct.Reg* %4, i32 0, i32 0
  %PC = bitcast %union.anon* %5 to i64*
  %6 = load i64, i64* %PC
  %7 = add i64 %6, %rel_off1
  %8 = load i64, i64* %PC
  %9 = add i64 %8, %rel_off2
  store i64 %9, i64* %PC
  %10 = call %struct.Memory* @_ZN12_GLOBAL__N_1L3JMPI2InImEEEP6MemoryS4_R5StateT_(%struct.Memory* %2, %struct.State* %0, i64 %7)
  ret %struct.Memory* %10
}








define %struct.Memory* @routine_jge_.L_4012b5(%struct.State*  dereferenceable(3376), i64, %struct.Memory*, i8* %BRANCH_TAKEN, i64 %rel_off1, i64 %rel_off2, i64 %rel_off3) {
block_400488:
  %3 = getelementptr inbounds %struct.State, %struct.State* %0, i32 0, i32 6
  %4 = getelementptr inbounds %struct.GPR, %struct.GPR* %3, i32 0, i32 33
  %5 = getelementptr inbounds %struct.Reg, %struct.Reg* %4, i32 0, i32 0
  %PC = bitcast %union.anon* %5 to i64*
  %6 = load i64, i64* %PC
  %7 = add i64 %6, %rel_off1
  %8 = load i64, i64* %PC
  %9 = add i64 %8, %rel_off2
  %10 = load i64, i64* %PC
  %11 = add i64 %10, %rel_off3
  store i64 %11, i64* %PC
  %12 = call %struct.Memory* @_ZN12_GLOBAL__N_1L3JNLEP6MemoryR5State3RnWIhE2InImES7_(%struct.Memory* %2, %struct.State* %0, i8* %BRANCH_TAKEN, i64 %7, i64 %9)
  ret %struct.Memory* %12
}








define %struct.Memory* @routine_jge_.L_4012a2(%struct.State*  dereferenceable(3376), i64, %struct.Memory*, i8* %BRANCH_TAKEN, i64 %rel_off1, i64 %rel_off2, i64 %rel_off3) {
block_400488:
  %3 = getelementptr inbounds %struct.State, %struct.State* %0, i32 0, i32 6
  %4 = getelementptr inbounds %struct.GPR, %struct.GPR* %3, i32 0, i32 33
  %5 = getelementptr inbounds %struct.Reg, %struct.Reg* %4, i32 0, i32 0
  %PC = bitcast %union.anon* %5 to i64*
  %6 = load i64, i64* %PC
  %7 = add i64 %6, %rel_off1
  %8 = load i64, i64* %PC
  %9 = add i64 %8, %rel_off2
  %10 = load i64, i64* %PC
  %11 = add i64 %10, %rel_off3
  store i64 %11, i64* %PC
  %12 = call %struct.Memory* @_ZN12_GLOBAL__N_1L3JNLEP6MemoryR5State3RnWIhE2InImES7_(%struct.Memory* %2, %struct.State* %0, i8* %BRANCH_TAKEN, i64 %7, i64 %9)
  ret %struct.Memory* %12
}


define %struct.Memory* @routine_movq_MINUS0x60__rbp____rax(%struct.State*  dereferenceable(3376), i64, %struct.Memory* ) #19 {
block_400488:
  %3 = getelementptr inbounds %struct.State, %struct.State* %0, i32 0, i32 6
  %4 = getelementptr inbounds %struct.GPR, %struct.GPR* %3, i32 0, i32 33
  %5 = getelementptr inbounds %struct.Reg, %struct.Reg* %4, i32 0, i32 0
  %PC = bitcast %union.anon* %5 to i64*
  %6 = getelementptr inbounds %struct.State, %struct.State* %0, i32 0, i32 6
  %7 = getelementptr inbounds %struct.GPR, %struct.GPR* %6, i32 0, i32 1
  %8 = getelementptr inbounds %struct.Reg, %struct.Reg* %7, i32 0, i32 0
  %RAX = bitcast %union.anon* %8 to i64*
  %9 = getelementptr inbounds %struct.State, %struct.State* %0, i32 0, i32 6
  %10 = getelementptr inbounds %struct.GPR, %struct.GPR* %9, i32 0, i32 15
  %11 = getelementptr inbounds %struct.Reg, %struct.Reg* %10, i32 0, i32 0
  %RBP = bitcast %union.anon* %11 to i64*
  %12 = load i64, i64* %RBP
  %13 = sub i64 %12, 96
  %14 = load i64, i64* %PC
  %15 = add i64 %14, 4
  store i64 %15, i64* %PC
  %16 = call %struct.Memory* @_ZN12_GLOBAL__N_1L3MOVI3RnWImE2MnImEEEP6MemoryS6_R5StateT_T0_(%struct.Memory* %2, %struct.State* %0, i64* %RAX, i64 %13)
  ret %struct.Memory* %16
}






define %struct.Memory* @routine_movsd_MINUS0x20__rbp____xmm1(%struct.State*  dereferenceable(3376), i64, %struct.Memory* ) #19 {
block_400488:
  %3 = getelementptr inbounds %struct.State, %struct.State* %0, i32 0, i32 6
  %4 = getelementptr inbounds %struct.GPR, %struct.GPR* %3, i32 0, i32 33
  %5 = getelementptr inbounds %struct.Reg, %struct.Reg* %4, i32 0, i32 0
  %PC = bitcast %union.anon* %5 to i64*
  %6 = getelementptr inbounds %struct.State, %struct.State* %0, i32 0, i32 6
  %7 = getelementptr inbounds %struct.GPR, %struct.GPR* %6, i32 0, i32 15
  %8 = getelementptr inbounds %struct.Reg, %struct.Reg* %7, i32 0, i32 0
  %RBP = bitcast %union.anon* %8 to i64*
  %9 = getelementptr inbounds %struct.State, %struct.State* %0, i32 0, i32 1
  %10 = getelementptr inbounds [32 x %union.VectorReg], [32 x %union.VectorReg]* %9, i64 0, i64 1
  %YMM1 = bitcast %union.VectorReg* %10 to %"class.std::bitset"*
  %11 = bitcast %"class.std::bitset"* %YMM1 to i8*
  %12 = load i64, i64* %RBP
  %13 = sub i64 %12, 32
  %14 = load i64, i64* %PC
  %15 = add i64 %14, 5
  store i64 %15, i64* %PC
  %16 = call %struct.Memory* @_ZN12_GLOBAL__N_1L9MOVSD_MEMI3VnWI8vec128_tE3MVnI7vec64_tEEEP6MemoryS8_R5StateT_T0_(%struct.Memory* %2, %struct.State* %0, i8* %11, i64 %13)
  ret %struct.Memory* %16
}


































define %struct.Memory* @routine_jmpq_.L_40123d(%struct.State*  dereferenceable(3376), i64, %struct.Memory*, i64 %rel_off1, i64 %rel_off2) {
block_400488:
  %3 = getelementptr inbounds %struct.State, %struct.State* %0, i32 0, i32 6
  %4 = getelementptr inbounds %struct.GPR, %struct.GPR* %3, i32 0, i32 33
  %5 = getelementptr inbounds %struct.Reg, %struct.Reg* %4, i32 0, i32 0
  %PC = bitcast %union.anon* %5 to i64*
  %6 = load i64, i64* %PC
  %7 = add i64 %6, %rel_off1
  %8 = load i64, i64* %PC
  %9 = add i64 %8, %rel_off2
  store i64 %9, i64* %PC
  %10 = call %struct.Memory* @_ZN12_GLOBAL__N_1L3JMPI2InImEEEP6MemoryS4_R5StateT_(%struct.Memory* %2, %struct.State* %0, i64 %7)
  ret %struct.Memory* %10
}


define %struct.Memory* @routine_jmpq_.L_4012a7(%struct.State*  dereferenceable(3376), i64, %struct.Memory*, i64 %rel_off1, i64 %rel_off2) {
block_400488:
  %3 = getelementptr inbounds %struct.State, %struct.State* %0, i32 0, i32 6
  %4 = getelementptr inbounds %struct.GPR, %struct.GPR* %3, i32 0, i32 33
  %5 = getelementptr inbounds %struct.Reg, %struct.Reg* %4, i32 0, i32 0
  %PC = bitcast %union.anon* %5 to i64*
  %6 = load i64, i64* %PC
  %7 = add i64 %6, %rel_off1
  %8 = load i64, i64* %PC
  %9 = add i64 %8, %rel_off2
  store i64 %9, i64* %PC
  %10 = call %struct.Memory* @_ZN12_GLOBAL__N_1L3JMPI2InImEEEP6MemoryS4_R5StateT_(%struct.Memory* %2, %struct.State* %0, i64 %7)
  ret %struct.Memory* %10
}








define %struct.Memory* @routine_jmpq_.L_40122a(%struct.State*  dereferenceable(3376), i64, %struct.Memory*, i64 %rel_off1, i64 %rel_off2) {
block_400488:
  %3 = getelementptr inbounds %struct.State, %struct.State* %0, i32 0, i32 6
  %4 = getelementptr inbounds %struct.GPR, %struct.GPR* %3, i32 0, i32 33
  %5 = getelementptr inbounds %struct.Reg, %struct.Reg* %4, i32 0, i32 0
  %PC = bitcast %union.anon* %5 to i64*
  %6 = load i64, i64* %PC
  %7 = add i64 %6, %rel_off1
  %8 = load i64, i64* %PC
  %9 = add i64 %8, %rel_off2
  store i64 %9, i64* %PC
  %10 = call %struct.Memory* @_ZN12_GLOBAL__N_1L3JMPI2InImEEEP6MemoryS4_R5StateT_(%struct.Memory* %2, %struct.State* %0, i64 %7)
  ret %struct.Memory* %10
}

define internal %struct.Memory* @_ZN12_GLOBAL__N_1L3POPI3RnWImEEEP6MemoryS4_R5StateT_(%struct.Memory*, %struct.State* nocapture dereferenceable(3376), i64* nocapture) #0 {
  %4 = getelementptr inbounds %struct.State, %struct.State* %1, i64 0, i32 6, i32 13, i32 0, i32 0
  %5 = load i64, i64* %4, align 8
  %6 = add i64 %5, 8
  %7 = inttoptr i64 %5 to i64*
  %8 = load i64, i64* %7
  store i64 %8, i64* %2, align 8
  store i64 %6, i64* %4, align 8
  ret %struct.Memory* %0
}

define %struct.Memory* @routine_popq__rbx(%struct.State*  dereferenceable(3376), i64, %struct.Memory* ) #19 {
block_400488:
  %3 = getelementptr inbounds %struct.State, %struct.State* %0, i32 0, i32 6
  %4 = getelementptr inbounds %struct.GPR, %struct.GPR* %3, i32 0, i32 33
  %5 = getelementptr inbounds %struct.Reg, %struct.Reg* %4, i32 0, i32 0
  %PC = bitcast %union.anon* %5 to i64*
  %6 = getelementptr inbounds %struct.State, %struct.State* %0, i32 0, i32 6
  %7 = getelementptr inbounds %struct.GPR, %struct.GPR* %6, i32 0, i32 3
  %8 = getelementptr inbounds %struct.Reg, %struct.Reg* %7, i32 0, i32 0
  %RBX = bitcast %union.anon* %8 to i64*
  %9 = load i64, i64* %PC
  %10 = add i64 %9, 1
  store i64 %10, i64* %PC
  %11 = call %struct.Memory* @_ZN12_GLOBAL__N_1L3POPI3RnWImEEEP6MemoryS4_R5StateT_(%struct.Memory* %2, %struct.State* %0, i64* %RBX)
  ret %struct.Memory* %11
}


define %struct.Memory* @routine_popq__r14(%struct.State*  dereferenceable(3376), i64, %struct.Memory* ) #19 {
block_400488:
  %3 = getelementptr inbounds %struct.State, %struct.State* %0, i32 0, i32 6
  %4 = getelementptr inbounds %struct.GPR, %struct.GPR* %3, i32 0, i32 33
  %5 = getelementptr inbounds %struct.Reg, %struct.Reg* %4, i32 0, i32 0
  %PC = bitcast %union.anon* %5 to i64*
  %6 = getelementptr inbounds %struct.State, %struct.State* %0, i32 0, i32 6
  %7 = getelementptr inbounds %struct.GPR, %struct.GPR* %6, i32 0, i32 29
  %8 = getelementptr inbounds %struct.Reg, %struct.Reg* %7, i32 0, i32 0
  %R14 = bitcast %union.anon* %8 to i64*
  %9 = load i64, i64* %PC
  %10 = add i64 %9, 2
  store i64 %10, i64* %PC
  %11 = call %struct.Memory* @_ZN12_GLOBAL__N_1L3POPI3RnWImEEEP6MemoryS4_R5StateT_(%struct.Memory* %2, %struct.State* %0, i64* %R14)
  ret %struct.Memory* %11
}


define %struct.Memory* @routine_popq__rbp(%struct.State*  dereferenceable(3376), i64, %struct.Memory* ) #19 {
block_400488:
  %3 = getelementptr inbounds %struct.State, %struct.State* %0, i32 0, i32 6
  %4 = getelementptr inbounds %struct.GPR, %struct.GPR* %3, i32 0, i32 33
  %5 = getelementptr inbounds %struct.Reg, %struct.Reg* %4, i32 0, i32 0
  %PC = bitcast %union.anon* %5 to i64*
  %6 = getelementptr inbounds %struct.State, %struct.State* %0, i32 0, i32 6
  %7 = getelementptr inbounds %struct.GPR, %struct.GPR* %6, i32 0, i32 15
  %8 = getelementptr inbounds %struct.Reg, %struct.Reg* %7, i32 0, i32 0
  %RBP = bitcast %union.anon* %8 to i64*
  %9 = load i64, i64* %PC
  %10 = add i64 %9, 1
  store i64 %10, i64* %PC
  %11 = call %struct.Memory* @_ZN12_GLOBAL__N_1L3POPI3RnWImEEEP6MemoryS4_R5StateT_(%struct.Memory* %2, %struct.State* %0, i64* %RBP)
  ret %struct.Memory* %11
}

define internal %struct.Memory* @_ZN12_GLOBAL__N_1L3RETEP6MemoryR5State(%struct.Memory* returned, %struct.State* nocapture dereferenceable(3376)) #0 {
  %3 = getelementptr inbounds %struct.State, %struct.State* %1, i64 0, i32 6, i32 33, i32 0, i32 0
  %4 = getelementptr inbounds %struct.State, %struct.State* %1, i64 0, i32 6, i32 13, i32 0, i32 0
  %5 = load i64, i64* %4, align 8
  %6 = inttoptr i64 %5 to i64*
  %7 = load i64, i64* %6
  store i64 %7, i64* %3, align 8
  %8 = add i64 %5, 8
  store i64 %8, i64* %4, align 8
  ret %struct.Memory* %0
}

define %struct.Memory* @routine_retq(%struct.State*  dereferenceable(3376), i64, %struct.Memory* ) #19 {
block_400488:
  %3 = getelementptr inbounds %struct.State, %struct.State* %0, i32 0, i32 6
  %4 = getelementptr inbounds %struct.GPR, %struct.GPR* %3, i32 0, i32 33
  %5 = getelementptr inbounds %struct.Reg, %struct.Reg* %4, i32 0, i32 0
  %PC = bitcast %union.anon* %5 to i64*
  %6 = load i64, i64* %PC
  %7 = add i64 %6, 1
  store i64 %7, i64* %PC
  %8 = call %struct.Memory* @_ZN12_GLOBAL__N_1L3RETEP6MemoryR5State(%struct.Memory* %2, %struct.State* %0)
  ret %struct.Memory* %8
}

