; ModuleID = 'mcsema/test.proposed.ll'
source_filename = "llvm-link"
target datalayout = "e-m:e-i64:64-f80:128-n8:16:32:64-S128"
target triple = "x86_64-pc-linux-gnu-elf"

%union.anon = type { i64 }
%seg_400388__init_type = type <{ [23 x i8] }>
%seg_4003a0__text_type = type <{ [354 x i8] }>
%seg_400504__fini_type = type <{ [9 x i8] }>
%seg_400510__rodata_type = type <{ [4 x i8] }>
%seg_400514__eh_frame_hdr_type = type <{ [52 x i8] }>
%seg_400548__eh_frame_type = type <{ [208 x i8] }>
%seg_601018__data_type = type <{ [16 x i8] }>
%__bss_start_type = type <{ [8 x i8] }>
%struct.State = type { %struct.ArchState, [32 x %union.VectorReg], %struct.ArithFlags, %union.anon, %struct.Segments, %struct.AddressSpace, %struct.GPR, %struct.X87Stack, %struct.MMX, %struct.FPUStatusFlags, %union.anon, %union.FPU, %struct.SegmentCaches }
%struct.ArchState = type { i32, i32, %union.anon }
%union.VectorReg = type { %union.vec512_t }
%union.vec512_t = type { %struct.uint64v8_t }
%struct.uint64v8_t = type { [8 x i64] }
%struct.ArithFlags = type { i8, i8, i8, i8, i8, i8, i8, i8, i8, i8, i8, i8, i8, i8, i8, i8 }
%struct.Segments = type { i16, %union.SegmentSelector, i16, %union.SegmentSelector, i16, %union.SegmentSelector, i16, %union.SegmentSelector, i16, %union.SegmentSelector, i16, %union.SegmentSelector }
%union.SegmentSelector = type { i16 }
%struct.AddressSpace = type { i64, %struct.Reg, i64, %struct.Reg, i64, %struct.Reg, i64, %struct.Reg, i64, %struct.Reg, i64, %struct.Reg }
%struct.Reg = type { %union.anon }
%struct.GPR = type { i64, %struct.Reg, i64, %struct.Reg, i64, %struct.Reg, i64, %struct.Reg, i64, %struct.Reg, i64, %struct.Reg, i64, %struct.Reg, i64, %struct.Reg, i64, %struct.Reg, i64, %struct.Reg, i64, %struct.Reg, i64, %struct.Reg, i64, %struct.Reg, i64, %struct.Reg, i64, %struct.Reg, i64, %struct.Reg, i64, %struct.Reg }
%struct.X87Stack = type { [8 x %struct.anon.3] }
%struct.anon.3 = type { i64, double }
%struct.MMX = type { [8 x %struct.anon.4] }
%struct.anon.4 = type { i64, %union.vec64_t }
%union.vec64_t = type { %struct.uint64v1_t }
%struct.uint64v1_t = type { [1 x i64] }
%struct.FPUStatusFlags = type { i8, i8, i8, i8, i8, i8, i8, i8, i8, i8, i8, i8, i8, i8, i8, i8, i8, i8, i8, i8, [4 x i8] }
%union.FPU = type { %struct.anon.13 }
%struct.anon.13 = type { %struct.FpuFXSAVE, [96 x i8] }
%struct.FpuFXSAVE = type { %union.SegmentSelector, %union.SegmentSelector, %union.FPUAbridgedTagWord, i8, i16, i32, %union.SegmentSelector, i16, i32, %union.SegmentSelector, i16, %union.FPUControlStatus, %union.FPUControlStatus, [8 x %struct.FPUStackElem], [16 x %union.vec128_t] }
%union.FPUAbridgedTagWord = type { i8 }
%union.FPUControlStatus = type { i32 }
%struct.FPUStackElem = type { %union.anon.11, [6 x i8] }
%union.anon.11 = type { %struct.float80_t }
%struct.float80_t = type { [10 x i8] }
%union.vec128_t = type { %struct.uint128v1_t }
%struct.uint128v1_t = type { [1 x i128] }
%struct.SegmentCaches = type { %struct.SegmentShadow, %struct.SegmentShadow, %struct.SegmentShadow, %struct.SegmentShadow, %struct.SegmentShadow, %struct.SegmentShadow }
%struct.SegmentShadow = type { %union.anon, i32, i32 }
%struct.Memory = type opaque
%"class.std::bitset" = type { %struct.uint64v4_t }
%struct.uint64v4_t = type { [4 x i64] }

@switch.table = private unnamed_addr constant [4 x i32] [i32 2048, i32 3072, i32 0, i32 1024]
@DR0 = external global i64, align 8
@DR1 = external global i64, align 8
@DR2 = external global i64, align 8
@DR3 = external global i64, align 8
@DR4 = external global i64, align 8
@DR5 = external global i64, align 8
@DR6 = external global i64, align 8
@DR7 = external global i64, align 8
@gCR0 = external global %union.anon, align 1
@gCR1 = external global %union.anon, align 1
@gCR2 = external global %union.anon, align 1
@gCR3 = external global %union.anon, align 1
@gCR4 = external global %union.anon, align 1
@gCR8 = external global %union.anon, align 1
@seg_400388__init = internal constant %seg_400388__init_type <{ [23 x i8] c"H\83\EC\08H\8B\05e\0C \00H\85\C0t\02\FF\D0H\83\C4\08\C3" }>
@seg_4003a0__text = internal constant %seg_4003a0__text_type <{ [354 x i8] c"1\EDI\89\D1^H\89\E2H\83\E4\F0PTI\C7\C0\00\05@\00H\C7\C1\90\04@\00H\C7\C7\88\04@\00\FF\15&\0C \00\F4\0F\1FD\00\00\F3\C3f.\0F\1F\84\00\00\00\00\00\0F\1F@\00U\B8(\10`\00H=(\10`\00H\89\E5t\17\B8\00\00\00\00H\85\C0t\0D]\BF(\10`\00\FF\E0\0F\1FD\00\00]\C3f\0F\1FD\00\00\BE(\10`\00UH\81\EE(\10`\00H\89\E5H\C1\FE\03H\89\F0H\C1\E8?H\01\C6H\D1\FEt\15\B8\00\00\00\00H\85\C0t\0B]\BF(\10`\00\FF\E0\0F\1F\00]\C3f\0F\1FD\00\00\80=\D1\0B \00\00u\17UH\89\E5\E8~\FF\FF\FF\C6\05\BF\0B \00\01]\C3\0F\1FD\00\00\F3\C3\0F\1F@\00f.\0F\1F\84\00\00\00\00\00UH\89\E5]\EB\89\90U\C3f\0F\1FD\00\00AWAVI\89\D7AUATL\8D%\9E\09 \00UH\8D-\9E\09 \00SA\89\FDI\89\F6L)\E5H\83\EC\08H\C1\FD\03\E8\C7\FE\FF\FFH\85\EDt 1\DB\0F\1F\84\00\00\00\00\00L\89\FAL\89\F6D\89\EFA\FF\14\DCH\83\C3\01H9\DDu\EAH\83\C4\08[]A\5CA]A^A_\C3\90f.\0F\1F\84\00\00\00\00\00\F3\C3" }>
@seg_400504__fini = internal constant %seg_400504__fini_type <{ [9 x i8] c"H\83\EC\08H\83\C4\08\C3" }>
@seg_400510__rodata = internal constant %seg_400510__rodata_type <{ [4 x i8] c"\01\00\02\00" }>
@seg_400514__eh_frame_hdr = internal constant %seg_400514__eh_frame_hdr_type <{ [52 x i8] c"\01\1B\03;0\00\00\00\05\00\00\00\8C\FE\FF\FFL\00\00\00\BC\FE\FF\FFx\00\00\00t\FF\FF\FF\8C\00\00\00|\FF\FF\FF\A4\00\00\00\EC\FF\FF\FF\EC\00\00\00" }>
@seg_400548__eh_frame = internal constant %seg_400548__eh_frame_type <{ [208 x i8] c"\14\00\00\00\00\00\00\00\01zR\00\01x\10\01\1B\0C\07\08\90\01\07\10\10\00\00\00\1C\00\00\008\FE\FF\FF+\00\00\00\00\00\00\00\14\00\00\00\00\00\00\00\01zR\00\01x\10\01\1B\0C\07\08\90\01\00\00\10\00\00\00\1C\00\00\00<\FE\FF\FF\02\00\00\00\00\00\00\00\14\00\00\000\00\00\00\E0\FE\FF\FF\02\00\00\00\00\00\00\00\00\00\00\00D\00\00\00H\00\00\00\D0\FE\FF\FFe\00\00\00\00B\0E\10\8F\02B\0E\18\8E\03E\0E \8D\04B\0E(\8C\05H\0E0\86\06H\0E8\83\07M\0E@r\0E8A\0E0A\0E(B\0E B\0E\18B\0E\10B\0E\08\00\10\00\00\00\90\00\00\00\F8\FE\FF\FF\02\00\00\00\00\00\00\00\00\00\00\00" }>
@seg_601018__data = internal global %seg_601018__data_type zeroinitializer
@__bss_start = global %__bss_start_type zeroinitializer
@0 = internal global i1 false

; Function Attrs: nounwind readnone
declare i32 @llvm.ctpop.i32(i32) #0

declare %struct.Memory* @__remill_error(%struct.State* dereferenceable(3376), i64, %struct.Memory*)

declare %struct.Memory* @sub_400e00._Z11start_timerv(%struct.State* dereferenceable(3376), i64, %struct.Memory*)

declare %struct.Memory* @sub_4016e0._ZN15loop_inner_bodyILi29EdE7do_workERdPKdi(%struct.State* dereferenceable(3376), i64, %struct.Memory*)

declare %struct.Memory* @sub_4014b0._Z18complete_hash_funcIdET_S0_(%struct.State* dereferenceable(3376), i64, %struct.Memory*)

declare %struct.Memory* @sub_4014e0._Z9check_sumIdEvT_(%struct.State* dereferenceable(3376), i64, %struct.Memory*)

declare %struct.Memory* @sub_400e20._Z5timerv(%struct.State* dereferenceable(3376), i64, %struct.Memory*)

declare %struct.Memory* @sub_4007c0._Z13record_resultdPKc(%struct.State* dereferenceable(3376), i64, %struct.Memory*)

; Function Attrs: alwaysinline
define %struct.Memory* @_Z28test_goto_loop_unroll_factorILi29EdEvPKT0_iPKc(%struct.State* noalias, i64, %struct.Memory* noalias) #1 {
entry:
  %3 = getelementptr inbounds %struct.State, %struct.State* %0, i64 0, i32 6, i32 33, i32 0, i32 0
  store i64 %1, i64* %3, align 8
  %BRANCH_TAKEN = alloca i8, align 1
  store i8 0, i8* %BRANCH_TAKEN, align 1
  %MEMORY = alloca %struct.Memory*, align 8
  store %struct.Memory* %2, %struct.Memory** %MEMORY, align 8
  %loadMem_4024d0 = load %struct.Memory*, %struct.Memory** %MEMORY
  %4 = getelementptr inbounds %struct.State, %struct.State* %0, i32 0, i32 6
  %5 = getelementptr inbounds %struct.GPR, %struct.GPR* %4, i32 0, i32 33
  %6 = getelementptr inbounds %struct.Reg, %struct.Reg* %5, i32 0, i32 0
  %PC.i = bitcast %union.anon* %6 to i64*
  %7 = getelementptr inbounds %struct.State, %struct.State* %0, i32 0, i32 6
  %8 = getelementptr inbounds %struct.GPR, %struct.GPR* %7, i32 0, i32 15
  %9 = getelementptr inbounds %struct.Reg, %struct.Reg* %8, i32 0, i32 0
  %RBP.i = bitcast %union.anon* %9 to i64*
  %10 = load i64, i64* %RBP.i
  %11 = load i64, i64* %PC.i
  %12 = add i64 %11, 1
  store i64 %12, i64* %PC.i
  %13 = getelementptr inbounds %struct.State, %struct.State* %0, i64 0, i32 6, i32 13, i32 0, i32 0
  %14 = load i64, i64* %13, align 8
  %15 = add i64 %14, -8
  %16 = inttoptr i64 %15 to i64*
  store i64 %10, i64* %16
  store i64 %15, i64* %13, align 8
  store %struct.Memory* %loadMem_4024d0, %struct.Memory** %MEMORY
  %loadMem_4024d1 = load %struct.Memory*, %struct.Memory** %MEMORY
  %17 = getelementptr inbounds %struct.State, %struct.State* %0, i32 0, i32 6
  %18 = getelementptr inbounds %struct.GPR, %struct.GPR* %17, i32 0, i32 33
  %19 = getelementptr inbounds %struct.Reg, %struct.Reg* %18, i32 0, i32 0
  %PC.i125 = bitcast %union.anon* %19 to i64*
  %20 = getelementptr inbounds %struct.State, %struct.State* %0, i32 0, i32 6
  %21 = getelementptr inbounds %struct.GPR, %struct.GPR* %20, i32 0, i32 13
  %22 = getelementptr inbounds %struct.Reg, %struct.Reg* %21, i32 0, i32 0
  %RSP.i126 = bitcast %union.anon* %22 to i64*
  %23 = getelementptr inbounds %struct.State, %struct.State* %0, i32 0, i32 6
  %24 = getelementptr inbounds %struct.GPR, %struct.GPR* %23, i32 0, i32 15
  %25 = getelementptr inbounds %struct.Reg, %struct.Reg* %24, i32 0, i32 0
  %RBP.i127 = bitcast %union.anon* %25 to i64*
  %26 = load i64, i64* %RSP.i126
  %27 = load i64, i64* %PC.i125
  %28 = add i64 %27, 3
  store i64 %28, i64* %PC.i125
  store i64 %26, i64* %RBP.i127, align 8
  store %struct.Memory* %loadMem_4024d1, %struct.Memory** %MEMORY
  %loadMem_4024d4 = load %struct.Memory*, %struct.Memory** %MEMORY
  %29 = getelementptr inbounds %struct.State, %struct.State* %0, i32 0, i32 6
  %30 = getelementptr inbounds %struct.GPR, %struct.GPR* %29, i32 0, i32 33
  %31 = getelementptr inbounds %struct.Reg, %struct.Reg* %30, i32 0, i32 0
  %PC.i123 = bitcast %union.anon* %31 to i64*
  %32 = getelementptr inbounds %struct.State, %struct.State* %0, i32 0, i32 6
  %33 = getelementptr inbounds %struct.GPR, %struct.GPR* %32, i32 0, i32 13
  %34 = getelementptr inbounds %struct.Reg, %struct.Reg* %33, i32 0, i32 0
  %RSP.i124 = bitcast %union.anon* %34 to i64*
  %35 = load i64, i64* %RSP.i124
  %36 = load i64, i64* %PC.i123
  %37 = add i64 %36, 4
  store i64 %37, i64* %PC.i123
  %38 = sub i64 %35, 48
  store i64 %38, i64* %RSP.i124, align 8
  %39 = icmp ult i64 %35, 48
  %40 = zext i1 %39 to i8
  %41 = getelementptr inbounds %struct.State, %struct.State* %0, i64 0, i32 2, i32 1
  store i8 %40, i8* %41, align 1
  %42 = trunc i64 %38 to i32
  %43 = and i32 %42, 255
  %44 = call i32 @llvm.ctpop.i32(i32 %43)
  %45 = trunc i32 %44 to i8
  %46 = and i8 %45, 1
  %47 = xor i8 %46, 1
  %48 = getelementptr inbounds %struct.State, %struct.State* %0, i64 0, i32 2, i32 3
  store i8 %47, i8* %48, align 1
  %49 = xor i64 48, %35
  %50 = xor i64 %49, %38
  %51 = lshr i64 %50, 4
  %52 = trunc i64 %51 to i8
  %53 = and i8 %52, 1
  %54 = getelementptr inbounds %struct.State, %struct.State* %0, i64 0, i32 2, i32 5
  store i8 %53, i8* %54, align 1
  %55 = icmp eq i64 %38, 0
  %56 = zext i1 %55 to i8
  %57 = getelementptr inbounds %struct.State, %struct.State* %0, i64 0, i32 2, i32 7
  store i8 %56, i8* %57, align 1
  %58 = lshr i64 %38, 63
  %59 = trunc i64 %58 to i8
  %60 = getelementptr inbounds %struct.State, %struct.State* %0, i64 0, i32 2, i32 9
  store i8 %59, i8* %60, align 1
  %61 = lshr i64 %35, 63
  %62 = xor i64 %58, %61
  %63 = add i64 %62, %61
  %64 = icmp eq i64 %63, 2
  %65 = zext i1 %64 to i8
  %66 = getelementptr inbounds %struct.State, %struct.State* %0, i64 0, i32 2, i32 13
  store i8 %65, i8* %66, align 1
  store %struct.Memory* %loadMem_4024d4, %struct.Memory** %MEMORY
  %loadMem_4024d8 = load %struct.Memory*, %struct.Memory** %MEMORY
  %67 = getelementptr inbounds %struct.State, %struct.State* %0, i32 0, i32 6
  %68 = getelementptr inbounds %struct.GPR, %struct.GPR* %67, i32 0, i32 33
  %69 = getelementptr inbounds %struct.Reg, %struct.Reg* %68, i32 0, i32 0
  %PC.i120 = bitcast %union.anon* %69 to i64*
  %70 = getelementptr inbounds %struct.State, %struct.State* %0, i32 0, i32 6
  %71 = getelementptr inbounds %struct.GPR, %struct.GPR* %70, i32 0, i32 11
  %72 = getelementptr inbounds %struct.Reg, %struct.Reg* %71, i32 0, i32 0
  %RDI.i121 = bitcast %union.anon* %72 to i64*
  %73 = getelementptr inbounds %struct.State, %struct.State* %0, i32 0, i32 6
  %74 = getelementptr inbounds %struct.GPR, %struct.GPR* %73, i32 0, i32 15
  %75 = getelementptr inbounds %struct.Reg, %struct.Reg* %74, i32 0, i32 0
  %RBP.i122 = bitcast %union.anon* %75 to i64*
  %76 = load i64, i64* %RBP.i122
  %77 = sub i64 %76, 8
  %78 = load i64, i64* %RDI.i121
  %79 = load i64, i64* %PC.i120
  %80 = add i64 %79, 4
  store i64 %80, i64* %PC.i120
  %81 = inttoptr i64 %77 to i64*
  store i64 %78, i64* %81
  store %struct.Memory* %loadMem_4024d8, %struct.Memory** %MEMORY
  %loadMem_4024dc = load %struct.Memory*, %struct.Memory** %MEMORY
  %82 = getelementptr inbounds %struct.State, %struct.State* %0, i32 0, i32 6
  %83 = getelementptr inbounds %struct.GPR, %struct.GPR* %82, i32 0, i32 33
  %84 = getelementptr inbounds %struct.Reg, %struct.Reg* %83, i32 0, i32 0
  %PC.i118 = bitcast %union.anon* %84 to i64*
  %85 = getelementptr inbounds %struct.State, %struct.State* %0, i32 0, i32 6
  %86 = getelementptr inbounds %struct.GPR, %struct.GPR* %85, i32 0, i32 9
  %87 = getelementptr inbounds %struct.Reg, %struct.Reg* %86, i32 0, i32 0
  %ESI.i = bitcast %union.anon* %87 to i32*
  %88 = getelementptr inbounds %struct.State, %struct.State* %0, i32 0, i32 6
  %89 = getelementptr inbounds %struct.GPR, %struct.GPR* %88, i32 0, i32 15
  %90 = getelementptr inbounds %struct.Reg, %struct.Reg* %89, i32 0, i32 0
  %RBP.i119 = bitcast %union.anon* %90 to i64*
  %91 = load i64, i64* %RBP.i119
  %92 = sub i64 %91, 12
  %93 = load i32, i32* %ESI.i
  %94 = zext i32 %93 to i64
  %95 = load i64, i64* %PC.i118
  %96 = add i64 %95, 3
  store i64 %96, i64* %PC.i118
  %97 = inttoptr i64 %92 to i32*
  store i32 %93, i32* %97
  store %struct.Memory* %loadMem_4024dc, %struct.Memory** %MEMORY
  %loadMem_4024df = load %struct.Memory*, %struct.Memory** %MEMORY
  %98 = getelementptr inbounds %struct.State, %struct.State* %0, i32 0, i32 6
  %99 = getelementptr inbounds %struct.GPR, %struct.GPR* %98, i32 0, i32 33
  %100 = getelementptr inbounds %struct.Reg, %struct.Reg* %99, i32 0, i32 0
  %PC.i115 = bitcast %union.anon* %100 to i64*
  %101 = getelementptr inbounds %struct.State, %struct.State* %0, i32 0, i32 6
  %102 = getelementptr inbounds %struct.GPR, %struct.GPR* %101, i32 0, i32 7
  %103 = getelementptr inbounds %struct.Reg, %struct.Reg* %102, i32 0, i32 0
  %RDX.i116 = bitcast %union.anon* %103 to i64*
  %104 = getelementptr inbounds %struct.State, %struct.State* %0, i32 0, i32 6
  %105 = getelementptr inbounds %struct.GPR, %struct.GPR* %104, i32 0, i32 15
  %106 = getelementptr inbounds %struct.Reg, %struct.Reg* %105, i32 0, i32 0
  %RBP.i117 = bitcast %union.anon* %106 to i64*
  %107 = load i64, i64* %RBP.i117
  %108 = sub i64 %107, 24
  %109 = load i64, i64* %RDX.i116
  %110 = load i64, i64* %PC.i115
  %111 = add i64 %110, 4
  store i64 %111, i64* %PC.i115
  %112 = inttoptr i64 %108 to i64*
  store i64 %109, i64* %112
  store %struct.Memory* %loadMem_4024df, %struct.Memory** %MEMORY
  %loadMem1_4024e3 = load %struct.Memory*, %struct.Memory** %MEMORY
  %113 = getelementptr inbounds %struct.State, %struct.State* %0, i32 0, i32 6
  %114 = getelementptr inbounds %struct.GPR, %struct.GPR* %113, i32 0, i32 33
  %115 = getelementptr inbounds %struct.Reg, %struct.Reg* %114, i32 0, i32 0
  %PC.i114 = bitcast %union.anon* %115 to i64*
  %116 = load i64, i64* %PC.i114
  %117 = add i64 %116, -5859
  %118 = load i64, i64* %PC.i114
  %119 = add i64 %118, 5
  %120 = load i64, i64* %PC.i114
  %121 = add i64 %120, 5
  store i64 %121, i64* %PC.i114
  %122 = getelementptr inbounds %struct.State, %struct.State* %0, i64 0, i32 6, i32 13, i32 0, i32 0
  %123 = load i64, i64* %122, align 8
  %124 = add i64 %123, -8
  %125 = inttoptr i64 %124 to i64*
  store i64 %119, i64* %125
  store i64 %124, i64* %122, align 8
  %126 = getelementptr inbounds %struct.State, %struct.State* %0, i64 0, i32 6, i32 33, i32 0, i32 0
  store i64 %117, i64* %126, align 8
  store %struct.Memory* %loadMem1_4024e3, %struct.Memory** %MEMORY
  %loadMem2_4024e3 = load %struct.Memory*, %struct.Memory** %MEMORY
  %loadPC_4024e3 = load i64, i64* %3
  %call2_4024e3 = call %struct.Memory* @sub_400e00._Z11start_timerv(%struct.State* %0, i64 %loadPC_4024e3, %struct.Memory* %loadMem2_4024e3)
  store %struct.Memory* %call2_4024e3, %struct.Memory** %MEMORY
  %loadMem_4024e8 = load %struct.Memory*, %struct.Memory** %MEMORY
  %127 = getelementptr inbounds %struct.State, %struct.State* %0, i32 0, i32 6
  %128 = getelementptr inbounds %struct.GPR, %struct.GPR* %127, i32 0, i32 33
  %129 = getelementptr inbounds %struct.Reg, %struct.Reg* %128, i32 0, i32 0
  %PC.i112 = bitcast %union.anon* %129 to i64*
  %130 = getelementptr inbounds %struct.State, %struct.State* %0, i32 0, i32 6
  %131 = getelementptr inbounds %struct.GPR, %struct.GPR* %130, i32 0, i32 15
  %132 = getelementptr inbounds %struct.Reg, %struct.Reg* %131, i32 0, i32 0
  %RBP.i113 = bitcast %union.anon* %132 to i64*
  %133 = load i64, i64* %RBP.i113
  %134 = sub i64 %133, 28
  %135 = load i64, i64* %PC.i112
  %136 = add i64 %135, 7
  store i64 %136, i64* %PC.i112
  %137 = inttoptr i64 %134 to i32*
  store i32 0, i32* %137
  store %struct.Memory* %loadMem_4024e8, %struct.Memory** %MEMORY
  br label %block_.L_4024ef

block_.L_4024ef:                                  ; preds = %block_.L_4025a2, %entry
  %loadMem_4024ef = load %struct.Memory*, %struct.Memory** %MEMORY
  %138 = getelementptr inbounds %struct.State, %struct.State* %0, i32 0, i32 6
  %139 = getelementptr inbounds %struct.GPR, %struct.GPR* %138, i32 0, i32 33
  %140 = getelementptr inbounds %struct.Reg, %struct.Reg* %139, i32 0, i32 0
  %PC.i109 = bitcast %union.anon* %140 to i64*
  %141 = getelementptr inbounds %struct.State, %struct.State* %0, i32 0, i32 6
  %142 = getelementptr inbounds %struct.GPR, %struct.GPR* %141, i32 0, i32 1
  %143 = getelementptr inbounds %struct.Reg, %struct.Reg* %142, i32 0, i32 0
  %RAX.i110 = bitcast %union.anon* %143 to i64*
  %144 = getelementptr inbounds %struct.State, %struct.State* %0, i32 0, i32 6
  %145 = getelementptr inbounds %struct.GPR, %struct.GPR* %144, i32 0, i32 15
  %146 = getelementptr inbounds %struct.Reg, %struct.Reg* %145, i32 0, i32 0
  %RBP.i111 = bitcast %union.anon* %146 to i64*
  %147 = load i64, i64* %RBP.i111
  %148 = sub i64 %147, 28
  %149 = load i64, i64* %PC.i109
  %150 = add i64 %149, 3
  store i64 %150, i64* %PC.i109
  %151 = inttoptr i64 %148 to i32*
  %152 = load i32, i32* %151
  %153 = zext i32 %152 to i64
  store i64 %153, i64* %RAX.i110, align 8
  store %struct.Memory* %loadMem_4024ef, %struct.Memory** %MEMORY
  %loadMem_4024f2 = load %struct.Memory*, %struct.Memory** %MEMORY
  %154 = getelementptr inbounds %struct.State, %struct.State* %0, i32 0, i32 6
  %155 = getelementptr inbounds %struct.GPR, %struct.GPR* %154, i32 0, i32 33
  %156 = getelementptr inbounds %struct.Reg, %struct.Reg* %155, i32 0, i32 0
  %PC.i107 = bitcast %union.anon* %156 to i64*
  %157 = getelementptr inbounds %struct.State, %struct.State* %0, i32 0, i32 6
  %158 = getelementptr inbounds %struct.GPR, %struct.GPR* %157, i32 0, i32 1
  %159 = getelementptr inbounds %struct.Reg, %struct.Reg* %158, i32 0, i32 0
  %EAX.i108 = bitcast %union.anon* %159 to i32*
  %160 = load i32, i32* %EAX.i108
  %161 = zext i32 %160 to i64
  %162 = load i64, i64* %PC.i107
  %163 = add i64 %162, 7
  store i64 %163, i64* %PC.i107
  %164 = load i32, i32* inttoptr (i64 6406264 to i32*)
  %165 = sub i32 %160, %164
  %166 = icmp ult i32 %160, %164
  %167 = zext i1 %166 to i8
  %168 = getelementptr inbounds %struct.State, %struct.State* %0, i64 0, i32 2, i32 1
  store i8 %167, i8* %168, align 1
  %169 = and i32 %165, 255
  %170 = call i32 @llvm.ctpop.i32(i32 %169)
  %171 = trunc i32 %170 to i8
  %172 = and i8 %171, 1
  %173 = xor i8 %172, 1
  %174 = getelementptr inbounds %struct.State, %struct.State* %0, i64 0, i32 2, i32 3
  store i8 %173, i8* %174, align 1
  %175 = xor i32 %164, %160
  %176 = xor i32 %175, %165
  %177 = lshr i32 %176, 4
  %178 = trunc i32 %177 to i8
  %179 = and i8 %178, 1
  %180 = getelementptr inbounds %struct.State, %struct.State* %0, i64 0, i32 2, i32 5
  store i8 %179, i8* %180, align 1
  %181 = icmp eq i32 %165, 0
  %182 = zext i1 %181 to i8
  %183 = getelementptr inbounds %struct.State, %struct.State* %0, i64 0, i32 2, i32 7
  store i8 %182, i8* %183, align 1
  %184 = lshr i32 %165, 31
  %185 = trunc i32 %184 to i8
  %186 = getelementptr inbounds %struct.State, %struct.State* %0, i64 0, i32 2, i32 9
  store i8 %185, i8* %186, align 1
  %187 = lshr i32 %160, 31
  %188 = lshr i32 %164, 31
  %189 = xor i32 %188, %187
  %190 = xor i32 %184, %187
  %191 = add i32 %190, %189
  %192 = icmp eq i32 %191, 2
  %193 = zext i1 %192 to i8
  %194 = getelementptr inbounds %struct.State, %struct.State* %0, i64 0, i32 2, i32 13
  store i8 %193, i8* %194, align 1
  store %struct.Memory* %loadMem_4024f2, %struct.Memory** %MEMORY
  %loadMem_4024f9 = load %struct.Memory*, %struct.Memory** %MEMORY
  %195 = getelementptr inbounds %struct.State, %struct.State* %0, i32 0, i32 6
  %196 = getelementptr inbounds %struct.GPR, %struct.GPR* %195, i32 0, i32 33
  %197 = getelementptr inbounds %struct.Reg, %struct.Reg* %196, i32 0, i32 0
  %PC.i106 = bitcast %union.anon* %197 to i64*
  %198 = load i64, i64* %PC.i106
  %199 = add i64 %198, 193
  %200 = load i64, i64* %PC.i106
  %201 = add i64 %200, 6
  %202 = load i64, i64* %PC.i106
  %203 = add i64 %202, 6
  store i64 %203, i64* %PC.i106
  %204 = getelementptr inbounds %struct.State, %struct.State* %0, i64 0, i32 2, i32 9
  %205 = load i8, i8* %204, align 1
  %206 = icmp ne i8 %205, 0
  %207 = getelementptr inbounds %struct.State, %struct.State* %0, i64 0, i32 2, i32 13
  %208 = load i8, i8* %207, align 1
  %209 = icmp ne i8 %208, 0
  %210 = xor i1 %206, %209
  %211 = xor i1 %210, true
  %212 = zext i1 %211 to i8
  store i8 %212, i8* %BRANCH_TAKEN, align 1
  %213 = getelementptr inbounds %struct.State, %struct.State* %0, i64 0, i32 6, i32 33, i32 0, i32 0
  %214 = select i1 %210, i64 %201, i64 %199
  store i64 %214, i64* %213, align 8
  store %struct.Memory* %loadMem_4024f9, %struct.Memory** %MEMORY
  %loadBr_4024f9 = load i8, i8* %BRANCH_TAKEN
  %cmpBr_4024f9 = icmp eq i8 %loadBr_4024f9, 1
  br i1 %cmpBr_4024f9, label %block_.L_4025ba, label %block_4024ff

block_4024ff:                                     ; preds = %block_.L_4024ef
  %loadMem_4024ff = load %struct.Memory*, %struct.Memory** %MEMORY
  %215 = getelementptr inbounds %struct.State, %struct.State* %0, i32 0, i32 6
  %216 = getelementptr inbounds %struct.GPR, %struct.GPR* %215, i32 0, i32 33
  %217 = getelementptr inbounds %struct.Reg, %struct.Reg* %216, i32 0, i32 0
  %PC.i103 = bitcast %union.anon* %217 to i64*
  %218 = getelementptr inbounds %struct.State, %struct.State* %0, i32 0, i32 1
  %219 = getelementptr inbounds [32 x %union.VectorReg], [32 x %union.VectorReg]* %218, i64 0, i64 0
  %YMM0.i104 = bitcast %union.VectorReg* %219 to %"class.std::bitset"*
  %220 = getelementptr inbounds %struct.State, %struct.State* %0, i32 0, i32 1
  %221 = getelementptr inbounds [32 x %union.VectorReg], [32 x %union.VectorReg]* %220, i64 0, i64 0
  %XMM0.i105 = bitcast %union.VectorReg* %221 to %union.vec128_t*
  %222 = bitcast %"class.std::bitset"* %YMM0.i104 to i8*
  %223 = bitcast %"class.std::bitset"* %YMM0.i104 to i8*
  %224 = bitcast %union.vec128_t* %XMM0.i105 to i8*
  %225 = load i64, i64* %PC.i103
  %226 = add i64 %225, 3
  store i64 %226, i64* %PC.i103
  %227 = bitcast i8* %223 to i64*
  %228 = load i64, i64* %227, align 1
  %229 = getelementptr inbounds i8, i8* %223, i64 8
  %230 = bitcast i8* %229 to i64*
  %231 = load i64, i64* %230, align 1
  %232 = bitcast i8* %224 to i64*
  %233 = load i64, i64* %232, align 1
  %234 = getelementptr inbounds i8, i8* %224, i64 8
  %235 = bitcast i8* %234 to i64*
  %236 = load i64, i64* %235, align 1
  %237 = xor i64 %233, %228
  %238 = xor i64 %236, %231
  %239 = trunc i64 %237 to i32
  %240 = lshr i64 %237, 32
  %241 = trunc i64 %240 to i32
  %242 = bitcast i8* %222 to i32*
  store i32 %239, i32* %242, align 1
  %243 = getelementptr inbounds i8, i8* %222, i64 4
  %244 = bitcast i8* %243 to i32*
  store i32 %241, i32* %244, align 1
  %245 = trunc i64 %238 to i32
  %246 = getelementptr inbounds i8, i8* %222, i64 8
  %247 = bitcast i8* %246 to i32*
  store i32 %245, i32* %247, align 1
  %248 = lshr i64 %238, 32
  %249 = trunc i64 %248 to i32
  %250 = getelementptr inbounds i8, i8* %222, i64 12
  %251 = bitcast i8* %250 to i32*
  store i32 %249, i32* %251, align 1
  store %struct.Memory* %loadMem_4024ff, %struct.Memory** %MEMORY
  %loadMem_402502 = load %struct.Memory*, %struct.Memory** %MEMORY
  %252 = getelementptr inbounds %struct.State, %struct.State* %0, i32 0, i32 6
  %253 = getelementptr inbounds %struct.GPR, %struct.GPR* %252, i32 0, i32 33
  %254 = getelementptr inbounds %struct.Reg, %struct.Reg* %253, i32 0, i32 0
  %PC.i100 = bitcast %union.anon* %254 to i64*
  %255 = getelementptr inbounds %struct.State, %struct.State* %0, i32 0, i32 6
  %256 = getelementptr inbounds %struct.GPR, %struct.GPR* %255, i32 0, i32 15
  %257 = getelementptr inbounds %struct.Reg, %struct.Reg* %256, i32 0, i32 0
  %RBP.i101 = bitcast %union.anon* %257 to i64*
  %258 = getelementptr inbounds %struct.State, %struct.State* %0, i32 0, i32 1
  %259 = getelementptr inbounds [32 x %union.VectorReg], [32 x %union.VectorReg]* %258, i64 0, i64 0
  %XMM0.i102 = bitcast %union.VectorReg* %259 to %union.vec128_t*
  %260 = load i64, i64* %RBP.i101
  %261 = sub i64 %260, 40
  %262 = bitcast %union.vec128_t* %XMM0.i102 to i8*
  %263 = load i64, i64* %PC.i100
  %264 = add i64 %263, 5
  store i64 %264, i64* %PC.i100
  %265 = bitcast i8* %262 to double*
  %266 = load double, double* %265, align 1
  %267 = inttoptr i64 %261 to double*
  store double %266, double* %267
  store %struct.Memory* %loadMem_402502, %struct.Memory** %MEMORY
  %loadMem_402507 = load %struct.Memory*, %struct.Memory** %MEMORY
  %268 = getelementptr inbounds %struct.State, %struct.State* %0, i32 0, i32 6
  %269 = getelementptr inbounds %struct.GPR, %struct.GPR* %268, i32 0, i32 33
  %270 = getelementptr inbounds %struct.Reg, %struct.Reg* %269, i32 0, i32 0
  %PC.i98 = bitcast %union.anon* %270 to i64*
  %271 = getelementptr inbounds %struct.State, %struct.State* %0, i32 0, i32 6
  %272 = getelementptr inbounds %struct.GPR, %struct.GPR* %271, i32 0, i32 15
  %273 = getelementptr inbounds %struct.Reg, %struct.Reg* %272, i32 0, i32 0
  %RBP.i99 = bitcast %union.anon* %273 to i64*
  %274 = load i64, i64* %RBP.i99
  %275 = sub i64 %274, 44
  %276 = load i64, i64* %PC.i98
  %277 = add i64 %276, 7
  store i64 %277, i64* %PC.i98
  %278 = inttoptr i64 %275 to i32*
  store i32 0, i32* %278
  store %struct.Memory* %loadMem_402507, %struct.Memory** %MEMORY
  %loadMem_40250e = load %struct.Memory*, %struct.Memory** %MEMORY
  %279 = getelementptr inbounds %struct.State, %struct.State* %0, i32 0, i32 6
  %280 = getelementptr inbounds %struct.GPR, %struct.GPR* %279, i32 0, i32 33
  %281 = getelementptr inbounds %struct.Reg, %struct.Reg* %280, i32 0, i32 0
  %PC.i95 = bitcast %union.anon* %281 to i64*
  %282 = getelementptr inbounds %struct.State, %struct.State* %0, i32 0, i32 6
  %283 = getelementptr inbounds %struct.GPR, %struct.GPR* %282, i32 0, i32 1
  %284 = getelementptr inbounds %struct.Reg, %struct.Reg* %283, i32 0, i32 0
  %RAX.i96 = bitcast %union.anon* %284 to i64*
  %285 = getelementptr inbounds %struct.State, %struct.State* %0, i32 0, i32 6
  %286 = getelementptr inbounds %struct.GPR, %struct.GPR* %285, i32 0, i32 15
  %287 = getelementptr inbounds %struct.Reg, %struct.Reg* %286, i32 0, i32 0
  %RBP.i97 = bitcast %union.anon* %287 to i64*
  %288 = load i64, i64* %RBP.i97
  %289 = sub i64 %288, 12
  %290 = load i64, i64* %PC.i95
  %291 = add i64 %290, 3
  store i64 %291, i64* %PC.i95
  %292 = inttoptr i64 %289 to i32*
  %293 = load i32, i32* %292
  %294 = zext i32 %293 to i64
  store i64 %294, i64* %RAX.i96, align 8
  store %struct.Memory* %loadMem_40250e, %struct.Memory** %MEMORY
  %loadMem_402511 = load %struct.Memory*, %struct.Memory** %MEMORY
  %295 = getelementptr inbounds %struct.State, %struct.State* %0, i32 0, i32 6
  %296 = getelementptr inbounds %struct.GPR, %struct.GPR* %295, i32 0, i32 33
  %297 = getelementptr inbounds %struct.Reg, %struct.Reg* %296, i32 0, i32 0
  %PC.i92 = bitcast %union.anon* %297 to i64*
  %298 = getelementptr inbounds %struct.State, %struct.State* %0, i32 0, i32 6
  %299 = getelementptr inbounds %struct.GPR, %struct.GPR* %298, i32 0, i32 1
  %300 = getelementptr inbounds %struct.Reg, %struct.Reg* %299, i32 0, i32 0
  %RAX.i93 = bitcast %union.anon* %300 to i64*
  %301 = getelementptr inbounds %struct.State, %struct.State* %0, i32 0, i32 6
  %302 = getelementptr inbounds %struct.GPR, %struct.GPR* %301, i32 0, i32 15
  %303 = getelementptr inbounds %struct.Reg, %struct.Reg* %302, i32 0, i32 0
  %RBP.i94 = bitcast %union.anon* %303 to i64*
  %304 = load i64, i64* %RAX.i93
  %305 = load i64, i64* %RBP.i94
  %306 = sub i64 %305, 44
  %307 = load i64, i64* %PC.i92
  %308 = add i64 %307, 3
  store i64 %308, i64* %PC.i92
  %309 = trunc i64 %304 to i32
  %310 = inttoptr i64 %306 to i32*
  %311 = load i32, i32* %310
  %312 = sub i32 %309, %311
  %313 = zext i32 %312 to i64
  store i64 %313, i64* %RAX.i93, align 8
  %314 = icmp ult i32 %309, %311
  %315 = zext i1 %314 to i8
  %316 = getelementptr inbounds %struct.State, %struct.State* %0, i64 0, i32 2, i32 1
  store i8 %315, i8* %316, align 1
  %317 = and i32 %312, 255
  %318 = call i32 @llvm.ctpop.i32(i32 %317)
  %319 = trunc i32 %318 to i8
  %320 = and i8 %319, 1
  %321 = xor i8 %320, 1
  %322 = getelementptr inbounds %struct.State, %struct.State* %0, i64 0, i32 2, i32 3
  store i8 %321, i8* %322, align 1
  %323 = xor i32 %311, %309
  %324 = xor i32 %323, %312
  %325 = lshr i32 %324, 4
  %326 = trunc i32 %325 to i8
  %327 = and i8 %326, 1
  %328 = getelementptr inbounds %struct.State, %struct.State* %0, i64 0, i32 2, i32 5
  store i8 %327, i8* %328, align 1
  %329 = icmp eq i32 %312, 0
  %330 = zext i1 %329 to i8
  %331 = getelementptr inbounds %struct.State, %struct.State* %0, i64 0, i32 2, i32 7
  store i8 %330, i8* %331, align 1
  %332 = lshr i32 %312, 31
  %333 = trunc i32 %332 to i8
  %334 = getelementptr inbounds %struct.State, %struct.State* %0, i64 0, i32 2, i32 9
  store i8 %333, i8* %334, align 1
  %335 = lshr i32 %309, 31
  %336 = lshr i32 %311, 31
  %337 = xor i32 %336, %335
  %338 = xor i32 %332, %335
  %339 = add i32 %338, %337
  %340 = icmp eq i32 %339, 2
  %341 = zext i1 %340 to i8
  %342 = getelementptr inbounds %struct.State, %struct.State* %0, i64 0, i32 2, i32 13
  store i8 %341, i8* %342, align 1
  store %struct.Memory* %loadMem_402511, %struct.Memory** %MEMORY
  %loadMem_402514 = load %struct.Memory*, %struct.Memory** %MEMORY
  %343 = getelementptr inbounds %struct.State, %struct.State* %0, i32 0, i32 6
  %344 = getelementptr inbounds %struct.GPR, %struct.GPR* %343, i32 0, i32 33
  %345 = getelementptr inbounds %struct.Reg, %struct.Reg* %344, i32 0, i32 0
  %PC.i90 = bitcast %union.anon* %345 to i64*
  %346 = getelementptr inbounds %struct.State, %struct.State* %0, i32 0, i32 6
  %347 = getelementptr inbounds %struct.GPR, %struct.GPR* %346, i32 0, i32 1
  %348 = getelementptr inbounds %struct.Reg, %struct.Reg* %347, i32 0, i32 0
  %EAX.i91 = bitcast %union.anon* %348 to i32*
  %349 = load i32, i32* %EAX.i91
  %350 = zext i32 %349 to i64
  %351 = load i64, i64* %PC.i90
  %352 = add i64 %351, 3
  store i64 %352, i64* %PC.i90
  %353 = sub i32 %349, 29
  %354 = icmp ult i32 %349, 29
  %355 = zext i1 %354 to i8
  %356 = getelementptr inbounds %struct.State, %struct.State* %0, i64 0, i32 2, i32 1
  store i8 %355, i8* %356, align 1
  %357 = and i32 %353, 255
  %358 = call i32 @llvm.ctpop.i32(i32 %357)
  %359 = trunc i32 %358 to i8
  %360 = and i8 %359, 1
  %361 = xor i8 %360, 1
  %362 = getelementptr inbounds %struct.State, %struct.State* %0, i64 0, i32 2, i32 3
  store i8 %361, i8* %362, align 1
  %363 = xor i64 29, %350
  %364 = trunc i64 %363 to i32
  %365 = xor i32 %364, %353
  %366 = lshr i32 %365, 4
  %367 = trunc i32 %366 to i8
  %368 = and i8 %367, 1
  %369 = getelementptr inbounds %struct.State, %struct.State* %0, i64 0, i32 2, i32 5
  store i8 %368, i8* %369, align 1
  %370 = icmp eq i32 %353, 0
  %371 = zext i1 %370 to i8
  %372 = getelementptr inbounds %struct.State, %struct.State* %0, i64 0, i32 2, i32 7
  store i8 %371, i8* %372, align 1
  %373 = lshr i32 %353, 31
  %374 = trunc i32 %373 to i8
  %375 = getelementptr inbounds %struct.State, %struct.State* %0, i64 0, i32 2, i32 9
  store i8 %374, i8* %375, align 1
  %376 = lshr i32 %349, 31
  %377 = xor i32 %373, %376
  %378 = add i32 %377, %376
  %379 = icmp eq i32 %378, 2
  %380 = zext i1 %379 to i8
  %381 = getelementptr inbounds %struct.State, %struct.State* %0, i64 0, i32 2, i32 13
  store i8 %380, i8* %381, align 1
  store %struct.Memory* %loadMem_402514, %struct.Memory** %MEMORY
  %loadMem_402517 = load %struct.Memory*, %struct.Memory** %MEMORY
  %382 = getelementptr inbounds %struct.State, %struct.State* %0, i32 0, i32 6
  %383 = getelementptr inbounds %struct.GPR, %struct.GPR* %382, i32 0, i32 33
  %384 = getelementptr inbounds %struct.Reg, %struct.Reg* %383, i32 0, i32 0
  %PC.i89 = bitcast %union.anon* %384 to i64*
  %385 = load i64, i64* %PC.i89
  %386 = add i64 %385, 63
  %387 = load i64, i64* %PC.i89
  %388 = add i64 %387, 6
  %389 = load i64, i64* %PC.i89
  %390 = add i64 %389, 6
  store i64 %390, i64* %PC.i89
  %391 = getelementptr inbounds %struct.State, %struct.State* %0, i64 0, i32 2, i32 9
  %392 = load i8, i8* %391, align 1
  %393 = icmp ne i8 %392, 0
  %394 = getelementptr inbounds %struct.State, %struct.State* %0, i64 0, i32 2, i32 13
  %395 = load i8, i8* %394, align 1
  %396 = icmp ne i8 %395, 0
  %397 = xor i1 %393, %396
  %398 = zext i1 %397 to i8
  store i8 %398, i8* %BRANCH_TAKEN, align 1
  %399 = getelementptr inbounds %struct.State, %struct.State* %0, i64 0, i32 6, i32 33, i32 0, i32 0
  %400 = select i1 %397, i64 %386, i64 %388
  store i64 %400, i64* %399, align 8
  store %struct.Memory* %loadMem_402517, %struct.Memory** %MEMORY
  %loadBr_402517 = load i8, i8* %BRANCH_TAKEN
  %cmpBr_402517 = icmp eq i8 %loadBr_402517, 1
  br i1 %cmpBr_402517, label %block_.L_402556, label %block_40251d

block_40251d:                                     ; preds = %block_4024ff
  %loadMem_40251d = load %struct.Memory*, %struct.Memory** %MEMORY
  %401 = getelementptr inbounds %struct.State, %struct.State* %0, i32 0, i32 6
  %402 = getelementptr inbounds %struct.GPR, %struct.GPR* %401, i32 0, i32 33
  %403 = getelementptr inbounds %struct.Reg, %struct.Reg* %402, i32 0, i32 0
  %PC.i88 = bitcast %union.anon* %403 to i64*
  %404 = load i64, i64* %PC.i88
  %405 = add i64 %404, 5
  %406 = load i64, i64* %PC.i88
  %407 = add i64 %406, 5
  store i64 %407, i64* %PC.i88
  %408 = getelementptr inbounds %struct.State, %struct.State* %0, i64 0, i32 6, i32 33, i32 0, i32 0
  store i64 %405, i64* %408, align 8
  store %struct.Memory* %loadMem_40251d, %struct.Memory** %MEMORY
  br label %block_.L_402522

block_.L_402522:                                  ; preds = %block_40254c, %block_40251d
  %loadMem_402522 = load %struct.Memory*, %struct.Memory** %MEMORY
  %409 = getelementptr inbounds %struct.State, %struct.State* %0, i32 0, i32 6
  %410 = getelementptr inbounds %struct.GPR, %struct.GPR* %409, i32 0, i32 33
  %411 = getelementptr inbounds %struct.Reg, %struct.Reg* %410, i32 0, i32 0
  %PC.i85 = bitcast %union.anon* %411 to i64*
  %412 = getelementptr inbounds %struct.State, %struct.State* %0, i32 0, i32 6
  %413 = getelementptr inbounds %struct.GPR, %struct.GPR* %412, i32 0, i32 11
  %414 = getelementptr inbounds %struct.Reg, %struct.Reg* %413, i32 0, i32 0
  %RDI.i86 = bitcast %union.anon* %414 to i64*
  %415 = getelementptr inbounds %struct.State, %struct.State* %0, i32 0, i32 6
  %416 = getelementptr inbounds %struct.GPR, %struct.GPR* %415, i32 0, i32 15
  %417 = getelementptr inbounds %struct.Reg, %struct.Reg* %416, i32 0, i32 0
  %RBP.i87 = bitcast %union.anon* %417 to i64*
  %418 = load i64, i64* %RBP.i87
  %419 = sub i64 %418, 40
  %420 = load i64, i64* %PC.i85
  %421 = add i64 %420, 4
  store i64 %421, i64* %PC.i85
  store i64 %419, i64* %RDI.i86, align 8
  store %struct.Memory* %loadMem_402522, %struct.Memory** %MEMORY
  %loadMem_402526 = load %struct.Memory*, %struct.Memory** %MEMORY
  %422 = getelementptr inbounds %struct.State, %struct.State* %0, i32 0, i32 6
  %423 = getelementptr inbounds %struct.GPR, %struct.GPR* %422, i32 0, i32 33
  %424 = getelementptr inbounds %struct.Reg, %struct.Reg* %423, i32 0, i32 0
  %PC.i83 = bitcast %union.anon* %424 to i64*
  %425 = getelementptr inbounds %struct.State, %struct.State* %0, i32 0, i32 6
  %426 = getelementptr inbounds %struct.GPR, %struct.GPR* %425, i32 0, i32 9
  %427 = getelementptr inbounds %struct.Reg, %struct.Reg* %426, i32 0, i32 0
  %RSI.i = bitcast %union.anon* %427 to i64*
  %428 = getelementptr inbounds %struct.State, %struct.State* %0, i32 0, i32 6
  %429 = getelementptr inbounds %struct.GPR, %struct.GPR* %428, i32 0, i32 15
  %430 = getelementptr inbounds %struct.Reg, %struct.Reg* %429, i32 0, i32 0
  %RBP.i84 = bitcast %union.anon* %430 to i64*
  %431 = load i64, i64* %RBP.i84
  %432 = sub i64 %431, 8
  %433 = load i64, i64* %PC.i83
  %434 = add i64 %433, 4
  store i64 %434, i64* %PC.i83
  %435 = inttoptr i64 %432 to i64*
  %436 = load i64, i64* %435
  store i64 %436, i64* %RSI.i, align 8
  store %struct.Memory* %loadMem_402526, %struct.Memory** %MEMORY
  %loadMem_40252a = load %struct.Memory*, %struct.Memory** %MEMORY
  %437 = getelementptr inbounds %struct.State, %struct.State* %0, i32 0, i32 6
  %438 = getelementptr inbounds %struct.GPR, %struct.GPR* %437, i32 0, i32 33
  %439 = getelementptr inbounds %struct.Reg, %struct.Reg* %438, i32 0, i32 0
  %PC.i80 = bitcast %union.anon* %439 to i64*
  %440 = getelementptr inbounds %struct.State, %struct.State* %0, i32 0, i32 6
  %441 = getelementptr inbounds %struct.GPR, %struct.GPR* %440, i32 0, i32 7
  %442 = getelementptr inbounds %struct.Reg, %struct.Reg* %441, i32 0, i32 0
  %RDX.i81 = bitcast %union.anon* %442 to i64*
  %443 = getelementptr inbounds %struct.State, %struct.State* %0, i32 0, i32 6
  %444 = getelementptr inbounds %struct.GPR, %struct.GPR* %443, i32 0, i32 15
  %445 = getelementptr inbounds %struct.Reg, %struct.Reg* %444, i32 0, i32 0
  %RBP.i82 = bitcast %union.anon* %445 to i64*
  %446 = load i64, i64* %RBP.i82
  %447 = sub i64 %446, 44
  %448 = load i64, i64* %PC.i80
  %449 = add i64 %448, 3
  store i64 %449, i64* %PC.i80
  %450 = inttoptr i64 %447 to i32*
  %451 = load i32, i32* %450
  %452 = zext i32 %451 to i64
  store i64 %452, i64* %RDX.i81, align 8
  store %struct.Memory* %loadMem_40252a, %struct.Memory** %MEMORY
  %loadMem1_40252d = load %struct.Memory*, %struct.Memory** %MEMORY
  %453 = getelementptr inbounds %struct.State, %struct.State* %0, i32 0, i32 6
  %454 = getelementptr inbounds %struct.GPR, %struct.GPR* %453, i32 0, i32 33
  %455 = getelementptr inbounds %struct.Reg, %struct.Reg* %454, i32 0, i32 0
  %PC.i79 = bitcast %union.anon* %455 to i64*
  %456 = load i64, i64* %PC.i79
  %457 = add i64 %456, -3661
  %458 = load i64, i64* %PC.i79
  %459 = add i64 %458, 5
  %460 = load i64, i64* %PC.i79
  %461 = add i64 %460, 5
  store i64 %461, i64* %PC.i79
  %462 = getelementptr inbounds %struct.State, %struct.State* %0, i64 0, i32 6, i32 13, i32 0, i32 0
  %463 = load i64, i64* %462, align 8
  %464 = add i64 %463, -8
  %465 = inttoptr i64 %464 to i64*
  store i64 %459, i64* %465
  store i64 %464, i64* %462, align 8
  %466 = getelementptr inbounds %struct.State, %struct.State* %0, i64 0, i32 6, i32 33, i32 0, i32 0
  store i64 %457, i64* %466, align 8
  store %struct.Memory* %loadMem1_40252d, %struct.Memory** %MEMORY
  %loadMem2_40252d = load %struct.Memory*, %struct.Memory** %MEMORY
  %loadPC_40252d = load i64, i64* %3
  %call2_40252d = call %struct.Memory* @sub_4016e0._ZN15loop_inner_bodyILi29EdE7do_workERdPKdi(%struct.State* %0, i64 %loadPC_40252d, %struct.Memory* %loadMem2_40252d)
  store %struct.Memory* %call2_40252d, %struct.Memory** %MEMORY
  %loadMem_402532 = load %struct.Memory*, %struct.Memory** %MEMORY
  %467 = getelementptr inbounds %struct.State, %struct.State* %0, i32 0, i32 6
  %468 = getelementptr inbounds %struct.GPR, %struct.GPR* %467, i32 0, i32 33
  %469 = getelementptr inbounds %struct.Reg, %struct.Reg* %468, i32 0, i32 0
  %PC.i76 = bitcast %union.anon* %469 to i64*
  %470 = getelementptr inbounds %struct.State, %struct.State* %0, i32 0, i32 6
  %471 = getelementptr inbounds %struct.GPR, %struct.GPR* %470, i32 0, i32 7
  %472 = getelementptr inbounds %struct.Reg, %struct.Reg* %471, i32 0, i32 0
  %RDX.i77 = bitcast %union.anon* %472 to i64*
  %473 = getelementptr inbounds %struct.State, %struct.State* %0, i32 0, i32 6
  %474 = getelementptr inbounds %struct.GPR, %struct.GPR* %473, i32 0, i32 15
  %475 = getelementptr inbounds %struct.Reg, %struct.Reg* %474, i32 0, i32 0
  %RBP.i78 = bitcast %union.anon* %475 to i64*
  %476 = load i64, i64* %RBP.i78
  %477 = sub i64 %476, 44
  %478 = load i64, i64* %PC.i76
  %479 = add i64 %478, 3
  store i64 %479, i64* %PC.i76
  %480 = inttoptr i64 %477 to i32*
  %481 = load i32, i32* %480
  %482 = zext i32 %481 to i64
  store i64 %482, i64* %RDX.i77, align 8
  store %struct.Memory* %loadMem_402532, %struct.Memory** %MEMORY
  %loadMem_402535 = load %struct.Memory*, %struct.Memory** %MEMORY
  %483 = getelementptr inbounds %struct.State, %struct.State* %0, i32 0, i32 6
  %484 = getelementptr inbounds %struct.GPR, %struct.GPR* %483, i32 0, i32 33
  %485 = getelementptr inbounds %struct.Reg, %struct.Reg* %484, i32 0, i32 0
  %PC.i74 = bitcast %union.anon* %485 to i64*
  %486 = getelementptr inbounds %struct.State, %struct.State* %0, i32 0, i32 6
  %487 = getelementptr inbounds %struct.GPR, %struct.GPR* %486, i32 0, i32 7
  %488 = getelementptr inbounds %struct.Reg, %struct.Reg* %487, i32 0, i32 0
  %RDX.i75 = bitcast %union.anon* %488 to i64*
  %489 = load i64, i64* %RDX.i75
  %490 = load i64, i64* %PC.i74
  %491 = add i64 %490, 3
  store i64 %491, i64* %PC.i74
  %492 = trunc i64 %489 to i32
  %493 = add i32 29, %492
  %494 = zext i32 %493 to i64
  store i64 %494, i64* %RDX.i75, align 8
  %495 = icmp ult i32 %493, %492
  %496 = icmp ult i32 %493, 29
  %497 = or i1 %495, %496
  %498 = zext i1 %497 to i8
  %499 = getelementptr inbounds %struct.State, %struct.State* %0, i64 0, i32 2, i32 1
  store i8 %498, i8* %499, align 1
  %500 = and i32 %493, 255
  %501 = call i32 @llvm.ctpop.i32(i32 %500)
  %502 = trunc i32 %501 to i8
  %503 = and i8 %502, 1
  %504 = xor i8 %503, 1
  %505 = getelementptr inbounds %struct.State, %struct.State* %0, i64 0, i32 2, i32 3
  store i8 %504, i8* %505, align 1
  %506 = xor i64 29, %489
  %507 = trunc i64 %506 to i32
  %508 = xor i32 %507, %493
  %509 = lshr i32 %508, 4
  %510 = trunc i32 %509 to i8
  %511 = and i8 %510, 1
  %512 = getelementptr inbounds %struct.State, %struct.State* %0, i64 0, i32 2, i32 5
  store i8 %511, i8* %512, align 1
  %513 = icmp eq i32 %493, 0
  %514 = zext i1 %513 to i8
  %515 = getelementptr inbounds %struct.State, %struct.State* %0, i64 0, i32 2, i32 7
  store i8 %514, i8* %515, align 1
  %516 = lshr i32 %493, 31
  %517 = trunc i32 %516 to i8
  %518 = getelementptr inbounds %struct.State, %struct.State* %0, i64 0, i32 2, i32 9
  store i8 %517, i8* %518, align 1
  %519 = lshr i32 %492, 31
  %520 = xor i32 %516, %519
  %521 = add i32 %520, %516
  %522 = icmp eq i32 %521, 2
  %523 = zext i1 %522 to i8
  %524 = getelementptr inbounds %struct.State, %struct.State* %0, i64 0, i32 2, i32 13
  store i8 %523, i8* %524, align 1
  store %struct.Memory* %loadMem_402535, %struct.Memory** %MEMORY
  %loadMem_402538 = load %struct.Memory*, %struct.Memory** %MEMORY
  %525 = getelementptr inbounds %struct.State, %struct.State* %0, i32 0, i32 6
  %526 = getelementptr inbounds %struct.GPR, %struct.GPR* %525, i32 0, i32 33
  %527 = getelementptr inbounds %struct.Reg, %struct.Reg* %526, i32 0, i32 0
  %PC.i71 = bitcast %union.anon* %527 to i64*
  %528 = getelementptr inbounds %struct.State, %struct.State* %0, i32 0, i32 6
  %529 = getelementptr inbounds %struct.GPR, %struct.GPR* %528, i32 0, i32 7
  %530 = getelementptr inbounds %struct.Reg, %struct.Reg* %529, i32 0, i32 0
  %EDX.i72 = bitcast %union.anon* %530 to i32*
  %531 = getelementptr inbounds %struct.State, %struct.State* %0, i32 0, i32 6
  %532 = getelementptr inbounds %struct.GPR, %struct.GPR* %531, i32 0, i32 15
  %533 = getelementptr inbounds %struct.Reg, %struct.Reg* %532, i32 0, i32 0
  %RBP.i73 = bitcast %union.anon* %533 to i64*
  %534 = load i64, i64* %RBP.i73
  %535 = sub i64 %534, 44
  %536 = load i32, i32* %EDX.i72
  %537 = zext i32 %536 to i64
  %538 = load i64, i64* %PC.i71
  %539 = add i64 %538, 3
  store i64 %539, i64* %PC.i71
  %540 = inttoptr i64 %535 to i32*
  store i32 %536, i32* %540
  store %struct.Memory* %loadMem_402538, %struct.Memory** %MEMORY
  %loadMem_40253b = load %struct.Memory*, %struct.Memory** %MEMORY
  %541 = getelementptr inbounds %struct.State, %struct.State* %0, i32 0, i32 6
  %542 = getelementptr inbounds %struct.GPR, %struct.GPR* %541, i32 0, i32 33
  %543 = getelementptr inbounds %struct.Reg, %struct.Reg* %542, i32 0, i32 0
  %PC.i68 = bitcast %union.anon* %543 to i64*
  %544 = getelementptr inbounds %struct.State, %struct.State* %0, i32 0, i32 6
  %545 = getelementptr inbounds %struct.GPR, %struct.GPR* %544, i32 0, i32 7
  %546 = getelementptr inbounds %struct.Reg, %struct.Reg* %545, i32 0, i32 0
  %RDX.i69 = bitcast %union.anon* %546 to i64*
  %547 = getelementptr inbounds %struct.State, %struct.State* %0, i32 0, i32 6
  %548 = getelementptr inbounds %struct.GPR, %struct.GPR* %547, i32 0, i32 15
  %549 = getelementptr inbounds %struct.Reg, %struct.Reg* %548, i32 0, i32 0
  %RBP.i70 = bitcast %union.anon* %549 to i64*
  %550 = load i64, i64* %RBP.i70
  %551 = sub i64 %550, 44
  %552 = load i64, i64* %PC.i68
  %553 = add i64 %552, 3
  store i64 %553, i64* %PC.i68
  %554 = inttoptr i64 %551 to i32*
  %555 = load i32, i32* %554
  %556 = zext i32 %555 to i64
  store i64 %556, i64* %RDX.i69, align 8
  store %struct.Memory* %loadMem_40253b, %struct.Memory** %MEMORY
  %loadMem_40253e = load %struct.Memory*, %struct.Memory** %MEMORY
  %557 = getelementptr inbounds %struct.State, %struct.State* %0, i32 0, i32 6
  %558 = getelementptr inbounds %struct.GPR, %struct.GPR* %557, i32 0, i32 33
  %559 = getelementptr inbounds %struct.Reg, %struct.Reg* %558, i32 0, i32 0
  %PC.i65 = bitcast %union.anon* %559 to i64*
  %560 = getelementptr inbounds %struct.State, %struct.State* %0, i32 0, i32 6
  %561 = getelementptr inbounds %struct.GPR, %struct.GPR* %560, i32 0, i32 1
  %562 = getelementptr inbounds %struct.Reg, %struct.Reg* %561, i32 0, i32 0
  %RAX.i66 = bitcast %union.anon* %562 to i64*
  %563 = getelementptr inbounds %struct.State, %struct.State* %0, i32 0, i32 6
  %564 = getelementptr inbounds %struct.GPR, %struct.GPR* %563, i32 0, i32 15
  %565 = getelementptr inbounds %struct.Reg, %struct.Reg* %564, i32 0, i32 0
  %RBP.i67 = bitcast %union.anon* %565 to i64*
  %566 = load i64, i64* %RBP.i67
  %567 = sub i64 %566, 12
  %568 = load i64, i64* %PC.i65
  %569 = add i64 %568, 3
  store i64 %569, i64* %PC.i65
  %570 = inttoptr i64 %567 to i32*
  %571 = load i32, i32* %570
  %572 = zext i32 %571 to i64
  store i64 %572, i64* %RAX.i66, align 8
  store %struct.Memory* %loadMem_40253e, %struct.Memory** %MEMORY
  %loadMem_402541 = load %struct.Memory*, %struct.Memory** %MEMORY
  %573 = getelementptr inbounds %struct.State, %struct.State* %0, i32 0, i32 6
  %574 = getelementptr inbounds %struct.GPR, %struct.GPR* %573, i32 0, i32 33
  %575 = getelementptr inbounds %struct.Reg, %struct.Reg* %574, i32 0, i32 0
  %PC.i63 = bitcast %union.anon* %575 to i64*
  %576 = getelementptr inbounds %struct.State, %struct.State* %0, i32 0, i32 6
  %577 = getelementptr inbounds %struct.GPR, %struct.GPR* %576, i32 0, i32 1
  %578 = getelementptr inbounds %struct.Reg, %struct.Reg* %577, i32 0, i32 0
  %RAX.i64 = bitcast %union.anon* %578 to i64*
  %579 = load i64, i64* %RAX.i64
  %580 = load i64, i64* %PC.i63
  %581 = add i64 %580, 3
  store i64 %581, i64* %PC.i63
  %582 = trunc i64 %579 to i32
  %583 = sub i32 %582, 28
  %584 = zext i32 %583 to i64
  store i64 %584, i64* %RAX.i64, align 8
  %585 = icmp ult i32 %582, 28
  %586 = zext i1 %585 to i8
  %587 = getelementptr inbounds %struct.State, %struct.State* %0, i64 0, i32 2, i32 1
  store i8 %586, i8* %587, align 1
  %588 = and i32 %583, 255
  %589 = call i32 @llvm.ctpop.i32(i32 %588)
  %590 = trunc i32 %589 to i8
  %591 = and i8 %590, 1
  %592 = xor i8 %591, 1
  %593 = getelementptr inbounds %struct.State, %struct.State* %0, i64 0, i32 2, i32 3
  store i8 %592, i8* %593, align 1
  %594 = xor i64 28, %579
  %595 = trunc i64 %594 to i32
  %596 = xor i32 %595, %583
  %597 = lshr i32 %596, 4
  %598 = trunc i32 %597 to i8
  %599 = and i8 %598, 1
  %600 = getelementptr inbounds %struct.State, %struct.State* %0, i64 0, i32 2, i32 5
  store i8 %599, i8* %600, align 1
  %601 = icmp eq i32 %583, 0
  %602 = zext i1 %601 to i8
  %603 = getelementptr inbounds %struct.State, %struct.State* %0, i64 0, i32 2, i32 7
  store i8 %602, i8* %603, align 1
  %604 = lshr i32 %583, 31
  %605 = trunc i32 %604 to i8
  %606 = getelementptr inbounds %struct.State, %struct.State* %0, i64 0, i32 2, i32 9
  store i8 %605, i8* %606, align 1
  %607 = lshr i32 %582, 31
  %608 = xor i32 %604, %607
  %609 = add i32 %608, %607
  %610 = icmp eq i32 %609, 2
  %611 = zext i1 %610 to i8
  %612 = getelementptr inbounds %struct.State, %struct.State* %0, i64 0, i32 2, i32 13
  store i8 %611, i8* %612, align 1
  store %struct.Memory* %loadMem_402541, %struct.Memory** %MEMORY
  %loadMem_402544 = load %struct.Memory*, %struct.Memory** %MEMORY
  %613 = getelementptr inbounds %struct.State, %struct.State* %0, i32 0, i32 6
  %614 = getelementptr inbounds %struct.GPR, %struct.GPR* %613, i32 0, i32 33
  %615 = getelementptr inbounds %struct.Reg, %struct.Reg* %614, i32 0, i32 0
  %PC.i60 = bitcast %union.anon* %615 to i64*
  %616 = getelementptr inbounds %struct.State, %struct.State* %0, i32 0, i32 6
  %617 = getelementptr inbounds %struct.GPR, %struct.GPR* %616, i32 0, i32 1
  %618 = getelementptr inbounds %struct.Reg, %struct.Reg* %617, i32 0, i32 0
  %EAX.i61 = bitcast %union.anon* %618 to i32*
  %619 = getelementptr inbounds %struct.State, %struct.State* %0, i32 0, i32 6
  %620 = getelementptr inbounds %struct.GPR, %struct.GPR* %619, i32 0, i32 7
  %621 = getelementptr inbounds %struct.Reg, %struct.Reg* %620, i32 0, i32 0
  %EDX.i62 = bitcast %union.anon* %621 to i32*
  %622 = load i32, i32* %EDX.i62
  %623 = zext i32 %622 to i64
  %624 = load i32, i32* %EAX.i61
  %625 = zext i32 %624 to i64
  %626 = load i64, i64* %PC.i60
  %627 = add i64 %626, 2
  store i64 %627, i64* %PC.i60
  %628 = sub i32 %622, %624
  %629 = icmp ult i32 %622, %624
  %630 = zext i1 %629 to i8
  %631 = getelementptr inbounds %struct.State, %struct.State* %0, i64 0, i32 2, i32 1
  store i8 %630, i8* %631, align 1
  %632 = and i32 %628, 255
  %633 = call i32 @llvm.ctpop.i32(i32 %632)
  %634 = trunc i32 %633 to i8
  %635 = and i8 %634, 1
  %636 = xor i8 %635, 1
  %637 = getelementptr inbounds %struct.State, %struct.State* %0, i64 0, i32 2, i32 3
  store i8 %636, i8* %637, align 1
  %638 = xor i64 %625, %623
  %639 = trunc i64 %638 to i32
  %640 = xor i32 %639, %628
  %641 = lshr i32 %640, 4
  %642 = trunc i32 %641 to i8
  %643 = and i8 %642, 1
  %644 = getelementptr inbounds %struct.State, %struct.State* %0, i64 0, i32 2, i32 5
  store i8 %643, i8* %644, align 1
  %645 = icmp eq i32 %628, 0
  %646 = zext i1 %645 to i8
  %647 = getelementptr inbounds %struct.State, %struct.State* %0, i64 0, i32 2, i32 7
  store i8 %646, i8* %647, align 1
  %648 = lshr i32 %628, 31
  %649 = trunc i32 %648 to i8
  %650 = getelementptr inbounds %struct.State, %struct.State* %0, i64 0, i32 2, i32 9
  store i8 %649, i8* %650, align 1
  %651 = lshr i32 %622, 31
  %652 = lshr i32 %624, 31
  %653 = xor i32 %652, %651
  %654 = xor i32 %648, %651
  %655 = add i32 %654, %653
  %656 = icmp eq i32 %655, 2
  %657 = zext i1 %656 to i8
  %658 = getelementptr inbounds %struct.State, %struct.State* %0, i64 0, i32 2, i32 13
  store i8 %657, i8* %658, align 1
  store %struct.Memory* %loadMem_402544, %struct.Memory** %MEMORY
  %loadMem_402546 = load %struct.Memory*, %struct.Memory** %MEMORY
  %659 = getelementptr inbounds %struct.State, %struct.State* %0, i32 0, i32 6
  %660 = getelementptr inbounds %struct.GPR, %struct.GPR* %659, i32 0, i32 33
  %661 = getelementptr inbounds %struct.Reg, %struct.Reg* %660, i32 0, i32 0
  %PC.i59 = bitcast %union.anon* %661 to i64*
  %662 = load i64, i64* %PC.i59
  %663 = add i64 %662, 11
  %664 = load i64, i64* %PC.i59
  %665 = add i64 %664, 6
  %666 = load i64, i64* %PC.i59
  %667 = add i64 %666, 6
  store i64 %667, i64* %PC.i59
  %668 = getelementptr inbounds %struct.State, %struct.State* %0, i64 0, i32 2, i32 9
  %669 = load i8, i8* %668, align 1
  %670 = icmp ne i8 %669, 0
  %671 = getelementptr inbounds %struct.State, %struct.State* %0, i64 0, i32 2, i32 13
  %672 = load i8, i8* %671, align 1
  %673 = icmp ne i8 %672, 0
  %674 = xor i1 %670, %673
  %675 = xor i1 %674, true
  %676 = zext i1 %675 to i8
  store i8 %676, i8* %BRANCH_TAKEN, align 1
  %677 = getelementptr inbounds %struct.State, %struct.State* %0, i64 0, i32 6, i32 33, i32 0, i32 0
  %678 = select i1 %674, i64 %665, i64 %663
  store i64 %678, i64* %677, align 8
  store %struct.Memory* %loadMem_402546, %struct.Memory** %MEMORY
  %loadBr_402546 = load i8, i8* %BRANCH_TAKEN
  %cmpBr_402546 = icmp eq i8 %loadBr_402546, 1
  br i1 %cmpBr_402546, label %block_.L_402551, label %block_40254c

block_40254c:                                     ; preds = %block_.L_402522
  %loadMem_40254c = load %struct.Memory*, %struct.Memory** %MEMORY
  %679 = getelementptr inbounds %struct.State, %struct.State* %0, i32 0, i32 6
  %680 = getelementptr inbounds %struct.GPR, %struct.GPR* %679, i32 0, i32 33
  %681 = getelementptr inbounds %struct.Reg, %struct.Reg* %680, i32 0, i32 0
  %PC.i58 = bitcast %union.anon* %681 to i64*
  %682 = load i64, i64* %PC.i58
  %683 = add i64 %682, -42
  %684 = load i64, i64* %PC.i58
  %685 = add i64 %684, 5
  store i64 %685, i64* %PC.i58
  %686 = getelementptr inbounds %struct.State, %struct.State* %0, i64 0, i32 6, i32 33, i32 0, i32 0
  store i64 %683, i64* %686, align 8
  store %struct.Memory* %loadMem_40254c, %struct.Memory** %MEMORY
  br label %block_.L_402522

block_.L_402551:                                  ; preds = %block_.L_402522
  %loadMem_402551 = load %struct.Memory*, %struct.Memory** %MEMORY
  %687 = getelementptr inbounds %struct.State, %struct.State* %0, i32 0, i32 6
  %688 = getelementptr inbounds %struct.GPR, %struct.GPR* %687, i32 0, i32 33
  %689 = getelementptr inbounds %struct.Reg, %struct.Reg* %688, i32 0, i32 0
  %PC.i57 = bitcast %union.anon* %689 to i64*
  %690 = load i64, i64* %PC.i57
  %691 = add i64 %690, 5
  %692 = load i64, i64* %PC.i57
  %693 = add i64 %692, 5
  store i64 %693, i64* %PC.i57
  %694 = getelementptr inbounds %struct.State, %struct.State* %0, i64 0, i32 6, i32 33, i32 0, i32 0
  store i64 %691, i64* %694, align 8
  store %struct.Memory* %loadMem_402551, %struct.Memory** %MEMORY
  br label %block_.L_402556

block_.L_402556:                                  ; preds = %block_.L_402551, %block_4024ff
  %loadMem_402556 = load %struct.Memory*, %struct.Memory** %MEMORY
  %695 = getelementptr inbounds %struct.State, %struct.State* %0, i32 0, i32 6
  %696 = getelementptr inbounds %struct.GPR, %struct.GPR* %695, i32 0, i32 33
  %697 = getelementptr inbounds %struct.Reg, %struct.Reg* %696, i32 0, i32 0
  %PC.i54 = bitcast %union.anon* %697 to i64*
  %698 = getelementptr inbounds %struct.State, %struct.State* %0, i32 0, i32 6
  %699 = getelementptr inbounds %struct.GPR, %struct.GPR* %698, i32 0, i32 1
  %700 = getelementptr inbounds %struct.Reg, %struct.Reg* %699, i32 0, i32 0
  %RAX.i55 = bitcast %union.anon* %700 to i64*
  %701 = getelementptr inbounds %struct.State, %struct.State* %0, i32 0, i32 6
  %702 = getelementptr inbounds %struct.GPR, %struct.GPR* %701, i32 0, i32 15
  %703 = getelementptr inbounds %struct.Reg, %struct.Reg* %702, i32 0, i32 0
  %RBP.i56 = bitcast %union.anon* %703 to i64*
  %704 = load i64, i64* %RBP.i56
  %705 = sub i64 %704, 44
  %706 = load i64, i64* %PC.i54
  %707 = add i64 %706, 3
  store i64 %707, i64* %PC.i54
  %708 = inttoptr i64 %705 to i32*
  %709 = load i32, i32* %708
  %710 = zext i32 %709 to i64
  store i64 %710, i64* %RAX.i55, align 8
  store %struct.Memory* %loadMem_402556, %struct.Memory** %MEMORY
  %loadMem_402559 = load %struct.Memory*, %struct.Memory** %MEMORY
  %711 = getelementptr inbounds %struct.State, %struct.State* %0, i32 0, i32 6
  %712 = getelementptr inbounds %struct.GPR, %struct.GPR* %711, i32 0, i32 33
  %713 = getelementptr inbounds %struct.Reg, %struct.Reg* %712, i32 0, i32 0
  %PC.i51 = bitcast %union.anon* %713 to i64*
  %714 = getelementptr inbounds %struct.State, %struct.State* %0, i32 0, i32 6
  %715 = getelementptr inbounds %struct.GPR, %struct.GPR* %714, i32 0, i32 1
  %716 = getelementptr inbounds %struct.Reg, %struct.Reg* %715, i32 0, i32 0
  %EAX.i52 = bitcast %union.anon* %716 to i32*
  %717 = getelementptr inbounds %struct.State, %struct.State* %0, i32 0, i32 6
  %718 = getelementptr inbounds %struct.GPR, %struct.GPR* %717, i32 0, i32 15
  %719 = getelementptr inbounds %struct.Reg, %struct.Reg* %718, i32 0, i32 0
  %RBP.i53 = bitcast %union.anon* %719 to i64*
  %720 = load i32, i32* %EAX.i52
  %721 = zext i32 %720 to i64
  %722 = load i64, i64* %RBP.i53
  %723 = sub i64 %722, 12
  %724 = load i64, i64* %PC.i51
  %725 = add i64 %724, 3
  store i64 %725, i64* %PC.i51
  %726 = inttoptr i64 %723 to i32*
  %727 = load i32, i32* %726
  %728 = sub i32 %720, %727
  %729 = icmp ult i32 %720, %727
  %730 = zext i1 %729 to i8
  %731 = getelementptr inbounds %struct.State, %struct.State* %0, i64 0, i32 2, i32 1
  store i8 %730, i8* %731, align 1
  %732 = and i32 %728, 255
  %733 = call i32 @llvm.ctpop.i32(i32 %732)
  %734 = trunc i32 %733 to i8
  %735 = and i8 %734, 1
  %736 = xor i8 %735, 1
  %737 = getelementptr inbounds %struct.State, %struct.State* %0, i64 0, i32 2, i32 3
  store i8 %736, i8* %737, align 1
  %738 = xor i32 %727, %720
  %739 = xor i32 %738, %728
  %740 = lshr i32 %739, 4
  %741 = trunc i32 %740 to i8
  %742 = and i8 %741, 1
  %743 = getelementptr inbounds %struct.State, %struct.State* %0, i64 0, i32 2, i32 5
  store i8 %742, i8* %743, align 1
  %744 = icmp eq i32 %728, 0
  %745 = zext i1 %744 to i8
  %746 = getelementptr inbounds %struct.State, %struct.State* %0, i64 0, i32 2, i32 7
  store i8 %745, i8* %746, align 1
  %747 = lshr i32 %728, 31
  %748 = trunc i32 %747 to i8
  %749 = getelementptr inbounds %struct.State, %struct.State* %0, i64 0, i32 2, i32 9
  store i8 %748, i8* %749, align 1
  %750 = lshr i32 %720, 31
  %751 = lshr i32 %727, 31
  %752 = xor i32 %751, %750
  %753 = xor i32 %747, %750
  %754 = add i32 %753, %752
  %755 = icmp eq i32 %754, 2
  %756 = zext i1 %755 to i8
  %757 = getelementptr inbounds %struct.State, %struct.State* %0, i64 0, i32 2, i32 13
  store i8 %756, i8* %757, align 1
  store %struct.Memory* %loadMem_402559, %struct.Memory** %MEMORY
  %loadMem_40255c = load %struct.Memory*, %struct.Memory** %MEMORY
  %758 = getelementptr inbounds %struct.State, %struct.State* %0, i32 0, i32 6
  %759 = getelementptr inbounds %struct.GPR, %struct.GPR* %758, i32 0, i32 33
  %760 = getelementptr inbounds %struct.Reg, %struct.Reg* %759, i32 0, i32 0
  %PC.i50 = bitcast %union.anon* %760 to i64*
  %761 = load i64, i64* %PC.i50
  %762 = add i64 %761, 70
  %763 = load i64, i64* %PC.i50
  %764 = add i64 %763, 6
  %765 = load i64, i64* %PC.i50
  %766 = add i64 %765, 6
  store i64 %766, i64* %PC.i50
  %767 = getelementptr inbounds %struct.State, %struct.State* %0, i64 0, i32 2, i32 9
  %768 = load i8, i8* %767, align 1
  %769 = icmp ne i8 %768, 0
  %770 = getelementptr inbounds %struct.State, %struct.State* %0, i64 0, i32 2, i32 13
  %771 = load i8, i8* %770, align 1
  %772 = icmp ne i8 %771, 0
  %773 = xor i1 %769, %772
  %774 = xor i1 %773, true
  %775 = zext i1 %774 to i8
  store i8 %775, i8* %BRANCH_TAKEN, align 1
  %776 = getelementptr inbounds %struct.State, %struct.State* %0, i64 0, i32 6, i32 33, i32 0, i32 0
  %777 = select i1 %773, i64 %764, i64 %762
  store i64 %777, i64* %776, align 8
  store %struct.Memory* %loadMem_40255c, %struct.Memory** %MEMORY
  %loadBr_40255c = load i8, i8* %BRANCH_TAKEN
  %cmpBr_40255c = icmp eq i8 %loadBr_40255c, 1
  br i1 %cmpBr_40255c, label %block_.L_4025a2, label %block_402562

block_402562:                                     ; preds = %block_.L_402556
  %loadMem_402562 = load %struct.Memory*, %struct.Memory** %MEMORY
  %778 = getelementptr inbounds %struct.State, %struct.State* %0, i32 0, i32 6
  %779 = getelementptr inbounds %struct.GPR, %struct.GPR* %778, i32 0, i32 33
  %780 = getelementptr inbounds %struct.Reg, %struct.Reg* %779, i32 0, i32 0
  %PC.i49 = bitcast %union.anon* %780 to i64*
  %781 = load i64, i64* %PC.i49
  %782 = add i64 %781, 5
  %783 = load i64, i64* %PC.i49
  %784 = add i64 %783, 5
  store i64 %784, i64* %PC.i49
  %785 = getelementptr inbounds %struct.State, %struct.State* %0, i64 0, i32 6, i32 33, i32 0, i32 0
  store i64 %782, i64* %785, align 8
  store %struct.Memory* %loadMem_402562, %struct.Memory** %MEMORY
  br label %block_.L_402567

block_.L_402567:                                  ; preds = %block_402598, %block_402562
  %loadMem_402567 = load %struct.Memory*, %struct.Memory** %MEMORY
  %786 = getelementptr inbounds %struct.State, %struct.State* %0, i32 0, i32 6
  %787 = getelementptr inbounds %struct.GPR, %struct.GPR* %786, i32 0, i32 33
  %788 = getelementptr inbounds %struct.Reg, %struct.Reg* %787, i32 0, i32 0
  %PC.i46 = bitcast %union.anon* %788 to i64*
  %789 = getelementptr inbounds %struct.State, %struct.State* %0, i32 0, i32 6
  %790 = getelementptr inbounds %struct.GPR, %struct.GPR* %789, i32 0, i32 1
  %791 = getelementptr inbounds %struct.Reg, %struct.Reg* %790, i32 0, i32 0
  %RAX.i47 = bitcast %union.anon* %791 to i64*
  %792 = getelementptr inbounds %struct.State, %struct.State* %0, i32 0, i32 6
  %793 = getelementptr inbounds %struct.GPR, %struct.GPR* %792, i32 0, i32 15
  %794 = getelementptr inbounds %struct.Reg, %struct.Reg* %793, i32 0, i32 0
  %RBP.i48 = bitcast %union.anon* %794 to i64*
  %795 = load i64, i64* %RBP.i48
  %796 = sub i64 %795, 8
  %797 = load i64, i64* %PC.i46
  %798 = add i64 %797, 4
  store i64 %798, i64* %PC.i46
  %799 = inttoptr i64 %796 to i64*
  %800 = load i64, i64* %799
  store i64 %800, i64* %RAX.i47, align 8
  store %struct.Memory* %loadMem_402567, %struct.Memory** %MEMORY
  %loadMem_40256b = load %struct.Memory*, %struct.Memory** %MEMORY
  %801 = getelementptr inbounds %struct.State, %struct.State* %0, i32 0, i32 6
  %802 = getelementptr inbounds %struct.GPR, %struct.GPR* %801, i32 0, i32 33
  %803 = getelementptr inbounds %struct.Reg, %struct.Reg* %802, i32 0, i32 0
  %PC.i43 = bitcast %union.anon* %803 to i64*
  %804 = getelementptr inbounds %struct.State, %struct.State* %0, i32 0, i32 6
  %805 = getelementptr inbounds %struct.GPR, %struct.GPR* %804, i32 0, i32 5
  %806 = getelementptr inbounds %struct.Reg, %struct.Reg* %805, i32 0, i32 0
  %RCX.i44 = bitcast %union.anon* %806 to i64*
  %807 = getelementptr inbounds %struct.State, %struct.State* %0, i32 0, i32 6
  %808 = getelementptr inbounds %struct.GPR, %struct.GPR* %807, i32 0, i32 15
  %809 = getelementptr inbounds %struct.Reg, %struct.Reg* %808, i32 0, i32 0
  %RBP.i45 = bitcast %union.anon* %809 to i64*
  %810 = load i64, i64* %RBP.i45
  %811 = sub i64 %810, 44
  %812 = load i64, i64* %PC.i43
  %813 = add i64 %812, 4
  store i64 %813, i64* %PC.i43
  %814 = inttoptr i64 %811 to i32*
  %815 = load i32, i32* %814
  %816 = sext i32 %815 to i64
  store i64 %816, i64* %RCX.i44, align 8
  store %struct.Memory* %loadMem_40256b, %struct.Memory** %MEMORY
  %loadMem_40256f = load %struct.Memory*, %struct.Memory** %MEMORY
  %817 = getelementptr inbounds %struct.State, %struct.State* %0, i32 0, i32 6
  %818 = getelementptr inbounds %struct.GPR, %struct.GPR* %817, i32 0, i32 33
  %819 = getelementptr inbounds %struct.Reg, %struct.Reg* %818, i32 0, i32 0
  %PC.i40 = bitcast %union.anon* %819 to i64*
  %820 = getelementptr inbounds %struct.State, %struct.State* %0, i32 0, i32 6
  %821 = getelementptr inbounds %struct.GPR, %struct.GPR* %820, i32 0, i32 1
  %822 = getelementptr inbounds %struct.Reg, %struct.Reg* %821, i32 0, i32 0
  %RAX.i41 = bitcast %union.anon* %822 to i64*
  %823 = getelementptr inbounds %struct.State, %struct.State* %0, i32 0, i32 6
  %824 = getelementptr inbounds %struct.GPR, %struct.GPR* %823, i32 0, i32 5
  %825 = getelementptr inbounds %struct.Reg, %struct.Reg* %824, i32 0, i32 0
  %RCX.i = bitcast %union.anon* %825 to i64*
  %826 = getelementptr inbounds %struct.State, %struct.State* %0, i32 0, i32 1
  %827 = getelementptr inbounds [32 x %union.VectorReg], [32 x %union.VectorReg]* %826, i64 0, i64 0
  %YMM0.i42 = bitcast %union.VectorReg* %827 to %"class.std::bitset"*
  %828 = bitcast %"class.std::bitset"* %YMM0.i42 to i8*
  %829 = load i64, i64* %RAX.i41
  %830 = load i64, i64* %RCX.i
  %831 = mul i64 %830, 8
  %832 = add i64 %831, %829
  %833 = load i64, i64* %PC.i40
  %834 = add i64 %833, 5
  store i64 %834, i64* %PC.i40
  %835 = inttoptr i64 %832 to double*
  %836 = load double, double* %835
  %837 = bitcast i8* %828 to double*
  store double %836, double* %837, align 1
  %838 = getelementptr inbounds i8, i8* %828, i64 8
  %839 = bitcast i8* %838 to double*
  store double 0.000000e+00, double* %839, align 1
  store %struct.Memory* %loadMem_40256f, %struct.Memory** %MEMORY
  %loadMem1_402574 = load %struct.Memory*, %struct.Memory** %MEMORY
  %840 = getelementptr inbounds %struct.State, %struct.State* %0, i32 0, i32 6
  %841 = getelementptr inbounds %struct.GPR, %struct.GPR* %840, i32 0, i32 33
  %842 = getelementptr inbounds %struct.Reg, %struct.Reg* %841, i32 0, i32 0
  %PC.i39 = bitcast %union.anon* %842 to i64*
  %843 = load i64, i64* %PC.i39
  %844 = add i64 %843, -4292
  %845 = load i64, i64* %PC.i39
  %846 = add i64 %845, 5
  %847 = load i64, i64* %PC.i39
  %848 = add i64 %847, 5
  store i64 %848, i64* %PC.i39
  %849 = getelementptr inbounds %struct.State, %struct.State* %0, i64 0, i32 6, i32 13, i32 0, i32 0
  %850 = load i64, i64* %849, align 8
  %851 = add i64 %850, -8
  %852 = inttoptr i64 %851 to i64*
  store i64 %846, i64* %852
  store i64 %851, i64* %849, align 8
  %853 = getelementptr inbounds %struct.State, %struct.State* %0, i64 0, i32 6, i32 33, i32 0, i32 0
  store i64 %844, i64* %853, align 8
  store %struct.Memory* %loadMem1_402574, %struct.Memory** %MEMORY
  %loadMem2_402574 = load %struct.Memory*, %struct.Memory** %MEMORY
  %loadPC_402574 = load i64, i64* %3
  %call2_402574 = call %struct.Memory* @sub_4014b0._Z18complete_hash_funcIdET_S0_(%struct.State* %0, i64 %loadPC_402574, %struct.Memory* %loadMem2_402574)
  store %struct.Memory* %call2_402574, %struct.Memory** %MEMORY
  %loadMem_402579 = load %struct.Memory*, %struct.Memory** %MEMORY
  %854 = getelementptr inbounds %struct.State, %struct.State* %0, i32 0, i32 6
  %855 = getelementptr inbounds %struct.GPR, %struct.GPR* %854, i32 0, i32 33
  %856 = getelementptr inbounds %struct.Reg, %struct.Reg* %855, i32 0, i32 0
  %PC.i36 = bitcast %union.anon* %856 to i64*
  %857 = getelementptr inbounds %struct.State, %struct.State* %0, i32 0, i32 6
  %858 = getelementptr inbounds %struct.GPR, %struct.GPR* %857, i32 0, i32 15
  %859 = getelementptr inbounds %struct.Reg, %struct.Reg* %858, i32 0, i32 0
  %RBP.i37 = bitcast %union.anon* %859 to i64*
  %860 = getelementptr inbounds %struct.State, %struct.State* %0, i32 0, i32 1
  %861 = getelementptr inbounds [32 x %union.VectorReg], [32 x %union.VectorReg]* %860, i64 0, i64 0
  %YMM0.i38 = bitcast %union.VectorReg* %861 to %"class.std::bitset"*
  %862 = bitcast %"class.std::bitset"* %YMM0.i38 to i8*
  %863 = bitcast %"class.std::bitset"* %YMM0.i38 to i8*
  %864 = load i64, i64* %RBP.i37
  %865 = sub i64 %864, 40
  %866 = load i64, i64* %PC.i36
  %867 = add i64 %866, 5
  store i64 %867, i64* %PC.i36
  %868 = bitcast i8* %863 to double*
  %869 = load double, double* %868, align 1
  %870 = getelementptr inbounds i8, i8* %863, i64 8
  %871 = bitcast i8* %870 to i64*
  %872 = load i64, i64* %871, align 1
  %873 = inttoptr i64 %865 to double*
  %874 = load double, double* %873
  %875 = fadd double %869, %874
  %876 = bitcast i8* %862 to double*
  store double %875, double* %876, align 1
  %877 = getelementptr inbounds i8, i8* %862, i64 8
  %878 = bitcast i8* %877 to i64*
  store i64 %872, i64* %878, align 1
  store %struct.Memory* %loadMem_402579, %struct.Memory** %MEMORY
  %loadMem_40257e = load %struct.Memory*, %struct.Memory** %MEMORY
  %879 = getelementptr inbounds %struct.State, %struct.State* %0, i32 0, i32 6
  %880 = getelementptr inbounds %struct.GPR, %struct.GPR* %879, i32 0, i32 33
  %881 = getelementptr inbounds %struct.Reg, %struct.Reg* %880, i32 0, i32 0
  %PC.i34 = bitcast %union.anon* %881 to i64*
  %882 = getelementptr inbounds %struct.State, %struct.State* %0, i32 0, i32 6
  %883 = getelementptr inbounds %struct.GPR, %struct.GPR* %882, i32 0, i32 15
  %884 = getelementptr inbounds %struct.Reg, %struct.Reg* %883, i32 0, i32 0
  %RBP.i35 = bitcast %union.anon* %884 to i64*
  %885 = getelementptr inbounds %struct.State, %struct.State* %0, i32 0, i32 1
  %886 = getelementptr inbounds [32 x %union.VectorReg], [32 x %union.VectorReg]* %885, i64 0, i64 0
  %XMM0.i = bitcast %union.VectorReg* %886 to %union.vec128_t*
  %887 = load i64, i64* %RBP.i35
  %888 = sub i64 %887, 40
  %889 = bitcast %union.vec128_t* %XMM0.i to i8*
  %890 = load i64, i64* %PC.i34
  %891 = add i64 %890, 5
  store i64 %891, i64* %PC.i34
  %892 = bitcast i8* %889 to double*
  %893 = load double, double* %892, align 1
  %894 = inttoptr i64 %888 to double*
  store double %893, double* %894
  store %struct.Memory* %loadMem_40257e, %struct.Memory** %MEMORY
  %loadMem_402583 = load %struct.Memory*, %struct.Memory** %MEMORY
  %895 = getelementptr inbounds %struct.State, %struct.State* %0, i32 0, i32 6
  %896 = getelementptr inbounds %struct.GPR, %struct.GPR* %895, i32 0, i32 33
  %897 = getelementptr inbounds %struct.Reg, %struct.Reg* %896, i32 0, i32 0
  %PC.i31 = bitcast %union.anon* %897 to i64*
  %898 = getelementptr inbounds %struct.State, %struct.State* %0, i32 0, i32 6
  %899 = getelementptr inbounds %struct.GPR, %struct.GPR* %898, i32 0, i32 7
  %900 = getelementptr inbounds %struct.Reg, %struct.Reg* %899, i32 0, i32 0
  %RDX.i32 = bitcast %union.anon* %900 to i64*
  %901 = getelementptr inbounds %struct.State, %struct.State* %0, i32 0, i32 6
  %902 = getelementptr inbounds %struct.GPR, %struct.GPR* %901, i32 0, i32 15
  %903 = getelementptr inbounds %struct.Reg, %struct.Reg* %902, i32 0, i32 0
  %RBP.i33 = bitcast %union.anon* %903 to i64*
  %904 = load i64, i64* %RBP.i33
  %905 = sub i64 %904, 44
  %906 = load i64, i64* %PC.i31
  %907 = add i64 %906, 3
  store i64 %907, i64* %PC.i31
  %908 = inttoptr i64 %905 to i32*
  %909 = load i32, i32* %908
  %910 = zext i32 %909 to i64
  store i64 %910, i64* %RDX.i32, align 8
  store %struct.Memory* %loadMem_402583, %struct.Memory** %MEMORY
  %loadMem_402586 = load %struct.Memory*, %struct.Memory** %MEMORY
  %911 = getelementptr inbounds %struct.State, %struct.State* %0, i32 0, i32 6
  %912 = getelementptr inbounds %struct.GPR, %struct.GPR* %911, i32 0, i32 33
  %913 = getelementptr inbounds %struct.Reg, %struct.Reg* %912, i32 0, i32 0
  %PC.i29 = bitcast %union.anon* %913 to i64*
  %914 = getelementptr inbounds %struct.State, %struct.State* %0, i32 0, i32 6
  %915 = getelementptr inbounds %struct.GPR, %struct.GPR* %914, i32 0, i32 7
  %916 = getelementptr inbounds %struct.Reg, %struct.Reg* %915, i32 0, i32 0
  %RDX.i30 = bitcast %union.anon* %916 to i64*
  %917 = load i64, i64* %RDX.i30
  %918 = load i64, i64* %PC.i29
  %919 = add i64 %918, 3
  store i64 %919, i64* %PC.i29
  %920 = trunc i64 %917 to i32
  %921 = add i32 1, %920
  %922 = zext i32 %921 to i64
  store i64 %922, i64* %RDX.i30, align 8
  %923 = icmp ult i32 %921, %920
  %924 = icmp ult i32 %921, 1
  %925 = or i1 %923, %924
  %926 = zext i1 %925 to i8
  %927 = getelementptr inbounds %struct.State, %struct.State* %0, i64 0, i32 2, i32 1
  store i8 %926, i8* %927, align 1
  %928 = and i32 %921, 255
  %929 = call i32 @llvm.ctpop.i32(i32 %928)
  %930 = trunc i32 %929 to i8
  %931 = and i8 %930, 1
  %932 = xor i8 %931, 1
  %933 = getelementptr inbounds %struct.State, %struct.State* %0, i64 0, i32 2, i32 3
  store i8 %932, i8* %933, align 1
  %934 = xor i64 1, %917
  %935 = trunc i64 %934 to i32
  %936 = xor i32 %935, %921
  %937 = lshr i32 %936, 4
  %938 = trunc i32 %937 to i8
  %939 = and i8 %938, 1
  %940 = getelementptr inbounds %struct.State, %struct.State* %0, i64 0, i32 2, i32 5
  store i8 %939, i8* %940, align 1
  %941 = icmp eq i32 %921, 0
  %942 = zext i1 %941 to i8
  %943 = getelementptr inbounds %struct.State, %struct.State* %0, i64 0, i32 2, i32 7
  store i8 %942, i8* %943, align 1
  %944 = lshr i32 %921, 31
  %945 = trunc i32 %944 to i8
  %946 = getelementptr inbounds %struct.State, %struct.State* %0, i64 0, i32 2, i32 9
  store i8 %945, i8* %946, align 1
  %947 = lshr i32 %920, 31
  %948 = xor i32 %944, %947
  %949 = add i32 %948, %944
  %950 = icmp eq i32 %949, 2
  %951 = zext i1 %950 to i8
  %952 = getelementptr inbounds %struct.State, %struct.State* %0, i64 0, i32 2, i32 13
  store i8 %951, i8* %952, align 1
  store %struct.Memory* %loadMem_402586, %struct.Memory** %MEMORY
  %loadMem_402589 = load %struct.Memory*, %struct.Memory** %MEMORY
  %953 = getelementptr inbounds %struct.State, %struct.State* %0, i32 0, i32 6
  %954 = getelementptr inbounds %struct.GPR, %struct.GPR* %953, i32 0, i32 33
  %955 = getelementptr inbounds %struct.Reg, %struct.Reg* %954, i32 0, i32 0
  %PC.i26 = bitcast %union.anon* %955 to i64*
  %956 = getelementptr inbounds %struct.State, %struct.State* %0, i32 0, i32 6
  %957 = getelementptr inbounds %struct.GPR, %struct.GPR* %956, i32 0, i32 7
  %958 = getelementptr inbounds %struct.Reg, %struct.Reg* %957, i32 0, i32 0
  %EDX.i27 = bitcast %union.anon* %958 to i32*
  %959 = getelementptr inbounds %struct.State, %struct.State* %0, i32 0, i32 6
  %960 = getelementptr inbounds %struct.GPR, %struct.GPR* %959, i32 0, i32 15
  %961 = getelementptr inbounds %struct.Reg, %struct.Reg* %960, i32 0, i32 0
  %RBP.i28 = bitcast %union.anon* %961 to i64*
  %962 = load i64, i64* %RBP.i28
  %963 = sub i64 %962, 44
  %964 = load i32, i32* %EDX.i27
  %965 = zext i32 %964 to i64
  %966 = load i64, i64* %PC.i26
  %967 = add i64 %966, 3
  store i64 %967, i64* %PC.i26
  %968 = inttoptr i64 %963 to i32*
  store i32 %964, i32* %968
  store %struct.Memory* %loadMem_402589, %struct.Memory** %MEMORY
  %loadMem_40258c = load %struct.Memory*, %struct.Memory** %MEMORY
  %969 = getelementptr inbounds %struct.State, %struct.State* %0, i32 0, i32 6
  %970 = getelementptr inbounds %struct.GPR, %struct.GPR* %969, i32 0, i32 33
  %971 = getelementptr inbounds %struct.Reg, %struct.Reg* %970, i32 0, i32 0
  %PC.i24 = bitcast %union.anon* %971 to i64*
  %972 = getelementptr inbounds %struct.State, %struct.State* %0, i32 0, i32 6
  %973 = getelementptr inbounds %struct.GPR, %struct.GPR* %972, i32 0, i32 7
  %974 = getelementptr inbounds %struct.Reg, %struct.Reg* %973, i32 0, i32 0
  %RDX.i = bitcast %union.anon* %974 to i64*
  %975 = getelementptr inbounds %struct.State, %struct.State* %0, i32 0, i32 6
  %976 = getelementptr inbounds %struct.GPR, %struct.GPR* %975, i32 0, i32 15
  %977 = getelementptr inbounds %struct.Reg, %struct.Reg* %976, i32 0, i32 0
  %RBP.i25 = bitcast %union.anon* %977 to i64*
  %978 = load i64, i64* %RBP.i25
  %979 = sub i64 %978, 44
  %980 = load i64, i64* %PC.i24
  %981 = add i64 %980, 3
  store i64 %981, i64* %PC.i24
  %982 = inttoptr i64 %979 to i32*
  %983 = load i32, i32* %982
  %984 = zext i32 %983 to i64
  store i64 %984, i64* %RDX.i, align 8
  store %struct.Memory* %loadMem_40258c, %struct.Memory** %MEMORY
  %loadMem_40258f = load %struct.Memory*, %struct.Memory** %MEMORY
  %985 = getelementptr inbounds %struct.State, %struct.State* %0, i32 0, i32 6
  %986 = getelementptr inbounds %struct.GPR, %struct.GPR* %985, i32 0, i32 33
  %987 = getelementptr inbounds %struct.Reg, %struct.Reg* %986, i32 0, i32 0
  %PC.i22 = bitcast %union.anon* %987 to i64*
  %988 = getelementptr inbounds %struct.State, %struct.State* %0, i32 0, i32 6
  %989 = getelementptr inbounds %struct.GPR, %struct.GPR* %988, i32 0, i32 7
  %990 = getelementptr inbounds %struct.Reg, %struct.Reg* %989, i32 0, i32 0
  %EDX.i = bitcast %union.anon* %990 to i32*
  %991 = getelementptr inbounds %struct.State, %struct.State* %0, i32 0, i32 6
  %992 = getelementptr inbounds %struct.GPR, %struct.GPR* %991, i32 0, i32 15
  %993 = getelementptr inbounds %struct.Reg, %struct.Reg* %992, i32 0, i32 0
  %RBP.i23 = bitcast %union.anon* %993 to i64*
  %994 = load i32, i32* %EDX.i
  %995 = zext i32 %994 to i64
  %996 = load i64, i64* %RBP.i23
  %997 = sub i64 %996, 12
  %998 = load i64, i64* %PC.i22
  %999 = add i64 %998, 3
  store i64 %999, i64* %PC.i22
  %1000 = inttoptr i64 %997 to i32*
  %1001 = load i32, i32* %1000
  %1002 = sub i32 %994, %1001
  %1003 = icmp ult i32 %994, %1001
  %1004 = zext i1 %1003 to i8
  %1005 = getelementptr inbounds %struct.State, %struct.State* %0, i64 0, i32 2, i32 1
  store i8 %1004, i8* %1005, align 1
  %1006 = and i32 %1002, 255
  %1007 = call i32 @llvm.ctpop.i32(i32 %1006)
  %1008 = trunc i32 %1007 to i8
  %1009 = and i8 %1008, 1
  %1010 = xor i8 %1009, 1
  %1011 = getelementptr inbounds %struct.State, %struct.State* %0, i64 0, i32 2, i32 3
  store i8 %1010, i8* %1011, align 1
  %1012 = xor i32 %1001, %994
  %1013 = xor i32 %1012, %1002
  %1014 = lshr i32 %1013, 4
  %1015 = trunc i32 %1014 to i8
  %1016 = and i8 %1015, 1
  %1017 = getelementptr inbounds %struct.State, %struct.State* %0, i64 0, i32 2, i32 5
  store i8 %1016, i8* %1017, align 1
  %1018 = icmp eq i32 %1002, 0
  %1019 = zext i1 %1018 to i8
  %1020 = getelementptr inbounds %struct.State, %struct.State* %0, i64 0, i32 2, i32 7
  store i8 %1019, i8* %1020, align 1
  %1021 = lshr i32 %1002, 31
  %1022 = trunc i32 %1021 to i8
  %1023 = getelementptr inbounds %struct.State, %struct.State* %0, i64 0, i32 2, i32 9
  store i8 %1022, i8* %1023, align 1
  %1024 = lshr i32 %994, 31
  %1025 = lshr i32 %1001, 31
  %1026 = xor i32 %1025, %1024
  %1027 = xor i32 %1021, %1024
  %1028 = add i32 %1027, %1026
  %1029 = icmp eq i32 %1028, 2
  %1030 = zext i1 %1029 to i8
  %1031 = getelementptr inbounds %struct.State, %struct.State* %0, i64 0, i32 2, i32 13
  store i8 %1030, i8* %1031, align 1
  store %struct.Memory* %loadMem_40258f, %struct.Memory** %MEMORY
  %loadMem_402592 = load %struct.Memory*, %struct.Memory** %MEMORY
  %1032 = getelementptr inbounds %struct.State, %struct.State* %0, i32 0, i32 6
  %1033 = getelementptr inbounds %struct.GPR, %struct.GPR* %1032, i32 0, i32 33
  %1034 = getelementptr inbounds %struct.Reg, %struct.Reg* %1033, i32 0, i32 0
  %PC.i21 = bitcast %union.anon* %1034 to i64*
  %1035 = load i64, i64* %PC.i21
  %1036 = add i64 %1035, 11
  %1037 = load i64, i64* %PC.i21
  %1038 = add i64 %1037, 6
  %1039 = load i64, i64* %PC.i21
  %1040 = add i64 %1039, 6
  store i64 %1040, i64* %PC.i21
  %1041 = getelementptr inbounds %struct.State, %struct.State* %0, i64 0, i32 2, i32 7
  %1042 = load i8, i8* %1041, align 1
  store i8 %1042, i8* %BRANCH_TAKEN, align 1
  %1043 = getelementptr inbounds %struct.State, %struct.State* %0, i64 0, i32 6, i32 33, i32 0, i32 0
  %1044 = icmp ne i8 %1042, 0
  %1045 = select i1 %1044, i64 %1036, i64 %1038
  store i64 %1045, i64* %1043, align 8
  store %struct.Memory* %loadMem_402592, %struct.Memory** %MEMORY
  %loadBr_402592 = load i8, i8* %BRANCH_TAKEN
  %cmpBr_402592 = icmp eq i8 %loadBr_402592, 1
  br i1 %cmpBr_402592, label %block_.L_40259d, label %block_402598

block_402598:                                     ; preds = %block_.L_402567
  %loadMem_402598 = load %struct.Memory*, %struct.Memory** %MEMORY
  %1046 = getelementptr inbounds %struct.State, %struct.State* %0, i32 0, i32 6
  %1047 = getelementptr inbounds %struct.GPR, %struct.GPR* %1046, i32 0, i32 33
  %1048 = getelementptr inbounds %struct.Reg, %struct.Reg* %1047, i32 0, i32 0
  %PC.i20 = bitcast %union.anon* %1048 to i64*
  %1049 = load i64, i64* %PC.i20
  %1050 = add i64 %1049, -49
  %1051 = load i64, i64* %PC.i20
  %1052 = add i64 %1051, 5
  store i64 %1052, i64* %PC.i20
  %1053 = getelementptr inbounds %struct.State, %struct.State* %0, i64 0, i32 6, i32 33, i32 0, i32 0
  store i64 %1050, i64* %1053, align 8
  store %struct.Memory* %loadMem_402598, %struct.Memory** %MEMORY
  br label %block_.L_402567

block_.L_40259d:                                  ; preds = %block_.L_402567
  %loadMem_40259d = load %struct.Memory*, %struct.Memory** %MEMORY
  %1054 = getelementptr inbounds %struct.State, %struct.State* %0, i32 0, i32 6
  %1055 = getelementptr inbounds %struct.GPR, %struct.GPR* %1054, i32 0, i32 33
  %1056 = getelementptr inbounds %struct.Reg, %struct.Reg* %1055, i32 0, i32 0
  %PC.i19 = bitcast %union.anon* %1056 to i64*
  %1057 = load i64, i64* %PC.i19
  %1058 = add i64 %1057, 5
  %1059 = load i64, i64* %PC.i19
  %1060 = add i64 %1059, 5
  store i64 %1060, i64* %PC.i19
  %1061 = getelementptr inbounds %struct.State, %struct.State* %0, i64 0, i32 6, i32 33, i32 0, i32 0
  store i64 %1058, i64* %1061, align 8
  store %struct.Memory* %loadMem_40259d, %struct.Memory** %MEMORY
  br label %block_.L_4025a2

block_.L_4025a2:                                  ; preds = %block_.L_40259d, %block_.L_402556
  %loadMem_4025a2 = load %struct.Memory*, %struct.Memory** %MEMORY
  %1062 = getelementptr inbounds %struct.State, %struct.State* %0, i32 0, i32 6
  %1063 = getelementptr inbounds %struct.GPR, %struct.GPR* %1062, i32 0, i32 33
  %1064 = getelementptr inbounds %struct.Reg, %struct.Reg* %1063, i32 0, i32 0
  %PC.i17 = bitcast %union.anon* %1064 to i64*
  %1065 = getelementptr inbounds %struct.State, %struct.State* %0, i32 0, i32 6
  %1066 = getelementptr inbounds %struct.GPR, %struct.GPR* %1065, i32 0, i32 15
  %1067 = getelementptr inbounds %struct.Reg, %struct.Reg* %1066, i32 0, i32 0
  %RBP.i18 = bitcast %union.anon* %1067 to i64*
  %1068 = getelementptr inbounds %struct.State, %struct.State* %0, i32 0, i32 1
  %1069 = getelementptr inbounds [32 x %union.VectorReg], [32 x %union.VectorReg]* %1068, i64 0, i64 0
  %YMM0.i = bitcast %union.VectorReg* %1069 to %"class.std::bitset"*
  %1070 = bitcast %"class.std::bitset"* %YMM0.i to i8*
  %1071 = load i64, i64* %RBP.i18
  %1072 = sub i64 %1071, 40
  %1073 = load i64, i64* %PC.i17
  %1074 = add i64 %1073, 5
  store i64 %1074, i64* %PC.i17
  %1075 = inttoptr i64 %1072 to double*
  %1076 = load double, double* %1075
  %1077 = bitcast i8* %1070 to double*
  store double %1076, double* %1077, align 1
  %1078 = getelementptr inbounds i8, i8* %1070, i64 8
  %1079 = bitcast i8* %1078 to double*
  store double 0.000000e+00, double* %1079, align 1
  store %struct.Memory* %loadMem_4025a2, %struct.Memory** %MEMORY
  %loadMem1_4025a7 = load %struct.Memory*, %struct.Memory** %MEMORY
  %1080 = getelementptr inbounds %struct.State, %struct.State* %0, i32 0, i32 6
  %1081 = getelementptr inbounds %struct.GPR, %struct.GPR* %1080, i32 0, i32 33
  %1082 = getelementptr inbounds %struct.Reg, %struct.Reg* %1081, i32 0, i32 0
  %PC.i16 = bitcast %union.anon* %1082 to i64*
  %1083 = load i64, i64* %PC.i16
  %1084 = add i64 %1083, -4295
  %1085 = load i64, i64* %PC.i16
  %1086 = add i64 %1085, 5
  %1087 = load i64, i64* %PC.i16
  %1088 = add i64 %1087, 5
  store i64 %1088, i64* %PC.i16
  %1089 = getelementptr inbounds %struct.State, %struct.State* %0, i64 0, i32 6, i32 13, i32 0, i32 0
  %1090 = load i64, i64* %1089, align 8
  %1091 = add i64 %1090, -8
  %1092 = inttoptr i64 %1091 to i64*
  store i64 %1086, i64* %1092
  store i64 %1091, i64* %1089, align 8
  %1093 = getelementptr inbounds %struct.State, %struct.State* %0, i64 0, i32 6, i32 33, i32 0, i32 0
  store i64 %1084, i64* %1093, align 8
  store %struct.Memory* %loadMem1_4025a7, %struct.Memory** %MEMORY
  %loadMem2_4025a7 = load %struct.Memory*, %struct.Memory** %MEMORY
  %loadPC_4025a7 = load i64, i64* %3
  %call2_4025a7 = call %struct.Memory* @sub_4014e0._Z9check_sumIdEvT_(%struct.State* %0, i64 %loadPC_4025a7, %struct.Memory* %loadMem2_4025a7)
  store %struct.Memory* %call2_4025a7, %struct.Memory** %MEMORY
  %loadMem_4025ac = load %struct.Memory*, %struct.Memory** %MEMORY
  %1094 = getelementptr inbounds %struct.State, %struct.State* %0, i32 0, i32 6
  %1095 = getelementptr inbounds %struct.GPR, %struct.GPR* %1094, i32 0, i32 33
  %1096 = getelementptr inbounds %struct.Reg, %struct.Reg* %1095, i32 0, i32 0
  %PC.i13 = bitcast %union.anon* %1096 to i64*
  %1097 = getelementptr inbounds %struct.State, %struct.State* %0, i32 0, i32 6
  %1098 = getelementptr inbounds %struct.GPR, %struct.GPR* %1097, i32 0, i32 1
  %1099 = getelementptr inbounds %struct.Reg, %struct.Reg* %1098, i32 0, i32 0
  %RAX.i14 = bitcast %union.anon* %1099 to i64*
  %1100 = getelementptr inbounds %struct.State, %struct.State* %0, i32 0, i32 6
  %1101 = getelementptr inbounds %struct.GPR, %struct.GPR* %1100, i32 0, i32 15
  %1102 = getelementptr inbounds %struct.Reg, %struct.Reg* %1101, i32 0, i32 0
  %RBP.i15 = bitcast %union.anon* %1102 to i64*
  %1103 = load i64, i64* %RBP.i15
  %1104 = sub i64 %1103, 28
  %1105 = load i64, i64* %PC.i13
  %1106 = add i64 %1105, 3
  store i64 %1106, i64* %PC.i13
  %1107 = inttoptr i64 %1104 to i32*
  %1108 = load i32, i32* %1107
  %1109 = zext i32 %1108 to i64
  store i64 %1109, i64* %RAX.i14, align 8
  store %struct.Memory* %loadMem_4025ac, %struct.Memory** %MEMORY
  %loadMem_4025af = load %struct.Memory*, %struct.Memory** %MEMORY
  %1110 = getelementptr inbounds %struct.State, %struct.State* %0, i32 0, i32 6
  %1111 = getelementptr inbounds %struct.GPR, %struct.GPR* %1110, i32 0, i32 33
  %1112 = getelementptr inbounds %struct.Reg, %struct.Reg* %1111, i32 0, i32 0
  %PC.i12 = bitcast %union.anon* %1112 to i64*
  %1113 = getelementptr inbounds %struct.State, %struct.State* %0, i32 0, i32 6
  %1114 = getelementptr inbounds %struct.GPR, %struct.GPR* %1113, i32 0, i32 1
  %1115 = getelementptr inbounds %struct.Reg, %struct.Reg* %1114, i32 0, i32 0
  %RAX.i = bitcast %union.anon* %1115 to i64*
  %1116 = load i64, i64* %RAX.i
  %1117 = load i64, i64* %PC.i12
  %1118 = add i64 %1117, 3
  store i64 %1118, i64* %PC.i12
  %1119 = trunc i64 %1116 to i32
  %1120 = add i32 1, %1119
  %1121 = zext i32 %1120 to i64
  store i64 %1121, i64* %RAX.i, align 8
  %1122 = icmp ult i32 %1120, %1119
  %1123 = icmp ult i32 %1120, 1
  %1124 = or i1 %1122, %1123
  %1125 = zext i1 %1124 to i8
  %1126 = getelementptr inbounds %struct.State, %struct.State* %0, i64 0, i32 2, i32 1
  store i8 %1125, i8* %1126, align 1
  %1127 = and i32 %1120, 255
  %1128 = call i32 @llvm.ctpop.i32(i32 %1127)
  %1129 = trunc i32 %1128 to i8
  %1130 = and i8 %1129, 1
  %1131 = xor i8 %1130, 1
  %1132 = getelementptr inbounds %struct.State, %struct.State* %0, i64 0, i32 2, i32 3
  store i8 %1131, i8* %1132, align 1
  %1133 = xor i64 1, %1116
  %1134 = trunc i64 %1133 to i32
  %1135 = xor i32 %1134, %1120
  %1136 = lshr i32 %1135, 4
  %1137 = trunc i32 %1136 to i8
  %1138 = and i8 %1137, 1
  %1139 = getelementptr inbounds %struct.State, %struct.State* %0, i64 0, i32 2, i32 5
  store i8 %1138, i8* %1139, align 1
  %1140 = icmp eq i32 %1120, 0
  %1141 = zext i1 %1140 to i8
  %1142 = getelementptr inbounds %struct.State, %struct.State* %0, i64 0, i32 2, i32 7
  store i8 %1141, i8* %1142, align 1
  %1143 = lshr i32 %1120, 31
  %1144 = trunc i32 %1143 to i8
  %1145 = getelementptr inbounds %struct.State, %struct.State* %0, i64 0, i32 2, i32 9
  store i8 %1144, i8* %1145, align 1
  %1146 = lshr i32 %1119, 31
  %1147 = xor i32 %1143, %1146
  %1148 = add i32 %1147, %1143
  %1149 = icmp eq i32 %1148, 2
  %1150 = zext i1 %1149 to i8
  %1151 = getelementptr inbounds %struct.State, %struct.State* %0, i64 0, i32 2, i32 13
  store i8 %1150, i8* %1151, align 1
  store %struct.Memory* %loadMem_4025af, %struct.Memory** %MEMORY
  %loadMem_4025b2 = load %struct.Memory*, %struct.Memory** %MEMORY
  %1152 = getelementptr inbounds %struct.State, %struct.State* %0, i32 0, i32 6
  %1153 = getelementptr inbounds %struct.GPR, %struct.GPR* %1152, i32 0, i32 33
  %1154 = getelementptr inbounds %struct.Reg, %struct.Reg* %1153, i32 0, i32 0
  %PC.i10 = bitcast %union.anon* %1154 to i64*
  %1155 = getelementptr inbounds %struct.State, %struct.State* %0, i32 0, i32 6
  %1156 = getelementptr inbounds %struct.GPR, %struct.GPR* %1155, i32 0, i32 1
  %1157 = getelementptr inbounds %struct.Reg, %struct.Reg* %1156, i32 0, i32 0
  %EAX.i = bitcast %union.anon* %1157 to i32*
  %1158 = getelementptr inbounds %struct.State, %struct.State* %0, i32 0, i32 6
  %1159 = getelementptr inbounds %struct.GPR, %struct.GPR* %1158, i32 0, i32 15
  %1160 = getelementptr inbounds %struct.Reg, %struct.Reg* %1159, i32 0, i32 0
  %RBP.i11 = bitcast %union.anon* %1160 to i64*
  %1161 = load i64, i64* %RBP.i11
  %1162 = sub i64 %1161, 28
  %1163 = load i32, i32* %EAX.i
  %1164 = zext i32 %1163 to i64
  %1165 = load i64, i64* %PC.i10
  %1166 = add i64 %1165, 3
  store i64 %1166, i64* %PC.i10
  %1167 = inttoptr i64 %1162 to i32*
  store i32 %1163, i32* %1167
  store %struct.Memory* %loadMem_4025b2, %struct.Memory** %MEMORY
  %loadMem_4025b5 = load %struct.Memory*, %struct.Memory** %MEMORY
  %1168 = getelementptr inbounds %struct.State, %struct.State* %0, i32 0, i32 6
  %1169 = getelementptr inbounds %struct.GPR, %struct.GPR* %1168, i32 0, i32 33
  %1170 = getelementptr inbounds %struct.Reg, %struct.Reg* %1169, i32 0, i32 0
  %PC.i9 = bitcast %union.anon* %1170 to i64*
  %1171 = load i64, i64* %PC.i9
  %1172 = add i64 %1171, -198
  %1173 = load i64, i64* %PC.i9
  %1174 = add i64 %1173, 5
  store i64 %1174, i64* %PC.i9
  %1175 = getelementptr inbounds %struct.State, %struct.State* %0, i64 0, i32 6, i32 33, i32 0, i32 0
  store i64 %1172, i64* %1175, align 8
  store %struct.Memory* %loadMem_4025b5, %struct.Memory** %MEMORY
  br label %block_.L_4024ef

block_.L_4025ba:                                  ; preds = %block_.L_4024ef
  %loadMem1_4025ba = load %struct.Memory*, %struct.Memory** %MEMORY
  %1176 = getelementptr inbounds %struct.State, %struct.State* %0, i32 0, i32 6
  %1177 = getelementptr inbounds %struct.GPR, %struct.GPR* %1176, i32 0, i32 33
  %1178 = getelementptr inbounds %struct.Reg, %struct.Reg* %1177, i32 0, i32 0
  %PC.i8 = bitcast %union.anon* %1178 to i64*
  %1179 = load i64, i64* %PC.i8
  %1180 = add i64 %1179, -6042
  %1181 = load i64, i64* %PC.i8
  %1182 = add i64 %1181, 5
  %1183 = load i64, i64* %PC.i8
  %1184 = add i64 %1183, 5
  store i64 %1184, i64* %PC.i8
  %1185 = getelementptr inbounds %struct.State, %struct.State* %0, i64 0, i32 6, i32 13, i32 0, i32 0
  %1186 = load i64, i64* %1185, align 8
  %1187 = add i64 %1186, -8
  %1188 = inttoptr i64 %1187 to i64*
  store i64 %1182, i64* %1188
  store i64 %1187, i64* %1185, align 8
  %1189 = getelementptr inbounds %struct.State, %struct.State* %0, i64 0, i32 6, i32 33, i32 0, i32 0
  store i64 %1180, i64* %1189, align 8
  store %struct.Memory* %loadMem1_4025ba, %struct.Memory** %MEMORY
  %loadMem2_4025ba = load %struct.Memory*, %struct.Memory** %MEMORY
  %loadPC_4025ba = load i64, i64* %3
  %call2_4025ba = call %struct.Memory* @sub_400e20._Z5timerv(%struct.State* %0, i64 %loadPC_4025ba, %struct.Memory* %loadMem2_4025ba)
  store %struct.Memory* %call2_4025ba, %struct.Memory** %MEMORY
  %loadMem_4025bf = load %struct.Memory*, %struct.Memory** %MEMORY
  %1190 = getelementptr inbounds %struct.State, %struct.State* %0, i32 0, i32 6
  %1191 = getelementptr inbounds %struct.GPR, %struct.GPR* %1190, i32 0, i32 33
  %1192 = getelementptr inbounds %struct.Reg, %struct.Reg* %1191, i32 0, i32 0
  %PC.i6 = bitcast %union.anon* %1192 to i64*
  %1193 = getelementptr inbounds %struct.State, %struct.State* %0, i32 0, i32 6
  %1194 = getelementptr inbounds %struct.GPR, %struct.GPR* %1193, i32 0, i32 11
  %1195 = getelementptr inbounds %struct.Reg, %struct.Reg* %1194, i32 0, i32 0
  %RDI.i = bitcast %union.anon* %1195 to i64*
  %1196 = getelementptr inbounds %struct.State, %struct.State* %0, i32 0, i32 6
  %1197 = getelementptr inbounds %struct.GPR, %struct.GPR* %1196, i32 0, i32 15
  %1198 = getelementptr inbounds %struct.Reg, %struct.Reg* %1197, i32 0, i32 0
  %RBP.i7 = bitcast %union.anon* %1198 to i64*
  %1199 = load i64, i64* %RBP.i7
  %1200 = sub i64 %1199, 24
  %1201 = load i64, i64* %PC.i6
  %1202 = add i64 %1201, 4
  store i64 %1202, i64* %PC.i6
  %1203 = inttoptr i64 %1200 to i64*
  %1204 = load i64, i64* %1203
  store i64 %1204, i64* %RDI.i, align 8
  store %struct.Memory* %loadMem_4025bf, %struct.Memory** %MEMORY
  %loadMem1_4025c3 = load %struct.Memory*, %struct.Memory** %MEMORY
  %1205 = getelementptr inbounds %struct.State, %struct.State* %0, i32 0, i32 6
  %1206 = getelementptr inbounds %struct.GPR, %struct.GPR* %1205, i32 0, i32 33
  %1207 = getelementptr inbounds %struct.Reg, %struct.Reg* %1206, i32 0, i32 0
  %PC.i5 = bitcast %union.anon* %1207 to i64*
  %1208 = load i64, i64* %PC.i5
  %1209 = add i64 %1208, -7683
  %1210 = load i64, i64* %PC.i5
  %1211 = add i64 %1210, 5
  %1212 = load i64, i64* %PC.i5
  %1213 = add i64 %1212, 5
  store i64 %1213, i64* %PC.i5
  %1214 = getelementptr inbounds %struct.State, %struct.State* %0, i64 0, i32 6, i32 13, i32 0, i32 0
  %1215 = load i64, i64* %1214, align 8
  %1216 = add i64 %1215, -8
  %1217 = inttoptr i64 %1216 to i64*
  store i64 %1211, i64* %1217
  store i64 %1216, i64* %1214, align 8
  %1218 = getelementptr inbounds %struct.State, %struct.State* %0, i64 0, i32 6, i32 33, i32 0, i32 0
  store i64 %1209, i64* %1218, align 8
  store %struct.Memory* %loadMem1_4025c3, %struct.Memory** %MEMORY
  %loadMem2_4025c3 = load %struct.Memory*, %struct.Memory** %MEMORY
  %loadPC_4025c3 = load i64, i64* %3
  %call2_4025c3 = call %struct.Memory* @sub_4007c0._Z13record_resultdPKc(%struct.State* %0, i64 %loadPC_4025c3, %struct.Memory* %loadMem2_4025c3)
  store %struct.Memory* %call2_4025c3, %struct.Memory** %MEMORY
  %loadMem_4025c8 = load %struct.Memory*, %struct.Memory** %MEMORY
  %1219 = getelementptr inbounds %struct.State, %struct.State* %0, i32 0, i32 6
  %1220 = getelementptr inbounds %struct.GPR, %struct.GPR* %1219, i32 0, i32 33
  %1221 = getelementptr inbounds %struct.Reg, %struct.Reg* %1220, i32 0, i32 0
  %PC.i4 = bitcast %union.anon* %1221 to i64*
  %1222 = getelementptr inbounds %struct.State, %struct.State* %0, i32 0, i32 6
  %1223 = getelementptr inbounds %struct.GPR, %struct.GPR* %1222, i32 0, i32 13
  %1224 = getelementptr inbounds %struct.Reg, %struct.Reg* %1223, i32 0, i32 0
  %RSP.i = bitcast %union.anon* %1224 to i64*
  %1225 = load i64, i64* %RSP.i
  %1226 = load i64, i64* %PC.i4
  %1227 = add i64 %1226, 4
  store i64 %1227, i64* %PC.i4
  %1228 = add i64 48, %1225
  store i64 %1228, i64* %RSP.i, align 8
  %1229 = icmp ult i64 %1228, %1225
  %1230 = icmp ult i64 %1228, 48
  %1231 = or i1 %1229, %1230
  %1232 = zext i1 %1231 to i8
  %1233 = getelementptr inbounds %struct.State, %struct.State* %0, i64 0, i32 2, i32 1
  store i8 %1232, i8* %1233, align 1
  %1234 = trunc i64 %1228 to i32
  %1235 = and i32 %1234, 255
  %1236 = call i32 @llvm.ctpop.i32(i32 %1235)
  %1237 = trunc i32 %1236 to i8
  %1238 = and i8 %1237, 1
  %1239 = xor i8 %1238, 1
  %1240 = getelementptr inbounds %struct.State, %struct.State* %0, i64 0, i32 2, i32 3
  store i8 %1239, i8* %1240, align 1
  %1241 = xor i64 48, %1225
  %1242 = xor i64 %1241, %1228
  %1243 = lshr i64 %1242, 4
  %1244 = trunc i64 %1243 to i8
  %1245 = and i8 %1244, 1
  %1246 = getelementptr inbounds %struct.State, %struct.State* %0, i64 0, i32 2, i32 5
  store i8 %1245, i8* %1246, align 1
  %1247 = icmp eq i64 %1228, 0
  %1248 = zext i1 %1247 to i8
  %1249 = getelementptr inbounds %struct.State, %struct.State* %0, i64 0, i32 2, i32 7
  store i8 %1248, i8* %1249, align 1
  %1250 = lshr i64 %1228, 63
  %1251 = trunc i64 %1250 to i8
  %1252 = getelementptr inbounds %struct.State, %struct.State* %0, i64 0, i32 2, i32 9
  store i8 %1251, i8* %1252, align 1
  %1253 = lshr i64 %1225, 63
  %1254 = xor i64 %1250, %1253
  %1255 = add i64 %1254, %1250
  %1256 = icmp eq i64 %1255, 2
  %1257 = zext i1 %1256 to i8
  %1258 = getelementptr inbounds %struct.State, %struct.State* %0, i64 0, i32 2, i32 13
  store i8 %1257, i8* %1258, align 1
  store %struct.Memory* %loadMem_4025c8, %struct.Memory** %MEMORY
  %loadMem_4025cc = load %struct.Memory*, %struct.Memory** %MEMORY
  %1259 = getelementptr inbounds %struct.State, %struct.State* %0, i32 0, i32 6
  %1260 = getelementptr inbounds %struct.GPR, %struct.GPR* %1259, i32 0, i32 33
  %1261 = getelementptr inbounds %struct.Reg, %struct.Reg* %1260, i32 0, i32 0
  %PC.i2 = bitcast %union.anon* %1261 to i64*
  %1262 = getelementptr inbounds %struct.State, %struct.State* %0, i32 0, i32 6
  %1263 = getelementptr inbounds %struct.GPR, %struct.GPR* %1262, i32 0, i32 15
  %1264 = getelementptr inbounds %struct.Reg, %struct.Reg* %1263, i32 0, i32 0
  %RBP.i3 = bitcast %union.anon* %1264 to i64*
  %1265 = load i64, i64* %PC.i2
  %1266 = add i64 %1265, 1
  store i64 %1266, i64* %PC.i2
  %1267 = getelementptr inbounds %struct.State, %struct.State* %0, i64 0, i32 6, i32 13, i32 0, i32 0
  %1268 = load i64, i64* %1267, align 8
  %1269 = add i64 %1268, 8
  %1270 = inttoptr i64 %1268 to i64*
  %1271 = load i64, i64* %1270
  store i64 %1271, i64* %RBP.i3, align 8
  store i64 %1269, i64* %1267, align 8
  store %struct.Memory* %loadMem_4025cc, %struct.Memory** %MEMORY
  %loadMem_4025cd = load %struct.Memory*, %struct.Memory** %MEMORY
  %1272 = getelementptr inbounds %struct.State, %struct.State* %0, i32 0, i32 6
  %1273 = getelementptr inbounds %struct.GPR, %struct.GPR* %1272, i32 0, i32 33
  %1274 = getelementptr inbounds %struct.Reg, %struct.Reg* %1273, i32 0, i32 0
  %PC.i1 = bitcast %union.anon* %1274 to i64*
  %1275 = load i64, i64* %PC.i1
  %1276 = add i64 %1275, 1
  store i64 %1276, i64* %PC.i1
  %1277 = getelementptr inbounds %struct.State, %struct.State* %0, i64 0, i32 6, i32 33, i32 0, i32 0
  %1278 = getelementptr inbounds %struct.State, %struct.State* %0, i64 0, i32 6, i32 13, i32 0, i32 0
  %1279 = load i64, i64* %1278, align 8
  %1280 = inttoptr i64 %1279 to i64*
  %1281 = load i64, i64* %1280
  store i64 %1281, i64* %1277, align 8
  %1282 = add i64 %1279, 8
  store i64 %1282, i64* %1278, align 8
  store %struct.Memory* %loadMem_4025cd, %struct.Memory** %MEMORY
  ret %struct.Memory* %loadMem_4025cd
}

define %struct.Memory* @routine_pushq__rbp(%struct.State* dereferenceable(3376), i64, %struct.Memory*) {
block_400488:
  %3 = getelementptr inbounds %struct.State, %struct.State* %0, i32 0, i32 6
  %4 = getelementptr inbounds %struct.GPR, %struct.GPR* %3, i32 0, i32 33
  %5 = getelementptr inbounds %struct.Reg, %struct.Reg* %4, i32 0, i32 0
  %PC = bitcast %union.anon* %5 to i64*
  %6 = getelementptr inbounds %struct.State, %struct.State* %0, i32 0, i32 6
  %7 = getelementptr inbounds %struct.GPR, %struct.GPR* %6, i32 0, i32 15
  %8 = getelementptr inbounds %struct.Reg, %struct.Reg* %7, i32 0, i32 0
  %RBP = bitcast %union.anon* %8 to i64*
  %9 = load i64, i64* %RBP
  %10 = load i64, i64* %PC
  %11 = add i64 %10, 1
  store i64 %11, i64* %PC
  %12 = getelementptr inbounds %struct.State, %struct.State* %0, i64 0, i32 6, i32 13, i32 0, i32 0
  %13 = load i64, i64* %12, align 8
  %14 = add i64 %13, -8
  %15 = inttoptr i64 %14 to i64*
  store i64 %9, i64* %15
  store i64 %14, i64* %12, align 8
  ret %struct.Memory* %2
}

define %struct.Memory* @routine_movq__rsp___rbp(%struct.State* dereferenceable(3376), i64, %struct.Memory*) {
block_400488:
  %3 = getelementptr inbounds %struct.State, %struct.State* %0, i32 0, i32 6
  %4 = getelementptr inbounds %struct.GPR, %struct.GPR* %3, i32 0, i32 33
  %5 = getelementptr inbounds %struct.Reg, %struct.Reg* %4, i32 0, i32 0
  %PC = bitcast %union.anon* %5 to i64*
  %6 = getelementptr inbounds %struct.State, %struct.State* %0, i32 0, i32 6
  %7 = getelementptr inbounds %struct.GPR, %struct.GPR* %6, i32 0, i32 13
  %8 = getelementptr inbounds %struct.Reg, %struct.Reg* %7, i32 0, i32 0
  %RSP = bitcast %union.anon* %8 to i64*
  %9 = getelementptr inbounds %struct.State, %struct.State* %0, i32 0, i32 6
  %10 = getelementptr inbounds %struct.GPR, %struct.GPR* %9, i32 0, i32 15
  %11 = getelementptr inbounds %struct.Reg, %struct.Reg* %10, i32 0, i32 0
  %RBP = bitcast %union.anon* %11 to i64*
  %12 = load i64, i64* %RSP
  %13 = load i64, i64* %PC
  %14 = add i64 %13, 3
  store i64 %14, i64* %PC
  store i64 %12, i64* %RBP, align 8
  ret %struct.Memory* %2
}

define %struct.Memory* @routine_subq__0x30___rsp(%struct.State* dereferenceable(3376), i64, %struct.Memory*) {
block_400488:
  %3 = getelementptr inbounds %struct.State, %struct.State* %0, i32 0, i32 6
  %4 = getelementptr inbounds %struct.GPR, %struct.GPR* %3, i32 0, i32 33
  %5 = getelementptr inbounds %struct.Reg, %struct.Reg* %4, i32 0, i32 0
  %PC = bitcast %union.anon* %5 to i64*
  %6 = getelementptr inbounds %struct.State, %struct.State* %0, i32 0, i32 6
  %7 = getelementptr inbounds %struct.GPR, %struct.GPR* %6, i32 0, i32 13
  %8 = getelementptr inbounds %struct.Reg, %struct.Reg* %7, i32 0, i32 0
  %RSP = bitcast %union.anon* %8 to i64*
  %9 = load i64, i64* %RSP
  %10 = load i64, i64* %PC
  %11 = add i64 %10, 4
  store i64 %11, i64* %PC
  %12 = sub i64 %9, 48
  store i64 %12, i64* %RSP, align 8
  %13 = icmp ult i64 %9, 48
  %14 = zext i1 %13 to i8
  %15 = getelementptr inbounds %struct.State, %struct.State* %0, i64 0, i32 2, i32 1
  store i8 %14, i8* %15, align 1
  %16 = trunc i64 %12 to i32
  %17 = and i32 %16, 255
  %18 = call i32 @llvm.ctpop.i32(i32 %17)
  %19 = trunc i32 %18 to i8
  %20 = and i8 %19, 1
  %21 = xor i8 %20, 1
  %22 = getelementptr inbounds %struct.State, %struct.State* %0, i64 0, i32 2, i32 3
  store i8 %21, i8* %22, align 1
  %23 = xor i64 48, %9
  %24 = xor i64 %23, %12
  %25 = lshr i64 %24, 4
  %26 = trunc i64 %25 to i8
  %27 = and i8 %26, 1
  %28 = getelementptr inbounds %struct.State, %struct.State* %0, i64 0, i32 2, i32 5
  store i8 %27, i8* %28, align 1
  %29 = icmp eq i64 %12, 0
  %30 = zext i1 %29 to i8
  %31 = getelementptr inbounds %struct.State, %struct.State* %0, i64 0, i32 2, i32 7
  store i8 %30, i8* %31, align 1
  %32 = lshr i64 %12, 63
  %33 = trunc i64 %32 to i8
  %34 = getelementptr inbounds %struct.State, %struct.State* %0, i64 0, i32 2, i32 9
  store i8 %33, i8* %34, align 1
  %35 = lshr i64 %9, 63
  %36 = xor i64 %32, %35
  %37 = add i64 %36, %35
  %38 = icmp eq i64 %37, 2
  %39 = zext i1 %38 to i8
  %40 = getelementptr inbounds %struct.State, %struct.State* %0, i64 0, i32 2, i32 13
  store i8 %39, i8* %40, align 1
  ret %struct.Memory* %2
}

define %struct.Memory* @routine_movq__rdi__MINUS0x8__rbp_(%struct.State* dereferenceable(3376), i64, %struct.Memory*) {
block_400488:
  %3 = getelementptr inbounds %struct.State, %struct.State* %0, i32 0, i32 6
  %4 = getelementptr inbounds %struct.GPR, %struct.GPR* %3, i32 0, i32 33
  %5 = getelementptr inbounds %struct.Reg, %struct.Reg* %4, i32 0, i32 0
  %PC = bitcast %union.anon* %5 to i64*
  %6 = getelementptr inbounds %struct.State, %struct.State* %0, i32 0, i32 6
  %7 = getelementptr inbounds %struct.GPR, %struct.GPR* %6, i32 0, i32 11
  %8 = getelementptr inbounds %struct.Reg, %struct.Reg* %7, i32 0, i32 0
  %RDI = bitcast %union.anon* %8 to i64*
  %9 = getelementptr inbounds %struct.State, %struct.State* %0, i32 0, i32 6
  %10 = getelementptr inbounds %struct.GPR, %struct.GPR* %9, i32 0, i32 15
  %11 = getelementptr inbounds %struct.Reg, %struct.Reg* %10, i32 0, i32 0
  %RBP = bitcast %union.anon* %11 to i64*
  %12 = load i64, i64* %RBP
  %13 = sub i64 %12, 8
  %14 = load i64, i64* %RDI
  %15 = load i64, i64* %PC
  %16 = add i64 %15, 4
  store i64 %16, i64* %PC
  %17 = inttoptr i64 %13 to i64*
  store i64 %14, i64* %17
  ret %struct.Memory* %2
}

define %struct.Memory* @routine_movl__esi__MINUS0xc__rbp_(%struct.State* dereferenceable(3376), i64, %struct.Memory*) {
block_400488:
  %3 = getelementptr inbounds %struct.State, %struct.State* %0, i32 0, i32 6
  %4 = getelementptr inbounds %struct.GPR, %struct.GPR* %3, i32 0, i32 33
  %5 = getelementptr inbounds %struct.Reg, %struct.Reg* %4, i32 0, i32 0
  %PC = bitcast %union.anon* %5 to i64*
  %6 = getelementptr inbounds %struct.State, %struct.State* %0, i32 0, i32 6
  %7 = getelementptr inbounds %struct.GPR, %struct.GPR* %6, i32 0, i32 9
  %8 = getelementptr inbounds %struct.Reg, %struct.Reg* %7, i32 0, i32 0
  %ESI = bitcast %union.anon* %8 to i32*
  %9 = getelementptr inbounds %struct.State, %struct.State* %0, i32 0, i32 6
  %10 = getelementptr inbounds %struct.GPR, %struct.GPR* %9, i32 0, i32 15
  %11 = getelementptr inbounds %struct.Reg, %struct.Reg* %10, i32 0, i32 0
  %RBP = bitcast %union.anon* %11 to i64*
  %12 = load i64, i64* %RBP
  %13 = sub i64 %12, 12
  %14 = load i32, i32* %ESI
  %15 = zext i32 %14 to i64
  %16 = load i64, i64* %PC
  %17 = add i64 %16, 3
  store i64 %17, i64* %PC
  %18 = inttoptr i64 %13 to i32*
  store i32 %14, i32* %18
  ret %struct.Memory* %2
}

define %struct.Memory* @routine_movq__rdx__MINUS0x18__rbp_(%struct.State* dereferenceable(3376), i64, %struct.Memory*) {
block_400488:
  %3 = getelementptr inbounds %struct.State, %struct.State* %0, i32 0, i32 6
  %4 = getelementptr inbounds %struct.GPR, %struct.GPR* %3, i32 0, i32 33
  %5 = getelementptr inbounds %struct.Reg, %struct.Reg* %4, i32 0, i32 0
  %PC = bitcast %union.anon* %5 to i64*
  %6 = getelementptr inbounds %struct.State, %struct.State* %0, i32 0, i32 6
  %7 = getelementptr inbounds %struct.GPR, %struct.GPR* %6, i32 0, i32 7
  %8 = getelementptr inbounds %struct.Reg, %struct.Reg* %7, i32 0, i32 0
  %RDX = bitcast %union.anon* %8 to i64*
  %9 = getelementptr inbounds %struct.State, %struct.State* %0, i32 0, i32 6
  %10 = getelementptr inbounds %struct.GPR, %struct.GPR* %9, i32 0, i32 15
  %11 = getelementptr inbounds %struct.Reg, %struct.Reg* %10, i32 0, i32 0
  %RBP = bitcast %union.anon* %11 to i64*
  %12 = load i64, i64* %RBP
  %13 = sub i64 %12, 24
  %14 = load i64, i64* %RDX
  %15 = load i64, i64* %PC
  %16 = add i64 %15, 4
  store i64 %16, i64* %PC
  %17 = inttoptr i64 %13 to i64*
  store i64 %14, i64* %17
  ret %struct.Memory* %2
}

define %struct.Memory* @routine_callq_._Z11start_timerv(%struct.State* dereferenceable(3376), i64, %struct.Memory*, i64 %rel_off1, i64 %rel_off2, i64 %rel_off3) {
block_400488:
  %3 = getelementptr inbounds %struct.State, %struct.State* %0, i32 0, i32 6
  %4 = getelementptr inbounds %struct.GPR, %struct.GPR* %3, i32 0, i32 33
  %5 = getelementptr inbounds %struct.Reg, %struct.Reg* %4, i32 0, i32 0
  %PC = bitcast %union.anon* %5 to i64*
  %6 = load i64, i64* %PC
  %7 = add i64 %6, %rel_off1
  %8 = load i64, i64* %PC
  %9 = add i64 %8, %rel_off2
  %10 = load i64, i64* %PC
  %11 = add i64 %10, %rel_off3
  store i64 %11, i64* %PC
  %12 = getelementptr inbounds %struct.State, %struct.State* %0, i64 0, i32 6, i32 13, i32 0, i32 0
  %13 = load i64, i64* %12, align 8
  %14 = add i64 %13, -8
  %15 = inttoptr i64 %14 to i64*
  store i64 %9, i64* %15
  store i64 %14, i64* %12, align 8
  %16 = getelementptr inbounds %struct.State, %struct.State* %0, i64 0, i32 6, i32 33, i32 0, i32 0
  store i64 %7, i64* %16, align 8
  ret %struct.Memory* %2
}

define %struct.Memory* @routine_movl__0x0__MINUS0x1c__rbp_(%struct.State* dereferenceable(3376), i64, %struct.Memory*) {
block_400488:
  %3 = getelementptr inbounds %struct.State, %struct.State* %0, i32 0, i32 6
  %4 = getelementptr inbounds %struct.GPR, %struct.GPR* %3, i32 0, i32 33
  %5 = getelementptr inbounds %struct.Reg, %struct.Reg* %4, i32 0, i32 0
  %PC = bitcast %union.anon* %5 to i64*
  %6 = getelementptr inbounds %struct.State, %struct.State* %0, i32 0, i32 6
  %7 = getelementptr inbounds %struct.GPR, %struct.GPR* %6, i32 0, i32 15
  %8 = getelementptr inbounds %struct.Reg, %struct.Reg* %7, i32 0, i32 0
  %RBP = bitcast %union.anon* %8 to i64*
  %9 = load i64, i64* %RBP
  %10 = sub i64 %9, 28
  %11 = load i64, i64* %PC
  %12 = add i64 %11, 7
  store i64 %12, i64* %PC
  %13 = inttoptr i64 %10 to i32*
  store i32 0, i32* %13
  ret %struct.Memory* %2
}

define %struct.Memory* @routine_movl_MINUS0x1c__rbp____eax(%struct.State* dereferenceable(3376), i64, %struct.Memory*) {
block_400488:
  %3 = getelementptr inbounds %struct.State, %struct.State* %0, i32 0, i32 6
  %4 = getelementptr inbounds %struct.GPR, %struct.GPR* %3, i32 0, i32 33
  %5 = getelementptr inbounds %struct.Reg, %struct.Reg* %4, i32 0, i32 0
  %PC = bitcast %union.anon* %5 to i64*
  %6 = getelementptr inbounds %struct.State, %struct.State* %0, i32 0, i32 6
  %7 = getelementptr inbounds %struct.GPR, %struct.GPR* %6, i32 0, i32 1
  %8 = getelementptr inbounds %struct.Reg, %struct.Reg* %7, i32 0, i32 0
  %RAX = bitcast %union.anon* %8 to i64*
  %9 = getelementptr inbounds %struct.State, %struct.State* %0, i32 0, i32 6
  %10 = getelementptr inbounds %struct.GPR, %struct.GPR* %9, i32 0, i32 15
  %11 = getelementptr inbounds %struct.Reg, %struct.Reg* %10, i32 0, i32 0
  %RBP = bitcast %union.anon* %11 to i64*
  %12 = load i64, i64* %RBP
  %13 = sub i64 %12, 28
  %14 = load i64, i64* %PC
  %15 = add i64 %14, 3
  store i64 %15, i64* %PC
  %16 = inttoptr i64 %13 to i32*
  %17 = load i32, i32* %16
  %18 = zext i32 %17 to i64
  store i64 %18, i64* %RAX, align 8
  ret %struct.Memory* %2
}

define %struct.Memory* @routine_cmpl_0x61c078___eax(%struct.State* dereferenceable(3376), i64, %struct.Memory*) {
block_400488:
  %3 = getelementptr inbounds %struct.State, %struct.State* %0, i32 0, i32 6
  %4 = getelementptr inbounds %struct.GPR, %struct.GPR* %3, i32 0, i32 33
  %5 = getelementptr inbounds %struct.Reg, %struct.Reg* %4, i32 0, i32 0
  %PC = bitcast %union.anon* %5 to i64*
  %6 = getelementptr inbounds %struct.State, %struct.State* %0, i32 0, i32 6
  %7 = getelementptr inbounds %struct.GPR, %struct.GPR* %6, i32 0, i32 1
  %8 = getelementptr inbounds %struct.Reg, %struct.Reg* %7, i32 0, i32 0
  %EAX = bitcast %union.anon* %8 to i32*
  %9 = load i32, i32* %EAX
  %10 = zext i32 %9 to i64
  %11 = load i64, i64* %PC
  %12 = add i64 %11, 7
  store i64 %12, i64* %PC
  %13 = load i32, i32* inttoptr (i64 6406264 to i32*)
  %14 = sub i32 %9, %13
  %15 = icmp ult i32 %9, %13
  %16 = zext i1 %15 to i8
  %17 = getelementptr inbounds %struct.State, %struct.State* %0, i64 0, i32 2, i32 1
  store i8 %16, i8* %17, align 1
  %18 = and i32 %14, 255
  %19 = call i32 @llvm.ctpop.i32(i32 %18)
  %20 = trunc i32 %19 to i8
  %21 = and i8 %20, 1
  %22 = xor i8 %21, 1
  %23 = getelementptr inbounds %struct.State, %struct.State* %0, i64 0, i32 2, i32 3
  store i8 %22, i8* %23, align 1
  %24 = xor i32 %13, %9
  %25 = xor i32 %24, %14
  %26 = lshr i32 %25, 4
  %27 = trunc i32 %26 to i8
  %28 = and i8 %27, 1
  %29 = getelementptr inbounds %struct.State, %struct.State* %0, i64 0, i32 2, i32 5
  store i8 %28, i8* %29, align 1
  %30 = icmp eq i32 %14, 0
  %31 = zext i1 %30 to i8
  %32 = getelementptr inbounds %struct.State, %struct.State* %0, i64 0, i32 2, i32 7
  store i8 %31, i8* %32, align 1
  %33 = lshr i32 %14, 31
  %34 = trunc i32 %33 to i8
  %35 = getelementptr inbounds %struct.State, %struct.State* %0, i64 0, i32 2, i32 9
  store i8 %34, i8* %35, align 1
  %36 = lshr i32 %9, 31
  %37 = lshr i32 %13, 31
  %38 = xor i32 %37, %36
  %39 = xor i32 %33, %36
  %40 = add i32 %39, %38
  %41 = icmp eq i32 %40, 2
  %42 = zext i1 %41 to i8
  %43 = getelementptr inbounds %struct.State, %struct.State* %0, i64 0, i32 2, i32 13
  store i8 %42, i8* %43, align 1
  ret %struct.Memory* %2
}

define %struct.Memory* @routine_jge_.L_4025ba(%struct.State* dereferenceable(3376), i64, %struct.Memory*, i8* %BRANCH_TAKEN, i64 %rel_off1, i64 %rel_off2, i64 %rel_off3) {
block_400488:
  %3 = getelementptr inbounds %struct.State, %struct.State* %0, i32 0, i32 6
  %4 = getelementptr inbounds %struct.GPR, %struct.GPR* %3, i32 0, i32 33
  %5 = getelementptr inbounds %struct.Reg, %struct.Reg* %4, i32 0, i32 0
  %PC = bitcast %union.anon* %5 to i64*
  %6 = load i64, i64* %PC
  %7 = add i64 %6, %rel_off1
  %8 = load i64, i64* %PC
  %9 = add i64 %8, %rel_off2
  %10 = load i64, i64* %PC
  %11 = add i64 %10, %rel_off3
  store i64 %11, i64* %PC
  %12 = getelementptr inbounds %struct.State, %struct.State* %0, i64 0, i32 2, i32 9
  %13 = load i8, i8* %12, align 1
  %14 = icmp ne i8 %13, 0
  %15 = getelementptr inbounds %struct.State, %struct.State* %0, i64 0, i32 2, i32 13
  %16 = load i8, i8* %15, align 1
  %17 = icmp ne i8 %16, 0
  %18 = xor i1 %14, %17
  %19 = xor i1 %18, true
  %20 = zext i1 %19 to i8
  store i8 %20, i8* %BRANCH_TAKEN, align 1
  %21 = getelementptr inbounds %struct.State, %struct.State* %0, i64 0, i32 6, i32 33, i32 0, i32 0
  %22 = select i1 %18, i64 %9, i64 %7
  store i64 %22, i64* %21, align 8
  ret %struct.Memory* %2
}

define %struct.Memory* @routine_xorps__xmm0___xmm0(%struct.State* dereferenceable(3376), i64, %struct.Memory*) {
block_400488:
  %3 = getelementptr inbounds %struct.State, %struct.State* %0, i32 0, i32 6
  %4 = getelementptr inbounds %struct.GPR, %struct.GPR* %3, i32 0, i32 33
  %5 = getelementptr inbounds %struct.Reg, %struct.Reg* %4, i32 0, i32 0
  %PC = bitcast %union.anon* %5 to i64*
  %6 = getelementptr inbounds %struct.State, %struct.State* %0, i32 0, i32 1
  %7 = getelementptr inbounds [32 x %union.VectorReg], [32 x %union.VectorReg]* %6, i64 0, i64 0
  %YMM0 = bitcast %union.VectorReg* %7 to %"class.std::bitset"*
  %8 = getelementptr inbounds %struct.State, %struct.State* %0, i32 0, i32 1
  %9 = getelementptr inbounds [32 x %union.VectorReg], [32 x %union.VectorReg]* %8, i64 0, i64 0
  %XMM0 = bitcast %union.VectorReg* %9 to %union.vec128_t*
  %10 = bitcast %"class.std::bitset"* %YMM0 to i8*
  %11 = bitcast %"class.std::bitset"* %YMM0 to i8*
  %12 = bitcast %union.vec128_t* %XMM0 to i8*
  %13 = load i64, i64* %PC
  %14 = add i64 %13, 3
  store i64 %14, i64* %PC
  %15 = bitcast i8* %11 to i64*
  %16 = load i64, i64* %15, align 1
  %17 = getelementptr inbounds i8, i8* %11, i64 8
  %18 = bitcast i8* %17 to i64*
  %19 = load i64, i64* %18, align 1
  %20 = bitcast i8* %12 to i64*
  %21 = load i64, i64* %20, align 1
  %22 = getelementptr inbounds i8, i8* %12, i64 8
  %23 = bitcast i8* %22 to i64*
  %24 = load i64, i64* %23, align 1
  %25 = xor i64 %21, %16
  %26 = xor i64 %24, %19
  %27 = trunc i64 %25 to i32
  %28 = lshr i64 %25, 32
  %29 = trunc i64 %28 to i32
  %30 = bitcast i8* %10 to i32*
  store i32 %27, i32* %30, align 1
  %31 = getelementptr inbounds i8, i8* %10, i64 4
  %32 = bitcast i8* %31 to i32*
  store i32 %29, i32* %32, align 1
  %33 = trunc i64 %26 to i32
  %34 = getelementptr inbounds i8, i8* %10, i64 8
  %35 = bitcast i8* %34 to i32*
  store i32 %33, i32* %35, align 1
  %36 = lshr i64 %26, 32
  %37 = trunc i64 %36 to i32
  %38 = getelementptr inbounds i8, i8* %10, i64 12
  %39 = bitcast i8* %38 to i32*
  store i32 %37, i32* %39, align 1
  ret %struct.Memory* %2
}

define %struct.Memory* @routine_movsd__xmm0__MINUS0x28__rbp_(%struct.State* dereferenceable(3376), i64, %struct.Memory*) {
block_400488:
  %3 = getelementptr inbounds %struct.State, %struct.State* %0, i32 0, i32 6
  %4 = getelementptr inbounds %struct.GPR, %struct.GPR* %3, i32 0, i32 33
  %5 = getelementptr inbounds %struct.Reg, %struct.Reg* %4, i32 0, i32 0
  %PC = bitcast %union.anon* %5 to i64*
  %6 = getelementptr inbounds %struct.State, %struct.State* %0, i32 0, i32 6
  %7 = getelementptr inbounds %struct.GPR, %struct.GPR* %6, i32 0, i32 15
  %8 = getelementptr inbounds %struct.Reg, %struct.Reg* %7, i32 0, i32 0
  %RBP = bitcast %union.anon* %8 to i64*
  %9 = getelementptr inbounds %struct.State, %struct.State* %0, i32 0, i32 1
  %10 = getelementptr inbounds [32 x %union.VectorReg], [32 x %union.VectorReg]* %9, i64 0, i64 0
  %XMM0 = bitcast %union.VectorReg* %10 to %union.vec128_t*
  %11 = load i64, i64* %RBP
  %12 = sub i64 %11, 40
  %13 = bitcast %union.vec128_t* %XMM0 to i8*
  %14 = load i64, i64* %PC
  %15 = add i64 %14, 5
  store i64 %15, i64* %PC
  %16 = bitcast i8* %13 to double*
  %17 = load double, double* %16, align 1
  %18 = inttoptr i64 %12 to double*
  store double %17, double* %18
  ret %struct.Memory* %2
}

define %struct.Memory* @routine_movl__0x0__MINUS0x2c__rbp_(%struct.State* dereferenceable(3376), i64, %struct.Memory*) {
block_400488:
  %3 = getelementptr inbounds %struct.State, %struct.State* %0, i32 0, i32 6
  %4 = getelementptr inbounds %struct.GPR, %struct.GPR* %3, i32 0, i32 33
  %5 = getelementptr inbounds %struct.Reg, %struct.Reg* %4, i32 0, i32 0
  %PC = bitcast %union.anon* %5 to i64*
  %6 = getelementptr inbounds %struct.State, %struct.State* %0, i32 0, i32 6
  %7 = getelementptr inbounds %struct.GPR, %struct.GPR* %6, i32 0, i32 15
  %8 = getelementptr inbounds %struct.Reg, %struct.Reg* %7, i32 0, i32 0
  %RBP = bitcast %union.anon* %8 to i64*
  %9 = load i64, i64* %RBP
  %10 = sub i64 %9, 44
  %11 = load i64, i64* %PC
  %12 = add i64 %11, 7
  store i64 %12, i64* %PC
  %13 = inttoptr i64 %10 to i32*
  store i32 0, i32* %13
  ret %struct.Memory* %2
}

define %struct.Memory* @routine_movl_MINUS0xc__rbp____eax(%struct.State* dereferenceable(3376), i64, %struct.Memory*) {
block_400488:
  %3 = getelementptr inbounds %struct.State, %struct.State* %0, i32 0, i32 6
  %4 = getelementptr inbounds %struct.GPR, %struct.GPR* %3, i32 0, i32 33
  %5 = getelementptr inbounds %struct.Reg, %struct.Reg* %4, i32 0, i32 0
  %PC = bitcast %union.anon* %5 to i64*
  %6 = getelementptr inbounds %struct.State, %struct.State* %0, i32 0, i32 6
  %7 = getelementptr inbounds %struct.GPR, %struct.GPR* %6, i32 0, i32 1
  %8 = getelementptr inbounds %struct.Reg, %struct.Reg* %7, i32 0, i32 0
  %RAX = bitcast %union.anon* %8 to i64*
  %9 = getelementptr inbounds %struct.State, %struct.State* %0, i32 0, i32 6
  %10 = getelementptr inbounds %struct.GPR, %struct.GPR* %9, i32 0, i32 15
  %11 = getelementptr inbounds %struct.Reg, %struct.Reg* %10, i32 0, i32 0
  %RBP = bitcast %union.anon* %11 to i64*
  %12 = load i64, i64* %RBP
  %13 = sub i64 %12, 12
  %14 = load i64, i64* %PC
  %15 = add i64 %14, 3
  store i64 %15, i64* %PC
  %16 = inttoptr i64 %13 to i32*
  %17 = load i32, i32* %16
  %18 = zext i32 %17 to i64
  store i64 %18, i64* %RAX, align 8
  ret %struct.Memory* %2
}

define %struct.Memory* @routine_subl_MINUS0x2c__rbp____eax(%struct.State* dereferenceable(3376), i64, %struct.Memory*) {
block_400488:
  %3 = getelementptr inbounds %struct.State, %struct.State* %0, i32 0, i32 6
  %4 = getelementptr inbounds %struct.GPR, %struct.GPR* %3, i32 0, i32 33
  %5 = getelementptr inbounds %struct.Reg, %struct.Reg* %4, i32 0, i32 0
  %PC = bitcast %union.anon* %5 to i64*
  %6 = getelementptr inbounds %struct.State, %struct.State* %0, i32 0, i32 6
  %7 = getelementptr inbounds %struct.GPR, %struct.GPR* %6, i32 0, i32 1
  %8 = getelementptr inbounds %struct.Reg, %struct.Reg* %7, i32 0, i32 0
  %RAX = bitcast %union.anon* %8 to i64*
  %9 = getelementptr inbounds %struct.State, %struct.State* %0, i32 0, i32 6
  %10 = getelementptr inbounds %struct.GPR, %struct.GPR* %9, i32 0, i32 15
  %11 = getelementptr inbounds %struct.Reg, %struct.Reg* %10, i32 0, i32 0
  %RBP = bitcast %union.anon* %11 to i64*
  %12 = load i64, i64* %RAX
  %13 = load i64, i64* %RBP
  %14 = sub i64 %13, 44
  %15 = load i64, i64* %PC
  %16 = add i64 %15, 3
  store i64 %16, i64* %PC
  %17 = trunc i64 %12 to i32
  %18 = inttoptr i64 %14 to i32*
  %19 = load i32, i32* %18
  %20 = sub i32 %17, %19
  %21 = zext i32 %20 to i64
  store i64 %21, i64* %RAX, align 8
  %22 = icmp ult i32 %17, %19
  %23 = zext i1 %22 to i8
  %24 = getelementptr inbounds %struct.State, %struct.State* %0, i64 0, i32 2, i32 1
  store i8 %23, i8* %24, align 1
  %25 = and i32 %20, 255
  %26 = call i32 @llvm.ctpop.i32(i32 %25)
  %27 = trunc i32 %26 to i8
  %28 = and i8 %27, 1
  %29 = xor i8 %28, 1
  %30 = getelementptr inbounds %struct.State, %struct.State* %0, i64 0, i32 2, i32 3
  store i8 %29, i8* %30, align 1
  %31 = xor i32 %19, %17
  %32 = xor i32 %31, %20
  %33 = lshr i32 %32, 4
  %34 = trunc i32 %33 to i8
  %35 = and i8 %34, 1
  %36 = getelementptr inbounds %struct.State, %struct.State* %0, i64 0, i32 2, i32 5
  store i8 %35, i8* %36, align 1
  %37 = icmp eq i32 %20, 0
  %38 = zext i1 %37 to i8
  %39 = getelementptr inbounds %struct.State, %struct.State* %0, i64 0, i32 2, i32 7
  store i8 %38, i8* %39, align 1
  %40 = lshr i32 %20, 31
  %41 = trunc i32 %40 to i8
  %42 = getelementptr inbounds %struct.State, %struct.State* %0, i64 0, i32 2, i32 9
  store i8 %41, i8* %42, align 1
  %43 = lshr i32 %17, 31
  %44 = lshr i32 %19, 31
  %45 = xor i32 %44, %43
  %46 = xor i32 %40, %43
  %47 = add i32 %46, %45
  %48 = icmp eq i32 %47, 2
  %49 = zext i1 %48 to i8
  %50 = getelementptr inbounds %struct.State, %struct.State* %0, i64 0, i32 2, i32 13
  store i8 %49, i8* %50, align 1
  ret %struct.Memory* %2
}

define %struct.Memory* @routine_cmpl__0x1d___eax(%struct.State* dereferenceable(3376), i64, %struct.Memory*) {
block_400488:
  %3 = getelementptr inbounds %struct.State, %struct.State* %0, i32 0, i32 6
  %4 = getelementptr inbounds %struct.GPR, %struct.GPR* %3, i32 0, i32 33
  %5 = getelementptr inbounds %struct.Reg, %struct.Reg* %4, i32 0, i32 0
  %PC = bitcast %union.anon* %5 to i64*
  %6 = getelementptr inbounds %struct.State, %struct.State* %0, i32 0, i32 6
  %7 = getelementptr inbounds %struct.GPR, %struct.GPR* %6, i32 0, i32 1
  %8 = getelementptr inbounds %struct.Reg, %struct.Reg* %7, i32 0, i32 0
  %EAX = bitcast %union.anon* %8 to i32*
  %9 = load i32, i32* %EAX
  %10 = zext i32 %9 to i64
  %11 = load i64, i64* %PC
  %12 = add i64 %11, 3
  store i64 %12, i64* %PC
  %13 = sub i32 %9, 29
  %14 = icmp ult i32 %9, 29
  %15 = zext i1 %14 to i8
  %16 = getelementptr inbounds %struct.State, %struct.State* %0, i64 0, i32 2, i32 1
  store i8 %15, i8* %16, align 1
  %17 = and i32 %13, 255
  %18 = call i32 @llvm.ctpop.i32(i32 %17)
  %19 = trunc i32 %18 to i8
  %20 = and i8 %19, 1
  %21 = xor i8 %20, 1
  %22 = getelementptr inbounds %struct.State, %struct.State* %0, i64 0, i32 2, i32 3
  store i8 %21, i8* %22, align 1
  %23 = xor i64 29, %10
  %24 = trunc i64 %23 to i32
  %25 = xor i32 %24, %13
  %26 = lshr i32 %25, 4
  %27 = trunc i32 %26 to i8
  %28 = and i8 %27, 1
  %29 = getelementptr inbounds %struct.State, %struct.State* %0, i64 0, i32 2, i32 5
  store i8 %28, i8* %29, align 1
  %30 = icmp eq i32 %13, 0
  %31 = zext i1 %30 to i8
  %32 = getelementptr inbounds %struct.State, %struct.State* %0, i64 0, i32 2, i32 7
  store i8 %31, i8* %32, align 1
  %33 = lshr i32 %13, 31
  %34 = trunc i32 %33 to i8
  %35 = getelementptr inbounds %struct.State, %struct.State* %0, i64 0, i32 2, i32 9
  store i8 %34, i8* %35, align 1
  %36 = lshr i32 %9, 31
  %37 = xor i32 %33, %36
  %38 = add i32 %37, %36
  %39 = icmp eq i32 %38, 2
  %40 = zext i1 %39 to i8
  %41 = getelementptr inbounds %struct.State, %struct.State* %0, i64 0, i32 2, i32 13
  store i8 %40, i8* %41, align 1
  ret %struct.Memory* %2
}

define %struct.Memory* @routine_jl_.L_402556(%struct.State* dereferenceable(3376), i64, %struct.Memory*, i8* %BRANCH_TAKEN, i64 %rel_off1, i64 %rel_off2, i64 %rel_off3) {
block_400488:
  %3 = getelementptr inbounds %struct.State, %struct.State* %0, i32 0, i32 6
  %4 = getelementptr inbounds %struct.GPR, %struct.GPR* %3, i32 0, i32 33
  %5 = getelementptr inbounds %struct.Reg, %struct.Reg* %4, i32 0, i32 0
  %PC = bitcast %union.anon* %5 to i64*
  %6 = load i64, i64* %PC
  %7 = add i64 %6, %rel_off1
  %8 = load i64, i64* %PC
  %9 = add i64 %8, %rel_off2
  %10 = load i64, i64* %PC
  %11 = add i64 %10, %rel_off3
  store i64 %11, i64* %PC
  %12 = getelementptr inbounds %struct.State, %struct.State* %0, i64 0, i32 2, i32 9
  %13 = load i8, i8* %12, align 1
  %14 = icmp ne i8 %13, 0
  %15 = getelementptr inbounds %struct.State, %struct.State* %0, i64 0, i32 2, i32 13
  %16 = load i8, i8* %15, align 1
  %17 = icmp ne i8 %16, 0
  %18 = xor i1 %14, %17
  %19 = zext i1 %18 to i8
  store i8 %19, i8* %BRANCH_TAKEN, align 1
  %20 = getelementptr inbounds %struct.State, %struct.State* %0, i64 0, i32 6, i32 33, i32 0, i32 0
  %21 = select i1 %18, i64 %7, i64 %9
  store i64 %21, i64* %20, align 8
  ret %struct.Memory* %2
}

define %struct.Memory* @routine_jmpq_.L_402522(%struct.State* dereferenceable(3376), i64, %struct.Memory*, i64 %rel_off1, i64 %rel_off2) {
block_400488:
  %3 = getelementptr inbounds %struct.State, %struct.State* %0, i32 0, i32 6
  %4 = getelementptr inbounds %struct.GPR, %struct.GPR* %3, i32 0, i32 33
  %5 = getelementptr inbounds %struct.Reg, %struct.Reg* %4, i32 0, i32 0
  %PC = bitcast %union.anon* %5 to i64*
  %6 = load i64, i64* %PC
  %7 = add i64 %6, %rel_off1
  %8 = load i64, i64* %PC
  %9 = add i64 %8, %rel_off2
  store i64 %9, i64* %PC
  %10 = getelementptr inbounds %struct.State, %struct.State* %0, i64 0, i32 6, i32 33, i32 0, i32 0
  store i64 %7, i64* %10, align 8
  ret %struct.Memory* %2
}

define %struct.Memory* @routine_leaq_MINUS0x28__rbp____rdi(%struct.State* dereferenceable(3376), i64, %struct.Memory*) {
block_400488:
  %3 = getelementptr inbounds %struct.State, %struct.State* %0, i32 0, i32 6
  %4 = getelementptr inbounds %struct.GPR, %struct.GPR* %3, i32 0, i32 33
  %5 = getelementptr inbounds %struct.Reg, %struct.Reg* %4, i32 0, i32 0
  %PC = bitcast %union.anon* %5 to i64*
  %6 = getelementptr inbounds %struct.State, %struct.State* %0, i32 0, i32 6
  %7 = getelementptr inbounds %struct.GPR, %struct.GPR* %6, i32 0, i32 11
  %8 = getelementptr inbounds %struct.Reg, %struct.Reg* %7, i32 0, i32 0
  %RDI = bitcast %union.anon* %8 to i64*
  %9 = getelementptr inbounds %struct.State, %struct.State* %0, i32 0, i32 6
  %10 = getelementptr inbounds %struct.GPR, %struct.GPR* %9, i32 0, i32 15
  %11 = getelementptr inbounds %struct.Reg, %struct.Reg* %10, i32 0, i32 0
  %RBP = bitcast %union.anon* %11 to i64*
  %12 = load i64, i64* %RBP
  %13 = sub i64 %12, 40
  %14 = load i64, i64* %PC
  %15 = add i64 %14, 4
  store i64 %15, i64* %PC
  store i64 %13, i64* %RDI, align 8
  ret %struct.Memory* %2
}

define %struct.Memory* @routine_movq_MINUS0x8__rbp____rsi(%struct.State* dereferenceable(3376), i64, %struct.Memory*) {
block_400488:
  %3 = getelementptr inbounds %struct.State, %struct.State* %0, i32 0, i32 6
  %4 = getelementptr inbounds %struct.GPR, %struct.GPR* %3, i32 0, i32 33
  %5 = getelementptr inbounds %struct.Reg, %struct.Reg* %4, i32 0, i32 0
  %PC = bitcast %union.anon* %5 to i64*
  %6 = getelementptr inbounds %struct.State, %struct.State* %0, i32 0, i32 6
  %7 = getelementptr inbounds %struct.GPR, %struct.GPR* %6, i32 0, i32 9
  %8 = getelementptr inbounds %struct.Reg, %struct.Reg* %7, i32 0, i32 0
  %RSI = bitcast %union.anon* %8 to i64*
  %9 = getelementptr inbounds %struct.State, %struct.State* %0, i32 0, i32 6
  %10 = getelementptr inbounds %struct.GPR, %struct.GPR* %9, i32 0, i32 15
  %11 = getelementptr inbounds %struct.Reg, %struct.Reg* %10, i32 0, i32 0
  %RBP = bitcast %union.anon* %11 to i64*
  %12 = load i64, i64* %RBP
  %13 = sub i64 %12, 8
  %14 = load i64, i64* %PC
  %15 = add i64 %14, 4
  store i64 %15, i64* %PC
  %16 = inttoptr i64 %13 to i64*
  %17 = load i64, i64* %16
  store i64 %17, i64* %RSI, align 8
  ret %struct.Memory* %2
}

define %struct.Memory* @routine_movl_MINUS0x2c__rbp____edx(%struct.State* dereferenceable(3376), i64, %struct.Memory*) {
block_400488:
  %3 = getelementptr inbounds %struct.State, %struct.State* %0, i32 0, i32 6
  %4 = getelementptr inbounds %struct.GPR, %struct.GPR* %3, i32 0, i32 33
  %5 = getelementptr inbounds %struct.Reg, %struct.Reg* %4, i32 0, i32 0
  %PC = bitcast %union.anon* %5 to i64*
  %6 = getelementptr inbounds %struct.State, %struct.State* %0, i32 0, i32 6
  %7 = getelementptr inbounds %struct.GPR, %struct.GPR* %6, i32 0, i32 7
  %8 = getelementptr inbounds %struct.Reg, %struct.Reg* %7, i32 0, i32 0
  %RDX = bitcast %union.anon* %8 to i64*
  %9 = getelementptr inbounds %struct.State, %struct.State* %0, i32 0, i32 6
  %10 = getelementptr inbounds %struct.GPR, %struct.GPR* %9, i32 0, i32 15
  %11 = getelementptr inbounds %struct.Reg, %struct.Reg* %10, i32 0, i32 0
  %RBP = bitcast %union.anon* %11 to i64*
  %12 = load i64, i64* %RBP
  %13 = sub i64 %12, 44
  %14 = load i64, i64* %PC
  %15 = add i64 %14, 3
  store i64 %15, i64* %PC
  %16 = inttoptr i64 %13 to i32*
  %17 = load i32, i32* %16
  %18 = zext i32 %17 to i64
  store i64 %18, i64* %RDX, align 8
  ret %struct.Memory* %2
}

define %struct.Memory* @routine_callq_._ZN15loop_inner_bodyILi29EdE7do_workERdPKdi(%struct.State* dereferenceable(3376), i64, %struct.Memory*, i64 %rel_off1, i64 %rel_off2, i64 %rel_off3) {
block_400488:
  %3 = getelementptr inbounds %struct.State, %struct.State* %0, i32 0, i32 6
  %4 = getelementptr inbounds %struct.GPR, %struct.GPR* %3, i32 0, i32 33
  %5 = getelementptr inbounds %struct.Reg, %struct.Reg* %4, i32 0, i32 0
  %PC = bitcast %union.anon* %5 to i64*
  %6 = load i64, i64* %PC
  %7 = add i64 %6, %rel_off1
  %8 = load i64, i64* %PC
  %9 = add i64 %8, %rel_off2
  %10 = load i64, i64* %PC
  %11 = add i64 %10, %rel_off3
  store i64 %11, i64* %PC
  %12 = getelementptr inbounds %struct.State, %struct.State* %0, i64 0, i32 6, i32 13, i32 0, i32 0
  %13 = load i64, i64* %12, align 8
  %14 = add i64 %13, -8
  %15 = inttoptr i64 %14 to i64*
  store i64 %9, i64* %15
  store i64 %14, i64* %12, align 8
  %16 = getelementptr inbounds %struct.State, %struct.State* %0, i64 0, i32 6, i32 33, i32 0, i32 0
  store i64 %7, i64* %16, align 8
  ret %struct.Memory* %2
}

define %struct.Memory* @routine_addl__0x1d___edx(%struct.State* dereferenceable(3376), i64, %struct.Memory*) {
block_400488:
  %3 = getelementptr inbounds %struct.State, %struct.State* %0, i32 0, i32 6
  %4 = getelementptr inbounds %struct.GPR, %struct.GPR* %3, i32 0, i32 33
  %5 = getelementptr inbounds %struct.Reg, %struct.Reg* %4, i32 0, i32 0
  %PC = bitcast %union.anon* %5 to i64*
  %6 = getelementptr inbounds %struct.State, %struct.State* %0, i32 0, i32 6
  %7 = getelementptr inbounds %struct.GPR, %struct.GPR* %6, i32 0, i32 7
  %8 = getelementptr inbounds %struct.Reg, %struct.Reg* %7, i32 0, i32 0
  %RDX = bitcast %union.anon* %8 to i64*
  %9 = load i64, i64* %RDX
  %10 = load i64, i64* %PC
  %11 = add i64 %10, 3
  store i64 %11, i64* %PC
  %12 = trunc i64 %9 to i32
  %13 = add i32 29, %12
  %14 = zext i32 %13 to i64
  store i64 %14, i64* %RDX, align 8
  %15 = icmp ult i32 %13, %12
  %16 = icmp ult i32 %13, 29
  %17 = or i1 %15, %16
  %18 = zext i1 %17 to i8
  %19 = getelementptr inbounds %struct.State, %struct.State* %0, i64 0, i32 2, i32 1
  store i8 %18, i8* %19, align 1
  %20 = and i32 %13, 255
  %21 = call i32 @llvm.ctpop.i32(i32 %20)
  %22 = trunc i32 %21 to i8
  %23 = and i8 %22, 1
  %24 = xor i8 %23, 1
  %25 = getelementptr inbounds %struct.State, %struct.State* %0, i64 0, i32 2, i32 3
  store i8 %24, i8* %25, align 1
  %26 = xor i64 29, %9
  %27 = trunc i64 %26 to i32
  %28 = xor i32 %27, %13
  %29 = lshr i32 %28, 4
  %30 = trunc i32 %29 to i8
  %31 = and i8 %30, 1
  %32 = getelementptr inbounds %struct.State, %struct.State* %0, i64 0, i32 2, i32 5
  store i8 %31, i8* %32, align 1
  %33 = icmp eq i32 %13, 0
  %34 = zext i1 %33 to i8
  %35 = getelementptr inbounds %struct.State, %struct.State* %0, i64 0, i32 2, i32 7
  store i8 %34, i8* %35, align 1
  %36 = lshr i32 %13, 31
  %37 = trunc i32 %36 to i8
  %38 = getelementptr inbounds %struct.State, %struct.State* %0, i64 0, i32 2, i32 9
  store i8 %37, i8* %38, align 1
  %39 = lshr i32 %12, 31
  %40 = xor i32 %36, %39
  %41 = add i32 %40, %36
  %42 = icmp eq i32 %41, 2
  %43 = zext i1 %42 to i8
  %44 = getelementptr inbounds %struct.State, %struct.State* %0, i64 0, i32 2, i32 13
  store i8 %43, i8* %44, align 1
  ret %struct.Memory* %2
}

define %struct.Memory* @routine_movl__edx__MINUS0x2c__rbp_(%struct.State* dereferenceable(3376), i64, %struct.Memory*) {
block_400488:
  %3 = getelementptr inbounds %struct.State, %struct.State* %0, i32 0, i32 6
  %4 = getelementptr inbounds %struct.GPR, %struct.GPR* %3, i32 0, i32 33
  %5 = getelementptr inbounds %struct.Reg, %struct.Reg* %4, i32 0, i32 0
  %PC = bitcast %union.anon* %5 to i64*
  %6 = getelementptr inbounds %struct.State, %struct.State* %0, i32 0, i32 6
  %7 = getelementptr inbounds %struct.GPR, %struct.GPR* %6, i32 0, i32 7
  %8 = getelementptr inbounds %struct.Reg, %struct.Reg* %7, i32 0, i32 0
  %EDX = bitcast %union.anon* %8 to i32*
  %9 = getelementptr inbounds %struct.State, %struct.State* %0, i32 0, i32 6
  %10 = getelementptr inbounds %struct.GPR, %struct.GPR* %9, i32 0, i32 15
  %11 = getelementptr inbounds %struct.Reg, %struct.Reg* %10, i32 0, i32 0
  %RBP = bitcast %union.anon* %11 to i64*
  %12 = load i64, i64* %RBP
  %13 = sub i64 %12, 44
  %14 = load i32, i32* %EDX
  %15 = zext i32 %14 to i64
  %16 = load i64, i64* %PC
  %17 = add i64 %16, 3
  store i64 %17, i64* %PC
  %18 = inttoptr i64 %13 to i32*
  store i32 %14, i32* %18
  ret %struct.Memory* %2
}

define %struct.Memory* @routine_subl__0x1c___eax(%struct.State* dereferenceable(3376), i64, %struct.Memory*) {
block_400488:
  %3 = getelementptr inbounds %struct.State, %struct.State* %0, i32 0, i32 6
  %4 = getelementptr inbounds %struct.GPR, %struct.GPR* %3, i32 0, i32 33
  %5 = getelementptr inbounds %struct.Reg, %struct.Reg* %4, i32 0, i32 0
  %PC = bitcast %union.anon* %5 to i64*
  %6 = getelementptr inbounds %struct.State, %struct.State* %0, i32 0, i32 6
  %7 = getelementptr inbounds %struct.GPR, %struct.GPR* %6, i32 0, i32 1
  %8 = getelementptr inbounds %struct.Reg, %struct.Reg* %7, i32 0, i32 0
  %RAX = bitcast %union.anon* %8 to i64*
  %9 = load i64, i64* %RAX
  %10 = load i64, i64* %PC
  %11 = add i64 %10, 3
  store i64 %11, i64* %PC
  %12 = trunc i64 %9 to i32
  %13 = sub i32 %12, 28
  %14 = zext i32 %13 to i64
  store i64 %14, i64* %RAX, align 8
  %15 = icmp ult i32 %12, 28
  %16 = zext i1 %15 to i8
  %17 = getelementptr inbounds %struct.State, %struct.State* %0, i64 0, i32 2, i32 1
  store i8 %16, i8* %17, align 1
  %18 = and i32 %13, 255
  %19 = call i32 @llvm.ctpop.i32(i32 %18)
  %20 = trunc i32 %19 to i8
  %21 = and i8 %20, 1
  %22 = xor i8 %21, 1
  %23 = getelementptr inbounds %struct.State, %struct.State* %0, i64 0, i32 2, i32 3
  store i8 %22, i8* %23, align 1
  %24 = xor i64 28, %9
  %25 = trunc i64 %24 to i32
  %26 = xor i32 %25, %13
  %27 = lshr i32 %26, 4
  %28 = trunc i32 %27 to i8
  %29 = and i8 %28, 1
  %30 = getelementptr inbounds %struct.State, %struct.State* %0, i64 0, i32 2, i32 5
  store i8 %29, i8* %30, align 1
  %31 = icmp eq i32 %13, 0
  %32 = zext i1 %31 to i8
  %33 = getelementptr inbounds %struct.State, %struct.State* %0, i64 0, i32 2, i32 7
  store i8 %32, i8* %33, align 1
  %34 = lshr i32 %13, 31
  %35 = trunc i32 %34 to i8
  %36 = getelementptr inbounds %struct.State, %struct.State* %0, i64 0, i32 2, i32 9
  store i8 %35, i8* %36, align 1
  %37 = lshr i32 %12, 31
  %38 = xor i32 %34, %37
  %39 = add i32 %38, %37
  %40 = icmp eq i32 %39, 2
  %41 = zext i1 %40 to i8
  %42 = getelementptr inbounds %struct.State, %struct.State* %0, i64 0, i32 2, i32 13
  store i8 %41, i8* %42, align 1
  ret %struct.Memory* %2
}

define %struct.Memory* @routine_cmpl__eax___edx(%struct.State* dereferenceable(3376), i64, %struct.Memory*) {
block_400488:
  %3 = getelementptr inbounds %struct.State, %struct.State* %0, i32 0, i32 6
  %4 = getelementptr inbounds %struct.GPR, %struct.GPR* %3, i32 0, i32 33
  %5 = getelementptr inbounds %struct.Reg, %struct.Reg* %4, i32 0, i32 0
  %PC = bitcast %union.anon* %5 to i64*
  %6 = getelementptr inbounds %struct.State, %struct.State* %0, i32 0, i32 6
  %7 = getelementptr inbounds %struct.GPR, %struct.GPR* %6, i32 0, i32 1
  %8 = getelementptr inbounds %struct.Reg, %struct.Reg* %7, i32 0, i32 0
  %EAX = bitcast %union.anon* %8 to i32*
  %9 = getelementptr inbounds %struct.State, %struct.State* %0, i32 0, i32 6
  %10 = getelementptr inbounds %struct.GPR, %struct.GPR* %9, i32 0, i32 7
  %11 = getelementptr inbounds %struct.Reg, %struct.Reg* %10, i32 0, i32 0
  %EDX = bitcast %union.anon* %11 to i32*
  %12 = load i32, i32* %EDX
  %13 = zext i32 %12 to i64
  %14 = load i32, i32* %EAX
  %15 = zext i32 %14 to i64
  %16 = load i64, i64* %PC
  %17 = add i64 %16, 2
  store i64 %17, i64* %PC
  %18 = sub i32 %12, %14
  %19 = icmp ult i32 %12, %14
  %20 = zext i1 %19 to i8
  %21 = getelementptr inbounds %struct.State, %struct.State* %0, i64 0, i32 2, i32 1
  store i8 %20, i8* %21, align 1
  %22 = and i32 %18, 255
  %23 = call i32 @llvm.ctpop.i32(i32 %22)
  %24 = trunc i32 %23 to i8
  %25 = and i8 %24, 1
  %26 = xor i8 %25, 1
  %27 = getelementptr inbounds %struct.State, %struct.State* %0, i64 0, i32 2, i32 3
  store i8 %26, i8* %27, align 1
  %28 = xor i64 %15, %13
  %29 = trunc i64 %28 to i32
  %30 = xor i32 %29, %18
  %31 = lshr i32 %30, 4
  %32 = trunc i32 %31 to i8
  %33 = and i8 %32, 1
  %34 = getelementptr inbounds %struct.State, %struct.State* %0, i64 0, i32 2, i32 5
  store i8 %33, i8* %34, align 1
  %35 = icmp eq i32 %18, 0
  %36 = zext i1 %35 to i8
  %37 = getelementptr inbounds %struct.State, %struct.State* %0, i64 0, i32 2, i32 7
  store i8 %36, i8* %37, align 1
  %38 = lshr i32 %18, 31
  %39 = trunc i32 %38 to i8
  %40 = getelementptr inbounds %struct.State, %struct.State* %0, i64 0, i32 2, i32 9
  store i8 %39, i8* %40, align 1
  %41 = lshr i32 %12, 31
  %42 = lshr i32 %14, 31
  %43 = xor i32 %42, %41
  %44 = xor i32 %38, %41
  %45 = add i32 %44, %43
  %46 = icmp eq i32 %45, 2
  %47 = zext i1 %46 to i8
  %48 = getelementptr inbounds %struct.State, %struct.State* %0, i64 0, i32 2, i32 13
  store i8 %47, i8* %48, align 1
  ret %struct.Memory* %2
}

define %struct.Memory* @routine_jge_.L_402551(%struct.State* dereferenceable(3376), i64, %struct.Memory*, i8* %BRANCH_TAKEN, i64 %rel_off1, i64 %rel_off2, i64 %rel_off3) {
block_400488:
  %3 = getelementptr inbounds %struct.State, %struct.State* %0, i32 0, i32 6
  %4 = getelementptr inbounds %struct.GPR, %struct.GPR* %3, i32 0, i32 33
  %5 = getelementptr inbounds %struct.Reg, %struct.Reg* %4, i32 0, i32 0
  %PC = bitcast %union.anon* %5 to i64*
  %6 = load i64, i64* %PC
  %7 = add i64 %6, %rel_off1
  %8 = load i64, i64* %PC
  %9 = add i64 %8, %rel_off2
  %10 = load i64, i64* %PC
  %11 = add i64 %10, %rel_off3
  store i64 %11, i64* %PC
  %12 = getelementptr inbounds %struct.State, %struct.State* %0, i64 0, i32 2, i32 9
  %13 = load i8, i8* %12, align 1
  %14 = icmp ne i8 %13, 0
  %15 = getelementptr inbounds %struct.State, %struct.State* %0, i64 0, i32 2, i32 13
  %16 = load i8, i8* %15, align 1
  %17 = icmp ne i8 %16, 0
  %18 = xor i1 %14, %17
  %19 = xor i1 %18, true
  %20 = zext i1 %19 to i8
  store i8 %20, i8* %BRANCH_TAKEN, align 1
  %21 = getelementptr inbounds %struct.State, %struct.State* %0, i64 0, i32 6, i32 33, i32 0, i32 0
  %22 = select i1 %18, i64 %9, i64 %7
  store i64 %22, i64* %21, align 8
  ret %struct.Memory* %2
}

define %struct.Memory* @routine_jmpq_.L_402556(%struct.State* dereferenceable(3376), i64, %struct.Memory*, i64 %rel_off1, i64 %rel_off2) {
block_400488:
  %3 = getelementptr inbounds %struct.State, %struct.State* %0, i32 0, i32 6
  %4 = getelementptr inbounds %struct.GPR, %struct.GPR* %3, i32 0, i32 33
  %5 = getelementptr inbounds %struct.Reg, %struct.Reg* %4, i32 0, i32 0
  %PC = bitcast %union.anon* %5 to i64*
  %6 = load i64, i64* %PC
  %7 = add i64 %6, %rel_off1
  %8 = load i64, i64* %PC
  %9 = add i64 %8, %rel_off2
  store i64 %9, i64* %PC
  %10 = getelementptr inbounds %struct.State, %struct.State* %0, i64 0, i32 6, i32 33, i32 0, i32 0
  store i64 %7, i64* %10, align 8
  ret %struct.Memory* %2
}

define %struct.Memory* @routine_movl_MINUS0x2c__rbp____eax(%struct.State* dereferenceable(3376), i64, %struct.Memory*) {
block_400488:
  %3 = getelementptr inbounds %struct.State, %struct.State* %0, i32 0, i32 6
  %4 = getelementptr inbounds %struct.GPR, %struct.GPR* %3, i32 0, i32 33
  %5 = getelementptr inbounds %struct.Reg, %struct.Reg* %4, i32 0, i32 0
  %PC = bitcast %union.anon* %5 to i64*
  %6 = getelementptr inbounds %struct.State, %struct.State* %0, i32 0, i32 6
  %7 = getelementptr inbounds %struct.GPR, %struct.GPR* %6, i32 0, i32 1
  %8 = getelementptr inbounds %struct.Reg, %struct.Reg* %7, i32 0, i32 0
  %RAX = bitcast %union.anon* %8 to i64*
  %9 = getelementptr inbounds %struct.State, %struct.State* %0, i32 0, i32 6
  %10 = getelementptr inbounds %struct.GPR, %struct.GPR* %9, i32 0, i32 15
  %11 = getelementptr inbounds %struct.Reg, %struct.Reg* %10, i32 0, i32 0
  %RBP = bitcast %union.anon* %11 to i64*
  %12 = load i64, i64* %RBP
  %13 = sub i64 %12, 44
  %14 = load i64, i64* %PC
  %15 = add i64 %14, 3
  store i64 %15, i64* %PC
  %16 = inttoptr i64 %13 to i32*
  %17 = load i32, i32* %16
  %18 = zext i32 %17 to i64
  store i64 %18, i64* %RAX, align 8
  ret %struct.Memory* %2
}

define %struct.Memory* @routine_cmpl_MINUS0xc__rbp____eax(%struct.State* dereferenceable(3376), i64, %struct.Memory*) {
block_400488:
  %3 = getelementptr inbounds %struct.State, %struct.State* %0, i32 0, i32 6
  %4 = getelementptr inbounds %struct.GPR, %struct.GPR* %3, i32 0, i32 33
  %5 = getelementptr inbounds %struct.Reg, %struct.Reg* %4, i32 0, i32 0
  %PC = bitcast %union.anon* %5 to i64*
  %6 = getelementptr inbounds %struct.State, %struct.State* %0, i32 0, i32 6
  %7 = getelementptr inbounds %struct.GPR, %struct.GPR* %6, i32 0, i32 1
  %8 = getelementptr inbounds %struct.Reg, %struct.Reg* %7, i32 0, i32 0
  %EAX = bitcast %union.anon* %8 to i32*
  %9 = getelementptr inbounds %struct.State, %struct.State* %0, i32 0, i32 6
  %10 = getelementptr inbounds %struct.GPR, %struct.GPR* %9, i32 0, i32 15
  %11 = getelementptr inbounds %struct.Reg, %struct.Reg* %10, i32 0, i32 0
  %RBP = bitcast %union.anon* %11 to i64*
  %12 = load i32, i32* %EAX
  %13 = zext i32 %12 to i64
  %14 = load i64, i64* %RBP
  %15 = sub i64 %14, 12
  %16 = load i64, i64* %PC
  %17 = add i64 %16, 3
  store i64 %17, i64* %PC
  %18 = inttoptr i64 %15 to i32*
  %19 = load i32, i32* %18
  %20 = sub i32 %12, %19
  %21 = icmp ult i32 %12, %19
  %22 = zext i1 %21 to i8
  %23 = getelementptr inbounds %struct.State, %struct.State* %0, i64 0, i32 2, i32 1
  store i8 %22, i8* %23, align 1
  %24 = and i32 %20, 255
  %25 = call i32 @llvm.ctpop.i32(i32 %24)
  %26 = trunc i32 %25 to i8
  %27 = and i8 %26, 1
  %28 = xor i8 %27, 1
  %29 = getelementptr inbounds %struct.State, %struct.State* %0, i64 0, i32 2, i32 3
  store i8 %28, i8* %29, align 1
  %30 = xor i32 %19, %12
  %31 = xor i32 %30, %20
  %32 = lshr i32 %31, 4
  %33 = trunc i32 %32 to i8
  %34 = and i8 %33, 1
  %35 = getelementptr inbounds %struct.State, %struct.State* %0, i64 0, i32 2, i32 5
  store i8 %34, i8* %35, align 1
  %36 = icmp eq i32 %20, 0
  %37 = zext i1 %36 to i8
  %38 = getelementptr inbounds %struct.State, %struct.State* %0, i64 0, i32 2, i32 7
  store i8 %37, i8* %38, align 1
  %39 = lshr i32 %20, 31
  %40 = trunc i32 %39 to i8
  %41 = getelementptr inbounds %struct.State, %struct.State* %0, i64 0, i32 2, i32 9
  store i8 %40, i8* %41, align 1
  %42 = lshr i32 %12, 31
  %43 = lshr i32 %19, 31
  %44 = xor i32 %43, %42
  %45 = xor i32 %39, %42
  %46 = add i32 %45, %44
  %47 = icmp eq i32 %46, 2
  %48 = zext i1 %47 to i8
  %49 = getelementptr inbounds %struct.State, %struct.State* %0, i64 0, i32 2, i32 13
  store i8 %48, i8* %49, align 1
  ret %struct.Memory* %2
}

define %struct.Memory* @routine_jge_.L_4025a2(%struct.State* dereferenceable(3376), i64, %struct.Memory*, i8* %BRANCH_TAKEN, i64 %rel_off1, i64 %rel_off2, i64 %rel_off3) {
block_400488:
  %3 = getelementptr inbounds %struct.State, %struct.State* %0, i32 0, i32 6
  %4 = getelementptr inbounds %struct.GPR, %struct.GPR* %3, i32 0, i32 33
  %5 = getelementptr inbounds %struct.Reg, %struct.Reg* %4, i32 0, i32 0
  %PC = bitcast %union.anon* %5 to i64*
  %6 = load i64, i64* %PC
  %7 = add i64 %6, %rel_off1
  %8 = load i64, i64* %PC
  %9 = add i64 %8, %rel_off2
  %10 = load i64, i64* %PC
  %11 = add i64 %10, %rel_off3
  store i64 %11, i64* %PC
  %12 = getelementptr inbounds %struct.State, %struct.State* %0, i64 0, i32 2, i32 9
  %13 = load i8, i8* %12, align 1
  %14 = icmp ne i8 %13, 0
  %15 = getelementptr inbounds %struct.State, %struct.State* %0, i64 0, i32 2, i32 13
  %16 = load i8, i8* %15, align 1
  %17 = icmp ne i8 %16, 0
  %18 = xor i1 %14, %17
  %19 = xor i1 %18, true
  %20 = zext i1 %19 to i8
  store i8 %20, i8* %BRANCH_TAKEN, align 1
  %21 = getelementptr inbounds %struct.State, %struct.State* %0, i64 0, i32 6, i32 33, i32 0, i32 0
  %22 = select i1 %18, i64 %9, i64 %7
  store i64 %22, i64* %21, align 8
  ret %struct.Memory* %2
}

define %struct.Memory* @routine_jmpq_.L_402567(%struct.State* dereferenceable(3376), i64, %struct.Memory*, i64 %rel_off1, i64 %rel_off2) {
block_400488:
  %3 = getelementptr inbounds %struct.State, %struct.State* %0, i32 0, i32 6
  %4 = getelementptr inbounds %struct.GPR, %struct.GPR* %3, i32 0, i32 33
  %5 = getelementptr inbounds %struct.Reg, %struct.Reg* %4, i32 0, i32 0
  %PC = bitcast %union.anon* %5 to i64*
  %6 = load i64, i64* %PC
  %7 = add i64 %6, %rel_off1
  %8 = load i64, i64* %PC
  %9 = add i64 %8, %rel_off2
  store i64 %9, i64* %PC
  %10 = getelementptr inbounds %struct.State, %struct.State* %0, i64 0, i32 6, i32 33, i32 0, i32 0
  store i64 %7, i64* %10, align 8
  ret %struct.Memory* %2
}

define %struct.Memory* @routine_movq_MINUS0x8__rbp____rax(%struct.State* dereferenceable(3376), i64, %struct.Memory*) {
block_400488:
  %3 = getelementptr inbounds %struct.State, %struct.State* %0, i32 0, i32 6
  %4 = getelementptr inbounds %struct.GPR, %struct.GPR* %3, i32 0, i32 33
  %5 = getelementptr inbounds %struct.Reg, %struct.Reg* %4, i32 0, i32 0
  %PC = bitcast %union.anon* %5 to i64*
  %6 = getelementptr inbounds %struct.State, %struct.State* %0, i32 0, i32 6
  %7 = getelementptr inbounds %struct.GPR, %struct.GPR* %6, i32 0, i32 1
  %8 = getelementptr inbounds %struct.Reg, %struct.Reg* %7, i32 0, i32 0
  %RAX = bitcast %union.anon* %8 to i64*
  %9 = getelementptr inbounds %struct.State, %struct.State* %0, i32 0, i32 6
  %10 = getelementptr inbounds %struct.GPR, %struct.GPR* %9, i32 0, i32 15
  %11 = getelementptr inbounds %struct.Reg, %struct.Reg* %10, i32 0, i32 0
  %RBP = bitcast %union.anon* %11 to i64*
  %12 = load i64, i64* %RBP
  %13 = sub i64 %12, 8
  %14 = load i64, i64* %PC
  %15 = add i64 %14, 4
  store i64 %15, i64* %PC
  %16 = inttoptr i64 %13 to i64*
  %17 = load i64, i64* %16
  store i64 %17, i64* %RAX, align 8
  ret %struct.Memory* %2
}

define %struct.Memory* @routine_movslq_MINUS0x2c__rbp____rcx(%struct.State* dereferenceable(3376), i64, %struct.Memory*) {
block_400488:
  %3 = getelementptr inbounds %struct.State, %struct.State* %0, i32 0, i32 6
  %4 = getelementptr inbounds %struct.GPR, %struct.GPR* %3, i32 0, i32 33
  %5 = getelementptr inbounds %struct.Reg, %struct.Reg* %4, i32 0, i32 0
  %PC = bitcast %union.anon* %5 to i64*
  %6 = getelementptr inbounds %struct.State, %struct.State* %0, i32 0, i32 6
  %7 = getelementptr inbounds %struct.GPR, %struct.GPR* %6, i32 0, i32 5
  %8 = getelementptr inbounds %struct.Reg, %struct.Reg* %7, i32 0, i32 0
  %RCX = bitcast %union.anon* %8 to i64*
  %9 = getelementptr inbounds %struct.State, %struct.State* %0, i32 0, i32 6
  %10 = getelementptr inbounds %struct.GPR, %struct.GPR* %9, i32 0, i32 15
  %11 = getelementptr inbounds %struct.Reg, %struct.Reg* %10, i32 0, i32 0
  %RBP = bitcast %union.anon* %11 to i64*
  %12 = load i64, i64* %RBP
  %13 = sub i64 %12, 44
  %14 = load i64, i64* %PC
  %15 = add i64 %14, 4
  store i64 %15, i64* %PC
  %16 = inttoptr i64 %13 to i32*
  %17 = load i32, i32* %16
  %18 = sext i32 %17 to i64
  store i64 %18, i64* %RCX, align 8
  ret %struct.Memory* %2
}

define %struct.Memory* @routine_movsd___rax__rcx_8____xmm0(%struct.State* dereferenceable(3376), i64, %struct.Memory*) {
block_400488:
  %3 = getelementptr inbounds %struct.State, %struct.State* %0, i32 0, i32 6
  %4 = getelementptr inbounds %struct.GPR, %struct.GPR* %3, i32 0, i32 33
  %5 = getelementptr inbounds %struct.Reg, %struct.Reg* %4, i32 0, i32 0
  %PC = bitcast %union.anon* %5 to i64*
  %6 = getelementptr inbounds %struct.State, %struct.State* %0, i32 0, i32 6
  %7 = getelementptr inbounds %struct.GPR, %struct.GPR* %6, i32 0, i32 1
  %8 = getelementptr inbounds %struct.Reg, %struct.Reg* %7, i32 0, i32 0
  %RAX = bitcast %union.anon* %8 to i64*
  %9 = getelementptr inbounds %struct.State, %struct.State* %0, i32 0, i32 6
  %10 = getelementptr inbounds %struct.GPR, %struct.GPR* %9, i32 0, i32 5
  %11 = getelementptr inbounds %struct.Reg, %struct.Reg* %10, i32 0, i32 0
  %RCX = bitcast %union.anon* %11 to i64*
  %12 = getelementptr inbounds %struct.State, %struct.State* %0, i32 0, i32 1
  %13 = getelementptr inbounds [32 x %union.VectorReg], [32 x %union.VectorReg]* %12, i64 0, i64 0
  %YMM0 = bitcast %union.VectorReg* %13 to %"class.std::bitset"*
  %14 = bitcast %"class.std::bitset"* %YMM0 to i8*
  %15 = load i64, i64* %RAX
  %16 = load i64, i64* %RCX
  %17 = mul i64 %16, 8
  %18 = add i64 %17, %15
  %19 = load i64, i64* %PC
  %20 = add i64 %19, 5
  store i64 %20, i64* %PC
  %21 = inttoptr i64 %18 to double*
  %22 = load double, double* %21
  %23 = bitcast i8* %14 to double*
  store double %22, double* %23, align 1
  %24 = getelementptr inbounds i8, i8* %14, i64 8
  %25 = bitcast i8* %24 to double*
  store double 0.000000e+00, double* %25, align 1
  ret %struct.Memory* %2
}

define %struct.Memory* @routine_callq_._Z18complete_hash_funcIdET_S0_(%struct.State* dereferenceable(3376), i64, %struct.Memory*, i64 %rel_off1, i64 %rel_off2, i64 %rel_off3) {
block_400488:
  %3 = getelementptr inbounds %struct.State, %struct.State* %0, i32 0, i32 6
  %4 = getelementptr inbounds %struct.GPR, %struct.GPR* %3, i32 0, i32 33
  %5 = getelementptr inbounds %struct.Reg, %struct.Reg* %4, i32 0, i32 0
  %PC = bitcast %union.anon* %5 to i64*
  %6 = load i64, i64* %PC
  %7 = add i64 %6, %rel_off1
  %8 = load i64, i64* %PC
  %9 = add i64 %8, %rel_off2
  %10 = load i64, i64* %PC
  %11 = add i64 %10, %rel_off3
  store i64 %11, i64* %PC
  %12 = getelementptr inbounds %struct.State, %struct.State* %0, i64 0, i32 6, i32 13, i32 0, i32 0
  %13 = load i64, i64* %12, align 8
  %14 = add i64 %13, -8
  %15 = inttoptr i64 %14 to i64*
  store i64 %9, i64* %15
  store i64 %14, i64* %12, align 8
  %16 = getelementptr inbounds %struct.State, %struct.State* %0, i64 0, i32 6, i32 33, i32 0, i32 0
  store i64 %7, i64* %16, align 8
  ret %struct.Memory* %2
}

define %struct.Memory* @routine_addsd_MINUS0x28__rbp____xmm0(%struct.State* dereferenceable(3376), i64, %struct.Memory*) {
block_400488:
  %3 = getelementptr inbounds %struct.State, %struct.State* %0, i32 0, i32 6
  %4 = getelementptr inbounds %struct.GPR, %struct.GPR* %3, i32 0, i32 33
  %5 = getelementptr inbounds %struct.Reg, %struct.Reg* %4, i32 0, i32 0
  %PC = bitcast %union.anon* %5 to i64*
  %6 = getelementptr inbounds %struct.State, %struct.State* %0, i32 0, i32 6
  %7 = getelementptr inbounds %struct.GPR, %struct.GPR* %6, i32 0, i32 15
  %8 = getelementptr inbounds %struct.Reg, %struct.Reg* %7, i32 0, i32 0
  %RBP = bitcast %union.anon* %8 to i64*
  %9 = getelementptr inbounds %struct.State, %struct.State* %0, i32 0, i32 1
  %10 = getelementptr inbounds [32 x %union.VectorReg], [32 x %union.VectorReg]* %9, i64 0, i64 0
  %YMM0 = bitcast %union.VectorReg* %10 to %"class.std::bitset"*
  %11 = bitcast %"class.std::bitset"* %YMM0 to i8*
  %12 = bitcast %"class.std::bitset"* %YMM0 to i8*
  %13 = load i64, i64* %RBP
  %14 = sub i64 %13, 40
  %15 = load i64, i64* %PC
  %16 = add i64 %15, 5
  store i64 %16, i64* %PC
  %17 = bitcast i8* %12 to double*
  %18 = load double, double* %17, align 1
  %19 = getelementptr inbounds i8, i8* %12, i64 8
  %20 = bitcast i8* %19 to i64*
  %21 = load i64, i64* %20, align 1
  %22 = inttoptr i64 %14 to double*
  %23 = load double, double* %22
  %24 = fadd double %18, %23
  %25 = bitcast i8* %11 to double*
  store double %24, double* %25, align 1
  %26 = getelementptr inbounds i8, i8* %11, i64 8
  %27 = bitcast i8* %26 to i64*
  store i64 %21, i64* %27, align 1
  ret %struct.Memory* %2
}

define %struct.Memory* @routine_addl__0x1___edx(%struct.State* dereferenceable(3376), i64, %struct.Memory*) {
block_400488:
  %3 = getelementptr inbounds %struct.State, %struct.State* %0, i32 0, i32 6
  %4 = getelementptr inbounds %struct.GPR, %struct.GPR* %3, i32 0, i32 33
  %5 = getelementptr inbounds %struct.Reg, %struct.Reg* %4, i32 0, i32 0
  %PC = bitcast %union.anon* %5 to i64*
  %6 = getelementptr inbounds %struct.State, %struct.State* %0, i32 0, i32 6
  %7 = getelementptr inbounds %struct.GPR, %struct.GPR* %6, i32 0, i32 7
  %8 = getelementptr inbounds %struct.Reg, %struct.Reg* %7, i32 0, i32 0
  %RDX = bitcast %union.anon* %8 to i64*
  %9 = load i64, i64* %RDX
  %10 = load i64, i64* %PC
  %11 = add i64 %10, 3
  store i64 %11, i64* %PC
  %12 = trunc i64 %9 to i32
  %13 = add i32 1, %12
  %14 = zext i32 %13 to i64
  store i64 %14, i64* %RDX, align 8
  %15 = icmp ult i32 %13, %12
  %16 = icmp ult i32 %13, 1
  %17 = or i1 %15, %16
  %18 = zext i1 %17 to i8
  %19 = getelementptr inbounds %struct.State, %struct.State* %0, i64 0, i32 2, i32 1
  store i8 %18, i8* %19, align 1
  %20 = and i32 %13, 255
  %21 = call i32 @llvm.ctpop.i32(i32 %20)
  %22 = trunc i32 %21 to i8
  %23 = and i8 %22, 1
  %24 = xor i8 %23, 1
  %25 = getelementptr inbounds %struct.State, %struct.State* %0, i64 0, i32 2, i32 3
  store i8 %24, i8* %25, align 1
  %26 = xor i64 1, %9
  %27 = trunc i64 %26 to i32
  %28 = xor i32 %27, %13
  %29 = lshr i32 %28, 4
  %30 = trunc i32 %29 to i8
  %31 = and i8 %30, 1
  %32 = getelementptr inbounds %struct.State, %struct.State* %0, i64 0, i32 2, i32 5
  store i8 %31, i8* %32, align 1
  %33 = icmp eq i32 %13, 0
  %34 = zext i1 %33 to i8
  %35 = getelementptr inbounds %struct.State, %struct.State* %0, i64 0, i32 2, i32 7
  store i8 %34, i8* %35, align 1
  %36 = lshr i32 %13, 31
  %37 = trunc i32 %36 to i8
  %38 = getelementptr inbounds %struct.State, %struct.State* %0, i64 0, i32 2, i32 9
  store i8 %37, i8* %38, align 1
  %39 = lshr i32 %12, 31
  %40 = xor i32 %36, %39
  %41 = add i32 %40, %36
  %42 = icmp eq i32 %41, 2
  %43 = zext i1 %42 to i8
  %44 = getelementptr inbounds %struct.State, %struct.State* %0, i64 0, i32 2, i32 13
  store i8 %43, i8* %44, align 1
  ret %struct.Memory* %2
}

define %struct.Memory* @routine_cmpl_MINUS0xc__rbp____edx(%struct.State* dereferenceable(3376), i64, %struct.Memory*) {
block_400488:
  %3 = getelementptr inbounds %struct.State, %struct.State* %0, i32 0, i32 6
  %4 = getelementptr inbounds %struct.GPR, %struct.GPR* %3, i32 0, i32 33
  %5 = getelementptr inbounds %struct.Reg, %struct.Reg* %4, i32 0, i32 0
  %PC = bitcast %union.anon* %5 to i64*
  %6 = getelementptr inbounds %struct.State, %struct.State* %0, i32 0, i32 6
  %7 = getelementptr inbounds %struct.GPR, %struct.GPR* %6, i32 0, i32 7
  %8 = getelementptr inbounds %struct.Reg, %struct.Reg* %7, i32 0, i32 0
  %EDX = bitcast %union.anon* %8 to i32*
  %9 = getelementptr inbounds %struct.State, %struct.State* %0, i32 0, i32 6
  %10 = getelementptr inbounds %struct.GPR, %struct.GPR* %9, i32 0, i32 15
  %11 = getelementptr inbounds %struct.Reg, %struct.Reg* %10, i32 0, i32 0
  %RBP = bitcast %union.anon* %11 to i64*
  %12 = load i32, i32* %EDX
  %13 = zext i32 %12 to i64
  %14 = load i64, i64* %RBP
  %15 = sub i64 %14, 12
  %16 = load i64, i64* %PC
  %17 = add i64 %16, 3
  store i64 %17, i64* %PC
  %18 = inttoptr i64 %15 to i32*
  %19 = load i32, i32* %18
  %20 = sub i32 %12, %19
  %21 = icmp ult i32 %12, %19
  %22 = zext i1 %21 to i8
  %23 = getelementptr inbounds %struct.State, %struct.State* %0, i64 0, i32 2, i32 1
  store i8 %22, i8* %23, align 1
  %24 = and i32 %20, 255
  %25 = call i32 @llvm.ctpop.i32(i32 %24)
  %26 = trunc i32 %25 to i8
  %27 = and i8 %26, 1
  %28 = xor i8 %27, 1
  %29 = getelementptr inbounds %struct.State, %struct.State* %0, i64 0, i32 2, i32 3
  store i8 %28, i8* %29, align 1
  %30 = xor i32 %19, %12
  %31 = xor i32 %30, %20
  %32 = lshr i32 %31, 4
  %33 = trunc i32 %32 to i8
  %34 = and i8 %33, 1
  %35 = getelementptr inbounds %struct.State, %struct.State* %0, i64 0, i32 2, i32 5
  store i8 %34, i8* %35, align 1
  %36 = icmp eq i32 %20, 0
  %37 = zext i1 %36 to i8
  %38 = getelementptr inbounds %struct.State, %struct.State* %0, i64 0, i32 2, i32 7
  store i8 %37, i8* %38, align 1
  %39 = lshr i32 %20, 31
  %40 = trunc i32 %39 to i8
  %41 = getelementptr inbounds %struct.State, %struct.State* %0, i64 0, i32 2, i32 9
  store i8 %40, i8* %41, align 1
  %42 = lshr i32 %12, 31
  %43 = lshr i32 %19, 31
  %44 = xor i32 %43, %42
  %45 = xor i32 %39, %42
  %46 = add i32 %45, %44
  %47 = icmp eq i32 %46, 2
  %48 = zext i1 %47 to i8
  %49 = getelementptr inbounds %struct.State, %struct.State* %0, i64 0, i32 2, i32 13
  store i8 %48, i8* %49, align 1
  ret %struct.Memory* %2
}

define %struct.Memory* @routine_je_.L_40259d(%struct.State* dereferenceable(3376), i64, %struct.Memory*, i8* %BRANCH_TAKEN, i64 %rel_off1, i64 %rel_off2, i64 %rel_off3) {
block_400488:
  %3 = getelementptr inbounds %struct.State, %struct.State* %0, i32 0, i32 6
  %4 = getelementptr inbounds %struct.GPR, %struct.GPR* %3, i32 0, i32 33
  %5 = getelementptr inbounds %struct.Reg, %struct.Reg* %4, i32 0, i32 0
  %PC = bitcast %union.anon* %5 to i64*
  %6 = load i64, i64* %PC
  %7 = add i64 %6, %rel_off1
  %8 = load i64, i64* %PC
  %9 = add i64 %8, %rel_off2
  %10 = load i64, i64* %PC
  %11 = add i64 %10, %rel_off3
  store i64 %11, i64* %PC
  %12 = getelementptr inbounds %struct.State, %struct.State* %0, i64 0, i32 2, i32 7
  %13 = load i8, i8* %12, align 1
  store i8 %13, i8* %BRANCH_TAKEN, align 1
  %14 = getelementptr inbounds %struct.State, %struct.State* %0, i64 0, i32 6, i32 33, i32 0, i32 0
  %15 = icmp ne i8 %13, 0
  %16 = select i1 %15, i64 %7, i64 %9
  store i64 %16, i64* %14, align 8
  ret %struct.Memory* %2
}

define %struct.Memory* @routine_jmpq_.L_4025a2(%struct.State* dereferenceable(3376), i64, %struct.Memory*, i64 %rel_off1, i64 %rel_off2) {
block_400488:
  %3 = getelementptr inbounds %struct.State, %struct.State* %0, i32 0, i32 6
  %4 = getelementptr inbounds %struct.GPR, %struct.GPR* %3, i32 0, i32 33
  %5 = getelementptr inbounds %struct.Reg, %struct.Reg* %4, i32 0, i32 0
  %PC = bitcast %union.anon* %5 to i64*
  %6 = load i64, i64* %PC
  %7 = add i64 %6, %rel_off1
  %8 = load i64, i64* %PC
  %9 = add i64 %8, %rel_off2
  store i64 %9, i64* %PC
  %10 = getelementptr inbounds %struct.State, %struct.State* %0, i64 0, i32 6, i32 33, i32 0, i32 0
  store i64 %7, i64* %10, align 8
  ret %struct.Memory* %2
}

define %struct.Memory* @routine_movsd_MINUS0x28__rbp____xmm0(%struct.State* dereferenceable(3376), i64, %struct.Memory*) {
block_400488:
  %3 = getelementptr inbounds %struct.State, %struct.State* %0, i32 0, i32 6
  %4 = getelementptr inbounds %struct.GPR, %struct.GPR* %3, i32 0, i32 33
  %5 = getelementptr inbounds %struct.Reg, %struct.Reg* %4, i32 0, i32 0
  %PC = bitcast %union.anon* %5 to i64*
  %6 = getelementptr inbounds %struct.State, %struct.State* %0, i32 0, i32 6
  %7 = getelementptr inbounds %struct.GPR, %struct.GPR* %6, i32 0, i32 15
  %8 = getelementptr inbounds %struct.Reg, %struct.Reg* %7, i32 0, i32 0
  %RBP = bitcast %union.anon* %8 to i64*
  %9 = getelementptr inbounds %struct.State, %struct.State* %0, i32 0, i32 1
  %10 = getelementptr inbounds [32 x %union.VectorReg], [32 x %union.VectorReg]* %9, i64 0, i64 0
  %YMM0 = bitcast %union.VectorReg* %10 to %"class.std::bitset"*
  %11 = bitcast %"class.std::bitset"* %YMM0 to i8*
  %12 = load i64, i64* %RBP
  %13 = sub i64 %12, 40
  %14 = load i64, i64* %PC
  %15 = add i64 %14, 5
  store i64 %15, i64* %PC
  %16 = inttoptr i64 %13 to double*
  %17 = load double, double* %16
  %18 = bitcast i8* %11 to double*
  store double %17, double* %18, align 1
  %19 = getelementptr inbounds i8, i8* %11, i64 8
  %20 = bitcast i8* %19 to double*
  store double 0.000000e+00, double* %20, align 1
  ret %struct.Memory* %2
}

define %struct.Memory* @routine_callq_._Z9check_sumIdEvT_(%struct.State* dereferenceable(3376), i64, %struct.Memory*, i64 %rel_off1, i64 %rel_off2, i64 %rel_off3) {
block_400488:
  %3 = getelementptr inbounds %struct.State, %struct.State* %0, i32 0, i32 6
  %4 = getelementptr inbounds %struct.GPR, %struct.GPR* %3, i32 0, i32 33
  %5 = getelementptr inbounds %struct.Reg, %struct.Reg* %4, i32 0, i32 0
  %PC = bitcast %union.anon* %5 to i64*
  %6 = load i64, i64* %PC
  %7 = add i64 %6, %rel_off1
  %8 = load i64, i64* %PC
  %9 = add i64 %8, %rel_off2
  %10 = load i64, i64* %PC
  %11 = add i64 %10, %rel_off3
  store i64 %11, i64* %PC
  %12 = getelementptr inbounds %struct.State, %struct.State* %0, i64 0, i32 6, i32 13, i32 0, i32 0
  %13 = load i64, i64* %12, align 8
  %14 = add i64 %13, -8
  %15 = inttoptr i64 %14 to i64*
  store i64 %9, i64* %15
  store i64 %14, i64* %12, align 8
  %16 = getelementptr inbounds %struct.State, %struct.State* %0, i64 0, i32 6, i32 33, i32 0, i32 0
  store i64 %7, i64* %16, align 8
  ret %struct.Memory* %2
}

define %struct.Memory* @routine_addl__0x1___eax(%struct.State* dereferenceable(3376), i64, %struct.Memory*) {
block_400488:
  %3 = getelementptr inbounds %struct.State, %struct.State* %0, i32 0, i32 6
  %4 = getelementptr inbounds %struct.GPR, %struct.GPR* %3, i32 0, i32 33
  %5 = getelementptr inbounds %struct.Reg, %struct.Reg* %4, i32 0, i32 0
  %PC = bitcast %union.anon* %5 to i64*
  %6 = getelementptr inbounds %struct.State, %struct.State* %0, i32 0, i32 6
  %7 = getelementptr inbounds %struct.GPR, %struct.GPR* %6, i32 0, i32 1
  %8 = getelementptr inbounds %struct.Reg, %struct.Reg* %7, i32 0, i32 0
  %RAX = bitcast %union.anon* %8 to i64*
  %9 = load i64, i64* %RAX
  %10 = load i64, i64* %PC
  %11 = add i64 %10, 3
  store i64 %11, i64* %PC
  %12 = trunc i64 %9 to i32
  %13 = add i32 1, %12
  %14 = zext i32 %13 to i64
  store i64 %14, i64* %RAX, align 8
  %15 = icmp ult i32 %13, %12
  %16 = icmp ult i32 %13, 1
  %17 = or i1 %15, %16
  %18 = zext i1 %17 to i8
  %19 = getelementptr inbounds %struct.State, %struct.State* %0, i64 0, i32 2, i32 1
  store i8 %18, i8* %19, align 1
  %20 = and i32 %13, 255
  %21 = call i32 @llvm.ctpop.i32(i32 %20)
  %22 = trunc i32 %21 to i8
  %23 = and i8 %22, 1
  %24 = xor i8 %23, 1
  %25 = getelementptr inbounds %struct.State, %struct.State* %0, i64 0, i32 2, i32 3
  store i8 %24, i8* %25, align 1
  %26 = xor i64 1, %9
  %27 = trunc i64 %26 to i32
  %28 = xor i32 %27, %13
  %29 = lshr i32 %28, 4
  %30 = trunc i32 %29 to i8
  %31 = and i8 %30, 1
  %32 = getelementptr inbounds %struct.State, %struct.State* %0, i64 0, i32 2, i32 5
  store i8 %31, i8* %32, align 1
  %33 = icmp eq i32 %13, 0
  %34 = zext i1 %33 to i8
  %35 = getelementptr inbounds %struct.State, %struct.State* %0, i64 0, i32 2, i32 7
  store i8 %34, i8* %35, align 1
  %36 = lshr i32 %13, 31
  %37 = trunc i32 %36 to i8
  %38 = getelementptr inbounds %struct.State, %struct.State* %0, i64 0, i32 2, i32 9
  store i8 %37, i8* %38, align 1
  %39 = lshr i32 %12, 31
  %40 = xor i32 %36, %39
  %41 = add i32 %40, %36
  %42 = icmp eq i32 %41, 2
  %43 = zext i1 %42 to i8
  %44 = getelementptr inbounds %struct.State, %struct.State* %0, i64 0, i32 2, i32 13
  store i8 %43, i8* %44, align 1
  ret %struct.Memory* %2
}

define %struct.Memory* @routine_movl__eax__MINUS0x1c__rbp_(%struct.State* dereferenceable(3376), i64, %struct.Memory*) {
block_400488:
  %3 = getelementptr inbounds %struct.State, %struct.State* %0, i32 0, i32 6
  %4 = getelementptr inbounds %struct.GPR, %struct.GPR* %3, i32 0, i32 33
  %5 = getelementptr inbounds %struct.Reg, %struct.Reg* %4, i32 0, i32 0
  %PC = bitcast %union.anon* %5 to i64*
  %6 = getelementptr inbounds %struct.State, %struct.State* %0, i32 0, i32 6
  %7 = getelementptr inbounds %struct.GPR, %struct.GPR* %6, i32 0, i32 1
  %8 = getelementptr inbounds %struct.Reg, %struct.Reg* %7, i32 0, i32 0
  %EAX = bitcast %union.anon* %8 to i32*
  %9 = getelementptr inbounds %struct.State, %struct.State* %0, i32 0, i32 6
  %10 = getelementptr inbounds %struct.GPR, %struct.GPR* %9, i32 0, i32 15
  %11 = getelementptr inbounds %struct.Reg, %struct.Reg* %10, i32 0, i32 0
  %RBP = bitcast %union.anon* %11 to i64*
  %12 = load i64, i64* %RBP
  %13 = sub i64 %12, 28
  %14 = load i32, i32* %EAX
  %15 = zext i32 %14 to i64
  %16 = load i64, i64* %PC
  %17 = add i64 %16, 3
  store i64 %17, i64* %PC
  %18 = inttoptr i64 %13 to i32*
  store i32 %14, i32* %18
  ret %struct.Memory* %2
}

define %struct.Memory* @routine_jmpq_.L_4024ef(%struct.State* dereferenceable(3376), i64, %struct.Memory*, i64 %rel_off1, i64 %rel_off2) {
block_400488:
  %3 = getelementptr inbounds %struct.State, %struct.State* %0, i32 0, i32 6
  %4 = getelementptr inbounds %struct.GPR, %struct.GPR* %3, i32 0, i32 33
  %5 = getelementptr inbounds %struct.Reg, %struct.Reg* %4, i32 0, i32 0
  %PC = bitcast %union.anon* %5 to i64*
  %6 = load i64, i64* %PC
  %7 = add i64 %6, %rel_off1
  %8 = load i64, i64* %PC
  %9 = add i64 %8, %rel_off2
  store i64 %9, i64* %PC
  %10 = getelementptr inbounds %struct.State, %struct.State* %0, i64 0, i32 6, i32 33, i32 0, i32 0
  store i64 %7, i64* %10, align 8
  ret %struct.Memory* %2
}

define %struct.Memory* @routine_callq_._Z5timerv(%struct.State* dereferenceable(3376), i64, %struct.Memory*, i64 %rel_off1, i64 %rel_off2, i64 %rel_off3) {
block_400488:
  %3 = getelementptr inbounds %struct.State, %struct.State* %0, i32 0, i32 6
  %4 = getelementptr inbounds %struct.GPR, %struct.GPR* %3, i32 0, i32 33
  %5 = getelementptr inbounds %struct.Reg, %struct.Reg* %4, i32 0, i32 0
  %PC = bitcast %union.anon* %5 to i64*
  %6 = load i64, i64* %PC
  %7 = add i64 %6, %rel_off1
  %8 = load i64, i64* %PC
  %9 = add i64 %8, %rel_off2
  %10 = load i64, i64* %PC
  %11 = add i64 %10, %rel_off3
  store i64 %11, i64* %PC
  %12 = getelementptr inbounds %struct.State, %struct.State* %0, i64 0, i32 6, i32 13, i32 0, i32 0
  %13 = load i64, i64* %12, align 8
  %14 = add i64 %13, -8
  %15 = inttoptr i64 %14 to i64*
  store i64 %9, i64* %15
  store i64 %14, i64* %12, align 8
  %16 = getelementptr inbounds %struct.State, %struct.State* %0, i64 0, i32 6, i32 33, i32 0, i32 0
  store i64 %7, i64* %16, align 8
  ret %struct.Memory* %2
}

define %struct.Memory* @routine_movq_MINUS0x18__rbp____rdi(%struct.State* dereferenceable(3376), i64, %struct.Memory*) {
block_400488:
  %3 = getelementptr inbounds %struct.State, %struct.State* %0, i32 0, i32 6
  %4 = getelementptr inbounds %struct.GPR, %struct.GPR* %3, i32 0, i32 33
  %5 = getelementptr inbounds %struct.Reg, %struct.Reg* %4, i32 0, i32 0
  %PC = bitcast %union.anon* %5 to i64*
  %6 = getelementptr inbounds %struct.State, %struct.State* %0, i32 0, i32 6
  %7 = getelementptr inbounds %struct.GPR, %struct.GPR* %6, i32 0, i32 11
  %8 = getelementptr inbounds %struct.Reg, %struct.Reg* %7, i32 0, i32 0
  %RDI = bitcast %union.anon* %8 to i64*
  %9 = getelementptr inbounds %struct.State, %struct.State* %0, i32 0, i32 6
  %10 = getelementptr inbounds %struct.GPR, %struct.GPR* %9, i32 0, i32 15
  %11 = getelementptr inbounds %struct.Reg, %struct.Reg* %10, i32 0, i32 0
  %RBP = bitcast %union.anon* %11 to i64*
  %12 = load i64, i64* %RBP
  %13 = sub i64 %12, 24
  %14 = load i64, i64* %PC
  %15 = add i64 %14, 4
  store i64 %15, i64* %PC
  %16 = inttoptr i64 %13 to i64*
  %17 = load i64, i64* %16
  store i64 %17, i64* %RDI, align 8
  ret %struct.Memory* %2
}

define %struct.Memory* @routine_callq_._Z13record_resultdPKc(%struct.State* dereferenceable(3376), i64, %struct.Memory*, i64 %rel_off1, i64 %rel_off2, i64 %rel_off3) {
block_400488:
  %3 = getelementptr inbounds %struct.State, %struct.State* %0, i32 0, i32 6
  %4 = getelementptr inbounds %struct.GPR, %struct.GPR* %3, i32 0, i32 33
  %5 = getelementptr inbounds %struct.Reg, %struct.Reg* %4, i32 0, i32 0
  %PC = bitcast %union.anon* %5 to i64*
  %6 = load i64, i64* %PC
  %7 = add i64 %6, %rel_off1
  %8 = load i64, i64* %PC
  %9 = add i64 %8, %rel_off2
  %10 = load i64, i64* %PC
  %11 = add i64 %10, %rel_off3
  store i64 %11, i64* %PC
  %12 = getelementptr inbounds %struct.State, %struct.State* %0, i64 0, i32 6, i32 13, i32 0, i32 0
  %13 = load i64, i64* %12, align 8
  %14 = add i64 %13, -8
  %15 = inttoptr i64 %14 to i64*
  store i64 %9, i64* %15
  store i64 %14, i64* %12, align 8
  %16 = getelementptr inbounds %struct.State, %struct.State* %0, i64 0, i32 6, i32 33, i32 0, i32 0
  store i64 %7, i64* %16, align 8
  ret %struct.Memory* %2
}

define %struct.Memory* @routine_addq__0x30___rsp(%struct.State* dereferenceable(3376), i64, %struct.Memory*) {
block_400488:
  %3 = getelementptr inbounds %struct.State, %struct.State* %0, i32 0, i32 6
  %4 = getelementptr inbounds %struct.GPR, %struct.GPR* %3, i32 0, i32 33
  %5 = getelementptr inbounds %struct.Reg, %struct.Reg* %4, i32 0, i32 0
  %PC = bitcast %union.anon* %5 to i64*
  %6 = getelementptr inbounds %struct.State, %struct.State* %0, i32 0, i32 6
  %7 = getelementptr inbounds %struct.GPR, %struct.GPR* %6, i32 0, i32 13
  %8 = getelementptr inbounds %struct.Reg, %struct.Reg* %7, i32 0, i32 0
  %RSP = bitcast %union.anon* %8 to i64*
  %9 = load i64, i64* %RSP
  %10 = load i64, i64* %PC
  %11 = add i64 %10, 4
  store i64 %11, i64* %PC
  %12 = add i64 48, %9
  store i64 %12, i64* %RSP, align 8
  %13 = icmp ult i64 %12, %9
  %14 = icmp ult i64 %12, 48
  %15 = or i1 %13, %14
  %16 = zext i1 %15 to i8
  %17 = getelementptr inbounds %struct.State, %struct.State* %0, i64 0, i32 2, i32 1
  store i8 %16, i8* %17, align 1
  %18 = trunc i64 %12 to i32
  %19 = and i32 %18, 255
  %20 = call i32 @llvm.ctpop.i32(i32 %19)
  %21 = trunc i32 %20 to i8
  %22 = and i8 %21, 1
  %23 = xor i8 %22, 1
  %24 = getelementptr inbounds %struct.State, %struct.State* %0, i64 0, i32 2, i32 3
  store i8 %23, i8* %24, align 1
  %25 = xor i64 48, %9
  %26 = xor i64 %25, %12
  %27 = lshr i64 %26, 4
  %28 = trunc i64 %27 to i8
  %29 = and i8 %28, 1
  %30 = getelementptr inbounds %struct.State, %struct.State* %0, i64 0, i32 2, i32 5
  store i8 %29, i8* %30, align 1
  %31 = icmp eq i64 %12, 0
  %32 = zext i1 %31 to i8
  %33 = getelementptr inbounds %struct.State, %struct.State* %0, i64 0, i32 2, i32 7
  store i8 %32, i8* %33, align 1
  %34 = lshr i64 %12, 63
  %35 = trunc i64 %34 to i8
  %36 = getelementptr inbounds %struct.State, %struct.State* %0, i64 0, i32 2, i32 9
  store i8 %35, i8* %36, align 1
  %37 = lshr i64 %9, 63
  %38 = xor i64 %34, %37
  %39 = add i64 %38, %34
  %40 = icmp eq i64 %39, 2
  %41 = zext i1 %40 to i8
  %42 = getelementptr inbounds %struct.State, %struct.State* %0, i64 0, i32 2, i32 13
  store i8 %41, i8* %42, align 1
  ret %struct.Memory* %2
}

define %struct.Memory* @routine_popq__rbp(%struct.State* dereferenceable(3376), i64, %struct.Memory*) {
block_400488:
  %3 = getelementptr inbounds %struct.State, %struct.State* %0, i32 0, i32 6
  %4 = getelementptr inbounds %struct.GPR, %struct.GPR* %3, i32 0, i32 33
  %5 = getelementptr inbounds %struct.Reg, %struct.Reg* %4, i32 0, i32 0
  %PC = bitcast %union.anon* %5 to i64*
  %6 = getelementptr inbounds %struct.State, %struct.State* %0, i32 0, i32 6
  %7 = getelementptr inbounds %struct.GPR, %struct.GPR* %6, i32 0, i32 15
  %8 = getelementptr inbounds %struct.Reg, %struct.Reg* %7, i32 0, i32 0
  %RBP = bitcast %union.anon* %8 to i64*
  %9 = load i64, i64* %PC
  %10 = add i64 %9, 1
  store i64 %10, i64* %PC
  %11 = getelementptr inbounds %struct.State, %struct.State* %0, i64 0, i32 6, i32 13, i32 0, i32 0
  %12 = load i64, i64* %11, align 8
  %13 = add i64 %12, 8
  %14 = inttoptr i64 %12 to i64*
  %15 = load i64, i64* %14
  store i64 %15, i64* %RBP, align 8
  store i64 %13, i64* %11, align 8
  ret %struct.Memory* %2
}

define %struct.Memory* @routine_retq(%struct.State* dereferenceable(3376), i64, %struct.Memory*) {
block_400488:
  %3 = getelementptr inbounds %struct.State, %struct.State* %0, i32 0, i32 6
  %4 = getelementptr inbounds %struct.GPR, %struct.GPR* %3, i32 0, i32 33
  %5 = getelementptr inbounds %struct.Reg, %struct.Reg* %4, i32 0, i32 0
  %PC = bitcast %union.anon* %5 to i64*
  %6 = load i64, i64* %PC
  %7 = add i64 %6, 1
  store i64 %7, i64* %PC
  %8 = getelementptr inbounds %struct.State, %struct.State* %0, i64 0, i32 6, i32 33, i32 0, i32 0
  %9 = getelementptr inbounds %struct.State, %struct.State* %0, i64 0, i32 6, i32 13, i32 0, i32 0
  %10 = load i64, i64* %9, align 8
  %11 = inttoptr i64 %10 to i64*
  %12 = load i64, i64* %11
  store i64 %12, i64* %8, align 8
  %13 = add i64 %10, 8
  store i64 %13, i64* %9, align 8
  ret %struct.Memory* %2
}

attributes #0 = { nounwind readnone }
attributes #1 = { alwaysinline }
