; ModuleID = 'mcsema/test.proposed.ll'
source_filename = "llvm-link"
target datalayout = "e-m:e-i64:64-f80:128-n8:16:32:64-S128"
target triple = "x86_64-pc-linux-gnu-elf"

%union.anon = type { i64 }
%seg_400388__init_type = type <{ [23 x i8] }>
%seg_4003a0__text_type = type <{ [354 x i8] }>
%seg_400504__fini_type = type <{ [9 x i8] }>
%seg_400510__rodata_type = type <{ [4 x i8] }>
%seg_400514__eh_frame_hdr_type = type <{ [52 x i8] }>
%seg_400548__eh_frame_type = type <{ [208 x i8] }>
%seg_601018__data_type = type <{ [16 x i8] }>
%__bss_start_type = type <{ [8 x i8] }>
%struct.State = type { %struct.ArchState, [32 x %union.VectorReg], %struct.ArithFlags, %union.anon, %struct.Segments, %struct.AddressSpace, %struct.GPR, %struct.X87Stack, %struct.MMX, %struct.FPUStatusFlags, %union.anon, %union.FPU, %struct.SegmentCaches }
%struct.ArchState = type { i32, i32, %union.anon }
%union.VectorReg = type { %union.vec512_t }
%union.vec512_t = type { %struct.uint64v8_t }
%struct.uint64v8_t = type { [8 x i64] }
%struct.ArithFlags = type { i8, i8, i8, i8, i8, i8, i8, i8, i8, i8, i8, i8, i8, i8, i8, i8 }
%struct.Segments = type { i16, %union.SegmentSelector, i16, %union.SegmentSelector, i16, %union.SegmentSelector, i16, %union.SegmentSelector, i16, %union.SegmentSelector, i16, %union.SegmentSelector }
%union.SegmentSelector = type { i16 }
%struct.AddressSpace = type { i64, %struct.Reg, i64, %struct.Reg, i64, %struct.Reg, i64, %struct.Reg, i64, %struct.Reg, i64, %struct.Reg }
%struct.Reg = type { %union.anon }
%struct.GPR = type { i64, %struct.Reg, i64, %struct.Reg, i64, %struct.Reg, i64, %struct.Reg, i64, %struct.Reg, i64, %struct.Reg, i64, %struct.Reg, i64, %struct.Reg, i64, %struct.Reg, i64, %struct.Reg, i64, %struct.Reg, i64, %struct.Reg, i64, %struct.Reg, i64, %struct.Reg, i64, %struct.Reg, i64, %struct.Reg, i64, %struct.Reg }
%struct.X87Stack = type { [8 x %struct.anon.3] }
%struct.anon.3 = type { i64, double }
%struct.MMX = type { [8 x %struct.anon.4] }
%struct.anon.4 = type { i64, %union.vec64_t }
%union.vec64_t = type { %struct.uint64v1_t }
%struct.uint64v1_t = type { [1 x i64] }
%struct.FPUStatusFlags = type { i8, i8, i8, i8, i8, i8, i8, i8, i8, i8, i8, i8, i8, i8, i8, i8, i8, i8, i8, i8, [4 x i8] }
%union.FPU = type { %struct.anon.13 }
%struct.anon.13 = type { %struct.FpuFXSAVE, [96 x i8] }
%struct.FpuFXSAVE = type { %union.SegmentSelector, %union.SegmentSelector, %union.FPUAbridgedTagWord, i8, i16, i32, %union.SegmentSelector, i16, i32, %union.SegmentSelector, i16, %union.FPUControlStatus, %union.FPUControlStatus, [8 x %struct.FPUStackElem], [16 x %union.vec128_t] }
%union.FPUAbridgedTagWord = type { i8 }
%union.FPUControlStatus = type { i32 }
%struct.FPUStackElem = type { %union.anon.11, [6 x i8] }
%union.anon.11 = type { %struct.float80_t }
%struct.float80_t = type { [10 x i8] }
%union.vec128_t = type { %struct.uint128v1_t }
%struct.uint128v1_t = type { [1 x i128] }
%struct.SegmentCaches = type { %struct.SegmentShadow, %struct.SegmentShadow, %struct.SegmentShadow, %struct.SegmentShadow, %struct.SegmentShadow, %struct.SegmentShadow }
%struct.SegmentShadow = type { %union.anon, i32, i32 }
%struct.Memory = type opaque
%"class.std::bitset" = type { %struct.uint64v4_t }
%struct.uint64v4_t = type { [4 x i64] }

@switch.table = private unnamed_addr constant [4 x i32] [i32 2048, i32 3072, i32 0, i32 1024]
@DR0 = external global i64, align 8
@DR1 = external global i64, align 8
@DR2 = external global i64, align 8
@DR3 = external global i64, align 8
@DR4 = external global i64, align 8
@DR5 = external global i64, align 8
@DR6 = external global i64, align 8
@DR7 = external global i64, align 8
@gCR0 = external global %union.anon, align 1
@gCR1 = external global %union.anon, align 1
@gCR2 = external global %union.anon, align 1
@gCR3 = external global %union.anon, align 1
@gCR4 = external global %union.anon, align 1
@gCR8 = external global %union.anon, align 1
@seg_400388__init = internal constant %seg_400388__init_type <{ [23 x i8] c"H\83\EC\08H\8B\05e\0C \00H\85\C0t\02\FF\D0H\83\C4\08\C3" }>
@seg_4003a0__text = internal constant %seg_4003a0__text_type <{ [354 x i8] c"1\EDI\89\D1^H\89\E2H\83\E4\F0PTI\C7\C0\00\05@\00H\C7\C1\90\04@\00H\C7\C7\88\04@\00\FF\15&\0C \00\F4\0F\1FD\00\00\F3\C3f.\0F\1F\84\00\00\00\00\00\0F\1F@\00U\B8(\10`\00H=(\10`\00H\89\E5t\17\B8\00\00\00\00H\85\C0t\0D]\BF(\10`\00\FF\E0\0F\1FD\00\00]\C3f\0F\1FD\00\00\BE(\10`\00UH\81\EE(\10`\00H\89\E5H\C1\FE\03H\89\F0H\C1\E8?H\01\C6H\D1\FEt\15\B8\00\00\00\00H\85\C0t\0B]\BF(\10`\00\FF\E0\0F\1F\00]\C3f\0F\1FD\00\00\80=\D1\0B \00\00u\17UH\89\E5\E8~\FF\FF\FF\C6\05\BF\0B \00\01]\C3\0F\1FD\00\00\F3\C3\0F\1F@\00f.\0F\1F\84\00\00\00\00\00UH\89\E5]\EB\89\90U\C3f\0F\1FD\00\00AWAVI\89\D7AUATL\8D%\9E\09 \00UH\8D-\9E\09 \00SA\89\FDI\89\F6L)\E5H\83\EC\08H\C1\FD\03\E8\C7\FE\FF\FFH\85\EDt 1\DB\0F\1F\84\00\00\00\00\00L\89\FAL\89\F6D\89\EFA\FF\14\DCH\83\C3\01H9\DDu\EAH\83\C4\08[]A\5CA]A^A_\C3\90f.\0F\1F\84\00\00\00\00\00\F3\C3" }>
@seg_400504__fini = internal constant %seg_400504__fini_type <{ [9 x i8] c"H\83\EC\08H\83\C4\08\C3" }>
@seg_400510__rodata = internal constant %seg_400510__rodata_type <{ [4 x i8] c"\01\00\02\00" }>
@seg_400514__eh_frame_hdr = internal constant %seg_400514__eh_frame_hdr_type <{ [52 x i8] c"\01\1B\03;0\00\00\00\05\00\00\00\8C\FE\FF\FFL\00\00\00\BC\FE\FF\FFx\00\00\00t\FF\FF\FF\8C\00\00\00|\FF\FF\FF\A4\00\00\00\EC\FF\FF\FF\EC\00\00\00" }>
@seg_400548__eh_frame = internal constant %seg_400548__eh_frame_type <{ [208 x i8] c"\14\00\00\00\00\00\00\00\01zR\00\01x\10\01\1B\0C\07\08\90\01\07\10\10\00\00\00\1C\00\00\008\FE\FF\FF+\00\00\00\00\00\00\00\14\00\00\00\00\00\00\00\01zR\00\01x\10\01\1B\0C\07\08\90\01\00\00\10\00\00\00\1C\00\00\00<\FE\FF\FF\02\00\00\00\00\00\00\00\14\00\00\000\00\00\00\E0\FE\FF\FF\02\00\00\00\00\00\00\00\00\00\00\00D\00\00\00H\00\00\00\D0\FE\FF\FFe\00\00\00\00B\0E\10\8F\02B\0E\18\8E\03E\0E \8D\04B\0E(\8C\05H\0E0\86\06H\0E8\83\07M\0E@r\0E8A\0E0A\0E(B\0E B\0E\18B\0E\10B\0E\08\00\10\00\00\00\90\00\00\00\F8\FE\FF\FF\02\00\00\00\00\00\00\00\00\00\00\00" }>
@seg_601018__data = internal global %seg_601018__data_type zeroinitializer
@__bss_start = global %__bss_start_type zeroinitializer
@0 = internal global i1 false

; Function Attrs: nounwind readnone
declare i32 @llvm.ctpop.i32(i32) #0

declare %struct.Memory* @__remill_error(%struct.State* dereferenceable(3376), i64, %struct.Memory*)

declare %struct.Memory* @sub_400e50._Z11start_timerv(%struct.State* dereferenceable(3376), i64, %struct.Memory*)

declare %struct.Memory* @sub_40bf40._ZN30custom_mixed_multiple_variableIdE8do_shiftEddddd(%struct.State* dereferenceable(3376), i64, %struct.Memory*)

declare %struct.Memory* @sub_40bf80._Z26check_shifted_variable_sumId30custom_mixed_multiple_variableIdEEvT_S2_S2_S2_S2_(%struct.State* dereferenceable(3376), i64, %struct.Memory*)

declare %struct.Memory* @sub_400e70._Z5timerv(%struct.State* dereferenceable(3376), i64, %struct.Memory*)

declare %struct.Memory* @sub_400810._Z13record_resultdPKc(%struct.State* dereferenceable(3376), i64, %struct.Memory*)

; Function Attrs: alwaysinline
define %struct.Memory* @_Z14test_variable4Id30custom_mixed_multiple_variableIdEEvPT_iS2_S2_S2_S2_PKc(%struct.State* noalias, i64, %struct.Memory* noalias) #1 {
entry:
  %3 = getelementptr inbounds %struct.State, %struct.State* %0, i64 0, i32 6, i32 33, i32 0, i32 0
  store i64 %1, i64* %3, align 8
  %BRANCH_TAKEN = alloca i8, align 1
  store i8 0, i8* %BRANCH_TAKEN, align 1
  %MEMORY = alloca %struct.Memory*, align 8
  store %struct.Memory* %2, %struct.Memory** %MEMORY, align 8
  %loadMem_40be60 = load %struct.Memory*, %struct.Memory** %MEMORY
  %4 = getelementptr inbounds %struct.State, %struct.State* %0, i32 0, i32 6
  %5 = getelementptr inbounds %struct.GPR, %struct.GPR* %4, i32 0, i32 33
  %6 = getelementptr inbounds %struct.Reg, %struct.Reg* %5, i32 0, i32 0
  %PC.i = bitcast %union.anon* %6 to i64*
  %7 = getelementptr inbounds %struct.State, %struct.State* %0, i32 0, i32 6
  %8 = getelementptr inbounds %struct.GPR, %struct.GPR* %7, i32 0, i32 15
  %9 = getelementptr inbounds %struct.Reg, %struct.Reg* %8, i32 0, i32 0
  %RBP.i = bitcast %union.anon* %9 to i64*
  %10 = load i64, i64* %RBP.i
  %11 = load i64, i64* %PC.i
  %12 = add i64 %11, 1
  store i64 %12, i64* %PC.i
  %13 = getelementptr inbounds %struct.State, %struct.State* %0, i64 0, i32 6, i32 13, i32 0, i32 0
  %14 = load i64, i64* %13, align 8
  %15 = add i64 %14, -8
  %16 = inttoptr i64 %15 to i64*
  store i64 %10, i64* %16
  store i64 %15, i64* %13, align 8
  store %struct.Memory* %loadMem_40be60, %struct.Memory** %MEMORY
  %loadMem_40be61 = load %struct.Memory*, %struct.Memory** %MEMORY
  %17 = getelementptr inbounds %struct.State, %struct.State* %0, i32 0, i32 6
  %18 = getelementptr inbounds %struct.GPR, %struct.GPR* %17, i32 0, i32 33
  %19 = getelementptr inbounds %struct.Reg, %struct.Reg* %18, i32 0, i32 0
  %PC.i105 = bitcast %union.anon* %19 to i64*
  %20 = getelementptr inbounds %struct.State, %struct.State* %0, i32 0, i32 6
  %21 = getelementptr inbounds %struct.GPR, %struct.GPR* %20, i32 0, i32 13
  %22 = getelementptr inbounds %struct.Reg, %struct.Reg* %21, i32 0, i32 0
  %RSP.i106 = bitcast %union.anon* %22 to i64*
  %23 = getelementptr inbounds %struct.State, %struct.State* %0, i32 0, i32 6
  %24 = getelementptr inbounds %struct.GPR, %struct.GPR* %23, i32 0, i32 15
  %25 = getelementptr inbounds %struct.Reg, %struct.Reg* %24, i32 0, i32 0
  %RBP.i107 = bitcast %union.anon* %25 to i64*
  %26 = load i64, i64* %RSP.i106
  %27 = load i64, i64* %PC.i105
  %28 = add i64 %27, 3
  store i64 %28, i64* %PC.i105
  store i64 %26, i64* %RBP.i107, align 8
  store %struct.Memory* %loadMem_40be61, %struct.Memory** %MEMORY
  %loadMem_40be64 = load %struct.Memory*, %struct.Memory** %MEMORY
  %29 = getelementptr inbounds %struct.State, %struct.State* %0, i32 0, i32 6
  %30 = getelementptr inbounds %struct.GPR, %struct.GPR* %29, i32 0, i32 33
  %31 = getelementptr inbounds %struct.Reg, %struct.Reg* %30, i32 0, i32 0
  %PC.i103 = bitcast %union.anon* %31 to i64*
  %32 = getelementptr inbounds %struct.State, %struct.State* %0, i32 0, i32 6
  %33 = getelementptr inbounds %struct.GPR, %struct.GPR* %32, i32 0, i32 13
  %34 = getelementptr inbounds %struct.Reg, %struct.Reg* %33, i32 0, i32 0
  %RSP.i104 = bitcast %union.anon* %34 to i64*
  %35 = load i64, i64* %RSP.i104
  %36 = load i64, i64* %PC.i103
  %37 = add i64 %36, 4
  store i64 %37, i64* %PC.i103
  %38 = sub i64 %35, 80
  store i64 %38, i64* %RSP.i104, align 8
  %39 = icmp ult i64 %35, 80
  %40 = zext i1 %39 to i8
  %41 = getelementptr inbounds %struct.State, %struct.State* %0, i64 0, i32 2, i32 1
  store i8 %40, i8* %41, align 1
  %42 = trunc i64 %38 to i32
  %43 = and i32 %42, 255
  %44 = call i32 @llvm.ctpop.i32(i32 %43)
  %45 = trunc i32 %44 to i8
  %46 = and i8 %45, 1
  %47 = xor i8 %46, 1
  %48 = getelementptr inbounds %struct.State, %struct.State* %0, i64 0, i32 2, i32 3
  store i8 %47, i8* %48, align 1
  %49 = xor i64 80, %35
  %50 = xor i64 %49, %38
  %51 = lshr i64 %50, 4
  %52 = trunc i64 %51 to i8
  %53 = and i8 %52, 1
  %54 = getelementptr inbounds %struct.State, %struct.State* %0, i64 0, i32 2, i32 5
  store i8 %53, i8* %54, align 1
  %55 = icmp eq i64 %38, 0
  %56 = zext i1 %55 to i8
  %57 = getelementptr inbounds %struct.State, %struct.State* %0, i64 0, i32 2, i32 7
  store i8 %56, i8* %57, align 1
  %58 = lshr i64 %38, 63
  %59 = trunc i64 %58 to i8
  %60 = getelementptr inbounds %struct.State, %struct.State* %0, i64 0, i32 2, i32 9
  store i8 %59, i8* %60, align 1
  %61 = lshr i64 %35, 63
  %62 = xor i64 %58, %61
  %63 = add i64 %62, %61
  %64 = icmp eq i64 %63, 2
  %65 = zext i1 %64 to i8
  %66 = getelementptr inbounds %struct.State, %struct.State* %0, i64 0, i32 2, i32 13
  store i8 %65, i8* %66, align 1
  store %struct.Memory* %loadMem_40be64, %struct.Memory** %MEMORY
  %loadMem_40be68 = load %struct.Memory*, %struct.Memory** %MEMORY
  %67 = getelementptr inbounds %struct.State, %struct.State* %0, i32 0, i32 6
  %68 = getelementptr inbounds %struct.GPR, %struct.GPR* %67, i32 0, i32 33
  %69 = getelementptr inbounds %struct.Reg, %struct.Reg* %68, i32 0, i32 0
  %PC.i100 = bitcast %union.anon* %69 to i64*
  %70 = getelementptr inbounds %struct.State, %struct.State* %0, i32 0, i32 6
  %71 = getelementptr inbounds %struct.GPR, %struct.GPR* %70, i32 0, i32 11
  %72 = getelementptr inbounds %struct.Reg, %struct.Reg* %71, i32 0, i32 0
  %RDI.i101 = bitcast %union.anon* %72 to i64*
  %73 = getelementptr inbounds %struct.State, %struct.State* %0, i32 0, i32 6
  %74 = getelementptr inbounds %struct.GPR, %struct.GPR* %73, i32 0, i32 15
  %75 = getelementptr inbounds %struct.Reg, %struct.Reg* %74, i32 0, i32 0
  %RBP.i102 = bitcast %union.anon* %75 to i64*
  %76 = load i64, i64* %RBP.i102
  %77 = sub i64 %76, 8
  %78 = load i64, i64* %RDI.i101
  %79 = load i64, i64* %PC.i100
  %80 = add i64 %79, 4
  store i64 %80, i64* %PC.i100
  %81 = inttoptr i64 %77 to i64*
  store i64 %78, i64* %81
  store %struct.Memory* %loadMem_40be68, %struct.Memory** %MEMORY
  %loadMem_40be6c = load %struct.Memory*, %struct.Memory** %MEMORY
  %82 = getelementptr inbounds %struct.State, %struct.State* %0, i32 0, i32 6
  %83 = getelementptr inbounds %struct.GPR, %struct.GPR* %82, i32 0, i32 33
  %84 = getelementptr inbounds %struct.Reg, %struct.Reg* %83, i32 0, i32 0
  %PC.i98 = bitcast %union.anon* %84 to i64*
  %85 = getelementptr inbounds %struct.State, %struct.State* %0, i32 0, i32 6
  %86 = getelementptr inbounds %struct.GPR, %struct.GPR* %85, i32 0, i32 9
  %87 = getelementptr inbounds %struct.Reg, %struct.Reg* %86, i32 0, i32 0
  %ESI.i = bitcast %union.anon* %87 to i32*
  %88 = getelementptr inbounds %struct.State, %struct.State* %0, i32 0, i32 6
  %89 = getelementptr inbounds %struct.GPR, %struct.GPR* %88, i32 0, i32 15
  %90 = getelementptr inbounds %struct.Reg, %struct.Reg* %89, i32 0, i32 0
  %RBP.i99 = bitcast %union.anon* %90 to i64*
  %91 = load i64, i64* %RBP.i99
  %92 = sub i64 %91, 12
  %93 = load i32, i32* %ESI.i
  %94 = zext i32 %93 to i64
  %95 = load i64, i64* %PC.i98
  %96 = add i64 %95, 3
  store i64 %96, i64* %PC.i98
  %97 = inttoptr i64 %92 to i32*
  store i32 %93, i32* %97
  store %struct.Memory* %loadMem_40be6c, %struct.Memory** %MEMORY
  %loadMem_40be6f = load %struct.Memory*, %struct.Memory** %MEMORY
  %98 = getelementptr inbounds %struct.State, %struct.State* %0, i32 0, i32 6
  %99 = getelementptr inbounds %struct.GPR, %struct.GPR* %98, i32 0, i32 33
  %100 = getelementptr inbounds %struct.Reg, %struct.Reg* %99, i32 0, i32 0
  %PC.i95 = bitcast %union.anon* %100 to i64*
  %101 = getelementptr inbounds %struct.State, %struct.State* %0, i32 0, i32 6
  %102 = getelementptr inbounds %struct.GPR, %struct.GPR* %101, i32 0, i32 15
  %103 = getelementptr inbounds %struct.Reg, %struct.Reg* %102, i32 0, i32 0
  %RBP.i96 = bitcast %union.anon* %103 to i64*
  %104 = getelementptr inbounds %struct.State, %struct.State* %0, i32 0, i32 1
  %105 = getelementptr inbounds [32 x %union.VectorReg], [32 x %union.VectorReg]* %104, i64 0, i64 0
  %XMM0.i97 = bitcast %union.VectorReg* %105 to %union.vec128_t*
  %106 = load i64, i64* %RBP.i96
  %107 = sub i64 %106, 24
  %108 = bitcast %union.vec128_t* %XMM0.i97 to i8*
  %109 = load i64, i64* %PC.i95
  %110 = add i64 %109, 5
  store i64 %110, i64* %PC.i95
  %111 = bitcast i8* %108 to double*
  %112 = load double, double* %111, align 1
  %113 = inttoptr i64 %107 to double*
  store double %112, double* %113
  store %struct.Memory* %loadMem_40be6f, %struct.Memory** %MEMORY
  %loadMem_40be74 = load %struct.Memory*, %struct.Memory** %MEMORY
  %114 = getelementptr inbounds %struct.State, %struct.State* %0, i32 0, i32 6
  %115 = getelementptr inbounds %struct.GPR, %struct.GPR* %114, i32 0, i32 33
  %116 = getelementptr inbounds %struct.Reg, %struct.Reg* %115, i32 0, i32 0
  %PC.i93 = bitcast %union.anon* %116 to i64*
  %117 = getelementptr inbounds %struct.State, %struct.State* %0, i32 0, i32 6
  %118 = getelementptr inbounds %struct.GPR, %struct.GPR* %117, i32 0, i32 15
  %119 = getelementptr inbounds %struct.Reg, %struct.Reg* %118, i32 0, i32 0
  %RBP.i94 = bitcast %union.anon* %119 to i64*
  %120 = getelementptr inbounds %struct.State, %struct.State* %0, i32 0, i32 1
  %121 = getelementptr inbounds [32 x %union.VectorReg], [32 x %union.VectorReg]* %120, i64 0, i64 1
  %XMM1.i = bitcast %union.VectorReg* %121 to %union.vec128_t*
  %122 = load i64, i64* %RBP.i94
  %123 = sub i64 %122, 32
  %124 = bitcast %union.vec128_t* %XMM1.i to i8*
  %125 = load i64, i64* %PC.i93
  %126 = add i64 %125, 5
  store i64 %126, i64* %PC.i93
  %127 = bitcast i8* %124 to double*
  %128 = load double, double* %127, align 1
  %129 = inttoptr i64 %123 to double*
  store double %128, double* %129
  store %struct.Memory* %loadMem_40be74, %struct.Memory** %MEMORY
  %loadMem_40be79 = load %struct.Memory*, %struct.Memory** %MEMORY
  %130 = getelementptr inbounds %struct.State, %struct.State* %0, i32 0, i32 6
  %131 = getelementptr inbounds %struct.GPR, %struct.GPR* %130, i32 0, i32 33
  %132 = getelementptr inbounds %struct.Reg, %struct.Reg* %131, i32 0, i32 0
  %PC.i91 = bitcast %union.anon* %132 to i64*
  %133 = getelementptr inbounds %struct.State, %struct.State* %0, i32 0, i32 6
  %134 = getelementptr inbounds %struct.GPR, %struct.GPR* %133, i32 0, i32 15
  %135 = getelementptr inbounds %struct.Reg, %struct.Reg* %134, i32 0, i32 0
  %RBP.i92 = bitcast %union.anon* %135 to i64*
  %136 = getelementptr inbounds %struct.State, %struct.State* %0, i32 0, i32 1
  %137 = getelementptr inbounds [32 x %union.VectorReg], [32 x %union.VectorReg]* %136, i64 0, i64 2
  %XMM2.i = bitcast %union.VectorReg* %137 to %union.vec128_t*
  %138 = load i64, i64* %RBP.i92
  %139 = sub i64 %138, 40
  %140 = bitcast %union.vec128_t* %XMM2.i to i8*
  %141 = load i64, i64* %PC.i91
  %142 = add i64 %141, 5
  store i64 %142, i64* %PC.i91
  %143 = bitcast i8* %140 to double*
  %144 = load double, double* %143, align 1
  %145 = inttoptr i64 %139 to double*
  store double %144, double* %145
  store %struct.Memory* %loadMem_40be79, %struct.Memory** %MEMORY
  %loadMem_40be7e = load %struct.Memory*, %struct.Memory** %MEMORY
  %146 = getelementptr inbounds %struct.State, %struct.State* %0, i32 0, i32 6
  %147 = getelementptr inbounds %struct.GPR, %struct.GPR* %146, i32 0, i32 33
  %148 = getelementptr inbounds %struct.Reg, %struct.Reg* %147, i32 0, i32 0
  %PC.i89 = bitcast %union.anon* %148 to i64*
  %149 = getelementptr inbounds %struct.State, %struct.State* %0, i32 0, i32 6
  %150 = getelementptr inbounds %struct.GPR, %struct.GPR* %149, i32 0, i32 15
  %151 = getelementptr inbounds %struct.Reg, %struct.Reg* %150, i32 0, i32 0
  %RBP.i90 = bitcast %union.anon* %151 to i64*
  %152 = getelementptr inbounds %struct.State, %struct.State* %0, i32 0, i32 1
  %153 = getelementptr inbounds [32 x %union.VectorReg], [32 x %union.VectorReg]* %152, i64 0, i64 3
  %XMM3.i = bitcast %union.VectorReg* %153 to %union.vec128_t*
  %154 = load i64, i64* %RBP.i90
  %155 = sub i64 %154, 48
  %156 = bitcast %union.vec128_t* %XMM3.i to i8*
  %157 = load i64, i64* %PC.i89
  %158 = add i64 %157, 5
  store i64 %158, i64* %PC.i89
  %159 = bitcast i8* %156 to double*
  %160 = load double, double* %159, align 1
  %161 = inttoptr i64 %155 to double*
  store double %160, double* %161
  store %struct.Memory* %loadMem_40be7e, %struct.Memory** %MEMORY
  %loadMem_40be83 = load %struct.Memory*, %struct.Memory** %MEMORY
  %162 = getelementptr inbounds %struct.State, %struct.State* %0, i32 0, i32 6
  %163 = getelementptr inbounds %struct.GPR, %struct.GPR* %162, i32 0, i32 33
  %164 = getelementptr inbounds %struct.Reg, %struct.Reg* %163, i32 0, i32 0
  %PC.i87 = bitcast %union.anon* %164 to i64*
  %165 = getelementptr inbounds %struct.State, %struct.State* %0, i32 0, i32 6
  %166 = getelementptr inbounds %struct.GPR, %struct.GPR* %165, i32 0, i32 7
  %167 = getelementptr inbounds %struct.Reg, %struct.Reg* %166, i32 0, i32 0
  %RDX.i = bitcast %union.anon* %167 to i64*
  %168 = getelementptr inbounds %struct.State, %struct.State* %0, i32 0, i32 6
  %169 = getelementptr inbounds %struct.GPR, %struct.GPR* %168, i32 0, i32 15
  %170 = getelementptr inbounds %struct.Reg, %struct.Reg* %169, i32 0, i32 0
  %RBP.i88 = bitcast %union.anon* %170 to i64*
  %171 = load i64, i64* %RBP.i88
  %172 = sub i64 %171, 56
  %173 = load i64, i64* %RDX.i
  %174 = load i64, i64* %PC.i87
  %175 = add i64 %174, 4
  store i64 %175, i64* %PC.i87
  %176 = inttoptr i64 %172 to i64*
  store i64 %173, i64* %176
  store %struct.Memory* %loadMem_40be83, %struct.Memory** %MEMORY
  %loadMem1_40be87 = load %struct.Memory*, %struct.Memory** %MEMORY
  %177 = getelementptr inbounds %struct.State, %struct.State* %0, i32 0, i32 6
  %178 = getelementptr inbounds %struct.GPR, %struct.GPR* %177, i32 0, i32 33
  %179 = getelementptr inbounds %struct.Reg, %struct.Reg* %178, i32 0, i32 0
  %PC.i86 = bitcast %union.anon* %179 to i64*
  %180 = load i64, i64* %PC.i86
  %181 = add i64 %180, -45111
  %182 = load i64, i64* %PC.i86
  %183 = add i64 %182, 5
  %184 = load i64, i64* %PC.i86
  %185 = add i64 %184, 5
  store i64 %185, i64* %PC.i86
  %186 = getelementptr inbounds %struct.State, %struct.State* %0, i64 0, i32 6, i32 13, i32 0, i32 0
  %187 = load i64, i64* %186, align 8
  %188 = add i64 %187, -8
  %189 = inttoptr i64 %188 to i64*
  store i64 %183, i64* %189
  store i64 %188, i64* %186, align 8
  %190 = getelementptr inbounds %struct.State, %struct.State* %0, i64 0, i32 6, i32 33, i32 0, i32 0
  store i64 %181, i64* %190, align 8
  store %struct.Memory* %loadMem1_40be87, %struct.Memory** %MEMORY
  %loadMem2_40be87 = load %struct.Memory*, %struct.Memory** %MEMORY
  %loadPC_40be87 = load i64, i64* %3
  %call2_40be87 = call %struct.Memory* @sub_400e50._Z11start_timerv(%struct.State* %0, i64 %loadPC_40be87, %struct.Memory* %loadMem2_40be87)
  store %struct.Memory* %call2_40be87, %struct.Memory** %MEMORY
  %loadMem_40be8c = load %struct.Memory*, %struct.Memory** %MEMORY
  %191 = getelementptr inbounds %struct.State, %struct.State* %0, i32 0, i32 6
  %192 = getelementptr inbounds %struct.GPR, %struct.GPR* %191, i32 0, i32 33
  %193 = getelementptr inbounds %struct.Reg, %struct.Reg* %192, i32 0, i32 0
  %PC.i84 = bitcast %union.anon* %193 to i64*
  %194 = getelementptr inbounds %struct.State, %struct.State* %0, i32 0, i32 6
  %195 = getelementptr inbounds %struct.GPR, %struct.GPR* %194, i32 0, i32 15
  %196 = getelementptr inbounds %struct.Reg, %struct.Reg* %195, i32 0, i32 0
  %RBP.i85 = bitcast %union.anon* %196 to i64*
  %197 = load i64, i64* %RBP.i85
  %198 = sub i64 %197, 60
  %199 = load i64, i64* %PC.i84
  %200 = add i64 %199, 7
  store i64 %200, i64* %PC.i84
  %201 = inttoptr i64 %198 to i32*
  store i32 0, i32* %201
  store %struct.Memory* %loadMem_40be8c, %struct.Memory** %MEMORY
  br label %block_.L_40be93

block_.L_40be93:                                  ; preds = %block_.L_40befc, %entry
  %loadMem_40be93 = load %struct.Memory*, %struct.Memory** %MEMORY
  %202 = getelementptr inbounds %struct.State, %struct.State* %0, i32 0, i32 6
  %203 = getelementptr inbounds %struct.GPR, %struct.GPR* %202, i32 0, i32 33
  %204 = getelementptr inbounds %struct.Reg, %struct.Reg* %203, i32 0, i32 0
  %PC.i81 = bitcast %union.anon* %204 to i64*
  %205 = getelementptr inbounds %struct.State, %struct.State* %0, i32 0, i32 6
  %206 = getelementptr inbounds %struct.GPR, %struct.GPR* %205, i32 0, i32 1
  %207 = getelementptr inbounds %struct.Reg, %struct.Reg* %206, i32 0, i32 0
  %RAX.i82 = bitcast %union.anon* %207 to i64*
  %208 = getelementptr inbounds %struct.State, %struct.State* %0, i32 0, i32 6
  %209 = getelementptr inbounds %struct.GPR, %struct.GPR* %208, i32 0, i32 15
  %210 = getelementptr inbounds %struct.Reg, %struct.Reg* %209, i32 0, i32 0
  %RBP.i83 = bitcast %union.anon* %210 to i64*
  %211 = load i64, i64* %RBP.i83
  %212 = sub i64 %211, 60
  %213 = load i64, i64* %PC.i81
  %214 = add i64 %213, 3
  store i64 %214, i64* %PC.i81
  %215 = inttoptr i64 %212 to i32*
  %216 = load i32, i32* %215
  %217 = zext i32 %216 to i64
  store i64 %217, i64* %RAX.i82, align 8
  store %struct.Memory* %loadMem_40be93, %struct.Memory** %MEMORY
  %loadMem_40be96 = load %struct.Memory*, %struct.Memory** %MEMORY
  %218 = getelementptr inbounds %struct.State, %struct.State* %0, i32 0, i32 6
  %219 = getelementptr inbounds %struct.GPR, %struct.GPR* %218, i32 0, i32 33
  %220 = getelementptr inbounds %struct.Reg, %struct.Reg* %219, i32 0, i32 0
  %PC.i79 = bitcast %union.anon* %220 to i64*
  %221 = getelementptr inbounds %struct.State, %struct.State* %0, i32 0, i32 6
  %222 = getelementptr inbounds %struct.GPR, %struct.GPR* %221, i32 0, i32 1
  %223 = getelementptr inbounds %struct.Reg, %struct.Reg* %222, i32 0, i32 0
  %EAX.i80 = bitcast %union.anon* %223 to i32*
  %224 = load i32, i32* %EAX.i80
  %225 = zext i32 %224 to i64
  %226 = load i64, i64* %PC.i79
  %227 = add i64 %226, 7
  store i64 %227, i64* %PC.i79
  %228 = load i32, i32* inttoptr (i64 6398080 to i32*)
  %229 = sub i32 %224, %228
  %230 = icmp ult i32 %224, %228
  %231 = zext i1 %230 to i8
  %232 = getelementptr inbounds %struct.State, %struct.State* %0, i64 0, i32 2, i32 1
  store i8 %231, i8* %232, align 1
  %233 = and i32 %229, 255
  %234 = call i32 @llvm.ctpop.i32(i32 %233)
  %235 = trunc i32 %234 to i8
  %236 = and i8 %235, 1
  %237 = xor i8 %236, 1
  %238 = getelementptr inbounds %struct.State, %struct.State* %0, i64 0, i32 2, i32 3
  store i8 %237, i8* %238, align 1
  %239 = xor i32 %228, %224
  %240 = xor i32 %239, %229
  %241 = lshr i32 %240, 4
  %242 = trunc i32 %241 to i8
  %243 = and i8 %242, 1
  %244 = getelementptr inbounds %struct.State, %struct.State* %0, i64 0, i32 2, i32 5
  store i8 %243, i8* %244, align 1
  %245 = icmp eq i32 %229, 0
  %246 = zext i1 %245 to i8
  %247 = getelementptr inbounds %struct.State, %struct.State* %0, i64 0, i32 2, i32 7
  store i8 %246, i8* %247, align 1
  %248 = lshr i32 %229, 31
  %249 = trunc i32 %248 to i8
  %250 = getelementptr inbounds %struct.State, %struct.State* %0, i64 0, i32 2, i32 9
  store i8 %249, i8* %250, align 1
  %251 = lshr i32 %224, 31
  %252 = lshr i32 %228, 31
  %253 = xor i32 %252, %251
  %254 = xor i32 %248, %251
  %255 = add i32 %254, %253
  %256 = icmp eq i32 %255, 2
  %257 = zext i1 %256 to i8
  %258 = getelementptr inbounds %struct.State, %struct.State* %0, i64 0, i32 2, i32 13
  store i8 %257, i8* %258, align 1
  store %struct.Memory* %loadMem_40be96, %struct.Memory** %MEMORY
  %loadMem_40be9d = load %struct.Memory*, %struct.Memory** %MEMORY
  %259 = getelementptr inbounds %struct.State, %struct.State* %0, i32 0, i32 6
  %260 = getelementptr inbounds %struct.GPR, %struct.GPR* %259, i32 0, i32 33
  %261 = getelementptr inbounds %struct.Reg, %struct.Reg* %260, i32 0, i32 0
  %PC.i78 = bitcast %union.anon* %261 to i64*
  %262 = load i64, i64* %PC.i78
  %263 = add i64 %262, 139
  %264 = load i64, i64* %PC.i78
  %265 = add i64 %264, 6
  %266 = load i64, i64* %PC.i78
  %267 = add i64 %266, 6
  store i64 %267, i64* %PC.i78
  %268 = getelementptr inbounds %struct.State, %struct.State* %0, i64 0, i32 2, i32 9
  %269 = load i8, i8* %268, align 1
  %270 = icmp ne i8 %269, 0
  %271 = getelementptr inbounds %struct.State, %struct.State* %0, i64 0, i32 2, i32 13
  %272 = load i8, i8* %271, align 1
  %273 = icmp ne i8 %272, 0
  %274 = xor i1 %270, %273
  %275 = xor i1 %274, true
  %276 = zext i1 %275 to i8
  store i8 %276, i8* %BRANCH_TAKEN, align 1
  %277 = getelementptr inbounds %struct.State, %struct.State* %0, i64 0, i32 6, i32 33, i32 0, i32 0
  %278 = select i1 %274, i64 %265, i64 %263
  store i64 %278, i64* %277, align 8
  store %struct.Memory* %loadMem_40be9d, %struct.Memory** %MEMORY
  %loadBr_40be9d = load i8, i8* %BRANCH_TAKEN
  %cmpBr_40be9d = icmp eq i8 %loadBr_40be9d, 1
  br i1 %cmpBr_40be9d, label %block_.L_40bf28, label %block_40bea3

block_40bea3:                                     ; preds = %block_.L_40be93
  %loadMem_40bea3 = load %struct.Memory*, %struct.Memory** %MEMORY
  %279 = getelementptr inbounds %struct.State, %struct.State* %0, i32 0, i32 6
  %280 = getelementptr inbounds %struct.GPR, %struct.GPR* %279, i32 0, i32 33
  %281 = getelementptr inbounds %struct.Reg, %struct.Reg* %280, i32 0, i32 0
  %PC.i75 = bitcast %union.anon* %281 to i64*
  %282 = getelementptr inbounds %struct.State, %struct.State* %0, i32 0, i32 1
  %283 = getelementptr inbounds [32 x %union.VectorReg], [32 x %union.VectorReg]* %282, i64 0, i64 0
  %YMM0.i76 = bitcast %union.VectorReg* %283 to %"class.std::bitset"*
  %284 = getelementptr inbounds %struct.State, %struct.State* %0, i32 0, i32 1
  %285 = getelementptr inbounds [32 x %union.VectorReg], [32 x %union.VectorReg]* %284, i64 0, i64 0
  %XMM0.i77 = bitcast %union.VectorReg* %285 to %union.vec128_t*
  %286 = bitcast %"class.std::bitset"* %YMM0.i76 to i8*
  %287 = bitcast %"class.std::bitset"* %YMM0.i76 to i8*
  %288 = bitcast %union.vec128_t* %XMM0.i77 to i8*
  %289 = load i64, i64* %PC.i75
  %290 = add i64 %289, 3
  store i64 %290, i64* %PC.i75
  %291 = bitcast i8* %287 to i64*
  %292 = load i64, i64* %291, align 1
  %293 = getelementptr inbounds i8, i8* %287, i64 8
  %294 = bitcast i8* %293 to i64*
  %295 = load i64, i64* %294, align 1
  %296 = bitcast i8* %288 to i64*
  %297 = load i64, i64* %296, align 1
  %298 = getelementptr inbounds i8, i8* %288, i64 8
  %299 = bitcast i8* %298 to i64*
  %300 = load i64, i64* %299, align 1
  %301 = xor i64 %297, %292
  %302 = xor i64 %300, %295
  %303 = trunc i64 %301 to i32
  %304 = lshr i64 %301, 32
  %305 = trunc i64 %304 to i32
  %306 = bitcast i8* %286 to i32*
  store i32 %303, i32* %306, align 1
  %307 = getelementptr inbounds i8, i8* %286, i64 4
  %308 = bitcast i8* %307 to i32*
  store i32 %305, i32* %308, align 1
  %309 = trunc i64 %302 to i32
  %310 = getelementptr inbounds i8, i8* %286, i64 8
  %311 = bitcast i8* %310 to i32*
  store i32 %309, i32* %311, align 1
  %312 = lshr i64 %302, 32
  %313 = trunc i64 %312 to i32
  %314 = getelementptr inbounds i8, i8* %286, i64 12
  %315 = bitcast i8* %314 to i32*
  store i32 %313, i32* %315, align 1
  store %struct.Memory* %loadMem_40bea3, %struct.Memory** %MEMORY
  %loadMem_40bea6 = load %struct.Memory*, %struct.Memory** %MEMORY
  %316 = getelementptr inbounds %struct.State, %struct.State* %0, i32 0, i32 6
  %317 = getelementptr inbounds %struct.GPR, %struct.GPR* %316, i32 0, i32 33
  %318 = getelementptr inbounds %struct.Reg, %struct.Reg* %317, i32 0, i32 0
  %PC.i72 = bitcast %union.anon* %318 to i64*
  %319 = getelementptr inbounds %struct.State, %struct.State* %0, i32 0, i32 6
  %320 = getelementptr inbounds %struct.GPR, %struct.GPR* %319, i32 0, i32 15
  %321 = getelementptr inbounds %struct.Reg, %struct.Reg* %320, i32 0, i32 0
  %RBP.i73 = bitcast %union.anon* %321 to i64*
  %322 = getelementptr inbounds %struct.State, %struct.State* %0, i32 0, i32 1
  %323 = getelementptr inbounds [32 x %union.VectorReg], [32 x %union.VectorReg]* %322, i64 0, i64 0
  %XMM0.i74 = bitcast %union.VectorReg* %323 to %union.vec128_t*
  %324 = load i64, i64* %RBP.i73
  %325 = sub i64 %324, 72
  %326 = bitcast %union.vec128_t* %XMM0.i74 to i8*
  %327 = load i64, i64* %PC.i72
  %328 = add i64 %327, 5
  store i64 %328, i64* %PC.i72
  %329 = bitcast i8* %326 to double*
  %330 = load double, double* %329, align 1
  %331 = inttoptr i64 %325 to double*
  store double %330, double* %331
  store %struct.Memory* %loadMem_40bea6, %struct.Memory** %MEMORY
  %loadMem_40beab = load %struct.Memory*, %struct.Memory** %MEMORY
  %332 = getelementptr inbounds %struct.State, %struct.State* %0, i32 0, i32 6
  %333 = getelementptr inbounds %struct.GPR, %struct.GPR* %332, i32 0, i32 33
  %334 = getelementptr inbounds %struct.Reg, %struct.Reg* %333, i32 0, i32 0
  %PC.i70 = bitcast %union.anon* %334 to i64*
  %335 = getelementptr inbounds %struct.State, %struct.State* %0, i32 0, i32 6
  %336 = getelementptr inbounds %struct.GPR, %struct.GPR* %335, i32 0, i32 15
  %337 = getelementptr inbounds %struct.Reg, %struct.Reg* %336, i32 0, i32 0
  %RBP.i71 = bitcast %union.anon* %337 to i64*
  %338 = load i64, i64* %RBP.i71
  %339 = sub i64 %338, 76
  %340 = load i64, i64* %PC.i70
  %341 = add i64 %340, 7
  store i64 %341, i64* %PC.i70
  %342 = inttoptr i64 %339 to i32*
  store i32 0, i32* %342
  store %struct.Memory* %loadMem_40beab, %struct.Memory** %MEMORY
  br label %block_.L_40beb2

block_.L_40beb2:                                  ; preds = %block_40bebe, %block_40bea3
  %loadMem_40beb2 = load %struct.Memory*, %struct.Memory** %MEMORY
  %343 = getelementptr inbounds %struct.State, %struct.State* %0, i32 0, i32 6
  %344 = getelementptr inbounds %struct.GPR, %struct.GPR* %343, i32 0, i32 33
  %345 = getelementptr inbounds %struct.Reg, %struct.Reg* %344, i32 0, i32 0
  %PC.i67 = bitcast %union.anon* %345 to i64*
  %346 = getelementptr inbounds %struct.State, %struct.State* %0, i32 0, i32 6
  %347 = getelementptr inbounds %struct.GPR, %struct.GPR* %346, i32 0, i32 1
  %348 = getelementptr inbounds %struct.Reg, %struct.Reg* %347, i32 0, i32 0
  %RAX.i68 = bitcast %union.anon* %348 to i64*
  %349 = getelementptr inbounds %struct.State, %struct.State* %0, i32 0, i32 6
  %350 = getelementptr inbounds %struct.GPR, %struct.GPR* %349, i32 0, i32 15
  %351 = getelementptr inbounds %struct.Reg, %struct.Reg* %350, i32 0, i32 0
  %RBP.i69 = bitcast %union.anon* %351 to i64*
  %352 = load i64, i64* %RBP.i69
  %353 = sub i64 %352, 76
  %354 = load i64, i64* %PC.i67
  %355 = add i64 %354, 3
  store i64 %355, i64* %PC.i67
  %356 = inttoptr i64 %353 to i32*
  %357 = load i32, i32* %356
  %358 = zext i32 %357 to i64
  store i64 %358, i64* %RAX.i68, align 8
  store %struct.Memory* %loadMem_40beb2, %struct.Memory** %MEMORY
  %loadMem_40beb5 = load %struct.Memory*, %struct.Memory** %MEMORY
  %359 = getelementptr inbounds %struct.State, %struct.State* %0, i32 0, i32 6
  %360 = getelementptr inbounds %struct.GPR, %struct.GPR* %359, i32 0, i32 33
  %361 = getelementptr inbounds %struct.Reg, %struct.Reg* %360, i32 0, i32 0
  %PC.i64 = bitcast %union.anon* %361 to i64*
  %362 = getelementptr inbounds %struct.State, %struct.State* %0, i32 0, i32 6
  %363 = getelementptr inbounds %struct.GPR, %struct.GPR* %362, i32 0, i32 1
  %364 = getelementptr inbounds %struct.Reg, %struct.Reg* %363, i32 0, i32 0
  %EAX.i65 = bitcast %union.anon* %364 to i32*
  %365 = getelementptr inbounds %struct.State, %struct.State* %0, i32 0, i32 6
  %366 = getelementptr inbounds %struct.GPR, %struct.GPR* %365, i32 0, i32 15
  %367 = getelementptr inbounds %struct.Reg, %struct.Reg* %366, i32 0, i32 0
  %RBP.i66 = bitcast %union.anon* %367 to i64*
  %368 = load i32, i32* %EAX.i65
  %369 = zext i32 %368 to i64
  %370 = load i64, i64* %RBP.i66
  %371 = sub i64 %370, 12
  %372 = load i64, i64* %PC.i64
  %373 = add i64 %372, 3
  store i64 %373, i64* %PC.i64
  %374 = inttoptr i64 %371 to i32*
  %375 = load i32, i32* %374
  %376 = sub i32 %368, %375
  %377 = icmp ult i32 %368, %375
  %378 = zext i1 %377 to i8
  %379 = getelementptr inbounds %struct.State, %struct.State* %0, i64 0, i32 2, i32 1
  store i8 %378, i8* %379, align 1
  %380 = and i32 %376, 255
  %381 = call i32 @llvm.ctpop.i32(i32 %380)
  %382 = trunc i32 %381 to i8
  %383 = and i8 %382, 1
  %384 = xor i8 %383, 1
  %385 = getelementptr inbounds %struct.State, %struct.State* %0, i64 0, i32 2, i32 3
  store i8 %384, i8* %385, align 1
  %386 = xor i32 %375, %368
  %387 = xor i32 %386, %376
  %388 = lshr i32 %387, 4
  %389 = trunc i32 %388 to i8
  %390 = and i8 %389, 1
  %391 = getelementptr inbounds %struct.State, %struct.State* %0, i64 0, i32 2, i32 5
  store i8 %390, i8* %391, align 1
  %392 = icmp eq i32 %376, 0
  %393 = zext i1 %392 to i8
  %394 = getelementptr inbounds %struct.State, %struct.State* %0, i64 0, i32 2, i32 7
  store i8 %393, i8* %394, align 1
  %395 = lshr i32 %376, 31
  %396 = trunc i32 %395 to i8
  %397 = getelementptr inbounds %struct.State, %struct.State* %0, i64 0, i32 2, i32 9
  store i8 %396, i8* %397, align 1
  %398 = lshr i32 %368, 31
  %399 = lshr i32 %375, 31
  %400 = xor i32 %399, %398
  %401 = xor i32 %395, %398
  %402 = add i32 %401, %400
  %403 = icmp eq i32 %402, 2
  %404 = zext i1 %403 to i8
  %405 = getelementptr inbounds %struct.State, %struct.State* %0, i64 0, i32 2, i32 13
  store i8 %404, i8* %405, align 1
  store %struct.Memory* %loadMem_40beb5, %struct.Memory** %MEMORY
  %loadMem_40beb8 = load %struct.Memory*, %struct.Memory** %MEMORY
  %406 = getelementptr inbounds %struct.State, %struct.State* %0, i32 0, i32 6
  %407 = getelementptr inbounds %struct.GPR, %struct.GPR* %406, i32 0, i32 33
  %408 = getelementptr inbounds %struct.Reg, %struct.Reg* %407, i32 0, i32 0
  %PC.i63 = bitcast %union.anon* %408 to i64*
  %409 = load i64, i64* %PC.i63
  %410 = add i64 %409, 68
  %411 = load i64, i64* %PC.i63
  %412 = add i64 %411, 6
  %413 = load i64, i64* %PC.i63
  %414 = add i64 %413, 6
  store i64 %414, i64* %PC.i63
  %415 = getelementptr inbounds %struct.State, %struct.State* %0, i64 0, i32 2, i32 9
  %416 = load i8, i8* %415, align 1
  %417 = icmp ne i8 %416, 0
  %418 = getelementptr inbounds %struct.State, %struct.State* %0, i64 0, i32 2, i32 13
  %419 = load i8, i8* %418, align 1
  %420 = icmp ne i8 %419, 0
  %421 = xor i1 %417, %420
  %422 = xor i1 %421, true
  %423 = zext i1 %422 to i8
  store i8 %423, i8* %BRANCH_TAKEN, align 1
  %424 = getelementptr inbounds %struct.State, %struct.State* %0, i64 0, i32 6, i32 33, i32 0, i32 0
  %425 = select i1 %421, i64 %412, i64 %410
  store i64 %425, i64* %424, align 8
  store %struct.Memory* %loadMem_40beb8, %struct.Memory** %MEMORY
  %loadBr_40beb8 = load i8, i8* %BRANCH_TAKEN
  %cmpBr_40beb8 = icmp eq i8 %loadBr_40beb8, 1
  br i1 %cmpBr_40beb8, label %block_.L_40befc, label %block_40bebe

block_40bebe:                                     ; preds = %block_.L_40beb2
  %loadMem_40bebe = load %struct.Memory*, %struct.Memory** %MEMORY
  %426 = getelementptr inbounds %struct.State, %struct.State* %0, i32 0, i32 6
  %427 = getelementptr inbounds %struct.GPR, %struct.GPR* %426, i32 0, i32 33
  %428 = getelementptr inbounds %struct.Reg, %struct.Reg* %427, i32 0, i32 0
  %PC.i60 = bitcast %union.anon* %428 to i64*
  %429 = getelementptr inbounds %struct.State, %struct.State* %0, i32 0, i32 6
  %430 = getelementptr inbounds %struct.GPR, %struct.GPR* %429, i32 0, i32 1
  %431 = getelementptr inbounds %struct.Reg, %struct.Reg* %430, i32 0, i32 0
  %RAX.i61 = bitcast %union.anon* %431 to i64*
  %432 = getelementptr inbounds %struct.State, %struct.State* %0, i32 0, i32 6
  %433 = getelementptr inbounds %struct.GPR, %struct.GPR* %432, i32 0, i32 15
  %434 = getelementptr inbounds %struct.Reg, %struct.Reg* %433, i32 0, i32 0
  %RBP.i62 = bitcast %union.anon* %434 to i64*
  %435 = load i64, i64* %RBP.i62
  %436 = sub i64 %435, 8
  %437 = load i64, i64* %PC.i60
  %438 = add i64 %437, 4
  store i64 %438, i64* %PC.i60
  %439 = inttoptr i64 %436 to i64*
  %440 = load i64, i64* %439
  store i64 %440, i64* %RAX.i61, align 8
  store %struct.Memory* %loadMem_40bebe, %struct.Memory** %MEMORY
  %loadMem_40bec2 = load %struct.Memory*, %struct.Memory** %MEMORY
  %441 = getelementptr inbounds %struct.State, %struct.State* %0, i32 0, i32 6
  %442 = getelementptr inbounds %struct.GPR, %struct.GPR* %441, i32 0, i32 33
  %443 = getelementptr inbounds %struct.Reg, %struct.Reg* %442, i32 0, i32 0
  %PC.i57 = bitcast %union.anon* %443 to i64*
  %444 = getelementptr inbounds %struct.State, %struct.State* %0, i32 0, i32 6
  %445 = getelementptr inbounds %struct.GPR, %struct.GPR* %444, i32 0, i32 5
  %446 = getelementptr inbounds %struct.Reg, %struct.Reg* %445, i32 0, i32 0
  %RCX.i58 = bitcast %union.anon* %446 to i64*
  %447 = getelementptr inbounds %struct.State, %struct.State* %0, i32 0, i32 6
  %448 = getelementptr inbounds %struct.GPR, %struct.GPR* %447, i32 0, i32 15
  %449 = getelementptr inbounds %struct.Reg, %struct.Reg* %448, i32 0, i32 0
  %RBP.i59 = bitcast %union.anon* %449 to i64*
  %450 = load i64, i64* %RBP.i59
  %451 = sub i64 %450, 76
  %452 = load i64, i64* %PC.i57
  %453 = add i64 %452, 4
  store i64 %453, i64* %PC.i57
  %454 = inttoptr i64 %451 to i32*
  %455 = load i32, i32* %454
  %456 = sext i32 %455 to i64
  store i64 %456, i64* %RCX.i58, align 8
  store %struct.Memory* %loadMem_40bec2, %struct.Memory** %MEMORY
  %loadMem_40bec6 = load %struct.Memory*, %struct.Memory** %MEMORY
  %457 = getelementptr inbounds %struct.State, %struct.State* %0, i32 0, i32 6
  %458 = getelementptr inbounds %struct.GPR, %struct.GPR* %457, i32 0, i32 33
  %459 = getelementptr inbounds %struct.Reg, %struct.Reg* %458, i32 0, i32 0
  %PC.i54 = bitcast %union.anon* %459 to i64*
  %460 = getelementptr inbounds %struct.State, %struct.State* %0, i32 0, i32 6
  %461 = getelementptr inbounds %struct.GPR, %struct.GPR* %460, i32 0, i32 1
  %462 = getelementptr inbounds %struct.Reg, %struct.Reg* %461, i32 0, i32 0
  %RAX.i55 = bitcast %union.anon* %462 to i64*
  %463 = getelementptr inbounds %struct.State, %struct.State* %0, i32 0, i32 6
  %464 = getelementptr inbounds %struct.GPR, %struct.GPR* %463, i32 0, i32 5
  %465 = getelementptr inbounds %struct.Reg, %struct.Reg* %464, i32 0, i32 0
  %RCX.i = bitcast %union.anon* %465 to i64*
  %466 = getelementptr inbounds %struct.State, %struct.State* %0, i32 0, i32 1
  %467 = getelementptr inbounds [32 x %union.VectorReg], [32 x %union.VectorReg]* %466, i64 0, i64 0
  %YMM0.i56 = bitcast %union.VectorReg* %467 to %"class.std::bitset"*
  %468 = bitcast %"class.std::bitset"* %YMM0.i56 to i8*
  %469 = load i64, i64* %RAX.i55
  %470 = load i64, i64* %RCX.i
  %471 = mul i64 %470, 8
  %472 = add i64 %471, %469
  %473 = load i64, i64* %PC.i54
  %474 = add i64 %473, 5
  store i64 %474, i64* %PC.i54
  %475 = inttoptr i64 %472 to double*
  %476 = load double, double* %475
  %477 = bitcast i8* %468 to double*
  store double %476, double* %477, align 1
  %478 = getelementptr inbounds i8, i8* %468, i64 8
  %479 = bitcast i8* %478 to double*
  store double 0.000000e+00, double* %479, align 1
  store %struct.Memory* %loadMem_40bec6, %struct.Memory** %MEMORY
  %loadMem_40becb = load %struct.Memory*, %struct.Memory** %MEMORY
  %480 = getelementptr inbounds %struct.State, %struct.State* %0, i32 0, i32 6
  %481 = getelementptr inbounds %struct.GPR, %struct.GPR* %480, i32 0, i32 33
  %482 = getelementptr inbounds %struct.Reg, %struct.Reg* %481, i32 0, i32 0
  %PC.i51 = bitcast %union.anon* %482 to i64*
  %483 = getelementptr inbounds %struct.State, %struct.State* %0, i32 0, i32 6
  %484 = getelementptr inbounds %struct.GPR, %struct.GPR* %483, i32 0, i32 15
  %485 = getelementptr inbounds %struct.Reg, %struct.Reg* %484, i32 0, i32 0
  %RBP.i52 = bitcast %union.anon* %485 to i64*
  %486 = getelementptr inbounds %struct.State, %struct.State* %0, i32 0, i32 1
  %487 = getelementptr inbounds [32 x %union.VectorReg], [32 x %union.VectorReg]* %486, i64 0, i64 1
  %YMM1.i53 = bitcast %union.VectorReg* %487 to %"class.std::bitset"*
  %488 = bitcast %"class.std::bitset"* %YMM1.i53 to i8*
  %489 = load i64, i64* %RBP.i52
  %490 = sub i64 %489, 24
  %491 = load i64, i64* %PC.i51
  %492 = add i64 %491, 5
  store i64 %492, i64* %PC.i51
  %493 = inttoptr i64 %490 to double*
  %494 = load double, double* %493
  %495 = bitcast i8* %488 to double*
  store double %494, double* %495, align 1
  %496 = getelementptr inbounds i8, i8* %488, i64 8
  %497 = bitcast i8* %496 to double*
  store double 0.000000e+00, double* %497, align 1
  store %struct.Memory* %loadMem_40becb, %struct.Memory** %MEMORY
  %loadMem_40bed0 = load %struct.Memory*, %struct.Memory** %MEMORY
  %498 = getelementptr inbounds %struct.State, %struct.State* %0, i32 0, i32 6
  %499 = getelementptr inbounds %struct.GPR, %struct.GPR* %498, i32 0, i32 33
  %500 = getelementptr inbounds %struct.Reg, %struct.Reg* %499, i32 0, i32 0
  %PC.i48 = bitcast %union.anon* %500 to i64*
  %501 = getelementptr inbounds %struct.State, %struct.State* %0, i32 0, i32 6
  %502 = getelementptr inbounds %struct.GPR, %struct.GPR* %501, i32 0, i32 15
  %503 = getelementptr inbounds %struct.Reg, %struct.Reg* %502, i32 0, i32 0
  %RBP.i49 = bitcast %union.anon* %503 to i64*
  %504 = getelementptr inbounds %struct.State, %struct.State* %0, i32 0, i32 1
  %505 = getelementptr inbounds [32 x %union.VectorReg], [32 x %union.VectorReg]* %504, i64 0, i64 2
  %YMM2.i50 = bitcast %union.VectorReg* %505 to %"class.std::bitset"*
  %506 = bitcast %"class.std::bitset"* %YMM2.i50 to i8*
  %507 = load i64, i64* %RBP.i49
  %508 = sub i64 %507, 32
  %509 = load i64, i64* %PC.i48
  %510 = add i64 %509, 5
  store i64 %510, i64* %PC.i48
  %511 = inttoptr i64 %508 to double*
  %512 = load double, double* %511
  %513 = bitcast i8* %506 to double*
  store double %512, double* %513, align 1
  %514 = getelementptr inbounds i8, i8* %506, i64 8
  %515 = bitcast i8* %514 to double*
  store double 0.000000e+00, double* %515, align 1
  store %struct.Memory* %loadMem_40bed0, %struct.Memory** %MEMORY
  %loadMem_40bed5 = load %struct.Memory*, %struct.Memory** %MEMORY
  %516 = getelementptr inbounds %struct.State, %struct.State* %0, i32 0, i32 6
  %517 = getelementptr inbounds %struct.GPR, %struct.GPR* %516, i32 0, i32 33
  %518 = getelementptr inbounds %struct.Reg, %struct.Reg* %517, i32 0, i32 0
  %PC.i45 = bitcast %union.anon* %518 to i64*
  %519 = getelementptr inbounds %struct.State, %struct.State* %0, i32 0, i32 6
  %520 = getelementptr inbounds %struct.GPR, %struct.GPR* %519, i32 0, i32 15
  %521 = getelementptr inbounds %struct.Reg, %struct.Reg* %520, i32 0, i32 0
  %RBP.i46 = bitcast %union.anon* %521 to i64*
  %522 = getelementptr inbounds %struct.State, %struct.State* %0, i32 0, i32 1
  %523 = getelementptr inbounds [32 x %union.VectorReg], [32 x %union.VectorReg]* %522, i64 0, i64 3
  %YMM3.i47 = bitcast %union.VectorReg* %523 to %"class.std::bitset"*
  %524 = bitcast %"class.std::bitset"* %YMM3.i47 to i8*
  %525 = load i64, i64* %RBP.i46
  %526 = sub i64 %525, 40
  %527 = load i64, i64* %PC.i45
  %528 = add i64 %527, 5
  store i64 %528, i64* %PC.i45
  %529 = inttoptr i64 %526 to double*
  %530 = load double, double* %529
  %531 = bitcast i8* %524 to double*
  store double %530, double* %531, align 1
  %532 = getelementptr inbounds i8, i8* %524, i64 8
  %533 = bitcast i8* %532 to double*
  store double 0.000000e+00, double* %533, align 1
  store %struct.Memory* %loadMem_40bed5, %struct.Memory** %MEMORY
  %loadMem_40beda = load %struct.Memory*, %struct.Memory** %MEMORY
  %534 = getelementptr inbounds %struct.State, %struct.State* %0, i32 0, i32 6
  %535 = getelementptr inbounds %struct.GPR, %struct.GPR* %534, i32 0, i32 33
  %536 = getelementptr inbounds %struct.Reg, %struct.Reg* %535, i32 0, i32 0
  %PC.i42 = bitcast %union.anon* %536 to i64*
  %537 = getelementptr inbounds %struct.State, %struct.State* %0, i32 0, i32 6
  %538 = getelementptr inbounds %struct.GPR, %struct.GPR* %537, i32 0, i32 15
  %539 = getelementptr inbounds %struct.Reg, %struct.Reg* %538, i32 0, i32 0
  %RBP.i43 = bitcast %union.anon* %539 to i64*
  %540 = getelementptr inbounds %struct.State, %struct.State* %0, i32 0, i32 1
  %541 = getelementptr inbounds [32 x %union.VectorReg], [32 x %union.VectorReg]* %540, i64 0, i64 4
  %YMM4.i44 = bitcast %union.VectorReg* %541 to %"class.std::bitset"*
  %542 = bitcast %"class.std::bitset"* %YMM4.i44 to i8*
  %543 = load i64, i64* %RBP.i43
  %544 = sub i64 %543, 48
  %545 = load i64, i64* %PC.i42
  %546 = add i64 %545, 5
  store i64 %546, i64* %PC.i42
  %547 = inttoptr i64 %544 to double*
  %548 = load double, double* %547
  %549 = bitcast i8* %542 to double*
  store double %548, double* %549, align 1
  %550 = getelementptr inbounds i8, i8* %542, i64 8
  %551 = bitcast i8* %550 to double*
  store double 0.000000e+00, double* %551, align 1
  store %struct.Memory* %loadMem_40beda, %struct.Memory** %MEMORY
  %loadMem1_40bedf = load %struct.Memory*, %struct.Memory** %MEMORY
  %552 = getelementptr inbounds %struct.State, %struct.State* %0, i32 0, i32 6
  %553 = getelementptr inbounds %struct.GPR, %struct.GPR* %552, i32 0, i32 33
  %554 = getelementptr inbounds %struct.Reg, %struct.Reg* %553, i32 0, i32 0
  %PC.i41 = bitcast %union.anon* %554 to i64*
  %555 = load i64, i64* %PC.i41
  %556 = add i64 %555, 97
  %557 = load i64, i64* %PC.i41
  %558 = add i64 %557, 5
  %559 = load i64, i64* %PC.i41
  %560 = add i64 %559, 5
  store i64 %560, i64* %PC.i41
  %561 = getelementptr inbounds %struct.State, %struct.State* %0, i64 0, i32 6, i32 13, i32 0, i32 0
  %562 = load i64, i64* %561, align 8
  %563 = add i64 %562, -8
  %564 = inttoptr i64 %563 to i64*
  store i64 %558, i64* %564
  store i64 %563, i64* %561, align 8
  %565 = getelementptr inbounds %struct.State, %struct.State* %0, i64 0, i32 6, i32 33, i32 0, i32 0
  store i64 %556, i64* %565, align 8
  store %struct.Memory* %loadMem1_40bedf, %struct.Memory** %MEMORY
  %loadMem2_40bedf = load %struct.Memory*, %struct.Memory** %MEMORY
  %loadPC_40bedf = load i64, i64* %3
  %call2_40bedf = call %struct.Memory* @sub_40bf40._ZN30custom_mixed_multiple_variableIdE8do_shiftEddddd(%struct.State* %0, i64 %loadPC_40bedf, %struct.Memory* %loadMem2_40bedf)
  store %struct.Memory* %call2_40bedf, %struct.Memory** %MEMORY
  %loadMem_40bee4 = load %struct.Memory*, %struct.Memory** %MEMORY
  %566 = getelementptr inbounds %struct.State, %struct.State* %0, i32 0, i32 6
  %567 = getelementptr inbounds %struct.GPR, %struct.GPR* %566, i32 0, i32 33
  %568 = getelementptr inbounds %struct.Reg, %struct.Reg* %567, i32 0, i32 0
  %PC.i38 = bitcast %union.anon* %568 to i64*
  %569 = getelementptr inbounds %struct.State, %struct.State* %0, i32 0, i32 6
  %570 = getelementptr inbounds %struct.GPR, %struct.GPR* %569, i32 0, i32 15
  %571 = getelementptr inbounds %struct.Reg, %struct.Reg* %570, i32 0, i32 0
  %RBP.i39 = bitcast %union.anon* %571 to i64*
  %572 = getelementptr inbounds %struct.State, %struct.State* %0, i32 0, i32 1
  %573 = getelementptr inbounds [32 x %union.VectorReg], [32 x %union.VectorReg]* %572, i64 0, i64 0
  %YMM0.i40 = bitcast %union.VectorReg* %573 to %"class.std::bitset"*
  %574 = bitcast %"class.std::bitset"* %YMM0.i40 to i8*
  %575 = bitcast %"class.std::bitset"* %YMM0.i40 to i8*
  %576 = load i64, i64* %RBP.i39
  %577 = sub i64 %576, 72
  %578 = load i64, i64* %PC.i38
  %579 = add i64 %578, 5
  store i64 %579, i64* %PC.i38
  %580 = bitcast i8* %575 to double*
  %581 = load double, double* %580, align 1
  %582 = getelementptr inbounds i8, i8* %575, i64 8
  %583 = bitcast i8* %582 to i64*
  %584 = load i64, i64* %583, align 1
  %585 = inttoptr i64 %577 to double*
  %586 = load double, double* %585
  %587 = fadd double %581, %586
  %588 = bitcast i8* %574 to double*
  store double %587, double* %588, align 1
  %589 = getelementptr inbounds i8, i8* %574, i64 8
  %590 = bitcast i8* %589 to i64*
  store i64 %584, i64* %590, align 1
  store %struct.Memory* %loadMem_40bee4, %struct.Memory** %MEMORY
  %loadMem_40bee9 = load %struct.Memory*, %struct.Memory** %MEMORY
  %591 = getelementptr inbounds %struct.State, %struct.State* %0, i32 0, i32 6
  %592 = getelementptr inbounds %struct.GPR, %struct.GPR* %591, i32 0, i32 33
  %593 = getelementptr inbounds %struct.Reg, %struct.Reg* %592, i32 0, i32 0
  %PC.i36 = bitcast %union.anon* %593 to i64*
  %594 = getelementptr inbounds %struct.State, %struct.State* %0, i32 0, i32 6
  %595 = getelementptr inbounds %struct.GPR, %struct.GPR* %594, i32 0, i32 15
  %596 = getelementptr inbounds %struct.Reg, %struct.Reg* %595, i32 0, i32 0
  %RBP.i37 = bitcast %union.anon* %596 to i64*
  %597 = getelementptr inbounds %struct.State, %struct.State* %0, i32 0, i32 1
  %598 = getelementptr inbounds [32 x %union.VectorReg], [32 x %union.VectorReg]* %597, i64 0, i64 0
  %XMM0.i = bitcast %union.VectorReg* %598 to %union.vec128_t*
  %599 = load i64, i64* %RBP.i37
  %600 = sub i64 %599, 72
  %601 = bitcast %union.vec128_t* %XMM0.i to i8*
  %602 = load i64, i64* %PC.i36
  %603 = add i64 %602, 5
  store i64 %603, i64* %PC.i36
  %604 = bitcast i8* %601 to double*
  %605 = load double, double* %604, align 1
  %606 = inttoptr i64 %600 to double*
  store double %605, double* %606
  store %struct.Memory* %loadMem_40bee9, %struct.Memory** %MEMORY
  %loadMem_40beee = load %struct.Memory*, %struct.Memory** %MEMORY
  %607 = getelementptr inbounds %struct.State, %struct.State* %0, i32 0, i32 6
  %608 = getelementptr inbounds %struct.GPR, %struct.GPR* %607, i32 0, i32 33
  %609 = getelementptr inbounds %struct.Reg, %struct.Reg* %608, i32 0, i32 0
  %PC.i33 = bitcast %union.anon* %609 to i64*
  %610 = getelementptr inbounds %struct.State, %struct.State* %0, i32 0, i32 6
  %611 = getelementptr inbounds %struct.GPR, %struct.GPR* %610, i32 0, i32 1
  %612 = getelementptr inbounds %struct.Reg, %struct.Reg* %611, i32 0, i32 0
  %RAX.i34 = bitcast %union.anon* %612 to i64*
  %613 = getelementptr inbounds %struct.State, %struct.State* %0, i32 0, i32 6
  %614 = getelementptr inbounds %struct.GPR, %struct.GPR* %613, i32 0, i32 15
  %615 = getelementptr inbounds %struct.Reg, %struct.Reg* %614, i32 0, i32 0
  %RBP.i35 = bitcast %union.anon* %615 to i64*
  %616 = load i64, i64* %RBP.i35
  %617 = sub i64 %616, 76
  %618 = load i64, i64* %PC.i33
  %619 = add i64 %618, 3
  store i64 %619, i64* %PC.i33
  %620 = inttoptr i64 %617 to i32*
  %621 = load i32, i32* %620
  %622 = zext i32 %621 to i64
  store i64 %622, i64* %RAX.i34, align 8
  store %struct.Memory* %loadMem_40beee, %struct.Memory** %MEMORY
  %loadMem_40bef1 = load %struct.Memory*, %struct.Memory** %MEMORY
  %623 = getelementptr inbounds %struct.State, %struct.State* %0, i32 0, i32 6
  %624 = getelementptr inbounds %struct.GPR, %struct.GPR* %623, i32 0, i32 33
  %625 = getelementptr inbounds %struct.Reg, %struct.Reg* %624, i32 0, i32 0
  %PC.i31 = bitcast %union.anon* %625 to i64*
  %626 = getelementptr inbounds %struct.State, %struct.State* %0, i32 0, i32 6
  %627 = getelementptr inbounds %struct.GPR, %struct.GPR* %626, i32 0, i32 1
  %628 = getelementptr inbounds %struct.Reg, %struct.Reg* %627, i32 0, i32 0
  %RAX.i32 = bitcast %union.anon* %628 to i64*
  %629 = load i64, i64* %RAX.i32
  %630 = load i64, i64* %PC.i31
  %631 = add i64 %630, 3
  store i64 %631, i64* %PC.i31
  %632 = trunc i64 %629 to i32
  %633 = add i32 1, %632
  %634 = zext i32 %633 to i64
  store i64 %634, i64* %RAX.i32, align 8
  %635 = icmp ult i32 %633, %632
  %636 = icmp ult i32 %633, 1
  %637 = or i1 %635, %636
  %638 = zext i1 %637 to i8
  %639 = getelementptr inbounds %struct.State, %struct.State* %0, i64 0, i32 2, i32 1
  store i8 %638, i8* %639, align 1
  %640 = and i32 %633, 255
  %641 = call i32 @llvm.ctpop.i32(i32 %640)
  %642 = trunc i32 %641 to i8
  %643 = and i8 %642, 1
  %644 = xor i8 %643, 1
  %645 = getelementptr inbounds %struct.State, %struct.State* %0, i64 0, i32 2, i32 3
  store i8 %644, i8* %645, align 1
  %646 = xor i64 1, %629
  %647 = trunc i64 %646 to i32
  %648 = xor i32 %647, %633
  %649 = lshr i32 %648, 4
  %650 = trunc i32 %649 to i8
  %651 = and i8 %650, 1
  %652 = getelementptr inbounds %struct.State, %struct.State* %0, i64 0, i32 2, i32 5
  store i8 %651, i8* %652, align 1
  %653 = icmp eq i32 %633, 0
  %654 = zext i1 %653 to i8
  %655 = getelementptr inbounds %struct.State, %struct.State* %0, i64 0, i32 2, i32 7
  store i8 %654, i8* %655, align 1
  %656 = lshr i32 %633, 31
  %657 = trunc i32 %656 to i8
  %658 = getelementptr inbounds %struct.State, %struct.State* %0, i64 0, i32 2, i32 9
  store i8 %657, i8* %658, align 1
  %659 = lshr i32 %632, 31
  %660 = xor i32 %656, %659
  %661 = add i32 %660, %656
  %662 = icmp eq i32 %661, 2
  %663 = zext i1 %662 to i8
  %664 = getelementptr inbounds %struct.State, %struct.State* %0, i64 0, i32 2, i32 13
  store i8 %663, i8* %664, align 1
  store %struct.Memory* %loadMem_40bef1, %struct.Memory** %MEMORY
  %loadMem_40bef4 = load %struct.Memory*, %struct.Memory** %MEMORY
  %665 = getelementptr inbounds %struct.State, %struct.State* %0, i32 0, i32 6
  %666 = getelementptr inbounds %struct.GPR, %struct.GPR* %665, i32 0, i32 33
  %667 = getelementptr inbounds %struct.Reg, %struct.Reg* %666, i32 0, i32 0
  %PC.i28 = bitcast %union.anon* %667 to i64*
  %668 = getelementptr inbounds %struct.State, %struct.State* %0, i32 0, i32 6
  %669 = getelementptr inbounds %struct.GPR, %struct.GPR* %668, i32 0, i32 1
  %670 = getelementptr inbounds %struct.Reg, %struct.Reg* %669, i32 0, i32 0
  %EAX.i29 = bitcast %union.anon* %670 to i32*
  %671 = getelementptr inbounds %struct.State, %struct.State* %0, i32 0, i32 6
  %672 = getelementptr inbounds %struct.GPR, %struct.GPR* %671, i32 0, i32 15
  %673 = getelementptr inbounds %struct.Reg, %struct.Reg* %672, i32 0, i32 0
  %RBP.i30 = bitcast %union.anon* %673 to i64*
  %674 = load i64, i64* %RBP.i30
  %675 = sub i64 %674, 76
  %676 = load i32, i32* %EAX.i29
  %677 = zext i32 %676 to i64
  %678 = load i64, i64* %PC.i28
  %679 = add i64 %678, 3
  store i64 %679, i64* %PC.i28
  %680 = inttoptr i64 %675 to i32*
  store i32 %676, i32* %680
  store %struct.Memory* %loadMem_40bef4, %struct.Memory** %MEMORY
  %loadMem_40bef7 = load %struct.Memory*, %struct.Memory** %MEMORY
  %681 = getelementptr inbounds %struct.State, %struct.State* %0, i32 0, i32 6
  %682 = getelementptr inbounds %struct.GPR, %struct.GPR* %681, i32 0, i32 33
  %683 = getelementptr inbounds %struct.Reg, %struct.Reg* %682, i32 0, i32 0
  %PC.i27 = bitcast %union.anon* %683 to i64*
  %684 = load i64, i64* %PC.i27
  %685 = add i64 %684, -69
  %686 = load i64, i64* %PC.i27
  %687 = add i64 %686, 5
  store i64 %687, i64* %PC.i27
  %688 = getelementptr inbounds %struct.State, %struct.State* %0, i64 0, i32 6, i32 33, i32 0, i32 0
  store i64 %685, i64* %688, align 8
  store %struct.Memory* %loadMem_40bef7, %struct.Memory** %MEMORY
  br label %block_.L_40beb2

block_.L_40befc:                                  ; preds = %block_.L_40beb2
  %loadMem_40befc = load %struct.Memory*, %struct.Memory** %MEMORY
  %689 = getelementptr inbounds %struct.State, %struct.State* %0, i32 0, i32 6
  %690 = getelementptr inbounds %struct.GPR, %struct.GPR* %689, i32 0, i32 33
  %691 = getelementptr inbounds %struct.Reg, %struct.Reg* %690, i32 0, i32 0
  %PC.i25 = bitcast %union.anon* %691 to i64*
  %692 = getelementptr inbounds %struct.State, %struct.State* %0, i32 0, i32 6
  %693 = getelementptr inbounds %struct.GPR, %struct.GPR* %692, i32 0, i32 15
  %694 = getelementptr inbounds %struct.Reg, %struct.Reg* %693, i32 0, i32 0
  %RBP.i26 = bitcast %union.anon* %694 to i64*
  %695 = getelementptr inbounds %struct.State, %struct.State* %0, i32 0, i32 1
  %696 = getelementptr inbounds [32 x %union.VectorReg], [32 x %union.VectorReg]* %695, i64 0, i64 0
  %YMM0.i = bitcast %union.VectorReg* %696 to %"class.std::bitset"*
  %697 = bitcast %"class.std::bitset"* %YMM0.i to i8*
  %698 = load i64, i64* %RBP.i26
  %699 = sub i64 %698, 72
  %700 = load i64, i64* %PC.i25
  %701 = add i64 %700, 5
  store i64 %701, i64* %PC.i25
  %702 = inttoptr i64 %699 to double*
  %703 = load double, double* %702
  %704 = bitcast i8* %697 to double*
  store double %703, double* %704, align 1
  %705 = getelementptr inbounds i8, i8* %697, i64 8
  %706 = bitcast i8* %705 to double*
  store double 0.000000e+00, double* %706, align 1
  store %struct.Memory* %loadMem_40befc, %struct.Memory** %MEMORY
  %loadMem_40bf01 = load %struct.Memory*, %struct.Memory** %MEMORY
  %707 = getelementptr inbounds %struct.State, %struct.State* %0, i32 0, i32 6
  %708 = getelementptr inbounds %struct.GPR, %struct.GPR* %707, i32 0, i32 33
  %709 = getelementptr inbounds %struct.Reg, %struct.Reg* %708, i32 0, i32 0
  %PC.i23 = bitcast %union.anon* %709 to i64*
  %710 = getelementptr inbounds %struct.State, %struct.State* %0, i32 0, i32 6
  %711 = getelementptr inbounds %struct.GPR, %struct.GPR* %710, i32 0, i32 15
  %712 = getelementptr inbounds %struct.Reg, %struct.Reg* %711, i32 0, i32 0
  %RBP.i24 = bitcast %union.anon* %712 to i64*
  %713 = getelementptr inbounds %struct.State, %struct.State* %0, i32 0, i32 1
  %714 = getelementptr inbounds [32 x %union.VectorReg], [32 x %union.VectorReg]* %713, i64 0, i64 1
  %YMM1.i = bitcast %union.VectorReg* %714 to %"class.std::bitset"*
  %715 = bitcast %"class.std::bitset"* %YMM1.i to i8*
  %716 = load i64, i64* %RBP.i24
  %717 = sub i64 %716, 24
  %718 = load i64, i64* %PC.i23
  %719 = add i64 %718, 5
  store i64 %719, i64* %PC.i23
  %720 = inttoptr i64 %717 to double*
  %721 = load double, double* %720
  %722 = bitcast i8* %715 to double*
  store double %721, double* %722, align 1
  %723 = getelementptr inbounds i8, i8* %715, i64 8
  %724 = bitcast i8* %723 to double*
  store double 0.000000e+00, double* %724, align 1
  store %struct.Memory* %loadMem_40bf01, %struct.Memory** %MEMORY
  %loadMem_40bf06 = load %struct.Memory*, %struct.Memory** %MEMORY
  %725 = getelementptr inbounds %struct.State, %struct.State* %0, i32 0, i32 6
  %726 = getelementptr inbounds %struct.GPR, %struct.GPR* %725, i32 0, i32 33
  %727 = getelementptr inbounds %struct.Reg, %struct.Reg* %726, i32 0, i32 0
  %PC.i21 = bitcast %union.anon* %727 to i64*
  %728 = getelementptr inbounds %struct.State, %struct.State* %0, i32 0, i32 6
  %729 = getelementptr inbounds %struct.GPR, %struct.GPR* %728, i32 0, i32 15
  %730 = getelementptr inbounds %struct.Reg, %struct.Reg* %729, i32 0, i32 0
  %RBP.i22 = bitcast %union.anon* %730 to i64*
  %731 = getelementptr inbounds %struct.State, %struct.State* %0, i32 0, i32 1
  %732 = getelementptr inbounds [32 x %union.VectorReg], [32 x %union.VectorReg]* %731, i64 0, i64 2
  %YMM2.i = bitcast %union.VectorReg* %732 to %"class.std::bitset"*
  %733 = bitcast %"class.std::bitset"* %YMM2.i to i8*
  %734 = load i64, i64* %RBP.i22
  %735 = sub i64 %734, 32
  %736 = load i64, i64* %PC.i21
  %737 = add i64 %736, 5
  store i64 %737, i64* %PC.i21
  %738 = inttoptr i64 %735 to double*
  %739 = load double, double* %738
  %740 = bitcast i8* %733 to double*
  store double %739, double* %740, align 1
  %741 = getelementptr inbounds i8, i8* %733, i64 8
  %742 = bitcast i8* %741 to double*
  store double 0.000000e+00, double* %742, align 1
  store %struct.Memory* %loadMem_40bf06, %struct.Memory** %MEMORY
  %loadMem_40bf0b = load %struct.Memory*, %struct.Memory** %MEMORY
  %743 = getelementptr inbounds %struct.State, %struct.State* %0, i32 0, i32 6
  %744 = getelementptr inbounds %struct.GPR, %struct.GPR* %743, i32 0, i32 33
  %745 = getelementptr inbounds %struct.Reg, %struct.Reg* %744, i32 0, i32 0
  %PC.i19 = bitcast %union.anon* %745 to i64*
  %746 = getelementptr inbounds %struct.State, %struct.State* %0, i32 0, i32 6
  %747 = getelementptr inbounds %struct.GPR, %struct.GPR* %746, i32 0, i32 15
  %748 = getelementptr inbounds %struct.Reg, %struct.Reg* %747, i32 0, i32 0
  %RBP.i20 = bitcast %union.anon* %748 to i64*
  %749 = getelementptr inbounds %struct.State, %struct.State* %0, i32 0, i32 1
  %750 = getelementptr inbounds [32 x %union.VectorReg], [32 x %union.VectorReg]* %749, i64 0, i64 3
  %YMM3.i = bitcast %union.VectorReg* %750 to %"class.std::bitset"*
  %751 = bitcast %"class.std::bitset"* %YMM3.i to i8*
  %752 = load i64, i64* %RBP.i20
  %753 = sub i64 %752, 40
  %754 = load i64, i64* %PC.i19
  %755 = add i64 %754, 5
  store i64 %755, i64* %PC.i19
  %756 = inttoptr i64 %753 to double*
  %757 = load double, double* %756
  %758 = bitcast i8* %751 to double*
  store double %757, double* %758, align 1
  %759 = getelementptr inbounds i8, i8* %751, i64 8
  %760 = bitcast i8* %759 to double*
  store double 0.000000e+00, double* %760, align 1
  store %struct.Memory* %loadMem_40bf0b, %struct.Memory** %MEMORY
  %loadMem_40bf10 = load %struct.Memory*, %struct.Memory** %MEMORY
  %761 = getelementptr inbounds %struct.State, %struct.State* %0, i32 0, i32 6
  %762 = getelementptr inbounds %struct.GPR, %struct.GPR* %761, i32 0, i32 33
  %763 = getelementptr inbounds %struct.Reg, %struct.Reg* %762, i32 0, i32 0
  %PC.i17 = bitcast %union.anon* %763 to i64*
  %764 = getelementptr inbounds %struct.State, %struct.State* %0, i32 0, i32 6
  %765 = getelementptr inbounds %struct.GPR, %struct.GPR* %764, i32 0, i32 15
  %766 = getelementptr inbounds %struct.Reg, %struct.Reg* %765, i32 0, i32 0
  %RBP.i18 = bitcast %union.anon* %766 to i64*
  %767 = getelementptr inbounds %struct.State, %struct.State* %0, i32 0, i32 1
  %768 = getelementptr inbounds [32 x %union.VectorReg], [32 x %union.VectorReg]* %767, i64 0, i64 4
  %YMM4.i = bitcast %union.VectorReg* %768 to %"class.std::bitset"*
  %769 = bitcast %"class.std::bitset"* %YMM4.i to i8*
  %770 = load i64, i64* %RBP.i18
  %771 = sub i64 %770, 48
  %772 = load i64, i64* %PC.i17
  %773 = add i64 %772, 5
  store i64 %773, i64* %PC.i17
  %774 = inttoptr i64 %771 to double*
  %775 = load double, double* %774
  %776 = bitcast i8* %769 to double*
  store double %775, double* %776, align 1
  %777 = getelementptr inbounds i8, i8* %769, i64 8
  %778 = bitcast i8* %777 to double*
  store double 0.000000e+00, double* %778, align 1
  store %struct.Memory* %loadMem_40bf10, %struct.Memory** %MEMORY
  %loadMem1_40bf15 = load %struct.Memory*, %struct.Memory** %MEMORY
  %779 = getelementptr inbounds %struct.State, %struct.State* %0, i32 0, i32 6
  %780 = getelementptr inbounds %struct.GPR, %struct.GPR* %779, i32 0, i32 33
  %781 = getelementptr inbounds %struct.Reg, %struct.Reg* %780, i32 0, i32 0
  %PC.i16 = bitcast %union.anon* %781 to i64*
  %782 = load i64, i64* %PC.i16
  %783 = add i64 %782, 107
  %784 = load i64, i64* %PC.i16
  %785 = add i64 %784, 5
  %786 = load i64, i64* %PC.i16
  %787 = add i64 %786, 5
  store i64 %787, i64* %PC.i16
  %788 = getelementptr inbounds %struct.State, %struct.State* %0, i64 0, i32 6, i32 13, i32 0, i32 0
  %789 = load i64, i64* %788, align 8
  %790 = add i64 %789, -8
  %791 = inttoptr i64 %790 to i64*
  store i64 %785, i64* %791
  store i64 %790, i64* %788, align 8
  %792 = getelementptr inbounds %struct.State, %struct.State* %0, i64 0, i32 6, i32 33, i32 0, i32 0
  store i64 %783, i64* %792, align 8
  store %struct.Memory* %loadMem1_40bf15, %struct.Memory** %MEMORY
  %loadMem2_40bf15 = load %struct.Memory*, %struct.Memory** %MEMORY
  %loadPC_40bf15 = load i64, i64* %3
  %call2_40bf15 = call %struct.Memory* @sub_40bf80._Z26check_shifted_variable_sumId30custom_mixed_multiple_variableIdEEvT_S2_S2_S2_S2_(%struct.State* %0, i64 %loadPC_40bf15, %struct.Memory* %loadMem2_40bf15)
  store %struct.Memory* %call2_40bf15, %struct.Memory** %MEMORY
  %loadMem_40bf1a = load %struct.Memory*, %struct.Memory** %MEMORY
  %793 = getelementptr inbounds %struct.State, %struct.State* %0, i32 0, i32 6
  %794 = getelementptr inbounds %struct.GPR, %struct.GPR* %793, i32 0, i32 33
  %795 = getelementptr inbounds %struct.Reg, %struct.Reg* %794, i32 0, i32 0
  %PC.i13 = bitcast %union.anon* %795 to i64*
  %796 = getelementptr inbounds %struct.State, %struct.State* %0, i32 0, i32 6
  %797 = getelementptr inbounds %struct.GPR, %struct.GPR* %796, i32 0, i32 1
  %798 = getelementptr inbounds %struct.Reg, %struct.Reg* %797, i32 0, i32 0
  %RAX.i14 = bitcast %union.anon* %798 to i64*
  %799 = getelementptr inbounds %struct.State, %struct.State* %0, i32 0, i32 6
  %800 = getelementptr inbounds %struct.GPR, %struct.GPR* %799, i32 0, i32 15
  %801 = getelementptr inbounds %struct.Reg, %struct.Reg* %800, i32 0, i32 0
  %RBP.i15 = bitcast %union.anon* %801 to i64*
  %802 = load i64, i64* %RBP.i15
  %803 = sub i64 %802, 60
  %804 = load i64, i64* %PC.i13
  %805 = add i64 %804, 3
  store i64 %805, i64* %PC.i13
  %806 = inttoptr i64 %803 to i32*
  %807 = load i32, i32* %806
  %808 = zext i32 %807 to i64
  store i64 %808, i64* %RAX.i14, align 8
  store %struct.Memory* %loadMem_40bf1a, %struct.Memory** %MEMORY
  %loadMem_40bf1d = load %struct.Memory*, %struct.Memory** %MEMORY
  %809 = getelementptr inbounds %struct.State, %struct.State* %0, i32 0, i32 6
  %810 = getelementptr inbounds %struct.GPR, %struct.GPR* %809, i32 0, i32 33
  %811 = getelementptr inbounds %struct.Reg, %struct.Reg* %810, i32 0, i32 0
  %PC.i12 = bitcast %union.anon* %811 to i64*
  %812 = getelementptr inbounds %struct.State, %struct.State* %0, i32 0, i32 6
  %813 = getelementptr inbounds %struct.GPR, %struct.GPR* %812, i32 0, i32 1
  %814 = getelementptr inbounds %struct.Reg, %struct.Reg* %813, i32 0, i32 0
  %RAX.i = bitcast %union.anon* %814 to i64*
  %815 = load i64, i64* %RAX.i
  %816 = load i64, i64* %PC.i12
  %817 = add i64 %816, 3
  store i64 %817, i64* %PC.i12
  %818 = trunc i64 %815 to i32
  %819 = add i32 1, %818
  %820 = zext i32 %819 to i64
  store i64 %820, i64* %RAX.i, align 8
  %821 = icmp ult i32 %819, %818
  %822 = icmp ult i32 %819, 1
  %823 = or i1 %821, %822
  %824 = zext i1 %823 to i8
  %825 = getelementptr inbounds %struct.State, %struct.State* %0, i64 0, i32 2, i32 1
  store i8 %824, i8* %825, align 1
  %826 = and i32 %819, 255
  %827 = call i32 @llvm.ctpop.i32(i32 %826)
  %828 = trunc i32 %827 to i8
  %829 = and i8 %828, 1
  %830 = xor i8 %829, 1
  %831 = getelementptr inbounds %struct.State, %struct.State* %0, i64 0, i32 2, i32 3
  store i8 %830, i8* %831, align 1
  %832 = xor i64 1, %815
  %833 = trunc i64 %832 to i32
  %834 = xor i32 %833, %819
  %835 = lshr i32 %834, 4
  %836 = trunc i32 %835 to i8
  %837 = and i8 %836, 1
  %838 = getelementptr inbounds %struct.State, %struct.State* %0, i64 0, i32 2, i32 5
  store i8 %837, i8* %838, align 1
  %839 = icmp eq i32 %819, 0
  %840 = zext i1 %839 to i8
  %841 = getelementptr inbounds %struct.State, %struct.State* %0, i64 0, i32 2, i32 7
  store i8 %840, i8* %841, align 1
  %842 = lshr i32 %819, 31
  %843 = trunc i32 %842 to i8
  %844 = getelementptr inbounds %struct.State, %struct.State* %0, i64 0, i32 2, i32 9
  store i8 %843, i8* %844, align 1
  %845 = lshr i32 %818, 31
  %846 = xor i32 %842, %845
  %847 = add i32 %846, %842
  %848 = icmp eq i32 %847, 2
  %849 = zext i1 %848 to i8
  %850 = getelementptr inbounds %struct.State, %struct.State* %0, i64 0, i32 2, i32 13
  store i8 %849, i8* %850, align 1
  store %struct.Memory* %loadMem_40bf1d, %struct.Memory** %MEMORY
  %loadMem_40bf20 = load %struct.Memory*, %struct.Memory** %MEMORY
  %851 = getelementptr inbounds %struct.State, %struct.State* %0, i32 0, i32 6
  %852 = getelementptr inbounds %struct.GPR, %struct.GPR* %851, i32 0, i32 33
  %853 = getelementptr inbounds %struct.Reg, %struct.Reg* %852, i32 0, i32 0
  %PC.i10 = bitcast %union.anon* %853 to i64*
  %854 = getelementptr inbounds %struct.State, %struct.State* %0, i32 0, i32 6
  %855 = getelementptr inbounds %struct.GPR, %struct.GPR* %854, i32 0, i32 1
  %856 = getelementptr inbounds %struct.Reg, %struct.Reg* %855, i32 0, i32 0
  %EAX.i = bitcast %union.anon* %856 to i32*
  %857 = getelementptr inbounds %struct.State, %struct.State* %0, i32 0, i32 6
  %858 = getelementptr inbounds %struct.GPR, %struct.GPR* %857, i32 0, i32 15
  %859 = getelementptr inbounds %struct.Reg, %struct.Reg* %858, i32 0, i32 0
  %RBP.i11 = bitcast %union.anon* %859 to i64*
  %860 = load i64, i64* %RBP.i11
  %861 = sub i64 %860, 60
  %862 = load i32, i32* %EAX.i
  %863 = zext i32 %862 to i64
  %864 = load i64, i64* %PC.i10
  %865 = add i64 %864, 3
  store i64 %865, i64* %PC.i10
  %866 = inttoptr i64 %861 to i32*
  store i32 %862, i32* %866
  store %struct.Memory* %loadMem_40bf20, %struct.Memory** %MEMORY
  %loadMem_40bf23 = load %struct.Memory*, %struct.Memory** %MEMORY
  %867 = getelementptr inbounds %struct.State, %struct.State* %0, i32 0, i32 6
  %868 = getelementptr inbounds %struct.GPR, %struct.GPR* %867, i32 0, i32 33
  %869 = getelementptr inbounds %struct.Reg, %struct.Reg* %868, i32 0, i32 0
  %PC.i9 = bitcast %union.anon* %869 to i64*
  %870 = load i64, i64* %PC.i9
  %871 = add i64 %870, -144
  %872 = load i64, i64* %PC.i9
  %873 = add i64 %872, 5
  store i64 %873, i64* %PC.i9
  %874 = getelementptr inbounds %struct.State, %struct.State* %0, i64 0, i32 6, i32 33, i32 0, i32 0
  store i64 %871, i64* %874, align 8
  store %struct.Memory* %loadMem_40bf23, %struct.Memory** %MEMORY
  br label %block_.L_40be93

block_.L_40bf28:                                  ; preds = %block_.L_40be93
  %loadMem1_40bf28 = load %struct.Memory*, %struct.Memory** %MEMORY
  %875 = getelementptr inbounds %struct.State, %struct.State* %0, i32 0, i32 6
  %876 = getelementptr inbounds %struct.GPR, %struct.GPR* %875, i32 0, i32 33
  %877 = getelementptr inbounds %struct.Reg, %struct.Reg* %876, i32 0, i32 0
  %PC.i8 = bitcast %union.anon* %877 to i64*
  %878 = load i64, i64* %PC.i8
  %879 = add i64 %878, -45240
  %880 = load i64, i64* %PC.i8
  %881 = add i64 %880, 5
  %882 = load i64, i64* %PC.i8
  %883 = add i64 %882, 5
  store i64 %883, i64* %PC.i8
  %884 = getelementptr inbounds %struct.State, %struct.State* %0, i64 0, i32 6, i32 13, i32 0, i32 0
  %885 = load i64, i64* %884, align 8
  %886 = add i64 %885, -8
  %887 = inttoptr i64 %886 to i64*
  store i64 %881, i64* %887
  store i64 %886, i64* %884, align 8
  %888 = getelementptr inbounds %struct.State, %struct.State* %0, i64 0, i32 6, i32 33, i32 0, i32 0
  store i64 %879, i64* %888, align 8
  store %struct.Memory* %loadMem1_40bf28, %struct.Memory** %MEMORY
  %loadMem2_40bf28 = load %struct.Memory*, %struct.Memory** %MEMORY
  %loadPC_40bf28 = load i64, i64* %3
  %call2_40bf28 = call %struct.Memory* @sub_400e70._Z5timerv(%struct.State* %0, i64 %loadPC_40bf28, %struct.Memory* %loadMem2_40bf28)
  store %struct.Memory* %call2_40bf28, %struct.Memory** %MEMORY
  %loadMem_40bf2d = load %struct.Memory*, %struct.Memory** %MEMORY
  %889 = getelementptr inbounds %struct.State, %struct.State* %0, i32 0, i32 6
  %890 = getelementptr inbounds %struct.GPR, %struct.GPR* %889, i32 0, i32 33
  %891 = getelementptr inbounds %struct.Reg, %struct.Reg* %890, i32 0, i32 0
  %PC.i6 = bitcast %union.anon* %891 to i64*
  %892 = getelementptr inbounds %struct.State, %struct.State* %0, i32 0, i32 6
  %893 = getelementptr inbounds %struct.GPR, %struct.GPR* %892, i32 0, i32 11
  %894 = getelementptr inbounds %struct.Reg, %struct.Reg* %893, i32 0, i32 0
  %RDI.i = bitcast %union.anon* %894 to i64*
  %895 = getelementptr inbounds %struct.State, %struct.State* %0, i32 0, i32 6
  %896 = getelementptr inbounds %struct.GPR, %struct.GPR* %895, i32 0, i32 15
  %897 = getelementptr inbounds %struct.Reg, %struct.Reg* %896, i32 0, i32 0
  %RBP.i7 = bitcast %union.anon* %897 to i64*
  %898 = load i64, i64* %RBP.i7
  %899 = sub i64 %898, 56
  %900 = load i64, i64* %PC.i6
  %901 = add i64 %900, 4
  store i64 %901, i64* %PC.i6
  %902 = inttoptr i64 %899 to i64*
  %903 = load i64, i64* %902
  store i64 %903, i64* %RDI.i, align 8
  store %struct.Memory* %loadMem_40bf2d, %struct.Memory** %MEMORY
  %loadMem1_40bf31 = load %struct.Memory*, %struct.Memory** %MEMORY
  %904 = getelementptr inbounds %struct.State, %struct.State* %0, i32 0, i32 6
  %905 = getelementptr inbounds %struct.GPR, %struct.GPR* %904, i32 0, i32 33
  %906 = getelementptr inbounds %struct.Reg, %struct.Reg* %905, i32 0, i32 0
  %PC.i5 = bitcast %union.anon* %906 to i64*
  %907 = load i64, i64* %PC.i5
  %908 = add i64 %907, -46881
  %909 = load i64, i64* %PC.i5
  %910 = add i64 %909, 5
  %911 = load i64, i64* %PC.i5
  %912 = add i64 %911, 5
  store i64 %912, i64* %PC.i5
  %913 = getelementptr inbounds %struct.State, %struct.State* %0, i64 0, i32 6, i32 13, i32 0, i32 0
  %914 = load i64, i64* %913, align 8
  %915 = add i64 %914, -8
  %916 = inttoptr i64 %915 to i64*
  store i64 %910, i64* %916
  store i64 %915, i64* %913, align 8
  %917 = getelementptr inbounds %struct.State, %struct.State* %0, i64 0, i32 6, i32 33, i32 0, i32 0
  store i64 %908, i64* %917, align 8
  store %struct.Memory* %loadMem1_40bf31, %struct.Memory** %MEMORY
  %loadMem2_40bf31 = load %struct.Memory*, %struct.Memory** %MEMORY
  %loadPC_40bf31 = load i64, i64* %3
  %call2_40bf31 = call %struct.Memory* @sub_400810._Z13record_resultdPKc(%struct.State* %0, i64 %loadPC_40bf31, %struct.Memory* %loadMem2_40bf31)
  store %struct.Memory* %call2_40bf31, %struct.Memory** %MEMORY
  %loadMem_40bf36 = load %struct.Memory*, %struct.Memory** %MEMORY
  %918 = getelementptr inbounds %struct.State, %struct.State* %0, i32 0, i32 6
  %919 = getelementptr inbounds %struct.GPR, %struct.GPR* %918, i32 0, i32 33
  %920 = getelementptr inbounds %struct.Reg, %struct.Reg* %919, i32 0, i32 0
  %PC.i4 = bitcast %union.anon* %920 to i64*
  %921 = getelementptr inbounds %struct.State, %struct.State* %0, i32 0, i32 6
  %922 = getelementptr inbounds %struct.GPR, %struct.GPR* %921, i32 0, i32 13
  %923 = getelementptr inbounds %struct.Reg, %struct.Reg* %922, i32 0, i32 0
  %RSP.i = bitcast %union.anon* %923 to i64*
  %924 = load i64, i64* %RSP.i
  %925 = load i64, i64* %PC.i4
  %926 = add i64 %925, 4
  store i64 %926, i64* %PC.i4
  %927 = add i64 80, %924
  store i64 %927, i64* %RSP.i, align 8
  %928 = icmp ult i64 %927, %924
  %929 = icmp ult i64 %927, 80
  %930 = or i1 %928, %929
  %931 = zext i1 %930 to i8
  %932 = getelementptr inbounds %struct.State, %struct.State* %0, i64 0, i32 2, i32 1
  store i8 %931, i8* %932, align 1
  %933 = trunc i64 %927 to i32
  %934 = and i32 %933, 255
  %935 = call i32 @llvm.ctpop.i32(i32 %934)
  %936 = trunc i32 %935 to i8
  %937 = and i8 %936, 1
  %938 = xor i8 %937, 1
  %939 = getelementptr inbounds %struct.State, %struct.State* %0, i64 0, i32 2, i32 3
  store i8 %938, i8* %939, align 1
  %940 = xor i64 80, %924
  %941 = xor i64 %940, %927
  %942 = lshr i64 %941, 4
  %943 = trunc i64 %942 to i8
  %944 = and i8 %943, 1
  %945 = getelementptr inbounds %struct.State, %struct.State* %0, i64 0, i32 2, i32 5
  store i8 %944, i8* %945, align 1
  %946 = icmp eq i64 %927, 0
  %947 = zext i1 %946 to i8
  %948 = getelementptr inbounds %struct.State, %struct.State* %0, i64 0, i32 2, i32 7
  store i8 %947, i8* %948, align 1
  %949 = lshr i64 %927, 63
  %950 = trunc i64 %949 to i8
  %951 = getelementptr inbounds %struct.State, %struct.State* %0, i64 0, i32 2, i32 9
  store i8 %950, i8* %951, align 1
  %952 = lshr i64 %924, 63
  %953 = xor i64 %949, %952
  %954 = add i64 %953, %949
  %955 = icmp eq i64 %954, 2
  %956 = zext i1 %955 to i8
  %957 = getelementptr inbounds %struct.State, %struct.State* %0, i64 0, i32 2, i32 13
  store i8 %956, i8* %957, align 1
  store %struct.Memory* %loadMem_40bf36, %struct.Memory** %MEMORY
  %loadMem_40bf3a = load %struct.Memory*, %struct.Memory** %MEMORY
  %958 = getelementptr inbounds %struct.State, %struct.State* %0, i32 0, i32 6
  %959 = getelementptr inbounds %struct.GPR, %struct.GPR* %958, i32 0, i32 33
  %960 = getelementptr inbounds %struct.Reg, %struct.Reg* %959, i32 0, i32 0
  %PC.i2 = bitcast %union.anon* %960 to i64*
  %961 = getelementptr inbounds %struct.State, %struct.State* %0, i32 0, i32 6
  %962 = getelementptr inbounds %struct.GPR, %struct.GPR* %961, i32 0, i32 15
  %963 = getelementptr inbounds %struct.Reg, %struct.Reg* %962, i32 0, i32 0
  %RBP.i3 = bitcast %union.anon* %963 to i64*
  %964 = load i64, i64* %PC.i2
  %965 = add i64 %964, 1
  store i64 %965, i64* %PC.i2
  %966 = getelementptr inbounds %struct.State, %struct.State* %0, i64 0, i32 6, i32 13, i32 0, i32 0
  %967 = load i64, i64* %966, align 8
  %968 = add i64 %967, 8
  %969 = inttoptr i64 %967 to i64*
  %970 = load i64, i64* %969
  store i64 %970, i64* %RBP.i3, align 8
  store i64 %968, i64* %966, align 8
  store %struct.Memory* %loadMem_40bf3a, %struct.Memory** %MEMORY
  %loadMem_40bf3b = load %struct.Memory*, %struct.Memory** %MEMORY
  %971 = getelementptr inbounds %struct.State, %struct.State* %0, i32 0, i32 6
  %972 = getelementptr inbounds %struct.GPR, %struct.GPR* %971, i32 0, i32 33
  %973 = getelementptr inbounds %struct.Reg, %struct.Reg* %972, i32 0, i32 0
  %PC.i1 = bitcast %union.anon* %973 to i64*
  %974 = load i64, i64* %PC.i1
  %975 = add i64 %974, 1
  store i64 %975, i64* %PC.i1
  %976 = getelementptr inbounds %struct.State, %struct.State* %0, i64 0, i32 6, i32 33, i32 0, i32 0
  %977 = getelementptr inbounds %struct.State, %struct.State* %0, i64 0, i32 6, i32 13, i32 0, i32 0
  %978 = load i64, i64* %977, align 8
  %979 = inttoptr i64 %978 to i64*
  %980 = load i64, i64* %979
  store i64 %980, i64* %976, align 8
  %981 = add i64 %978, 8
  store i64 %981, i64* %977, align 8
  store %struct.Memory* %loadMem_40bf3b, %struct.Memory** %MEMORY
  ret %struct.Memory* %loadMem_40bf3b
}

define %struct.Memory* @routine_pushq__rbp(%struct.State* dereferenceable(3376), i64, %struct.Memory*) {
block_400488:
  %3 = getelementptr inbounds %struct.State, %struct.State* %0, i32 0, i32 6
  %4 = getelementptr inbounds %struct.GPR, %struct.GPR* %3, i32 0, i32 33
  %5 = getelementptr inbounds %struct.Reg, %struct.Reg* %4, i32 0, i32 0
  %PC = bitcast %union.anon* %5 to i64*
  %6 = getelementptr inbounds %struct.State, %struct.State* %0, i32 0, i32 6
  %7 = getelementptr inbounds %struct.GPR, %struct.GPR* %6, i32 0, i32 15
  %8 = getelementptr inbounds %struct.Reg, %struct.Reg* %7, i32 0, i32 0
  %RBP = bitcast %union.anon* %8 to i64*
  %9 = load i64, i64* %RBP
  %10 = load i64, i64* %PC
  %11 = add i64 %10, 1
  store i64 %11, i64* %PC
  %12 = getelementptr inbounds %struct.State, %struct.State* %0, i64 0, i32 6, i32 13, i32 0, i32 0
  %13 = load i64, i64* %12, align 8
  %14 = add i64 %13, -8
  %15 = inttoptr i64 %14 to i64*
  store i64 %9, i64* %15
  store i64 %14, i64* %12, align 8
  ret %struct.Memory* %2
}

define %struct.Memory* @routine_movq__rsp___rbp(%struct.State* dereferenceable(3376), i64, %struct.Memory*) {
block_400488:
  %3 = getelementptr inbounds %struct.State, %struct.State* %0, i32 0, i32 6
  %4 = getelementptr inbounds %struct.GPR, %struct.GPR* %3, i32 0, i32 33
  %5 = getelementptr inbounds %struct.Reg, %struct.Reg* %4, i32 0, i32 0
  %PC = bitcast %union.anon* %5 to i64*
  %6 = getelementptr inbounds %struct.State, %struct.State* %0, i32 0, i32 6
  %7 = getelementptr inbounds %struct.GPR, %struct.GPR* %6, i32 0, i32 13
  %8 = getelementptr inbounds %struct.Reg, %struct.Reg* %7, i32 0, i32 0
  %RSP = bitcast %union.anon* %8 to i64*
  %9 = getelementptr inbounds %struct.State, %struct.State* %0, i32 0, i32 6
  %10 = getelementptr inbounds %struct.GPR, %struct.GPR* %9, i32 0, i32 15
  %11 = getelementptr inbounds %struct.Reg, %struct.Reg* %10, i32 0, i32 0
  %RBP = bitcast %union.anon* %11 to i64*
  %12 = load i64, i64* %RSP
  %13 = load i64, i64* %PC
  %14 = add i64 %13, 3
  store i64 %14, i64* %PC
  store i64 %12, i64* %RBP, align 8
  ret %struct.Memory* %2
}

define %struct.Memory* @routine_subq__0x50___rsp(%struct.State* dereferenceable(3376), i64, %struct.Memory*) {
block_400488:
  %3 = getelementptr inbounds %struct.State, %struct.State* %0, i32 0, i32 6
  %4 = getelementptr inbounds %struct.GPR, %struct.GPR* %3, i32 0, i32 33
  %5 = getelementptr inbounds %struct.Reg, %struct.Reg* %4, i32 0, i32 0
  %PC = bitcast %union.anon* %5 to i64*
  %6 = getelementptr inbounds %struct.State, %struct.State* %0, i32 0, i32 6
  %7 = getelementptr inbounds %struct.GPR, %struct.GPR* %6, i32 0, i32 13
  %8 = getelementptr inbounds %struct.Reg, %struct.Reg* %7, i32 0, i32 0
  %RSP = bitcast %union.anon* %8 to i64*
  %9 = load i64, i64* %RSP
  %10 = load i64, i64* %PC
  %11 = add i64 %10, 4
  store i64 %11, i64* %PC
  %12 = sub i64 %9, 80
  store i64 %12, i64* %RSP, align 8
  %13 = icmp ult i64 %9, 80
  %14 = zext i1 %13 to i8
  %15 = getelementptr inbounds %struct.State, %struct.State* %0, i64 0, i32 2, i32 1
  store i8 %14, i8* %15, align 1
  %16 = trunc i64 %12 to i32
  %17 = and i32 %16, 255
  %18 = call i32 @llvm.ctpop.i32(i32 %17)
  %19 = trunc i32 %18 to i8
  %20 = and i8 %19, 1
  %21 = xor i8 %20, 1
  %22 = getelementptr inbounds %struct.State, %struct.State* %0, i64 0, i32 2, i32 3
  store i8 %21, i8* %22, align 1
  %23 = xor i64 80, %9
  %24 = xor i64 %23, %12
  %25 = lshr i64 %24, 4
  %26 = trunc i64 %25 to i8
  %27 = and i8 %26, 1
  %28 = getelementptr inbounds %struct.State, %struct.State* %0, i64 0, i32 2, i32 5
  store i8 %27, i8* %28, align 1
  %29 = icmp eq i64 %12, 0
  %30 = zext i1 %29 to i8
  %31 = getelementptr inbounds %struct.State, %struct.State* %0, i64 0, i32 2, i32 7
  store i8 %30, i8* %31, align 1
  %32 = lshr i64 %12, 63
  %33 = trunc i64 %32 to i8
  %34 = getelementptr inbounds %struct.State, %struct.State* %0, i64 0, i32 2, i32 9
  store i8 %33, i8* %34, align 1
  %35 = lshr i64 %9, 63
  %36 = xor i64 %32, %35
  %37 = add i64 %36, %35
  %38 = icmp eq i64 %37, 2
  %39 = zext i1 %38 to i8
  %40 = getelementptr inbounds %struct.State, %struct.State* %0, i64 0, i32 2, i32 13
  store i8 %39, i8* %40, align 1
  ret %struct.Memory* %2
}

define %struct.Memory* @routine_movq__rdi__MINUS0x8__rbp_(%struct.State* dereferenceable(3376), i64, %struct.Memory*) {
block_400488:
  %3 = getelementptr inbounds %struct.State, %struct.State* %0, i32 0, i32 6
  %4 = getelementptr inbounds %struct.GPR, %struct.GPR* %3, i32 0, i32 33
  %5 = getelementptr inbounds %struct.Reg, %struct.Reg* %4, i32 0, i32 0
  %PC = bitcast %union.anon* %5 to i64*
  %6 = getelementptr inbounds %struct.State, %struct.State* %0, i32 0, i32 6
  %7 = getelementptr inbounds %struct.GPR, %struct.GPR* %6, i32 0, i32 11
  %8 = getelementptr inbounds %struct.Reg, %struct.Reg* %7, i32 0, i32 0
  %RDI = bitcast %union.anon* %8 to i64*
  %9 = getelementptr inbounds %struct.State, %struct.State* %0, i32 0, i32 6
  %10 = getelementptr inbounds %struct.GPR, %struct.GPR* %9, i32 0, i32 15
  %11 = getelementptr inbounds %struct.Reg, %struct.Reg* %10, i32 0, i32 0
  %RBP = bitcast %union.anon* %11 to i64*
  %12 = load i64, i64* %RBP
  %13 = sub i64 %12, 8
  %14 = load i64, i64* %RDI
  %15 = load i64, i64* %PC
  %16 = add i64 %15, 4
  store i64 %16, i64* %PC
  %17 = inttoptr i64 %13 to i64*
  store i64 %14, i64* %17
  ret %struct.Memory* %2
}

define %struct.Memory* @routine_movl__esi__MINUS0xc__rbp_(%struct.State* dereferenceable(3376), i64, %struct.Memory*) {
block_400488:
  %3 = getelementptr inbounds %struct.State, %struct.State* %0, i32 0, i32 6
  %4 = getelementptr inbounds %struct.GPR, %struct.GPR* %3, i32 0, i32 33
  %5 = getelementptr inbounds %struct.Reg, %struct.Reg* %4, i32 0, i32 0
  %PC = bitcast %union.anon* %5 to i64*
  %6 = getelementptr inbounds %struct.State, %struct.State* %0, i32 0, i32 6
  %7 = getelementptr inbounds %struct.GPR, %struct.GPR* %6, i32 0, i32 9
  %8 = getelementptr inbounds %struct.Reg, %struct.Reg* %7, i32 0, i32 0
  %ESI = bitcast %union.anon* %8 to i32*
  %9 = getelementptr inbounds %struct.State, %struct.State* %0, i32 0, i32 6
  %10 = getelementptr inbounds %struct.GPR, %struct.GPR* %9, i32 0, i32 15
  %11 = getelementptr inbounds %struct.Reg, %struct.Reg* %10, i32 0, i32 0
  %RBP = bitcast %union.anon* %11 to i64*
  %12 = load i64, i64* %RBP
  %13 = sub i64 %12, 12
  %14 = load i32, i32* %ESI
  %15 = zext i32 %14 to i64
  %16 = load i64, i64* %PC
  %17 = add i64 %16, 3
  store i64 %17, i64* %PC
  %18 = inttoptr i64 %13 to i32*
  store i32 %14, i32* %18
  ret %struct.Memory* %2
}

define %struct.Memory* @routine_movsd__xmm0__MINUS0x18__rbp_(%struct.State* dereferenceable(3376), i64, %struct.Memory*) {
block_400488:
  %3 = getelementptr inbounds %struct.State, %struct.State* %0, i32 0, i32 6
  %4 = getelementptr inbounds %struct.GPR, %struct.GPR* %3, i32 0, i32 33
  %5 = getelementptr inbounds %struct.Reg, %struct.Reg* %4, i32 0, i32 0
  %PC = bitcast %union.anon* %5 to i64*
  %6 = getelementptr inbounds %struct.State, %struct.State* %0, i32 0, i32 6
  %7 = getelementptr inbounds %struct.GPR, %struct.GPR* %6, i32 0, i32 15
  %8 = getelementptr inbounds %struct.Reg, %struct.Reg* %7, i32 0, i32 0
  %RBP = bitcast %union.anon* %8 to i64*
  %9 = getelementptr inbounds %struct.State, %struct.State* %0, i32 0, i32 1
  %10 = getelementptr inbounds [32 x %union.VectorReg], [32 x %union.VectorReg]* %9, i64 0, i64 0
  %XMM0 = bitcast %union.VectorReg* %10 to %union.vec128_t*
  %11 = load i64, i64* %RBP
  %12 = sub i64 %11, 24
  %13 = bitcast %union.vec128_t* %XMM0 to i8*
  %14 = load i64, i64* %PC
  %15 = add i64 %14, 5
  store i64 %15, i64* %PC
  %16 = bitcast i8* %13 to double*
  %17 = load double, double* %16, align 1
  %18 = inttoptr i64 %12 to double*
  store double %17, double* %18
  ret %struct.Memory* %2
}

define %struct.Memory* @routine_movsd__xmm1__MINUS0x20__rbp_(%struct.State* dereferenceable(3376), i64, %struct.Memory*) {
block_400488:
  %3 = getelementptr inbounds %struct.State, %struct.State* %0, i32 0, i32 6
  %4 = getelementptr inbounds %struct.GPR, %struct.GPR* %3, i32 0, i32 33
  %5 = getelementptr inbounds %struct.Reg, %struct.Reg* %4, i32 0, i32 0
  %PC = bitcast %union.anon* %5 to i64*
  %6 = getelementptr inbounds %struct.State, %struct.State* %0, i32 0, i32 6
  %7 = getelementptr inbounds %struct.GPR, %struct.GPR* %6, i32 0, i32 15
  %8 = getelementptr inbounds %struct.Reg, %struct.Reg* %7, i32 0, i32 0
  %RBP = bitcast %union.anon* %8 to i64*
  %9 = getelementptr inbounds %struct.State, %struct.State* %0, i32 0, i32 1
  %10 = getelementptr inbounds [32 x %union.VectorReg], [32 x %union.VectorReg]* %9, i64 0, i64 1
  %XMM1 = bitcast %union.VectorReg* %10 to %union.vec128_t*
  %11 = load i64, i64* %RBP
  %12 = sub i64 %11, 32
  %13 = bitcast %union.vec128_t* %XMM1 to i8*
  %14 = load i64, i64* %PC
  %15 = add i64 %14, 5
  store i64 %15, i64* %PC
  %16 = bitcast i8* %13 to double*
  %17 = load double, double* %16, align 1
  %18 = inttoptr i64 %12 to double*
  store double %17, double* %18
  ret %struct.Memory* %2
}

define %struct.Memory* @routine_movsd__xmm2__MINUS0x28__rbp_(%struct.State* dereferenceable(3376), i64, %struct.Memory*) {
block_400488:
  %3 = getelementptr inbounds %struct.State, %struct.State* %0, i32 0, i32 6
  %4 = getelementptr inbounds %struct.GPR, %struct.GPR* %3, i32 0, i32 33
  %5 = getelementptr inbounds %struct.Reg, %struct.Reg* %4, i32 0, i32 0
  %PC = bitcast %union.anon* %5 to i64*
  %6 = getelementptr inbounds %struct.State, %struct.State* %0, i32 0, i32 6
  %7 = getelementptr inbounds %struct.GPR, %struct.GPR* %6, i32 0, i32 15
  %8 = getelementptr inbounds %struct.Reg, %struct.Reg* %7, i32 0, i32 0
  %RBP = bitcast %union.anon* %8 to i64*
  %9 = getelementptr inbounds %struct.State, %struct.State* %0, i32 0, i32 1
  %10 = getelementptr inbounds [32 x %union.VectorReg], [32 x %union.VectorReg]* %9, i64 0, i64 2
  %XMM2 = bitcast %union.VectorReg* %10 to %union.vec128_t*
  %11 = load i64, i64* %RBP
  %12 = sub i64 %11, 40
  %13 = bitcast %union.vec128_t* %XMM2 to i8*
  %14 = load i64, i64* %PC
  %15 = add i64 %14, 5
  store i64 %15, i64* %PC
  %16 = bitcast i8* %13 to double*
  %17 = load double, double* %16, align 1
  %18 = inttoptr i64 %12 to double*
  store double %17, double* %18
  ret %struct.Memory* %2
}

define %struct.Memory* @routine_movsd__xmm3__MINUS0x30__rbp_(%struct.State* dereferenceable(3376), i64, %struct.Memory*) {
block_400488:
  %3 = getelementptr inbounds %struct.State, %struct.State* %0, i32 0, i32 6
  %4 = getelementptr inbounds %struct.GPR, %struct.GPR* %3, i32 0, i32 33
  %5 = getelementptr inbounds %struct.Reg, %struct.Reg* %4, i32 0, i32 0
  %PC = bitcast %union.anon* %5 to i64*
  %6 = getelementptr inbounds %struct.State, %struct.State* %0, i32 0, i32 6
  %7 = getelementptr inbounds %struct.GPR, %struct.GPR* %6, i32 0, i32 15
  %8 = getelementptr inbounds %struct.Reg, %struct.Reg* %7, i32 0, i32 0
  %RBP = bitcast %union.anon* %8 to i64*
  %9 = getelementptr inbounds %struct.State, %struct.State* %0, i32 0, i32 1
  %10 = getelementptr inbounds [32 x %union.VectorReg], [32 x %union.VectorReg]* %9, i64 0, i64 3
  %XMM3 = bitcast %union.VectorReg* %10 to %union.vec128_t*
  %11 = load i64, i64* %RBP
  %12 = sub i64 %11, 48
  %13 = bitcast %union.vec128_t* %XMM3 to i8*
  %14 = load i64, i64* %PC
  %15 = add i64 %14, 5
  store i64 %15, i64* %PC
  %16 = bitcast i8* %13 to double*
  %17 = load double, double* %16, align 1
  %18 = inttoptr i64 %12 to double*
  store double %17, double* %18
  ret %struct.Memory* %2
}

define %struct.Memory* @routine_movq__rdx__MINUS0x38__rbp_(%struct.State* dereferenceable(3376), i64, %struct.Memory*) {
block_400488:
  %3 = getelementptr inbounds %struct.State, %struct.State* %0, i32 0, i32 6
  %4 = getelementptr inbounds %struct.GPR, %struct.GPR* %3, i32 0, i32 33
  %5 = getelementptr inbounds %struct.Reg, %struct.Reg* %4, i32 0, i32 0
  %PC = bitcast %union.anon* %5 to i64*
  %6 = getelementptr inbounds %struct.State, %struct.State* %0, i32 0, i32 6
  %7 = getelementptr inbounds %struct.GPR, %struct.GPR* %6, i32 0, i32 7
  %8 = getelementptr inbounds %struct.Reg, %struct.Reg* %7, i32 0, i32 0
  %RDX = bitcast %union.anon* %8 to i64*
  %9 = getelementptr inbounds %struct.State, %struct.State* %0, i32 0, i32 6
  %10 = getelementptr inbounds %struct.GPR, %struct.GPR* %9, i32 0, i32 15
  %11 = getelementptr inbounds %struct.Reg, %struct.Reg* %10, i32 0, i32 0
  %RBP = bitcast %union.anon* %11 to i64*
  %12 = load i64, i64* %RBP
  %13 = sub i64 %12, 56
  %14 = load i64, i64* %RDX
  %15 = load i64, i64* %PC
  %16 = add i64 %15, 4
  store i64 %16, i64* %PC
  %17 = inttoptr i64 %13 to i64*
  store i64 %14, i64* %17
  ret %struct.Memory* %2
}

define %struct.Memory* @routine_callq_._Z11start_timerv(%struct.State* dereferenceable(3376), i64, %struct.Memory*, i64 %rel_off1, i64 %rel_off2, i64 %rel_off3) {
block_400488:
  %3 = getelementptr inbounds %struct.State, %struct.State* %0, i32 0, i32 6
  %4 = getelementptr inbounds %struct.GPR, %struct.GPR* %3, i32 0, i32 33
  %5 = getelementptr inbounds %struct.Reg, %struct.Reg* %4, i32 0, i32 0
  %PC = bitcast %union.anon* %5 to i64*
  %6 = load i64, i64* %PC
  %7 = add i64 %6, %rel_off1
  %8 = load i64, i64* %PC
  %9 = add i64 %8, %rel_off2
  %10 = load i64, i64* %PC
  %11 = add i64 %10, %rel_off3
  store i64 %11, i64* %PC
  %12 = getelementptr inbounds %struct.State, %struct.State* %0, i64 0, i32 6, i32 13, i32 0, i32 0
  %13 = load i64, i64* %12, align 8
  %14 = add i64 %13, -8
  %15 = inttoptr i64 %14 to i64*
  store i64 %9, i64* %15
  store i64 %14, i64* %12, align 8
  %16 = getelementptr inbounds %struct.State, %struct.State* %0, i64 0, i32 6, i32 33, i32 0, i32 0
  store i64 %7, i64* %16, align 8
  ret %struct.Memory* %2
}

define %struct.Memory* @routine_movl__0x0__MINUS0x3c__rbp_(%struct.State* dereferenceable(3376), i64, %struct.Memory*) {
block_400488:
  %3 = getelementptr inbounds %struct.State, %struct.State* %0, i32 0, i32 6
  %4 = getelementptr inbounds %struct.GPR, %struct.GPR* %3, i32 0, i32 33
  %5 = getelementptr inbounds %struct.Reg, %struct.Reg* %4, i32 0, i32 0
  %PC = bitcast %union.anon* %5 to i64*
  %6 = getelementptr inbounds %struct.State, %struct.State* %0, i32 0, i32 6
  %7 = getelementptr inbounds %struct.GPR, %struct.GPR* %6, i32 0, i32 15
  %8 = getelementptr inbounds %struct.Reg, %struct.Reg* %7, i32 0, i32 0
  %RBP = bitcast %union.anon* %8 to i64*
  %9 = load i64, i64* %RBP
  %10 = sub i64 %9, 60
  %11 = load i64, i64* %PC
  %12 = add i64 %11, 7
  store i64 %12, i64* %PC
  %13 = inttoptr i64 %10 to i32*
  store i32 0, i32* %13
  ret %struct.Memory* %2
}

define %struct.Memory* @routine_movl_MINUS0x3c__rbp____eax(%struct.State* dereferenceable(3376), i64, %struct.Memory*) {
block_400488:
  %3 = getelementptr inbounds %struct.State, %struct.State* %0, i32 0, i32 6
  %4 = getelementptr inbounds %struct.GPR, %struct.GPR* %3, i32 0, i32 33
  %5 = getelementptr inbounds %struct.Reg, %struct.Reg* %4, i32 0, i32 0
  %PC = bitcast %union.anon* %5 to i64*
  %6 = getelementptr inbounds %struct.State, %struct.State* %0, i32 0, i32 6
  %7 = getelementptr inbounds %struct.GPR, %struct.GPR* %6, i32 0, i32 1
  %8 = getelementptr inbounds %struct.Reg, %struct.Reg* %7, i32 0, i32 0
  %RAX = bitcast %union.anon* %8 to i64*
  %9 = getelementptr inbounds %struct.State, %struct.State* %0, i32 0, i32 6
  %10 = getelementptr inbounds %struct.GPR, %struct.GPR* %9, i32 0, i32 15
  %11 = getelementptr inbounds %struct.Reg, %struct.Reg* %10, i32 0, i32 0
  %RBP = bitcast %union.anon* %11 to i64*
  %12 = load i64, i64* %RBP
  %13 = sub i64 %12, 60
  %14 = load i64, i64* %PC
  %15 = add i64 %14, 3
  store i64 %15, i64* %PC
  %16 = inttoptr i64 %13 to i32*
  %17 = load i32, i32* %16
  %18 = zext i32 %17 to i64
  store i64 %18, i64* %RAX, align 8
  ret %struct.Memory* %2
}

define %struct.Memory* @routine_cmpl_0x61a080___eax(%struct.State* dereferenceable(3376), i64, %struct.Memory*) {
block_400488:
  %3 = getelementptr inbounds %struct.State, %struct.State* %0, i32 0, i32 6
  %4 = getelementptr inbounds %struct.GPR, %struct.GPR* %3, i32 0, i32 33
  %5 = getelementptr inbounds %struct.Reg, %struct.Reg* %4, i32 0, i32 0
  %PC = bitcast %union.anon* %5 to i64*
  %6 = getelementptr inbounds %struct.State, %struct.State* %0, i32 0, i32 6
  %7 = getelementptr inbounds %struct.GPR, %struct.GPR* %6, i32 0, i32 1
  %8 = getelementptr inbounds %struct.Reg, %struct.Reg* %7, i32 0, i32 0
  %EAX = bitcast %union.anon* %8 to i32*
  %9 = load i32, i32* %EAX
  %10 = zext i32 %9 to i64
  %11 = load i64, i64* %PC
  %12 = add i64 %11, 7
  store i64 %12, i64* %PC
  %13 = load i32, i32* inttoptr (i64 6398080 to i32*)
  %14 = sub i32 %9, %13
  %15 = icmp ult i32 %9, %13
  %16 = zext i1 %15 to i8
  %17 = getelementptr inbounds %struct.State, %struct.State* %0, i64 0, i32 2, i32 1
  store i8 %16, i8* %17, align 1
  %18 = and i32 %14, 255
  %19 = call i32 @llvm.ctpop.i32(i32 %18)
  %20 = trunc i32 %19 to i8
  %21 = and i8 %20, 1
  %22 = xor i8 %21, 1
  %23 = getelementptr inbounds %struct.State, %struct.State* %0, i64 0, i32 2, i32 3
  store i8 %22, i8* %23, align 1
  %24 = xor i32 %13, %9
  %25 = xor i32 %24, %14
  %26 = lshr i32 %25, 4
  %27 = trunc i32 %26 to i8
  %28 = and i8 %27, 1
  %29 = getelementptr inbounds %struct.State, %struct.State* %0, i64 0, i32 2, i32 5
  store i8 %28, i8* %29, align 1
  %30 = icmp eq i32 %14, 0
  %31 = zext i1 %30 to i8
  %32 = getelementptr inbounds %struct.State, %struct.State* %0, i64 0, i32 2, i32 7
  store i8 %31, i8* %32, align 1
  %33 = lshr i32 %14, 31
  %34 = trunc i32 %33 to i8
  %35 = getelementptr inbounds %struct.State, %struct.State* %0, i64 0, i32 2, i32 9
  store i8 %34, i8* %35, align 1
  %36 = lshr i32 %9, 31
  %37 = lshr i32 %13, 31
  %38 = xor i32 %37, %36
  %39 = xor i32 %33, %36
  %40 = add i32 %39, %38
  %41 = icmp eq i32 %40, 2
  %42 = zext i1 %41 to i8
  %43 = getelementptr inbounds %struct.State, %struct.State* %0, i64 0, i32 2, i32 13
  store i8 %42, i8* %43, align 1
  ret %struct.Memory* %2
}

define %struct.Memory* @routine_jge_.L_40bf28(%struct.State* dereferenceable(3376), i64, %struct.Memory*, i8* %BRANCH_TAKEN, i64 %rel_off1, i64 %rel_off2, i64 %rel_off3) {
block_400488:
  %3 = getelementptr inbounds %struct.State, %struct.State* %0, i32 0, i32 6
  %4 = getelementptr inbounds %struct.GPR, %struct.GPR* %3, i32 0, i32 33
  %5 = getelementptr inbounds %struct.Reg, %struct.Reg* %4, i32 0, i32 0
  %PC = bitcast %union.anon* %5 to i64*
  %6 = load i64, i64* %PC
  %7 = add i64 %6, %rel_off1
  %8 = load i64, i64* %PC
  %9 = add i64 %8, %rel_off2
  %10 = load i64, i64* %PC
  %11 = add i64 %10, %rel_off3
  store i64 %11, i64* %PC
  %12 = getelementptr inbounds %struct.State, %struct.State* %0, i64 0, i32 2, i32 9
  %13 = load i8, i8* %12, align 1
  %14 = icmp ne i8 %13, 0
  %15 = getelementptr inbounds %struct.State, %struct.State* %0, i64 0, i32 2, i32 13
  %16 = load i8, i8* %15, align 1
  %17 = icmp ne i8 %16, 0
  %18 = xor i1 %14, %17
  %19 = xor i1 %18, true
  %20 = zext i1 %19 to i8
  store i8 %20, i8* %BRANCH_TAKEN, align 1
  %21 = getelementptr inbounds %struct.State, %struct.State* %0, i64 0, i32 6, i32 33, i32 0, i32 0
  %22 = select i1 %18, i64 %9, i64 %7
  store i64 %22, i64* %21, align 8
  ret %struct.Memory* %2
}

define %struct.Memory* @routine_xorps__xmm0___xmm0(%struct.State* dereferenceable(3376), i64, %struct.Memory*) {
block_400488:
  %3 = getelementptr inbounds %struct.State, %struct.State* %0, i32 0, i32 6
  %4 = getelementptr inbounds %struct.GPR, %struct.GPR* %3, i32 0, i32 33
  %5 = getelementptr inbounds %struct.Reg, %struct.Reg* %4, i32 0, i32 0
  %PC = bitcast %union.anon* %5 to i64*
  %6 = getelementptr inbounds %struct.State, %struct.State* %0, i32 0, i32 1
  %7 = getelementptr inbounds [32 x %union.VectorReg], [32 x %union.VectorReg]* %6, i64 0, i64 0
  %YMM0 = bitcast %union.VectorReg* %7 to %"class.std::bitset"*
  %8 = getelementptr inbounds %struct.State, %struct.State* %0, i32 0, i32 1
  %9 = getelementptr inbounds [32 x %union.VectorReg], [32 x %union.VectorReg]* %8, i64 0, i64 0
  %XMM0 = bitcast %union.VectorReg* %9 to %union.vec128_t*
  %10 = bitcast %"class.std::bitset"* %YMM0 to i8*
  %11 = bitcast %"class.std::bitset"* %YMM0 to i8*
  %12 = bitcast %union.vec128_t* %XMM0 to i8*
  %13 = load i64, i64* %PC
  %14 = add i64 %13, 3
  store i64 %14, i64* %PC
  %15 = bitcast i8* %11 to i64*
  %16 = load i64, i64* %15, align 1
  %17 = getelementptr inbounds i8, i8* %11, i64 8
  %18 = bitcast i8* %17 to i64*
  %19 = load i64, i64* %18, align 1
  %20 = bitcast i8* %12 to i64*
  %21 = load i64, i64* %20, align 1
  %22 = getelementptr inbounds i8, i8* %12, i64 8
  %23 = bitcast i8* %22 to i64*
  %24 = load i64, i64* %23, align 1
  %25 = xor i64 %21, %16
  %26 = xor i64 %24, %19
  %27 = trunc i64 %25 to i32
  %28 = lshr i64 %25, 32
  %29 = trunc i64 %28 to i32
  %30 = bitcast i8* %10 to i32*
  store i32 %27, i32* %30, align 1
  %31 = getelementptr inbounds i8, i8* %10, i64 4
  %32 = bitcast i8* %31 to i32*
  store i32 %29, i32* %32, align 1
  %33 = trunc i64 %26 to i32
  %34 = getelementptr inbounds i8, i8* %10, i64 8
  %35 = bitcast i8* %34 to i32*
  store i32 %33, i32* %35, align 1
  %36 = lshr i64 %26, 32
  %37 = trunc i64 %36 to i32
  %38 = getelementptr inbounds i8, i8* %10, i64 12
  %39 = bitcast i8* %38 to i32*
  store i32 %37, i32* %39, align 1
  ret %struct.Memory* %2
}

define %struct.Memory* @routine_movsd__xmm0__MINUS0x48__rbp_(%struct.State* dereferenceable(3376), i64, %struct.Memory*) {
block_400488:
  %3 = getelementptr inbounds %struct.State, %struct.State* %0, i32 0, i32 6
  %4 = getelementptr inbounds %struct.GPR, %struct.GPR* %3, i32 0, i32 33
  %5 = getelementptr inbounds %struct.Reg, %struct.Reg* %4, i32 0, i32 0
  %PC = bitcast %union.anon* %5 to i64*
  %6 = getelementptr inbounds %struct.State, %struct.State* %0, i32 0, i32 6
  %7 = getelementptr inbounds %struct.GPR, %struct.GPR* %6, i32 0, i32 15
  %8 = getelementptr inbounds %struct.Reg, %struct.Reg* %7, i32 0, i32 0
  %RBP = bitcast %union.anon* %8 to i64*
  %9 = getelementptr inbounds %struct.State, %struct.State* %0, i32 0, i32 1
  %10 = getelementptr inbounds [32 x %union.VectorReg], [32 x %union.VectorReg]* %9, i64 0, i64 0
  %XMM0 = bitcast %union.VectorReg* %10 to %union.vec128_t*
  %11 = load i64, i64* %RBP
  %12 = sub i64 %11, 72
  %13 = bitcast %union.vec128_t* %XMM0 to i8*
  %14 = load i64, i64* %PC
  %15 = add i64 %14, 5
  store i64 %15, i64* %PC
  %16 = bitcast i8* %13 to double*
  %17 = load double, double* %16, align 1
  %18 = inttoptr i64 %12 to double*
  store double %17, double* %18
  ret %struct.Memory* %2
}

define %struct.Memory* @routine_movl__0x0__MINUS0x4c__rbp_(%struct.State* dereferenceable(3376), i64, %struct.Memory*) {
block_400488:
  %3 = getelementptr inbounds %struct.State, %struct.State* %0, i32 0, i32 6
  %4 = getelementptr inbounds %struct.GPR, %struct.GPR* %3, i32 0, i32 33
  %5 = getelementptr inbounds %struct.Reg, %struct.Reg* %4, i32 0, i32 0
  %PC = bitcast %union.anon* %5 to i64*
  %6 = getelementptr inbounds %struct.State, %struct.State* %0, i32 0, i32 6
  %7 = getelementptr inbounds %struct.GPR, %struct.GPR* %6, i32 0, i32 15
  %8 = getelementptr inbounds %struct.Reg, %struct.Reg* %7, i32 0, i32 0
  %RBP = bitcast %union.anon* %8 to i64*
  %9 = load i64, i64* %RBP
  %10 = sub i64 %9, 76
  %11 = load i64, i64* %PC
  %12 = add i64 %11, 7
  store i64 %12, i64* %PC
  %13 = inttoptr i64 %10 to i32*
  store i32 0, i32* %13
  ret %struct.Memory* %2
}

define %struct.Memory* @routine_movl_MINUS0x4c__rbp____eax(%struct.State* dereferenceable(3376), i64, %struct.Memory*) {
block_400488:
  %3 = getelementptr inbounds %struct.State, %struct.State* %0, i32 0, i32 6
  %4 = getelementptr inbounds %struct.GPR, %struct.GPR* %3, i32 0, i32 33
  %5 = getelementptr inbounds %struct.Reg, %struct.Reg* %4, i32 0, i32 0
  %PC = bitcast %union.anon* %5 to i64*
  %6 = getelementptr inbounds %struct.State, %struct.State* %0, i32 0, i32 6
  %7 = getelementptr inbounds %struct.GPR, %struct.GPR* %6, i32 0, i32 1
  %8 = getelementptr inbounds %struct.Reg, %struct.Reg* %7, i32 0, i32 0
  %RAX = bitcast %union.anon* %8 to i64*
  %9 = getelementptr inbounds %struct.State, %struct.State* %0, i32 0, i32 6
  %10 = getelementptr inbounds %struct.GPR, %struct.GPR* %9, i32 0, i32 15
  %11 = getelementptr inbounds %struct.Reg, %struct.Reg* %10, i32 0, i32 0
  %RBP = bitcast %union.anon* %11 to i64*
  %12 = load i64, i64* %RBP
  %13 = sub i64 %12, 76
  %14 = load i64, i64* %PC
  %15 = add i64 %14, 3
  store i64 %15, i64* %PC
  %16 = inttoptr i64 %13 to i32*
  %17 = load i32, i32* %16
  %18 = zext i32 %17 to i64
  store i64 %18, i64* %RAX, align 8
  ret %struct.Memory* %2
}

define %struct.Memory* @routine_cmpl_MINUS0xc__rbp____eax(%struct.State* dereferenceable(3376), i64, %struct.Memory*) {
block_400488:
  %3 = getelementptr inbounds %struct.State, %struct.State* %0, i32 0, i32 6
  %4 = getelementptr inbounds %struct.GPR, %struct.GPR* %3, i32 0, i32 33
  %5 = getelementptr inbounds %struct.Reg, %struct.Reg* %4, i32 0, i32 0
  %PC = bitcast %union.anon* %5 to i64*
  %6 = getelementptr inbounds %struct.State, %struct.State* %0, i32 0, i32 6
  %7 = getelementptr inbounds %struct.GPR, %struct.GPR* %6, i32 0, i32 1
  %8 = getelementptr inbounds %struct.Reg, %struct.Reg* %7, i32 0, i32 0
  %EAX = bitcast %union.anon* %8 to i32*
  %9 = getelementptr inbounds %struct.State, %struct.State* %0, i32 0, i32 6
  %10 = getelementptr inbounds %struct.GPR, %struct.GPR* %9, i32 0, i32 15
  %11 = getelementptr inbounds %struct.Reg, %struct.Reg* %10, i32 0, i32 0
  %RBP = bitcast %union.anon* %11 to i64*
  %12 = load i32, i32* %EAX
  %13 = zext i32 %12 to i64
  %14 = load i64, i64* %RBP
  %15 = sub i64 %14, 12
  %16 = load i64, i64* %PC
  %17 = add i64 %16, 3
  store i64 %17, i64* %PC
  %18 = inttoptr i64 %15 to i32*
  %19 = load i32, i32* %18
  %20 = sub i32 %12, %19
  %21 = icmp ult i32 %12, %19
  %22 = zext i1 %21 to i8
  %23 = getelementptr inbounds %struct.State, %struct.State* %0, i64 0, i32 2, i32 1
  store i8 %22, i8* %23, align 1
  %24 = and i32 %20, 255
  %25 = call i32 @llvm.ctpop.i32(i32 %24)
  %26 = trunc i32 %25 to i8
  %27 = and i8 %26, 1
  %28 = xor i8 %27, 1
  %29 = getelementptr inbounds %struct.State, %struct.State* %0, i64 0, i32 2, i32 3
  store i8 %28, i8* %29, align 1
  %30 = xor i32 %19, %12
  %31 = xor i32 %30, %20
  %32 = lshr i32 %31, 4
  %33 = trunc i32 %32 to i8
  %34 = and i8 %33, 1
  %35 = getelementptr inbounds %struct.State, %struct.State* %0, i64 0, i32 2, i32 5
  store i8 %34, i8* %35, align 1
  %36 = icmp eq i32 %20, 0
  %37 = zext i1 %36 to i8
  %38 = getelementptr inbounds %struct.State, %struct.State* %0, i64 0, i32 2, i32 7
  store i8 %37, i8* %38, align 1
  %39 = lshr i32 %20, 31
  %40 = trunc i32 %39 to i8
  %41 = getelementptr inbounds %struct.State, %struct.State* %0, i64 0, i32 2, i32 9
  store i8 %40, i8* %41, align 1
  %42 = lshr i32 %12, 31
  %43 = lshr i32 %19, 31
  %44 = xor i32 %43, %42
  %45 = xor i32 %39, %42
  %46 = add i32 %45, %44
  %47 = icmp eq i32 %46, 2
  %48 = zext i1 %47 to i8
  %49 = getelementptr inbounds %struct.State, %struct.State* %0, i64 0, i32 2, i32 13
  store i8 %48, i8* %49, align 1
  ret %struct.Memory* %2
}

define %struct.Memory* @routine_jge_.L_40befc(%struct.State* dereferenceable(3376), i64, %struct.Memory*, i8* %BRANCH_TAKEN, i64 %rel_off1, i64 %rel_off2, i64 %rel_off3) {
block_400488:
  %3 = getelementptr inbounds %struct.State, %struct.State* %0, i32 0, i32 6
  %4 = getelementptr inbounds %struct.GPR, %struct.GPR* %3, i32 0, i32 33
  %5 = getelementptr inbounds %struct.Reg, %struct.Reg* %4, i32 0, i32 0
  %PC = bitcast %union.anon* %5 to i64*
  %6 = load i64, i64* %PC
  %7 = add i64 %6, %rel_off1
  %8 = load i64, i64* %PC
  %9 = add i64 %8, %rel_off2
  %10 = load i64, i64* %PC
  %11 = add i64 %10, %rel_off3
  store i64 %11, i64* %PC
  %12 = getelementptr inbounds %struct.State, %struct.State* %0, i64 0, i32 2, i32 9
  %13 = load i8, i8* %12, align 1
  %14 = icmp ne i8 %13, 0
  %15 = getelementptr inbounds %struct.State, %struct.State* %0, i64 0, i32 2, i32 13
  %16 = load i8, i8* %15, align 1
  %17 = icmp ne i8 %16, 0
  %18 = xor i1 %14, %17
  %19 = xor i1 %18, true
  %20 = zext i1 %19 to i8
  store i8 %20, i8* %BRANCH_TAKEN, align 1
  %21 = getelementptr inbounds %struct.State, %struct.State* %0, i64 0, i32 6, i32 33, i32 0, i32 0
  %22 = select i1 %18, i64 %9, i64 %7
  store i64 %22, i64* %21, align 8
  ret %struct.Memory* %2
}

define %struct.Memory* @routine_movq_MINUS0x8__rbp____rax(%struct.State* dereferenceable(3376), i64, %struct.Memory*) {
block_400488:
  %3 = getelementptr inbounds %struct.State, %struct.State* %0, i32 0, i32 6
  %4 = getelementptr inbounds %struct.GPR, %struct.GPR* %3, i32 0, i32 33
  %5 = getelementptr inbounds %struct.Reg, %struct.Reg* %4, i32 0, i32 0
  %PC = bitcast %union.anon* %5 to i64*
  %6 = getelementptr inbounds %struct.State, %struct.State* %0, i32 0, i32 6
  %7 = getelementptr inbounds %struct.GPR, %struct.GPR* %6, i32 0, i32 1
  %8 = getelementptr inbounds %struct.Reg, %struct.Reg* %7, i32 0, i32 0
  %RAX = bitcast %union.anon* %8 to i64*
  %9 = getelementptr inbounds %struct.State, %struct.State* %0, i32 0, i32 6
  %10 = getelementptr inbounds %struct.GPR, %struct.GPR* %9, i32 0, i32 15
  %11 = getelementptr inbounds %struct.Reg, %struct.Reg* %10, i32 0, i32 0
  %RBP = bitcast %union.anon* %11 to i64*
  %12 = load i64, i64* %RBP
  %13 = sub i64 %12, 8
  %14 = load i64, i64* %PC
  %15 = add i64 %14, 4
  store i64 %15, i64* %PC
  %16 = inttoptr i64 %13 to i64*
  %17 = load i64, i64* %16
  store i64 %17, i64* %RAX, align 8
  ret %struct.Memory* %2
}

define %struct.Memory* @routine_movslq_MINUS0x4c__rbp____rcx(%struct.State* dereferenceable(3376), i64, %struct.Memory*) {
block_400488:
  %3 = getelementptr inbounds %struct.State, %struct.State* %0, i32 0, i32 6
  %4 = getelementptr inbounds %struct.GPR, %struct.GPR* %3, i32 0, i32 33
  %5 = getelementptr inbounds %struct.Reg, %struct.Reg* %4, i32 0, i32 0
  %PC = bitcast %union.anon* %5 to i64*
  %6 = getelementptr inbounds %struct.State, %struct.State* %0, i32 0, i32 6
  %7 = getelementptr inbounds %struct.GPR, %struct.GPR* %6, i32 0, i32 5
  %8 = getelementptr inbounds %struct.Reg, %struct.Reg* %7, i32 0, i32 0
  %RCX = bitcast %union.anon* %8 to i64*
  %9 = getelementptr inbounds %struct.State, %struct.State* %0, i32 0, i32 6
  %10 = getelementptr inbounds %struct.GPR, %struct.GPR* %9, i32 0, i32 15
  %11 = getelementptr inbounds %struct.Reg, %struct.Reg* %10, i32 0, i32 0
  %RBP = bitcast %union.anon* %11 to i64*
  %12 = load i64, i64* %RBP
  %13 = sub i64 %12, 76
  %14 = load i64, i64* %PC
  %15 = add i64 %14, 4
  store i64 %15, i64* %PC
  %16 = inttoptr i64 %13 to i32*
  %17 = load i32, i32* %16
  %18 = sext i32 %17 to i64
  store i64 %18, i64* %RCX, align 8
  ret %struct.Memory* %2
}

define %struct.Memory* @routine_movsd___rax__rcx_8____xmm0(%struct.State* dereferenceable(3376), i64, %struct.Memory*) {
block_400488:
  %3 = getelementptr inbounds %struct.State, %struct.State* %0, i32 0, i32 6
  %4 = getelementptr inbounds %struct.GPR, %struct.GPR* %3, i32 0, i32 33
  %5 = getelementptr inbounds %struct.Reg, %struct.Reg* %4, i32 0, i32 0
  %PC = bitcast %union.anon* %5 to i64*
  %6 = getelementptr inbounds %struct.State, %struct.State* %0, i32 0, i32 6
  %7 = getelementptr inbounds %struct.GPR, %struct.GPR* %6, i32 0, i32 1
  %8 = getelementptr inbounds %struct.Reg, %struct.Reg* %7, i32 0, i32 0
  %RAX = bitcast %union.anon* %8 to i64*
  %9 = getelementptr inbounds %struct.State, %struct.State* %0, i32 0, i32 6
  %10 = getelementptr inbounds %struct.GPR, %struct.GPR* %9, i32 0, i32 5
  %11 = getelementptr inbounds %struct.Reg, %struct.Reg* %10, i32 0, i32 0
  %RCX = bitcast %union.anon* %11 to i64*
  %12 = getelementptr inbounds %struct.State, %struct.State* %0, i32 0, i32 1
  %13 = getelementptr inbounds [32 x %union.VectorReg], [32 x %union.VectorReg]* %12, i64 0, i64 0
  %YMM0 = bitcast %union.VectorReg* %13 to %"class.std::bitset"*
  %14 = bitcast %"class.std::bitset"* %YMM0 to i8*
  %15 = load i64, i64* %RAX
  %16 = load i64, i64* %RCX
  %17 = mul i64 %16, 8
  %18 = add i64 %17, %15
  %19 = load i64, i64* %PC
  %20 = add i64 %19, 5
  store i64 %20, i64* %PC
  %21 = inttoptr i64 %18 to double*
  %22 = load double, double* %21
  %23 = bitcast i8* %14 to double*
  store double %22, double* %23, align 1
  %24 = getelementptr inbounds i8, i8* %14, i64 8
  %25 = bitcast i8* %24 to double*
  store double 0.000000e+00, double* %25, align 1
  ret %struct.Memory* %2
}

define %struct.Memory* @routine_movsd_MINUS0x18__rbp____xmm1(%struct.State* dereferenceable(3376), i64, %struct.Memory*) {
block_400488:
  %3 = getelementptr inbounds %struct.State, %struct.State* %0, i32 0, i32 6
  %4 = getelementptr inbounds %struct.GPR, %struct.GPR* %3, i32 0, i32 33
  %5 = getelementptr inbounds %struct.Reg, %struct.Reg* %4, i32 0, i32 0
  %PC = bitcast %union.anon* %5 to i64*
  %6 = getelementptr inbounds %struct.State, %struct.State* %0, i32 0, i32 6
  %7 = getelementptr inbounds %struct.GPR, %struct.GPR* %6, i32 0, i32 15
  %8 = getelementptr inbounds %struct.Reg, %struct.Reg* %7, i32 0, i32 0
  %RBP = bitcast %union.anon* %8 to i64*
  %9 = getelementptr inbounds %struct.State, %struct.State* %0, i32 0, i32 1
  %10 = getelementptr inbounds [32 x %union.VectorReg], [32 x %union.VectorReg]* %9, i64 0, i64 1
  %YMM1 = bitcast %union.VectorReg* %10 to %"class.std::bitset"*
  %11 = bitcast %"class.std::bitset"* %YMM1 to i8*
  %12 = load i64, i64* %RBP
  %13 = sub i64 %12, 24
  %14 = load i64, i64* %PC
  %15 = add i64 %14, 5
  store i64 %15, i64* %PC
  %16 = inttoptr i64 %13 to double*
  %17 = load double, double* %16
  %18 = bitcast i8* %11 to double*
  store double %17, double* %18, align 1
  %19 = getelementptr inbounds i8, i8* %11, i64 8
  %20 = bitcast i8* %19 to double*
  store double 0.000000e+00, double* %20, align 1
  ret %struct.Memory* %2
}

define %struct.Memory* @routine_movsd_MINUS0x20__rbp____xmm2(%struct.State* dereferenceable(3376), i64, %struct.Memory*) {
block_400488:
  %3 = getelementptr inbounds %struct.State, %struct.State* %0, i32 0, i32 6
  %4 = getelementptr inbounds %struct.GPR, %struct.GPR* %3, i32 0, i32 33
  %5 = getelementptr inbounds %struct.Reg, %struct.Reg* %4, i32 0, i32 0
  %PC = bitcast %union.anon* %5 to i64*
  %6 = getelementptr inbounds %struct.State, %struct.State* %0, i32 0, i32 6
  %7 = getelementptr inbounds %struct.GPR, %struct.GPR* %6, i32 0, i32 15
  %8 = getelementptr inbounds %struct.Reg, %struct.Reg* %7, i32 0, i32 0
  %RBP = bitcast %union.anon* %8 to i64*
  %9 = getelementptr inbounds %struct.State, %struct.State* %0, i32 0, i32 1
  %10 = getelementptr inbounds [32 x %union.VectorReg], [32 x %union.VectorReg]* %9, i64 0, i64 2
  %YMM2 = bitcast %union.VectorReg* %10 to %"class.std::bitset"*
  %11 = bitcast %"class.std::bitset"* %YMM2 to i8*
  %12 = load i64, i64* %RBP
  %13 = sub i64 %12, 32
  %14 = load i64, i64* %PC
  %15 = add i64 %14, 5
  store i64 %15, i64* %PC
  %16 = inttoptr i64 %13 to double*
  %17 = load double, double* %16
  %18 = bitcast i8* %11 to double*
  store double %17, double* %18, align 1
  %19 = getelementptr inbounds i8, i8* %11, i64 8
  %20 = bitcast i8* %19 to double*
  store double 0.000000e+00, double* %20, align 1
  ret %struct.Memory* %2
}

define %struct.Memory* @routine_movsd_MINUS0x28__rbp____xmm3(%struct.State* dereferenceable(3376), i64, %struct.Memory*) {
block_400488:
  %3 = getelementptr inbounds %struct.State, %struct.State* %0, i32 0, i32 6
  %4 = getelementptr inbounds %struct.GPR, %struct.GPR* %3, i32 0, i32 33
  %5 = getelementptr inbounds %struct.Reg, %struct.Reg* %4, i32 0, i32 0
  %PC = bitcast %union.anon* %5 to i64*
  %6 = getelementptr inbounds %struct.State, %struct.State* %0, i32 0, i32 6
  %7 = getelementptr inbounds %struct.GPR, %struct.GPR* %6, i32 0, i32 15
  %8 = getelementptr inbounds %struct.Reg, %struct.Reg* %7, i32 0, i32 0
  %RBP = bitcast %union.anon* %8 to i64*
  %9 = getelementptr inbounds %struct.State, %struct.State* %0, i32 0, i32 1
  %10 = getelementptr inbounds [32 x %union.VectorReg], [32 x %union.VectorReg]* %9, i64 0, i64 3
  %YMM3 = bitcast %union.VectorReg* %10 to %"class.std::bitset"*
  %11 = bitcast %"class.std::bitset"* %YMM3 to i8*
  %12 = load i64, i64* %RBP
  %13 = sub i64 %12, 40
  %14 = load i64, i64* %PC
  %15 = add i64 %14, 5
  store i64 %15, i64* %PC
  %16 = inttoptr i64 %13 to double*
  %17 = load double, double* %16
  %18 = bitcast i8* %11 to double*
  store double %17, double* %18, align 1
  %19 = getelementptr inbounds i8, i8* %11, i64 8
  %20 = bitcast i8* %19 to double*
  store double 0.000000e+00, double* %20, align 1
  ret %struct.Memory* %2
}

define %struct.Memory* @routine_movsd_MINUS0x30__rbp____xmm4(%struct.State* dereferenceable(3376), i64, %struct.Memory*) {
block_400488:
  %3 = getelementptr inbounds %struct.State, %struct.State* %0, i32 0, i32 6
  %4 = getelementptr inbounds %struct.GPR, %struct.GPR* %3, i32 0, i32 33
  %5 = getelementptr inbounds %struct.Reg, %struct.Reg* %4, i32 0, i32 0
  %PC = bitcast %union.anon* %5 to i64*
  %6 = getelementptr inbounds %struct.State, %struct.State* %0, i32 0, i32 6
  %7 = getelementptr inbounds %struct.GPR, %struct.GPR* %6, i32 0, i32 15
  %8 = getelementptr inbounds %struct.Reg, %struct.Reg* %7, i32 0, i32 0
  %RBP = bitcast %union.anon* %8 to i64*
  %9 = getelementptr inbounds %struct.State, %struct.State* %0, i32 0, i32 1
  %10 = getelementptr inbounds [32 x %union.VectorReg], [32 x %union.VectorReg]* %9, i64 0, i64 4
  %YMM4 = bitcast %union.VectorReg* %10 to %"class.std::bitset"*
  %11 = bitcast %"class.std::bitset"* %YMM4 to i8*
  %12 = load i64, i64* %RBP
  %13 = sub i64 %12, 48
  %14 = load i64, i64* %PC
  %15 = add i64 %14, 5
  store i64 %15, i64* %PC
  %16 = inttoptr i64 %13 to double*
  %17 = load double, double* %16
  %18 = bitcast i8* %11 to double*
  store double %17, double* %18, align 1
  %19 = getelementptr inbounds i8, i8* %11, i64 8
  %20 = bitcast i8* %19 to double*
  store double 0.000000e+00, double* %20, align 1
  ret %struct.Memory* %2
}

define %struct.Memory* @routine_callq_._ZN30custom_mixed_multiple_variableIdE8do_shiftEddddd(%struct.State* dereferenceable(3376), i64, %struct.Memory*, i64 %rel_off1, i64 %rel_off2, i64 %rel_off3) {
block_400488:
  %3 = getelementptr inbounds %struct.State, %struct.State* %0, i32 0, i32 6
  %4 = getelementptr inbounds %struct.GPR, %struct.GPR* %3, i32 0, i32 33
  %5 = getelementptr inbounds %struct.Reg, %struct.Reg* %4, i32 0, i32 0
  %PC = bitcast %union.anon* %5 to i64*
  %6 = load i64, i64* %PC
  %7 = add i64 %6, %rel_off1
  %8 = load i64, i64* %PC
  %9 = add i64 %8, %rel_off2
  %10 = load i64, i64* %PC
  %11 = add i64 %10, %rel_off3
  store i64 %11, i64* %PC
  %12 = getelementptr inbounds %struct.State, %struct.State* %0, i64 0, i32 6, i32 13, i32 0, i32 0
  %13 = load i64, i64* %12, align 8
  %14 = add i64 %13, -8
  %15 = inttoptr i64 %14 to i64*
  store i64 %9, i64* %15
  store i64 %14, i64* %12, align 8
  %16 = getelementptr inbounds %struct.State, %struct.State* %0, i64 0, i32 6, i32 33, i32 0, i32 0
  store i64 %7, i64* %16, align 8
  ret %struct.Memory* %2
}

define %struct.Memory* @routine_addsd_MINUS0x48__rbp____xmm0(%struct.State* dereferenceable(3376), i64, %struct.Memory*) {
block_400488:
  %3 = getelementptr inbounds %struct.State, %struct.State* %0, i32 0, i32 6
  %4 = getelementptr inbounds %struct.GPR, %struct.GPR* %3, i32 0, i32 33
  %5 = getelementptr inbounds %struct.Reg, %struct.Reg* %4, i32 0, i32 0
  %PC = bitcast %union.anon* %5 to i64*
  %6 = getelementptr inbounds %struct.State, %struct.State* %0, i32 0, i32 6
  %7 = getelementptr inbounds %struct.GPR, %struct.GPR* %6, i32 0, i32 15
  %8 = getelementptr inbounds %struct.Reg, %struct.Reg* %7, i32 0, i32 0
  %RBP = bitcast %union.anon* %8 to i64*
  %9 = getelementptr inbounds %struct.State, %struct.State* %0, i32 0, i32 1
  %10 = getelementptr inbounds [32 x %union.VectorReg], [32 x %union.VectorReg]* %9, i64 0, i64 0
  %YMM0 = bitcast %union.VectorReg* %10 to %"class.std::bitset"*
  %11 = bitcast %"class.std::bitset"* %YMM0 to i8*
  %12 = bitcast %"class.std::bitset"* %YMM0 to i8*
  %13 = load i64, i64* %RBP
  %14 = sub i64 %13, 72
  %15 = load i64, i64* %PC
  %16 = add i64 %15, 5
  store i64 %16, i64* %PC
  %17 = bitcast i8* %12 to double*
  %18 = load double, double* %17, align 1
  %19 = getelementptr inbounds i8, i8* %12, i64 8
  %20 = bitcast i8* %19 to i64*
  %21 = load i64, i64* %20, align 1
  %22 = inttoptr i64 %14 to double*
  %23 = load double, double* %22
  %24 = fadd double %18, %23
  %25 = bitcast i8* %11 to double*
  store double %24, double* %25, align 1
  %26 = getelementptr inbounds i8, i8* %11, i64 8
  %27 = bitcast i8* %26 to i64*
  store i64 %21, i64* %27, align 1
  ret %struct.Memory* %2
}

define %struct.Memory* @routine_addl__0x1___eax(%struct.State* dereferenceable(3376), i64, %struct.Memory*) {
block_400488:
  %3 = getelementptr inbounds %struct.State, %struct.State* %0, i32 0, i32 6
  %4 = getelementptr inbounds %struct.GPR, %struct.GPR* %3, i32 0, i32 33
  %5 = getelementptr inbounds %struct.Reg, %struct.Reg* %4, i32 0, i32 0
  %PC = bitcast %union.anon* %5 to i64*
  %6 = getelementptr inbounds %struct.State, %struct.State* %0, i32 0, i32 6
  %7 = getelementptr inbounds %struct.GPR, %struct.GPR* %6, i32 0, i32 1
  %8 = getelementptr inbounds %struct.Reg, %struct.Reg* %7, i32 0, i32 0
  %RAX = bitcast %union.anon* %8 to i64*
  %9 = load i64, i64* %RAX
  %10 = load i64, i64* %PC
  %11 = add i64 %10, 3
  store i64 %11, i64* %PC
  %12 = trunc i64 %9 to i32
  %13 = add i32 1, %12
  %14 = zext i32 %13 to i64
  store i64 %14, i64* %RAX, align 8
  %15 = icmp ult i32 %13, %12
  %16 = icmp ult i32 %13, 1
  %17 = or i1 %15, %16
  %18 = zext i1 %17 to i8
  %19 = getelementptr inbounds %struct.State, %struct.State* %0, i64 0, i32 2, i32 1
  store i8 %18, i8* %19, align 1
  %20 = and i32 %13, 255
  %21 = call i32 @llvm.ctpop.i32(i32 %20)
  %22 = trunc i32 %21 to i8
  %23 = and i8 %22, 1
  %24 = xor i8 %23, 1
  %25 = getelementptr inbounds %struct.State, %struct.State* %0, i64 0, i32 2, i32 3
  store i8 %24, i8* %25, align 1
  %26 = xor i64 1, %9
  %27 = trunc i64 %26 to i32
  %28 = xor i32 %27, %13
  %29 = lshr i32 %28, 4
  %30 = trunc i32 %29 to i8
  %31 = and i8 %30, 1
  %32 = getelementptr inbounds %struct.State, %struct.State* %0, i64 0, i32 2, i32 5
  store i8 %31, i8* %32, align 1
  %33 = icmp eq i32 %13, 0
  %34 = zext i1 %33 to i8
  %35 = getelementptr inbounds %struct.State, %struct.State* %0, i64 0, i32 2, i32 7
  store i8 %34, i8* %35, align 1
  %36 = lshr i32 %13, 31
  %37 = trunc i32 %36 to i8
  %38 = getelementptr inbounds %struct.State, %struct.State* %0, i64 0, i32 2, i32 9
  store i8 %37, i8* %38, align 1
  %39 = lshr i32 %12, 31
  %40 = xor i32 %36, %39
  %41 = add i32 %40, %36
  %42 = icmp eq i32 %41, 2
  %43 = zext i1 %42 to i8
  %44 = getelementptr inbounds %struct.State, %struct.State* %0, i64 0, i32 2, i32 13
  store i8 %43, i8* %44, align 1
  ret %struct.Memory* %2
}

define %struct.Memory* @routine_movl__eax__MINUS0x4c__rbp_(%struct.State* dereferenceable(3376), i64, %struct.Memory*) {
block_400488:
  %3 = getelementptr inbounds %struct.State, %struct.State* %0, i32 0, i32 6
  %4 = getelementptr inbounds %struct.GPR, %struct.GPR* %3, i32 0, i32 33
  %5 = getelementptr inbounds %struct.Reg, %struct.Reg* %4, i32 0, i32 0
  %PC = bitcast %union.anon* %5 to i64*
  %6 = getelementptr inbounds %struct.State, %struct.State* %0, i32 0, i32 6
  %7 = getelementptr inbounds %struct.GPR, %struct.GPR* %6, i32 0, i32 1
  %8 = getelementptr inbounds %struct.Reg, %struct.Reg* %7, i32 0, i32 0
  %EAX = bitcast %union.anon* %8 to i32*
  %9 = getelementptr inbounds %struct.State, %struct.State* %0, i32 0, i32 6
  %10 = getelementptr inbounds %struct.GPR, %struct.GPR* %9, i32 0, i32 15
  %11 = getelementptr inbounds %struct.Reg, %struct.Reg* %10, i32 0, i32 0
  %RBP = bitcast %union.anon* %11 to i64*
  %12 = load i64, i64* %RBP
  %13 = sub i64 %12, 76
  %14 = load i32, i32* %EAX
  %15 = zext i32 %14 to i64
  %16 = load i64, i64* %PC
  %17 = add i64 %16, 3
  store i64 %17, i64* %PC
  %18 = inttoptr i64 %13 to i32*
  store i32 %14, i32* %18
  ret %struct.Memory* %2
}

define %struct.Memory* @routine_jmpq_.L_40beb2(%struct.State* dereferenceable(3376), i64, %struct.Memory*, i64 %rel_off1, i64 %rel_off2) {
block_400488:
  %3 = getelementptr inbounds %struct.State, %struct.State* %0, i32 0, i32 6
  %4 = getelementptr inbounds %struct.GPR, %struct.GPR* %3, i32 0, i32 33
  %5 = getelementptr inbounds %struct.Reg, %struct.Reg* %4, i32 0, i32 0
  %PC = bitcast %union.anon* %5 to i64*
  %6 = load i64, i64* %PC
  %7 = add i64 %6, %rel_off1
  %8 = load i64, i64* %PC
  %9 = add i64 %8, %rel_off2
  store i64 %9, i64* %PC
  %10 = getelementptr inbounds %struct.State, %struct.State* %0, i64 0, i32 6, i32 33, i32 0, i32 0
  store i64 %7, i64* %10, align 8
  ret %struct.Memory* %2
}

define %struct.Memory* @routine_movsd_MINUS0x48__rbp____xmm0(%struct.State* dereferenceable(3376), i64, %struct.Memory*) {
block_400488:
  %3 = getelementptr inbounds %struct.State, %struct.State* %0, i32 0, i32 6
  %4 = getelementptr inbounds %struct.GPR, %struct.GPR* %3, i32 0, i32 33
  %5 = getelementptr inbounds %struct.Reg, %struct.Reg* %4, i32 0, i32 0
  %PC = bitcast %union.anon* %5 to i64*
  %6 = getelementptr inbounds %struct.State, %struct.State* %0, i32 0, i32 6
  %7 = getelementptr inbounds %struct.GPR, %struct.GPR* %6, i32 0, i32 15
  %8 = getelementptr inbounds %struct.Reg, %struct.Reg* %7, i32 0, i32 0
  %RBP = bitcast %union.anon* %8 to i64*
  %9 = getelementptr inbounds %struct.State, %struct.State* %0, i32 0, i32 1
  %10 = getelementptr inbounds [32 x %union.VectorReg], [32 x %union.VectorReg]* %9, i64 0, i64 0
  %YMM0 = bitcast %union.VectorReg* %10 to %"class.std::bitset"*
  %11 = bitcast %"class.std::bitset"* %YMM0 to i8*
  %12 = load i64, i64* %RBP
  %13 = sub i64 %12, 72
  %14 = load i64, i64* %PC
  %15 = add i64 %14, 5
  store i64 %15, i64* %PC
  %16 = inttoptr i64 %13 to double*
  %17 = load double, double* %16
  %18 = bitcast i8* %11 to double*
  store double %17, double* %18, align 1
  %19 = getelementptr inbounds i8, i8* %11, i64 8
  %20 = bitcast i8* %19 to double*
  store double 0.000000e+00, double* %20, align 1
  ret %struct.Memory* %2
}

define %struct.Memory* @routine_callq_._Z26check_shifted_variable_sumId30custom_mixed_multiple_variableIdEEvT_S2_S2_S2_S2_(%struct.State* dereferenceable(3376), i64, %struct.Memory*, i64 %rel_off1, i64 %rel_off2, i64 %rel_off3) {
block_400488:
  %3 = getelementptr inbounds %struct.State, %struct.State* %0, i32 0, i32 6
  %4 = getelementptr inbounds %struct.GPR, %struct.GPR* %3, i32 0, i32 33
  %5 = getelementptr inbounds %struct.Reg, %struct.Reg* %4, i32 0, i32 0
  %PC = bitcast %union.anon* %5 to i64*
  %6 = load i64, i64* %PC
  %7 = add i64 %6, %rel_off1
  %8 = load i64, i64* %PC
  %9 = add i64 %8, %rel_off2
  %10 = load i64, i64* %PC
  %11 = add i64 %10, %rel_off3
  store i64 %11, i64* %PC
  %12 = getelementptr inbounds %struct.State, %struct.State* %0, i64 0, i32 6, i32 13, i32 0, i32 0
  %13 = load i64, i64* %12, align 8
  %14 = add i64 %13, -8
  %15 = inttoptr i64 %14 to i64*
  store i64 %9, i64* %15
  store i64 %14, i64* %12, align 8
  %16 = getelementptr inbounds %struct.State, %struct.State* %0, i64 0, i32 6, i32 33, i32 0, i32 0
  store i64 %7, i64* %16, align 8
  ret %struct.Memory* %2
}

define %struct.Memory* @routine_movl__eax__MINUS0x3c__rbp_(%struct.State* dereferenceable(3376), i64, %struct.Memory*) {
block_400488:
  %3 = getelementptr inbounds %struct.State, %struct.State* %0, i32 0, i32 6
  %4 = getelementptr inbounds %struct.GPR, %struct.GPR* %3, i32 0, i32 33
  %5 = getelementptr inbounds %struct.Reg, %struct.Reg* %4, i32 0, i32 0
  %PC = bitcast %union.anon* %5 to i64*
  %6 = getelementptr inbounds %struct.State, %struct.State* %0, i32 0, i32 6
  %7 = getelementptr inbounds %struct.GPR, %struct.GPR* %6, i32 0, i32 1
  %8 = getelementptr inbounds %struct.Reg, %struct.Reg* %7, i32 0, i32 0
  %EAX = bitcast %union.anon* %8 to i32*
  %9 = getelementptr inbounds %struct.State, %struct.State* %0, i32 0, i32 6
  %10 = getelementptr inbounds %struct.GPR, %struct.GPR* %9, i32 0, i32 15
  %11 = getelementptr inbounds %struct.Reg, %struct.Reg* %10, i32 0, i32 0
  %RBP = bitcast %union.anon* %11 to i64*
  %12 = load i64, i64* %RBP
  %13 = sub i64 %12, 60
  %14 = load i32, i32* %EAX
  %15 = zext i32 %14 to i64
  %16 = load i64, i64* %PC
  %17 = add i64 %16, 3
  store i64 %17, i64* %PC
  %18 = inttoptr i64 %13 to i32*
  store i32 %14, i32* %18
  ret %struct.Memory* %2
}

define %struct.Memory* @routine_jmpq_.L_40be93(%struct.State* dereferenceable(3376), i64, %struct.Memory*, i64 %rel_off1, i64 %rel_off2) {
block_400488:
  %3 = getelementptr inbounds %struct.State, %struct.State* %0, i32 0, i32 6
  %4 = getelementptr inbounds %struct.GPR, %struct.GPR* %3, i32 0, i32 33
  %5 = getelementptr inbounds %struct.Reg, %struct.Reg* %4, i32 0, i32 0
  %PC = bitcast %union.anon* %5 to i64*
  %6 = load i64, i64* %PC
  %7 = add i64 %6, %rel_off1
  %8 = load i64, i64* %PC
  %9 = add i64 %8, %rel_off2
  store i64 %9, i64* %PC
  %10 = getelementptr inbounds %struct.State, %struct.State* %0, i64 0, i32 6, i32 33, i32 0, i32 0
  store i64 %7, i64* %10, align 8
  ret %struct.Memory* %2
}

define %struct.Memory* @routine_callq_._Z5timerv(%struct.State* dereferenceable(3376), i64, %struct.Memory*, i64 %rel_off1, i64 %rel_off2, i64 %rel_off3) {
block_400488:
  %3 = getelementptr inbounds %struct.State, %struct.State* %0, i32 0, i32 6
  %4 = getelementptr inbounds %struct.GPR, %struct.GPR* %3, i32 0, i32 33
  %5 = getelementptr inbounds %struct.Reg, %struct.Reg* %4, i32 0, i32 0
  %PC = bitcast %union.anon* %5 to i64*
  %6 = load i64, i64* %PC
  %7 = add i64 %6, %rel_off1
  %8 = load i64, i64* %PC
  %9 = add i64 %8, %rel_off2
  %10 = load i64, i64* %PC
  %11 = add i64 %10, %rel_off3
  store i64 %11, i64* %PC
  %12 = getelementptr inbounds %struct.State, %struct.State* %0, i64 0, i32 6, i32 13, i32 0, i32 0
  %13 = load i64, i64* %12, align 8
  %14 = add i64 %13, -8
  %15 = inttoptr i64 %14 to i64*
  store i64 %9, i64* %15
  store i64 %14, i64* %12, align 8
  %16 = getelementptr inbounds %struct.State, %struct.State* %0, i64 0, i32 6, i32 33, i32 0, i32 0
  store i64 %7, i64* %16, align 8
  ret %struct.Memory* %2
}

define %struct.Memory* @routine_movq_MINUS0x38__rbp____rdi(%struct.State* dereferenceable(3376), i64, %struct.Memory*) {
block_400488:
  %3 = getelementptr inbounds %struct.State, %struct.State* %0, i32 0, i32 6
  %4 = getelementptr inbounds %struct.GPR, %struct.GPR* %3, i32 0, i32 33
  %5 = getelementptr inbounds %struct.Reg, %struct.Reg* %4, i32 0, i32 0
  %PC = bitcast %union.anon* %5 to i64*
  %6 = getelementptr inbounds %struct.State, %struct.State* %0, i32 0, i32 6
  %7 = getelementptr inbounds %struct.GPR, %struct.GPR* %6, i32 0, i32 11
  %8 = getelementptr inbounds %struct.Reg, %struct.Reg* %7, i32 0, i32 0
  %RDI = bitcast %union.anon* %8 to i64*
  %9 = getelementptr inbounds %struct.State, %struct.State* %0, i32 0, i32 6
  %10 = getelementptr inbounds %struct.GPR, %struct.GPR* %9, i32 0, i32 15
  %11 = getelementptr inbounds %struct.Reg, %struct.Reg* %10, i32 0, i32 0
  %RBP = bitcast %union.anon* %11 to i64*
  %12 = load i64, i64* %RBP
  %13 = sub i64 %12, 56
  %14 = load i64, i64* %PC
  %15 = add i64 %14, 4
  store i64 %15, i64* %PC
  %16 = inttoptr i64 %13 to i64*
  %17 = load i64, i64* %16
  store i64 %17, i64* %RDI, align 8
  ret %struct.Memory* %2
}

define %struct.Memory* @routine_callq_._Z13record_resultdPKc(%struct.State* dereferenceable(3376), i64, %struct.Memory*, i64 %rel_off1, i64 %rel_off2, i64 %rel_off3) {
block_400488:
  %3 = getelementptr inbounds %struct.State, %struct.State* %0, i32 0, i32 6
  %4 = getelementptr inbounds %struct.GPR, %struct.GPR* %3, i32 0, i32 33
  %5 = getelementptr inbounds %struct.Reg, %struct.Reg* %4, i32 0, i32 0
  %PC = bitcast %union.anon* %5 to i64*
  %6 = load i64, i64* %PC
  %7 = add i64 %6, %rel_off1
  %8 = load i64, i64* %PC
  %9 = add i64 %8, %rel_off2
  %10 = load i64, i64* %PC
  %11 = add i64 %10, %rel_off3
  store i64 %11, i64* %PC
  %12 = getelementptr inbounds %struct.State, %struct.State* %0, i64 0, i32 6, i32 13, i32 0, i32 0
  %13 = load i64, i64* %12, align 8
  %14 = add i64 %13, -8
  %15 = inttoptr i64 %14 to i64*
  store i64 %9, i64* %15
  store i64 %14, i64* %12, align 8
  %16 = getelementptr inbounds %struct.State, %struct.State* %0, i64 0, i32 6, i32 33, i32 0, i32 0
  store i64 %7, i64* %16, align 8
  ret %struct.Memory* %2
}

define %struct.Memory* @routine_addq__0x50___rsp(%struct.State* dereferenceable(3376), i64, %struct.Memory*) {
block_400488:
  %3 = getelementptr inbounds %struct.State, %struct.State* %0, i32 0, i32 6
  %4 = getelementptr inbounds %struct.GPR, %struct.GPR* %3, i32 0, i32 33
  %5 = getelementptr inbounds %struct.Reg, %struct.Reg* %4, i32 0, i32 0
  %PC = bitcast %union.anon* %5 to i64*
  %6 = getelementptr inbounds %struct.State, %struct.State* %0, i32 0, i32 6
  %7 = getelementptr inbounds %struct.GPR, %struct.GPR* %6, i32 0, i32 13
  %8 = getelementptr inbounds %struct.Reg, %struct.Reg* %7, i32 0, i32 0
  %RSP = bitcast %union.anon* %8 to i64*
  %9 = load i64, i64* %RSP
  %10 = load i64, i64* %PC
  %11 = add i64 %10, 4
  store i64 %11, i64* %PC
  %12 = add i64 80, %9
  store i64 %12, i64* %RSP, align 8
  %13 = icmp ult i64 %12, %9
  %14 = icmp ult i64 %12, 80
  %15 = or i1 %13, %14
  %16 = zext i1 %15 to i8
  %17 = getelementptr inbounds %struct.State, %struct.State* %0, i64 0, i32 2, i32 1
  store i8 %16, i8* %17, align 1
  %18 = trunc i64 %12 to i32
  %19 = and i32 %18, 255
  %20 = call i32 @llvm.ctpop.i32(i32 %19)
  %21 = trunc i32 %20 to i8
  %22 = and i8 %21, 1
  %23 = xor i8 %22, 1
  %24 = getelementptr inbounds %struct.State, %struct.State* %0, i64 0, i32 2, i32 3
  store i8 %23, i8* %24, align 1
  %25 = xor i64 80, %9
  %26 = xor i64 %25, %12
  %27 = lshr i64 %26, 4
  %28 = trunc i64 %27 to i8
  %29 = and i8 %28, 1
  %30 = getelementptr inbounds %struct.State, %struct.State* %0, i64 0, i32 2, i32 5
  store i8 %29, i8* %30, align 1
  %31 = icmp eq i64 %12, 0
  %32 = zext i1 %31 to i8
  %33 = getelementptr inbounds %struct.State, %struct.State* %0, i64 0, i32 2, i32 7
  store i8 %32, i8* %33, align 1
  %34 = lshr i64 %12, 63
  %35 = trunc i64 %34 to i8
  %36 = getelementptr inbounds %struct.State, %struct.State* %0, i64 0, i32 2, i32 9
  store i8 %35, i8* %36, align 1
  %37 = lshr i64 %9, 63
  %38 = xor i64 %34, %37
  %39 = add i64 %38, %34
  %40 = icmp eq i64 %39, 2
  %41 = zext i1 %40 to i8
  %42 = getelementptr inbounds %struct.State, %struct.State* %0, i64 0, i32 2, i32 13
  store i8 %41, i8* %42, align 1
  ret %struct.Memory* %2
}

define %struct.Memory* @routine_popq__rbp(%struct.State* dereferenceable(3376), i64, %struct.Memory*) {
block_400488:
  %3 = getelementptr inbounds %struct.State, %struct.State* %0, i32 0, i32 6
  %4 = getelementptr inbounds %struct.GPR, %struct.GPR* %3, i32 0, i32 33
  %5 = getelementptr inbounds %struct.Reg, %struct.Reg* %4, i32 0, i32 0
  %PC = bitcast %union.anon* %5 to i64*
  %6 = getelementptr inbounds %struct.State, %struct.State* %0, i32 0, i32 6
  %7 = getelementptr inbounds %struct.GPR, %struct.GPR* %6, i32 0, i32 15
  %8 = getelementptr inbounds %struct.Reg, %struct.Reg* %7, i32 0, i32 0
  %RBP = bitcast %union.anon* %8 to i64*
  %9 = load i64, i64* %PC
  %10 = add i64 %9, 1
  store i64 %10, i64* %PC
  %11 = getelementptr inbounds %struct.State, %struct.State* %0, i64 0, i32 6, i32 13, i32 0, i32 0
  %12 = load i64, i64* %11, align 8
  %13 = add i64 %12, 8
  %14 = inttoptr i64 %12 to i64*
  %15 = load i64, i64* %14
  store i64 %15, i64* %RBP, align 8
  store i64 %13, i64* %11, align 8
  ret %struct.Memory* %2
}

define %struct.Memory* @routine_retq(%struct.State* dereferenceable(3376), i64, %struct.Memory*) {
block_400488:
  %3 = getelementptr inbounds %struct.State, %struct.State* %0, i32 0, i32 6
  %4 = getelementptr inbounds %struct.GPR, %struct.GPR* %3, i32 0, i32 33
  %5 = getelementptr inbounds %struct.Reg, %struct.Reg* %4, i32 0, i32 0
  %PC = bitcast %union.anon* %5 to i64*
  %6 = load i64, i64* %PC
  %7 = add i64 %6, 1
  store i64 %7, i64* %PC
  %8 = getelementptr inbounds %struct.State, %struct.State* %0, i64 0, i32 6, i32 33, i32 0, i32 0
  %9 = getelementptr inbounds %struct.State, %struct.State* %0, i64 0, i32 6, i32 13, i32 0, i32 0
  %10 = load i64, i64* %9, align 8
  %11 = inttoptr i64 %10 to i64*
  %12 = load i64, i64* %11
  store i64 %12, i64* %8, align 8
  %13 = add i64 %10, 8
  store i64 %13, i64* %9, align 8
  ret %struct.Memory* %2
}

attributes #0 = { nounwind readnone }
attributes #1 = { alwaysinline }
